(lp0
VPLAYER TEAM DATE MATCHUP W/L MIN PTS FGM FGA FG% 3PM 3PA 3P% FTM FTA FT% OREB DREB REB AST STL BLK TOV PF +/-
p1
aVVinnie Johnson DET 04/25/1986 DET vs. ATL L 10 2 1 3 33.3 0 0 - 0 0 - 1 0 1 1 0 0 2 1 -
p2
aVIsiah Thomas DET 04/25/1986 DET vs. ATL L 53 30 13 29 44.8 0 1 0.0 4 9 44.4 2 8 10 12 1 0 3 4 -
p3
aVKelly Tripucka DET 04/25/1986 DET vs. ATL L 56 24 11 27 40.7 0 0 - 2 2 100.0 4 4 8 0 0 1 7 3 -
p4
aVEarl Cureton DET 04/25/1986 DET vs. ATL L 29 8 4 6 66.7 0 1 0.0 0 0 - 2 1 3 2 0 0 1 5 -
p5
aVKent Benson DET 04/25/1986 DET vs. ATL L 19 2 1 2 50.0 0 0 - 0 0 - 0 6 6 0 0 0 0 0 -
p6
aVBill Laimbeer DET 04/25/1986 DET vs. ATL L 52 27 9 23 39.1 0 0 - 9 11 81.8 6 7 13 0 0 3 3 6 -
p7
aVRick Mahorn DET 04/25/1986 DET vs. ATL L 18 2 1 5 20.0 0 0 - 0 0 - 0 5 5 0 0 0 0 5 -
p8
aVJoe Dumars DET 04/25/1986 DET vs. ATL L 53 18 7 12 58.3 0 0 - 4 6 66.7 5 2 7 11 2 0 1 3 -
p9
aVEarl Cureton DET 04/22/1986 DET vs. ATL W 33 6 3 5 60.0 0 0 - 0 2 0.0 3 7 10 1 0 0 1 3 -
p10
aVVinnie Johnson DET 04/22/1986 DET vs. ATL W 20 10 4 10 40.0 0 0 - 2 4 50.0 2 2 4 3 0 0 1 1 -
p11
aVKelly Tripucka DET 04/22/1986 DET vs. ATL W 43 33 12 22 54.5 0 0 - 9 9 100.0 1 2 3 2 1 1 6 2 -
p12
aVIsiah Thomas DET 04/22/1986 DET vs. ATL W 36 20 6 10 60.0 0 0 - 8 11 72.7 2 1 3 11 4 2 2 3 -
p13
aVRick Mahorn DET 04/22/1986 DET vs. ATL W 24 6 3 6 50.0 0 0 - 0 0 - 2 2 4 0 1 0 1 5 -
p14
aVKent Benson DET 04/22/1986 DET vs. ATL W 5 0 0 1 0.0 0 0 - 0 0 - 0 0 0 0 0 0 0 4 -
p15
aVJoe Dumars DET 04/22/1986 DET vs. ATL W 40 17 7 11 63.6 0 0 - 3 4 75.0 0 2 2 7 2 0 1 4 -
p16
aVBill Laimbeer DET 04/22/1986 DET vs. ATL W 39 14 7 15 46.7 0 0 - 0 0 - 1 13 14 0 1 0 3 4 -
p17
aVVinnie Johnson DET 04/19/1986 DET @ ATL L 26 23 9 17 52.9 0 0 - 5 9 55.6 3 3 6 5 3 0 2 3 -
p18
aVChuck Nevitt DET 04/19/1986 DET @ ATL L 1 0 0 0 - 0 0 - 0 0 - 0 0 0 0 0 0 0 0 -
p19
aVEarl Cureton DET 04/19/1986 DET @ ATL L 31 8 3 6 50.0 0 0 - 2 6 33.3 5 4 9 2 2 0 2 3 -
p20
aVIsiah Thomas DET 04/19/1986 DET @ ATL L 38 36 16 33 48.5 0 2 0.0 4 5 80.0 2 1 3 9 1 1 6 5 -
p21
aVRick Mahorn DET 04/19/1986 DET @ ATL L 7 0 0 1 0.0 0 0 - 0 0 - 0 1 1 0 0 0 0 2 -
p22
aVJoe Dumars DET 04/19/1986 DET @ ATL L 23 12 6 9 66.7 0 0 - 0 1 0.0 1 2 3 3 0 0 4 5 -
p23
aVTony Campbell DET 04/19/1986 DET @ ATL L 2 1 0 2 0.0 0 0 - 1 2 50.0 0 2 2 0 0 0 0 2 -
p24
aVBill Laimbeer DET 04/19/1986 DET @ ATL L 40 23 8 12 66.7 1 1 100.0 6 6 100.0 5 7 12 0 1 0 0 5 -
p25
aVKent Benson DET 04/19/1986 DET @ ATL L 17 4 2 5 40.0 0 0 - 0 0 - 2 3 5 0 0 1 0 5 -
p26
aVKelly Tripucka DET 04/19/1986 DET @ ATL L 42 11 4 12 33.3 0 0 - 3 4 75.0 3 3 6 1 1 0 2 6 -
p27
aVJohn Long DET 04/19/1986 DET @ ATL L 13 7 2 5 40.0 0 0 - 3 3 100.0 0 1 1 0 1 0 2 1 -
p28
aVEarl Cureton DET 04/17/1986 DET @ ATL L 33 14 7 14 50.0 0 0 - 0 0 - 2 6 8 4 1 0 1 3 -
p29
aVBill Laimbeer DET 04/17/1986 DET @ ATL L 37 26 10 18 55.6 0 0 - 6 6 100.0 8 9 17 1 0 0 2 4 -
p30
aVKelly Tripucka DET 04/17/1986 DET @ ATL L 34 19 6 10 60.0 0 0 - 7 8 87.5 2 4 6 6 1 0 1 3 -
p31
aVTony Campbell DET 04/17/1986 DET @ ATL L 14 8 4 8 50.0 0 0 - 0 0 - 0 0 0 0 0 0 1 3 -
p32
aVJoe Dumars DET 04/17/1986 DET @ ATL L 31 13 5 9 55.6 0 0 - 3 4 75.0 0 1 1 4 0 0 1 4 -
p33
aVIsiah Thomas DET 04/17/1986 DET @ ATL L 36 20 6 19 31.6 0 2 0.0 8 11 72.7 2 4 6 16 3 0 7 5 -
p34
aVRick Mahorn DET 04/17/1986 DET @ ATL L 12 4 1 1 100.0 0 0 - 2 2 100.0 1 1 2 0 0 0 2 2 -
p35
aVKent Benson DET 04/17/1986 DET @ ATL L 14 2 1 2 50.0 0 0 - 0 0 - 1 1 2 0 0 1 1 2 -
p36
aVVinnie Johnson DET 04/17/1986 DET @ ATL L 29 16 8 19 42.1 0 1 0.0 0 0 - 2 4 6 2 0 0 0 4 -
p37
a.