(lp0
VPLAYER TEAM DATE MATCHUP W/L MIN PTS FGM FGA FG% 3PM 3PA 3P% FTM FTA FT% OREB DREB REB AST STL BLK TOV PF +/-
p1
aVRickey Green UTH 04/25/1986 UTH vs. DAL L 31 7 2 9 22.2 0 0 - 3 4 75.0 0 5 5 10 0 0 1 0 -
p2
aVSteve Hayes UTH 04/25/1986 UTH vs. DAL L 1 2 1 1 100.0 0 0 - 0 0 - 0 1 1 0 0 0 0 0 -
p3
aVJohn Stockton UTH 04/25/1986 UTH vs. DAL L 17 11 4 6 66.7 1 1 100.0 2 2 100.0 2 1 3 5 3 0 0 4 -
p4
aVCarey Scurry UTH 04/25/1986 UTH vs. DAL L 13 3 1 5 20.0 0 1 0.0 1 2 50.0 3 3 6 0 0 1 1 3 -
p5
aVFred Roberts UTH 04/25/1986 UTH vs. DAL L 3 4 2 4 50.0 0 0 - 0 0 - 2 0 2 0 0 0 1 1 -
p6
aVKarl Malone UTH 04/25/1986 UTH vs. DAL L 29 17 6 17 35.3 0 0 - 5 11 45.5 0 1 1 0 1 0 0 5 -
p7
aVMark Eaton UTH 04/25/1986 UTH vs. DAL L 43 20 10 17 58.8 0 0 - 0 1 0.0 5 7 12 5 1 4 3 1 -
p8
aVBob Hansen UTH 04/25/1986 UTH vs. DAL L 36 22 9 9 100.0 2 2 100.0 2 3 66.7 1 3 4 2 2 0 2 3 -
p9
aVThurl Bailey UTH 04/25/1986 UTH vs. DAL L 43 24 11 19 57.9 0 1 0.0 2 4 50.0 4 3 7 1 0 1 1 3 -
p10
aVMarc Iavaroni UTH 04/25/1986 UTH vs. DAL L 20 3 1 3 33.3 0 0 - 1 2 50.0 0 1 1 3 0 0 1 2 -
p11
aVJeff Cook UTH 04/25/1986 UTH vs. DAL L 4 0 0 0 - 0 0 - 0 0 - 0 1 1 1 0 0 0 1 -
p12
aVFred Roberts UTH 04/23/1986 UTH vs. DAL W 10 2 0 2 0.0 0 0 - 2 2 100.0 1 2 3 1 0 0 1 3 -
p13
aVCarey Scurry UTH 04/23/1986 UTH vs. DAL W 13 4 2 5 40.0 0 0 - 0 0 - 2 0 2 1 0 0 0 1 -
p14
aVBob Hansen UTH 04/23/1986 UTH vs. DAL W 35 16 6 6 100.0 0 0 - 4 4 100.0 0 2 2 1 1 0 2 5 -
p15
aVThurl Bailey UTH 04/23/1986 UTH vs. DAL W 39 16 7 23 30.4 0 0 - 2 2 100.0 2 12 14 4 1 0 0 1 -
p16
aVRickey Green UTH 04/23/1986 UTH vs. DAL W 34 32 12 18 66.7 1 1 100.0 7 7 100.0 0 3 3 8 0 0 0 1 -
p17
aVJeff Cook UTH 04/23/1986 UTH vs. DAL W 6 0 0 2 0.0 0 0 - 0 0 - 0 1 1 0 0 0 0 0 -
p18
aVMarc Iavaroni UTH 04/23/1986 UTH vs. DAL W 13 2 0 2 0.0 0 0 - 2 2 100.0 0 1 1 0 0 0 0 2 -
p19
aVJohn Stockton UTH 04/23/1986 UTH vs. DAL W 14 0 0 2 0.0 0 0 - 0 0 - 0 0 0 2 1 0 1 2 -
p20
aVKarl Malone UTH 04/23/1986 UTH vs. DAL W 32 16 8 14 57.1 0 0 - 0 4 0.0 2 6 8 1 4 0 2 4 -
p21
aVMark Eaton UTH 04/23/1986 UTH vs. DAL W 44 12 6 15 40.0 0 0 - 0 0 - 1 7 8 1 0 2 0 3 -
p22
aVJeff Cook UTH 04/20/1986 UTH @ DAL L 9 3 1 2 50.0 0 0 - 1 2 50.0 1 1 2 0 0 0 0 3 -
p23
aVKarl Malone UTH 04/20/1986 UTH @ DAL L 40 31 13 24 54.2 0 0 - 5 8 62.5 4 4 8 0 1 0 1 6 -
p24
aVJohn Stockton UTH 04/20/1986 UTH @ DAL L 24 10 2 4 50.0 0 0 - 6 7 85.7 1 2 3 4 1 0 2 3 -
p25
aVRickey Green UTH 04/20/1986 UTH @ DAL L 24 6 3 6 50.0 0 0 - 0 0 - 0 1 1 8 0 0 2 0 -
p26
aVMark Eaton UTH 04/20/1986 UTH @ DAL L 37 12 6 14 42.9 0 0 - 0 0 - 4 7 11 2 0 7 1 5 -
p27
aVFred Roberts UTH 04/20/1986 UTH @ DAL L 8 6 2 4 50.0 0 0 - 2 3 66.7 0 0 0 0 0 0 2 1 -
p28
aVThurl Bailey UTH 04/20/1986 UTH @ DAL L 33 17 7 18 38.9 0 0 - 3 3 100.0 2 4 6 4 0 0 3 4 -
p29
aVBob Hansen UTH 04/20/1986 UTH @ DAL L 33 11 5 13 38.5 0 1 0.0 1 1 100.0 6 1 7 7 0 0 0 4 -
p30
aVMarc Iavaroni UTH 04/20/1986 UTH @ DAL L 16 4 2 5 40.0 0 0 - 0 0 - 2 1 3 0 0 0 2 3 -
p31
aVCarey Scurry UTH 04/20/1986 UTH @ DAL L 16 6 3 6 50.0 0 1 0.0 0 0 - 4 3 7 2 0 2 1 3 -
p32
aVMarc Iavaroni UTH 04/18/1986 UTH @ DAL L 24 4 2 6 33.3 0 0 - 0 0 - 2 2 4 3 1 0 1 2 -
p33
aVBob Hansen UTH 04/18/1986 UTH @ DAL L 36 15 7 9 77.8 0 0 - 1 1 100.0 3 2 5 1 0 1 3 4 -
p34
aVMark Eaton UTH 04/18/1986 UTH @ DAL L 33 14 6 11 54.5 0 0 - 2 2 100.0 3 2 5 2 0 5 0 3 -
p35
aVCarey Scurry UTH 04/18/1986 UTH @ DAL L 12 4 2 4 50.0 0 0 - 0 0 - 1 0 1 0 1 1 0 5 -
p36
aVRickey Green UTH 04/18/1986 UTH @ DAL L 30 8 4 10 40.0 0 1 0.0 0 0 - 0 0 0 12 2 0 2 0 -
p37
aVJohn Stockton UTH 04/18/1986 UTH @ DAL L 18 6 3 5 60.0 0 0 - 0 0 - 0 0 0 3 0 0 1 1 -
p38
aVKarl Malone UTH 04/18/1986 UTH @ DAL L 43 23 11 17 64.7 0 0 - 1 3 33.3 0 13 13 3 2 0 3 3 -
p39
aVJeff Cook UTH 04/18/1986 UTH @ DAL L 2 2 0 0 - 0 0 - 2 2 100.0 0 1 1 1 0 0 0 0 -
p40
aVThurl Bailey UTH 04/18/1986 UTH @ DAL L 32 7 3 17 17.6 0 0 - 1 2 50.0 3 2 5 4 1 1 1 5 -
p41
aVFred Roberts UTH 04/18/1986 UTH @ DAL L 10 10 3 5 60.0 0 0 - 4 4 100.0 1 1 2 2 0 0 2 0 -
p42
a.