(lp0
VPLAYER TEAM DATE MATCHUP W/L MIN PTS FGM FGA FG% 3PM 3PA 3P% FTM FTA FT% OREB DREB REB AST STL BLK TOV PF +/-
p1
aVSteve Colter POR 04/24/1986 POR vs. DEN L 29 4 2 7 28.6 0 0 - 0 0 - 1 2 3 8 3 1 1 3 -
p2
aVKenny Carr POR 04/24/1986 POR vs. DEN L 39 14 6 13 46.2 0 0 - 2 2 100.0 4 14 18 6 1 0 2 3 -
p3
aVJerome Kersey POR 04/24/1986 POR vs. DEN L 11 6 3 6 50.0 0 0 - 0 0 - 2 0 2 0 0 0 0 4 -
p4
aVCaldwell Jones POR 04/24/1986 POR vs. DEN L 22 10 5 8 62.5 0 0 - 0 0 - 3 5 8 0 0 1 0 3 -
p5
aVClyde Drexler POR 04/24/1986 POR vs. DEN L 36 16 5 8 62.5 0 0 - 6 6 100.0 1 3 4 6 0 2 3 6 -
p6
aVMychal Thompson POR 04/24/1986 POR vs. DEN L 36 23 8 16 50.0 0 0 - 7 12 58.3 1 4 5 4 1 0 4 2 -
p7
aVJim Paxson POR 04/24/1986 POR vs. DEN L 16 15 5 12 41.7 1 3 33.3 4 6 66.7 1 1 2 4 1 0 1 1 -
p8
aVKiki Vandeweghe POR 04/24/1986 POR vs. DEN L 36 24 12 19 63.2 0 1 0.0 0 0 - 0 0 0 1 0 1 2 2 -
p9
aVTerry Porter POR 04/24/1986 POR vs. DEN L 15 0 0 1 0.0 0 0 - 0 0 - 0 1 1 4 1 0 1 3 -
p10
aVJim Paxson POR 04/22/1986 POR vs. DEN L 18 13 3 7 42.9 0 0 - 7 7 100.0 0 0 0 3 0 0 0 3 -
p11
aVKen Johnson POR 04/22/1986 POR vs. DEN L 8 0 0 0 - 0 0 - 0 0 - 0 2 2 0 1 0 1 1 -
p12
aVClyde Drexler POR 04/22/1986 POR vs. DEN L 35 14 5 17 29.4 1 2 50.0 3 4 75.0 4 3 7 7 2 0 2 4 -
p13
aVKenny Carr POR 04/22/1986 POR vs. DEN L 38 18 7 11 63.6 0 0 - 4 6 66.7 1 14 15 0 3 1 3 5 -
p14
aVMychal Thompson POR 04/22/1986 POR vs. DEN L 33 18 9 15 60.0 0 0 - 0 0 - 4 8 12 3 0 0 4 4 -
p15
aVCaldwell Jones POR 04/22/1986 POR vs. DEN L 11 0 0 4 0.0 0 0 - 0 0 - 2 0 2 2 0 0 2 4 -
p16
aVJerome Kersey POR 04/22/1986 POR vs. DEN L 20 4 2 4 50.0 0 0 - 0 0 - 1 1 2 2 0 3 1 3 -
p17
aVTerry Porter POR 04/22/1986 POR vs. DEN L 16 7 3 9 33.3 0 2 0.0 1 2 50.0 0 0 0 1 1 0 1 2 -
p18
aVKiki Vandeweghe POR 04/22/1986 POR vs. DEN L 33 24 8 15 53.3 0 0 - 8 8 100.0 0 0 0 1 0 0 1 1 -
p19
aVSteve Colter POR 04/22/1986 POR vs. DEN L 28 6 3 6 50.0 0 0 - 0 0 - 1 2 3 5 0 0 1 2 -
p20
aVCaldwell Jones POR 04/20/1986 POR @ DEN W 16 4 1 4 25.0 0 0 - 2 4 50.0 2 3 5 0 0 0 2 2 -
p21
aVKenny Carr POR 04/20/1986 POR @ DEN W 37 13 5 10 50.0 0 0 - 3 4 75.0 3 8 11 0 1 0 3 6 -
p22
aVClyde Drexler POR 04/20/1986 POR @ DEN W 39 22 9 17 52.9 1 1 100.0 3 3 100.0 1 6 7 8 3 1 8 4 -
p23
aVJim Paxson POR 04/20/1986 POR @ DEN W 18 1 0 6 0.0 0 1 0.0 1 2 50.0 0 0 0 5 1 0 2 6 -
p24
aVJerome Kersey POR 04/20/1986 POR @ DEN W 13 8 3 7 42.9 0 1 0.0 2 2 100.0 2 5 7 2 0 0 2 4 -
p25
aVKiki Vandeweghe POR 04/20/1986 POR @ DEN W 41 36 12 19 63.2 0 1 0.0 12 12 100.0 1 2 3 1 1 1 5 5 -
p26
aVTerry Porter POR 04/20/1986 POR @ DEN W 22 9 4 7 57.1 0 0 - 1 2 50.0 0 2 2 5 1 2 3 2 -
p27
aVSteve Colter POR 04/20/1986 POR @ DEN W 19 4 2 5 40.0 0 1 0.0 0 0 - 0 6 6 4 1 0 1 5 -
p28
aVMychal Thompson POR 04/20/1986 POR @ DEN W 35 11 4 9 44.4 0 0 - 3 7 42.9 4 6 10 5 0 3 1 2 -
p29
aVJerome Kersey POR 04/18/1986 POR @ DEN L 12 4 1 5 20.0 0 0 - 2 2 100.0 2 2 4 0 1 1 3 2 -
p30
aVCaldwell Jones POR 04/18/1986 POR @ DEN L 24 0 0 1 0.0 0 0 - 0 0 - 2 2 4 1 0 1 0 4 -
p31
aVKiki Vandeweghe POR 04/18/1986 POR @ DEN L 39 28 8 16 50.0 0 0 - 12 12 100.0 1 1 2 5 1 0 1 4 -
p32
aVSteve Colter POR 04/18/1986 POR @ DEN L 28 12 5 8 62.5 0 0 - 2 2 100.0 1 2 3 6 1 0 3 3 -
p33
aVMychal Thompson POR 04/18/1986 POR @ DEN L 36 24 10 14 71.4 0 0 - 4 7 57.1 2 4 6 2 0 0 1 5 -
p34
aVKenny Carr POR 04/18/1986 POR @ DEN L 29 14 6 8 75.0 0 1 0.0 2 3 66.7 1 8 9 1 0 0 0 4 -
p35
aVJim Paxson POR 04/18/1986 POR @ DEN L 19 13 6 12 50.0 1 2 50.0 0 0 - 0 2 2 3 1 0 3 2 -
p36
aVKen Johnson POR 04/18/1986 POR @ DEN L 3 0 0 0 - 0 0 - 0 0 - 0 0 0 0 1 0 0 0 -
p37
aVTerry Porter POR 04/18/1986 POR @ DEN L 15 11 5 10 50.0 1 4 25.0 0 0 - 1 1 2 2 0 0 1 3 -
p38
aVClyde Drexler POR 04/18/1986 POR @ DEN L 35 20 7 15 46.7 0 2 0.0 6 10 60.0 3 4 7 5 1 0 6 5 -
p39
a.