(lp0
VPLAYER TEAM DATE MATCHUP W/L MIN PTS FGM FGA FG% 3PM 3PA 3P% FTM FTA FT% OREB DREB REB AST STL BLK TOV PF +/-
p1
aVLarry Bird BOS 06/08/1986 BOS vs. HOU W 46 29 8 17 47.1 2 3 66.7 11 12 91.7 2 9 11 12 3 0 2 3 -
p2
aVRobert Parish BOS 06/08/1986 BOS vs. HOU W 36 11 4 9 44.4 0 0 - 3 10 30.0 3 8 11 1 1 3 3 3 -
p3
aVKevin McHale BOS 06/08/1986 BOS vs. HOU W 39 29 10 22 45.5 0 0 - 9 10 90.0 5 5 10 1 0 4 3 3 -
p4
aVDanny Ainge BOS 06/08/1986 BOS vs. HOU W 38 19 7 9 77.8 1 1 100.0 4 6 66.7 1 1 2 4 2 0 1 3 -
p5
aVRick Carlisle BOS 06/08/1986 BOS vs. HOU W 2 4 2 2 100.0 0 0 - 0 0 - 0 0 0 0 0 0 0 0 -
p6
aVDavid Thirdkill BOS 06/08/1986 BOS vs. HOU W 2 0 0 1 0.0 0 0 - 0 0 - 1 0 1 0 0 0 1 1 -
p7
aVJerry Sichting BOS 06/08/1986 BOS vs. HOU W 8 0 0 0 - 0 0 - 0 0 - 0 1 1 3 0 0 0 1 -
p8
aVDennis Johnson BOS 06/08/1986 BOS vs. HOU W 46 10 5 13 38.5 0 0 - 0 2 0.0 0 5 5 5 3 1 3 3 -
p9
aVBill Walton BOS 06/08/1986 BOS vs. HOU W 17 10 5 8 62.5 0 0 - 0 2 0.0 3 5 8 3 0 0 1 3 -
p10
aVScott Wedman BOS 06/08/1986 BOS vs. HOU W 2 0 0 1 0.0 0 0 - 0 0 - 0 0 0 0 0 0 0 0 -
p11
aVSam Vincent BOS 06/08/1986 BOS vs. HOU W 2 0 0 1 0.0 0 0 - 0 0 - 0 0 0 0 0 0 0 0 -
p12
aVGreg Kite BOS 06/08/1986 BOS vs. HOU W 2 2 0 0 - 0 0 - 2 2 100.0 0 0 0 1 0 0 0 1 -
p13
aVSam Vincent BOS 06/05/1986 BOS @ HOU L 3 4 2 5 40.0 0 0 - 0 0 - 0 2 2 0 1 0 0 1 -
p14
aVKevin McHale BOS 06/05/1986 BOS @ HOU L 44 33 12 23 52.2 0 0 - 9 10 90.0 2 6 8 1 0 2 2 3 -
p15
aVJerry Sichting BOS 06/05/1986 BOS @ HOU L 16 4 2 4 50.0 0 0 - 0 1 0.0 1 1 2 3 0 0 2 1 -
p16
aVDanny Ainge BOS 06/05/1986 BOS @ HOU L 33 14 4 9 44.4 0 1 0.0 6 7 85.7 1 3 4 5 2 1 3 3 -
p17
aVDennis Johnson BOS 06/05/1986 BOS @ HOU L 39 13 5 12 41.7 0 1 0.0 3 3 100.0 3 2 5 4 1 0 5 5 -
p18
aVDavid Thirdkill BOS 06/05/1986 BOS @ HOU L 3 1 0 2 0.0 0 1 0.0 1 2 50.0 0 0 0 0 0 0 0 0 -
p19
aVLarry Bird BOS 06/05/1986 BOS @ HOU L 43 17 6 13 46.2 1 3 33.3 4 4 100.0 1 6 7 4 0 0 2 3 -
p20
aVGreg Kite BOS 06/05/1986 BOS @ HOU L 6 0 0 0 - 0 0 - 0 0 - 0 0 0 0 0 0 0 1 -
p21
aVBill Walton BOS 06/05/1986 BOS @ HOU L 28 6 2 8 25.0 0 0 - 2 2 100.0 2 4 6 0 2 1 2 5 -
p22
aVRobert Parish BOS 06/05/1986 BOS @ HOU L 22 4 1 8 12.5 0 0 - 2 2 100.0 0 3 3 1 0 3 2 0 -
p23
aVRick Carlisle BOS 06/05/1986 BOS @ HOU L 3 0 0 0 - 0 0 - 0 0 - 0 0 0 2 0 0 0 0 -
p24
aVDanny Ainge BOS 06/03/1986 BOS @ HOU W 29 8 3 7 42.9 0 0 - 2 2 100.0 0 4 4 6 3 0 4 4 -
p25
aVJerry Sichting BOS 06/03/1986 BOS @ HOU W 18 4 2 6 33.3 0 1 0.0 0 0 - 0 0 0 2 0 0 0 1 -
p26
aVKevin McHale BOS 06/03/1986 BOS @ HOU W 39 19 8 13 61.5 0 0 - 3 4 75.0 3 6 9 0 3 3 5 4 -
p27
aVRobert Parish BOS 06/03/1986 BOS @ HOU W 40 22 10 15 66.7 0 0 - 2 3 66.7 5 5 10 0 0 3 2 0 -
p28
aVLarry Bird BOS 06/03/1986 BOS @ HOU W 47 21 9 17 52.9 1 3 33.3 2 2 100.0 0 9 9 10 1 0 2 2 -
p29
aVBill Walton BOS 06/03/1986 BOS @ HOU W 19 10 5 5 100.0 0 0 - 0 0 - 1 3 4 1 0 0 1 3 -
p30
aVDennis Johnson BOS 06/03/1986 BOS @ HOU W 47 22 8 15 53.3 1 2 50.0 5 6 83.3 2 2 4 4 1 0 1 3 -
p31
aVGreg Kite BOS 06/03/1986 BOS @ HOU W 1 0 0 0 - 0 0 - 0 0 - 0 0 0 0 0 0 0 0 -
p32
aVJerry Sichting BOS 06/01/1986 BOS @ HOU L 9 0 0 1 0.0 0 0 - 0 0 - 0 1 1 0 0 0 0 0 -
p33
aVRobert Parish BOS 06/01/1986 BOS @ HOU L 25 8 3 15 20.0 0 0 - 2 2 100.0 3 3 6 2 0 0 6 4 -
p34
aVDavid Thirdkill BOS 06/01/1986 BOS @ HOU L 3 0 0 0 - 0 0 - 0 0 - 0 0 0 0 0 0 1 0 -
p35
aVDennis Johnson BOS 06/01/1986 BOS @ HOU L 41 20 6 17 35.3 0 0 - 8 8 100.0 3 2 5 7 2 1 2 2 -
p36
aVKevin McHale BOS 06/01/1986 BOS @ HOU L 44 28 12 19 63.2 0 0 - 4 6 66.7 7 4 11 1 2 2 5 4 -
p37
aVBill Walton BOS 06/01/1986 BOS @ HOU L 20 10 5 7 71.4 0 0 - 0 0 - 4 4 8 2 0 1 0 4 -
p38
aVLarry Bird BOS 06/01/1986 BOS @ HOU L 45 25 10 26 38.5 0 3 0.0 5 5 100.0 4 11 15 11 4 0 3 5 -
p39
aVGreg Kite BOS 06/01/1986 BOS @ HOU L 7 0 0 0 - 0 0 - 0 0 - 0 2 2 0 0 0 0 5 -
p40
aVDanny Ainge BOS 06/01/1986 BOS @ HOU L 46 13 6 11 54.5 1 2 50.0 0 0 - 1 4 5 5 4 0 2 3 -
p41
aVKevin McHale BOS 05/29/1986 BOS vs. HOU W 35 25 9 14 64.3 0 0 - 7 8 87.5 3 4 7 4 0 2 2 3 -
p42
aVDennis Johnson BOS 05/29/1986 BOS vs. HOU W 43 18 4 12 33.3 0 2 0.0 10 10 100.0 2 5 7 4 1 0 4 1 -
p43
aVSam Vincent BOS 05/29/1986 BOS vs. HOU W 3 0 0 4 0.0 0 0 - 0 0 - 1 0 1 0 0 0 0 2 -
p44
aVRobert Parish BOS 05/29/1986 BOS vs. HOU W 32 8 4 14 28.6 0 0 - 0 0 - 4 3 7 1 2 2 0 2 -
p45
aVBill Walton BOS 05/29/1986 BOS vs. HOU W 15 2 1 4 25.0 0 0 - 0 0 - 1 5 6 1 0 1 1 0 -
p46
aVDavid Thirdkill BOS 05/29/1986 BOS vs. HOU W 4 2 1 1 100.0 0 0 - 0 0 - 0 0 0 1 0 0 0 1 -
p47
aVDanny Ainge BOS 05/29/1986 BOS vs. HOU W 27 15 6 11 54.5 1 2 50.0 2 2 100.0 0 3 3 6 1 0 2 5 -
p48
aVLarry Bird BOS 05/29/1986 BOS vs. HOU W 44 31 12 19 63.2 3 5 60.0 4 4 100.0 2 6 8 7 4 2 3 0 -
p49
aVJerry Sichting BOS 05/29/1986 BOS vs. HOU W 23 10 5 8 62.5 0 0 - 0 0 - 0 1 1 2 0 0 0 2 -
p50
aVGreg Kite BOS 05/29/1986 BOS vs. HOU W 11 4 2 2 100.0 0 0 - 0 0 - 1 2 3 1 1 1 0 3 -
p51
aVRick Carlisle BOS 05/29/1986 BOS vs. HOU W 3 2 1 1 100.0 0 0 - 0 0 - 0 0 0 1 0 0 0 1 -
p52
aVRobert Parish BOS 05/26/1986 BOS vs. HOU W 36 23 11 18 61.1 0 0 - 1 3 33.3 1 3 4 1 0 2 1 0 -
p53
aVGreg Kite BOS 05/26/1986 BOS vs. HOU W 3 0 0 0 - 0 0 - 0 0 - 1 0 1 0 0 0 1 0 -
p54
aVLarry Bird BOS 05/26/1986 BOS vs. HOU W 44 21 8 18 44.4 0 2 0.0 5 6 83.3 1 7 8 13 4 0 4 4 -
p55
aVSam Vincent BOS 05/26/1986 BOS vs. HOU W 4 0 0 1 0.0 0 0 - 0 0 - 0 0 0 0 1 0 1 1 -
p56
aVDennis Johnson BOS 05/26/1986 BOS vs. HOU W 41 19 6 12 50.0 1 2 50.0 6 10 60.0 1 10 11 8 4 0 4 1 -
p57
aVJerry Sichting BOS 05/26/1986 BOS vs. HOU W 11 0 0 1 0.0 0 0 - 0 0 - 0 0 0 0 0 0 0 1 -
p58
aVDavid Thirdkill BOS 05/26/1986 BOS vs. HOU W 3 0 0 1 0.0 0 0 - 0 0 - 0 1 1 0 2 0 0 0 -
p59
aVBill Walton BOS 05/26/1986 BOS vs. HOU W 18 10 5 5 100.0 0 0 - 0 0 - 2 6 8 3 1 1 1 2 -
p60
aVKevin McHale BOS 05/26/1986 BOS vs. HOU W 40 21 8 12 66.7 0 0 - 5 8 62.5 2 4 6 3 0 2 3 3 -
p61
aVDanny Ainge BOS 05/26/1986 BOS vs. HOU W 40 18 9 16 56.3 0 0 - 0 0 - 2 1 3 7 3 0 2 5 -
p62
aVBill Walton BOS 05/18/1986 BOS @ MIL W 30 9 3 5 60.0 0 0 - 3 4 75.0 0 9 9 1 0 0 1 2 -
p63
aVDavid Thirdkill BOS 05/18/1986 BOS @ MIL W 4 0 0 1 0.0 0 0 - 0 0 - 0 1 1 0 0 0 0 1 -
p64
aVRobert Parish BOS 05/18/1986 BOS @ MIL W 27 12 4 12 33.3 0 0 - 4 4 100.0 1 8 9 1 1 0 1 5 -
p65
aVDennis Johnson BOS 05/18/1986 BOS @ MIL W 33 13 4 11 36.4 0 1 0.0 5 5 100.0 0 2 2 0 2 0 3 6 -
p66
aVJerry Sichting BOS 05/18/1986 BOS @ MIL W 19 2 1 3 33.3 0 0 - 0 0 - 0 0 0 3 0 0 0 1 -
p67
aVLarry Bird BOS 05/18/1986 BOS @ MIL W 45 30 10 17 58.8 5 6 83.3 5 5 100.0 0 8 8 5 2 0 7 5 -
p68
aVDanny Ainge BOS 05/18/1986 BOS @ MIL W 48 25 9 15 60.0 3 5 60.0 4 4 100.0 3 4 7 5 0 0 3 2 -
p69
aVKevin McHale BOS 05/18/1986 BOS @ MIL W 34 20 9 16 56.3 0 0 - 2 3 66.7 3 8 11 2 0 1 3 4 -
p70
aVJerry Sichting BOS 05/17/1986 BOS @ MIL W 13 2 1 3 33.3 0 0 - 0 0 - 0 0 0 0 1 0 1 0 -
p71
aVDennis Johnson BOS 05/17/1986 BOS @ MIL W 44 11 3 11 27.3 0 0 - 5 8 62.5 1 1 2 5 4 0 2 5 -
p72
aVDanny Ainge BOS 05/17/1986 BOS @ MIL W 39 12 3 12 25.0 0 3 0.0 6 6 100.0 0 1 1 6 3 0 1 3 -
p73
aVBill Walton BOS 05/17/1986 BOS @ MIL W 15 9 3 5 60.0 0 0 - 3 4 75.0 3 1 4 3 0 1 3 2 -
p74
aVKevin McHale BOS 05/17/1986 BOS @ MIL W 43 29 12 21 57.1 0 0 - 5 7 71.4 5 6 11 2 0 5 3 5 -
p75
aVRobert Parish BOS 05/17/1986 BOS @ MIL W 38 28 12 21 57.1 0 0 - 4 6 66.7 5 7 12 1 1 2 1 6 -
p76
aVLarry Bird BOS 05/17/1986 BOS @ MIL W 44 19 7 15 46.7 2 3 66.7 3 4 75.0 3 13 16 13 1 0 4 3 -
p77
aVScott Wedman BOS 05/17/1986 BOS @ MIL W 4 1 0 1 0.0 0 0 - 1 2 50.0 1 0 1 0 0 0 0 0 -
p78
aVDavid Thirdkill BOS 05/15/1986 BOS vs. MIL W 1 0 0 0 - 0 0 - 0 0 - 0 0 0 0 0 0 0 0 -
p79
aVBill Walton BOS 05/15/1986 BOS vs. MIL W 11 2 1 4 25.0 0 1 0.0 0 0 - 1 0 1 1 1 0 1 1 -
p80
aVJerry Sichting BOS 05/15/1986 BOS vs. MIL W 17 5 2 3 66.7 0 0 - 1 1 100.0 0 1 1 3 1 0 0 1 -
p81
aVDennis Johnson BOS 05/15/1986 BOS vs. MIL W 40 21 8 15 53.3 1 1 100.0 4 4 100.0 1 0 1 7 2 1 5 2 -
p82
aVKevin McHale BOS 05/15/1986 BOS vs. MIL W 45 20 6 13 46.2 0 0 - 8 12 66.7 1 7 8 5 0 2 2 4 -
p83
aVScott Wedman BOS 05/15/1986 BOS vs. MIL W 10 4 2 4 50.0 0 2 0.0 0 0 - 0 1 1 2 1 0 1 1 -
p84
aVRobert Parish BOS 05/15/1986 BOS vs. MIL W 39 21 8 17 47.1 0 0 - 5 6 83.3 3 6 9 2 1 1 1 1 -
p85
aVLarry Bird BOS 05/15/1986 BOS vs. MIL W 43 26 10 19 52.6 1 6 16.7 5 5 100.0 3 5 8 9 3 1 2 3 -
p86
aVDanny Ainge BOS 05/15/1986 BOS vs. MIL W 34 23 10 12 83.3 1 1 100.0 2 2 100.0 4 3 7 5 2 0 2 3 -
p87
aVDennis Johnson BOS 05/13/1986 BOS vs. MIL W 34 14 7 11 63.6 0 1 0.0 0 0 - 2 0 2 7 2 0 3 1 -
p88
aVJerry Sichting BOS 05/13/1986 BOS vs. MIL W 19 3 1 5 20.0 0 0 - 1 1 100.0 2 2 4 8 1 0 1 1 -
p89
aVRick Carlisle BOS 05/13/1986 BOS vs. MIL W 11 6 3 6 50.0 0 0 - 0 0 - 1 0 1 1 1 0 0 3 -
p90
aVScott Wedman BOS 05/13/1986 BOS vs. MIL W 16 11 5 9 55.6 0 0 - 1 1 100.0 0 3 3 2 1 1 0 3 -
p91
aVRobert Parish BOS 05/13/1986 BOS vs. MIL W 19 10 5 10 50.0 0 0 - 0 3 0.0 1 3 4 1 0 1 1 3 -
p92
aVLarry Bird BOS 05/13/1986 BOS vs. MIL W 32 26 9 15 60.0 1 3 33.3 7 7 100.0 1 5 6 5 1 0 3 0 -
p93
aVDavid Thirdkill BOS 05/13/1986 BOS vs. MIL W 9 6 2 5 40.0 0 0 - 2 4 50.0 0 2 2 1 0 0 0 1 -
p94
aVSam Vincent BOS 05/13/1986 BOS vs. MIL W 9 6 3 5 60.0 0 1 0.0 0 0 - 0 4 4 3 0 0 2 2 -
p95
aVKevin McHale BOS 05/13/1986 BOS vs. MIL W 28 17 8 11 72.7 0 0 - 1 1 100.0 0 5 5 1 1 5 2 4 -
p96
aVDanny Ainge BOS 05/13/1986 BOS vs. MIL W 27 6 1 6 16.7 0 1 0.0 4 4 100.0 3 7 10 7 0 0 0 3 -
p97
aVBill Walton BOS 05/13/1986 BOS vs. MIL W 19 15 6 8 75.0 0 0 - 3 3 100.0 1 8 9 3 0 0 2 3 -
p98
aVGreg Kite BOS 05/13/1986 BOS vs. MIL W 17 8 4 5 80.0 0 0 - 0 0 - 2 4 6 0 0 3 1 4 -
p99
aVDanny Ainge BOS 05/06/1986 BOS vs. ATL W 29 10 2 5 40.0 1 1 100.0 5 6 83.3 2 4 6 4 3 0 4 2 -
p100
aVRobert Parish BOS 05/06/1986 BOS vs. ATL W 30 15 7 10 70.0 0 0 - 1 2 50.0 5 8 13 2 0 2 2 1 -
p101
aVSam Vincent BOS 05/06/1986 BOS vs. ATL W 10 8 2 5 40.0 0 0 - 4 4 100.0 0 0 0 2 0 0 0 1 -
p102
aVKevin McHale BOS 05/06/1986 BOS vs. ATL W 35 25 9 14 64.3 0 0 - 7 9 77.8 0 4 4 1 1 3 2 1 -
p103
aVScott Wedman BOS 05/06/1986 BOS vs. ATL W 13 4 2 5 40.0 0 0 - 0 0 - 2 1 3 0 2 0 1 3 -
p104
aVDavid Thirdkill BOS 05/06/1986 BOS vs. ATL W 8 6 2 4 50.0 0 0 - 2 5 40.0 0 1 1 0 0 0 0 1 -
p105
aVLarry Bird BOS 05/06/1986 BOS vs. ATL W 39 36 14 24 58.3 1 2 50.0 7 7 100.0 2 8 10 5 2 1 0 4 -
p106
aVDennis Johnson BOS 05/06/1986 BOS vs. ATL W 37 13 6 14 42.9 0 1 0.0 1 2 50.0 4 4 8 8 1 0 3 2 -
p107
aVRick Carlisle BOS 05/06/1986 BOS vs. ATL W 11 2 1 2 50.0 0 0 - 0 0 - 1 2 3 1 0 0 1 0 -
p108
aVJerry Sichting BOS 05/06/1986 BOS vs. ATL W 10 2 1 2 50.0 0 0 - 0 0 - 1 0 1 3 0 0 0 1 -
p109
aVGreg Kite BOS 05/06/1986 BOS vs. ATL W 11 3 1 2 50.0 0 0 - 1 3 33.3 0 1 1 1 0 0 1 3 -
p110
aVBill Walton BOS 05/06/1986 BOS vs. ATL W 7 8 3 3 100.0 0 0 - 2 2 100.0 0 1 1 0 0 0 0 2 -
p111
aVJerry Sichting BOS 05/04/1986 BOS @ ATL L 13 2 1 3 33.3 0 0 - 0 0 - 0 0 0 1 0 0 0 0 -
p112
aVKevin McHale BOS 05/04/1986 BOS @ ATL L 42 26 7 19 36.8 0 0 - 12 15 80.0 4 8 12 2 1 1 2 3 -
p113
aVRobert Parish BOS 05/04/1986 BOS @ ATL L 39 13 4 9 44.4 0 0 - 5 6 83.3 3 8 11 4 1 2 4 5 -
p114
aVScott Wedman BOS 05/04/1986 BOS @ ATL L 19 11 4 8 50.0 2 2 100.0 1 1 100.0 1 1 2 1 0 1 1 1 -
p115
aVDennis Johnson BOS 05/04/1986 BOS @ ATL L 36 11 4 11 36.4 1 1 100.0 2 2 100.0 0 2 2 2 1 0 4 5 -
p116
aVLarry Bird BOS 05/04/1986 BOS @ ATL L 42 20 5 19 26.3 0 2 0.0 10 10 100.0 2 7 9 5 2 0 0 2 -
p117
aVDavid Thirdkill BOS 05/04/1986 BOS @ ATL L 1 0 0 1 0.0 0 0 - 0 0 - 0 0 0 0 0 0 0 0 -
p118
aVGreg Kite BOS 05/04/1986 BOS @ ATL L 7 0 0 0 - 0 0 - 0 0 - 1 0 1 0 0 0 0 0 -
p119
aVDanny Ainge BOS 05/04/1986 BOS @ ATL L 39 11 4 12 33.3 1 4 25.0 2 2 100.0 1 4 5 4 3 0 0 5 -
p120
aVSam Vincent BOS 05/04/1986 BOS @ ATL L 2 0 0 3 0.0 0 0 - 0 0 - 0 0 0 0 0 0 0 1 -
p121
aVScott Wedman BOS 05/02/1986 BOS @ ATL W 13 2 1 3 33.3 0 0 - 0 0 - 0 0 0 1 0 0 1 2 -
p122
aVKevin McHale BOS 05/02/1986 BOS @ ATL W 42 25 8 15 53.3 0 0 - 9 10 90.0 3 3 6 3 0 1 1 5 -
p123
aVJerry Sichting BOS 05/02/1986 BOS @ ATL W 17 2 1 1 100.0 0 0 - 0 0 - 0 2 2 4 0 0 1 2 -
p124
aVDennis Johnson BOS 05/02/1986 BOS @ ATL W 41 18 8 15 53.3 2 2 100.0 0 0 - 1 1 2 4 2 0 2 5 -
p125
aVGreg Kite BOS 05/02/1986 BOS @ ATL W 2 0 0 0 - 0 0 - 0 0 - 0 2 2 0 0 0 0 1 -
p126
aVLarry Bird BOS 05/02/1986 BOS @ ATL W 45 28 12 19 63.2 2 3 66.7 2 2 100.0 2 7 9 12 2 1 3 3 -
p127
aVDanny Ainge BOS 05/02/1986 BOS @ ATL W 35 23 10 15 66.7 1 2 50.0 2 4 50.0 0 2 2 5 2 0 2 1 -
p128
aVRobert Parish BOS 05/02/1986 BOS @ ATL W 45 13 4 12 33.3 0 0 - 5 10 50.0 3 11 14 1 0 1 4 2 -
p129
aVRick Carlisle BOS 04/29/1986 BOS vs. ATL W 3 0 0 0 - 0 0 - 0 0 - 0 0 0 0 0 0 0 0 -
p130
aVBill Walton BOS 04/29/1986 BOS vs. ATL W 17 10 4 6 66.7 0 0 - 2 2 100.0 1 3 4 1 1 0 2 3 -
p131
aVDennis Johnson BOS 04/29/1986 BOS vs. ATL W 45 15 7 13 53.8 0 0 - 1 2 50.0 1 5 6 9 7 1 4 3 -
p132
aVScott Wedman BOS 04/29/1986 BOS vs. ATL W 17 4 2 5 40.0 0 0 - 0 0 - 1 2 3 0 3 1 0 1 -
p133
aVRobert Parish BOS 04/29/1986 BOS vs. ATL W 31 15 6 11 54.5 0 0 - 3 6 50.0 2 6 8 0 0 2 2 1 -
p134
aVDanny Ainge BOS 04/29/1986 BOS vs. ATL W 28 13 6 9 66.7 1 3 33.3 0 0 - 0 3 3 6 2 0 0 3 -
p135
aVKevin McHale BOS 04/29/1986 BOS vs. ATL W 42 22 10 16 62.5 0 0 - 2 5 40.0 2 7 9 6 0 0 3 3 -
p136
aVJerry Sichting BOS 04/29/1986 BOS vs. ATL W 15 4 2 5 40.0 0 0 - 0 2 0.0 0 0 0 2 0 0 0 2 -
p137
aVLarry Bird BOS 04/29/1986 BOS vs. ATL W 42 36 15 23 65.2 0 1 0.0 6 7 85.7 4 4 8 7 2 1 2 3 -
p138
aVGreg Kite BOS 04/27/1986 BOS vs. ATL W 7 1 0 0 - 0 0 - 1 2 50.0 0 1 1 0 1 0 0 0 -
p139
aVDanny Ainge BOS 04/27/1986 BOS vs. ATL W 39 17 8 10 80.0 1 1 100.0 0 0 - 2 3 5 4 5 0 3 3 -
p140
aVSam Vincent BOS 04/27/1986 BOS vs. ATL W 3 2 1 2 50.0 0 0 - 0 0 - 0 0 0 0 0 0 1 0 -
p141
aVLarry Bird BOS 04/27/1986 BOS vs. ATL W 33 16 8 17 47.1 0 1 0.0 0 0 - 2 10 12 6 1 1 0 1 -
p142
aVBill Walton BOS 04/27/1986 BOS vs. ATL W 16 6 3 7 42.9 0 0 - 0 0 - 0 5 5 3 0 1 4 4 -
p143
aVScott Wedman BOS 04/27/1986 BOS vs. ATL W 15 2 1 7 14.3 0 0 - 0 0 - 3 1 4 0 1 0 0 2 -
p144
aVRobert Parish BOS 04/27/1986 BOS vs. ATL W 34 16 7 12 58.3 0 0 - 2 2 100.0 2 8 10 2 0 1 2 0 -
p145
aVJerry Sichting BOS 04/27/1986 BOS vs. ATL W 12 0 0 2 0.0 0 0 - 0 0 - 0 0 0 0 0 0 1 3 -
p146
aVKevin McHale BOS 04/27/1986 BOS vs. ATL W 36 24 9 14 64.3 0 1 0.0 6 8 75.0 2 6 8 4 0 1 2 3 -
p147
aVDennis Johnson BOS 04/27/1986 BOS vs. ATL W 35 16 7 13 53.8 0 0 - 2 2 100.0 0 4 4 14 0 0 2 2 -
p148
aVRick Carlisle BOS 04/27/1986 BOS vs. ATL W 7 3 0 2 0.0 0 0 - 3 4 75.0 1 0 1 0 1 0 1 1 -
p149
aVDavid Thirdkill BOS 04/27/1986 BOS vs. ATL W 3 0 0 1 0.0 0 0 - 0 0 - 0 1 1 0 0 0 0 0 -
p150
aVRobert Parish BOS 04/22/1986 BOS @ CHI W 28 15 6 11 54.5 0 0 - 3 4 75.0 4 4 8 2 1 1 4 5 -
p151
aVDennis Johnson BOS 04/22/1986 BOS @ CHI W 35 16 6 12 50.0 0 0 - 4 5 80.0 0 2 2 6 2 0 1 2 -
p152
aVGreg Kite BOS 04/22/1986 BOS @ CHI W 3 0 0 1 0.0 0 0 - 0 0 - 0 1 1 0 0 0 0 2 -
p153
aVScott Wedman BOS 04/22/1986 BOS @ CHI W 13 4 2 4 50.0 0 0 - 0 0 - 3 2 5 1 1 0 2 1 -
p154
aVDanny Ainge BOS 04/22/1986 BOS @ CHI W 41 20 7 13 53.8 0 3 0.0 6 6 100.0 0 1 1 7 2 0 0 1 -
p155
aVSam Vincent BOS 04/22/1986 BOS @ CHI W 5 2 0 2 0.0 0 0 - 2 2 100.0 0 0 0 0 0 0 0 1 -
p156
aVBill Walton BOS 04/22/1986 BOS @ CHI W 20 10 4 9 44.4 0 0 - 2 2 100.0 3 6 9 1 1 3 0 5 -
p157
aVDavid Thirdkill BOS 04/22/1986 BOS @ CHI W 4 2 1 1 100.0 0 0 - 0 0 - 0 1 1 1 0 0 1 0 -
p158
aVKevin McHale BOS 04/22/1986 BOS @ CHI W 36 31 11 15 73.3 0 0 - 9 10 90.0 1 4 5 4 0 1 1 4 -
p159
aVLarry Bird BOS 04/22/1986 BOS @ CHI W 40 19 5 13 38.5 0 2 0.0 9 10 90.0 0 6 6 8 1 2 3 5 -
p160
aVJerry Sichting BOS 04/22/1986 BOS @ CHI W 11 1 0 4 0.0 0 0 - 1 1 100.0 0 1 1 0 1 0 0 0 -
p161
aVRick Carlisle BOS 04/22/1986 BOS @ CHI W 4 2 1 1 100.0 0 0 - 0 0 - 0 0 0 1 0 0 1 2 -
p162
aVKevin McHale BOS 04/20/1986 BOS vs. CHI W 51 27 10 22 45.5 0 0 - 7 8 87.5 4 11 15 4 0 6 4 4 -
p163
aVBill Walton BOS 04/20/1986 BOS vs. CHI W 25 10 4 8 50.0 0 0 - 2 2 100.0 3 12 15 2 0 1 1 6 -
p164
aVRick Carlisle BOS 04/20/1986 BOS vs. CHI W 3 0 0 0 - 0 0 - 0 0 - 0 0 0 0 0 0 0 0 -
p165
aVScott Wedman BOS 04/20/1986 BOS vs. CHI W 11 2 1 3 33.3 0 0 - 0 0 - 0 0 0 0 0 0 0 0 -
p166
aVDennis Johnson BOS 04/20/1986 BOS vs. CHI W 44 15 4 14 28.6 0 1 0.0 7 9 77.8 1 3 4 8 2 1 2 6 -
p167
aVDanny Ainge BOS 04/20/1986 BOS vs. CHI W 47 24 8 13 61.5 1 3 33.3 7 9 77.8 2 2 4 5 3 0 1 5 -
p168
aVRobert Parish BOS 04/20/1986 BOS vs. CHI W 31 13 4 11 36.4 0 0 - 5 6 83.3 5 4 9 0 1 2 4 5 -
p169
aVJerry Sichting BOS 04/20/1986 BOS vs. CHI W 22 8 4 5 80.0 0 0 - 0 1 0.0 0 0 0 4 0 0 0 1 -
p170
aVLarry Bird BOS 04/20/1986 BOS vs. CHI W 56 36 14 27 51.9 2 5 40.0 6 7 85.7 4 8 12 8 1 2 4 5 -
p171
aVRobert Parish BOS 04/17/1986 BOS vs. CHI W 39 23 6 10 60.0 0 0 - 11 13 84.6 2 8 10 3 0 2 4 4 -
p172
aVJerry Sichting BOS 04/17/1986 BOS vs. CHI W 21 8 4 5 80.0 0 0 - 0 0 - 1 1 2 2 1 0 2 0 -
p173
aVLarry Bird BOS 04/17/1986 BOS vs. CHI W 40 30 9 13 69.2 2 3 66.7 10 13 76.9 1 5 6 8 3 0 3 4 -
p174
aVKevin McHale BOS 04/17/1986 BOS vs. CHI W 40 27 10 11 90.9 0 0 - 7 7 100.0 4 6 10 4 0 2 3 4 -
p175
aVGreg Kite BOS 04/17/1986 BOS vs. CHI W 1 0 0 0 - 0 0 - 0 0 - 0 1 1 0 0 0 0 0 -
p176
aVDanny Ainge BOS 04/17/1986 BOS vs. CHI W 33 9 4 8 50.0 1 1 100.0 0 0 - 0 4 4 2 1 0 1 3 -
p177
aVRick Carlisle BOS 04/17/1986 BOS vs. CHI W 7 0 0 1 0.0 0 0 - 0 0 - 0 0 0 2 0 0 0 2 -
p178
aVDennis Johnson BOS 04/17/1986 BOS vs. CHI W 34 26 11 24 45.8 0 1 0.0 4 6 66.7 1 3 4 5 2 0 1 4 -
p179
aVDavid Thirdkill BOS 04/17/1986 BOS vs. CHI W 2 0 0 0 - 0 0 - 0 0 - 0 0 0 0 0 0 0 0 -
p180
aVScott Wedman BOS 04/17/1986 BOS vs. CHI W 9 0 0 1 0.0 0 0 - 0 0 - 0 0 0 1 0 0 0 0 -
p181
aVBill Walton BOS 04/17/1986 BOS vs. CHI W 14 0 0 1 0.0 0 0 - 0 0 - 0 4 4 2 0 2 2 0 -
p182
a.