(lp0
VPLAYER TEAM DATE MATCHUP W/L MIN PTS FGM FGA FG% 3PM 3PA 3P% FTM FTA FT% OREB DREB REB AST STL BLK TOV PF +/-
p1
aVKyle Macy CHI 04/22/1986 CHI vs. BOS L 29 0 0 6 0.0 0 1 0.0 0 0 - 0 1 1 4 1 0 1 3 -
p2
aVJawann Oldham CHI 04/22/1986 CHI vs. BOS L 4 0 0 1 0.0 0 0 - 0 0 - 1 1 2 0 0 0 1 0 -
p3
aVMike Smrek CHI 04/22/1986 CHI vs. BOS L 2 0 0 0 - 0 0 - 0 0 - 0 0 0 0 0 1 0 0 -
p4
aVOrlando Woolridge CHI 04/22/1986 CHI vs. BOS L 39 14 5 15 33.3 0 0 - 4 4 100.0 1 2 3 0 0 0 1 3 -
p5
aVGene Banks CHI 04/22/1986 CHI vs. BOS L 21 10 5 8 62.5 0 2 0.0 0 0 - 1 3 4 1 0 0 2 3 -
p6
aVJohn Paxson CHI 04/22/1986 CHI vs. BOS L 28 23 6 10 60.0 0 0 - 11 15 73.3 0 0 0 1 1 0 2 4 -
p7
aVMichael Jordan CHI 04/22/1986 CHI vs. BOS L 39 19 8 18 44.4 1 1 100.0 2 3 66.7 4 6 10 9 2 1 5 6 -
p8
aVCharles Oakley CHI 04/22/1986 CHI vs. BOS L 26 7 3 7 42.9 0 0 - 1 4 25.0 3 3 6 1 2 2 0 4 -
p9
aVSidney Green CHI 04/22/1986 CHI vs. BOS L 18 9 3 7 42.9 0 0 - 3 6 50.0 3 1 4 0 1 0 0 2 -
p10
aVDave Corzine CHI 04/22/1986 CHI vs. BOS L 34 22 9 17 52.9 0 0 - 4 4 100.0 3 12 15 3 0 1 3 3 -
p11
aVKyle Macy CHI 04/20/1986 CHI @ BOS L 28 7 3 4 75.0 0 1 0.0 1 1 100.0 1 0 1 2 0 0 0 4 -
p12
aVSidney Green CHI 04/20/1986 CHI @ BOS L 19 7 2 8 25.0 0 0 - 3 4 75.0 2 3 5 0 0 1 0 4 -
p13
aVGeorge Gervin CHI 04/20/1986 CHI @ BOS L 5 0 0 0 - 0 0 - 0 0 - 0 0 0 1 0 0 0 1 -
p14
aVJohn Paxson CHI 04/20/1986 CHI @ BOS L 32 4 1 3 33.3 0 0 - 2 2 100.0 0 0 0 0 2 0 1 3 -
p15
aVMichael Jordan CHI 04/20/1986 CHI @ BOS L 53 63 22 41 53.7 0 0 - 19 21 90.5 1 4 5 6 3 2 4 4 -
p16
aVCharles Oakley CHI 04/20/1986 CHI @ BOS L 33 10 3 5 60.0 0 0 - 4 6 66.7 3 11 14 0 3 0 2 5 -
p17
aVMike Smrek CHI 04/20/1986 CHI @ BOS L 2 0 0 0 - 0 0 - 0 0 - 0 0 0 0 0 0 0 1 -
p18
aVOrlando Woolridge CHI 04/20/1986 CHI @ BOS L 54 24 9 27 33.3 0 1 0.0 6 8 75.0 4 5 9 2 1 0 1 5 -
p19
aVGene Banks CHI 04/20/1986 CHI @ BOS L 25 8 3 7 42.9 0 0 - 2 4 50.0 2 1 3 3 0 0 1 2 -
p20
aVDave Corzine CHI 04/20/1986 CHI @ BOS L 39 8 4 7 57.1 0 0 - 0 0 - 1 6 7 1 0 1 2 5 -
p21
aVGene Banks CHI 04/17/1986 CHI @ BOS L 23 4 2 3 66.7 0 0 - 0 0 - 1 2 3 1 1 0 1 5 -
p22
aVJohn Paxson CHI 04/17/1986 CHI @ BOS L 20 0 0 2 0.0 0 0 - 0 0 - 0 0 0 4 0 0 0 2 -
p23
aVMike Smrek CHI 04/17/1986 CHI @ BOS L 1 0 0 1 0.0 0 0 - 0 0 - 0 0 0 0 0 0 0 1 -
p24
aVMichael Jordan CHI 04/17/1986 CHI @ BOS L 43 49 18 36 50.0 0 0 - 13 15 86.7 0 4 4 2 2 1 5 3 -
p25
aVCharles Oakley CHI 04/17/1986 CHI @ BOS L 29 13 5 9 55.6 0 0 - 3 3 100.0 4 6 10 2 1 0 3 4 -
p26
aVGeorge Gervin CHI 04/17/1986 CHI @ BOS L 6 0 0 1 0.0 0 0 - 0 0 - 0 1 1 0 0 0 2 2 -
p27
aVOrlando Woolridge CHI 04/17/1986 CHI @ BOS L 42 25 11 20 55.0 0 0 - 3 3 100.0 1 1 2 2 2 1 2 4 -
p28
aVSidney Green CHI 04/17/1986 CHI @ BOS L 16 2 1 5 20.0 0 0 - 0 2 0.0 2 1 3 0 0 0 3 3 -
p29
aVKyle Macy CHI 04/17/1986 CHI @ BOS L 30 5 2 4 50.0 1 2 50.0 0 0 - 1 1 2 4 1 0 0 2 -
p30
aVDave Corzine CHI 04/17/1986 CHI @ BOS L 30 6 3 5 60.0 0 0 - 0 0 - 2 3 5 2 1 0 1 4 -
p31
a.