(lp0
VPLAYER TEAM DATE MATCHUP W/L MIN PTS FGM FGA FG% 3PM 3PA 3P% FTM FTA FT% OREB DREB REB AST STL BLK TOV PF +/-
p1
aVGranville Waiters HOU 06/08/1986 HOU @ BOS L 2 0 0 0 - 0 0 - 0 0 - 0 0 0 0 0 1 0 0 -
p2
aVRobert Reid HOU 06/08/1986 HOU @ BOS L 37 12 5 13 38.5 0 1 0.0 2 2 100.0 2 3 5 6 2 0 2 2 -
p3
aVAllen Leavell HOU 06/08/1986 HOU @ BOS L 11 7 2 6 33.3 1 3 33.3 2 2 100.0 0 1 1 1 2 0 1 0 -
p4
aVRalph Sampson HOU 06/08/1986 HOU @ BOS L 38 8 4 12 33.3 0 0 - 0 0 - 4 6 10 2 0 1 1 5 -
p5
aVHank McDowell HOU 06/08/1986 HOU @ BOS L 2 4 1 1 100.0 0 0 - 2 2 100.0 1 0 1 1 0 0 0 1 -
p6
aVSteve Harris HOU 06/08/1986 HOU @ BOS L 12 6 3 5 60.0 0 0 - 0 2 0.0 1 0 1 0 0 0 0 0 -
p7
aVJim Petersen HOU 06/08/1986 HOU @ BOS L 20 3 1 6 16.7 0 0 - 1 2 50.0 3 4 7 2 1 0 0 4 -
p8
aVRodney McCray HOU 06/08/1986 HOU @ BOS L 33 16 6 11 54.5 0 0 - 4 6 66.7 2 2 4 4 0 1 4 2 -
p9
aVLewis Lloyd HOU 06/08/1986 HOU @ BOS L 24 12 5 11 45.5 0 0 - 2 2 100.0 0 1 1 2 0 0 3 4 -
p10
aVMitchell Wiggins HOU 06/08/1986 HOU @ BOS L 22 4 2 7 28.6 0 1 0.0 0 0 - 0 0 0 3 0 0 0 3 -
p11
aVHakeem Olajuwon HOU 06/08/1986 HOU @ BOS L 37 19 6 14 42.9 0 0 - 7 10 70.0 4 9 13 0 4 0 5 5 -
p12
aVCraig Ehlo HOU 06/08/1986 HOU @ BOS L 2 6 3 3 100.0 0 0 - 0 0 - 0 1 1 0 1 0 1 0 -
p13
aVRalph Sampson HOU 06/05/1986 HOU vs. BOS W 14 12 5 7 71.4 0 0 - 2 2 100.0 1 2 3 0 1 0 1 2 -
p14
aVAllen Leavell HOU 06/05/1986 HOU vs. BOS W 9 7 3 5 60.0 1 1 100.0 0 0 - 0 1 1 4 0 0 1 1 -
p15
aVHakeem Olajuwon HOU 06/05/1986 HOU vs. BOS W 47 32 13 25 52.0 0 0 - 6 9 66.7 6 8 14 3 2 8 4 3 -
p16
aVLewis Lloyd HOU 06/05/1986 HOU vs. BOS W 18 2 1 6 16.7 0 0 - 0 0 - 2 1 3 3 1 0 2 3 -
p17
aVRodney McCray HOU 06/05/1986 HOU vs. BOS W 48 17 7 12 58.3 0 0 - 3 4 75.0 1 7 8 3 1 1 0 3 -
p18
aVCraig Ehlo HOU 06/05/1986 HOU vs. BOS W 1 2 1 1 100.0 0 0 - 0 1 0.0 0 0 0 0 0 0 0 0 -
p19
aVJim Petersen HOU 06/05/1986 HOU vs. BOS W 33 6 3 12 25.0 0 0 - 0 0 - 6 6 12 1 1 2 2 5 -
p20
aVRobert Reid HOU 06/05/1986 HOU vs. BOS W 41 13 6 15 40.0 0 1 0.0 1 1 100.0 1 5 6 17 1 0 0 4 -
p21
aVHank McDowell HOU 06/05/1986 HOU vs. BOS W 1 0 0 0 - 0 0 - 0 0 - 0 0 0 0 0 0 0 0 -
p22
aVSteve Harris HOU 06/05/1986 HOU vs. BOS W 1 0 0 0 - 0 0 - 0 0 - 0 0 0 0 0 1 0 0 -
p23
aVMitchell Wiggins HOU 06/05/1986 HOU vs. BOS W 26 16 8 16 50.0 0 0 - 0 1 0.0 4 3 7 1 2 1 3 2 -
p24
aVGranville Waiters HOU 06/05/1986 HOU vs. BOS W 1 4 2 2 100.0 0 0 - 0 0 - 2 0 2 0 0 0 1 0 -
p25
aVMitchell Wiggins HOU 06/03/1986 HOU vs. BOS L 35 8 3 12 25.0 0 0 - 2 2 100.0 4 2 6 0 1 0 1 3 -
p26
aVRobert Reid HOU 06/03/1986 HOU vs. BOS L 42 19 9 19 47.4 0 3 0.0 1 2 50.0 1 2 3 7 0 0 2 4 -
p27
aVHakeem Olajuwon HOU 06/03/1986 HOU vs. BOS L 39 20 8 21 38.1 0 0 - 4 5 80.0 5 9 14 1 4 4 1 4 -
p28
aVLewis Lloyd HOU 06/03/1986 HOU vs. BOS L 12 6 2 5 40.0 0 0 - 2 2 100.0 1 2 3 0 0 0 0 2 -
p29
aVJim Petersen HOU 06/03/1986 HOU vs. BOS L 15 6 3 6 50.0 0 0 - 0 0 - 7 2 9 1 0 0 0 1 -
p30
aVRodney McCray HOU 06/03/1986 HOU vs. BOS L 47 17 8 12 66.7 0 0 - 1 2 50.0 2 2 4 5 1 1 3 1 -
p31
aVRalph Sampson HOU 06/03/1986 HOU vs. BOS L 43 25 9 20 45.0 0 0 - 7 7 100.0 5 2 7 9 0 1 2 2 -
p32
aVAllen Leavell HOU 06/03/1986 HOU vs. BOS L 7 2 1 4 25.0 0 0 - 0 0 - 0 0 0 5 0 0 0 1 -
p33
aVAllen Leavell HOU 06/01/1986 HOU vs. BOS W 19 5 2 6 33.3 0 0 - 1 1 100.0 0 0 0 4 1 0 0 0 -
p34
aVHakeem Olajuwon HOU 06/01/1986 HOU vs. BOS W 43 23 7 18 38.9 0 0 - 9 11 81.8 2 6 8 2 2 3 3 5 -
p35
aVHank McDowell HOU 06/01/1986 HOU vs. BOS W 1 0 0 0 - 0 0 - 0 0 - 0 0 0 0 0 0 0 1 -
p36
aVMitchell Wiggins HOU 06/01/1986 HOU vs. BOS W 17 8 4 5 80.0 0 0 - 0 1 0.0 1 1 2 1 1 0 1 3 -
p37
aVRobert Reid HOU 06/01/1986 HOU vs. BOS W 48 20 7 16 43.8 1 2 50.0 5 5 100.0 0 4 4 9 3 0 4 3 -
p38
aVJim Petersen HOU 06/01/1986 HOU vs. BOS W 12 0 0 0 - 0 0 - 0 0 - 1 2 3 3 0 0 1 4 -
p39
aVRalph Sampson HOU 06/01/1986 HOU vs. BOS W 39 24 9 14 64.3 0 0 - 6 11 54.5 7 15 22 3 1 1 4 3 -
p40
aVRodney McCray HOU 06/01/1986 HOU vs. BOS W 30 12 4 8 50.0 0 0 - 4 4 100.0 2 2 4 4 1 2 4 2 -
p41
aVLewis Lloyd HOU 06/01/1986 HOU vs. BOS W 31 14 5 14 35.7 0 0 - 4 6 66.7 0 0 0 2 0 1 0 2 -
p42
aVMitchell Wiggins HOU 05/29/1986 HOU @ BOS L 15 8 3 4 75.0 0 0 - 2 2 100.0 1 1 2 1 1 0 2 3 -
p43
aVAllen Leavell HOU 05/29/1986 HOU @ BOS L 17 5 2 7 28.6 1 2 50.0 0 0 - 1 2 3 3 0 0 0 1 -
p44
aVSteve Harris HOU 05/29/1986 HOU @ BOS L 12 6 2 6 33.3 0 0 - 2 3 66.7 1 2 3 0 0 1 1 0 -
p45
aVHakeem Olajuwon HOU 05/29/1986 HOU @ BOS L 37 21 8 16 50.0 0 0 - 5 10 50.0 3 7 10 3 1 1 1 4 -
p46
aVHank McDowell HOU 05/29/1986 HOU @ BOS L 3 3 1 1 100.0 0 0 - 1 2 50.0 2 0 2 0 0 0 1 0 -
p47
aVGranville Waiters HOU 05/29/1986 HOU @ BOS L 2 0 0 0 - 0 0 - 0 0 - 0 0 0 0 0 1 0 0 -
p48
aVRalph Sampson HOU 05/29/1986 HOU @ BOS L 32 18 7 14 50.0 0 0 - 4 6 66.7 3 5 8 4 2 1 1 2 -
p49
aVCraig Ehlo HOU 05/29/1986 HOU @ BOS L 3 2 0 2 0.0 0 0 - 2 2 100.0 1 0 1 0 0 0 0 0 -
p50
aVJim Petersen HOU 05/29/1986 HOU @ BOS L 28 8 3 12 25.0 0 0 - 2 2 100.0 5 3 8 3 1 0 1 3 -
p51
aVRodney McCray HOU 05/29/1986 HOU @ BOS L 37 10 5 11 45.5 0 0 - 0 0 - 1 2 3 5 2 0 0 4 -
p52
aVLewis Lloyd HOU 05/29/1986 HOU @ BOS L 21 8 4 9 44.4 0 0 - 0 0 - 0 1 1 3 1 0 4 4 -
p53
aVRobert Reid HOU 05/29/1986 HOU @ BOS L 33 6 3 10 30.0 0 1 0.0 0 0 - 1 2 3 5 1 0 2 3 -
p54
aVMitchell Wiggins HOU 05/26/1986 HOU @ BOS L 18 6 3 7 42.9 0 0 - 0 0 - 2 3 5 2 0 0 1 3 -
p55
aVAllen Leavell HOU 05/26/1986 HOU @ BOS L 9 8 3 6 50.0 1 2 50.0 1 2 50.0 0 0 0 1 1 0 1 1 -
p56
aVRalph Sampson HOU 05/26/1986 HOU @ BOS L 27 2 1 13 7.7 0 0 - 0 0 - 2 5 7 2 2 1 4 3 -
p57
aVSteve Harris HOU 05/26/1986 HOU @ BOS L 2 0 0 1 0.0 0 0 - 0 0 - 0 0 0 0 1 1 0 0 -
p58
aVHakeem Olajuwon HOU 05/26/1986 HOU @ BOS L 38 33 14 23 60.9 0 0 - 5 9 55.6 7 5 12 2 1 3 2 5 -
p59
aVHank McDowell HOU 05/26/1986 HOU @ BOS L 2 1 0 1 0.0 0 0 - 1 2 50.0 1 1 2 0 0 0 0 0 -
p60
aVJim Petersen HOU 05/26/1986 HOU @ BOS L 28 8 4 9 44.4 0 0 - 0 0 - 0 4 4 1 1 1 1 3 -
p61
aVRodney McCray HOU 05/26/1986 HOU @ BOS L 42 20 10 14 71.4 0 0 - 0 1 0.0 0 1 1 3 2 0 3 2 -
p62
aVGranville Waiters HOU 05/26/1986 HOU @ BOS L 2 0 0 0 - 0 0 - 0 0 - 0 1 1 0 0 0 0 0 -
p63
aVLewis Lloyd HOU 05/26/1986 HOU @ BOS L 28 4 2 5 40.0 0 0 - 0 0 - 1 2 3 7 1 0 3 1 -
p64
aVRobert Reid HOU 05/26/1986 HOU @ BOS L 40 16 7 15 46.7 0 0 - 2 2 100.0 1 4 5 8 1 0 1 1 -
p65
aVCraig Ehlo HOU 05/26/1986 HOU @ BOS L 4 2 1 1 100.0 0 0 - 0 0 - 0 0 0 1 1 1 0 0 -
p66
aVMitchell Wiggins HOU 05/21/1986 HOU @ LAL W 18 6 2 6 33.3 0 0 - 2 2 100.0 2 0 2 1 1 0 2 3 -
p67
aVRodney McCray HOU 05/21/1986 HOU @ LAL W 43 11 4 9 44.4 0 0 - 3 4 75.0 3 3 6 11 2 0 1 2 -
p68
aVRalph Sampson HOU 05/21/1986 HOU @ LAL W 45 29 10 15 66.7 0 0 - 9 11 81.8 2 3 5 3 2 1 3 4 -
p69
aVRobert Reid HOU 05/21/1986 HOU @ LAL W 33 15 6 12 50.0 1 3 33.3 2 2 100.0 0 2 2 2 3 0 6 4 -
p70
aVLewis Lloyd HOU 05/21/1986 HOU @ LAL W 30 15 7 13 53.8 1 1 100.0 0 0 - 0 1 1 6 1 1 1 2 -
p71
aVJim Petersen HOU 05/21/1986 HOU @ LAL W 14 4 2 5 40.0 0 0 - 0 0 - 1 4 5 1 0 0 0 1 -
p72
aVHakeem Olajuwon HOU 05/21/1986 HOU @ LAL W 36 30 10 17 58.8 0 0 - 10 15 66.7 3 4 7 1 3 4 1 2 -
p73
aVAllen Leavell HOU 05/21/1986 HOU @ LAL W 21 4 2 11 18.2 0 0 - 0 0 - 0 3 3 6 4 0 0 2 -
p74
aVRodney McCray HOU 05/18/1986 HOU vs. LAL W 48 12 6 11 54.5 0 1 0.0 0 0 - 0 12 12 6 1 1 1 3 -
p75
aVJim Petersen HOU 05/18/1986 HOU vs. LAL W 26 4 2 8 25.0 0 0 - 0 0 - 4 9 13 0 0 0 0 3 -
p76
aVMitchell Wiggins HOU 05/18/1986 HOU vs. LAL W 24 8 4 8 50.0 0 0 - 0 0 - 2 1 3 1 0 0 1 2 -
p77
aVGranville Waiters HOU 05/18/1986 HOU vs. LAL W 1 0 0 0 - 0 0 - 0 0 - 0 0 0 0 0 0 0 0 -
p78
aVRalph Sampson HOU 05/18/1986 HOU vs. LAL W 27 12 5 8 62.5 0 0 - 2 2 100.0 2 6 8 4 2 2 3 5 -
p79
aVAllen Leavell HOU 05/18/1986 HOU vs. LAL W 5 6 1 3 33.3 0 0 - 4 4 100.0 0 1 1 1 0 0 1 0 -
p80
aVRobert Reid HOU 05/18/1986 HOU vs. LAL W 36 23 9 16 56.3 0 1 0.0 5 7 71.4 1 3 4 3 1 0 2 4 -
p81
aVHakeem Olajuwon HOU 05/18/1986 HOU vs. LAL W 42 35 11 23 47.8 0 0 - 13 20 65.0 6 2 8 1 0 4 0 3 -
p82
aVSteve Harris HOU 05/18/1986 HOU vs. LAL W 1 0 0 0 - 0 0 - 0 0 - 0 0 0 0 0 0 0 0 -
p83
aVLewis Lloyd HOU 05/18/1986 HOU vs. LAL W 30 5 1 8 12.5 0 0 - 3 4 75.0 0 0 0 4 1 0 1 1 -
p84
aVRobert Reid HOU 05/16/1986 HOU vs. LAL W 43 17 5 12 41.7 0 0 - 7 7 100.0 0 2 2 12 1 0 1 5 -
p85
aVRalph Sampson HOU 05/16/1986 HOU vs. LAL W 37 18 9 22 40.9 0 0 - 0 1 0.0 4 5 9 2 0 0 2 5 -
p86
aVJim Petersen HOU 05/16/1986 HOU vs. LAL W 12 5 2 5 40.0 0 0 - 1 1 100.0 1 1 2 0 0 1 1 2 -
p87
aVLewis Lloyd HOU 05/16/1986 HOU vs. LAL W 33 26 12 18 66.7 0 0 - 2 2 100.0 7 2 9 2 2 0 1 2 -
p88
aVRodney McCray HOU 05/16/1986 HOU vs. LAL W 45 6 2 3 66.7 0 0 - 2 3 66.7 1 7 8 10 1 0 1 2 -
p89
aVHakeem Olajuwon HOU 05/16/1986 HOU vs. LAL W 46 40 14 28 50.0 0 0 - 12 15 80.0 5 7 12 3 2 2 2 5 -
p90
aVAllen Leavell HOU 05/16/1986 HOU vs. LAL W 1 0 0 1 0.0 0 0 - 0 0 - 0 0 0 0 0 0 0 0 -
p91
aVMitchell Wiggins HOU 05/16/1986 HOU vs. LAL W 23 5 2 7 28.6 0 0 - 1 2 50.0 2 1 3 0 0 0 2 0 -
p92
aVLewis Lloyd HOU 05/13/1986 HOU @ LAL W 39 24 10 23 43.5 0 1 0.0 4 4 100.0 2 1 3 7 4 0 6 3 -
p93
aVRalph Sampson HOU 05/13/1986 HOU @ LAL W 47 24 10 16 62.5 0 0 - 4 7 57.1 4 12 16 9 1 5 5 4 -
p94
aVAllen Leavell HOU 05/13/1986 HOU @ LAL W 6 2 0 2 0.0 0 0 - 2 3 66.7 0 0 0 4 0 0 1 1 -
p95
aVRodney McCray HOU 05/13/1986 HOU @ LAL W 42 16 6 8 75.0 0 0 - 4 4 100.0 2 4 6 11 0 0 1 2 -
p96
aVJim Petersen HOU 05/13/1986 HOU @ LAL W 8 0 0 2 0.0 0 0 - 0 2 0.0 0 4 4 0 0 1 0 2 -
p97
aVRobert Reid HOU 05/13/1986 HOU @ LAL W 36 10 5 11 45.5 0 0 - 0 0 - 0 6 6 3 1 0 3 3 -
p98
aVHakeem Olajuwon HOU 05/13/1986 HOU @ LAL W 41 22 8 20 40.0 0 1 0.0 6 7 85.7 5 8 13 2 4 6 1 5 -
p99
aVMitchell Wiggins HOU 05/13/1986 HOU @ LAL W 21 14 7 9 77.8 0 0 - 0 1 0.0 1 2 3 3 1 0 2 1 -
p100
aVRalph Sampson HOU 05/10/1986 HOU @ LAL L 39 19 8 15 53.3 0 0 - 3 5 60.0 1 5 6 2 1 3 5 4 -
p101
aVMitchell Wiggins HOU 05/10/1986 HOU @ LAL L 26 24 10 16 62.5 0 1 0.0 4 4 100.0 2 0 2 4 2 0 3 3 -
p102
aVRodney McCray HOU 05/10/1986 HOU @ LAL L 36 8 4 10 40.0 0 0 - 0 0 - 0 5 5 3 1 0 2 2 -
p103
aVLewis Lloyd HOU 05/10/1986 HOU @ LAL L 22 4 2 7 28.6 0 0 - 0 0 - 0 1 1 4 0 1 4 3 -
p104
aVJim Petersen HOU 05/10/1986 HOU @ LAL L 12 4 1 1 100.0 0 0 - 2 2 100.0 1 4 5 1 0 0 0 2 -
p105
aVHakeem Olajuwon HOU 05/10/1986 HOU @ LAL L 45 28 10 14 71.4 0 0 - 8 13 61.5 8 8 16 3 2 4 3 4 -
p106
aVCraig Ehlo HOU 05/10/1986 HOU @ LAL L 4 0 0 1 0.0 0 0 - 0 0 - 0 0 0 0 0 0 0 2 -
p107
aVRobert Reid HOU 05/10/1986 HOU @ LAL L 38 8 4 12 33.3 0 0 - 0 0 - 2 2 4 8 1 0 3 4 -
p108
aVAllen Leavell HOU 05/10/1986 HOU @ LAL L 17 12 4 11 36.4 2 5 40.0 2 2 100.0 1 1 2 3 1 0 1 2 -
p109
aVSteve Harris HOU 05/10/1986 HOU @ LAL L 1 0 0 0 - 0 0 - 0 0 - 0 0 0 0 0 0 0 0 -
p110
aVRalph Sampson HOU 05/08/1986 HOU @ DEN W 47 12 5 13 38.5 0 0 - 2 3 66.7 5 13 18 5 2 2 6 6 -
p111
aVHakeem Olajuwon HOU 05/08/1986 HOU @ DEN W 31 28 12 17 70.6 0 0 - 4 8 50.0 3 4 7 1 0 3 2 5 -
p112
aVRobert Reid HOU 05/08/1986 HOU @ DEN W 31 11 5 12 41.7 0 2 0.0 1 2 50.0 0 8 8 2 0 0 1 6 -
p113
aVLewis Lloyd HOU 05/08/1986 HOU @ DEN W 45 25 11 21 52.4 0 1 0.0 3 4 75.0 3 4 7 5 0 0 2 1 -
p114
aVAllen Leavell HOU 05/08/1986 HOU @ DEN W 28 5 2 12 16.7 0 0 - 1 2 50.0 1 0 1 4 0 0 1 3 -
p115
aVSteve Harris HOU 05/08/1986 HOU @ DEN W 5 0 0 1 0.0 0 0 - 0 0 - 0 0 0 0 0 0 1 0 -
p116
aVMitchell Wiggins HOU 05/08/1986 HOU @ DEN W 22 8 4 11 36.4 0 0 - 0 1 0.0 3 3 6 0 0 0 0 2 -
p117
aVJim Petersen HOU 05/08/1986 HOU @ DEN W 22 15 3 5 60.0 0 0 - 9 11 81.8 3 2 5 0 0 0 2 6 -
p118
aVRodney McCray HOU 05/08/1986 HOU @ DEN W 53 20 10 19 52.6 0 0 - 0 1 0.0 3 6 9 7 0 3 1 1 -
p119
aVGranville Waiters HOU 05/08/1986 HOU @ DEN W 6 2 1 1 100.0 0 0 - 0 0 - 0 1 1 0 0 0 0 1 -
p120
aVRalph Sampson HOU 05/06/1986 HOU vs. DEN W 37 33 13 22 59.1 0 0 - 7 11 63.6 6 11 17 10 2 5 6 3 -
p121
aVSteve Harris HOU 05/06/1986 HOU vs. DEN W 6 0 0 2 0.0 0 0 - 0 0 - 0 0 0 0 0 0 0 0 -
p122
aVRobert Reid HOU 05/06/1986 HOU vs. DEN W 40 10 4 14 28.6 0 1 0.0 2 3 66.7 0 3 3 12 2 0 1 3 -
p123
aVAllen Leavell HOU 05/06/1986 HOU vs. DEN W 12 7 1 1 100.0 0 0 - 5 5 100.0 0 2 2 4 0 0 0 0 -
p124
aVGranville Waiters HOU 05/06/1986 HOU vs. DEN W 5 0 0 1 0.0 0 0 - 0 0 - 0 1 1 0 1 0 0 1 -
p125
aVMitchell Wiggins HOU 05/06/1986 HOU vs. DEN W 21 10 4 11 36.4 0 0 - 2 2 100.0 2 5 7 2 1 0 3 1 -
p126
aVHakeem Olajuwon HOU 05/06/1986 HOU vs. DEN W 32 36 13 24 54.2 0 0 - 10 17 58.8 10 9 19 2 1 3 0 4 -
p127
aVRodney McCray HOU 05/06/1986 HOU vs. DEN W 40 21 9 15 60.0 0 0 - 3 3 100.0 2 5 7 5 0 1 2 2 -
p128
aVHank McDowell HOU 05/06/1986 HOU vs. DEN W 2 1 0 0 - 0 0 - 1 2 50.0 0 0 0 0 0 0 0 0 -
p129
aVJim Petersen HOU 05/06/1986 HOU vs. DEN W 20 8 4 5 80.0 0 0 - 0 0 - 0 5 5 0 1 2 1 2 -
p130
aVLewis Lloyd HOU 05/06/1986 HOU vs. DEN W 21 5 2 6 33.3 0 0 - 1 2 50.0 2 3 5 1 0 0 2 3 -
p131
aVCraig Ehlo HOU 05/06/1986 HOU vs. DEN W 4 0 0 2 0.0 0 1 0.0 0 0 - 0 0 0 0 0 0 1 0 -
p132
aVAllen Leavell HOU 05/04/1986 HOU @ DEN L 7 2 0 4 0.0 0 1 0.0 2 2 100.0 0 1 1 0 0 0 2 0 -
p133
aVHank McDowell HOU 05/04/1986 HOU @ DEN L 3 0 0 0 - 0 0 - 0 0 - 0 0 0 0 0 0 0 2 -
p134
aVJim Petersen HOU 05/04/1986 HOU @ DEN L 20 9 4 5 80.0 0 0 - 1 4 25.0 2 3 5 0 0 0 1 5 -
p135
aVHakeem Olajuwon HOU 05/04/1986 HOU @ DEN L 32 23 11 22 50.0 0 0 - 1 1 100.0 2 6 8 4 1 2 4 6 -
p136
aVRalph Sampson HOU 05/04/1986 HOU @ DEN L 46 28 9 16 56.3 0 0 - 10 12 83.3 5 8 13 4 1 1 5 5 -
p137
aVLewis Lloyd HOU 05/04/1986 HOU @ DEN L 29 16 6 8 75.0 0 0 - 4 5 80.0 3 3 6 3 1 0 3 2 -
p138
aVRobert Reid HOU 05/04/1986 HOU @ DEN L 47 24 9 24 37.5 0 0 - 6 7 85.7 0 7 7 7 0 0 2 3 -
p139
aVRodney McCray HOU 05/04/1986 HOU @ DEN L 46 4 2 5 40.0 0 0 - 0 0 - 0 7 7 5 1 2 3 3 -
p140
aVSteve Harris HOU 05/04/1986 HOU @ DEN L 5 0 0 1 0.0 0 0 - 0 0 - 0 1 1 0 0 0 0 1 -
p141
aVMitchell Wiggins HOU 05/04/1986 HOU @ DEN L 30 5 2 5 40.0 0 0 - 1 2 50.0 1 1 2 1 0 0 1 3 -
p142
aVRobert Reid HOU 05/02/1986 HOU @ DEN L 36 9 4 7 57.1 0 0 - 1 3 33.3 1 3 4 7 3 1 4 4 -
p143
aVSteve Harris HOU 05/02/1986 HOU @ DEN L 5 6 3 4 75.0 0 0 - 0 0 - 2 0 2 1 0 0 0 0 -
p144
aVRodney McCray HOU 05/02/1986 HOU @ DEN L 39 5 1 6 16.7 0 1 0.0 3 4 75.0 0 3 3 8 0 3 2 3 -
p145
aVMitchell Wiggins HOU 05/02/1986 HOU @ DEN L 29 15 6 13 46.2 0 0 - 3 3 100.0 2 5 7 3 0 0 1 1 -
p146
aVJim Petersen HOU 05/02/1986 HOU @ DEN L 13 7 3 6 50.0 0 0 - 1 1 100.0 2 1 3 0 0 0 0 3 -
p147
aVHank McDowell HOU 05/02/1986 HOU @ DEN L 7 0 0 0 - 0 0 - 0 0 - 0 1 1 0 0 0 0 1 -
p148
aVHakeem Olajuwon HOU 05/02/1986 HOU @ DEN L 40 31 9 17 52.9 0 0 - 13 19 68.4 5 6 11 2 5 7 1 6 -
p149
aVLewis Lloyd HOU 05/02/1986 HOU @ DEN L 35 15 5 12 41.7 0 0 - 5 6 83.3 1 3 4 8 0 1 4 0 -
p150
aVRalph Sampson HOU 05/02/1986 HOU @ DEN L 36 27 13 22 59.1 0 0 - 1 2 50.0 2 8 10 2 0 0 3 5 -
p151
aVRodney McCray HOU 04/29/1986 HOU vs. DEN W 35 12 4 10 40.0 0 0 - 4 4 100.0 1 7 8 10 1 0 3 0 -
p152
aVHank McDowell HOU 04/29/1986 HOU vs. DEN W 2 0 0 1 0.0 0 0 - 0 0 - 0 2 2 0 0 0 0 0 -
p153
aVGranville Waiters HOU 04/29/1986 HOU vs. DEN W 2 0 0 1 0.0 0 0 - 0 0 - 0 0 0 0 0 0 0 1 -
p154
aVAllen Leavell HOU 04/29/1986 HOU vs. DEN W 1 3 1 1 100.0 1 1 100.0 0 0 - 0 0 0 0 0 0 0 0 -
p155
aVLewis Lloyd HOU 04/29/1986 HOU vs. DEN W 29 23 10 16 62.5 0 0 - 3 4 75.0 4 0 4 7 1 0 0 4 -
p156
aVRobert Reid HOU 04/29/1986 HOU vs. DEN W 38 15 7 18 38.9 1 3 33.3 0 0 - 3 1 4 4 0 0 3 4 -
p157
aVMitchell Wiggins HOU 04/29/1986 HOU vs. DEN W 25 12 6 11 54.5 0 1 0.0 0 0 - 3 4 7 1 0 1 0 4 -
p158
aVSteve Harris HOU 04/29/1986 HOU vs. DEN W 9 2 1 2 50.0 0 0 - 0 0 - 1 0 1 0 0 0 0 0 -
p159
aVRalph Sampson HOU 04/29/1986 HOU vs. DEN W 39 27 9 17 52.9 0 0 - 9 12 75.0 1 11 12 5 4 4 2 2 -
p160
aVCraig Ehlo HOU 04/29/1986 HOU vs. DEN W 7 0 0 2 0.0 0 0 - 0 0 - 0 0 0 1 1 0 1 0 -
p161
aVHakeem Olajuwon HOU 04/29/1986 HOU vs. DEN W 34 18 7 15 46.7 0 0 - 4 7 57.1 2 12 14 2 0 1 2 3 -
p162
aVJim Petersen HOU 04/29/1986 HOU vs. DEN W 19 7 3 7 42.9 0 0 - 1 2 50.0 3 1 4 1 1 1 1 2 -
p163
aVGranville Waiters HOU 04/26/1986 HOU vs. DEN W 1 0 0 0 - 0 0 - 0 0 - 0 0 0 0 0 0 0 0 -
p164
aVRobert Reid HOU 04/26/1986 HOU vs. DEN W 44 16 7 16 43.8 0 1 0.0 2 3 66.7 0 5 5 9 0 0 1 2 -
p165
aVHakeem Olajuwon HOU 04/26/1986 HOU vs. DEN W 44 38 18 27 66.7 0 0 - 2 4 50.0 8 8 16 4 6 5 3 6 -
p166
aVRalph Sampson HOU 04/26/1986 HOU vs. DEN W 41 20 9 19 47.4 0 0 - 2 2 100.0 2 9 11 4 2 1 6 5 -
p167
aVJim Petersen HOU 04/26/1986 HOU vs. DEN W 11 0 0 2 0.0 0 0 - 0 0 - 0 1 1 0 0 0 2 2 -
p168
aVLewis Lloyd HOU 04/26/1986 HOU vs. DEN W 34 28 11 21 52.4 0 1 0.0 6 6 100.0 3 2 5 5 0 0 4 1 -
p169
aVHank McDowell HOU 04/26/1986 HOU vs. DEN W 1 0 0 0 - 0 0 - 0 0 - 0 0 0 0 0 0 0 0 -
p170
aVCraig Ehlo HOU 04/26/1986 HOU vs. DEN W 1 0 0 0 - 0 0 - 0 0 - 0 0 0 0 0 0 0 0 -
p171
aVSteve Harris HOU 04/26/1986 HOU vs. DEN W 2 0 0 0 - 0 0 - 0 0 - 0 0 0 0 0 0 0 0 -
p172
aVMitchell Wiggins HOU 04/26/1986 HOU vs. DEN W 20 10 4 6 66.7 0 0 - 2 2 100.0 3 2 5 4 1 1 0 2 -
p173
aVRodney McCray HOU 04/26/1986 HOU vs. DEN W 41 14 5 8 62.5 0 0 - 4 6 66.7 1 4 5 8 0 0 0 4 -
p174
aVGranville Waiters HOU 04/22/1986 HOU @ SAC W 2 2 1 1 100.0 0 0 - 0 0 - 0 0 0 0 0 0 0 0 -
p175
aVHank McDowell HOU 04/22/1986 HOU @ SAC W 1 0 0 0 - 0 0 - 0 0 - 0 0 0 0 0 0 0 0 -
p176
aVRobert Reid HOU 04/22/1986 HOU @ SAC W 24 11 4 7 57.1 0 1 0.0 3 3 100.0 0 4 4 6 2 0 2 5 -
p177
aVRodney McCray HOU 04/22/1986 HOU @ SAC W 39 6 3 7 42.9 0 0 - 0 1 0.0 0 3 3 7 2 2 3 4 -
p178
aVCraig Ehlo HOU 04/22/1986 HOU @ SAC W 4 4 1 1 100.0 0 0 - 2 2 100.0 0 0 0 1 1 0 0 0 -
p179
aVHakeem Olajuwon HOU 04/22/1986 HOU @ SAC W 35 14 5 14 35.7 0 0 - 4 10 40.0 8 5 13 0 0 1 5 3 -
p180
aVSteve Harris HOU 04/22/1986 HOU @ SAC W 18 10 5 7 71.4 0 0 - 0 0 - 0 2 2 1 2 0 0 2 -
p181
aVMitchell Wiggins HOU 04/22/1986 HOU @ SAC W 12 10 5 7 71.4 0 0 - 0 0 - 0 0 0 0 1 0 1 2 -
p182
aVRalph Sampson HOU 04/22/1986 HOU @ SAC W 40 25 8 14 57.1 1 1 100.0 8 11 72.7 3 9 12 0 1 3 2 5 -
p183
aVLewis Lloyd HOU 04/22/1986 HOU @ SAC W 47 25 10 17 58.8 1 1 100.0 4 5 80.0 1 2 3 7 2 0 3 3 -
p184
aVJim Petersen HOU 04/22/1986 HOU @ SAC W 18 6 2 3 66.7 0 0 - 2 2 100.0 0 2 2 1 2 1 1 2 -
p185
aVHank McDowell HOU 04/19/1986 HOU vs. SAC W 4 0 0 1 0.0 0 0 - 0 0 - 0 0 0 1 0 0 1 0 -
p186
aVSteve Harris HOU 04/19/1986 HOU vs. SAC W 1 0 0 0 - 0 0 - 0 0 - 0 0 0 0 0 0 0 0 -
p187
aVRobert Reid HOU 04/19/1986 HOU vs. SAC W 46 29 11 23 47.8 0 0 - 7 9 77.8 0 4 4 6 3 0 1 5 -
p188
aVJim Petersen HOU 04/19/1986 HOU vs. SAC W 26 5 2 5 40.0 0 0 - 1 2 50.0 4 3 7 3 0 0 2 4 -
p189
aVRalph Sampson HOU 04/19/1986 HOU vs. SAC W 38 20 6 10 60.0 0 0 - 8 11 72.7 1 7 8 6 4 1 8 5 -
p190
aVLewis Lloyd HOU 04/19/1986 HOU vs. SAC W 30 10 4 8 50.0 0 0 - 2 4 50.0 2 2 4 4 1 2 3 5 -
p191
aVMitchell Wiggins HOU 04/19/1986 HOU vs. SAC W 22 16 7 10 70.0 0 0 - 2 3 66.7 3 2 5 1 2 0 2 1 -
p192
aVHakeem Olajuwon HOU 04/19/1986 HOU vs. SAC W 27 17 7 8 87.5 0 0 - 3 7 42.9 2 4 6 1 1 4 0 5 -
p193
aVRodney McCray HOU 04/19/1986 HOU vs. SAC W 46 14 4 11 36.4 0 1 0.0 6 7 85.7 0 6 6 3 1 1 0 0 -
p194
aVJim Petersen HOU 04/17/1986 HOU vs. SAC W 21 6 2 4 50.0 0 0 - 2 2 100.0 4 3 7 3 1 0 0 2 -
p195
aVRobert Reid HOU 04/17/1986 HOU vs. SAC W 40 14 7 16 43.8 0 1 0.0 0 1 0.0 0 0 0 4 2 0 1 5 -
p196
aVCraig Ehlo HOU 04/17/1986 HOU vs. SAC W 8 4 2 3 66.7 0 0 - 0 0 - 0 1 1 3 0 0 0 2 -
p197
aVLewis Lloyd HOU 04/17/1986 HOU vs. SAC W 31 14 6 13 46.2 0 0 - 2 2 100.0 2 1 3 6 0 0 1 1 -
p198
aVSteve Harris HOU 04/17/1986 HOU vs. SAC W 3 0 0 0 - 0 0 - 0 0 - 0 0 0 0 1 0 0 0 -
p199
aVRalph Sampson HOU 04/17/1986 HOU vs. SAC W 29 16 7 12 58.3 0 0 - 2 2 100.0 6 7 13 4 2 2 2 4 -
p200
aVGranville Waiters HOU 04/17/1986 HOU vs. SAC W 2 0 0 1 0.0 0 0 - 0 0 - 0 0 0 0 0 1 0 0 -
p201
aVMitchell Wiggins HOU 04/17/1986 HOU vs. SAC W 17 6 3 8 37.5 0 0 - 0 0 - 0 2 2 2 0 0 1 2 -
p202
aVHank McDowell HOU 04/17/1986 HOU vs. SAC W 4 0 0 2 0.0 0 0 - 0 0 - 0 0 0 0 0 0 0 1 -
p203
aVRodney McCray HOU 04/17/1986 HOU vs. SAC W 45 18 8 12 66.7 0 0 - 2 4 50.0 2 7 9 7 1 1 3 3 -
p204
aVHakeem Olajuwon HOU 04/17/1986 HOU vs. SAC W 40 29 14 24 58.3 0 0 - 1 2 50.0 7 8 15 2 1 4 3 4 -
p205
a.