(lp0
VPLAYER TEAM DATE MATCHUP W/L MIN PTS FGM FGA FG% 3PM 3PA 3P% FTM FTA FT% OREB DREB REB AST STL BLK TOV PF +/-
p1
aVRandy Wittman ATL 05/06/1986 ATL @ BOS L 25 12 5 10 50.0 0 1 0.0 2 2 100.0 0 0 0 2 1 1 0 0 -
p2
aVSpud Webb ATL 05/06/1986 ATL @ BOS L 27 15 7 12 58.3 0 0 - 1 1 100.0 0 5 5 8 0 0 2 1 -
p3
aVJohn Battle ATL 05/06/1986 ATL @ BOS L 7 3 1 4 25.0 0 0 - 1 2 50.0 0 1 1 2 1 0 0 1 -
p4
aVDoc Rivers ATL 05/06/1986 ATL @ BOS L 24 6 2 4 50.0 0 0 - 2 2 100.0 0 2 2 4 0 0 5 5 -
p5
aVCliff Levingston ATL 05/06/1986 ATL @ BOS L 28 10 5 9 55.6 0 0 - 0 0 - 4 1 5 1 0 0 2 3 -
p6
aVTree Rollins ATL 05/06/1986 ATL @ BOS L 29 5 2 8 25.0 0 0 - 1 2 50.0 2 6 8 1 0 3 1 1 -
p7
aVScott Hastings ATL 05/06/1986 ATL @ BOS L 8 10 3 3 100.0 0 0 - 4 5 80.0 0 1 1 0 0 0 0 2 -
p8
aVJohnny Davis ATL 05/06/1986 ATL @ BOS L 13 2 0 3 0.0 0 0 - 2 2 100.0 0 0 0 1 1 0 1 1 -
p9
aVDominique Wilkins ATL 05/06/1986 ATL @ BOS L 22 13 4 14 28.6 0 0 - 5 8 62.5 3 1 4 0 2 1 1 2 -
p10
aVKevin Willis ATL 05/06/1986 ATL @ BOS L 27 12 5 10 50.0 0 0 - 2 2 100.0 1 3 4 1 1 1 1 6 -
p11
aVLorenzo Charles ATL 05/06/1986 ATL @ BOS L 12 7 3 4 75.0 0 0 - 1 1 100.0 0 2 2 1 0 0 0 1 -
p12
aVJon Koncak ATL 05/06/1986 ATL @ BOS L 18 4 1 2 50.0 0 0 - 2 4 50.0 0 1 1 0 0 0 1 6 -
p13
aVDominique Wilkins ATL 05/04/1986 ATL vs. BOS W 41 37 11 25 44.0 0 1 0.0 15 15 100.0 3 6 9 5 0 0 3 4 -
p14
aVSpud Webb ATL 05/04/1986 ATL vs. BOS W 24 21 10 19 52.6 0 0 - 1 2 50.0 1 5 6 12 1 0 0 0 -
p15
aVScott Hastings ATL 05/04/1986 ATL vs. BOS W 6 2 1 1 100.0 0 0 - 0 0 - 0 0 0 0 0 0 1 1 -
p16
aVJon Koncak ATL 05/04/1986 ATL vs. BOS W 19 1 0 3 0.0 0 0 - 1 2 50.0 2 5 7 0 0 1 2 3 -
p17
aVKevin Willis ATL 05/04/1986 ATL vs. BOS W 22 6 3 6 50.0 0 0 - 0 0 - 1 2 3 0 0 3 1 5 -
p18
aVTree Rollins ATL 05/04/1986 ATL vs. BOS W 29 0 0 1 0.0 0 0 - 0 0 - 2 14 16 0 0 1 1 5 -
p19
aVRandy Wittman ATL 05/04/1986 ATL vs. BOS W 36 13 6 13 46.2 0 0 - 1 2 50.0 0 0 0 1 2 0 1 2 -
p20
aVJohnny Davis ATL 05/04/1986 ATL vs. BOS W 8 4 2 4 50.0 0 0 - 0 0 - 1 0 1 2 0 0 1 0 -
p21
aVDoc Rivers ATL 05/04/1986 ATL vs. BOS W 28 16 6 9 66.7 1 2 50.0 3 3 100.0 0 6 6 6 0 0 4 3 -
p22
aVCliff Levingston ATL 05/04/1986 ATL vs. BOS W 27 6 3 6 50.0 0 0 - 0 0 - 3 2 5 1 1 4 1 5 -
p23
aVTree Rollins ATL 05/02/1986 ATL vs. BOS L 28 4 2 2 100.0 0 0 - 0 0 - 0 8 8 0 0 1 1 6 -
p24
aVKevin Willis ATL 05/02/1986 ATL vs. BOS L 41 19 8 15 53.3 0 0 - 3 4 75.0 7 5 12 0 1 0 5 3 -
p25
aVJon Koncak ATL 05/02/1986 ATL vs. BOS L 19 5 2 2 100.0 0 0 - 1 5 20.0 1 1 2 1 1 0 0 4 -
p26
aVDominique Wilkins ATL 05/02/1986 ATL vs. BOS L 39 38 15 27 55.6 1 1 100.0 7 8 87.5 0 5 5 4 2 0 2 3 -
p27
aVCliff Levingston ATL 05/02/1986 ATL vs. BOS L 9 4 1 1 100.0 0 0 - 2 2 100.0 1 0 1 0 0 0 0 1 -
p28
aVDoc Rivers ATL 05/02/1986 ATL vs. BOS L 38 18 8 16 50.0 0 0 - 2 4 50.0 0 5 5 14 5 0 0 3 -
p29
aVScott Hastings ATL 05/02/1986 ATL vs. BOS L 7 0 0 1 0.0 0 1 0.0 0 0 - 0 0 0 0 0 0 2 2 -
p30
aVRandy Wittman ATL 05/02/1986 ATL vs. BOS L 43 13 6 11 54.5 0 0 - 1 2 50.0 2 2 4 4 2 0 2 1 -
p31
aVSpud Webb ATL 05/02/1986 ATL vs. BOS L 16 6 2 6 33.3 0 0 - 2 2 100.0 0 1 1 4 2 0 1 3 -
p32
aVRandy Wittman ATL 04/29/1986 ATL @ BOS L 44 21 10 14 71.4 0 1 0.0 1 1 100.0 0 3 3 5 1 0 5 2 -
p33
aVKevin Willis ATL 04/29/1986 ATL @ BOS L 36 23 9 19 47.4 0 0 - 5 6 83.3 5 5 10 2 1 1 1 5 -
p34
aVSpud Webb ATL 04/29/1986 ATL @ BOS L 17 14 6 7 85.7 0 0 - 2 2 100.0 0 1 1 6 0 0 0 0 -
p35
aVTree Rollins ATL 04/29/1986 ATL @ BOS L 28 6 2 3 66.7 0 0 - 2 2 100.0 1 9 10 1 1 0 2 4 -
p36
aVJohnny Davis ATL 04/29/1986 ATL @ BOS L 4 0 0 0 - 0 0 - 0 0 - 0 0 0 0 0 0 0 0 -
p37
aVDominique Wilkins ATL 04/29/1986 ATL @ BOS L 45 19 7 22 31.8 0 0 - 5 6 83.3 3 3 6 6 2 0 7 2 -
p38
aVDoc Rivers ATL 04/29/1986 ATL @ BOS L 31 13 6 14 42.9 0 0 - 1 2 50.0 2 1 3 7 3 0 4 3 -
p39
aVScott Hastings ATL 04/29/1986 ATL @ BOS L 10 6 3 3 100.0 0 0 - 0 1 0.0 1 3 4 0 0 0 0 3 -
p40
aVJon Koncak ATL 04/29/1986 ATL @ BOS L 11 0 0 2 0.0 0 0 - 0 2 0.0 2 0 2 0 0 0 0 0 -
p41
aVCliff Levingston ATL 04/29/1986 ATL @ BOS L 13 6 3 5 60.0 0 0 - 0 1 0.0 1 1 2 0 0 0 1 1 -
p42
aVSpud Webb ATL 04/27/1986 ATL @ BOS L 19 4 2 10 20.0 0 0 - 0 2 0.0 2 2 4 5 0 0 1 1 -
p43
aVJohnny Davis ATL 04/27/1986 ATL @ BOS L 7 2 1 4 25.0 0 0 - 0 0 - 1 0 1 3 1 0 1 0 -
p44
aVJon Koncak ATL 04/27/1986 ATL @ BOS L 15 5 2 4 50.0 0 0 - 1 2 50.0 1 1 2 0 0 1 0 2 -
p45
aVScott Hastings ATL 04/27/1986 ATL @ BOS L 12 10 4 5 80.0 1 2 50.0 1 3 33.3 2 2 4 0 2 0 2 2 -
p46
aVDominique Wilkins ATL 04/27/1986 ATL @ BOS L 36 13 4 15 26.7 0 1 0.0 5 5 100.0 3 3 6 4 0 1 2 2 -
p47
aVCliff Levingston ATL 04/27/1986 ATL @ BOS L 21 8 3 4 75.0 0 0 - 2 3 66.7 0 6 6 0 1 0 3 4 -
p48
aVKevin Willis ATL 04/27/1986 ATL @ BOS L 32 18 9 17 52.9 0 0 - 0 1 0.0 5 3 8 1 2 0 0 2 -
p49
aVRandy Wittman ATL 04/27/1986 ATL @ BOS L 30 10 5 14 35.7 0 0 - 0 0 - 1 3 4 1 0 0 1 1 -
p50
aVJohn Battle ATL 04/27/1986 ATL @ BOS L 13 4 2 5 40.0 0 1 0.0 0 0 - 0 0 0 0 1 0 2 4 -
p51
aVTree Rollins ATL 04/27/1986 ATL @ BOS L 28 11 5 7 71.4 0 0 - 1 2 50.0 1 6 7 0 0 2 1 1 -
p52
aVDoc Rivers ATL 04/27/1986 ATL @ BOS L 27 6 2 11 18.2 0 1 0.0 2 2 100.0 2 1 3 4 2 0 1 2 -
p53
aVJohn Battle ATL 04/25/1986 ATL @ DET W 2 0 0 0 - 0 0 - 0 0 - 0 0 0 0 0 0 0 0 -
p54
aVDominique Wilkins ATL 04/25/1986 ATL @ DET W 53 38 17 37 45.9 0 1 0.0 4 5 80.0 5 3 8 1 1 0 2 2 -
p55
aVJohnny Davis ATL 04/25/1986 ATL @ DET W 4 0 0 2 0.0 0 0 - 0 0 - 0 0 0 0 0 0 1 0 -
p56
aVRandy Wittman ATL 04/25/1986 ATL @ DET W 54 29 10 23 43.5 0 0 - 9 12 75.0 1 6 7 5 2 0 2 0 -
p57
aVCliff Levingston ATL 04/25/1986 ATL @ DET W 23 4 2 4 50.0 0 0 - 0 0 - 1 5 6 0 0 1 0 2 -
p58
aVJon Koncak ATL 04/25/1986 ATL @ DET W 29 5 1 4 25.0 0 0 - 3 4 75.0 0 4 4 0 1 2 0 4 -
p59
aVDoc Rivers ATL 04/25/1986 ATL @ DET W 35 14 5 12 41.7 0 1 0.0 4 6 66.7 2 11 13 9 3 0 4 6 -
p60
aVSpud Webb ATL 04/25/1986 ATL @ DET W 21 9 3 5 60.0 0 0 - 3 4 75.0 2 0 2 4 0 0 1 1 -
p61
aVKevin Willis ATL 04/25/1986 ATL @ DET W 43 13 6 11 54.5 0 0 - 1 2 50.0 5 5 10 0 1 3 5 6 -
p62
aVTree Rollins ATL 04/25/1986 ATL @ DET W 23 2 1 3 33.3 0 0 - 0 0 - 0 2 2 0 0 2 0 6 -
p63
aVScott Hastings ATL 04/25/1986 ATL @ DET W 3 0 0 0 - 0 0 - 0 2 0.0 0 0 0 0 0 0 0 0 -
p64
aVJohn Battle ATL 04/22/1986 ATL @ DET L 3 4 1 2 50.0 0 0 - 2 2 100.0 0 3 3 0 0 0 0 0 -
p65
aVJon Koncak ATL 04/22/1986 ATL @ DET L 19 5 1 3 33.3 0 0 - 3 8 37.5 0 2 2 0 0 1 0 1 -
p66
aVSpud Webb ATL 04/22/1986 ATL @ DET L 12 4 2 5 40.0 0 0 - 0 0 - 1 0 1 3 0 0 2 5 -
p67
aVJohnny Davis ATL 04/22/1986 ATL @ DET L 11 8 4 7 57.1 0 0 - 0 0 - 0 4 4 3 0 0 1 2 -
p68
aVRandy Wittman ATL 04/22/1986 ATL @ DET L 38 14 7 13 53.8 0 0 - 0 2 0.0 0 3 3 2 0 0 1 5 -
p69
aVDoc Rivers ATL 04/22/1986 ATL @ DET L 30 20 5 11 45.5 1 1 100.0 9 14 64.3 2 3 5 8 3 0 4 5 -
p70
aVDominique Wilkins ATL 04/22/1986 ATL @ DET L 44 21 8 23 34.8 0 1 0.0 5 7 71.4 2 5 7 1 1 0 4 3 -
p71
aVCliff Levingston ATL 04/22/1986 ATL @ DET L 25 5 1 1 100.0 1 1 100.0 2 2 100.0 3 4 7 1 1 2 2 2 -
p72
aVTree Rollins ATL 04/22/1986 ATL @ DET L 30 10 5 10 50.0 0 0 - 0 0 - 3 2 5 1 0 1 2 2 -
p73
aVScott Hastings ATL 04/22/1986 ATL @ DET L 1 0 0 1 0.0 0 1 0.0 0 0 - 0 1 1 1 0 0 0 1 -
p74
aVKevin Willis ATL 04/22/1986 ATL @ DET L 27 6 3 4 75.0 0 0 - 0 0 - 3 2 5 0 0 0 0 3 -
p75
aVLorenzo Charles ATL 04/19/1986 ATL vs. DET W 1 0 0 0 - 0 0 - 0 0 - 0 0 0 0 0 0 0 0 -
p76
aVKevin Willis ATL 04/19/1986 ATL vs. DET W 21 6 2 3 66.7 0 0 - 2 3 66.7 2 5 7 1 0 0 1 4 -
p77
aVDominique Wilkins ATL 04/19/1986 ATL vs. DET W 43 50 19 28 67.9 0 0 - 12 15 80.0 0 5 5 3 1 0 6 2 -
p78
aVCliff Levingston ATL 04/19/1986 ATL vs. DET W 7 0 0 1 0.0 0 0 - 0 0 - 1 0 1 0 0 0 0 4 -
p79
aVJohnny Davis ATL 04/19/1986 ATL vs. DET W 7 2 1 1 100.0 0 0 - 0 0 - 0 0 0 1 0 0 0 2 -
p80
aVJohn Battle ATL 04/19/1986 ATL vs. DET W 1 0 0 0 - 0 0 - 0 0 - 0 0 0 0 0 0 1 0 -
p81
aVSpud Webb ATL 04/19/1986 ATL vs. DET W 30 19 3 8 37.5 0 1 0.0 13 16 81.3 0 7 7 18 1 1 2 2 -
p82
aVScott Hastings ATL 04/19/1986 ATL vs. DET W 1 0 0 0 - 0 0 - 0 0 - 0 0 0 1 0 0 0 0 -
p83
aVRandy Wittman ATL 04/19/1986 ATL vs. DET W 41 35 16 25 64.0 0 0 - 3 4 75.0 0 2 2 4 2 0 1 2 -
p84
aVJon Koncak ATL 04/19/1986 ATL vs. DET W 31 10 3 5 60.0 0 0 - 4 8 50.0 2 6 8 2 2 3 0 6 -
p85
aVDoc Rivers ATL 04/19/1986 ATL vs. DET W 19 4 1 4 25.0 0 0 - 2 2 100.0 0 0 0 10 1 0 0 6 -
p86
aVTree Rollins ATL 04/19/1986 ATL vs. DET W 38 11 4 7 57.1 0 0 - 3 5 60.0 5 9 14 0 0 3 4 3 -
p87
aVDominique Wilkins ATL 04/17/1986 ATL vs. DET W 37 28 9 26 34.6 0 0 - 10 10 100.0 1 3 4 1 0 0 3 4 -
p88
aVKevin Willis ATL 04/17/1986 ATL vs. DET W 31 22 10 13 76.9 0 0 - 2 5 40.0 2 4 6 0 1 0 1 4 -
p89
aVLorenzo Charles ATL 04/17/1986 ATL vs. DET W 1 0 0 0 - 0 0 - 0 0 - 0 0 0 1 0 0 0 0 -
p90
aVRandy Wittman ATL 04/17/1986 ATL vs. DET W 37 13 6 12 50.0 0 0 - 1 1 100.0 0 1 1 6 0 0 0 3 -
p91
aVJon Koncak ATL 04/17/1986 ATL vs. DET W 32 19 4 4 100.0 0 0 - 11 11 100.0 3 3 6 2 2 2 4 1 -
p92
aVCliff Levingston ATL 04/17/1986 ATL vs. DET W 27 9 4 6 66.7 0 0 - 1 1 100.0 1 7 8 0 1 2 0 1 -
p93
aVDoc Rivers ATL 04/17/1986 ATL vs. DET W 30 17 5 11 45.5 1 1 100.0 6 7 85.7 2 3 5 16 1 0 4 5 -
p94
aVJohnny Davis ATL 04/17/1986 ATL vs. DET W 11 4 1 4 25.0 0 0 - 2 2 100.0 0 0 0 5 0 0 0 1 -
p95
aVTree Rollins ATL 04/17/1986 ATL vs. DET W 15 10 5 6 83.3 0 0 - 0 0 - 4 4 8 0 1 2 0 4 -
p96
aVJohn Battle ATL 04/17/1986 ATL vs. DET W 1 0 0 0 - 0 0 - 0 0 - 0 0 0 0 0 0 0 0 -
p97
aVSpud Webb ATL 04/17/1986 ATL vs. DET W 17 18 7 9 77.8 0 1 0.0 4 4 100.0 0 4 4 5 0 0 1 0 -
p98
aVScott Hastings ATL 04/17/1986 ATL vs. DET W 1 0 0 0 - 0 0 - 0 0 - 0 0 0 0 0 0 0 0 -
p99
a.