(lp0
VPLAYER TEAM DATE MATCHUP W/L MIN PTS FGM FGA FG% 3PM 3PA 3P% FTM FTA FT% OREB DREB REB AST STL BLK TOV PF +/-
p1
aVCliff T. Robinson WAS 04/27/1986 WAS @ PHL L 35 30 12 23 52.2 0 0 - 6 8 75.0 6 5 11 3 4 1 4 4 -
p2
aVDan Roundfield WAS 04/27/1986 WAS @ PHL L 37 16 7 13 53.8 0 1 0.0 2 2 100.0 3 13 16 1 0 0 1 4 -
p3
aVDudley Bradley WAS 04/27/1986 WAS @ PHL L 22 4 2 7 28.6 0 3 0.0 0 0 - 0 0 0 2 0 0 0 2 -
p4
aVKevin McKenna WAS 04/27/1986 WAS @ PHL L 2 0 0 0 - 0 0 - 0 0 - 0 0 0 0 0 0 0 0 -
p5
aVManute Bol WAS 04/27/1986 WAS @ PHL L 19 0 0 0 - 0 0 - 0 0 - 0 2 2 0 1 1 1 4 -
p6
aVJeff Malone WAS 04/27/1986 WAS @ PHL L 35 19 7 21 33.3 0 1 0.0 5 6 83.3 1 2 3 4 1 1 1 3 -
p7
aVLeon Wood WAS 04/27/1986 WAS @ PHL L 2 5 1 5 20.0 1 1 100.0 2 2 100.0 0 0 0 0 0 0 0 0 -
p8
aVGus Williams WAS 04/27/1986 WAS @ PHL L 35 14 7 14 50.0 0 1 0.0 0 0 - 1 1 2 6 0 0 1 3 -
p9
aVJeff Ruland WAS 04/27/1986 WAS @ PHL L 28 15 3 6 50.0 0 0 - 9 10 90.0 3 2 5 5 0 1 5 1 -
p10
aVDarren Daye WAS 04/27/1986 WAS @ PHL L 2 0 0 0 - 0 0 - 0 0 - 0 0 0 0 0 0 0 1 -
p11
aVTom McMillen WAS 04/27/1986 WAS @ PHL L 11 6 3 5 60.0 0 0 - 0 0 - 1 1 2 3 0 0 0 0 -
p12
aVCharles Jones WAS 04/27/1986 WAS @ PHL L 12 0 0 0 - 0 0 - 0 0 - 1 0 1 0 1 1 1 1 -
p13
aVManute Bol WAS 04/24/1986 WAS vs. PHL W 36 7 3 5 60.0 0 0 - 1 4 25.0 7 5 12 0 0 3 0 2 -
p14
aVDudley Bradley WAS 04/24/1986 WAS vs. PHL W 17 9 4 5 80.0 0 0 - 1 2 50.0 1 1 2 2 2 0 2 3 -
p15
aVCliff T. Robinson WAS 04/24/1986 WAS vs. PHL W 37 31 15 27 55.6 0 0 - 1 4 25.0 7 4 11 3 0 2 2 3 -
p16
aVCharles Jones WAS 04/24/1986 WAS vs. PHL W 16 2 1 4 25.0 0 0 - 0 0 - 3 1 4 2 1 0 0 4 -
p17
aVDan Roundfield WAS 04/24/1986 WAS vs. PHL W 29 12 5 10 50.0 0 0 - 2 4 50.0 1 2 3 1 0 0 2 3 -
p18
aVJeff Ruland WAS 04/24/1986 WAS vs. PHL W 26 13 4 8 50.0 0 0 - 5 7 71.4 2 5 7 5 0 1 1 5 -
p19
aVGus Williams WAS 04/24/1986 WAS vs. PHL W 39 10 4 11 36.4 0 0 - 2 2 100.0 0 2 2 4 1 0 0 3 -
p20
aVJeff Malone WAS 04/24/1986 WAS vs. PHL W 40 32 12 24 50.0 0 0 - 8 8 100.0 0 3 3 1 1 0 3 2 -
p21
aVJeff Malone WAS 04/22/1986 WAS vs. PHL L 38 13 6 16 37.5 0 0 - 1 2 50.0 1 0 1 2 4 2 4 2 -
p22
aVCharles Jones WAS 04/22/1986 WAS vs. PHL L 15 6 1 3 33.3 0 0 - 4 4 100.0 1 1 2 0 0 1 2 4 -
p23
aVDudley Bradley WAS 04/22/1986 WAS vs. PHL L 17 8 3 8 37.5 0 3 0.0 2 3 66.7 0 1 1 0 2 0 1 1 -
p24
aVCliff T. Robinson WAS 04/22/1986 WAS vs. PHL L 25 11 5 13 38.5 0 0 - 1 5 20.0 0 2 2 1 0 0 1 6 -
p25
aVDan Roundfield WAS 04/22/1986 WAS vs. PHL L 39 10 3 10 30.0 0 0 - 4 4 100.0 4 6 10 4 0 2 6 2 -
p26
aVDarren Daye WAS 04/22/1986 WAS vs. PHL L 15 4 2 6 33.3 0 0 - 0 2 0.0 2 5 7 0 0 0 3 1 -
p27
aVTom McMillen WAS 04/22/1986 WAS vs. PHL L 10 2 1 2 50.0 0 0 - 0 0 - 0 1 1 0 0 0 1 0 -
p28
aVManute Bol WAS 04/22/1986 WAS vs. PHL L 38 4 2 5 40.0 0 0 - 0 2 0.0 5 5 10 1 2 8 0 2 -
p29
aVGus Williams WAS 04/22/1986 WAS vs. PHL L 43 28 11 19 57.9 0 3 0.0 6 7 85.7 1 0 1 4 3 0 1 2 -
p30
aVCharles Jones WAS 04/20/1986 WAS @ PHL L 16 2 1 2 50.0 0 0 - 0 0 - 1 0 1 0 0 0 1 2 -
p31
aVManute Bol WAS 04/20/1986 WAS @ PHL L 27 8 3 4 75.0 0 0 - 2 2 100.0 3 4 7 0 0 8 0 4 -
p32
aVDan Roundfield WAS 04/20/1986 WAS @ PHL L 36 12 5 9 55.6 0 0 - 2 2 100.0 2 8 10 1 1 0 3 4 -
p33
aVJeff Malone WAS 04/20/1986 WAS @ PHL L 42 25 10 23 43.5 0 1 0.0 5 5 100.0 2 3 5 4 1 0 1 3 -
p34
aVGus Williams WAS 04/20/1986 WAS @ PHL L 43 22 8 20 40.0 0 3 0.0 6 6 100.0 2 3 5 12 3 0 3 1 -
p35
aVCliff T. Robinson WAS 04/20/1986 WAS @ PHL L 43 17 7 16 43.8 0 0 - 3 5 60.0 4 7 11 6 3 0 4 2 -
p36
aVTom McMillen WAS 04/20/1986 WAS @ PHL L 17 6 3 6 50.0 0 0 - 0 0 - 0 2 2 1 1 0 0 2 -
p37
aVDudley Bradley WAS 04/20/1986 WAS @ PHL L 11 3 1 4 25.0 1 1 100.0 0 0 - 0 0 0 2 1 0 3 5 -
p38
aVDarren Daye WAS 04/20/1986 WAS @ PHL L 5 2 1 2 50.0 0 0 - 0 0 - 1 0 1 0 0 0 0 0 -
p39
aVDarren Daye WAS 04/18/1986 WAS @ PHL W 10 2 1 4 25.0 0 0 - 0 0 - 0 0 0 0 0 0 2 1 -
p40
aVCharles Jones WAS 04/18/1986 WAS @ PHL W 13 2 1 2 50.0 0 0 - 0 0 - 0 1 1 1 0 0 1 2 -
p41
aVManute Bol WAS 04/18/1986 WAS @ PHL W 32 4 2 3 66.7 0 0 - 0 0 - 1 6 7 0 0 9 3 3 -
p42
aVTom McMillen WAS 04/18/1986 WAS @ PHL W 16 2 1 3 33.3 0 0 - 0 0 - 0 0 0 3 2 0 1 0 -
p43
aVCliff T. Robinson WAS 04/18/1986 WAS @ PHL W 37 18 7 14 50.0 0 0 - 4 9 44.4 0 8 8 4 3 0 4 4 -
p44
aVJeff Malone WAS 04/18/1986 WAS @ PHL W 42 21 7 19 36.8 0 0 - 7 8 87.5 0 4 4 6 0 0 2 3 -
p45
aVDan Roundfield WAS 04/18/1986 WAS @ PHL W 36 20 8 11 72.7 0 0 - 4 5 80.0 4 3 7 3 1 2 1 4 -
p46
aVLeon Wood WAS 04/18/1986 WAS @ PHL W 0 0 0 0 - 0 - - 0 0 - - - - - - - 2 - -
p47
aVDudley Bradley WAS 04/18/1986 WAS @ PHL W 15 9 2 5 40.0 2 3 66.7 3 4 75.0 1 1 2 1 0 0 1 3 -
p48
aVGus Williams WAS 04/18/1986 WAS @ PHL W 39 17 8 15 53.3 1 3 33.3 0 3 0.0 0 0 0 7 4 0 2 2 -
p49
a.