(lp0
VPLAYER TEAM DATE MATCHUP W/L MIN PTS FGM FGA FG% 3PM 3PA 3P% FTM FTA FT% OREB DREB REB AST STL BLK TOV PF +/-
p1
aVWes Matthews SAN 04/23/1986 SAN vs. LAL L 38 30 13 21 61.9 0 0 - 4 6 66.7 1 4 5 8 0 0 3 3 -
p2
aVAlvin Robertson SAN 04/23/1986 SAN vs. LAL L 33 11 2 11 18.2 0 0 - 7 8 87.5 4 2 6 5 1 0 0 3 -
p3
aVJeff Lamp SAN 04/23/1986 SAN vs. LAL L 14 7 3 7 42.9 1 2 50.0 0 0 - 0 0 0 2 1 0 2 3 -
p4
aVAlfredrick Hughes SAN 04/23/1986 SAN vs. LAL L 9 0 0 3 0.0 0 0 - 0 0 - 0 0 0 1 1 0 0 1 -
p5
aVJon Sundvold SAN 04/23/1986 SAN vs. LAL L 14 3 1 6 16.7 0 3 0.0 1 1 100.0 0 0 0 1 0 0 2 1 -
p6
aVDavid Greenwood SAN 04/23/1986 SAN vs. LAL L 33 6 2 6 33.3 0 0 - 2 2 100.0 0 8 8 1 0 0 0 5 -
p7
aVArtis Gilmore SAN 04/23/1986 SAN vs. LAL L 39 17 7 11 63.6 0 0 - 3 4 75.0 4 7 11 0 1 1 1 3 -
p8
aVJeff Wilkins SAN 04/23/1986 SAN vs. LAL L 4 0 0 0 - 0 0 - 0 0 - 0 0 0 0 0 0 0 0 -
p9
aVMike Mitchell SAN 04/23/1986 SAN vs. LAL L 37 17 8 18 44.4 0 0 - 1 2 50.0 0 1 1 4 1 1 2 6 -
p10
aVSteve Johnson SAN 04/23/1986 SAN vs. LAL L 17 1 0 4 0.0 0 0 - 1 2 50.0 0 1 1 0 0 1 1 3 -
p11
aVMike Brittain SAN 04/23/1986 SAN vs. LAL L 2 2 1 2 50.0 0 0 - 0 0 - 1 0 1 0 0 1 0 0 -
p12
aVMike Mitchell SAN 04/19/1986 SAN @ LAL L 36 6 3 13 23.1 0 0 - 0 2 0.0 2 2 4 3 0 1 2 2 -
p13
aVAlvin Robertson SAN 04/19/1986 SAN @ LAL L 28 2 1 8 12.5 0 0 - 0 0 - 1 4 5 8 3 0 1 4 -
p14
aVWes Matthews SAN 04/19/1986 SAN @ LAL L 44 30 14 20 70.0 0 1 0.0 2 2 100.0 0 2 2 6 3 0 5 2 -
p15
aVJeff Lamp SAN 04/19/1986 SAN @ LAL L 20 4 2 7 28.6 0 1 0.0 0 0 - 1 0 1 3 0 0 1 2 -
p16
aVDavid Greenwood SAN 04/19/1986 SAN @ LAL L 39 14 5 9 55.6 0 0 - 4 6 66.7 0 7 7 1 2 0 0 5 -
p17
aVSteve Johnson SAN 04/19/1986 SAN @ LAL L 13 8 2 2 100.0 0 0 - 4 8 50.0 0 1 1 0 0 0 2 6 -
p18
aVAlfredrick Hughes SAN 04/19/1986 SAN @ LAL L 3 6 3 4 75.0 0 0 - 0 0 - 0 0 0 0 0 0 0 0 -
p19
aVJeff Wilkins SAN 04/19/1986 SAN @ LAL L 5 0 0 0 - 0 0 - 0 0 - 0 1 1 0 0 0 0 4 -
p20
aVArtis Gilmore SAN 04/19/1986 SAN @ LAL L 37 11 5 6 83.3 0 0 - 1 5 20.0 2 4 6 2 2 0 7 4 -
p21
aVJon Sundvold SAN 04/19/1986 SAN @ LAL L 15 13 6 7 85.7 1 2 50.0 0 0 - 0 1 1 3 0 0 0 0 -
p22
aVMike Mitchell SAN 04/17/1986 SAN @ LAL L 34 24 10 21 47.6 0 0 - 4 6 66.7 1 3 4 3 2 1 6 0 -
p23
aVArtis Gilmore SAN 04/17/1986 SAN @ LAL L 31 12 4 7 57.1 0 0 - 4 5 80.0 1 0 1 1 4 0 2 4 -
p24
aVSteve Johnson SAN 04/17/1986 SAN @ LAL L 23 6 3 9 33.3 0 0 - 0 1 0.0 2 2 4 2 0 0 3 5 -
p25
aVJeff Lamp SAN 04/17/1986 SAN @ LAL L 11 4 2 4 50.0 0 0 - 0 0 - 0 0 0 2 0 0 1 1 -
p26
aVTyrone Corbin SAN 04/17/1986 SAN @ LAL L 14 0 0 4 0.0 0 0 - 0 0 - 0 1 1 1 0 0 0 0 -
p27
aVDavid Greenwood SAN 04/17/1986 SAN @ LAL L 29 10 5 8 62.5 0 0 - 0 0 - 1 2 3 1 1 1 1 2 -
p28
aVJeff Wilkins SAN 04/17/1986 SAN @ LAL L 7 0 0 1 0.0 0 0 - 0 0 - 0 2 2 0 0 2 0 2 -
p29
aVAlvin Robertson SAN 04/17/1986 SAN @ LAL L 37 14 5 10 50.0 0 0 - 4 5 80.0 0 3 3 6 3 1 4 3 -
p30
aVAlfredrick Hughes SAN 04/17/1986 SAN @ LAL L 6 2 1 2 50.0 0 0 - 0 0 - 0 0 0 0 0 0 1 2 -
p31
aVWes Matthews SAN 04/17/1986 SAN @ LAL L 34 16 8 13 61.5 0 0 - 0 0 - 0 0 0 10 3 0 3 2 -
p32
aVJon Sundvold SAN 04/17/1986 SAN @ LAL L 14 0 0 5 0.0 0 1 0.0 0 0 - 0 0 0 1 0 0 3 0 -
p33
a.