(lp0
VPLAYER TEAM DATE MATCHUP W/L MIN PTS FGM FGA FG% 3PM 3PA 3P% FTM FTA FT% OREB DREB REB AST STL BLK TOV PF +/-
p1
aVWayne Cooper DEN 05/08/1986 DEN vs. HOU L 21 6 2 6 33.3 0 0 - 2 2 100.0 1 2 3 0 0 1 3 5 -
p2
aVBill Hanzlik DEN 05/08/1986 DEN vs. HOU L 24 6 2 5 40.0 0 0 - 2 3 66.7 0 0 0 5 0 0 3 3 -
p3
aVLafayette Lever DEN 05/08/1986 DEN vs. HOU L 49 6 3 9 33.3 0 0 - 0 0 - 1 8 9 7 5 1 1 2 -
p4
aVMike Evans DEN 05/08/1986 DEN vs. HOU L 19 7 1 7 14.3 0 3 0.0 5 6 83.3 2 1 3 0 1 0 1 0 -
p5
aVT.R. Dunn DEN 05/08/1986 DEN vs. HOU L 22 2 1 3 33.3 0 0 - 0 0 - 3 1 4 2 1 0 0 4 -
p6
aVElston Turner DEN 05/08/1986 DEN vs. HOU L 33 8 4 7 57.1 0 0 - 0 0 - 0 3 3 5 0 0 0 2 -
p7
aVCalvin Natt DEN 05/08/1986 DEN vs. HOU L 38 23 8 18 44.4 0 0 - 7 9 77.8 4 8 12 3 0 1 1 5 -
p8
aVDan Schayes DEN 05/08/1986 DEN vs. HOU L 21 15 6 12 50.0 0 0 - 3 4 75.0 5 9 14 0 1 0 1 3 -
p9
aVBlair Rasmussen DEN 05/08/1986 DEN vs. HOU L 13 7 2 12 16.7 0 0 - 3 5 60.0 3 1 4 1 0 0 0 4 -
p10
aVAlex English DEN 05/08/1986 DEN vs. HOU L 50 42 15 30 50.0 0 0 - 12 13 92.3 4 3 7 2 0 2 3 4 -
p11
aVAlex English DEN 05/06/1986 DEN @ HOU L 35 27 12 23 52.2 0 1 0.0 3 3 100.0 1 2 3 2 0 0 2 2 -
p12
aVPete Williams DEN 05/06/1986 DEN @ HOU L 7 2 1 3 33.3 0 1 0.0 0 0 - 1 2 3 1 0 0 0 0 -
p13
aVT.R. Dunn DEN 05/06/1986 DEN @ HOU L 23 0 0 2 0.0 0 0 - 0 0 - 0 1 1 1 0 0 0 4 -
p14
aVLafayette Lever DEN 05/06/1986 DEN @ HOU L 31 20 8 20 40.0 4 6 66.7 0 0 - 2 0 2 4 1 1 2 2 -
p15
aVMike Evans DEN 05/06/1986 DEN @ HOU L 30 8 2 10 20.0 1 7 14.3 3 4 75.0 0 1 1 3 1 0 6 4 -
p16
aVCalvin Natt DEN 05/06/1986 DEN @ HOU L 11 2 1 8 12.5 0 0 - 0 0 - 2 3 5 2 1 0 1 0 -
p17
aVBlair Rasmussen DEN 05/06/1986 DEN @ HOU L 30 14 5 11 45.5 0 0 - 4 4 100.0 2 10 12 2 2 0 2 6 -
p18
aVDan Schayes DEN 05/06/1986 DEN @ HOU L 29 14 6 10 60.0 0 0 - 2 2 100.0 2 9 11 0 2 1 4 5 -
p19
aVBill Hanzlik DEN 05/06/1986 DEN @ HOU L 9 0 0 4 0.0 0 0 - 0 0 - 1 0 1 2 0 0 0 0 -
p20
aVWayne Cooper DEN 05/06/1986 DEN @ HOU L 21 12 4 9 44.4 0 1 0.0 4 7 57.1 2 5 7 1 0 1 1 6 -
p21
aVWillie White DEN 05/06/1986 DEN @ HOU L 6 2 1 3 33.3 0 1 0.0 0 0 - 1 1 2 0 1 0 1 0 -
p22
aVElston Turner DEN 05/06/1986 DEN @ HOU L 8 2 0 1 0.0 0 0 - 2 2 100.0 1 0 1 0 0 0 0 2 -
p23
aVWayne Cooper DEN 05/04/1986 DEN vs. HOU W 26 8 4 10 40.0 0 0 - 0 2 0.0 1 8 9 2 1 2 2 6 -
p24
aVBlair Rasmussen DEN 05/04/1986 DEN vs. HOU W 6 6 2 5 40.0 0 0 - 2 2 100.0 1 0 1 1 1 0 1 0 -
p25
aVT.R. Dunn DEN 05/04/1986 DEN vs. HOU W 23 2 0 1 0.0 0 0 - 2 2 100.0 1 3 4 1 0 0 0 2 -
p26
aVDan Schayes DEN 05/04/1986 DEN vs. HOU W 11 7 2 2 100.0 0 0 - 3 4 75.0 2 2 4 0 0 0 1 5 -
p27
aVLafayette Lever DEN 05/04/1986 DEN vs. HOU W 42 17 7 13 53.8 0 0 - 3 4 75.0 1 6 7 3 2 0 2 5 -
p28
aVElston Turner DEN 05/04/1986 DEN vs. HOU W 37 13 6 9 66.7 1 1 100.0 0 0 - 3 2 5 5 2 0 1 0 -
p29
aVAlex English DEN 05/04/1986 DEN vs. HOU W 40 28 11 28 39.3 0 0 - 6 6 100.0 2 4 6 1 0 2 2 2 -
p30
aVMike Evans DEN 05/04/1986 DEN vs. HOU W 22 7 2 9 22.2 1 3 33.3 2 2 100.0 1 1 2 2 1 0 0 4 -
p31
aVBill Hanzlik DEN 05/04/1986 DEN vs. HOU W 30 10 3 6 50.0 0 0 - 4 6 66.7 0 1 1 5 0 1 2 5 -
p32
aVCalvin Natt DEN 05/04/1986 DEN vs. HOU W 28 16 5 11 45.5 0 0 - 6 8 75.0 1 6 7 3 0 0 2 3 -
p33
aVElston Turner DEN 05/02/1986 DEN vs. HOU W 25 10 4 7 57.1 0 0 - 2 2 100.0 2 4 6 4 4 0 1 1 -
p34
aVDan Schayes DEN 05/02/1986 DEN vs. HOU W 22 8 3 9 33.3 0 0 - 2 3 66.7 5 3 8 1 0 2 1 5 -
p35
aVMike Evans DEN 05/02/1986 DEN vs. HOU W 16 10 5 10 50.0 0 1 0.0 0 0 - 0 2 2 1 0 1 0 1 -
p36
aVAlex English DEN 05/02/1986 DEN vs. HOU W 39 33 14 23 60.9 0 0 - 5 7 71.4 1 1 2 5 1 0 2 3 -
p37
aVLafayette Lever DEN 05/02/1986 DEN vs. HOU W 32 12 6 12 50.0 0 0 - 0 0 - 1 2 3 4 1 0 3 4 -
p38
aVCalvin Natt DEN 05/02/1986 DEN vs. HOU W 31 13 5 10 50.0 0 0 - 3 6 50.0 1 5 6 4 0 0 3 1 -
p39
aVBlair Rasmussen DEN 05/02/1986 DEN vs. HOU W 10 2 0 6 0.0 0 0 - 2 2 100.0 3 2 5 2 0 1 0 1 -
p40
aVT.R. Dunn DEN 05/02/1986 DEN vs. HOU W 23 0 0 2 0.0 0 0 - 0 0 - 2 2 4 0 0 0 0 4 -
p41
aVBill Hanzlik DEN 05/02/1986 DEN vs. HOU W 24 21 7 9 77.8 0 0 - 7 7 100.0 0 2 2 4 1 0 2 2 -
p42
aVWayne Cooper DEN 05/02/1986 DEN vs. HOU W 18 7 2 5 40.0 0 0 - 3 4 75.0 1 3 4 1 0 0 0 5 -
p43
aVBlair Rasmussen DEN 04/29/1986 DEN @ HOU L 23 18 7 18 38.9 0 0 - 4 4 100.0 4 2 6 0 0 2 0 3 -
p44
aVT.R. Dunn DEN 04/29/1986 DEN @ HOU L 20 0 0 2 0.0 0 0 - 0 0 - 1 5 6 1 1 0 1 1 -
p45
aVWillie White DEN 04/29/1986 DEN @ HOU L 10 3 1 3 33.3 1 2 50.0 0 0 - 0 0 0 5 0 0 1 4 -
p46
aVMike Evans DEN 04/29/1986 DEN @ HOU L 36 12 3 10 30.0 1 4 25.0 5 6 83.3 0 3 3 7 2 2 0 0 -
p47
aVCalvin Natt DEN 04/29/1986 DEN @ HOU L 18 5 1 7 14.3 0 0 - 3 4 75.0 1 6 7 4 0 0 2 2 -
p48
aVWayne Cooper DEN 04/29/1986 DEN @ HOU L 30 13 5 12 41.7 0 0 - 3 4 75.0 3 6 9 1 0 1 2 5 -
p49
aVDan Schayes DEN 04/29/1986 DEN @ HOU L 29 12 6 9 66.7 0 0 - 0 0 - 2 2 4 0 0 1 2 1 -
p50
aVLafayette Lever DEN 04/29/1986 DEN @ HOU L 24 16 6 13 46.2 2 5 40.0 2 2 100.0 1 4 5 3 4 0 4 3 -
p51
aVElston Turner DEN 04/29/1986 DEN @ HOU L 6 2 1 2 50.0 0 0 - 0 0 - 0 0 0 0 0 0 0 0 -
p52
aVBill Hanzlik DEN 04/29/1986 DEN @ HOU L 13 7 3 3 100.0 1 1 100.0 0 0 - 1 1 2 3 0 0 0 2 -
p53
aVPete Williams DEN 04/29/1986 DEN @ HOU L 2 2 1 1 100.0 0 0 - 0 0 - 0 0 0 0 0 0 0 0 -
p54
aVAlex English DEN 04/29/1986 DEN @ HOU L 29 11 4 13 30.8 0 0 - 3 3 100.0 0 1 1 5 0 0 3 2 -
p55
aVMike Evans DEN 04/26/1986 DEN @ HOU L 23 15 6 9 66.7 3 5 60.0 0 0 - 0 2 2 4 2 0 1 2 -
p56
aVT.R. Dunn DEN 04/26/1986 DEN @ HOU L 30 6 3 5 60.0 0 0 - 0 0 - 1 4 5 0 3 0 2 5 -
p57
aVDan Schayes DEN 04/26/1986 DEN @ HOU L 38 8 3 4 75.0 0 0 - 2 2 100.0 4 3 7 1 0 1 4 3 -
p58
aVElston Turner DEN 04/26/1986 DEN @ HOU L 16 2 1 5 20.0 0 0 - 0 0 - 0 0 0 1 0 0 0 0 -
p59
aVAlex English DEN 04/26/1986 DEN @ HOU L 38 34 12 23 52.2 0 0 - 10 12 83.3 3 2 5 9 0 0 0 3 -
p60
aVBlair Rasmussen DEN 04/26/1986 DEN @ HOU L 16 16 6 11 54.5 0 0 - 4 6 66.7 2 0 2 1 0 0 1 1 -
p61
aVCalvin Natt DEN 04/26/1986 DEN @ HOU L 36 28 13 24 54.2 1 2 50.0 1 2 50.0 2 5 7 5 0 1 1 2 -
p62
aVLafayette Lever DEN 04/26/1986 DEN @ HOU L 30 8 4 11 36.4 0 1 0.0 0 0 - 0 3 3 9 3 0 4 3 -
p63
aVWayne Cooper DEN 04/26/1986 DEN @ HOU L 13 2 1 1 100.0 0 0 - 0 0 - 1 2 3 0 1 0 0 0 -
p64
aVAlex English DEN 04/24/1986 DEN @ POR W 40 20 8 22 36.4 0 0 - 4 5 80.0 2 0 2 8 0 0 3 2 -
p65
aVT.R. Dunn DEN 04/24/1986 DEN @ POR W 35 7 2 6 33.3 0 0 - 3 4 75.0 5 6 11 3 4 0 0 4 -
p66
aVWayne Cooper DEN 04/24/1986 DEN @ POR W 13 13 5 7 71.4 0 0 - 3 3 100.0 1 2 3 0 0 0 1 2 -
p67
aVLafayette Lever DEN 04/24/1986 DEN @ POR W 40 30 12 20 60.0 2 2 100.0 4 5 80.0 2 2 4 4 0 0 1 3 -
p68
aVBlair Rasmussen DEN 04/24/1986 DEN @ POR W 16 6 3 7 42.9 0 0 - 0 1 0.0 4 6 10 1 0 0 1 5 -
p69
aVMike Evans DEN 04/24/1986 DEN @ POR W 9 4 1 2 50.0 0 1 0.0 2 2 100.0 0 1 1 0 0 0 1 0 -
p70
aVCalvin Natt DEN 04/24/1986 DEN @ POR W 34 22 6 14 42.9 0 0 - 10 12 83.3 0 6 6 1 0 0 3 3 -
p71
aVDan Schayes DEN 04/24/1986 DEN @ POR W 40 10 4 9 44.4 0 0 - 2 2 100.0 1 7 8 1 0 3 3 1 -
p72
aVElston Turner DEN 04/24/1986 DEN @ POR W 13 4 2 5 40.0 0 0 - 0 0 - 2 1 3 4 0 0 2 4 -
p73
aVElston Turner DEN 04/22/1986 DEN @ POR W 25 13 6 8 75.0 0 0 - 1 2 50.0 0 4 4 1 0 0 0 1 -
p74
aVMike Evans DEN 04/22/1986 DEN @ POR W 10 2 1 5 20.0 0 1 0.0 0 0 - 1 1 2 4 0 0 2 2 -
p75
aVBlair Rasmussen DEN 04/22/1986 DEN @ POR W 31 26 10 16 62.5 0 0 - 6 7 85.7 5 4 9 1 2 3 1 4 -
p76
aVWayne Cooper DEN 04/22/1986 DEN @ POR W 12 2 1 6 16.7 0 0 - 0 0 - 1 1 2 2 0 0 2 2 -
p77
aVT.R. Dunn DEN 04/22/1986 DEN @ POR W 24 2 0 4 0.0 0 0 - 2 4 50.0 2 3 5 1 0 0 0 3 -
p78
aVAlex English DEN 04/22/1986 DEN @ POR W 38 24 10 21 47.6 0 0 - 4 5 80.0 1 1 2 1 1 0 4 1 -
p79
aVDan Schayes DEN 04/22/1986 DEN @ POR W 38 16 4 9 44.4 0 0 - 8 8 100.0 5 4 9 4 1 1 1 5 -
p80
aVCalvin Natt DEN 04/22/1986 DEN @ POR W 23 13 6 11 54.5 0 0 - 1 1 100.0 2 9 11 2 0 0 1 2 -
p81
aVLafayette Lever DEN 04/22/1986 DEN @ POR W 39 17 5 12 41.7 0 0 - 7 8 87.5 3 2 5 5 1 0 2 1 -
p82
aVCalvin Natt DEN 04/20/1986 DEN vs. POR L 36 17 6 18 33.3 0 0 - 5 6 83.3 2 6 8 1 0 1 6 5 -
p83
aVAlex English DEN 04/20/1986 DEN vs. POR L 42 24 9 19 47.4 0 0 - 6 9 66.7 3 1 4 10 2 0 2 5 -
p84
aVLafayette Lever DEN 04/20/1986 DEN vs. POR L 28 14 7 14 50.0 0 0 - 0 3 0.0 4 3 7 5 1 0 2 5 -
p85
aVT.R. Dunn DEN 04/20/1986 DEN vs. POR L 45 21 10 16 62.5 0 0 - 1 2 50.0 4 4 8 1 7 0 0 1 -
p86
aVWillie White DEN 04/20/1986 DEN vs. POR L 2 0 0 0 - 0 0 - 0 0 - 0 0 0 0 0 0 0 0 -
p87
aVElston Turner DEN 04/20/1986 DEN vs. POR L 8 2 0 3 0.0 0 0 - 2 2 100.0 0 1 1 1 0 0 0 6 -
p88
aVMike Evans DEN 04/20/1986 DEN vs. POR L 20 12 4 13 30.8 1 3 33.3 3 4 75.0 2 2 4 1 2 0 1 2 -
p89
aVPete Williams DEN 04/20/1986 DEN vs. POR L 5 0 0 0 - 0 0 - 0 0 - 0 1 1 2 0 0 0 1 -
p90
aVBlair Rasmussen DEN 04/20/1986 DEN vs. POR L 24 12 3 8 37.5 0 0 - 6 8 75.0 3 6 9 1 0 3 1 3 -
p91
aVDan Schayes DEN 04/20/1986 DEN vs. POR L 30 4 2 8 25.0 0 0 - 0 2 0.0 3 3 6 1 0 3 2 6 -
p92
aVBlair Rasmussen DEN 04/18/1986 DEN vs. POR W 6 4 1 2 50.0 0 0 - 2 2 100.0 0 2 2 0 0 0 0 1 -
p93
aVPete Williams DEN 04/18/1986 DEN vs. POR W 4 0 0 0 - 0 0 - 0 0 - 0 0 0 0 0 0 0 1 -
p94
aVWillie White DEN 04/18/1986 DEN vs. POR W 3 0 0 1 0.0 0 1 0.0 0 0 - 0 1 1 1 0 0 0 0 -
p95
aVElston Turner DEN 04/18/1986 DEN vs. POR W 25 10 5 7 71.4 0 0 - 0 0 - 4 2 6 1 1 0 1 3 -
p96
aVCalvin Natt DEN 04/18/1986 DEN vs. POR W 38 40 15 21 71.4 0 0 - 10 11 90.9 2 8 10 3 1 0 2 2 -
p97
aVDan Schayes DEN 04/18/1986 DEN vs. POR W 37 22 10 14 71.4 0 0 - 2 3 66.7 5 6 11 1 0 5 2 3 -
p98
aVMike Evans DEN 04/18/1986 DEN vs. POR W 19 15 5 7 71.4 0 1 0.0 5 6 83.3 0 0 0 3 1 0 1 4 -
p99
aVLafayette Lever DEN 04/18/1986 DEN vs. POR W 32 3 1 7 14.3 0 0 - 1 2 50.0 0 3 3 9 2 0 2 5 -
p100
aVT.R. Dunn DEN 04/18/1986 DEN vs. POR W 31 9 4 5 80.0 0 0 - 1 2 50.0 3 2 5 3 0 0 0 6 -
p101
aVAlex English DEN 04/18/1986 DEN vs. POR W 43 30 11 27 40.7 0 0 - 8 8 100.0 1 2 3 9 0 0 7 5 -
p102
aVBill Hanzlik DEN 04/18/1986 DEN vs. POR W 2 0 0 1 0.0 0 0 - 0 0 - 0 0 0 0 0 0 0 0 -
p103
a.