(lp0
VPLAYER TEAM DATE MATCHUP W/L MIN PTS FGM FGA FG% 3PM 3PA 3P% FTM FTA FT% OREB DREB REB AST STL BLK TOV PF +/-
p1
aVTerry Cummings MIL 05/18/1986 MIL vs. BOS L 38 15 7 22 31.8 0 0 - 1 2 50.0 2 7 9 3 2 0 0 5 -
p2
aVPaul Mokeski MIL 05/18/1986 MIL vs. BOS L 12 6 2 3 66.7 0 0 - 2 2 100.0 0 3 3 1 2 0 0 4 -
p3
aVAlton Lister MIL 05/18/1986 MIL vs. BOS L 32 6 3 6 50.0 0 0 - 0 0 - 5 7 12 1 0 0 0 5 -
p4
aVMike Glenn MIL 05/18/1986 MIL vs. BOS L 2 0 0 1 0.0 0 0 - 0 0 - 0 0 0 0 0 0 0 0 -
p5
aVRicky Pierce MIL 05/18/1986 MIL vs. BOS L 7 2 0 0 - 0 0 - 2 2 100.0 0 0 0 1 0 0 0 1 -
p6
aVPaul Pressey MIL 05/18/1986 MIL vs. BOS L 40 23 8 20 40.0 1 3 33.3 6 7 85.7 1 4 5 3 3 0 2 1 -
p7
aVSidney Moncrief MIL 05/18/1986 MIL vs. BOS L 40 27 7 16 43.8 0 2 0.0 13 15 86.7 2 3 5 8 0 1 1 1 -
p8
aVJerry Reynolds MIL 05/18/1986 MIL vs. BOS L 3 2 1 2 50.0 0 0 - 0 0 - 0 0 0 0 0 0 0 0 -
p9
aVCraig Hodges MIL 05/18/1986 MIL vs. BOS L 41 13 6 13 46.2 1 3 33.3 0 0 - 0 2 2 6 3 0 3 2 -
p10
aVRandy Breuer MIL 05/18/1986 MIL vs. BOS L 13 0 0 0 - 0 0 - 0 0 - 0 1 1 2 0 0 0 1 -
p11
aVRicky Pierce MIL 05/17/1986 MIL vs. BOS L 24 5 2 4 50.0 0 0 - 1 2 50.0 0 2 2 0 0 0 2 5 -
p12
aVRandy Breuer MIL 05/17/1986 MIL vs. BOS L 20 1 0 4 0.0 0 0 - 1 2 50.0 0 1 1 2 2 0 0 4 -
p13
aVAlton Lister MIL 05/17/1986 MIL vs. BOS L 28 19 7 12 58.3 0 0 - 5 9 55.6 5 9 14 0 1 3 0 4 -
p14
aVPaul Pressey MIL 05/17/1986 MIL vs. BOS L 43 18 5 13 38.5 1 3 33.3 7 8 87.5 1 4 5 9 1 0 7 4 -
p15
aVCraig Hodges MIL 05/17/1986 MIL vs. BOS L 34 11 5 9 55.6 1 2 50.0 0 0 - 1 0 1 5 0 1 3 4 -
p16
aVCharlie Davis MIL 05/17/1986 MIL vs. BOS L 3 0 0 1 0.0 0 0 - 0 0 - 0 0 0 0 0 0 0 0 -
p17
aVSidney Moncrief MIL 05/17/1986 MIL vs. BOS L 44 24 9 24 37.5 2 4 50.0 4 6 66.7 1 3 4 6 0 0 2 4 -
p18
aVPaul Mokeski MIL 05/17/1986 MIL vs. BOS L 4 2 1 2 50.0 0 0 - 0 0 - 0 0 0 0 1 0 0 0 -
p19
aVTerry Cummings MIL 05/17/1986 MIL vs. BOS L 40 27 12 25 48.0 0 0 - 3 3 100.0 6 12 18 0 2 1 3 5 -
p20
aVSidney Moncrief MIL 05/15/1986 MIL @ BOS L 37 2 1 8 12.5 0 3 0.0 0 0 - 0 4 4 6 1 3 4 3 -
p21
aVPaul Pressey MIL 05/15/1986 MIL @ BOS L 42 17 7 11 63.6 0 1 0.0 3 6 50.0 1 5 6 9 3 2 2 5 -
p22
aVRandy Breuer MIL 05/15/1986 MIL @ BOS L 28 21 9 11 81.8 0 0 - 3 3 100.0 1 2 3 0 2 2 1 2 -
p23
aVCraig Hodges MIL 05/15/1986 MIL @ BOS L 36 14 5 11 45.5 2 3 66.7 2 2 100.0 0 0 0 4 2 0 2 1 -
p24
aVAlton Lister MIL 05/15/1986 MIL @ BOS L 21 22 9 12 75.0 0 0 - 4 5 80.0 3 4 7 2 0 0 2 5 -
p25
aVMike Glenn MIL 05/15/1986 MIL @ BOS L 6 0 0 0 - 0 0 - 0 0 - 0 2 2 1 0 0 1 0 -
p26
aVJerry Reynolds MIL 05/15/1986 MIL @ BOS L 3 2 1 2 50.0 0 0 - 0 0 - 1 0 1 0 0 0 0 0 -
p27
aVTerry Cummings MIL 05/15/1986 MIL @ BOS L 40 23 9 17 52.9 0 0 - 5 6 83.3 1 4 5 6 2 0 3 5 -
p28
aVKenny Fields MIL 05/15/1986 MIL @ BOS L 7 2 1 3 33.3 0 0 - 0 0 - 0 0 0 0 0 0 3 1 -
p29
aVPaul Mokeski MIL 05/15/1986 MIL @ BOS L 1 0 0 0 - 0 0 - 0 0 - 0 2 2 0 0 0 0 0 -
p30
aVCharlie Davis MIL 05/15/1986 MIL @ BOS L 19 8 3 5 60.0 0 0 - 2 2 100.0 2 2 4 0 0 0 2 4 -
p31
aVJerry Reynolds MIL 05/13/1986 MIL @ BOS L 14 8 2 6 33.3 0 0 - 4 6 66.7 1 3 4 2 1 2 1 1 -
p32
aVMike Glenn MIL 05/13/1986 MIL @ BOS L 19 4 2 5 40.0 0 0 - 0 0 - 0 2 2 1 0 0 0 0 -
p33
aVCraig Hodges MIL 05/13/1986 MIL @ BOS L 33 14 4 10 40.0 2 3 66.7 4 5 80.0 1 0 1 3 0 0 0 3 -
p34
aVCharlie Davis MIL 05/13/1986 MIL @ BOS L 25 12 4 12 33.3 0 1 0.0 4 4 100.0 4 3 7 1 0 0 2 3 -
p35
aVRicky Pierce MIL 05/13/1986 MIL @ BOS L 21 7 2 12 16.7 0 0 - 3 3 100.0 1 1 2 2 1 0 0 2 -
p36
aVAlton Lister MIL 05/13/1986 MIL @ BOS L 21 6 3 8 37.5 0 0 - 0 3 0.0 1 2 3 0 1 0 2 2 -
p37
aVTerry Cummings MIL 05/13/1986 MIL @ BOS L 23 8 3 13 23.1 0 0 - 2 3 66.7 5 6 11 3 0 1 4 2 -
p38
aVRandy Breuer MIL 05/13/1986 MIL @ BOS L 30 11 5 10 50.0 0 0 - 1 1 100.0 1 4 5 0 1 2 1 5 -
p39
aVPaul Pressey MIL 05/13/1986 MIL @ BOS L 26 8 3 9 33.3 1 2 50.0 1 1 100.0 1 1 2 2 0 2 2 4 -
p40
aVKenny Fields MIL 05/13/1986 MIL @ BOS L 24 18 8 11 72.7 1 2 50.0 1 5 20.0 0 3 3 3 2 0 1 1 -
p41
aVPaul Mokeski MIL 05/13/1986 MIL @ BOS L 4 0 0 0 - 0 0 - 0 0 - 0 0 0 0 0 0 0 0 -
p42
aVCraig Hodges MIL 05/11/1986 MIL vs. PHL W 40 24 9 16 56.3 1 1 100.0 5 5 100.0 2 2 4 4 2 0 2 5 -
p43
aVRandy Breuer MIL 05/11/1986 MIL vs. PHL W 19 2 1 3 33.3 0 0 - 0 0 - 1 1 2 1 0 2 0 2 -
p44
aVRicky Pierce MIL 05/11/1986 MIL vs. PHL W 30 16 6 11 54.5 0 1 0.0 4 4 100.0 2 2 4 1 2 1 1 2 -
p45
aVPaul Pressey MIL 05/11/1986 MIL vs. PHL W 43 11 3 8 37.5 0 2 0.0 5 6 83.3 3 2 5 15 2 1 4 4 -
p46
aVPaul Mokeski MIL 05/11/1986 MIL vs. PHL W 5 2 1 1 100.0 0 0 - 0 0 - 1 1 2 0 0 1 1 1 -
p47
aVCharlie Davis MIL 05/11/1986 MIL vs. PHL W 3 0 0 0 - 0 0 - 0 0 - 0 0 0 0 0 0 0 0 -
p48
aVTerry Cummings MIL 05/11/1986 MIL vs. PHL W 39 27 12 19 63.2 0 0 - 3 5 60.0 1 7 8 2 2 0 4 3 -
p49
aVAlton Lister MIL 05/11/1986 MIL vs. PHL W 25 8 3 6 50.0 0 0 - 2 2 100.0 3 3 6 1 0 1 2 5 -
p50
aVSidney Moncrief MIL 05/11/1986 MIL vs. PHL W 35 23 9 16 56.3 0 1 0.0 5 8 62.5 0 2 2 2 0 0 3 4 -
p51
aVKenny Fields MIL 05/11/1986 MIL vs. PHL W 1 0 0 0 - 0 0 - 0 0 - 0 0 0 0 0 0 0 0 -
p52
aVMike Glenn MIL 05/09/1986 MIL @ PHL L 24 7 2 8 25.0 0 0 - 3 4 75.0 1 1 2 2 1 0 2 2 -
p53
aVAlton Lister MIL 05/09/1986 MIL @ PHL L 30 17 6 8 75.0 0 0 - 5 9 55.6 5 5 10 2 1 4 3 5 -
p54
aVCraig Hodges MIL 05/09/1986 MIL @ PHL L 37 22 7 15 46.7 5 7 71.4 3 4 75.0 0 1 1 4 8 0 3 2 -
p55
aVJerry Reynolds MIL 05/09/1986 MIL @ PHL L 17 8 3 7 42.9 0 1 0.0 2 5 40.0 1 3 4 1 3 1 3 4 -
p56
aVPaul Pressey MIL 05/09/1986 MIL @ PHL L 26 13 4 7 57.1 0 1 0.0 5 7 71.4 1 2 3 3 0 2 2 2 -
p57
aVPaul Mokeski MIL 05/09/1986 MIL @ PHL L 6 2 1 2 50.0 0 0 - 0 0 - 0 0 0 2 0 0 1 1 -
p58
aVRicky Pierce MIL 05/09/1986 MIL @ PHL L 19 4 2 11 18.2 0 0 - 0 0 - 2 1 3 2 0 0 3 4 -
p59
aVRandy Breuer MIL 05/09/1986 MIL @ PHL L 14 2 1 3 33.3 0 0 - 0 0 - 2 0 2 0 1 0 0 1 -
p60
aVKenny Fields MIL 05/09/1986 MIL @ PHL L 19 11 4 8 50.0 0 1 0.0 3 4 75.0 0 1 1 0 1 0 3 3 -
p61
aVCharlie Davis MIL 05/09/1986 MIL @ PHL L 20 6 2 7 28.6 0 0 - 2 2 100.0 0 1 1 3 2 0 2 6 -
p62
aVTerry Cummings MIL 05/09/1986 MIL @ PHL L 28 16 7 14 50.0 0 0 - 2 2 100.0 1 6 7 5 2 1 3 4 -
p63
aVPaul Mokeski MIL 05/07/1986 MIL vs. PHL W 11 2 1 4 25.0 0 0 - 0 0 - 0 2 2 0 0 0 0 6 -
p64
aVMike Glenn MIL 05/07/1986 MIL vs. PHL W 3 4 2 2 100.0 0 0 - 0 0 - 0 0 0 0 0 0 0 0 -
p65
aVAlton Lister MIL 05/07/1986 MIL vs. PHL W 21 11 5 6 83.3 0 0 - 1 4 25.0 0 1 1 0 1 2 0 3 -
p66
aVJerry Reynolds MIL 05/07/1986 MIL vs. PHL W 1 0 0 0 - 0 0 - 0 0 - 0 0 0 1 0 0 0 0 -
p67
aVTerry Cummings MIL 05/07/1986 MIL vs. PHL W 39 23 7 13 53.8 0 0 - 9 10 90.0 2 9 11 6 0 2 0 3 -
p68
aVRicky Pierce MIL 05/07/1986 MIL vs. PHL W 33 12 5 10 50.0 0 0 - 2 2 100.0 0 0 0 1 1 0 1 5 -
p69
aVRandy Breuer MIL 05/07/1986 MIL vs. PHL W 32 15 6 14 42.9 0 0 - 3 6 50.0 4 5 9 1 1 1 3 3 -
p70
aVCharlie Davis MIL 05/07/1986 MIL vs. PHL W 17 6 3 4 75.0 0 0 - 0 0 - 0 2 2 1 1 0 2 4 -
p71
aVPaul Pressey MIL 05/07/1986 MIL vs. PHL W 47 23 4 7 57.1 0 0 - 15 17 88.2 5 5 10 16 0 0 4 4 -
p72
aVKenny Fields MIL 05/07/1986 MIL vs. PHL W 15 7 3 5 60.0 0 0 - 1 1 100.0 0 2 2 0 0 0 1 1 -
p73
aVCraig Hodges MIL 05/07/1986 MIL vs. PHL W 21 10 3 9 33.3 0 1 0.0 4 5 80.0 1 1 2 1 2 0 0 4 -
p74
aVKenny Fields MIL 05/05/1986 MIL @ PHL W 11 8 4 7 57.1 0 0 - 0 0 - 1 2 3 1 0 0 1 2 -
p75
aVSidney Moncrief MIL 05/05/1986 MIL @ PHL W 38 13 6 14 42.9 0 0 - 1 2 50.0 2 3 5 4 0 0 3 3 -
p76
aVPaul Pressey MIL 05/05/1986 MIL @ PHL W 34 17 5 11 45.5 0 0 - 7 10 70.0 1 3 4 4 2 1 1 3 -
p77
aVRandy Breuer MIL 05/05/1986 MIL @ PHL W 26 10 4 8 50.0 0 0 - 2 4 50.0 3 1 4 0 2 1 1 2 -
p78
aVAlton Lister MIL 05/05/1986 MIL @ PHL W 19 8 3 8 37.5 0 1 0.0 2 2 100.0 1 5 6 2 0 4 0 4 -
p79
aVPaul Mokeski MIL 05/05/1986 MIL @ PHL W 6 2 1 1 100.0 0 0 - 0 0 - 1 1 2 0 0 0 0 1 -
p80
aVTerry Cummings MIL 05/05/1986 MIL @ PHL W 43 19 9 20 45.0 0 0 - 1 2 50.0 4 9 13 4 2 3 0 5 -
p81
aVCraig Hodges MIL 05/05/1986 MIL @ PHL W 34 13 6 13 46.2 1 3 33.3 0 0 - 1 3 4 1 2 0 2 4 -
p82
aVRicky Pierce MIL 05/05/1986 MIL @ PHL W 29 19 6 7 85.7 0 0 - 7 7 100.0 3 1 4 1 0 0 0 2 -
p83
aVCraig Hodges MIL 05/03/1986 MIL @ PHL L 35 9 4 11 36.4 0 3 0.0 1 2 50.0 2 3 5 7 3 0 2 3 -
p84
aVKenny Fields MIL 05/03/1986 MIL @ PHL L 16 9 4 6 66.7 0 0 - 1 2 50.0 0 4 4 0 1 0 4 3 -
p85
aVMike Glenn MIL 05/03/1986 MIL @ PHL L 13 2 1 2 50.0 0 0 - 0 0 - 0 1 1 0 0 0 0 0 -
p86
aVAlton Lister MIL 05/03/1986 MIL @ PHL L 24 8 4 5 80.0 0 0 - 0 0 - 3 6 9 1 0 1 2 6 -
p87
aVPaul Mokeski MIL 05/03/1986 MIL @ PHL L 15 6 3 4 75.0 0 0 - 0 0 - 1 2 3 1 1 1 4 4 -
p88
aVJerry Reynolds MIL 05/03/1986 MIL @ PHL L 1 0 0 0 - 0 0 - 0 0 - 0 0 0 0 0 0 0 0 -
p89
aVPaul Pressey MIL 05/03/1986 MIL @ PHL L 43 15 7 14 50.0 0 0 - 1 4 25.0 1 1 2 9 2 1 3 4 -
p90
aVRicky Pierce MIL 05/03/1986 MIL @ PHL L 35 23 9 16 56.3 0 0 - 5 8 62.5 3 0 3 1 2 0 3 5 -
p91
aVTerry Cummings MIL 05/03/1986 MIL @ PHL L 38 27 10 24 41.7 0 0 - 7 13 53.8 5 4 9 2 2 1 3 2 -
p92
aVRandy Breuer MIL 05/03/1986 MIL @ PHL L 20 4 2 5 40.0 0 0 - 0 0 - 1 5 6 0 0 3 2 6 -
p93
aVAlton Lister MIL 05/01/1986 MIL vs. PHL W 17 10 4 8 50.0 0 0 - 2 2 100.0 4 1 5 0 0 0 3 1 -
p94
aVSidney Moncrief MIL 05/01/1986 MIL vs. PHL W 37 16 6 11 54.5 1 2 50.0 3 5 60.0 2 4 6 5 0 0 2 3 -
p95
aVKenny Fields MIL 05/01/1986 MIL vs. PHL W 20 9 3 10 30.0 0 0 - 3 5 60.0 4 2 6 3 3 0 1 5 -
p96
aVMike Glenn MIL 05/01/1986 MIL vs. PHL W 10 2 1 1 100.0 0 0 - 0 0 - 0 2 2 0 0 0 0 1 -
p97
aVCraig Hodges MIL 05/01/1986 MIL vs. PHL W 29 9 3 6 50.0 1 2 50.0 2 2 100.0 1 1 2 6 3 1 1 4 -
p98
aVRandy Breuer MIL 05/01/1986 MIL vs. PHL W 27 15 4 5 80.0 0 0 - 7 8 87.5 3 5 8 1 1 3 1 2 -
p99
aVPaul Pressey MIL 05/01/1986 MIL vs. PHL W 32 12 4 9 44.4 0 0 - 4 5 80.0 0 2 2 7 0 1 3 5 -
p100
aVTerry Cummings MIL 05/01/1986 MIL vs. PHL W 40 30 14 21 66.7 0 0 - 2 2 100.0 4 11 15 2 1 0 6 4 -
p101
aVRicky Pierce MIL 05/01/1986 MIL vs. PHL W 21 16 4 8 50.0 0 0 - 8 8 100.0 0 3 3 2 0 0 1 4 -
p102
aVPaul Mokeski MIL 05/01/1986 MIL vs. PHL W 4 0 0 2 0.0 0 0 - 0 0 - 1 0 1 0 0 0 1 1 -
p103
aVCharlie Davis MIL 05/01/1986 MIL vs. PHL W 3 0 0 3 0.0 0 0 - 0 0 - 0 0 0 0 0 0 1 1 -
p104
aVTerry Cummings MIL 04/29/1986 MIL vs. PHL L 34 23 10 16 62.5 0 0 - 3 6 50.0 0 7 7 2 1 2 5 4 -
p105
aVRicky Pierce MIL 04/29/1986 MIL vs. PHL L 27 16 8 13 61.5 0 1 0.0 0 0 - 2 2 4 3 0 0 1 5 -
p106
aVPaul Mokeski MIL 04/29/1986 MIL vs. PHL L 9 3 1 2 50.0 0 0 - 1 2 50.0 0 2 2 0 2 0 0 0 -
p107
aVCraig Hodges MIL 04/29/1986 MIL vs. PHL L 31 12 6 8 75.0 0 0 - 0 0 - 0 0 0 9 3 0 2 6 -
p108
aVKenny Fields MIL 04/29/1986 MIL vs. PHL L 22 14 6 10 60.0 0 0 - 2 3 66.7 0 1 1 3 1 0 1 4 -
p109
aVCharlie Davis MIL 04/29/1986 MIL vs. PHL L 10 0 0 3 0.0 0 0 - 0 0 - 1 2 3 0 0 0 1 2 -
p110
aVJerry Reynolds MIL 04/29/1986 MIL vs. PHL L 1 0 0 0 - 0 0 - 0 0 - 0 0 0 0 0 0 0 0 -
p111
aVMike Glenn MIL 04/29/1986 MIL vs. PHL L 18 2 1 5 20.0 0 0 - 0 0 - 0 0 0 1 0 0 2 2 -
p112
aVPaul Pressey MIL 04/29/1986 MIL vs. PHL L 38 20 9 13 69.2 1 1 100.0 1 3 33.3 0 5 5 13 0 0 6 4 -
p113
aVRandy Breuer MIL 04/29/1986 MIL vs. PHL L 29 11 5 8 62.5 0 0 - 1 2 50.0 0 5 5 1 0 1 1 2 -
p114
aVAlton Lister MIL 04/29/1986 MIL vs. PHL L 21 11 4 4 100.0 0 0 - 3 6 50.0 1 3 4 0 1 2 1 2 -
p115
aVKenny Fields MIL 04/22/1986 MIL @ NJN W 10 6 3 4 75.0 0 0 - 0 1 0.0 1 0 1 0 0 0 0 3 -
p116
aVTerry Cummings MIL 04/22/1986 MIL @ NJN W 40 23 10 17 58.8 0 0 - 3 5 60.0 1 10 11 0 2 3 2 3 -
p117
aVPaul Mokeski MIL 04/22/1986 MIL @ NJN W 7 6 2 2 100.0 0 0 - 2 3 66.7 0 4 4 1 0 0 0 5 -
p118
aVAlton Lister MIL 04/22/1986 MIL @ NJN W 28 18 6 6 100.0 0 0 - 6 10 60.0 3 3 6 1 1 1 3 6 -
p119
aVCharlie Davis MIL 04/22/1986 MIL @ NJN W 9 4 2 7 28.6 0 0 - 0 0 - 1 0 1 0 0 0 0 4 -
p120
aVMike Glenn MIL 04/22/1986 MIL @ NJN W 12 9 3 9 33.3 0 1 0.0 3 4 75.0 2 0 2 2 0 0 0 1 -
p121
aVCraig Hodges MIL 04/22/1986 MIL @ NJN W 28 8 4 8 50.0 0 2 0.0 0 0 - 0 1 1 4 1 0 1 4 -
p122
aVSidney Moncrief MIL 04/22/1986 MIL @ NJN W 26 11 2 9 22.2 0 0 - 7 10 70.0 4 1 5 5 3 0 1 3 -
p123
aVRicky Pierce MIL 04/22/1986 MIL @ NJN W 22 0 0 3 0.0 0 0 - 0 0 - 1 1 2 3 1 2 0 3 -
p124
aVPaul Pressey MIL 04/22/1986 MIL @ NJN W 41 22 9 17 52.9 1 2 50.0 3 3 100.0 2 1 3 3 2 1 9 2 -
p125
aVRandy Breuer MIL 04/22/1986 MIL @ NJN W 17 11 2 7 28.6 0 0 - 7 7 100.0 2 4 6 1 0 0 0 4 -
p126
aVSidney Moncrief MIL 04/20/1986 MIL vs. NJN W 34 20 6 15 40.0 1 1 100.0 7 11 63.6 3 2 5 3 0 0 2 4 -
p127
aVCraig Hodges MIL 04/20/1986 MIL vs. NJN W 31 5 2 5 40.0 0 1 0.0 1 4 25.0 0 1 1 2 3 0 2 0 -
p128
aVPaul Mokeski MIL 04/20/1986 MIL vs. NJN W 16 3 1 3 33.3 0 0 - 1 2 50.0 1 2 3 3 0 1 0 4 -
p129
aVPaul Pressey MIL 04/20/1986 MIL vs. NJN W 35 9 3 7 42.9 0 1 0.0 3 4 75.0 2 3 5 7 2 0 4 3 -
p130
aVTerry Cummings MIL 04/20/1986 MIL vs. NJN W 34 28 13 18 72.2 0 0 - 2 3 66.7 1 6 7 1 1 1 3 3 -
p131
aVCharlie Davis MIL 04/20/1986 MIL vs. NJN W 6 7 1 4 25.0 0 0 - 5 6 83.3 0 1 1 0 0 0 0 0 -
p132
aVAlton Lister MIL 04/20/1986 MIL vs. NJN W 14 6 1 4 25.0 0 0 - 4 4 100.0 1 2 3 0 0 1 1 6 -
p133
aVKenny Fields MIL 04/20/1986 MIL vs. NJN W 10 3 1 3 33.3 0 0 - 1 2 50.0 1 5 6 0 0 0 1 0 -
p134
aVMike Glenn MIL 04/20/1986 MIL vs. NJN W 7 6 1 3 33.3 0 0 - 4 4 100.0 0 0 0 1 0 0 0 0 -
p135
aVRicky Pierce MIL 04/20/1986 MIL vs. NJN W 26 16 4 7 57.1 0 0 - 8 9 88.9 3 2 5 1 0 0 0 2 -
p136
aVRandy Breuer MIL 04/20/1986 MIL vs. NJN W 27 8 4 5 80.0 0 0 - 0 2 0.0 2 4 6 1 1 2 1 2 -
p137
aVPaul Pressey MIL 04/18/1986 MIL vs. NJN W 40 17 5 11 45.5 1 2 50.0 6 7 85.7 0 3 3 10 1 2 1 3 -
p138
aVKenny Fields MIL 04/18/1986 MIL vs. NJN W 3 2 1 2 50.0 0 0 - 0 0 - 0 1 1 0 0 0 0 0 -
p139
aVPaul Mokeski MIL 04/18/1986 MIL vs. NJN W 1 0 0 1 0.0 0 0 - 0 0 - 0 0 0 0 0 0 0 0 -
p140
aVTerry Cummings MIL 04/18/1986 MIL vs. NJN W 34 14 7 14 50.0 0 0 - 0 0 - 0 7 7 6 1 1 3 4 -
p141
aVAlton Lister MIL 04/18/1986 MIL vs. NJN W 34 17 8 10 80.0 0 0 - 1 2 50.0 2 8 10 2 1 3 2 2 -
p142
aVRandy Breuer MIL 04/18/1986 MIL vs. NJN W 16 7 3 3 100.0 0 0 - 1 3 33.3 0 2 2 1 0 1 2 2 -
p143
aVCharlie Davis MIL 04/18/1986 MIL vs. NJN W 18 13 4 6 66.7 0 0 - 5 6 83.3 1 4 5 1 1 0 1 2 -
p144
aVCraig Hodges MIL 04/18/1986 MIL vs. NJN W 30 25 10 11 90.9 0 0 - 5 5 100.0 0 1 1 7 0 0 1 2 -
p145
aVSidney Moncrief MIL 04/18/1986 MIL vs. NJN W 36 16 6 9 66.7 0 1 0.0 4 6 66.7 1 4 5 5 1 1 3 5 -
p146
aVRicky Pierce MIL 04/18/1986 MIL vs. NJN W 28 8 4 11 36.4 0 0 - 0 0 - 3 1 4 2 1 0 3 2 -
p147
a.