(lp0
VPLAYER TEAM DATE MATCHUP W/L MIN PTS FGM FGA FG% 3PM 3PA 3P% FTM FTA FT% OREB DREB REB AST STL BLK TOV PF +/-
p1
aVMitch Kupchak LAL 05/21/1986 LAL vs. HOU L 13 6 3 4 75.0 0 0 - 0 1 0.0 0 2 2 0 0 0 0 3 -
p2
aVKurt Rambis LAL 05/21/1986 LAL vs. HOU L 21 6 3 6 50.0 0 0 - 0 0 - 2 4 6 1 1 0 2 4 -
p3
aVByron Scott LAL 05/21/1986 LAL vs. HOU L 30 11 4 11 36.4 0 2 0.0 3 3 100.0 2 3 5 4 0 0 4 4 -
p4
aVMagic Johnson LAL 05/21/1986 LAL vs. HOU L 32 24 9 17 52.9 0 0 - 6 6 100.0 2 3 5 13 3 0 2 4 -
p5
aVMichael Cooper LAL 05/21/1986 LAL vs. HOU L 37 15 6 13 46.2 1 3 33.3 2 2 100.0 3 4 7 7 5 0 2 1 -
p6
aVJames Worthy LAL 05/21/1986 LAL vs. HOU L 44 19 9 16 56.3 0 0 - 1 3 33.3 1 5 6 4 1 3 4 2 -
p7
aVMike McGee LAL 05/21/1986 LAL vs. HOU L 4 0 0 0 - 0 0 - 0 0 - 0 0 0 1 0 0 0 0 -
p8
aVKareem Abdul-Jabbar LAL 05/21/1986 LAL vs. HOU L 37 26 11 19 57.9 0 0 - 4 5 80.0 6 7 13 3 1 1 7 4 -
p9
aVPetur Gudmundsson LAL 05/21/1986 LAL vs. HOU L 3 1 0 0 - 0 0 - 1 2 50.0 1 0 1 0 0 0 0 1 -
p10
aVMaurice Lucas LAL 05/21/1986 LAL vs. HOU L 19 4 2 6 33.3 0 0 - 0 0 - 2 4 6 0 1 1 2 4 -
p11
aVKareem Abdul-Jabbar LAL 05/18/1986 LAL @ HOU L 36 24 10 21 47.6 0 0 - 4 4 100.0 1 6 7 3 0 2 3 5 -
p12
aVMagic Johnson LAL 05/18/1986 LAL @ HOU L 46 20 9 18 50.0 0 4 0.0 2 2 100.0 1 11 12 11 1 0 4 5 -
p13
aVMichael Cooper LAL 05/18/1986 LAL @ HOU L 31 9 3 7 42.9 1 2 50.0 2 2 100.0 1 2 3 3 0 0 2 3 -
p14
aVPetur Gudmundsson LAL 05/18/1986 LAL @ HOU L 1 2 1 1 100.0 0 0 - 0 0 - 0 0 0 0 0 0 0 0 -
p15
aVByron Scott LAL 05/18/1986 LAL @ HOU L 31 10 5 12 41.7 0 1 0.0 0 0 - 2 1 3 4 2 0 0 1 -
p16
aVKurt Rambis LAL 05/18/1986 LAL @ HOU L 11 2 1 1 100.0 0 0 - 0 0 - 0 1 1 0 0 0 0 4 -
p17
aVMaurice Lucas LAL 05/18/1986 LAL @ HOU L 21 0 0 4 0.0 0 0 - 0 0 - 0 0 0 0 0 0 2 5 -
p18
aVJames Worthy LAL 05/18/1986 LAL @ HOU L 48 26 10 18 55.6 0 1 0.0 6 9 66.7 3 7 10 6 0 0 5 4 -
p19
aVMitch Kupchak LAL 05/18/1986 LAL @ HOU L 15 2 1 4 25.0 0 0 - 0 0 - 1 1 2 0 0 0 0 2 -
p20
aVJames Worthy LAL 05/16/1986 LAL @ HOU L 42 29 13 18 72.2 0 0 - 3 3 100.0 1 2 3 3 1 0 5 1 -
p21
aVMaurice Lucas LAL 05/16/1986 LAL @ HOU L 25 8 4 8 50.0 0 0 - 0 0 - 1 7 8 1 0 0 2 5 -
p22
aVKurt Rambis LAL 05/16/1986 LAL @ HOU L 15 0 0 0 - 0 0 - 0 0 - 0 4 4 1 0 0 1 3 -
p23
aVPetur Gudmundsson LAL 05/16/1986 LAL @ HOU L 6 0 0 1 0.0 0 1 0.0 0 0 - 1 0 1 0 0 0 1 1 -
p24
aVByron Scott LAL 05/16/1986 LAL @ HOU L 38 10 5 10 50.0 0 1 0.0 0 0 - 0 1 1 4 1 0 4 3 -
p25
aVMichael Cooper LAL 05/16/1986 LAL @ HOU L 27 12 5 10 50.0 1 5 20.0 1 1 100.0 3 2 5 4 2 1 0 3 -
p26
aVMagic Johnson LAL 05/16/1986 LAL @ HOU L 45 17 6 11 54.5 0 2 0.0 5 6 83.3 3 5 8 20 3 0 3 4 -
p27
aVKareem Abdul-Jabbar LAL 05/16/1986 LAL @ HOU L 42 33 14 26 53.8 0 0 - 5 8 62.5 1 3 4 6 0 5 3 5 -
p28
aVMaurice Lucas LAL 05/13/1986 LAL vs. HOU L 22 13 6 7 85.7 0 0 - 1 1 100.0 0 3 3 0 0 0 0 4 -
p29
aVMagic Johnson LAL 05/13/1986 LAL vs. HOU L 43 24 7 14 50.0 0 1 0.0 10 12 83.3 2 6 8 19 2 0 4 2 -
p30
aVKareem Abdul-Jabbar LAL 05/13/1986 LAL vs. HOU L 38 21 9 26 34.6 0 0 - 3 6 50.0 2 2 4 2 2 1 4 2 -
p31
aVMichael Cooper LAL 05/13/1986 LAL vs. HOU L 27 5 2 4 50.0 1 3 33.3 0 0 - 1 2 3 6 1 0 1 0 -
p32
aVByron Scott LAL 05/13/1986 LAL vs. HOU L 39 17 6 13 46.2 2 2 100.0 3 3 100.0 0 5 5 2 2 0 2 3 -
p33
aVPetur Gudmundsson LAL 05/13/1986 LAL vs. HOU L 9 2 1 2 50.0 0 0 - 0 0 - 0 2 2 0 2 0 0 3 -
p34
aVJames Worthy LAL 05/13/1986 LAL vs. HOU L 41 15 7 19 36.8 0 0 - 1 1 100.0 3 1 4 1 2 2 4 3 -
p35
aVKurt Rambis LAL 05/13/1986 LAL vs. HOU L 21 5 2 5 40.0 0 0 - 1 2 50.0 5 4 9 0 2 0 3 4 -
p36
aVJames Worthy LAL 05/10/1986 LAL vs. HOU W 38 12 5 13 38.5 0 0 - 2 3 66.7 0 1 1 4 3 0 2 2 -
p37
aVKareem Abdul-Jabbar LAL 05/10/1986 LAL vs. HOU W 35 31 13 23 56.5 0 0 - 5 6 83.3 2 4 6 3 1 3 2 3 -
p38
aVPetur Gudmundsson LAL 05/10/1986 LAL vs. HOU W 12 4 2 4 50.0 0 0 - 0 0 - 2 1 3 0 0 0 1 0 -
p39
aVMagic Johnson LAL 05/10/1986 LAL vs. HOU W 41 26 9 15 60.0 0 0 - 8 13 61.5 1 6 7 18 3 0 4 4 -
p40
aVMichael Cooper LAL 05/10/1986 LAL vs. HOU W 27 9 3 7 42.9 1 3 33.3 2 2 100.0 0 2 2 4 1 0 2 3 -
p41
aVByron Scott LAL 05/10/1986 LAL vs. HOU W 41 18 6 13 46.2 1 4 25.0 5 6 83.3 1 5 6 4 2 1 3 3 -
p42
aVKurt Rambis LAL 05/10/1986 LAL vs. HOU W 22 8 3 4 75.0 0 0 - 2 2 100.0 1 2 3 0 1 0 2 2 -
p43
aVMaurice Lucas LAL 05/10/1986 LAL vs. HOU W 24 11 5 8 62.5 0 0 - 1 2 50.0 3 4 7 0 0 1 0 3 -
p44
aVByron Scott LAL 05/08/1986 LAL @ DAL W 31 13 6 10 60.0 0 0 - 1 1 100.0 1 5 6 2 1 0 2 4 -
p45
aVA.C. Green LAL 05/08/1986 LAL @ DAL W 8 0 0 0 - 0 0 - 0 0 - 0 0 0 0 0 1 0 0 -
p46
aVMaurice Lucas LAL 05/08/1986 LAL @ DAL W 16 8 3 7 42.9 0 0 - 2 2 100.0 2 6 8 0 0 0 0 4 -
p47
aVMagic Johnson LAL 05/08/1986 LAL @ DAL W 43 21 5 14 35.7 0 0 - 11 13 84.6 1 5 6 17 3 0 3 3 -
p48
aVJames Worthy LAL 05/08/1986 LAL @ DAL W 39 21 9 19 47.4 0 1 0.0 3 4 75.0 1 2 3 3 0 1 2 4 -
p49
aVKareem Abdul-Jabbar LAL 05/08/1986 LAL @ DAL W 38 27 13 25 52.0 0 0 - 1 1 100.0 1 4 5 4 2 2 3 4 -
p50
aVPetur Gudmundsson LAL 05/08/1986 LAL @ DAL W 9 4 2 2 100.0 0 0 - 0 0 - 0 3 3 1 0 0 0 3 -
p51
aVKurt Rambis LAL 05/08/1986 LAL @ DAL W 25 14 6 7 85.7 0 0 - 2 4 50.0 3 3 6 0 3 1 2 2 -
p52
aVMichael Cooper LAL 05/08/1986 LAL @ DAL W 31 12 4 10 40.0 4 6 66.7 0 0 - 1 4 5 5 0 0 0 2 -
p53
aVA.C. Green LAL 05/06/1986 LAL vs. DAL W 9 1 0 2 0.0 0 0 - 1 2 50.0 0 0 0 0 0 0 1 2 -
p54
aVByron Scott LAL 05/06/1986 LAL vs. DAL W 31 6 3 13 23.1 0 0 - 0 0 - 0 4 4 4 0 1 0 1 -
p55
aVMagic Johnson LAL 05/06/1986 LAL vs. DAL W 42 29 10 18 55.6 0 1 0.0 9 9 100.0 1 6 7 14 2 1 1 2 -
p56
aVMaurice Lucas LAL 05/06/1986 LAL vs. DAL W 26 2 1 6 16.7 0 0 - 0 0 - 2 5 7 1 0 0 0 4 -
p57
aVJames Worthy LAL 05/06/1986 LAL vs. DAL W 31 19 9 17 52.9 0 0 - 1 2 50.0 3 1 4 2 0 0 2 5 -
p58
aVKurt Rambis LAL 05/06/1986 LAL vs. DAL W 21 6 3 5 60.0 0 0 - 0 0 - 5 5 10 1 0 0 2 3 -
p59
aVPetur Gudmundsson LAL 05/06/1986 LAL vs. DAL W 6 2 1 1 100.0 0 0 - 0 0 - 0 1 1 0 0 0 1 2 -
p60
aVKareem Abdul-Jabbar LAL 05/06/1986 LAL vs. DAL W 42 34 14 21 66.7 0 0 - 6 8 75.0 4 4 8 9 1 1 5 4 -
p61
aVMichael Cooper LAL 05/06/1986 LAL vs. DAL W 32 17 7 14 50.0 3 5 60.0 0 0 - 1 1 2 3 1 0 0 1 -
p62
aVByron Scott LAL 05/04/1986 LAL @ DAL L 39 22 10 17 58.8 0 1 0.0 2 2 100.0 1 2 3 7 2 0 0 3 -
p63
aVMagic Johnson LAL 05/04/1986 LAL @ DAL L 43 29 11 21 52.4 0 0 - 7 11 63.6 5 10 15 14 2 0 4 3 -
p64
aVA.C. Green LAL 05/04/1986 LAL @ DAL L 18 1 0 0 - 0 0 - 1 2 50.0 2 2 4 0 0 0 0 0 -
p65
aVKurt Rambis LAL 05/04/1986 LAL @ DAL L 13 6 3 4 75.0 0 0 - 0 0 - 2 1 3 4 1 0 1 1 -
p66
aVJames Worthy LAL 05/04/1986 LAL @ DAL L 40 18 8 15 53.3 0 2 0.0 2 3 66.7 1 4 5 0 1 0 3 4 -
p67
aVMaurice Lucas LAL 05/04/1986 LAL @ DAL L 30 6 3 8 37.5 0 0 - 0 0 - 3 2 5 1 0 0 1 3 -
p68
aVMichael Cooper LAL 05/04/1986 LAL @ DAL L 27 3 1 7 14.3 1 4 25.0 0 0 - 1 1 2 3 1 0 1 2 -
p69
aVKareem Abdul-Jabbar LAL 05/04/1986 LAL @ DAL L 30 33 14 21 66.7 0 0 - 5 5 100.0 0 1 1 2 3 2 1 2 -
p70
aVByron Scott LAL 05/02/1986 LAL @ DAL L 36 19 6 10 60.0 1 1 100.0 6 8 75.0 2 4 6 2 1 0 3 3 -
p71
aVA.C. Green LAL 05/02/1986 LAL @ DAL L 16 4 2 3 66.7 0 0 - 0 0 - 1 5 6 0 0 0 0 4 -
p72
aVMichael Cooper LAL 05/02/1986 LAL @ DAL L 29 6 3 8 37.5 0 2 0.0 0 2 0.0 0 2 2 4 1 0 1 1 -
p73
aVMagic Johnson LAL 05/02/1986 LAL @ DAL L 41 18 8 20 40.0 0 2 0.0 2 3 66.7 0 2 2 14 3 0 2 2 -
p74
aVMaurice Lucas LAL 05/02/1986 LAL @ DAL L 22 11 5 8 62.5 0 0 - 1 2 50.0 2 3 5 0 0 0 2 5 -
p75
aVKareem Abdul-Jabbar LAL 05/02/1986 LAL @ DAL L 37 28 13 22 59.1 0 0 - 2 2 100.0 1 11 12 3 0 1 2 4 -
p76
aVKurt Rambis LAL 05/02/1986 LAL @ DAL L 17 2 0 1 0.0 0 0 - 2 2 100.0 1 3 4 1 0 0 0 2 -
p77
aVJames Worthy LAL 05/02/1986 LAL @ DAL L 42 20 10 15 66.7 0 0 - 0 0 - 2 3 5 2 0 1 1 5 -
p78
aVA.C. Green LAL 04/30/1986 LAL vs. DAL W 2 0 0 0 - 0 0 - 0 0 - 0 0 0 0 0 0 1 0 -
p79
aVMagic Johnson LAL 04/30/1986 LAL vs. DAL W 32 21 7 13 53.8 0 0 - 7 12 58.3 1 6 7 9 0 0 2 3 -
p80
aVByron Scott LAL 04/30/1986 LAL vs. DAL W 36 20 6 13 46.2 1 1 100.0 7 8 87.5 2 2 4 2 2 0 3 2 -
p81
aVPetur Gudmundsson LAL 04/30/1986 LAL vs. DAL W 13 0 0 0 - 0 0 - 0 0 - 0 2 2 1 0 1 1 3 -
p82
aVMike McGee LAL 04/30/1986 LAL vs. DAL W 3 0 0 2 0.0 0 1 0.0 0 0 - 0 0 0 0 0 0 0 1 -
p83
aVJames Worthy LAL 04/30/1986 LAL vs. DAL W 45 23 9 16 56.3 0 0 - 5 9 55.6 1 8 9 2 1 1 0 2 -
p84
aVMichael Cooper LAL 04/30/1986 LAL vs. DAL W 29 8 3 5 60.0 2 2 100.0 0 0 - 0 1 1 4 1 1 2 1 -
p85
aVKareem Abdul-Jabbar LAL 04/30/1986 LAL vs. DAL W 33 26 11 20 55.0 0 0 - 4 4 100.0 2 2 4 5 1 2 3 5 -
p86
aVKurt Rambis LAL 04/30/1986 LAL vs. DAL W 25 4 2 3 66.7 0 0 - 0 0 - 2 3 5 4 1 1 1 5 -
p87
aVMaurice Lucas LAL 04/30/1986 LAL vs. DAL W 22 15 6 13 46.2 0 0 - 3 5 60.0 6 5 11 2 1 2 0 3 -
p88
aVKurt Rambis LAL 04/27/1986 LAL vs. DAL W 17 5 2 2 100.0 0 0 - 1 1 100.0 0 5 5 0 0 1 0 4 -
p89
aVMitch Kupchak LAL 04/27/1986 LAL vs. DAL W 2 2 0 0 - 0 0 - 2 2 100.0 0 0 0 0 0 0 0 0 -
p90
aVPetur Gudmundsson LAL 04/27/1986 LAL vs. DAL W 6 2 1 2 50.0 0 0 - 0 0 - 1 1 2 0 0 1 1 0 -
p91
aVMichael Cooper LAL 04/27/1986 LAL vs. DAL W 35 12 4 6 66.7 2 2 100.0 2 2 100.0 1 2 3 9 1 0 3 2 -
p92
aVMagic Johnson LAL 04/27/1986 LAL vs. DAL W 31 16 6 10 60.0 0 0 - 4 4 100.0 0 7 7 14 2 0 2 4 -
p93
aVKareem Abdul-Jabbar LAL 04/27/1986 LAL vs. DAL W 40 28 12 20 60.0 0 0 - 4 5 80.0 2 4 6 2 3 1 3 5 -
p94
aVMaurice Lucas LAL 04/27/1986 LAL vs. DAL W 29 16 8 14 57.1 0 0 - 0 0 - 2 6 8 1 1 1 0 5 -
p95
aVByron Scott LAL 04/27/1986 LAL vs. DAL W 37 24 8 14 57.1 0 2 0.0 8 8 100.0 1 2 3 0 0 0 2 3 -
p96
aVA.C. Green LAL 04/27/1986 LAL vs. DAL W 4 0 0 0 - 0 0 - 0 0 - 0 0 0 0 0 0 0 3 -
p97
aVMike McGee LAL 04/27/1986 LAL vs. DAL W 3 2 1 2 50.0 0 1 0.0 0 0 - 0 0 0 0 0 0 1 0 -
p98
aVJames Worthy LAL 04/27/1986 LAL vs. DAL W 36 23 10 15 66.7 0 0 - 3 4 75.0 0 6 6 6 0 0 4 3 -
p99
aVA.C. Green LAL 04/23/1986 LAL @ SAN W 17 6 3 5 60.0 0 0 - 0 3 0.0 0 1 1 0 0 0 1 1 -
p100
aVLarry Spriggs LAL 04/23/1986 LAL @ SAN W 4 6 1 1 100.0 0 0 - 4 4 100.0 0 2 2 1 0 0 0 0 -
p101
aVMike McGee LAL 04/23/1986 LAL @ SAN W 4 6 3 5 60.0 0 0 - 0 2 0.0 1 0 1 0 0 0 1 1 -
p102
aVKareem Abdul-Jabbar LAL 04/23/1986 LAL @ SAN W 29 25 11 19 57.9 0 0 - 3 4 75.0 0 3 3 3 0 2 1 3 -
p103
aVJames Worthy LAL 04/23/1986 LAL @ SAN W 31 7 3 8 37.5 0 0 - 1 2 50.0 1 2 3 2 2 1 2 3 -
p104
aVMagic Johnson LAL 04/23/1986 LAL @ SAN W 32 14 4 6 66.7 0 0 - 6 8 75.0 4 6 10 17 2 0 2 4 -
p105
aVKurt Rambis LAL 04/23/1986 LAL @ SAN W 21 7 2 4 50.0 0 0 - 3 5 60.0 3 11 14 1 0 0 1 2 -
p106
aVMichael Cooper LAL 04/23/1986 LAL @ SAN W 36 8 4 9 44.4 0 2 0.0 0 0 - 3 2 5 4 2 0 3 3 -
p107
aVPetur Gudmundsson LAL 04/23/1986 LAL @ SAN W 19 8 3 5 60.0 0 0 - 2 4 50.0 0 4 4 1 0 1 3 1 -
p108
aVByron Scott LAL 04/23/1986 LAL @ SAN W 24 10 5 12 41.7 0 0 - 0 0 - 2 2 4 3 1 0 2 3 -
p109
aVMaurice Lucas LAL 04/23/1986 LAL @ SAN W 23 17 7 9 77.8 0 0 - 3 4 75.0 2 4 6 0 1 0 0 2 -
p110
aVMagic Johnson LAL 04/19/1986 LAL vs. SAN W 37 30 13 19 68.4 0 0 - 4 6 66.7 0 3 3 13 0 0 3 2 -
p111
aVJames Worthy LAL 04/19/1986 LAL vs. SAN W 33 24 12 21 57.1 0 0 - 0 0 - 2 0 2 3 3 0 0 2 -
p112
aVMaurice Lucas LAL 04/19/1986 LAL vs. SAN W 27 9 4 8 50.0 0 0 - 1 1 100.0 4 6 10 3 0 0 1 2 -
p113
aVByron Scott LAL 04/19/1986 LAL vs. SAN W 28 20 8 14 57.1 1 1 100.0 3 3 100.0 1 1 2 1 1 0 3 4 -
p114
aVKareem Abdul-Jabbar LAL 04/19/1986 LAL vs. SAN W 21 10 5 9 55.6 0 0 - 0 0 - 4 6 10 2 1 1 2 4 -
p115
aVA.C. Green LAL 04/19/1986 LAL vs. SAN W 14 2 1 2 50.0 0 0 - 0 0 - 0 1 1 0 0 1 1 2 -
p116
aVMike McGee LAL 04/19/1986 LAL vs. SAN W 6 2 1 3 33.3 0 1 0.0 0 2 0.0 1 1 2 1 0 0 0 1 -
p117
aVMichael Cooper LAL 04/19/1986 LAL vs. SAN W 26 9 4 9 44.4 1 1 100.0 0 0 - 0 2 2 6 1 0 1 1 -
p118
aVMitch Kupchak LAL 04/19/1986 LAL vs. SAN W 17 4 2 2 100.0 0 0 - 0 1 0.0 1 3 4 1 1 0 2 1 -
p119
aVLarry Spriggs LAL 04/19/1986 LAL vs. SAN W 4 5 1 1 100.0 0 0 - 3 3 100.0 1 2 3 1 0 0 0 0 -
p120
aVKurt Rambis LAL 04/19/1986 LAL vs. SAN W 17 0 0 1 0.0 0 0 - 0 0 - 0 5 5 1 0 1 3 2 -
p121
aVPetur Gudmundsson LAL 04/19/1986 LAL vs. SAN W 10 7 1 2 50.0 0 0 - 5 7 71.4 2 2 4 0 0 0 1 3 -
p122
aVKareem Abdul-Jabbar LAL 04/17/1986 LAL vs. SAN W 22 16 7 10 70.0 0 0 - 2 3 66.7 0 0 0 2 0 0 3 4 -
p123
aVJames Worthy LAL 04/17/1986 LAL vs. SAN W 29 18 7 7 100.0 0 0 - 4 4 100.0 3 1 4 7 2 1 2 3 -
p124
aVA.C. Green LAL 04/17/1986 LAL vs. SAN W 18 8 3 5 60.0 0 0 - 2 2 100.0 0 4 4 0 1 1 0 1 -
p125
aVMichael Cooper LAL 04/17/1986 LAL vs. SAN W 27 11 5 6 83.3 1 1 100.0 0 0 - 1 3 4 6 1 2 3 1 -
p126
aVByron Scott LAL 04/17/1986 LAL vs. SAN W 29 24 12 19 63.2 0 1 0.0 0 0 - 0 3 3 3 4 0 2 1 -
p127
aVLarry Spriggs LAL 04/17/1986 LAL vs. SAN W 5 9 3 4 75.0 0 0 - 3 3 100.0 0 2 2 0 1 0 0 0 -
p128
aVMagic Johnson LAL 04/17/1986 LAL vs. SAN W 33 13 6 9 66.7 0 1 0.0 1 2 50.0 0 3 3 18 1 0 9 1 -
p129
aVMike McGee LAL 04/17/1986 LAL vs. SAN W 8 6 3 6 50.0 0 0 - 0 0 - 1 1 2 0 0 0 0 0 -
p130
aVPetur Gudmundsson LAL 04/17/1986 LAL vs. SAN W 17 10 4 7 57.1 0 1 0.0 2 2 100.0 1 2 3 0 1 1 1 6 -
p131
aVMitch Kupchak LAL 04/17/1986 LAL vs. SAN W 9 6 2 5 40.0 0 0 - 2 2 100.0 3 4 7 1 1 0 1 0 -
p132
aVKurt Rambis LAL 04/17/1986 LAL vs. SAN W 21 2 0 2 0.0 0 0 - 2 2 100.0 2 6 8 0 1 3 0 1 -
p133
aVMaurice Lucas LAL 04/17/1986 LAL vs. SAN W 22 12 5 6 83.3 0 0 - 2 2 100.0 0 7 7 1 2 0 2 4 -
p134
a.