(lp0
VPLAYER TEAM DATE MATCHUP W/L MIN PTS FGM FGA FG% 3PM 3PA 3P% FTM FTA FT% OREB DREB REB AST STL BLK TOV PF +/-
p1
aVJay Vincent DAL 05/08/1986 DAL vs. LAL L 34 18 7 14 50.0 0 0 - 4 4 100.0 0 2 2 5 0 0 2 3 -
p2
aVBrad Davis DAL 05/08/1986 DAL vs. LAL L 23 10 3 6 50.0 2 3 66.7 2 2 100.0 1 2 3 1 0 0 1 4 -
p3
aVMark Aguirre DAL 05/08/1986 DAL vs. LAL L 30 28 12 25 48.0 0 0 - 4 7 57.1 4 5 9 5 0 0 2 2 -
p4
aVDetlef Schrempf DAL 05/08/1986 DAL vs. LAL L 11 3 1 5 20.0 0 0 - 1 1 100.0 2 0 2 0 0 0 2 0 -
p5
aVHarold Keeling DAL 05/08/1986 DAL vs. LAL L 1 0 0 0 - 0 0 - 0 0 - 0 0 0 0 0 0 0 0 -
p6
aVDerek Harper DAL 05/08/1986 DAL vs. LAL L 31 8 4 10 40.0 0 3 0.0 0 0 - 0 1 1 3 3 0 5 3 -
p7
aVBill Wennington DAL 05/08/1986 DAL vs. LAL L 3 0 0 1 0.0 0 0 - 0 0 - 1 0 1 0 0 0 0 1 -
p8
aVJames Donaldson DAL 05/08/1986 DAL vs. LAL L 44 11 4 4 100.0 0 0 - 3 3 100.0 2 16 18 1 1 0 2 2 -
p9
aVRolando Blackman DAL 05/08/1986 DAL vs. LAL L 41 23 9 19 47.4 0 1 0.0 5 6 83.3 1 1 2 8 2 0 2 2 -
p10
aVSam Perkins DAL 05/08/1986 DAL vs. LAL L 22 6 2 6 33.3 1 1 100.0 1 2 50.0 2 0 2 1 1 0 0 5 -
p11
aVSam Perkins DAL 05/06/1986 DAL @ LAL L 27 7 2 9 22.2 0 0 - 3 4 75.0 2 4 6 1 1 1 2 4 -
p12
aVBrad Davis DAL 05/06/1986 DAL @ LAL L 17 8 3 3 100.0 2 2 100.0 0 2 0.0 0 1 1 1 0 0 4 3 -
p13
aVJay Vincent DAL 05/06/1986 DAL @ LAL L 24 15 6 13 46.2 0 0 - 3 4 75.0 2 5 7 1 1 0 2 0 -
p14
aVMark Aguirre DAL 05/06/1986 DAL @ LAL L 39 27 12 25 48.0 0 3 0.0 3 6 50.0 2 5 7 4 2 0 1 4 -
p15
aVDale Ellis DAL 05/06/1986 DAL @ LAL L 1 0 0 0 - 0 0 - 0 0 - 0 0 0 0 0 0 0 0 -
p16
aVRolando Blackman DAL 05/06/1986 DAL @ LAL L 37 23 10 15 66.7 0 0 - 3 6 50.0 1 4 5 6 1 0 1 3 -
p17
aVDetlef Schrempf DAL 05/06/1986 DAL @ LAL L 12 6 2 4 50.0 0 0 - 2 4 50.0 0 2 2 2 0 0 1 1 -
p18
aVBill Wennington DAL 05/06/1986 DAL @ LAL L 2 0 0 0 - 0 0 - 0 0 - 0 0 0 0 0 0 0 1 -
p19
aVJames Donaldson DAL 05/06/1986 DAL @ LAL L 46 11 4 5 80.0 0 0 - 3 3 100.0 4 4 8 3 2 2 1 3 -
p20
aVDerek Harper DAL 05/06/1986 DAL @ LAL L 35 16 6 13 46.2 1 1 100.0 3 4 75.0 3 1 4 9 0 0 1 4 -
p21
aVDetlef Schrempf DAL 05/04/1986 DAL vs. LAL W 8 0 0 1 0.0 0 0 - 0 0 - 0 0 0 1 0 0 0 3 -
p22
aVJames Donaldson DAL 05/04/1986 DAL vs. LAL W 46 6 3 4 75.0 0 0 - 0 0 - 1 10 11 2 0 1 0 4 -
p23
aVJay Vincent DAL 05/04/1986 DAL vs. LAL W 9 2 0 3 0.0 0 0 - 2 2 100.0 1 1 2 1 0 0 3 2 -
p24
aVBill Wennington DAL 05/04/1986 DAL vs. LAL W 3 3 1 1 100.0 1 1 100.0 0 0 - 0 0 0 0 0 0 0 0 -
p25
aVBrad Davis DAL 05/04/1986 DAL vs. LAL W 20 2 1 3 33.3 0 0 - 0 0 - 0 2 2 3 1 0 2 1 -
p26
aVDerek Harper DAL 05/04/1986 DAL vs. LAL W 35 17 7 10 70.0 3 3 100.0 0 0 - 1 0 1 11 2 0 1 2 -
p27
aVMark Aguirre DAL 05/04/1986 DAL vs. LAL W 40 39 19 30 63.3 1 1 100.0 0 1 0.0 0 3 3 10 0 0 3 1 -
p28
aVRolando Blackman DAL 05/04/1986 DAL vs. LAL W 41 28 12 22 54.5 0 0 - 4 4 100.0 3 0 3 5 1 1 2 2 -
p29
aVSam Perkins DAL 05/04/1986 DAL vs. LAL W 38 23 9 13 69.2 0 0 - 5 7 71.4 1 5 6 3 0 2 2 3 -
p30
aVDale Ellis DAL 05/02/1986 DAL vs. LAL W 5 0 0 2 0.0 0 1 0.0 0 0 - 1 0 1 0 0 0 0 0 -
p31
aVMark Aguirre DAL 05/02/1986 DAL vs. LAL W 40 27 11 21 52.4 0 0 - 5 9 55.6 3 6 9 8 2 0 1 0 -
p32
aVDerek Harper DAL 05/02/1986 DAL vs. LAL W 35 24 10 14 71.4 2 2 100.0 2 2 100.0 1 1 2 5 2 0 2 4 -
p33
aVJames Donaldson DAL 05/02/1986 DAL vs. LAL W 41 11 5 7 71.4 0 0 - 1 2 50.0 4 10 14 0 0 2 0 2 -
p34
aVJay Vincent DAL 05/02/1986 DAL vs. LAL W 20 6 3 7 42.9 0 0 - 0 0 - 0 2 2 0 1 0 0 2 -
p35
aVSam Perkins DAL 05/02/1986 DAL vs. LAL W 37 15 3 11 27.3 0 0 - 9 10 90.0 3 6 9 2 1 1 0 2 -
p36
aVBill Wennington DAL 05/02/1986 DAL vs. LAL W 1 0 0 1 0.0 0 0 - 0 0 - 0 0 0 0 0 0 0 0 -
p37
aVBrad Davis DAL 05/02/1986 DAL vs. LAL W 14 7 2 3 66.7 0 0 - 3 4 75.0 0 0 0 3 0 0 2 2 -
p38
aVDetlef Schrempf DAL 05/02/1986 DAL vs. LAL W 8 2 0 0 - 0 0 - 2 2 100.0 0 1 1 0 0 0 2 1 -
p39
aVRolando Blackman DAL 05/02/1986 DAL vs. LAL W 39 18 6 21 28.6 0 0 - 6 7 85.7 4 3 7 1 0 0 1 3 -
p40
aVBill Wennington DAL 04/30/1986 DAL @ LAL L 6 2 0 0 - 0 0 - 2 2 100.0 1 1 2 0 0 0 0 1 -
p41
aVJames Donaldson DAL 04/30/1986 DAL @ LAL L 40 14 5 7 71.4 0 0 - 4 4 100.0 2 5 7 2 1 0 0 2 -
p42
aVDale Ellis DAL 04/30/1986 DAL @ LAL L 20 6 2 6 33.3 2 3 66.7 0 0 - 0 0 0 1 0 1 0 4 -
p43
aVDerek Harper DAL 04/30/1986 DAL @ LAL L 43 19 8 15 53.3 0 1 0.0 3 4 75.0 2 2 4 16 7 0 5 3 -
p44
aVBrad Davis DAL 04/30/1986 DAL @ LAL L 5 0 0 2 0.0 0 0 - 0 0 - 0 0 0 0 0 0 0 2 -
p45
aVJay Vincent DAL 04/30/1986 DAL @ LAL L 9 4 1 7 14.3 0 0 - 2 2 100.0 1 2 3 1 0 0 3 0 -
p46
aVRolando Blackman DAL 04/30/1986 DAL @ LAL L 34 22 11 17 64.7 0 0 - 0 1 0.0 0 0 0 4 1 0 3 2 -
p47
aVDetlef Schrempf DAL 04/30/1986 DAL @ LAL L 12 0 0 1 0.0 0 0 - 0 0 - 1 2 3 0 0 0 0 5 -
p48
aVMark Aguirre DAL 04/30/1986 DAL @ LAL L 33 28 13 24 54.2 1 1 100.0 1 4 25.0 1 11 12 7 1 0 3 6 -
p49
aVSam Perkins DAL 04/30/1986 DAL @ LAL L 38 18 8 13 61.5 0 1 0.0 2 4 50.0 1 6 7 5 0 0 2 4 -
p50
aVMark Aguirre DAL 04/27/1986 DAL @ LAL L 29 14 4 13 30.8 0 0 - 6 8 75.0 2 4 6 3 1 0 6 3 -
p51
aVJay Vincent DAL 04/27/1986 DAL @ LAL L 20 18 6 14 42.9 0 0 - 6 7 85.7 4 1 5 1 1 0 1 0 -
p52
aVUwe Blab DAL 04/27/1986 DAL @ LAL L 6 4 2 3 66.7 0 0 - 0 0 - 0 1 1 0 0 0 0 1 -
p53
aVDerek Harper DAL 04/27/1986 DAL @ LAL L 34 15 7 12 58.3 1 2 50.0 0 0 - 1 0 1 9 2 0 1 5 -
p54
aVRolando Blackman DAL 04/27/1986 DAL @ LAL L 27 11 5 14 35.7 0 0 - 1 1 100.0 2 0 2 2 2 0 0 3 -
p55
aVJames Donaldson DAL 04/27/1986 DAL @ LAL L 40 17 4 5 80.0 0 0 - 9 10 90.0 5 5 10 0 0 1 1 3 -
p56
aVDetlef Schrempf DAL 04/27/1986 DAL @ LAL L 18 9 4 6 66.7 0 1 0.0 1 4 25.0 0 1 1 4 1 0 0 2 -
p57
aVDale Ellis DAL 04/27/1986 DAL @ LAL L 17 16 5 7 71.4 3 3 100.0 3 3 100.0 1 2 3 1 2 0 2 1 -
p58
aVSam Perkins DAL 04/27/1986 DAL @ LAL L 32 8 4 17 23.5 0 3 0.0 0 0 - 4 5 9 3 1 2 0 2 -
p59
aVBrad Davis DAL 04/27/1986 DAL @ LAL L 14 2 1 3 33.3 0 1 0.0 0 0 - 0 2 2 4 0 0 1 1 -
p60
aVBill Wennington DAL 04/27/1986 DAL @ LAL L 3 2 1 3 33.3 0 0 - 0 0 - 2 0 2 0 0 0 0 1 -
p61
aVJames Donaldson DAL 04/25/1986 DAL @ UTH W 43 4 1 3 33.3 0 0 - 2 2 100.0 1 10 11 1 0 1 0 3 -
p62
aVDetlef Schrempf DAL 04/25/1986 DAL @ UTH W 6 0 0 0 - 0 0 - 0 0 - 1 0 1 0 0 0 2 2 -
p63
aVBrad Davis DAL 04/25/1986 DAL @ UTH W 22 26 8 8 100.0 5 5 100.0 5 7 71.4 0 3 3 3 2 0 3 3 -
p64
aVRolando Blackman DAL 04/25/1986 DAL @ UTH W 41 20 8 16 50.0 0 0 - 4 4 100.0 2 2 4 0 0 0 5 6 -
p65
aVMark Aguirre DAL 04/25/1986 DAL @ UTH W 40 28 14 24 58.3 0 0 - 0 0 - 3 4 7 8 0 0 2 3 -
p66
aVSam Perkins DAL 04/25/1986 DAL @ UTH W 41 29 13 22 59.1 0 0 - 3 4 75.0 5 7 12 5 3 1 1 4 -
p67
aVJay Vincent DAL 04/25/1986 DAL @ UTH W 18 4 2 7 28.6 0 0 - 0 2 0.0 2 4 6 0 1 1 3 3 -
p68
aVDerek Harper DAL 04/25/1986 DAL @ UTH W 29 6 3 7 42.9 0 0 - 0 2 0.0 0 1 1 5 1 0 0 1 -
p69
aVDale Ellis DAL 04/23/1986 DAL @ UTH L 9 3 1 3 33.3 1 2 50.0 0 0 - 1 1 2 0 0 0 0 0 -
p70
aVDetlef Schrempf DAL 04/23/1986 DAL @ UTH L 16 5 2 4 50.0 0 0 - 1 2 50.0 0 2 2 1 1 0 2 2 -
p71
aVJay Vincent DAL 04/23/1986 DAL @ UTH L 16 14 4 11 36.4 0 0 - 6 6 100.0 1 3 4 1 0 0 2 3 -
p72
aVBrad Davis DAL 04/23/1986 DAL @ UTH L 19 8 1 5 20.0 0 1 0.0 6 6 100.0 0 6 6 2 0 0 0 1 -
p73
aVSam Perkins DAL 04/23/1986 DAL @ UTH L 32 15 7 13 53.8 1 1 100.0 0 0 - 3 4 7 2 1 2 4 5 -
p74
aVRolando Blackman DAL 04/23/1986 DAL @ UTH L 35 16 5 13 38.5 0 0 - 6 8 75.0 0 3 3 2 0 0 3 2 -
p75
aVJames Donaldson DAL 04/23/1986 DAL @ UTH L 46 17 5 7 71.4 0 0 - 7 7 100.0 6 14 20 0 0 3 3 1 -
p76
aVMark Aguirre DAL 04/23/1986 DAL @ UTH L 31 10 5 16 31.3 0 1 0.0 0 2 0.0 2 5 7 3 1 0 1 3 -
p77
aVDerek Harper DAL 04/23/1986 DAL @ UTH L 36 10 4 11 36.4 0 1 0.0 2 2 100.0 1 0 1 6 1 0 2 4 -
p78
aVBrad Davis DAL 04/20/1986 DAL vs. UTH W 17 12 4 7 57.1 1 3 33.3 3 3 100.0 0 1 1 3 0 0 1 3 -
p79
aVMark Aguirre DAL 04/20/1986 DAL vs. UTH W 36 27 8 20 40.0 0 0 - 11 12 91.7 3 3 6 5 2 0 1 2 -
p80
aVJames Donaldson DAL 04/20/1986 DAL vs. UTH W 29 11 3 4 75.0 0 0 - 5 6 83.3 3 4 7 1 0 0 0 3 -
p81
aVJay Vincent DAL 04/20/1986 DAL vs. UTH W 21 10 4 11 36.4 0 0 - 2 2 100.0 2 0 2 2 0 0 0 4 -
p82
aVSam Perkins DAL 04/20/1986 DAL vs. UTH W 40 18 6 16 37.5 0 1 0.0 6 8 75.0 4 6 10 1 1 3 3 3 -
p83
aVDerek Harper DAL 04/20/1986 DAL vs. UTH W 35 5 2 6 33.3 1 1 100.0 0 0 - 1 0 1 5 2 0 3 1 -
p84
aVDetlef Schrempf DAL 04/20/1986 DAL vs. UTH W 19 6 3 5 60.0 0 0 - 0 0 - 2 6 8 3 0 0 1 5 -
p85
aVRolando Blackman DAL 04/20/1986 DAL vs. UTH W 36 22 7 12 58.3 0 0 - 8 10 80.0 1 6 7 1 0 0 1 3 -
p86
aVDale Ellis DAL 04/20/1986 DAL vs. UTH W 7 2 0 1 0.0 0 0 - 2 2 100.0 0 1 1 0 0 0 1 0 -
p87
aVJames Donaldson DAL 04/18/1986 DAL vs. UTH W 38 7 2 2 100.0 0 0 - 3 3 100.0 2 9 11 0 2 2 3 3 -
p88
aVMark Aguirre DAL 04/18/1986 DAL vs. UTH W 27 19 7 16 43.8 0 0 - 5 6 83.3 1 4 5 1 0 0 3 4 -
p89
aVJay Vincent DAL 04/18/1986 DAL vs. UTH W 27 15 5 12 41.7 0 0 - 5 5 100.0 2 4 6 3 0 0 1 2 -
p90
aVDetlef Schrempf DAL 04/18/1986 DAL vs. UTH W 11 6 1 2 50.0 0 0 - 4 4 100.0 1 2 3 3 0 1 0 3 -
p91
aVDale Ellis DAL 04/18/1986 DAL vs. UTH W 8 3 1 3 33.3 1 3 33.3 0 0 - 0 0 0 0 0 1 1 1 -
p92
aVRolando Blackman DAL 04/18/1986 DAL vs. UTH W 40 25 10 18 55.6 0 0 - 5 6 83.3 1 1 2 3 1 0 2 0 -
p93
aVBrad Davis DAL 04/18/1986 DAL vs. UTH W 14 2 1 4 25.0 0 0 - 0 0 - 0 1 1 3 0 0 1 2 -
p94
aVSam Perkins DAL 04/18/1986 DAL vs. UTH W 40 10 3 13 23.1 0 1 0.0 4 4 100.0 5 10 15 1 0 2 2 0 -
p95
aVDerek Harper DAL 04/18/1986 DAL vs. UTH W 35 14 6 9 66.7 0 0 - 2 2 100.0 3 0 3 7 3 0 3 0 -
p96
a.