(lp0
VPLAYER TEAM DATE MATCHUP W/L MIN PTS FGM FGA FG% 3PM 3PA 3P% FTM FTA FT% OREB DREB REB AST STL BLK TOV PF +/-
p1
aVLarry Smith GOS 05/12/1987 GOS @ LAL L 41 16 8 12 66.7 0 0 - 0 0 - 12 11 23 3 2 3 2 4 -
p2
aVPerry Moss GOS 05/12/1987 GOS @ LAL L 11 5 1 4 25.0 0 0 - 3 3 100.0 1 0 1 1 1 0 1 1 -
p3
aVJerome Whitehead GOS 05/12/1987 GOS @ LAL L 9 0 0 3 0.0 0 0 - 0 0 - 0 1 1 1 1 0 0 3 -
p4
aVBen McDonald GOS 05/12/1987 GOS @ LAL L 8 0 0 1 0.0 0 0 - 0 0 - 1 2 3 1 1 0 0 2 -
p5
aVChris Mullin GOS 05/12/1987 GOS @ LAL L 25 11 5 12 41.7 1 1 100.0 0 0 - 0 1 1 3 1 0 1 2 -
p6
aVSleepy Floyd GOS 05/12/1987 GOS @ LAL L 39 18 7 17 41.2 0 3 0.0 4 4 100.0 1 3 4 11 3 1 6 3 -
p7
aVPurvis Short GOS 05/12/1987 GOS @ LAL L 34 20 9 20 45.0 0 0 - 2 3 66.7 5 2 7 3 2 1 2 5 -
p8
aVTerry Teagle GOS 05/12/1987 GOS @ LAL L 21 16 8 18 44.4 0 0 - 0 0 - 1 1 2 0 0 0 1 5 -
p9
aVRod Higgins GOS 05/12/1987 GOS @ LAL L 5 0 0 1 0.0 0 0 - 0 0 - 0 0 0 0 0 0 0 0 -
p10
aVChris Washburn GOS 05/12/1987 GOS @ LAL L 3 4 1 1 100.0 0 0 - 2 2 100.0 0 0 0 1 0 0 0 0 -
p11
aVGreg Ballard GOS 05/12/1987 GOS @ LAL L 16 6 3 7 42.9 0 2 0.0 0 0 - 2 0 2 1 0 0 1 1 -
p12
aVJoe Barry Carroll GOS 05/12/1987 GOS @ LAL L 28 10 4 16 25.0 0 0 - 2 2 100.0 3 3 6 3 2 2 1 3 -
p13
aVJoe Barry Carroll GOS 05/10/1987 GOS vs. LAL W 33 23 10 18 55.6 0 0 - 3 5 60.0 2 1 3 3 0 1 2 5 -
p14
aVRod Higgins GOS 05/10/1987 GOS vs. LAL W 5 2 0 2 0.0 0 0 - 2 2 100.0 1 0 1 0 0 0 0 1 -
p15
aVChris Mullin GOS 05/10/1987 GOS vs. LAL W 22 6 3 6 50.0 0 0 - 0 0 - 0 0 0 3 2 0 1 3 -
p16
aVPerry Moss GOS 05/10/1987 GOS vs. LAL W 4 3 1 1 100.0 1 1 100.0 0 0 - 0 0 0 0 0 0 0 0 -
p17
aVTerry Teagle GOS 05/10/1987 GOS vs. LAL W 27 9 3 12 25.0 0 0 - 3 4 75.0 2 1 3 3 1 0 2 4 -
p18
aVSleepy Floyd GOS 05/10/1987 GOS vs. LAL W 44 51 18 26 69.2 2 3 66.7 13 14 92.9 1 2 3 10 4 0 2 2 -
p19
aVPurvis Short GOS 05/10/1987 GOS vs. LAL W 27 14 4 12 33.3 0 1 0.0 6 6 100.0 1 2 3 1 1 0 0 3 -
p20
aVGreg Ballard GOS 05/10/1987 GOS vs. LAL W 26 11 5 7 71.4 1 1 100.0 0 0 - 2 4 6 4 3 0 1 4 -
p21
aVJerome Whitehead GOS 05/10/1987 GOS vs. LAL W 15 6 3 5 60.0 0 0 - 0 0 - 1 0 1 0 0 1 0 6 -
p22
aVLarry Smith GOS 05/10/1987 GOS vs. LAL W 37 4 1 5 20.0 0 0 - 2 4 50.0 2 14 16 0 3 0 1 4 -
p23
aVPurvis Short GOS 05/09/1987 GOS vs. LAL L 31 10 3 9 33.3 0 0 - 4 6 66.7 3 2 5 2 1 0 3 4 -
p24
aVGreg Ballard GOS 05/09/1987 GOS vs. LAL L 7 2 1 2 50.0 0 0 - 0 0 - 0 0 0 0 0 0 0 1 -
p25
aVJerome Whitehead GOS 05/09/1987 GOS vs. LAL L 11 5 2 2 100.0 0 0 - 1 4 25.0 1 2 3 0 0 0 0 1 -
p26
aVSleepy Floyd GOS 05/09/1987 GOS vs. LAL L 41 14 5 12 41.7 0 3 0.0 4 4 100.0 1 0 1 12 1 0 2 5 -
p27
aVChris Washburn GOS 05/09/1987 GOS vs. LAL L 3 2 0 0 - 0 0 - 2 2 100.0 0 0 0 0 0 0 1 0 -
p28
aVRod Higgins GOS 05/09/1987 GOS vs. LAL L 14 5 2 7 28.6 1 1 100.0 0 0 - 1 1 2 2 1 2 0 1 -
p29
aVTerry Teagle GOS 05/09/1987 GOS vs. LAL L 21 12 5 8 62.5 0 0 - 2 2 100.0 1 0 1 2 2 0 1 4 -
p30
aVChris Mullin GOS 05/09/1987 GOS vs. LAL L 32 20 8 17 47.1 1 2 50.0 3 4 75.0 1 0 1 4 1 0 1 3 -
p31
aVPerry Moss GOS 05/09/1987 GOS vs. LAL L 1 1 0 0 - 0 0 - 1 2 50.0 0 0 0 0 0 0 0 0 -
p32
aVJoe Barry Carroll GOS 05/09/1987 GOS vs. LAL L 31 23 9 17 52.9 0 0 - 5 5 100.0 1 6 7 1 1 2 2 4 -
p33
aVBen McDonald GOS 05/09/1987 GOS vs. LAL L 12 0 0 2 0.0 0 0 - 0 0 - 0 0 0 0 0 0 0 3 -
p34
aVLarry Smith GOS 05/09/1987 GOS vs. LAL L 36 14 6 13 46.2 0 0 - 2 4 50.0 9 6 15 1 0 1 1 3 -
p35
aVChris Washburn GOS 05/07/1987 GOS @ LAL L 2 2 1 1 100.0 0 0 - 0 0 - 0 0 0 0 0 0 0 1 -
p36
aVJerome Whitehead GOS 05/07/1987 GOS @ LAL L 9 2 1 3 33.3 0 0 - 0 0 - 0 2 2 0 1 0 1 4 -
p37
aVBen McDonald GOS 05/07/1987 GOS @ LAL L 6 0 0 2 0.0 0 0 - 0 0 - 1 0 1 4 1 0 0 1 -
p38
aVRod Higgins GOS 05/07/1987 GOS @ LAL L 26 4 2 6 33.3 0 0 - 0 0 - 0 4 4 3 1 0 0 1 -
p39
aVTerry Teagle GOS 05/07/1987 GOS @ LAL L 26 15 6 14 42.9 0 1 0.0 3 4 75.0 2 0 2 0 0 0 1 4 -
p40
aVJoe Barry Carroll GOS 05/07/1987 GOS @ LAL L 34 22 8 19 42.1 0 0 - 6 6 100.0 1 3 4 0 4 1 6 4 -
p41
aVChris Mullin GOS 05/07/1987 GOS @ LAL L 25 12 6 8 75.0 0 0 - 0 0 - 0 1 1 1 1 0 3 5 -
p42
aVLarry Smith GOS 05/07/1987 GOS @ LAL L 37 18 8 15 53.3 0 0 - 2 2 100.0 9 4 13 3 3 0 1 2 -
p43
aVSleepy Floyd GOS 05/07/1987 GOS @ LAL L 43 11 3 11 27.3 1 2 50.0 4 4 100.0 2 3 5 12 2 0 3 3 -
p44
aVPurvis Short GOS 05/07/1987 GOS @ LAL L 17 10 5 10 50.0 0 0 - 0 0 - 0 1 1 4 1 0 3 4 -
p45
aVGreg Ballard GOS 05/07/1987 GOS @ LAL L 15 5 2 3 66.7 1 1 100.0 0 0 - 1 1 2 2 2 0 0 2 -
p46
aVSleepy Floyd GOS 05/05/1987 GOS @ LAL L 34 19 7 13 53.8 3 4 75.0 2 3 66.7 0 2 2 7 0 0 3 0 -
p47
aVTerry Teagle GOS 05/05/1987 GOS @ LAL L 29 18 8 15 53.3 0 0 - 2 4 50.0 1 0 1 4 2 0 2 3 -
p48
aVJerome Whitehead GOS 05/05/1987 GOS @ LAL L 5 1 0 0 - 0 0 - 1 2 50.0 0 0 0 1 0 0 0 0 -
p49
aVRod Higgins GOS 05/05/1987 GOS @ LAL L 27 10 5 12 41.7 0 0 - 0 0 - 1 4 5 3 2 1 0 3 -
p50
aVBen McDonald GOS 05/05/1987 GOS @ LAL L 14 2 1 4 25.0 0 2 0.0 0 0 - 0 1 1 4 0 0 0 1 -
p51
aVLarry Smith GOS 05/05/1987 GOS @ LAL L 30 17 7 10 70.0 0 0 - 3 5 60.0 4 7 11 3 0 1 1 3 -
p52
aVPurvis Short GOS 05/05/1987 GOS @ LAL L 14 6 3 5 60.0 0 0 - 0 0 - 1 1 2 2 1 0 1 4 -
p53
aVChris Washburn GOS 05/05/1987 GOS @ LAL L 8 2 1 3 33.3 0 0 - 0 0 - 0 0 0 1 0 0 3 0 -
p54
aVGreg Ballard GOS 05/05/1987 GOS @ LAL L 15 6 3 4 75.0 0 1 0.0 0 0 - 1 3 4 5 0 0 0 0 -
p55
aVChris Mullin GOS 05/05/1987 GOS @ LAL L 25 11 5 10 50.0 0 0 - 1 2 50.0 0 1 1 3 2 0 2 3 -
p56
aVPerry Moss GOS 05/05/1987 GOS @ LAL L 6 2 1 2 50.0 0 0 - 0 0 - 0 2 2 2 1 0 0 0 -
p57
aVJoe Barry Carroll GOS 05/05/1987 GOS @ LAL L 33 22 9 14 64.3 0 0 - 4 4 100.0 1 3 4 4 1 2 1 3 -
p58
aVLarry Smith GOS 05/03/1987 GOS @ UTH W 26 12 4 7 57.1 0 0 - 4 4 100.0 8 6 14 1 0 0 2 5 -
p59
aVPerry Moss GOS 05/03/1987 GOS @ UTH W 4 2 1 1 100.0 0 0 - 0 0 - 1 1 2 1 0 0 1 2 -
p60
aVJerome Whitehead GOS 05/03/1987 GOS @ UTH W 11 3 1 2 50.0 0 0 - 1 2 50.0 0 0 0 0 0 1 0 1 -
p61
aVTerry Teagle GOS 05/03/1987 GOS @ UTH W 10 7 1 4 25.0 0 0 - 5 6 83.3 0 1 1 1 0 1 0 0 -
p62
aVJoe Barry Carroll GOS 05/03/1987 GOS @ UTH W 37 24 9 17 52.9 0 0 - 6 8 75.0 2 6 8 2 0 6 1 6 -
p63
aVChris Mullin GOS 05/03/1987 GOS @ UTH W 38 15 7 12 58.3 1 1 100.0 0 0 - 0 2 2 2 0 1 0 3 -
p64
aVPurvis Short GOS 05/03/1987 GOS @ UTH W 27 14 4 11 36.4 0 1 0.0 6 6 100.0 0 2 2 3 0 0 1 3 -
p65
aVGreg Ballard GOS 05/03/1987 GOS @ UTH W 25 18 7 10 70.0 2 3 66.7 2 2 100.0 5 6 11 2 0 0 2 5 -
p66
aVSleepy Floyd GOS 05/03/1987 GOS @ UTH W 44 21 7 18 38.9 2 4 50.0 5 5 100.0 0 1 1 14 1 0 6 1 -
p67
aVRod Higgins GOS 05/03/1987 GOS @ UTH W 18 2 1 2 50.0 0 0 - 0 1 0.0 1 2 3 0 1 1 0 3 -
p68
aVTerry Teagle GOS 05/01/1987 GOS vs. UTH W 19 3 1 6 16.7 0 0 - 1 2 50.0 2 0 2 0 0 0 1 0 -
p69
aVChris Mullin GOS 05/01/1987 GOS vs. UTH W 29 18 8 13 61.5 0 0 - 2 2 100.0 0 0 0 1 0 1 2 4 -
p70
aVPerry Moss GOS 05/01/1987 GOS vs. UTH W 4 2 1 1 100.0 0 0 - 0 0 - 0 0 0 0 0 0 0 0 -
p71
aVRod Higgins GOS 05/01/1987 GOS vs. UTH W 11 4 2 2 100.0 0 0 - 0 0 - 0 1 1 0 1 1 1 3 -
p72
aVJoe Barry Carroll GOS 05/01/1987 GOS vs. UTH W 40 13 6 11 54.5 0 0 - 1 3 33.3 3 3 6 1 2 1 4 5 -
p73
aVSleepy Floyd GOS 05/01/1987 GOS vs. UTH W 44 22 8 14 57.1 1 3 33.3 5 5 100.0 1 5 6 11 3 0 3 1 -
p74
aVPurvis Short GOS 05/01/1987 GOS vs. UTH W 32 32 13 19 68.4 0 0 - 6 7 85.7 1 3 4 3 2 0 6 4 -
p75
aVJerome Whitehead GOS 05/01/1987 GOS vs. UTH W 8 1 0 4 0.0 0 0 - 1 2 50.0 0 1 1 0 0 0 0 1 -
p76
aVLarry Smith GOS 05/01/1987 GOS vs. UTH W 37 3 0 2 0.0 0 0 - 3 4 75.0 4 4 8 1 2 0 1 5 -
p77
aVGreg Ballard GOS 05/01/1987 GOS vs. UTH W 16 0 0 4 0.0 0 0 - 0 0 - 1 0 1 1 0 0 0 0 -
p78
aVGreg Ballard GOS 04/29/1987 GOS vs. UTH W 25 3 1 3 33.3 0 0 - 1 2 50.0 2 1 3 3 2 0 2 1 -
p79
aVSleepy Floyd GOS 04/29/1987 GOS vs. UTH W 38 27 11 15 73.3 1 2 50.0 4 4 100.0 0 1 1 8 1 0 2 1 -
p80
aVPerry Moss GOS 04/29/1987 GOS vs. UTH W 10 8 3 3 100.0 0 0 - 2 2 100.0 0 0 0 1 2 0 1 2 -
p81
aVTerry Teagle GOS 04/29/1987 GOS vs. UTH W 29 30 13 20 65.0 0 0 - 4 5 80.0 2 2 4 1 1 0 3 1 -
p82
aVLarry Smith GOS 04/29/1987 GOS vs. UTH W 29 10 5 10 50.0 0 0 - 0 0 - 6 11 17 1 2 1 1 4 -
p83
aVChris Mullin GOS 04/29/1987 GOS vs. UTH W 19 5 2 5 40.0 0 0 - 1 2 50.0 0 3 3 2 0 0 2 4 -
p84
aVJerome Whitehead GOS 04/29/1987 GOS vs. UTH W 14 2 1 5 20.0 0 0 - 0 0 - 2 1 3 1 0 0 0 2 -
p85
aVJoe Barry Carroll GOS 04/29/1987 GOS vs. UTH W 34 12 5 16 31.3 0 1 0.0 2 2 100.0 1 10 11 4 0 5 6 3 -
p86
aVPurvis Short GOS 04/29/1987 GOS vs. UTH W 21 10 5 12 41.7 0 0 - 0 0 - 1 6 7 3 2 1 1 3 -
p87
aVRod Higgins GOS 04/29/1987 GOS vs. UTH W 21 3 1 4 25.0 0 0 - 1 2 50.0 0 0 0 0 0 0 0 0 -
p88
aVLarry Smith GOS 04/25/1987 GOS @ UTH L 30 4 2 2 100.0 0 0 - 0 0 - 4 8 12 4 0 0 1 5 -
p89
aVJoe Barry Carroll GOS 04/25/1987 GOS @ UTH L 25 22 9 17 52.9 0 0 - 4 6 66.7 0 7 7 0 1 4 5 6 -
p90
aVTerry Teagle GOS 04/25/1987 GOS @ UTH L 26 19 6 11 54.5 0 0 - 7 8 87.5 1 1 2 1 0 0 1 3 -
p91
aVSleepy Floyd GOS 04/25/1987 GOS @ UTH L 44 14 4 14 28.6 1 2 50.0 5 7 71.4 0 2 2 9 2 0 5 3 -
p92
aVRod Higgins GOS 04/25/1987 GOS @ UTH L 27 11 4 5 80.0 0 0 - 3 4 75.0 1 1 2 2 4 1 1 4 -
p93
aVPurvis Short GOS 04/25/1987 GOS @ UTH L 21 17 5 11 45.5 0 0 - 7 7 100.0 0 1 1 2 2 0 1 1 -
p94
aVGreg Ballard GOS 04/25/1987 GOS @ UTH L 18 4 2 3 66.7 0 0 - 0 0 - 2 3 5 1 0 0 1 1 -
p95
aVBen McDonald GOS 04/25/1987 GOS @ UTH L 5 0 0 2 0.0 0 0 - 0 0 - 0 1 1 0 0 0 0 1 -
p96
aVChris Washburn GOS 04/25/1987 GOS @ UTH L 13 1 0 2 0.0 0 0 - 1 2 50.0 0 1 1 0 0 0 0 1 -
p97
aVJerome Whitehead GOS 04/25/1987 GOS @ UTH L 9 2 1 1 100.0 0 0 - 0 0 - 0 0 0 0 0 0 0 1 -
p98
aVChris Mullin GOS 04/25/1987 GOS @ UTH L 22 6 2 8 25.0 0 0 - 2 2 100.0 1 1 2 2 2 0 3 1 -
p99
aVSleepy Floyd GOS 04/23/1987 GOS @ UTH L 43 17 7 12 58.3 2 2 100.0 1 1 100.0 3 2 5 8 1 1 3 5 -
p100
aVJoe Barry Carroll GOS 04/23/1987 GOS @ UTH L 39 18 5 18 27.8 0 0 - 8 10 80.0 2 7 9 1 3 1 3 3 -
p101
aVPurvis Short GOS 04/23/1987 GOS @ UTH L 29 13 6 14 42.9 0 0 - 1 1 100.0 0 1 1 4 0 0 3 3 -
p102
aVLarry Smith GOS 04/23/1987 GOS @ UTH L 26 5 2 5 40.0 0 0 - 1 1 100.0 3 5 8 0 0 0 3 4 -
p103
aVChris Mullin GOS 04/23/1987 GOS @ UTH L 25 9 3 7 42.9 0 0 - 3 4 75.0 0 4 4 2 0 0 1 3 -
p104
aVRod Higgins GOS 04/23/1987 GOS @ UTH L 23 2 1 5 20.0 0 0 - 0 0 - 0 3 3 2 1 0 0 4 -
p105
aVTerry Teagle GOS 04/23/1987 GOS @ UTH L 25 15 6 16 37.5 0 1 0.0 3 3 100.0 1 1 2 1 2 0 2 3 -
p106
aVPerry Moss GOS 04/23/1987 GOS @ UTH L 5 2 0 2 0.0 0 0 - 2 2 100.0 0 0 0 0 2 0 0 0 -
p107
aVJerome Whitehead GOS 04/23/1987 GOS @ UTH L 9 0 0 2 0.0 0 0 - 0 0 - 1 2 3 0 0 0 0 3 -
p108
aVGreg Ballard GOS 04/23/1987 GOS @ UTH L 16 4 2 5 40.0 0 2 0.0 0 0 - 2 4 6 0 1 0 2 1 -
p109
a.