(lp0
VPLAYER TEAM DATE MATCHUP W/L MIN PTS FGM FGA FG% 3PM 3PA 3P% FTM FTA FT% OREB DREB REB AST STL BLK TOV PF +/-
p1
aVBrad Sellers CHI 04/28/1987 CHI vs. BOS L 13 4 2 7 28.6 0 0 - 0 0 - 1 1 2 1 0 0 0 2 -
p2
aVElston Turner CHI 04/28/1987 CHI vs. BOS L 12 6 3 3 100.0 0 0 - 0 0 - 1 0 1 0 2 0 0 2 -
p3
aVSedale Threatt CHI 04/28/1987 CHI vs. BOS L 17 6 2 5 40.0 0 0 - 2 2 100.0 0 1 1 6 1 0 1 3 -
p4
aVGranville Waiters CHI 04/28/1987 CHI vs. BOS L 2 0 0 0 - 0 0 - 0 0 - 0 1 1 0 0 1 0 0 -
p5
aVGene Banks CHI 04/28/1987 CHI vs. BOS L 36 12 5 9 55.6 0 0 - 2 5 40.0 0 2 2 0 0 0 0 6 -
p6
aVPete Myers CHI 04/28/1987 CHI vs. BOS L 1 0 0 1 0.0 0 0 - 0 0 - 0 0 0 0 0 0 0 0 -
p7
aVMichael Jordan CHI 04/28/1987 CHI vs. BOS L 39 30 9 30 30.0 0 1 0.0 12 14 85.7 6 5 11 7 2 1 2 4 -
p8
aVDave Corzine CHI 04/28/1987 CHI vs. BOS L 43 13 4 11 36.4 0 0 - 5 7 71.4 3 6 9 3 1 3 2 2 -
p9
aVMike Brown CHI 04/28/1987 CHI vs. BOS L 3 0 0 1 0.0 0 0 - 0 0 - 0 0 0 0 1 0 1 1 -
p10
aVJohn Paxson CHI 04/28/1987 CHI vs. BOS L 31 9 4 8 50.0 1 3 33.3 0 0 - 0 0 0 3 1 0 3 4 -
p11
aVCharles Oakley CHI 04/28/1987 CHI vs. BOS L 43 14 5 13 38.5 1 2 50.0 3 4 75.0 8 11 19 4 3 1 1 5 -
p12
aVElston Turner CHI 04/26/1987 CHI @ BOS L 11 2 1 1 100.0 0 0 - 0 0 - 0 1 1 1 0 0 0 1 -
p13
aVDave Corzine CHI 04/26/1987 CHI @ BOS L 46 12 5 10 50.0 0 0 - 2 2 100.0 3 7 10 2 0 0 5 2 -
p14
aVBrad Sellers CHI 04/26/1987 CHI @ BOS L 32 6 3 6 50.0 0 0 - 0 0 - 0 3 3 1 0 0 0 5 -
p15
aVJohn Paxson CHI 04/26/1987 CHI @ BOS L 29 7 3 7 42.9 1 3 33.3 0 0 - 0 2 2 2 1 0 2 3 -
p16
aVCharles Oakley CHI 04/26/1987 CHI @ BOS L 45 25 7 20 35.0 1 1 100.0 10 12 83.3 6 9 15 0 0 0 4 4 -
p17
aVMichael Jordan CHI 04/26/1987 CHI @ BOS L 45 42 14 29 48.3 2 3 66.7 12 14 85.7 1 3 4 4 0 4 4 3 -
p18
aVSedale Threatt CHI 04/26/1987 CHI @ BOS L 26 2 1 4 25.0 0 0 - 0 0 - 2 0 2 4 0 0 0 4 -
p19
aVGene Banks CHI 04/26/1987 CHI @ BOS L 6 0 0 0 - 0 0 - 0 0 - 0 1 1 0 0 0 0 3 -
p20
aVJohn Paxson CHI 04/23/1987 CHI @ BOS L 27 10 4 7 57.1 1 1 100.0 1 1 100.0 0 1 1 6 0 0 0 2 -
p21
aVGranville Waiters CHI 04/23/1987 CHI @ BOS L 6 0 0 0 - 0 0 - 0 0 - 0 0 0 0 0 0 0 1 -
p22
aVSedale Threatt CHI 04/23/1987 CHI @ BOS L 27 12 5 8 62.5 0 0 - 2 2 100.0 0 2 2 6 0 0 1 4 -
p23
aVDave Corzine CHI 04/23/1987 CHI @ BOS L 33 2 1 1 100.0 0 0 - 0 0 - 1 1 2 2 0 0 0 2 -
p24
aVElston Turner CHI 04/23/1987 CHI @ BOS L 2 0 0 1 0.0 0 0 - 0 0 - 0 0 0 0 0 0 0 0 -
p25
aVMichael Jordan CHI 04/23/1987 CHI @ BOS L 44 35 12 25 48.0 0 1 0.0 11 11 100.0 0 6 6 7 4 2 2 4 -
p26
aVBrad Sellers CHI 04/23/1987 CHI @ BOS L 23 5 1 6 16.7 0 0 - 3 3 100.0 1 1 2 1 0 1 1 1 -
p27
aVGene Banks CHI 04/23/1987 CHI @ BOS L 37 19 8 13 61.5 0 0 - 3 3 100.0 3 2 5 2 0 0 2 4 -
p28
aVCharles Oakley CHI 04/23/1987 CHI @ BOS L 41 21 7 17 41.2 0 1 0.0 7 8 87.5 3 9 12 2 1 0 3 4 -
p29
a.