(lp0
VPLAYER TEAM DATE MATCHUP W/L MIN PTS FGM FGA FG% 3PM 3PA 3P% FTM FTA FT% OREB DREB REB AST STL BLK TOV PF +/-
p1
aVJerome Kersey POR 04/30/1987 POR @ HOU L 20 14 5 11 45.5 0 0 - 4 4 100.0 2 4 6 2 2 0 1 4 -
p2
aVKiki Vandeweghe POR 04/30/1987 POR @ HOU L 42 27 11 19 57.9 1 1 100.0 4 6 66.7 1 2 3 1 0 0 4 2 -
p3
aVTerry Porter POR 04/30/1987 POR @ HOU L 33 23 8 11 72.7 1 1 100.0 6 8 75.0 0 4 4 6 1 0 3 2 -
p4
aVFernando Martin POR 04/30/1987 POR @ HOU L 1 0 0 1 0.0 0 0 - 0 0 - 0 0 0 0 0 0 0 0 -
p5
aVKevin Duckworth POR 04/30/1987 POR @ HOU L 17 0 0 2 0.0 0 0 - 0 2 0.0 1 1 2 1 1 1 1 4 -
p6
aVJim Paxson POR 04/30/1987 POR @ HOU L 23 4 2 9 22.2 0 0 - 0 0 - 0 2 2 5 1 0 0 3 -
p7
aVMichael Holton POR 04/30/1987 POR @ HOU L 8 2 1 1 100.0 0 0 - 0 0 - 0 1 1 0 0 0 0 1 -
p8
aVClyde Drexler POR 04/30/1987 POR @ HOU L 32 13 6 15 40.0 1 2 50.0 0 0 - 0 1 1 4 0 0 3 5 -
p9
aVCaldwell Jones POR 04/30/1987 POR @ HOU L 30 2 1 1 100.0 0 0 - 0 0 - 2 7 9 2 0 0 1 3 -
p10
aVSteve Johnson POR 04/30/1987 POR @ HOU L 34 16 4 13 30.8 0 0 - 8 9 88.9 3 9 12 1 0 0 2 3 -
p11
aVCaldwell Jones POR 04/28/1987 POR @ HOU L 33 3 0 3 0.0 0 0 - 3 4 75.0 4 6 10 2 0 2 2 4 -
p12
aVSteve Johnson POR 04/28/1987 POR @ HOU L 39 23 8 18 44.4 0 0 - 7 16 43.8 5 5 10 1 1 0 2 4 -
p13
aVKevin Duckworth POR 04/28/1987 POR @ HOU L 10 7 3 3 100.0 0 0 - 1 1 100.0 1 2 3 0 1 0 0 5 -
p14
aVClyde Drexler POR 04/28/1987 POR @ HOU L 43 26 10 21 47.6 0 1 0.0 6 8 75.0 5 4 9 2 2 0 1 5 -
p15
aVKiki Vandeweghe POR 04/28/1987 POR @ HOU L 44 20 5 14 35.7 0 1 0.0 10 11 90.9 1 2 3 6 0 1 3 3 -
p16
aVJim Paxson POR 04/28/1987 POR @ HOU L 24 4 2 7 28.6 0 2 0.0 0 0 - 1 2 3 1 1 0 1 2 -
p17
aVTerry Porter POR 04/28/1987 POR @ HOU L 37 21 7 14 50.0 1 2 50.0 6 6 100.0 0 3 3 8 1 0 3 5 -
p18
aVJerome Kersey POR 04/28/1987 POR @ HOU L 10 4 2 4 50.0 0 0 - 0 0 - 0 1 1 0 1 0 2 4 -
p19
aVTerry Porter POR 04/26/1987 POR vs. HOU W 43 18 6 15 40.0 0 1 0.0 6 6 100.0 1 7 8 15 5 1 4 2 -
p20
aVSteve Johnson POR 04/26/1987 POR vs. HOU W 23 15 7 12 58.3 0 0 - 1 4 25.0 4 4 8 0 1 1 2 5 -
p21
aVJerome Kersey POR 04/26/1987 POR vs. HOU W 18 4 2 5 40.0 0 0 - 0 0 - 0 5 5 1 1 0 2 4 -
p22
aVJim Paxson POR 04/26/1987 POR vs. HOU W 26 9 3 6 50.0 0 0 - 3 3 100.0 2 0 2 5 3 0 1 1 -
p23
aVClyde Drexler POR 04/26/1987 POR vs. HOU W 40 32 12 21 57.1 0 0 - 8 11 72.7 3 4 7 4 4 2 0 6 -
p24
aVKevin Duckworth POR 04/26/1987 POR vs. HOU W 19 5 2 5 40.0 0 0 - 1 2 50.0 1 1 2 0 1 0 2 4 -
p25
aVMichael Holton POR 04/26/1987 POR vs. HOU W 1 0 0 1 0.0 0 0 - 0 0 - 0 0 0 0 0 0 0 0 -
p26
aVCaldwell Jones POR 04/26/1987 POR vs. HOU W 26 6 2 3 66.7 0 0 - 2 2 100.0 0 2 2 1 0 2 0 5 -
p27
aVKiki Vandeweghe POR 04/26/1987 POR vs. HOU W 44 22 10 19 52.6 0 1 0.0 2 2 100.0 1 3 4 2 1 0 1 1 -
p28
aVCaldwell Jones POR 04/24/1987 POR vs. HOU L 40 4 2 5 40.0 0 0 - 0 0 - 3 7 10 1 0 2 2 3 -
p29
aVJerome Kersey POR 04/24/1987 POR vs. HOU L 12 2 1 5 20.0 0 0 - 0 0 - 4 3 7 0 1 1 1 1 -
p30
aVKiki Vandeweghe POR 04/24/1987 POR vs. HOU L 44 30 12 19 63.2 0 1 0.0 6 7 85.7 2 1 3 2 0 0 3 4 -
p31
aVKevin Duckworth POR 04/24/1987 POR vs. HOU L 7 2 1 2 50.0 0 0 - 0 0 - 0 1 1 0 1 0 3 1 -
p32
aVSteve Johnson POR 04/24/1987 POR vs. HOU L 41 29 9 18 50.0 0 0 - 11 14 78.6 5 5 10 0 0 0 3 3 -
p33
aVClyde Drexler POR 04/24/1987 POR vs. HOU L 38 25 8 22 36.4 0 1 0.0 9 10 90.0 8 5 13 5 1 1 2 0 -
p34
aVTerry Porter POR 04/24/1987 POR vs. HOU L 37 6 3 10 30.0 0 1 0.0 0 0 - 0 4 4 11 3 1 3 5 -
p35
aVJim Paxson POR 04/24/1987 POR vs. HOU L 21 17 6 10 60.0 0 0 - 5 6 83.3 1 1 2 2 0 0 2 2 -
p36
a.