(lp0
VPLAYER TEAM DATE MATCHUP W/L MIN PTS FGM FGA FG% 3PM 3PA 3P% FTM FTA FT% OREB DREB REB AST STL BLK TOV PF +/-
p1
aVDudley Bradley MIL 05/17/1987 MIL @ BOS L 1 0 0 0 - 0 0 - 0 0 - 0 0 0 0 0 0 0 0 -
p2
aVJohn Lucas MIL 05/17/1987 MIL @ BOS L 34 20 8 18 44.4 2 7 28.6 2 2 100.0 0 1 1 6 0 0 0 2 -
p3
aVTerry Cummings MIL 05/17/1987 MIL @ BOS L 36 17 6 12 50.0 0 0 - 5 6 83.3 1 4 5 2 2 0 1 5 -
p4
aVRicky Pierce MIL 05/17/1987 MIL @ BOS L 31 18 6 16 37.5 0 0 - 6 6 100.0 1 1 2 2 1 0 0 5 -
p5
aVRandy Breuer MIL 05/17/1987 MIL @ BOS L 4 2 1 1 100.0 0 0 - 0 1 0.0 0 0 0 0 0 0 0 3 -
p6
aVPaul Mokeski MIL 05/17/1987 MIL @ BOS L 3 0 0 0 - 0 0 - 0 0 - 2 1 3 0 0 0 0 2 -
p7
aVJack Sikma MIL 05/17/1987 MIL @ BOS L 44 17 6 16 37.5 0 1 0.0 5 5 100.0 2 8 10 1 3 2 1 3 -
p8
aVSidney Moncrief MIL 05/17/1987 MIL @ BOS L 39 11 2 10 20.0 1 1 100.0 6 6 100.0 0 4 4 3 1 0 2 3 -
p9
aVCraig Hodges MIL 05/17/1987 MIL @ BOS L 8 0 0 2 0.0 0 0 - 0 0 - 0 0 0 2 0 0 0 0 -
p10
aVPaul Pressey MIL 05/17/1987 MIL @ BOS L 40 28 12 17 70.6 0 2 0.0 4 4 100.0 1 1 2 8 4 2 2 6 -
p11
aVJerry Reynolds MIL 05/15/1987 MIL vs. BOS W 1 0 0 0 - 0 0 - 0 0 - 0 0 0 0 0 0 0 0 -
p12
aVRicky Pierce MIL 05/15/1987 MIL vs. BOS W 22 15 6 9 66.7 0 0 - 3 4 75.0 0 1 1 0 2 0 1 5 -
p13
aVSidney Moncrief MIL 05/15/1987 MIL vs. BOS W 39 34 11 20 55.0 1 3 33.3 11 13 84.6 2 4 6 4 3 0 2 4 -
p14
aVPaul Mokeski MIL 05/15/1987 MIL vs. BOS W 1 0 0 0 - 0 0 - 0 0 - 0 1 1 0 0 0 0 0 -
p15
aVRandy Breuer MIL 05/15/1987 MIL vs. BOS W 4 2 1 1 100.0 0 0 - 0 0 - 0 0 0 0 0 0 0 1 -
p16
aVJack Sikma MIL 05/15/1987 MIL vs. BOS W 41 17 5 12 41.7 0 0 - 7 7 100.0 2 7 9 4 0 3 0 3 -
p17
aVDudley Bradley MIL 05/15/1987 MIL vs. BOS W 3 0 0 0 - 0 0 - 0 0 - 0 0 0 0 0 0 0 0 -
p18
aVPaul Pressey MIL 05/15/1987 MIL vs. BOS W 46 16 8 17 47.1 0 0 - 0 0 - 2 5 7 11 2 0 3 3 -
p19
aVJohn Lucas MIL 05/15/1987 MIL vs. BOS W 23 12 4 12 33.3 0 2 0.0 4 6 66.7 0 2 2 3 3 0 1 2 -
p20
aVTerry Cummings MIL 05/15/1987 MIL vs. BOS W 35 16 6 13 46.2 0 0 - 4 8 50.0 1 10 11 2 0 1 1 6 -
p21
aVCraig Hodges MIL 05/15/1987 MIL vs. BOS W 25 9 3 5 60.0 0 2 0.0 3 3 100.0 1 2 3 4 2 1 0 1 -
p22
aVPaul Pressey MIL 05/13/1987 MIL @ BOS W 30 14 7 8 87.5 0 0 - 0 0 - 1 1 2 10 2 1 3 6 -
p23
aVJack Sikma MIL 05/13/1987 MIL @ BOS W 35 21 8 11 72.7 0 0 - 5 5 100.0 1 8 9 3 2 1 1 5 -
p24
aVPaul Mokeski MIL 05/13/1987 MIL @ BOS W 12 5 2 2 100.0 0 0 - 1 2 50.0 0 3 3 1 0 0 0 2 -
p25
aVRandy Breuer MIL 05/13/1987 MIL @ BOS W 19 4 1 3 33.3 0 0 - 2 3 66.7 1 4 5 0 1 1 0 2 -
p26
aVRicky Pierce MIL 05/13/1987 MIL @ BOS W 20 7 3 12 25.0 0 0 - 1 2 50.0 2 2 4 1 0 0 2 3 -
p27
aVDudley Bradley MIL 05/13/1987 MIL @ BOS W 5 0 0 1 0.0 0 1 0.0 0 0 - 0 0 0 0 0 0 0 0 -
p28
aVCraig Hodges MIL 05/13/1987 MIL @ BOS W 26 8 4 8 50.0 0 1 0.0 0 0 - 1 1 2 2 1 0 1 2 -
p29
aVJohn Lucas MIL 05/13/1987 MIL @ BOS W 24 14 2 7 28.6 0 1 0.0 10 12 83.3 0 2 2 4 1 0 1 1 -
p30
aVTerry Cummings MIL 05/13/1987 MIL @ BOS W 31 23 7 21 33.3 0 0 - 9 12 75.0 5 4 9 2 1 1 1 5 -
p31
aVSidney Moncrief MIL 05/13/1987 MIL @ BOS W 38 33 13 18 72.2 1 1 100.0 6 6 100.0 1 4 5 4 0 1 0 2 -
p32
aVRandy Breuer MIL 05/10/1987 MIL vs. BOS L 6 0 0 2 0.0 0 0 - 0 0 - 0 0 0 1 0 0 1 2 -
p33
aVPaul Mokeski MIL 05/10/1987 MIL vs. BOS L 12 6 1 2 50.0 0 0 - 4 4 100.0 1 1 2 0 1 1 0 6 -
p34
aVTerry Cummings MIL 05/10/1987 MIL vs. BOS L 45 31 12 21 57.1 0 0 - 7 8 87.5 2 9 11 3 0 0 2 4 -
p35
aVPaul Pressey MIL 05/10/1987 MIL vs. BOS L 54 20 8 13 61.5 0 0 - 4 8 50.0 5 0 5 11 1 0 6 3 -
p36
aVSidney Moncrief MIL 05/10/1987 MIL vs. BOS L 48 22 8 20 40.0 0 0 - 6 7 85.7 4 2 6 6 1 1 4 5 -
p37
aVCraig Hodges MIL 05/10/1987 MIL vs. BOS L 14 13 5 6 83.3 2 3 66.7 1 1 100.0 0 3 3 0 0 1 0 0 -
p38
aVRicky Pierce MIL 05/10/1987 MIL vs. BOS L 33 9 2 11 18.2 0 0 - 5 5 100.0 0 5 5 1 0 3 2 5 -
p39
aVJack Sikma MIL 05/10/1987 MIL vs. BOS L 37 18 6 10 60.0 0 0 - 6 6 100.0 3 3 6 2 1 0 1 6 -
p40
aVDudley Bradley MIL 05/10/1987 MIL vs. BOS L 2 0 0 0 - 0 0 - 0 0 - 0 0 0 0 0 0 0 0 -
p41
aVJohn Lucas MIL 05/10/1987 MIL vs. BOS L 39 18 7 10 70.0 2 2 100.0 2 4 50.0 0 3 3 6 1 0 0 2 -
p42
aVSidney Moncrief MIL 05/08/1987 MIL vs. BOS W 37 20 7 15 46.7 0 0 - 6 8 75.0 1 2 3 3 1 1 0 5 -
p43
aVJack Sikma MIL 05/08/1987 MIL vs. BOS W 37 14 6 16 37.5 0 0 - 2 2 100.0 4 6 10 3 1 0 1 6 -
p44
aVRicky Pierce MIL 05/08/1987 MIL vs. BOS W 30 29 10 14 71.4 0 0 - 9 10 90.0 2 1 3 3 0 0 1 1 -
p45
aVTerry Cummings MIL 05/08/1987 MIL vs. BOS W 43 17 7 16 43.8 0 0 - 3 5 60.0 2 10 12 1 1 1 0 4 -
p46
aVPaul Pressey MIL 05/08/1987 MIL vs. BOS W 45 11 3 14 21.4 0 2 0.0 5 8 62.5 3 3 6 7 4 0 4 4 -
p47
aVJohn Lucas MIL 05/08/1987 MIL vs. BOS W 31 30 12 18 66.7 4 4 100.0 2 2 100.0 0 0 0 3 0 0 0 0 -
p48
aVRandy Breuer MIL 05/08/1987 MIL vs. BOS W 11 3 1 4 25.0 0 0 - 1 2 50.0 0 2 2 2 0 2 1 6 -
p49
aVPaul Mokeski MIL 05/08/1987 MIL vs. BOS W 15 0 0 2 0.0 0 0 - 0 2 0.0 1 2 3 0 1 0 0 2 -
p50
aVCraig Hodges MIL 05/08/1987 MIL vs. BOS W 14 2 1 2 50.0 0 0 - 0 0 - 0 0 0 2 1 0 0 1 -
p51
aVDudley Bradley MIL 05/08/1987 MIL vs. BOS W 2 0 0 0 - 0 0 - 0 0 - 0 0 0 0 0 0 0 1 -
p52
aVJohn Lucas MIL 05/06/1987 MIL @ BOS L 27 16 6 14 42.9 3 6 50.0 1 2 50.0 2 2 4 3 0 0 2 4 -
p53
aVTerry Cummings MIL 05/06/1987 MIL @ BOS L 36 28 12 19 63.2 0 0 - 4 4 100.0 0 4 4 5 1 1 0 5 -
p54
aVPaul Pressey MIL 05/06/1987 MIL @ BOS L 23 9 3 6 50.0 1 1 100.0 2 3 66.7 2 3 5 6 1 0 2 5 -
p55
aVJerry Reynolds MIL 05/06/1987 MIL @ BOS L 1 0 0 0 - 0 0 - 0 0 - 0 0 0 0 0 0 0 0 -
p56
aVPaul Mokeski MIL 05/06/1987 MIL @ BOS L 14 5 1 2 50.0 0 0 - 3 3 100.0 2 2 4 0 0 0 0 2 -
p57
aVDudley Bradley MIL 05/06/1987 MIL @ BOS L 2 0 0 1 0.0 0 1 0.0 0 0 - 0 0 0 0 0 0 0 1 -
p58
aVCraig Hodges MIL 05/06/1987 MIL @ BOS L 18 12 5 10 50.0 0 2 0.0 2 2 100.0 0 2 2 4 1 0 1 3 -
p59
aVRandy Breuer MIL 05/06/1987 MIL @ BOS L 13 0 0 1 0.0 0 0 - 0 0 - 1 1 2 1 0 1 0 5 -
p60
aVJack Sikma MIL 05/06/1987 MIL @ BOS L 41 19 6 15 40.0 0 0 - 7 7 100.0 3 11 14 3 1 0 4 4 -
p61
aVRicky Pierce MIL 05/06/1987 MIL @ BOS L 23 20 6 9 66.7 0 0 - 8 8 100.0 1 1 2 0 0 0 1 3 -
p62
aVSidney Moncrief MIL 05/06/1987 MIL @ BOS L 42 15 5 13 38.5 0 2 0.0 5 6 83.3 1 3 4 4 2 0 4 3 -
p63
aVSidney Moncrief MIL 05/05/1987 MIL @ BOS L 27 11 3 11 27.3 0 1 0.0 5 7 71.4 1 2 3 1 0 0 4 3 -
p64
aVJerry Reynolds MIL 05/05/1987 MIL @ BOS L 1 0 0 0 - 0 0 - 0 0 - 1 0 1 2 3 0 0 0 -
p65
aVTerry Cummings MIL 05/05/1987 MIL @ BOS L 35 28 11 22 50.0 0 0 - 6 8 75.0 5 7 12 0 2 1 3 3 -
p66
aVRandy Breuer MIL 05/05/1987 MIL @ BOS L 16 4 1 1 100.0 0 0 - 2 2 100.0 0 3 3 0 0 1 0 2 -
p67
aVCraig Hodges MIL 05/05/1987 MIL @ BOS L 27 4 2 7 28.6 0 2 0.0 0 1 0.0 1 1 2 2 2 0 0 2 -
p68
aVDudley Bradley MIL 05/05/1987 MIL @ BOS L 8 4 2 4 50.0 0 2 0.0 0 0 - 0 0 0 1 0 0 1 3 -
p69
aVJerome Henderson MIL 05/05/1987 MIL @ BOS L 1 0 0 0 - 0 0 - 0 0 - 0 0 0 0 0 0 0 1 -
p70
aVRicky Pierce MIL 05/05/1987 MIL @ BOS L 28 18 8 15 53.3 0 0 - 2 2 100.0 1 0 1 1 3 0 2 3 -
p71
aVPaul Mokeski MIL 05/05/1987 MIL @ BOS L 5 2 1 1 100.0 0 0 - 0 0 - 0 0 0 0 0 1 0 0 -
p72
aVJohn Lucas MIL 05/05/1987 MIL @ BOS L 28 8 4 10 40.0 0 2 0.0 0 0 - 1 2 3 5 1 0 5 3 -
p73
aVPaul Pressey MIL 05/05/1987 MIL @ BOS L 31 2 0 12 0.0 0 0 - 2 2 100.0 4 2 6 8 2 1 1 4 -
p74
aVJack Sikma MIL 05/05/1987 MIL @ BOS L 33 17 7 13 53.8 0 0 - 3 3 100.0 2 7 9 2 1 0 4 4 -
p75
aVDudley Bradley MIL 05/03/1987 MIL vs. PHL W 7 0 0 1 0.0 0 1 0.0 0 0 - 0 0 0 1 1 0 0 2 -
p76
aVCraig Hodges MIL 05/03/1987 MIL vs. PHL W 15 14 6 8 75.0 2 2 100.0 0 0 - 1 1 2 1 0 0 0 0 -
p77
aVJack Sikma MIL 05/03/1987 MIL vs. PHL W 36 18 8 18 44.4 0 0 - 2 2 100.0 3 18 21 2 1 1 2 5 -
p78
aVTerry Cummings MIL 05/03/1987 MIL vs. PHL W 35 10 4 13 30.8 0 0 - 2 4 50.0 2 7 9 4 1 3 1 5 -
p79
aVSidney Moncrief MIL 05/03/1987 MIL vs. PHL W 35 14 4 10 40.0 0 1 0.0 6 7 85.7 1 1 2 5 1 2 1 4 -
p80
aVRandy Breuer MIL 05/03/1987 MIL vs. PHL W 12 2 1 2 50.0 0 0 - 0 0 - 0 3 3 0 0 1 0 1 -
p81
aVPaul Pressey MIL 05/03/1987 MIL vs. PHL W 43 15 7 11 63.6 0 1 0.0 1 2 50.0 2 2 4 9 0 0 5 3 -
p82
aVPaul Mokeski MIL 05/03/1987 MIL vs. PHL W 7 2 0 1 0.0 0 0 - 2 2 100.0 1 1 2 0 1 0 1 0 -
p83
aVJohn Lucas MIL 05/03/1987 MIL vs. PHL W 28 17 6 12 50.0 0 2 0.0 5 6 83.3 0 1 1 2 1 1 1 1 -
p84
aVRicky Pierce MIL 05/03/1987 MIL vs. PHL W 22 10 5 10 50.0 0 0 - 0 1 0.0 0 1 1 3 0 1 3 2 -
p85
aVRandy Breuer MIL 05/01/1987 MIL @ PHL L 16 8 3 4 75.0 0 0 - 2 2 100.0 2 2 4 0 2 1 0 3 -
p86
aVSidney Moncrief MIL 05/01/1987 MIL @ PHL L 30 18 7 13 53.8 0 2 0.0 4 6 66.7 2 2 4 1 1 0 1 4 -
p87
aVRicky Pierce MIL 05/01/1987 MIL @ PHL L 25 14 5 8 62.5 0 0 - 4 8 50.0 1 1 2 1 0 0 3 4 -
p88
aVPaul Pressey MIL 05/01/1987 MIL @ PHL L 27 6 2 5 40.0 0 0 - 2 2 100.0 2 3 5 6 3 1 1 6 -
p89
aVJack Sikma MIL 05/01/1987 MIL @ PHL L 33 12 6 14 42.9 0 0 - 0 0 - 3 10 13 1 1 1 0 4 -
p90
aVPaul Mokeski MIL 05/01/1987 MIL @ PHL L 5 0 0 4 0.0 0 0 - 0 0 - 2 1 3 1 0 0 0 2 -
p91
aVCraig Hodges MIL 05/01/1987 MIL @ PHL L 23 9 4 9 44.4 0 2 0.0 1 1 100.0 4 1 5 0 0 0 1 4 -
p92
aVTerry Cummings MIL 05/01/1987 MIL @ PHL L 37 29 12 18 66.7 0 0 - 5 6 83.3 2 2 4 1 1 0 1 4 -
p93
aVDudley Bradley MIL 05/01/1987 MIL @ PHL L 9 4 2 4 50.0 0 1 0.0 0 0 - 0 0 0 0 2 0 0 2 -
p94
aVJohn Lucas MIL 05/01/1987 MIL @ PHL L 33 15 5 15 33.3 0 2 0.0 5 6 83.3 0 0 0 10 3 0 2 0 -
p95
aVJerry Reynolds MIL 05/01/1987 MIL @ PHL L 2 3 1 3 33.3 0 1 0.0 1 2 50.0 0 0 0 0 0 0 0 0 -
p96
aVTerry Cummings MIL 04/29/1987 MIL @ PHL W 37 26 10 17 58.8 0 0 - 6 10 60.0 2 3 5 4 1 2 2 4 -
p97
aVJohn Lucas MIL 04/29/1987 MIL @ PHL W 32 16 7 14 50.0 0 3 0.0 2 2 100.0 0 3 3 9 3 0 2 2 -
p98
aVPaul Pressey MIL 04/29/1987 MIL @ PHL W 38 21 9 18 50.0 0 1 0.0 3 4 75.0 2 7 9 8 1 1 2 3 -
p99
aVSidney Moncrief MIL 04/29/1987 MIL @ PHL W 33 20 5 11 45.5 0 1 0.0 10 11 90.9 3 0 3 2 2 0 2 4 -
p100
aVDudley Bradley MIL 04/29/1987 MIL @ PHL W 2 0 0 0 - 0 0 - 0 0 - 0 0 0 0 0 0 0 0 -
p101
aVRicky Pierce MIL 04/29/1987 MIL @ PHL W 26 16 7 12 58.3 0 0 - 2 3 66.7 1 0 1 2 3 0 1 2 -
p102
aVCraig Hodges MIL 04/29/1987 MIL @ PHL W 16 7 3 5 60.0 1 1 100.0 0 0 - 1 0 1 1 0 0 0 0 -
p103
aVJack Sikma MIL 04/29/1987 MIL @ PHL W 30 13 6 9 66.7 0 0 - 1 2 50.0 3 9 12 1 1 0 3 5 -
p104
aVPaul Mokeski MIL 04/29/1987 MIL @ PHL W 9 0 0 2 0.0 0 0 - 0 0 - 3 2 5 0 0 0 4 1 -
p105
aVRandy Breuer MIL 04/29/1987 MIL @ PHL W 17 2 1 2 50.0 0 0 - 0 0 - 1 1 2 0 4 0 1 3 -
p106
aVSidney Moncrief MIL 04/26/1987 MIL vs. PHL L 31 20 7 12 58.3 0 0 - 6 10 60.0 2 5 7 2 1 0 2 3 -
p107
aVPaul Pressey MIL 04/26/1987 MIL vs. PHL L 46 15 5 10 50.0 0 0 - 5 7 71.4 1 3 4 9 5 1 2 5 -
p108
aVJohn Lucas MIL 04/26/1987 MIL vs. PHL L 36 8 3 10 30.0 0 2 0.0 2 2 100.0 0 4 4 7 1 0 4 1 -
p109
aVCraig Hodges MIL 04/26/1987 MIL vs. PHL L 23 10 4 7 57.1 0 1 0.0 2 2 100.0 0 0 0 1 1 0 0 2 -
p110
aVJack Sikma MIL 04/26/1987 MIL vs. PHL L 24 11 3 7 42.9 0 0 - 5 5 100.0 2 4 6 1 2 0 1 6 -
p111
aVRicky Pierce MIL 04/26/1987 MIL vs. PHL L 29 24 5 11 45.5 0 0 - 14 17 82.4 1 2 3 0 0 1 3 5 -
p112
aVDudley Bradley MIL 04/26/1987 MIL vs. PHL L 4 0 0 0 - 0 0 - 0 0 - 0 0 0 0 0 0 0 0 -
p113
aVTerry Cummings MIL 04/26/1987 MIL vs. PHL L 35 21 9 21 42.9 0 0 - 3 4 75.0 5 3 8 2 0 2 3 3 -
p114
aVRandy Breuer MIL 04/26/1987 MIL vs. PHL L 24 9 4 7 57.1 0 0 - 1 2 50.0 3 6 9 0 0 1 0 3 -
p115
aVPaul Mokeski MIL 04/26/1987 MIL vs. PHL L 13 4 2 4 50.0 0 1 0.0 0 0 - 0 3 3 0 0 0 0 2 -
p116
aVDudley Bradley MIL 04/24/1987 MIL vs. PHL W 1 1 0 0 - 0 0 - 1 2 50.0 0 0 0 0 0 0 0 0 -
p117
aVJohn Lucas MIL 04/24/1987 MIL vs. PHL W 27 13 4 10 40.0 1 3 33.3 4 4 100.0 1 1 2 4 0 0 2 1 -
p118
aVPaul Mokeski MIL 04/24/1987 MIL vs. PHL W 11 4 1 2 50.0 0 0 - 2 2 100.0 0 0 0 0 0 0 0 3 -
p119
aVPaul Pressey MIL 04/24/1987 MIL vs. PHL W 42 14 4 15 26.7 0 1 0.0 6 6 100.0 3 4 7 10 3 1 4 3 -
p120
aVRicky Pierce MIL 04/24/1987 MIL vs. PHL W 28 11 5 15 33.3 0 0 - 1 1 100.0 2 1 3 2 1 0 0 1 -
p121
aVRandy Breuer MIL 04/24/1987 MIL vs. PHL W 14 4 2 5 40.0 0 0 - 0 0 - 1 0 1 0 0 1 1 1 -
p122
aVCraig Hodges MIL 04/24/1987 MIL vs. PHL W 17 7 3 8 37.5 0 1 0.0 1 1 100.0 2 0 2 1 1 0 0 1 -
p123
aVJack Sikma MIL 04/24/1987 MIL vs. PHL W 35 17 6 9 66.7 0 0 - 5 5 100.0 5 6 11 0 1 2 0 5 -
p124
aVTerry Cummings MIL 04/24/1987 MIL vs. PHL W 38 21 9 22 40.9 0 0 - 3 8 37.5 2 3 5 2 2 1 0 3 -
p125
aVSidney Moncrief MIL 04/24/1987 MIL vs. PHL W 27 15 6 12 50.0 1 2 50.0 2 3 66.7 3 4 7 1 0 1 2 3 -
p126
a.