(lp0
VPLAYER TEAM DATE MATCHUP W/L MIN PTS FGM FGA FG% 3PM 3PA 3P% FTM FTA FT% OREB DREB REB AST STL BLK TOV PF +/-
p1
aVMo Martin DEN 04/29/1987 DEN vs. LAL L 23 18 6 18 33.3 0 1 0.0 6 11 54.5 2 1 3 2 0 0 2 5 -
p2
aVLafayette Lever DEN 04/29/1987 DEN vs. LAL L 32 13 6 14 42.9 1 2 50.0 0 0 - 2 3 5 4 4 0 1 3 -
p3
aVAlex English DEN 04/29/1987 DEN vs. LAL L 29 25 11 21 52.4 0 0 - 3 3 100.0 3 2 5 6 0 0 3 2 -
p4
aVBill Hanzlik DEN 04/29/1987 DEN vs. LAL L 26 8 2 7 28.6 0 0 - 4 6 66.7 0 1 1 3 1 0 0 5 -
p5
aVOtis Smith DEN 04/29/1987 DEN vs. LAL L 8 2 1 4 25.0 0 0 - 0 0 - 1 1 2 1 0 1 2 1 -
p6
aVBlair Rasmussen DEN 04/29/1987 DEN vs. LAL L 20 9 4 11 36.4 0 0 - 1 2 50.0 4 3 7 0 0 0 1 5 -
p7
aVWayne Cooper DEN 04/29/1987 DEN vs. LAL L 17 4 1 6 16.7 0 0 - 2 2 100.0 5 7 12 0 0 1 0 3 -
p8
aVDarrell Walker DEN 04/29/1987 DEN vs. LAL L 26 4 2 12 16.7 0 0 - 0 2 0.0 1 3 4 2 0 0 0 0 -
p9
aVT.R. Dunn DEN 04/29/1987 DEN vs. LAL L 9 0 0 0 - 0 0 - 0 0 - 1 1 2 0 1 1 0 0 -
p10
aVMike Evans DEN 04/29/1987 DEN vs. LAL L 14 3 1 5 20.0 1 4 25.0 0 0 - 0 0 0 2 1 0 2 2 -
p11
aVMark Alarie DEN 04/29/1987 DEN vs. LAL L 12 6 2 4 50.0 0 0 - 2 2 100.0 0 1 1 0 1 0 1 3 -
p12
aVDan Schayes DEN 04/29/1987 DEN vs. LAL L 24 11 4 7 57.1 0 0 - 3 3 100.0 2 5 7 0 0 0 1 2 -
p13
aVBlair Rasmussen DEN 04/25/1987 DEN @ LAL L 34 14 5 11 45.5 0 0 - 4 4 100.0 0 3 3 3 1 1 2 5 -
p14
aVT.R. Dunn DEN 04/25/1987 DEN @ LAL L 4 0 0 0 - 0 0 - 0 0 - 0 1 1 0 0 0 0 1 -
p15
aVMike Evans DEN 04/25/1987 DEN @ LAL L 13 13 5 7 71.4 1 2 50.0 2 2 100.0 0 1 1 3 1 0 1 1 -
p16
aVMo Martin DEN 04/25/1987 DEN @ LAL L 13 11 5 8 62.5 0 0 - 1 1 100.0 2 2 4 3 0 0 0 5 -
p17
aVDan Schayes DEN 04/25/1987 DEN @ LAL L 26 6 3 4 75.0 0 0 - 0 0 - 2 1 3 1 1 1 2 5 -
p18
aVOtis Smith DEN 04/25/1987 DEN @ LAL L 2 2 0 0 - 0 0 - 2 4 50.0 0 0 0 1 0 1 0 0 -
p19
aVLafayette Lever DEN 04/25/1987 DEN @ LAL L 38 26 10 22 45.5 1 3 33.3 5 5 100.0 2 8 10 9 3 0 1 2 -
p20
aVAlex English DEN 04/25/1987 DEN @ LAL L 23 17 7 10 70.0 0 0 - 3 4 75.0 2 1 3 1 0 0 3 6 -
p21
aVDarrell Walker DEN 04/25/1987 DEN @ LAL L 32 20 8 17 47.1 0 0 - 4 5 80.0 2 4 6 2 2 0 3 4 -
p22
aVWayne Cooper DEN 04/25/1987 DEN @ LAL L 12 0 0 1 0.0 0 0 - 0 0 - 0 1 1 0 0 0 1 4 -
p23
aVBill Hanzlik DEN 04/25/1987 DEN @ LAL L 37 12 4 11 36.4 0 1 0.0 4 7 57.1 0 3 3 3 2 0 3 1 -
p24
aVMark Alarie DEN 04/25/1987 DEN @ LAL L 6 6 3 4 75.0 0 0 - 0 0 - 0 1 1 0 0 0 1 3 -
p25
aVBill Hanzlik DEN 04/23/1987 DEN @ LAL L 13 5 2 7 28.6 0 1 0.0 1 2 50.0 0 2 2 1 1 0 0 0 -
p26
aVAlex English DEN 04/23/1987 DEN @ LAL L 24 14 7 18 38.9 0 0 - 0 0 - 5 1 6 3 0 0 2 1 -
p27
aVMark Alarie DEN 04/23/1987 DEN @ LAL L 23 8 4 7 57.1 0 0 - 0 0 - 0 3 3 1 1 2 2 3 -
p28
aVWayne Cooper DEN 04/23/1987 DEN @ LAL L 12 8 4 5 80.0 0 0 - 0 0 - 1 3 4 2 0 0 0 2 -
p29
aVDan Schayes DEN 04/23/1987 DEN @ LAL L 25 13 5 6 83.3 0 0 - 3 6 50.0 2 5 7 1 0 1 0 3 -
p30
aVMike Evans DEN 04/23/1987 DEN @ LAL L 30 2 1 7 14.3 0 1 0.0 0 0 - 2 4 6 3 1 0 0 3 -
p31
aVLafayette Lever DEN 04/23/1987 DEN @ LAL L 29 7 3 14 21.4 0 3 0.0 1 4 25.0 1 2 3 9 0 0 0 2 -
p32
aVDarrell Walker DEN 04/23/1987 DEN @ LAL L 10 2 1 5 20.0 0 0 - 0 0 - 0 0 0 1 0 0 1 0 -
p33
aVBlair Rasmussen DEN 04/23/1987 DEN @ LAL L 38 26 13 23 56.5 0 0 - 0 4 0.0 4 9 13 4 1 1 2 2 -
p34
aVT.R. Dunn DEN 04/23/1987 DEN @ LAL L 9 2 1 4 25.0 0 0 - 0 0 - 0 0 0 2 0 0 1 2 -
p35
aVOtis Smith DEN 04/23/1987 DEN @ LAL L 9 6 1 2 50.0 0 0 - 4 5 80.0 0 3 3 2 0 0 2 0 -
p36
aVMo Martin DEN 04/23/1987 DEN @ LAL L 18 2 1 3 33.3 0 0 - 0 0 - 0 2 2 5 0 1 3 2 -
p37
a.