(lp0
VPLAYER TEAM DATE MATCHUP W/L MIN PTS FGM FGA FG% 3PM 3PA 3P% FTM FTA FT% OREB DREB REB AST STL BLK TOV PF +/-
p1
aVJohn Battle ATL 05/13/1987 ATL vs. DET L 23 16 5 12 41.7 1 2 50.0 5 5 100.0 1 5 6 4 1 0 4 4 -
p2
aVDoc Rivers ATL 05/13/1987 ATL vs. DET L 31 9 3 7 42.9 0 0 - 3 5 60.0 0 5 5 15 0 0 5 5 -
p3
aVTree Rollins ATL 05/13/1987 ATL vs. DET L 32 2 0 4 0.0 0 0 - 2 4 50.0 4 5 9 0 0 3 0 0 -
p4
aVCliff Levingston ATL 05/13/1987 ATL vs. DET L 9 1 0 0 - 0 0 - 1 2 50.0 0 0 0 1 0 0 0 1 -
p5
aVRandy Wittman ATL 05/13/1987 ATL vs. DET L 42 21 10 18 55.6 0 0 - 1 2 50.0 0 1 1 3 2 0 2 4 -
p6
aVScott Hastings ATL 05/13/1987 ATL vs. DET L 5 4 2 2 100.0 0 0 - 0 0 - 0 0 0 0 1 0 0 2 -
p7
aVDominique Wilkins ATL 05/13/1987 ATL vs. DET L 43 26 10 25 40.0 1 1 100.0 5 5 100.0 4 8 12 1 2 1 6 5 -
p8
aVAntoine Carr ATL 05/13/1987 ATL vs. DET L 16 6 1 3 33.3 0 0 - 4 4 100.0 0 3 3 2 0 3 1 6 -
p9
aVKevin Willis ATL 05/13/1987 ATL vs. DET L 39 11 5 11 45.5 0 0 - 1 2 50.0 6 5 11 1 0 0 2 5 -
p10
aVJohn Battle ATL 05/10/1987 ATL @ DET L 17 19 7 13 53.8 1 1 100.0 4 4 100.0 0 2 2 1 0 0 1 2 -
p11
aVTree Rollins ATL 05/10/1987 ATL @ DET L 20 1 0 1 0.0 0 0 - 1 2 50.0 1 3 4 0 1 1 0 4 -
p12
aVSpud Webb ATL 05/10/1987 ATL @ DET L 7 0 0 1 0.0 0 0 - 0 0 - 1 1 2 1 0 0 3 1 -
p13
aVRandy Wittman ATL 05/10/1987 ATL @ DET L 34 7 3 9 33.3 0 0 - 1 1 100.0 0 2 2 2 0 0 1 3 -
p14
aVMike McGee ATL 05/10/1987 ATL @ DET L 8 3 1 2 50.0 0 0 - 1 4 25.0 0 2 2 0 0 0 1 1 -
p15
aVJon Koncak ATL 05/10/1987 ATL @ DET L 1 0 0 0 - 0 0 - 0 0 - 0 1 1 0 0 1 0 3 -
p16
aVCliff Levingston ATL 05/10/1987 ATL @ DET L 7 0 0 1 0.0 0 0 - 0 0 - 1 1 2 0 0 0 0 0 -
p17
aVDoc Rivers ATL 05/10/1987 ATL @ DET L 27 9 3 7 42.9 0 0 - 3 5 60.0 1 4 5 7 0 0 4 4 -
p18
aVDominique Wilkins ATL 05/10/1987 ATL @ DET L 46 19 7 23 30.4 0 0 - 5 5 100.0 6 6 12 4 1 0 2 1 -
p19
aVAntoine Carr ATL 05/10/1987 ATL @ DET L 27 15 7 10 70.0 0 0 - 1 2 50.0 2 1 3 1 1 0 1 3 -
p20
aVScott Hastings ATL 05/10/1987 ATL @ DET L 3 0 0 0 - 0 0 - 0 0 - 0 1 1 0 0 0 0 1 -
p21
aVKevin Willis ATL 05/10/1987 ATL @ DET L 43 15 7 12 58.3 0 0 - 1 2 50.0 4 3 7 0 2 1 0 4 -
p22
aVSpud Webb ATL 05/08/1987 ATL @ DET L 12 6 2 4 50.0 0 1 0.0 2 2 100.0 0 0 0 4 1 0 2 0 -
p23
aVScott Hastings ATL 05/08/1987 ATL @ DET L 5 0 0 0 - 0 0 - 0 0 - 0 3 3 0 0 0 0 0 -
p24
aVKevin Willis ATL 05/08/1987 ATL @ DET L 43 26 9 16 56.3 0 0 - 8 8 100.0 4 8 12 0 2 2 3 4 -
p25
aVCliff Levingston ATL 05/08/1987 ATL @ DET L 17 4 0 3 0.0 0 0 - 4 6 66.7 5 4 9 0 0 2 2 4 -
p26
aVAntoine Carr ATL 05/08/1987 ATL @ DET L 17 10 3 5 60.0 0 0 - 4 4 100.0 0 2 2 1 1 1 2 5 -
p27
aVDominique Wilkins ATL 05/08/1987 ATL @ DET L 34 22 7 18 38.9 0 1 0.0 8 9 88.9 4 3 7 1 0 0 2 1 -
p28
aVMike McGee ATL 05/08/1987 ATL @ DET L 10 2 1 5 20.0 0 1 0.0 0 0 - 1 2 3 2 0 0 0 1 -
p29
aVTree Rollins ATL 05/08/1987 ATL @ DET L 17 2 1 2 50.0 0 0 - 0 0 - 3 2 5 1 0 2 2 5 -
p30
aVJon Koncak ATL 05/08/1987 ATL @ DET L 13 0 0 1 0.0 0 0 - 0 0 - 1 2 3 0 0 1 0 3 -
p31
aVRandy Wittman ATL 05/08/1987 ATL @ DET L 33 16 8 12 66.7 0 0 - 0 0 - 0 2 2 3 0 0 1 1 -
p32
aVJohn Battle ATL 05/08/1987 ATL @ DET L 11 5 1 4 25.0 0 1 0.0 3 4 75.0 1 0 1 2 0 0 0 3 -
p33
aVDoc Rivers ATL 05/08/1987 ATL @ DET L 28 6 3 10 30.0 0 0 - 0 0 - 0 0 0 8 2 2 4 5 -
p34
aVJohn Battle ATL 05/05/1987 ATL vs. DET W 5 4 1 2 50.0 0 0 - 2 2 100.0 0 0 0 0 0 0 0 0 -
p35
aVTree Rollins ATL 05/05/1987 ATL vs. DET W 27 6 3 4 75.0 0 0 - 0 0 - 2 5 7 0 1 2 0 4 -
p36
aVCliff Levingston ATL 05/05/1987 ATL vs. DET W 17 2 0 2 0.0 0 0 - 2 2 100.0 0 3 3 1 0 1 0 4 -
p37
aVJon Koncak ATL 05/05/1987 ATL vs. DET W 4 0 0 2 0.0 0 0 - 0 0 - 1 0 1 0 0 0 0 1 -
p38
aVMike McGee ATL 05/05/1987 ATL vs. DET W 11 5 2 7 28.6 0 0 - 1 2 50.0 5 1 6 4 1 0 1 1 -
p39
aVKevin Willis ATL 05/05/1987 ATL vs. DET W 43 19 8 14 57.1 0 0 - 3 4 75.0 4 6 10 2 2 0 1 3 -
p40
aVSpud Webb ATL 05/05/1987 ATL vs. DET W 10 4 1 2 50.0 0 0 - 2 2 100.0 0 0 0 1 0 0 1 0 -
p41
aVAntoine Carr ATL 05/05/1987 ATL vs. DET W 15 11 3 3 100.0 0 0 - 5 6 83.3 1 5 6 2 1 1 1 4 -
p42
aVRandy Wittman ATL 05/05/1987 ATL vs. DET W 35 34 15 25 60.0 0 0 - 4 5 80.0 1 1 2 6 0 0 1 5 -
p43
aVDoc Rivers ATL 05/05/1987 ATL vs. DET W 34 7 3 7 42.9 0 0 - 1 2 50.0 1 4 5 14 2 0 2 4 -
p44
aVDominique Wilkins ATL 05/05/1987 ATL vs. DET W 39 23 8 18 44.4 0 1 0.0 7 8 87.5 2 2 4 3 2 2 5 3 -
p45
aVRandy Wittman ATL 05/03/1987 ATL vs. DET L 28 18 7 14 50.0 0 0 - 4 4 100.0 1 2 3 3 1 1 1 5 -
p46
aVDoc Rivers ATL 05/03/1987 ATL vs. DET L 36 11 4 9 44.4 0 0 - 3 8 37.5 2 2 4 14 1 1 2 3 -
p47
aVMike McGee ATL 05/03/1987 ATL vs. DET L 19 4 2 7 28.6 0 4 0.0 0 0 - 2 1 3 4 1 0 2 2 -
p48
aVDominique Wilkins ATL 05/03/1987 ATL vs. DET L 39 21 7 18 38.9 0 1 0.0 7 7 100.0 5 3 8 4 2 2 3 3 -
p49
aVAntoine Carr ATL 05/03/1987 ATL vs. DET L 14 9 4 5 80.0 0 0 - 1 2 50.0 1 0 1 2 0 0 0 3 -
p50
aVCliff Levingston ATL 05/03/1987 ATL vs. DET L 6 2 1 1 100.0 0 0 - 0 0 - 2 0 2 0 0 0 1 0 -
p51
aVKevin Willis ATL 05/03/1987 ATL vs. DET L 43 22 9 17 52.9 0 0 - 4 4 100.0 3 7 10 2 1 2 1 4 -
p52
aVSpud Webb ATL 05/03/1987 ATL vs. DET L 12 0 0 1 0.0 0 0 - 0 0 - 0 0 0 3 0 0 1 2 -
p53
aVTree Rollins ATL 05/03/1987 ATL vs. DET L 22 13 4 4 100.0 0 0 - 5 5 100.0 2 2 4 0 0 2 2 3 -
p54
aVJon Koncak ATL 05/03/1987 ATL vs. DET L 21 11 4 6 66.7 0 0 - 3 4 75.0 2 4 6 1 2 1 0 4 -
p55
aVTree Rollins ATL 05/01/1987 ATL @ IND W 14 0 0 2 0.0 0 0 - 0 0 - 0 2 2 0 0 0 0 4 -
p56
aVMike McGee ATL 05/01/1987 ATL @ IND W 7 2 1 3 33.3 0 1 0.0 0 0 - 0 0 0 0 1 0 0 0 -
p57
aVCliff Levingston ATL 05/01/1987 ATL @ IND W 10 1 0 0 - 0 0 - 1 2 50.0 0 4 4 0 0 0 0 5 -
p58
aVRandy Wittman ATL 05/01/1987 ATL @ IND W 39 21 10 18 55.6 0 0 - 1 2 50.0 0 1 1 4 0 0 1 2 -
p59
aVKevin Willis ATL 05/01/1987 ATL @ IND W 33 10 4 7 57.1 0 0 - 2 4 50.0 0 6 6 0 0 0 3 3 -
p60
aVScott Hastings ATL 05/01/1987 ATL @ IND W 8 2 0 1 0.0 0 0 - 2 2 100.0 1 1 2 0 1 1 0 2 -
p61
aVSpud Webb ATL 05/01/1987 ATL @ IND W 8 2 0 0 - 0 0 - 2 2 100.0 0 1 1 2 0 0 0 0 -
p62
aVAntoine Carr ATL 05/01/1987 ATL @ IND W 22 20 7 10 70.0 0 0 - 6 7 85.7 2 3 5 0 0 0 1 3 -
p63
aVJon Koncak ATL 05/01/1987 ATL @ IND W 17 4 2 2 100.0 0 0 - 0 0 - 0 4 4 0 0 0 0 5 -
p64
aVDoc Rivers ATL 05/01/1987 ATL @ IND W 40 9 1 3 33.3 0 0 - 7 12 58.3 1 4 5 15 3 0 3 5 -
p65
aVDominique Wilkins ATL 05/01/1987 ATL @ IND W 41 30 11 25 44.0 0 2 0.0 8 11 72.7 3 6 9 4 2 1 4 4 -
p66
aVJohn Battle ATL 05/01/1987 ATL @ IND W 1 0 0 0 - 0 0 - 0 0 - 0 0 0 0 0 0 0 0 -
p67
aVJohn Battle ATL 04/29/1987 ATL @ IND L 8 5 0 2 0.0 0 1 0.0 5 6 83.3 0 0 0 0 0 0 0 1 -
p68
aVDoc Rivers ATL 04/29/1987 ATL @ IND L 27 4 1 3 33.3 0 0 - 2 7 28.6 1 2 3 10 1 0 3 3 -
p69
aVCliff Levingston ATL 04/29/1987 ATL @ IND L 17 6 3 4 75.0 0 1 0.0 0 0 - 0 3 3 0 0 0 0 4 -
p70
aVTree Rollins ATL 04/29/1987 ATL @ IND L 28 3 1 2 50.0 0 0 - 1 1 100.0 1 2 3 0 0 1 2 5 -
p71
aVRandy Wittman ATL 04/29/1987 ATL @ IND L 33 15 7 10 70.0 0 0 - 1 1 100.0 0 2 2 4 0 0 3 0 -
p72
aVJon Koncak ATL 04/29/1987 ATL @ IND L 17 4 1 1 100.0 0 0 - 2 2 100.0 0 6 6 1 1 0 0 4 -
p73
aVSpud Webb ATL 04/29/1987 ATL @ IND L 12 2 0 1 0.0 0 0 - 2 2 100.0 0 1 1 4 0 0 3 3 -
p74
aVDominique Wilkins ATL 04/29/1987 ATL @ IND L 37 22 9 23 39.1 0 0 - 4 6 66.7 0 5 5 0 3 0 0 3 -
p75
aVKevin Willis ATL 04/29/1987 ATL @ IND L 28 9 4 7 57.1 0 0 - 1 2 50.0 1 6 7 1 0 0 4 5 -
p76
aVAntoine Carr ATL 04/29/1987 ATL @ IND L 19 17 7 7 100.0 0 0 - 3 3 100.0 0 0 0 1 0 1 3 4 -
p77
aVMike McGee ATL 04/29/1987 ATL @ IND L 14 0 0 5 0.0 0 3 0.0 0 0 - 0 1 1 2 1 0 0 1 -
p78
aVJohn Battle ATL 04/26/1987 ATL vs. IND W 12 4 1 1 100.0 0 0 - 2 2 100.0 0 1 1 1 0 0 2 3 -
p79
aVKevin Willis ATL 04/26/1987 ATL vs. IND W 43 8 4 12 33.3 0 0 - 0 3 0.0 6 4 10 0 1 2 2 2 -
p80
aVMike McGee ATL 04/26/1987 ATL vs. IND W 14 0 0 3 0.0 0 2 0.0 0 0 - 1 2 3 1 0 0 0 0 -
p81
aVJon Koncak ATL 04/26/1987 ATL vs. IND W 6 1 0 0 - 0 0 - 1 2 50.0 1 0 1 1 0 0 0 1 -
p82
aVRandy Wittman ATL 04/26/1987 ATL vs. IND W 29 10 4 7 57.1 0 0 - 2 2 100.0 1 2 3 1 1 1 2 2 -
p83
aVDominique Wilkins ATL 04/26/1987 ATL vs. IND W 43 43 15 37 40.5 1 2 50.0 12 13 92.3 3 5 8 5 0 2 0 2 -
p84
aVCliff Levingston ATL 04/26/1987 ATL vs. IND W 16 4 2 5 40.0 0 0 - 0 0 - 2 4 6 0 0 0 0 1 -
p85
aVSpud Webb ATL 04/26/1987 ATL vs. IND W 36 12 5 8 62.5 0 0 - 2 5 40.0 0 3 3 14 2 0 4 2 -
p86
aVTree Rollins ATL 04/26/1987 ATL vs. IND W 27 7 3 4 75.0 0 0 - 1 2 50.0 3 5 8 1 0 2 0 5 -
p87
aVAntoine Carr ATL 04/26/1987 ATL vs. IND W 14 5 2 6 33.3 0 0 - 1 2 50.0 3 1 4 2 0 0 0 5 -
p88
aVAntoine Carr ATL 04/24/1987 ATL vs. IND W 18 11 5 7 71.4 0 0 - 1 2 50.0 2 1 3 2 0 2 1 3 -
p89
aVDoc Rivers ATL 04/24/1987 ATL vs. IND W 22 7 0 1 0.0 0 0 - 7 13 53.8 0 0 0 7 0 0 2 3 -
p90
aVKevin Willis ATL 04/24/1987 ATL vs. IND W 41 21 10 19 52.6 0 0 - 1 2 50.0 5 5 10 0 0 0 1 3 -
p91
aVJon Koncak ATL 04/24/1987 ATL vs. IND W 7 0 0 1 0.0 0 0 - 0 0 - 0 3 3 0 0 1 0 3 -
p92
aVTree Rollins ATL 04/24/1987 ATL vs. IND W 34 6 3 5 60.0 0 0 - 0 0 - 3 8 11 1 1 3 1 3 -
p93
aVDominique Wilkins ATL 04/24/1987 ATL vs. IND W 38 35 12 23 52.2 1 2 50.0 10 10 100.0 0 5 5 3 4 0 4 3 -
p94
aVCliff Levingston ATL 04/24/1987 ATL vs. IND W 9 8 1 2 50.0 0 0 - 6 6 100.0 2 3 5 1 0 0 1 2 -
p95
aVMike McGee ATL 04/24/1987 ATL vs. IND W 18 11 3 7 42.9 2 3 66.7 3 4 75.0 0 2 2 2 0 0 0 1 -
p96
aVJohn Battle ATL 04/24/1987 ATL vs. IND W 1 0 0 0 - 0 0 - 0 0 - 0 0 0 0 0 0 0 0 -
p97
aVRandy Wittman ATL 04/24/1987 ATL vs. IND W 27 6 3 8 37.5 0 0 - 0 0 - 0 2 2 4 0 2 0 0 -
p98
aVSpud Webb ATL 04/24/1987 ATL vs. IND W 25 5 1 2 50.0 0 0 - 3 4 75.0 0 1 1 9 3 0 4 2 -
p99
a.