(lp0
VPLAYER TEAM DATE MATCHUP W/L MIN PTS FGM FGA FG% 3PM 3PA 3P% FTM FTA FT% OREB DREB REB AST STL BLK TOV PF +/-
p1
aVAlton Lister SEA 05/25/1987 SEA vs. LAL L 20 2 1 5 20.0 0 0 - 0 0 - 5 3 8 1 1 1 0 4 -
p2
aVEddie Johnson SEA 05/25/1987 SEA vs. LAL L 20 14 6 7 85.7 1 1 100.0 1 1 100.0 1 2 3 4 0 0 3 5 -
p3
aVTom Chambers SEA 05/25/1987 SEA vs. LAL L 37 20 8 22 36.4 0 1 0.0 4 5 80.0 6 1 7 1 0 2 2 4 -
p4
aVDale Ellis SEA 05/25/1987 SEA vs. LAL L 36 12 5 18 27.8 0 2 0.0 2 2 100.0 1 5 6 2 2 1 3 4 -
p5
aVRuss Schoene SEA 05/25/1987 SEA vs. LAL L 10 0 0 4 0.0 0 1 0.0 0 0 - 1 1 2 0 0 0 0 1 -
p6
aVNate McMillan SEA 05/25/1987 SEA vs. LAL L 28 4 2 6 33.3 0 0 - 0 0 - 0 1 1 3 0 0 4 4 -
p7
aVClemon Johnson SEA 05/25/1987 SEA vs. LAL L 8 2 0 3 0.0 0 0 - 2 2 100.0 3 0 3 0 1 0 0 0 -
p8
aVKevin Williams SEA 05/25/1987 SEA vs. LAL L 20 19 4 11 36.4 0 0 - 11 12 91.7 3 4 7 5 3 0 3 2 -
p9
aVMaurice Lucas SEA 05/25/1987 SEA vs. LAL L 15 11 5 8 62.5 0 0 - 1 2 50.0 5 1 6 1 0 0 0 3 -
p10
aVXavier McDaniel SEA 05/25/1987 SEA vs. LAL L 35 18 7 20 35.0 0 0 - 4 4 100.0 3 3 6 3 4 0 5 4 -
p11
aVDanny Young SEA 05/25/1987 SEA vs. LAL L 8 0 0 2 0.0 0 2 0.0 0 0 - 0 0 0 0 0 0 1 0 -
p12
aVCurtis Kitchen SEA 05/25/1987 SEA vs. LAL L 3 0 0 0 - 0 0 - 0 2 0.0 0 0 0 0 0 0 0 0 -
p13
aVMaurice Lucas SEA 05/23/1987 SEA vs. LAL L 20 3 1 6 16.7 0 0 - 1 2 50.0 2 1 3 1 1 1 0 3 -
p14
aVXavier McDaniel SEA 05/23/1987 SEA vs. LAL L 39 42 20 29 69.0 1 2 50.0 1 2 50.0 7 3 10 4 0 0 3 5 -
p15
aVRuss Schoene SEA 05/23/1987 SEA vs. LAL L 10 4 1 3 33.3 0 0 - 2 2 100.0 1 2 3 0 0 0 0 0 -
p16
aVAlton Lister SEA 05/23/1987 SEA vs. LAL L 24 7 3 6 50.0 0 0 - 1 2 50.0 3 4 7 0 0 2 1 6 -
p17
aVKevin Williams SEA 05/23/1987 SEA vs. LAL L 20 5 2 8 25.0 0 0 - 1 2 50.0 3 1 4 1 0 0 0 2 -
p18
aVDanny Young SEA 05/23/1987 SEA vs. LAL L 4 0 0 1 0.0 0 0 - 0 0 - 0 0 0 0 0 0 0 0 -
p19
aVClemon Johnson SEA 05/23/1987 SEA vs. LAL L 8 3 1 3 33.3 0 0 - 1 4 25.0 3 2 5 1 1 0 0 1 -
p20
aVDale Ellis SEA 05/23/1987 SEA vs. LAL L 33 19 8 18 44.4 0 1 0.0 3 4 75.0 0 3 3 1 2 0 0 4 -
p21
aVEddie Johnson SEA 05/23/1987 SEA vs. LAL L 22 11 4 6 66.7 0 0 - 3 5 60.0 1 1 2 3 0 0 3 1 -
p22
aVTom Chambers SEA 05/23/1987 SEA vs. LAL L 38 17 6 13 46.2 0 0 - 5 8 62.5 1 6 7 2 1 1 1 5 -
p23
aVNate McMillan SEA 05/23/1987 SEA vs. LAL L 22 10 5 7 71.4 0 0 - 0 0 - 0 3 3 15 1 0 3 4 -
p24
aVDanny Young SEA 05/19/1987 SEA @ LAL L 2 0 0 0 - 0 0 - 0 0 - 0 0 0 0 0 0 0 0 -
p25
aVClemon Johnson SEA 05/19/1987 SEA @ LAL L 10 0 0 0 - 0 0 - 0 0 - 0 0 0 0 0 0 1 1 -
p26
aVDale Ellis SEA 05/19/1987 SEA @ LAL L 38 22 9 16 56.3 0 0 - 4 4 100.0 1 1 2 3 0 1 4 5 -
p27
aVKevin Williams SEA 05/19/1987 SEA @ LAL L 15 10 4 6 66.7 0 0 - 2 2 100.0 2 1 3 4 2 0 1 4 -
p28
aVEddie Johnson SEA 05/19/1987 SEA @ LAL L 24 15 5 9 55.6 0 0 - 5 5 100.0 0 1 1 2 1 0 2 3 -
p29
aVMaurice Lucas SEA 05/19/1987 SEA @ LAL L 14 2 0 4 0.0 0 0 - 2 2 100.0 1 3 4 0 0 0 0 2 -
p30
aVRuss Schoene SEA 05/19/1987 SEA @ LAL L 4 3 1 1 100.0 0 0 - 1 2 50.0 0 0 0 0 0 0 0 0 -
p31
aVAlton Lister SEA 05/19/1987 SEA @ LAL L 28 11 5 8 62.5 0 0 - 1 2 50.0 2 0 2 3 2 2 1 3 -
p32
aVXavier McDaniel SEA 05/19/1987 SEA @ LAL L 38 18 9 19 47.4 0 1 0.0 0 3 0.0 3 5 8 4 5 1 4 5 -
p33
aVNate McMillan SEA 05/19/1987 SEA @ LAL L 34 15 4 7 57.1 0 0 - 7 8 87.5 3 3 6 7 1 1 2 4 -
p34
aVTom Chambers SEA 05/19/1987 SEA @ LAL L 33 8 4 12 33.3 0 1 0.0 0 0 - 1 2 3 3 1 0 1 5 -
p35
aVXavier McDaniel SEA 05/16/1987 SEA @ LAL L 42 21 10 19 52.6 0 0 - 1 2 50.0 5 5 10 4 1 0 2 4 -
p36
aVEddie Johnson SEA 05/16/1987 SEA @ LAL L 8 2 1 1 100.0 0 0 - 0 0 - 0 1 1 1 0 0 1 0 -
p37
aVClemon Johnson SEA 05/16/1987 SEA @ LAL L 8 4 1 1 100.0 0 0 - 2 2 100.0 0 0 0 0 0 0 0 0 -
p38
aVDale Ellis SEA 05/16/1987 SEA @ LAL L 35 11 3 13 23.1 0 2 0.0 5 7 71.4 2 5 7 4 0 1 3 2 -
p39
aVNate McMillan SEA 05/16/1987 SEA @ LAL L 20 4 2 6 33.3 0 0 - 0 0 - 2 1 3 8 1 1 3 3 -
p40
aVKevin Williams SEA 05/16/1987 SEA @ LAL L 21 4 1 3 33.3 0 0 - 2 6 33.3 0 1 1 2 1 0 2 4 -
p41
aVTom Chambers SEA 05/16/1987 SEA @ LAL L 40 28 9 17 52.9 2 3 66.7 8 9 88.9 0 2 2 1 0 1 2 3 -
p42
aVMaurice Lucas SEA 05/16/1987 SEA @ LAL L 16 2 1 4 25.0 0 0 - 0 0 - 0 5 5 1 0 0 1 4 -
p43
aVDanny Young SEA 05/16/1987 SEA @ LAL L 20 5 2 6 33.3 1 3 33.3 0 0 - 1 0 1 5 1 0 1 1 -
p44
aVAlton Lister SEA 05/16/1987 SEA @ LAL L 27 6 3 7 42.9 0 0 - 0 0 - 4 6 10 1 1 1 1 6 -
p45
aVRuss Schoene SEA 05/16/1987 SEA @ LAL L 3 0 0 2 0.0 0 0 - 0 0 - 0 0 0 0 0 0 0 0 -
p46
aVClemon Johnson SEA 05/14/1987 SEA vs. HOU W 15 1 0 0 - 0 0 - 1 2 50.0 0 2 2 0 0 0 0 2 -
p47
aVKevin Williams SEA 05/14/1987 SEA vs. HOU W 23 6 3 5 60.0 0 0 - 0 0 - 0 1 1 2 0 1 1 2 -
p48
aVDanny Young SEA 05/14/1987 SEA vs. HOU W 14 5 2 3 66.7 1 1 100.0 0 0 - 0 0 0 6 0 0 0 0 -
p49
aVTom Chambers SEA 05/14/1987 SEA vs. HOU W 45 37 11 29 37.9 1 1 100.0 14 16 87.5 0 8 8 2 2 1 3 4 -
p50
aVAlton Lister SEA 05/14/1987 SEA vs. HOU W 26 11 4 7 57.1 0 0 - 3 4 75.0 1 2 3 1 0 2 1 6 -
p51
aVMaurice Lucas SEA 05/14/1987 SEA vs. HOU W 26 4 2 6 33.3 0 0 - 0 0 - 2 4 6 3 2 1 3 6 -
p52
aVEddie Johnson SEA 05/14/1987 SEA vs. HOU W 5 4 1 2 50.0 0 0 - 2 3 66.7 0 0 0 4 0 0 0 2 -
p53
aVRuss Schoene SEA 05/14/1987 SEA vs. HOU W 1 0 0 0 - 0 0 - 0 0 - 0 0 0 0 0 0 0 0 -
p54
aVXavier McDaniel SEA 05/14/1987 SEA vs. HOU W 46 24 11 18 61.1 0 1 0.0 2 3 66.7 5 7 12 2 1 2 3 5 -
p55
aVDale Ellis SEA 05/14/1987 SEA vs. HOU W 53 36 15 30 50.0 1 2 50.0 5 5 100.0 4 5 9 2 1 1 3 4 -
p56
aVNate McMillan SEA 05/14/1987 SEA vs. HOU W 36 0 0 5 0.0 0 0 - 0 0 - 2 6 8 16 3 0 1 3 -
p57
aVAlton Lister SEA 05/12/1987 SEA @ HOU L 21 4 1 2 50.0 0 0 - 2 2 100.0 2 1 3 1 0 0 1 5 -
p58
aVTom Chambers SEA 05/12/1987 SEA @ HOU L 33 15 4 16 25.0 1 3 33.3 6 7 85.7 2 7 9 4 1 1 4 3 -
p59
aVXavier McDaniel SEA 05/12/1987 SEA @ HOU L 28 12 6 14 42.9 0 0 - 0 1 0.0 5 3 8 2 1 0 1 6 -
p60
aVKevin Williams SEA 05/12/1987 SEA @ HOU L 30 10 4 12 33.3 0 1 0.0 2 2 100.0 1 1 2 2 1 0 1 5 -
p61
aVClemon Johnson SEA 05/12/1987 SEA @ HOU L 12 6 2 5 40.0 0 0 - 2 2 100.0 3 2 5 0 0 0 0 1 -
p62
aVNate McMillan SEA 05/12/1987 SEA @ HOU L 16 5 2 4 50.0 0 0 - 1 2 50.0 0 3 3 5 1 0 0 2 -
p63
aVRuss Schoene SEA 05/12/1987 SEA @ HOU L 5 0 0 0 - 0 0 - 0 0 - 0 0 0 0 0 0 0 1 -
p64
aVEddie Johnson SEA 05/12/1987 SEA @ HOU L 15 4 0 3 0.0 0 2 0.0 4 4 100.0 0 0 0 6 3 0 0 0 -
p65
aVDanny Young SEA 05/12/1987 SEA @ HOU L 23 11 3 6 50.0 1 3 33.3 4 4 100.0 0 1 1 3 2 0 0 6 -
p66
aVDale Ellis SEA 05/12/1987 SEA @ HOU L 33 27 12 22 54.5 1 5 20.0 2 2 100.0 1 2 3 0 0 0 3 4 -
p67
aVMaurice Lucas SEA 05/12/1987 SEA @ HOU L 24 13 5 10 50.0 0 1 0.0 3 4 75.0 1 6 7 3 1 1 2 3 -
p68
aVAlton Lister SEA 05/09/1987 SEA vs. HOU W 29 7 1 8 12.5 0 0 - 5 8 62.5 9 8 17 0 3 2 3 4 -
p69
aVClemon Johnson SEA 05/09/1987 SEA vs. HOU W 11 0 0 1 0.0 0 0 - 0 0 - 1 0 1 1 0 1 0 2 -
p70
aVDanny Young SEA 05/09/1987 SEA vs. HOU W 16 0 0 3 0.0 0 1 0.0 0 0 - 1 1 2 2 3 0 2 1 -
p71
aVKevin Williams SEA 05/09/1987 SEA vs. HOU W 19 14 5 8 62.5 0 0 - 4 4 100.0 1 0 1 1 0 0 1 3 -
p72
aVNate McMillan SEA 05/09/1987 SEA vs. HOU W 25 4 1 2 50.0 0 0 - 2 2 100.0 1 1 2 10 1 0 2 3 -
p73
aVCurtis Kitchen SEA 05/09/1987 SEA vs. HOU W 1 2 1 1 100.0 0 0 - 0 0 - 0 1 1 0 0 0 0 0 -
p74
aVEddie Johnson SEA 05/09/1987 SEA vs. HOU W 1 0 0 0 - 0 0 - 0 0 - 0 0 0 0 0 0 0 0 -
p75
aVXavier McDaniel SEA 05/09/1987 SEA vs. HOU W 39 13 4 14 28.6 0 0 - 5 7 71.4 4 6 10 2 3 2 3 4 -
p76
aVDale Ellis SEA 05/09/1987 SEA vs. HOU W 43 32 14 26 53.8 3 4 75.0 1 2 50.0 2 1 3 3 1 0 0 3 -
p77
aVTom Chambers SEA 05/09/1987 SEA vs. HOU W 36 38 13 22 59.1 0 2 0.0 12 13 92.3 4 4 8 1 1 1 1 4 -
p78
aVMaurice Lucas SEA 05/09/1987 SEA vs. HOU W 16 7 2 3 66.7 0 0 - 3 4 75.0 0 5 5 0 0 1 3 3 -
p79
aVRuss Schoene SEA 05/09/1987 SEA vs. HOU W 4 0 0 1 0.0 0 0 - 0 0 - 0 0 0 0 0 0 0 0 -
p80
aVMaurice Lucas SEA 05/07/1987 SEA vs. HOU L 17 3 1 6 16.7 0 0 - 1 2 50.0 2 2 4 2 1 0 0 3 -
p81
aVDale Ellis SEA 05/07/1987 SEA vs. HOU L 41 12 5 19 26.3 1 5 20.0 1 3 33.3 5 5 10 1 0 0 5 4 -
p82
aVClemon Johnson SEA 05/07/1987 SEA vs. HOU L 20 2 1 1 100.0 0 0 - 0 0 - 0 1 1 0 0 0 0 1 -
p83
aVXavier McDaniel SEA 05/07/1987 SEA vs. HOU L 38 12 6 15 40.0 0 1 0.0 0 3 0.0 2 5 7 2 2 0 3 3 -
p84
aVAlton Lister SEA 05/07/1987 SEA vs. HOU L 15 2 1 2 50.0 0 0 - 0 0 - 3 2 5 0 0 1 1 2 -
p85
aVEddie Johnson SEA 05/07/1987 SEA vs. HOU L 10 2 1 5 20.0 0 0 - 0 0 - 1 0 1 2 0 0 0 1 -
p86
aVDanny Young SEA 05/07/1987 SEA vs. HOU L 13 6 2 4 50.0 0 1 0.0 2 2 100.0 0 1 1 4 0 0 0 0 -
p87
aVTom Chambers SEA 05/07/1987 SEA vs. HOU L 32 24 10 22 45.5 0 2 0.0 4 5 80.0 3 6 9 3 1 1 2 2 -
p88
aVKevin Williams SEA 05/07/1987 SEA vs. HOU L 22 12 6 9 66.7 0 0 - 0 0 - 2 1 3 1 1 0 0 4 -
p89
aVNate McMillan SEA 05/07/1987 SEA vs. HOU L 23 4 2 5 40.0 0 0 - 0 0 - 2 3 5 4 2 1 1 1 -
p90
aVCurtis Kitchen SEA 05/07/1987 SEA vs. HOU L 2 0 0 0 - 0 0 - 0 0 - 1 0 1 0 0 0 0 1 -
p91
aVRuss Schoene SEA 05/07/1987 SEA vs. HOU L 7 5 1 4 25.0 1 2 50.0 2 4 50.0 1 1 2 0 0 0 0 1 -
p92
aVNate McMillan SEA 05/05/1987 SEA @ HOU W 17 2 1 1 100.0 0 0 - 0 0 - 2 0 2 6 0 0 3 3 -
p93
aVDale Ellis SEA 05/05/1987 SEA @ HOU W 42 30 14 29 48.3 1 3 33.3 1 2 50.0 3 6 9 3 1 1 3 2 -
p94
aVEddie Johnson SEA 05/05/1987 SEA @ HOU W 14 5 2 3 66.7 0 0 - 1 1 100.0 1 0 1 8 0 0 0 1 -
p95
aVMaurice Lucas SEA 05/05/1987 SEA @ HOU W 25 10 5 12 41.7 0 0 - 0 1 0.0 2 3 5 2 3 0 2 2 -
p96
aVTom Chambers SEA 05/05/1987 SEA @ HOU W 31 13 5 17 29.4 1 1 100.0 2 5 40.0 3 4 7 2 3 0 2 2 -
p97
aVKevin Williams SEA 05/05/1987 SEA @ HOU W 9 6 2 2 100.0 0 0 - 2 2 100.0 1 2 3 0 0 0 0 2 -
p98
aVRuss Schoene SEA 05/05/1987 SEA @ HOU W 8 0 0 0 - 0 0 - 0 0 - 0 2 2 0 0 0 0 2 -
p99
aVXavier McDaniel SEA 05/05/1987 SEA @ HOU W 36 22 10 16 62.5 0 0 - 2 2 100.0 1 4 5 0 0 1 4 4 -
p100
aVClemon Johnson SEA 05/05/1987 SEA @ HOU W 23 2 1 5 20.0 0 0 - 0 2 0.0 3 0 3 0 0 0 0 1 -
p101
aVDanny Young SEA 05/05/1987 SEA @ HOU W 19 5 1 1 100.0 1 1 100.0 2 2 100.0 0 2 2 6 2 0 0 1 -
p102
aVAlton Lister SEA 05/05/1987 SEA @ HOU W 16 4 1 5 20.0 0 0 - 2 2 100.0 0 1 1 0 0 2 1 1 -
p103
aVRuss Schoene SEA 05/02/1987 SEA @ HOU W 8 0 0 0 - 0 0 - 0 0 - 0 2 2 0 0 0 0 2 -
p104
aVNate McMillan SEA 05/02/1987 SEA @ HOU W 32 5 2 5 40.0 0 0 - 1 2 50.0 0 4 4 8 1 2 0 3 -
p105
aVCurtis Kitchen SEA 05/02/1987 SEA @ HOU W 2 0 0 0 - 0 0 - 0 0 - 0 0 0 0 0 0 0 0 -
p106
aVXavier McDaniel SEA 05/02/1987 SEA @ HOU W 42 11 5 15 33.3 0 0 - 1 2 50.0 2 1 3 5 0 1 2 5 -
p107
aVTom Chambers SEA 05/02/1987 SEA @ HOU W 44 24 10 25 40.0 0 1 0.0 4 5 80.0 3 6 9 4 0 1 2 4 -
p108
aVKevin Williams SEA 05/02/1987 SEA @ HOU W 12 9 3 5 60.0 0 0 - 3 5 60.0 1 0 1 1 1 0 1 4 -
p109
aVEddie Johnson SEA 05/02/1987 SEA @ HOU W 12 10 4 7 57.1 0 1 0.0 2 2 100.0 0 1 1 4 0 0 0 0 -
p110
aVMaurice Lucas SEA 05/02/1987 SEA @ HOU W 25 11 5 8 62.5 0 0 - 1 2 50.0 1 3 4 1 2 0 1 4 -
p111
aVDale Ellis SEA 05/02/1987 SEA @ HOU W 38 34 14 25 56.0 2 4 50.0 4 4 100.0 1 5 6 3 1 0 1 5 -
p112
aVClemon Johnson SEA 05/02/1987 SEA @ HOU W 27 3 1 6 16.7 0 0 - 1 2 50.0 1 3 4 0 3 1 0 2 -
p113
aVDanny Young SEA 05/02/1987 SEA @ HOU W 23 4 2 3 66.7 0 1 0.0 0 0 - 1 1 2 5 3 0 0 2 -
p114
aVXavier McDaniel SEA 04/30/1987 SEA vs. DAL W 39 29 12 20 60.0 1 1 100.0 4 4 100.0 0 8 8 4 1 1 3 5 -
p115
aVRuss Schoene SEA 04/30/1987 SEA vs. DAL W 6 0 0 1 0.0 0 1 0.0 0 0 - 0 3 3 1 0 1 0 0 -
p116
aVDanny Young SEA 04/30/1987 SEA vs. DAL W 15 9 3 5 60.0 1 2 50.0 2 2 100.0 0 4 4 8 2 0 0 2 -
p117
aVDale Ellis SEA 04/30/1987 SEA vs. DAL W 38 21 10 19 52.6 0 2 0.0 1 1 100.0 3 6 9 2 1 0 2 2 -
p118
aVClemon Johnson SEA 04/30/1987 SEA vs. DAL W 32 13 6 11 54.5 0 0 - 1 1 100.0 4 3 7 0 1 7 1 2 -
p119
aVKevin Williams SEA 04/30/1987 SEA vs. DAL W 12 0 0 3 0.0 0 0 - 0 0 - 0 1 1 1 0 0 0 3 -
p120
aVNate McMillan SEA 04/30/1987 SEA vs. DAL W 28 8 2 4 50.0 0 0 - 4 4 100.0 0 4 4 9 1 1 2 2 -
p121
aVCurtis Kitchen SEA 04/30/1987 SEA vs. DAL W 1 0 0 0 - 0 0 - 0 0 - 0 0 0 0 0 1 0 0 -
p122
aVTom Chambers SEA 04/30/1987 SEA vs. DAL W 38 31 11 16 68.8 0 0 - 9 11 81.8 3 6 9 3 0 0 2 3 -
p123
aVEddie Johnson SEA 04/30/1987 SEA vs. DAL W 14 4 1 2 50.0 0 0 - 2 2 100.0 0 2 2 3 0 0 0 0 -
p124
aVMaurice Lucas SEA 04/30/1987 SEA vs. DAL W 17 9 2 5 40.0 0 0 - 5 7 71.4 1 2 3 3 1 0 2 3 -
p125
aVDale Ellis SEA 04/28/1987 SEA vs. DAL W 38 43 18 28 64.3 2 3 66.7 5 5 100.0 8 6 14 1 0 1 1 5 -
p126
aVRuss Schoene SEA 04/28/1987 SEA vs. DAL W 12 0 0 0 - 0 0 - 0 0 - 0 2 2 0 0 0 2 6 -
p127
aVTom Chambers SEA 04/28/1987 SEA vs. DAL W 27 22 8 15 53.3 0 1 0.0 6 9 66.7 0 3 3 2 0 0 5 5 -
p128
aVCurtis Kitchen SEA 04/28/1987 SEA vs. DAL W 1 0 0 0 - 0 0 - 0 0 - 0 0 0 0 0 0 0 1 -
p129
aVXavier McDaniel SEA 04/28/1987 SEA vs. DAL W 38 16 4 14 28.6 0 0 - 8 12 66.7 2 6 8 2 2 1 6 4 -
p130
aVNate McMillan SEA 04/28/1987 SEA vs. DAL W 33 6 2 5 40.0 0 0 - 2 6 33.3 1 6 7 9 1 1 1 2 -
p131
aVDanny Young SEA 04/28/1987 SEA vs. DAL W 16 2 1 5 20.0 0 0 - 0 0 - 0 0 0 2 0 0 1 2 -
p132
aVClemon Johnson SEA 04/28/1987 SEA vs. DAL W 32 4 2 3 66.7 0 0 - 0 0 - 2 7 9 1 0 2 0 2 -
p133
aVEddie Johnson SEA 04/28/1987 SEA vs. DAL W 9 5 1 2 50.0 0 0 - 3 4 75.0 1 0 1 1 0 0 0 0 -
p134
aVKevin Williams SEA 04/28/1987 SEA vs. DAL W 16 11 4 5 80.0 0 0 - 3 3 100.0 1 0 1 3 1 0 0 3 -
p135
aVMaurice Lucas SEA 04/28/1987 SEA vs. DAL W 18 8 1 7 14.3 0 0 - 6 6 100.0 2 4 6 1 1 0 0 2 -
p136
aVDale Ellis SEA 04/25/1987 SEA @ DAL W 37 32 12 25 48.0 1 1 100.0 7 8 87.5 5 1 6 6 0 0 4 4 -
p137
aVEddie Johnson SEA 04/25/1987 SEA @ DAL W 3 0 0 1 0.0 0 0 - 0 0 - 0 0 0 1 0 0 0 0 -
p138
aVNate McMillan SEA 04/25/1987 SEA @ DAL W 27 2 1 2 50.0 0 0 - 0 0 - 0 5 5 8 1 2 1 2 -
p139
aVClemon Johnson SEA 04/25/1987 SEA @ DAL W 37 20 9 13 69.2 0 0 - 2 2 100.0 4 3 7 1 1 2 0 2 -
p140
aVMaurice Lucas SEA 04/25/1987 SEA @ DAL W 16 8 2 6 33.3 0 0 - 4 4 100.0 0 4 4 1 0 0 1 3 -
p141
aVDanny Young SEA 04/25/1987 SEA @ DAL W 21 4 2 6 33.3 0 1 0.0 0 0 - 0 0 0 5 2 0 1 5 -
p142
aVXavier McDaniel SEA 04/25/1987 SEA @ DAL W 32 28 13 22 59.1 0 1 0.0 2 3 66.7 5 4 9 1 0 0 2 6 -
p143
aVKevin Williams SEA 04/25/1987 SEA @ DAL W 15 0 0 3 0.0 0 0 - 0 0 - 0 0 0 3 1 0 0 1 -
p144
aVRuss Schoene SEA 04/25/1987 SEA @ DAL W 22 8 4 5 80.0 0 1 0.0 0 0 - 0 3 3 1 0 1 0 3 -
p145
aVCurtis Kitchen SEA 04/25/1987 SEA @ DAL W 1 0 0 0 - 0 0 - 0 0 - 0 0 0 0 0 0 0 0 -
p146
aVTom Chambers SEA 04/25/1987 SEA @ DAL W 29 10 5 13 38.5 0 1 0.0 0 0 - 0 0 0 3 1 1 1 4 -
p147
aVNate McMillan SEA 04/23/1987 SEA @ DAL L 15 2 1 3 33.3 0 0 - 0 0 - 0 1 1 4 0 1 3 6 -
p148
aVCurtis Kitchen SEA 04/23/1987 SEA @ DAL L 12 0 0 1 0.0 0 0 - 0 2 0.0 1 3 4 0 0 1 0 5 -
p149
aVMaurice Lucas SEA 04/23/1987 SEA @ DAL L 15 7 3 5 60.0 0 0 - 1 2 50.0 0 3 3 0 0 1 2 2 -
p150
aVRuss Schoene SEA 04/23/1987 SEA @ DAL L 23 11 3 7 42.9 1 1 100.0 4 4 100.0 3 4 7 1 1 2 0 0 -
p151
aVClemon Johnson SEA 04/23/1987 SEA @ DAL L 19 0 0 1 0.0 0 0 - 0 0 - 1 1 2 0 0 2 0 1 -
p152
aVEddie Johnson SEA 04/23/1987 SEA @ DAL L 24 14 5 10 50.0 1 1 100.0 3 3 100.0 0 1 1 6 1 0 0 3 -
p153
aVKevin Williams SEA 04/23/1987 SEA @ DAL L 21 14 7 14 50.0 0 1 0.0 0 2 0.0 4 2 6 4 3 0 0 5 -
p154
aVDanny Young SEA 04/23/1987 SEA @ DAL L 14 6 3 7 42.9 0 0 - 0 0 - 1 2 3 2 1 0 1 1 -
p155
aVDale Ellis SEA 04/23/1987 SEA @ DAL L 25 22 9 16 56.3 1 2 50.0 3 5 60.0 1 2 3 6 1 0 1 6 -
p156
aVXavier McDaniel SEA 04/23/1987 SEA @ DAL L 36 18 7 19 36.8 0 3 0.0 4 8 50.0 8 5 13 7 2 0 1 3 -
p157
aVTom Chambers SEA 04/23/1987 SEA @ DAL L 36 35 14 24 58.3 1 1 100.0 6 6 100.0 6 3 9 1 1 3 6 3 -
p158
a.