(lp0
VPLAYER TEAM DATE MATCHUP W/L MIN PTS FGM FGA FG% 3PM 3PA 3P% FTM FTA FT% OREB DREB REB AST STL BLK TOV PF +/-
p1
aVRickey Green UTH 05/03/1987 UTH vs. GOS L 2 2 0 1 0.0 0 0 - 2 2 100.0 0 0 0 1 0 0 1 1 -
p2
aVMarc Iavaroni UTH 05/03/1987 UTH vs. GOS L 9 2 1 4 25.0 0 0 - 0 0 - 2 0 2 0 0 0 0 0 -
p3
aVMark Eaton UTH 05/03/1987 UTH vs. GOS L 36 10 4 8 50.0 0 0 - 2 5 40.0 3 7 10 0 0 4 0 3 -
p4
aVThurl Bailey UTH 05/03/1987 UTH vs. GOS L 33 19 8 15 53.3 0 0 - 3 3 100.0 4 2 6 2 1 3 1 2 -
p5
aVJohn Stockton UTH 05/03/1987 UTH vs. GOS L 46 14 5 9 55.6 1 2 50.0 3 4 75.0 0 1 1 13 3 1 2 5 -
p6
aVKarl Malone UTH 05/03/1987 UTH vs. GOS L 38 23 8 15 53.3 0 0 - 7 11 63.6 3 6 9 2 1 1 3 6 -
p7
aVKelly Tripucka UTH 05/03/1987 UTH vs. GOS L 7 0 0 0 - 0 0 - 0 0 - 0 1 1 1 0 0 2 1 -
p8
aVCarey Scurry UTH 05/03/1987 UTH vs. GOS L 22 9 3 10 30.0 1 2 50.0 2 4 50.0 5 3 8 0 2 2 1 5 -
p9
aVDarrell Griffith UTH 05/03/1987 UTH vs. GOS L 23 19 6 16 37.5 2 5 40.0 5 6 83.3 1 0 1 4 1 0 1 0 -
p10
aVBob Hansen UTH 05/03/1987 UTH vs. GOS L 24 15 5 7 71.4 1 1 100.0 4 6 66.7 1 2 3 0 0 0 2 3 -
p11
aVMark Eaton UTH 05/01/1987 UTH @ GOS L 45 9 3 6 50.0 0 0 - 3 4 75.0 4 11 15 1 0 4 2 4 -
p12
aVMarc Iavaroni UTH 05/01/1987 UTH @ GOS L 9 2 1 1 100.0 0 0 - 0 0 - 1 1 2 0 0 0 2 3 -
p13
aVBob Hansen UTH 05/01/1987 UTH @ GOS L 34 20 7 14 50.0 1 2 50.0 5 6 83.3 1 0 1 2 0 0 2 2 -
p14
aVKent Benson UTH 05/01/1987 UTH @ GOS L 2 0 0 0 - 0 0 - 0 0 - 0 0 0 0 0 0 1 0 -
p15
aVDarrell Griffith UTH 05/01/1987 UTH @ GOS L 17 4 2 8 25.0 0 1 0.0 0 0 - 0 1 1 2 0 0 2 0 -
p16
aVJohn Stockton UTH 05/01/1987 UTH @ GOS L 45 15 5 8 62.5 2 2 100.0 3 5 60.0 2 1 3 11 6 0 3 5 -
p17
aVThurl Bailey UTH 05/01/1987 UTH @ GOS L 33 14 7 13 53.8 0 0 - 0 0 - 4 3 7 1 1 0 4 6 -
p18
aVKelly Tripucka UTH 05/01/1987 UTH @ GOS L 12 10 4 5 80.0 0 1 0.0 2 2 100.0 0 1 1 0 0 0 3 0 -
p19
aVKarl Malone UTH 05/01/1987 UTH @ GOS L 43 20 8 19 42.1 0 0 - 4 7 57.1 2 5 7 2 2 1 6 4 -
p20
aVCarey Scurry UTH 04/29/1987 UTH @ GOS L 6 0 0 0 - 0 0 - 0 0 - 0 1 1 0 0 0 0 1 -
p21
aVJohn Stockton UTH 04/29/1987 UTH @ GOS L 30 13 6 8 75.0 1 1 100.0 0 0 - 0 1 1 8 3 0 2 1 -
p22
aVKarl Malone UTH 04/29/1987 UTH @ GOS L 34 15 6 15 40.0 0 0 - 3 5 60.0 2 7 9 0 1 1 1 4 -
p23
aVMark Eaton UTH 04/29/1987 UTH @ GOS L 38 14 7 11 63.6 0 0 - 0 0 - 2 6 8 0 0 5 0 2 -
p24
aVRickey Green UTH 04/29/1987 UTH @ GOS L 15 2 1 4 25.0 0 1 0.0 0 1 0.0 0 0 0 6 0 0 0 1 -
p25
aVDell Curry UTH 04/29/1987 UTH @ GOS L 3 0 0 2 0.0 0 0 - 0 0 - 0 0 0 0 0 0 0 0 -
p26
aVThurl Bailey UTH 04/29/1987 UTH @ GOS L 25 14 5 14 35.7 0 0 - 4 4 100.0 5 3 8 1 0 0 3 0 -
p27
aVBob Hansen UTH 04/29/1987 UTH @ GOS L 23 10 3 10 30.0 0 1 0.0 4 4 100.0 0 3 3 2 1 0 1 2 -
p28
aVKelly Tripucka UTH 04/29/1987 UTH @ GOS L 30 16 7 9 77.8 0 1 0.0 2 2 100.0 0 3 3 1 2 0 2 2 -
p29
aVMarc Iavaroni UTH 04/29/1987 UTH @ GOS L 11 0 0 1 0.0 0 0 - 0 0 - 0 0 0 3 0 1 0 1 -
p30
aVDarrell Griffith UTH 04/29/1987 UTH @ GOS L 25 11 4 17 23.5 0 3 0.0 3 4 75.0 1 2 3 0 4 0 5 2 -
p31
aVThurl Bailey UTH 04/25/1987 UTH vs. GOS W 28 11 3 10 30.0 0 0 - 5 5 100.0 1 3 4 3 0 1 1 2 -
p32
aVKarl Malone UTH 04/25/1987 UTH vs. GOS W 42 22 6 18 33.3 0 0 - 10 11 90.9 6 7 13 1 4 1 2 3 -
p33
aVBob Hansen UTH 04/25/1987 UTH vs. GOS W 26 6 2 7 28.6 0 1 0.0 2 2 100.0 1 3 4 5 0 0 1 3 -
p34
aVMark Eaton UTH 04/25/1987 UTH vs. GOS W 35 11 3 10 30.0 0 0 - 5 6 83.3 3 4 7 2 0 5 1 5 -
p35
aVDarrell Griffith UTH 04/25/1987 UTH vs. GOS W 27 25 10 20 50.0 4 5 80.0 1 2 50.0 2 1 3 0 1 2 3 2 -
p36
aVMarc Iavaroni UTH 04/25/1987 UTH vs. GOS W 8 4 1 3 33.3 0 0 - 2 2 100.0 5 2 7 1 0 2 3 2 -
p37
aVCarey Scurry UTH 04/25/1987 UTH vs. GOS W 18 10 5 9 55.6 0 0 - 0 2 0.0 1 2 3 0 1 0 1 4 -
p38
aVRickey Green UTH 04/25/1987 UTH vs. GOS W 16 8 3 4 75.0 0 0 - 2 2 100.0 0 2 2 3 1 0 2 1 -
p39
aVDell Curry UTH 04/25/1987 UTH vs. GOS W 1 0 0 1 0.0 0 1 0.0 0 0 - 0 0 0 0 0 0 0 1 -
p40
aVKelly Tripucka UTH 04/25/1987 UTH vs. GOS W 12 2 1 3 33.3 0 0 - 0 0 - 1 0 1 1 2 0 0 0 -
p41
aVJohn Stockton UTH 04/25/1987 UTH vs. GOS W 27 4 1 3 33.3 0 0 - 2 2 100.0 0 5 5 5 3 0 2 5 -
p42
aVKarl Malone UTH 04/23/1987 UTH vs. GOS W 43 20 9 21 42.9 0 0 - 2 2 100.0 2 8 10 1 3 0 5 3 -
p43
aVMarc Iavaroni UTH 04/23/1987 UTH vs. GOS W 10 2 1 1 100.0 0 0 - 0 1 0.0 0 2 2 0 0 0 1 1 -
p44
aVKent Benson UTH 04/23/1987 UTH vs. GOS W 1 0 0 0 - 0 0 - 0 0 - 0 0 0 0 0 0 0 0 -
p45
aVThurl Bailey UTH 04/23/1987 UTH vs. GOS W 32 20 7 11 63.6 0 0 - 6 6 100.0 0 5 5 2 1 2 3 2 -
p46
aVRickey Green UTH 04/23/1987 UTH vs. GOS W 39 15 7 14 50.0 0 0 - 1 1 100.0 1 5 6 15 1 0 4 2 -
p47
aVDarrell Griffith UTH 04/23/1987 UTH vs. GOS W 12 9 2 4 50.0 0 1 0.0 5 7 71.4 1 3 4 2 0 0 1 1 -
p48
aVJohn Stockton UTH 04/23/1987 UTH vs. GOS W 9 4 1 1 100.0 0 0 - 2 2 100.0 0 1 1 3 0 0 2 2 -
p49
aVKelly Tripucka UTH 04/23/1987 UTH vs. GOS W 9 4 2 3 66.7 0 1 0.0 0 0 - 0 1 1 0 0 0 0 3 -
p50
aVCarey Scurry UTH 04/23/1987 UTH vs. GOS W 11 5 2 3 66.7 0 0 - 1 1 100.0 1 1 2 0 1 3 0 0 -
p51
aVBob Hansen UTH 04/23/1987 UTH vs. GOS W 35 10 4 11 36.4 0 0 - 2 2 100.0 0 4 4 2 0 1 1 4 -
p52
aVMark Eaton UTH 04/23/1987 UTH vs. GOS W 39 10 2 6 33.3 0 0 - 6 10 60.0 4 11 15 0 1 3 1 4 -
p53
a.