(lp0
VPLAYER TEAM DATE MATCHUP W/L MIN PTS FGM FGA FG% 3PM 3PA 3P% FTM FTA FT% OREB DREB REB AST STL BLK TOV PF +/-
p1
aVRon Anderson IND 05/01/1987 IND vs. ATL L 3 0 0 0 - 0 0 - 0 0 - 0 0 0 0 0 0 0 0 -
p2
aVSteve Stipanovich IND 05/01/1987 IND vs. ATL L 35 13 3 4 75.0 0 0 - 7 8 87.5 1 4 5 0 0 1 0 5 -
p3
aVClint Richardson IND 05/01/1987 IND vs. ATL L 23 2 0 2 0.0 0 0 - 2 4 50.0 1 5 6 2 0 0 2 4 -
p4
aVHerb Williams IND 05/01/1987 IND vs. ATL L 38 12 5 8 62.5 0 0 - 2 5 40.0 0 6 6 1 0 0 4 3 -
p5
aVWayman Tisdale IND 05/01/1987 IND vs. ATL L 25 6 2 3 66.7 0 0 - 2 2 100.0 0 2 2 2 0 0 3 6 -
p6
aVVern Fleming IND 05/01/1987 IND vs. ATL L 42 17 4 10 40.0 0 0 - 9 11 81.8 4 7 11 8 2 1 2 6 -
p7
aVChuck Person IND 05/01/1987 IND vs. ATL L 44 40 14 27 51.9 0 3 0.0 12 15 80.0 0 7 7 6 1 0 4 3 -
p8
aVJohn Long IND 05/01/1987 IND vs. ATL L 24 7 3 10 30.0 0 0 - 1 2 50.0 0 0 0 1 1 0 1 4 -
p9
aVKyle Macy IND 05/01/1987 IND vs. ATL L 6 0 0 2 0.0 0 0 - 0 0 - 0 0 0 0 0 0 0 0 -
p10
aVKyle Macy IND 04/29/1987 IND vs. ATL W 17 4 2 2 100.0 0 0 - 0 0 - 0 2 2 0 0 0 1 0 -
p11
aVChuck Person IND 04/29/1987 IND vs. ATL W 40 23 8 18 44.4 0 1 0.0 7 10 70.0 4 13 17 7 1 1 3 2 -
p12
aVJohn Long IND 04/29/1987 IND vs. ATL W 29 8 3 12 25.0 0 2 0.0 2 2 100.0 0 1 1 2 3 0 1 4 -
p13
aVSteve Stipanovich IND 04/29/1987 IND vs. ATL W 44 12 3 9 33.3 0 0 - 6 10 60.0 2 4 6 2 0 0 3 2 -
p14
aVWayman Tisdale IND 04/29/1987 IND vs. ATL W 23 10 4 7 57.1 0 0 - 2 6 33.3 2 2 4 3 0 0 2 5 -
p15
aVStuart Gray IND 04/29/1987 IND vs. ATL W 2 0 0 0 - 0 0 - 0 0 - 0 0 0 0 0 0 0 1 -
p16
aVClint Richardson IND 04/29/1987 IND vs. ATL W 16 8 4 4 100.0 0 0 - 0 0 - 1 1 2 2 0 0 2 4 -
p17
aVVern Fleming IND 04/29/1987 IND vs. ATL W 29 12 4 6 66.7 0 0 - 4 6 66.7 1 4 5 6 2 0 1 3 -
p18
aVHerb Williams IND 04/29/1987 IND vs. ATL W 36 19 9 12 75.0 0 0 - 1 3 33.3 1 4 5 1 0 0 3 3 -
p19
aVRon Anderson IND 04/29/1987 IND vs. ATL W 4 0 0 1 0.0 0 0 - 0 0 - 0 0 0 0 0 0 0 0 -
p20
aVStuart Gray IND 04/26/1987 IND @ ATL L 5 2 0 0 - 0 0 - 2 2 100.0 0 3 3 0 0 0 0 1 -
p21
aVVern Fleming IND 04/26/1987 IND @ ATL L 37 12 4 14 28.6 0 1 0.0 4 7 57.1 3 3 6 4 0 0 2 3 -
p22
aVChuck Person IND 04/26/1987 IND @ ATL L 34 24 8 14 57.1 2 2 100.0 6 8 75.0 1 4 5 2 0 0 3 4 -
p23
aVKyle Macy IND 04/26/1987 IND @ ATL L 11 0 0 1 0.0 0 0 - 0 1 0.0 0 1 1 2 1 0 1 4 -
p24
aVRon Anderson IND 04/26/1987 IND @ ATL L 9 0 0 1 0.0 0 0 - 0 0 - 1 1 2 0 0 0 0 1 -
p25
aVJohn Long IND 04/26/1987 IND @ ATL L 28 14 5 14 35.7 0 1 0.0 4 4 100.0 0 2 2 3 1 0 1 4 -
p26
aVWayman Tisdale IND 04/26/1987 IND @ ATL L 26 15 5 8 62.5 0 0 - 5 7 71.4 1 4 5 2 1 0 0 2 -
p27
aVSteve Stipanovich IND 04/26/1987 IND @ ATL L 31 8 4 7 57.1 0 0 - 0 0 - 1 5 6 0 1 0 0 5 -
p28
aVHerb Williams IND 04/26/1987 IND @ ATL L 43 14 6 9 66.7 0 0 - 2 3 66.7 2 6 8 4 0 1 3 3 -
p29
aVClint Richardson IND 04/26/1987 IND @ ATL L 16 4 2 4 50.0 0 1 0.0 0 0 - 0 0 0 2 0 0 0 1 -
p30
aVWayman Tisdale IND 04/24/1987 IND @ ATL L 34 20 8 13 61.5 0 0 - 4 8 50.0 2 3 5 2 0 0 0 4 -
p31
aVVern Fleming IND 04/24/1987 IND @ ATL L 33 8 1 6 16.7 0 0 - 6 6 100.0 1 3 4 6 0 0 5 3 -
p32
aVStuart Gray IND 04/24/1987 IND @ ATL L 7 0 0 1 0.0 0 0 - 0 2 0.0 2 2 4 0 0 0 0 1 -
p33
aVChuck Person IND 04/24/1987 IND @ ATL L 41 21 8 15 53.3 0 2 0.0 5 6 83.3 1 3 4 5 3 1 5 5 -
p34
aVSteve Stipanovich IND 04/24/1987 IND @ ATL L 39 22 11 18 61.1 0 1 0.0 0 1 0.0 3 10 13 1 2 1 1 2 -
p35
aVHerb Williams IND 04/24/1987 IND @ ATL L 17 2 0 5 0.0 0 0 - 2 2 100.0 0 1 1 1 0 0 1 3 -
p36
aVJohn Long IND 04/24/1987 IND @ ATL L 28 15 5 16 31.3 1 3 33.3 4 5 80.0 2 1 3 3 1 0 2 4 -
p37
aVRon Anderson IND 04/24/1987 IND @ ATL L 8 4 2 2 100.0 0 0 - 0 0 - 1 0 1 0 0 0 0 1 -
p38
aVKyle Macy IND 04/24/1987 IND @ ATL L 15 0 0 1 0.0 0 1 0.0 0 0 - 0 0 0 3 0 0 1 3 -
p39
aVClint Richardson IND 04/24/1987 IND @ ATL L 18 2 1 2 50.0 0 0 - 0 0 - 1 1 2 2 0 0 1 3 -
p40
a.