(lp0
VPLAYER TEAM DATE MATCHUP W/L MIN PTS FGM FGA FG% 3PM 3PA 3P% FTM FTA FT% OREB DREB REB AST STL BLK TOV PF +/-
p1
aVDave Feitl HOU 05/14/1987 HOU @ SEA L 2 0 0 0 - 0 0 - 0 0 - 0 0 0 0 0 0 0 0 -
p2
aVRobert Reid HOU 05/14/1987 HOU @ SEA L 54 18 8 25 32.0 0 1 0.0 2 2 100.0 0 4 4 12 1 1 3 5 -
p3
aVJim Petersen HOU 05/14/1987 HOU @ SEA L 7 4 2 2 100.0 0 0 - 0 0 - 2 1 3 0 0 0 0 3 -
p4
aVRichard Anderson HOU 05/14/1987 HOU @ SEA L 1 0 0 1 0.0 0 0 - 0 0 - 0 0 0 0 0 0 0 0 -
p5
aVAllen Leavell HOU 05/14/1987 HOU @ SEA L 24 6 2 4 50.0 0 0 - 2 4 50.0 0 2 2 6 1 0 1 6 -
p6
aVRalph Sampson HOU 05/14/1987 HOU @ SEA L 46 19 7 22 31.8 0 0 - 5 8 62.5 6 7 13 0 0 0 4 5 -
p7
aVHakeem Olajuwon HOU 05/14/1987 HOU @ SEA L 53 49 19 33 57.6 0 0 - 11 13 84.6 11 14 25 2 2 6 2 4 -
p8
aVDirk Minniefield HOU 05/14/1987 HOU @ SEA L 4 0 0 0 - 0 0 - 0 0 - 0 0 0 0 0 0 1 1 -
p9
aVCedric Maxwell HOU 05/14/1987 HOU @ SEA L 23 7 3 4 75.0 0 0 - 1 3 33.3 1 2 3 0 0 0 1 1 -
p10
aVRodney McCray HOU 05/14/1987 HOU @ SEA L 50 14 5 8 62.5 0 0 - 4 4 100.0 5 4 9 6 0 2 4 4 -
p11
aVSteve Harris HOU 05/14/1987 HOU @ SEA L 26 8 2 12 16.7 0 0 - 4 5 80.0 0 3 3 2 2 0 0 0 -
p12
aVJim Petersen HOU 05/12/1987 HOU vs. SEA W 16 4 2 4 50.0 0 0 - 0 0 - 1 4 5 1 0 0 2 5 -
p13
aVAllen Leavell HOU 05/12/1987 HOU vs. SEA W 33 15 2 7 28.6 0 0 - 11 12 91.7 0 3 3 4 2 1 3 2 -
p14
aVHakeem Olajuwon HOU 05/12/1987 HOU vs. SEA W 44 26 10 18 55.6 0 0 - 6 12 50.0 3 3 6 3 0 7 4 3 -
p15
aVRodney McCray HOU 05/12/1987 HOU vs. SEA W 47 24 9 12 75.0 0 0 - 6 7 85.7 2 8 10 11 1 0 2 2 -
p16
aVCedric Maxwell HOU 05/12/1987 HOU vs. SEA W 13 4 1 1 100.0 0 0 - 2 4 50.0 0 1 1 2 0 0 1 3 -
p17
aVSteve Harris HOU 05/12/1987 HOU vs. SEA W 20 12 6 9 66.7 0 0 - 0 0 - 2 0 2 2 1 0 1 4 -
p18
aVRalph Sampson HOU 05/12/1987 HOU vs. SEA W 23 13 5 9 55.6 0 0 - 3 3 100.0 2 6 8 2 1 0 4 5 -
p19
aVRobert Reid HOU 05/12/1987 HOU vs. SEA W 44 14 4 12 33.3 0 1 0.0 6 8 75.0 1 5 6 2 0 1 2 3 -
p20
aVRodney McCray HOU 05/09/1987 HOU @ SEA L 43 20 8 13 61.5 0 1 0.0 4 6 66.7 7 5 12 4 2 2 5 0 -
p21
aVAllen Leavell HOU 05/09/1987 HOU @ SEA L 39 13 4 12 33.3 0 2 0.0 5 7 71.4 0 3 3 5 2 0 4 5 -
p22
aVRobert Reid HOU 05/09/1987 HOU @ SEA L 38 6 3 11 27.3 0 1 0.0 0 1 0.0 0 0 0 4 1 0 1 3 -
p23
aVRichard Anderson HOU 05/09/1987 HOU @ SEA L 1 3 1 2 50.0 1 2 50.0 0 0 - 0 0 0 0 0 0 0 1 -
p24
aVSteve Harris HOU 05/09/1987 HOU @ SEA L 6 5 2 3 66.7 0 0 - 1 1 100.0 0 0 0 0 0 0 1 3 -
p25
aVHakeem Olajuwon HOU 05/09/1987 HOU @ SEA L 27 20 8 11 72.7 0 0 - 4 8 50.0 3 2 5 0 0 3 5 5 -
p26
aVRalph Sampson HOU 05/09/1987 HOU @ SEA L 33 18 6 13 46.2 0 0 - 6 6 100.0 1 6 7 1 0 3 2 6 -
p27
aVJim Petersen HOU 05/09/1987 HOU @ SEA L 29 10 3 5 60.0 0 0 - 4 4 100.0 2 4 6 0 1 0 1 1 -
p28
aVCedric Maxwell HOU 05/09/1987 HOU @ SEA L 19 5 1 3 33.3 0 0 - 3 4 75.0 0 1 1 1 0 0 1 2 -
p29
aVDirk Minniefield HOU 05/09/1987 HOU @ SEA L 4 2 1 2 50.0 0 0 - 0 0 - 0 0 0 1 1 0 0 3 -
p30
aVDave Feitl HOU 05/09/1987 HOU @ SEA L 1 0 0 0 - 0 0 - 0 0 - 0 1 1 0 0 0 0 0 -
p31
aVDirk Minniefield HOU 05/07/1987 HOU @ SEA W 7 10 3 4 75.0 0 0 - 4 4 100.0 1 0 1 0 0 0 1 3 -
p32
aVBuck Johnson HOU 05/07/1987 HOU @ SEA W 1 0 0 0 - 0 0 - 0 0 - 0 0 0 0 0 0 0 0 -
p33
aVHakeem Olajuwon HOU 05/07/1987 HOU @ SEA W 39 33 14 20 70.0 0 0 - 5 6 83.3 2 9 11 2 0 4 4 2 -
p34
aVCedric Maxwell HOU 05/07/1987 HOU @ SEA W 18 6 1 3 33.3 0 0 - 4 4 100.0 2 3 5 1 0 0 1 6 -
p35
aVRichard Anderson HOU 05/07/1987 HOU @ SEA W 1 0 0 0 - 0 0 - 0 0 - 0 0 0 0 0 0 0 0 -
p36
aVRobert Reid HOU 05/07/1987 HOU @ SEA W 46 8 4 15 26.7 0 1 0.0 0 0 - 0 2 2 9 2 0 3 2 -
p37
aVAllen Leavell HOU 05/07/1987 HOU @ SEA W 33 4 2 7 28.6 0 1 0.0 0 0 - 0 1 1 4 2 0 1 3 -
p38
aVSteve Harris HOU 05/07/1987 HOU @ SEA W 1 0 0 1 0.0 0 0 - 0 0 - 0 0 0 0 0 0 0 0 -
p39
aVRodney McCray HOU 05/07/1987 HOU @ SEA W 46 11 3 9 33.3 0 1 0.0 5 6 83.3 1 5 6 3 1 0 1 2 -
p40
aVDave Feitl HOU 05/07/1987 HOU @ SEA W 2 2 0 0 - 0 0 - 2 2 100.0 0 0 0 0 0 0 0 0 -
p41
aVJim Petersen HOU 05/07/1987 HOU @ SEA W 20 10 5 8 62.5 0 0 - 0 2 0.0 3 2 5 0 1 1 0 0 -
p42
aVRalph Sampson HOU 05/07/1987 HOU @ SEA W 26 18 7 10 70.0 0 0 - 4 5 80.0 2 5 7 1 0 0 3 4 -
p43
aVRalph Sampson HOU 05/05/1987 HOU vs. SEA L 38 25 12 19 63.2 1 1 100.0 0 0 - 5 8 13 0 0 1 4 2 -
p44
aVRodney McCray HOU 05/05/1987 HOU vs. SEA L 37 16 6 13 46.2 0 0 - 4 5 80.0 1 1 2 8 0 1 1 1 -
p45
aVRobert Reid HOU 05/05/1987 HOU vs. SEA L 34 6 3 8 37.5 0 0 - 0 0 - 0 1 1 1 1 0 2 4 -
p46
aVHakeem Olajuwon HOU 05/05/1987 HOU vs. SEA L 38 27 10 18 55.6 0 0 - 7 8 87.5 2 11 13 0 0 2 4 4 -
p47
aVSteve Harris HOU 05/05/1987 HOU vs. SEA L 15 4 2 4 50.0 0 0 - 0 0 - 0 0 0 1 0 0 0 2 -
p48
aVJim Petersen HOU 05/05/1987 HOU vs. SEA L 15 2 1 5 20.0 0 0 - 0 0 - 1 6 7 2 0 0 1 0 -
p49
aVAllen Leavell HOU 05/05/1987 HOU vs. SEA L 48 12 2 9 22.2 0 1 0.0 8 9 88.9 0 0 0 8 1 1 5 3 -
p50
aVCedric Maxwell HOU 05/05/1987 HOU vs. SEA L 15 5 2 3 66.7 0 0 - 1 2 50.0 0 3 3 1 0 0 1 0 -
p51
aVSteve Harris HOU 05/02/1987 HOU vs. SEA L 9 4 2 5 40.0 0 0 - 0 0 - 0 0 0 0 0 0 0 0 -
p52
aVCedric Maxwell HOU 05/02/1987 HOU vs. SEA L 20 4 1 3 33.3 0 1 0.0 2 2 100.0 1 2 3 1 1 0 1 3 -
p53
aVJim Petersen HOU 05/02/1987 HOU vs. SEA L 13 9 3 6 50.0 0 0 - 3 4 75.0 0 2 2 0 1 0 0 2 -
p54
aVDirk Minniefield HOU 05/02/1987 HOU vs. SEA L 5 2 0 0 - 0 0 - 2 2 100.0 1 0 1 1 0 0 0 0 -
p55
aVAllen Leavell HOU 05/02/1987 HOU vs. SEA L 42 11 3 12 25.0 1 3 33.3 4 6 66.7 1 4 5 6 1 0 3 6 -
p56
aVBuck Johnson HOU 05/02/1987 HOU vs. SEA L 4 0 0 1 0.0 0 0 - 0 0 - 0 0 0 0 0 0 1 1 -
p57
aVRodney McCray HOU 05/02/1987 HOU vs. SEA L 51 15 5 7 71.4 0 0 - 5 8 62.5 4 4 8 8 0 0 3 1 -
p58
aVHakeem Olajuwon HOU 05/02/1987 HOU vs. SEA L 44 28 10 18 55.6 0 1 0.0 8 11 72.7 3 13 16 1 1 1 5 5 -
p59
aVRalph Sampson HOU 05/02/1987 HOU vs. SEA L 29 14 5 10 50.0 0 0 - 4 4 100.0 1 6 7 1 0 4 4 5 -
p60
aVRobert Reid HOU 05/02/1987 HOU vs. SEA L 48 19 8 18 44.4 0 4 0.0 3 6 50.0 2 7 9 4 0 0 4 5 -
p61
aVSteve Harris HOU 04/30/1987 HOU vs. POR W 1 0 0 1 0.0 0 1 0.0 0 0 - 0 0 0 0 0 0 0 0 -
p62
aVRodney McCray HOU 04/30/1987 HOU vs. POR W 43 15 7 11 63.6 0 0 - 1 1 100.0 2 8 10 7 1 2 5 2 -
p63
aVRobert Reid HOU 04/30/1987 HOU vs. POR W 40 22 10 20 50.0 1 2 50.0 1 2 50.0 1 1 2 2 1 0 1 3 -
p64
aVDave Feitl HOU 04/30/1987 HOU vs. POR W 1 0 0 0 - 0 0 - 0 0 - 0 0 0 0 0 0 0 0 -
p65
aVBuck Johnson HOU 04/30/1987 HOU vs. POR W 1 2 1 1 100.0 0 0 - 0 0 - 0 0 0 0 0 0 0 0 -
p66
aVAllen Leavell HOU 04/30/1987 HOU vs. POR W 39 16 6 14 42.9 0 3 0.0 4 5 80.0 1 3 4 8 1 0 1 4 -
p67
aVRalph Sampson HOU 04/30/1987 HOU vs. POR W 35 18 8 15 53.3 0 0 - 2 2 100.0 3 7 10 3 0 0 0 5 -
p68
aVHakeem Olajuwon HOU 04/30/1987 HOU vs. POR W 37 27 11 19 57.9 0 0 - 5 9 55.6 5 4 9 5 4 5 4 5 -
p69
aVJim Petersen HOU 04/30/1987 HOU vs. POR W 15 7 2 3 66.7 0 0 - 3 6 50.0 1 3 4 0 0 0 2 4 -
p70
aVRichard Anderson HOU 04/30/1987 HOU vs. POR W 1 0 0 0 - 0 0 - 0 0 - 0 0 0 0 0 0 1 0 -
p71
aVCedric Maxwell HOU 04/30/1987 HOU vs. POR W 26 6 1 5 20.0 0 0 - 4 4 100.0 2 4 6 6 1 0 1 0 -
p72
aVDirk Minniefield HOU 04/30/1987 HOU vs. POR W 1 0 0 0 - 0 0 - 0 0 - 0 0 0 0 0 0 0 1 -
p73
aVHakeem Olajuwon HOU 04/28/1987 HOU vs. POR W 43 35 11 18 61.1 0 0 - 13 16 81.3 4 7 11 3 1 8 4 5 -
p74
aVAllen Leavell HOU 04/28/1987 HOU vs. POR W 39 14 5 12 41.7 0 1 0.0 4 4 100.0 1 0 1 13 4 0 1 4 -
p75
aVRalph Sampson HOU 04/28/1987 HOU vs. POR W 23 10 4 9 44.4 0 0 - 2 2 100.0 1 5 6 3 0 1 0 5 -
p76
aVRobert Reid HOU 04/28/1987 HOU vs. POR W 48 17 7 18 38.9 0 3 0.0 3 4 75.0 1 3 4 4 0 0 8 4 -
p77
aVRodney McCray HOU 04/28/1987 HOU vs. POR W 35 18 4 7 57.1 0 0 - 10 10 100.0 2 4 6 2 0 0 1 5 -
p78
aVCedric Maxwell HOU 04/28/1987 HOU vs. POR W 20 15 5 7 71.4 0 0 - 5 5 100.0 3 3 6 1 0 0 1 1 -
p79
aVJim Petersen HOU 04/28/1987 HOU vs. POR W 25 6 2 6 33.3 0 0 - 2 2 100.0 1 3 4 2 0 0 0 6 -
p80
aVDirk Minniefield HOU 04/28/1987 HOU vs. POR W 3 0 0 1 0.0 0 0 - 0 0 - 0 0 0 0 1 0 0 0 -
p81
aVDave Feitl HOU 04/28/1987 HOU vs. POR W 1 0 0 0 - 0 0 - 0 0 - 0 0 0 0 0 0 0 0 -
p82
aVBuck Johnson HOU 04/28/1987 HOU vs. POR W 3 2 1 4 25.0 0 0 - 0 0 - 0 0 0 0 0 0 0 0 -
p83
aVSteve Harris HOU 04/26/1987 HOU @ POR L 5 2 1 4 25.0 0 0 - 0 0 - 1 0 1 0 0 0 0 1 -
p84
aVAllen Leavell HOU 04/26/1987 HOU @ POR L 46 28 9 14 64.3 1 2 50.0 9 11 81.8 2 1 3 8 1 0 6 4 -
p85
aVRodney McCray HOU 04/26/1987 HOU @ POR L 44 17 7 10 70.0 0 0 - 3 6 50.0 4 8 12 3 0 0 3 3 -
p86
aVBuck Johnson HOU 04/26/1987 HOU @ POR L 1 0 0 0 - 0 0 - 0 0 - 0 0 0 0 0 0 1 0 -
p87
aVRalph Sampson HOU 04/26/1987 HOU @ POR L 38 28 12 22 54.5 0 0 - 4 7 57.1 4 7 11 2 0 1 5 5 -
p88
aVHakeem Olajuwon HOU 04/26/1987 HOU @ POR L 29 17 4 8 50.0 0 0 - 9 9 100.0 3 4 7 3 1 2 2 6 -
p89
aVRichard Anderson HOU 04/26/1987 HOU @ POR L 1 2 0 0 - 0 0 - 2 2 100.0 1 0 1 0 0 0 0 0 -
p90
aVDave Feitl HOU 04/26/1987 HOU @ POR L 1 0 0 0 - 0 0 - 0 0 - 0 0 0 0 0 0 0 0 -
p91
aVCedric Maxwell HOU 04/26/1987 HOU @ POR L 8 0 0 0 - 0 0 - 0 2 0.0 0 1 1 0 0 0 0 1 -
p92
aVRobert Reid HOU 04/26/1987 HOU @ POR L 40 2 1 13 7.7 0 1 0.0 0 0 - 0 5 5 6 2 0 3 3 -
p93
aVDirk Minniefield HOU 04/26/1987 HOU @ POR L 2 0 0 1 0.0 0 1 0.0 0 0 - 0 0 0 0 0 0 2 0 -
p94
aVJim Petersen HOU 04/26/1987 HOU @ POR L 25 2 1 3 33.3 0 0 - 0 0 - 2 5 7 1 1 0 2 3 -
p95
aVRalph Sampson HOU 04/24/1987 HOU @ POR W 39 23 9 17 52.9 0 1 0.0 5 6 83.3 2 4 6 8 1 2 4 5 -
p96
aVCedric Maxwell HOU 04/24/1987 HOU @ POR W 15 10 3 5 60.0 0 0 - 4 5 80.0 2 2 4 4 1 0 0 0 -
p97
aVRodney McCray HOU 04/24/1987 HOU @ POR W 40 7 3 11 27.3 0 0 - 1 1 100.0 4 4 8 4 0 2 0 1 -
p98
aVAllen Leavell HOU 04/24/1987 HOU @ POR W 41 22 9 16 56.3 2 3 66.7 2 2 100.0 1 2 3 10 4 1 3 5 -
p99
aVSteve Harris HOU 04/24/1987 HOU @ POR W 8 2 1 4 25.0 0 0 - 0 0 - 0 1 1 0 0 0 1 5 -
p100
aVJim Petersen HOU 04/24/1987 HOU @ POR W 22 14 7 9 77.8 0 0 - 0 0 - 1 2 3 0 1 1 2 2 -
p101
aVDirk Minniefield HOU 04/24/1987 HOU @ POR W 1 0 0 0 - 0 0 - 0 0 - 0 0 0 0 0 0 0 0 -
p102
aVHakeem Olajuwon HOU 04/24/1987 HOU @ POR W 35 30 13 16 81.3 0 0 - 4 5 80.0 3 7 10 6 4 5 2 5 -
p103
aVRobert Reid HOU 04/24/1987 HOU @ POR W 39 17 8 15 53.3 1 3 33.3 0 0 - 1 2 3 4 2 1 2 4 -
p104
a.