(lp0
VPLAYER TEAM DATE MATCHUP W/L MIN PTS FGM FGA FG% 3PM 3PA 3P% FTM FTA FT% OREB DREB REB AST STL BLK TOV PF +/-
p1
aVDavid Wingate PHL 05/03/1987 PHL @ MIL L 28 10 3 9 33.3 1 1 100.0 3 6 50.0 2 0 2 5 3 1 1 2 -
p2
aVSteve Colter PHL 05/03/1987 PHL @ MIL L 2 0 0 0 - 0 0 - 0 0 - 0 0 0 1 0 0 0 1 -
p3
aVTim McCormick PHL 05/03/1987 PHL @ MIL L 17 4 2 4 50.0 0 0 - 0 0 - 2 1 3 1 0 1 0 2 -
p4
aVCharles Barkley PHL 05/03/1987 PHL @ MIL L 43 12 5 16 31.3 0 3 0.0 2 2 100.0 6 7 13 1 0 0 4 4 -
p5
aVAndrew Toney PHL 05/03/1987 PHL @ MIL L 9 0 0 3 0.0 0 1 0.0 0 0 - 0 2 2 3 0 1 2 0 -
p6
aVRoy Hinson PHL 05/03/1987 PHL @ MIL L 27 8 3 8 37.5 0 0 - 2 4 50.0 1 5 6 0 0 1 0 3 -
p7
aVDanny Vranes PHL 05/03/1987 PHL @ MIL L 2 0 0 0 - 0 0 - 0 0 - 0 3 3 0 0 0 0 1 -
p8
aVCliff T. Robinson PHL 05/03/1987 PHL @ MIL L 29 17 8 18 44.4 0 0 - 1 2 50.0 2 7 9 2 1 0 0 2 -
p9
aVJulius Erving PHL 05/03/1987 PHL @ MIL L 40 24 10 24 41.7 1 2 50.0 3 5 60.0 2 2 4 2 3 0 1 3 -
p10
aVMaurice Cheeks PHL 05/03/1987 PHL @ MIL L 41 12 4 14 28.6 0 0 - 4 4 100.0 0 3 3 5 0 2 3 4 -
p11
aVMark McNamara PHL 05/03/1987 PHL @ MIL L 2 2 1 1 100.0 0 0 - 0 0 - 0 1 1 0 0 0 0 0 -
p12
aVJulius Erving PHL 05/01/1987 PHL vs. MIL W 31 22 7 14 50.0 0 1 0.0 8 8 100.0 4 3 7 6 1 2 1 4 -
p13
aVAndrew Toney PHL 05/01/1987 PHL vs. MIL W 18 2 1 2 50.0 0 0 - 0 0 - 0 1 1 4 0 1 2 2 -
p14
aVDavid Wingate PHL 05/01/1987 PHL vs. MIL W 27 16 5 14 35.7 1 1 100.0 5 5 100.0 1 4 5 2 1 0 5 2 -
p15
aVRoy Hinson PHL 05/01/1987 PHL vs. MIL W 27 13 4 7 57.1 0 0 - 5 9 55.6 1 2 3 0 0 4 1 2 -
p16
aVCliff T. Robinson PHL 05/01/1987 PHL vs. MIL W 33 21 8 16 50.0 0 0 - 5 5 100.0 5 6 11 0 1 3 2 2 -
p17
aVCharles Barkley PHL 05/01/1987 PHL vs. MIL W 41 25 8 10 80.0 0 0 - 9 14 64.3 7 6 13 4 0 2 4 4 -
p18
aVMaurice Cheeks PHL 05/01/1987 PHL vs. MIL W 40 13 3 10 30.0 0 0 - 7 7 100.0 0 1 1 11 3 1 3 5 -
p19
aVTim McCormick PHL 05/01/1987 PHL vs. MIL W 23 12 5 5 100.0 0 0 - 2 2 100.0 0 5 5 3 1 0 0 5 -
p20
aVTim McCormick PHL 04/29/1987 PHL vs. MIL L 26 6 3 7 42.9 0 0 - 0 0 - 2 6 8 0 0 0 2 4 -
p21
aVAndrew Toney PHL 04/29/1987 PHL vs. MIL L 27 6 3 7 42.9 0 0 - 0 0 - 0 1 1 8 1 0 3 4 -
p22
aVRoy Hinson PHL 04/29/1987 PHL vs. MIL L 34 17 6 11 54.5 0 0 - 5 8 62.5 1 2 3 0 3 2 1 3 -
p23
aVCliff T. Robinson PHL 04/29/1987 PHL vs. MIL L 21 10 4 11 36.4 0 0 - 2 2 100.0 2 8 10 2 0 3 2 4 -
p24
aVDavid Wingate PHL 04/29/1987 PHL vs. MIL L 11 4 2 5 40.0 0 0 - 0 0 - 1 0 1 2 1 0 1 0 -
p25
aVJulius Erving PHL 04/29/1987 PHL vs. MIL L 31 12 4 9 44.4 0 2 0.0 4 5 80.0 2 2 4 6 2 2 4 4 -
p26
aVMaurice Cheeks PHL 04/29/1987 PHL vs. MIL L 45 26 12 18 66.7 0 1 0.0 2 3 66.7 1 2 3 8 1 0 2 1 -
p27
aVCharles Barkley PHL 04/29/1987 PHL vs. MIL L 45 39 13 19 68.4 0 1 0.0 13 14 92.9 4 5 9 2 2 0 2 5 -
p28
aVTim McCormick PHL 04/26/1987 PHL @ MIL W 21 0 0 2 0.0 0 0 - 0 0 - 2 4 6 2 0 0 2 4 -
p29
aVCliff T. Robinson PHL 04/26/1987 PHL @ MIL W 15 6 2 4 50.0 0 0 - 2 2 100.0 0 3 3 1 0 0 2 3 -
p30
aVSteve Colter PHL 04/26/1987 PHL @ MIL W 6 2 1 2 50.0 0 0 - 0 0 - 0 0 0 1 0 0 0 0 -
p31
aVCharles Barkley PHL 04/26/1987 PHL @ MIL W 45 26 9 15 60.0 0 1 0.0 8 11 72.7 6 9 15 3 1 0 6 4 -
p32
aVMaurice Cheeks PHL 04/26/1987 PHL @ MIL W 46 17 7 10 70.0 0 0 - 3 5 60.0 0 4 4 11 4 0 2 1 -
p33
aVDavid Wingate PHL 04/26/1987 PHL @ MIL W 18 11 5 9 55.6 0 0 - 1 3 33.3 1 2 3 0 0 0 2 6 -
p34
aVRoy Hinson PHL 04/26/1987 PHL @ MIL W 47 28 10 14 71.4 0 0 - 8 12 66.7 3 5 8 3 1 1 0 5 -
p35
aVAndrew Toney PHL 04/26/1987 PHL @ MIL W 26 12 6 14 42.9 0 1 0.0 0 0 - 0 0 0 3 1 0 4 6 -
p36
aVDanny Vranes PHL 04/26/1987 PHL @ MIL W 1 0 0 0 - 0 0 - 0 0 - 0 0 0 0 0 0 0 0 -
p37
aVJulius Erving PHL 04/26/1987 PHL @ MIL W 40 23 8 17 47.1 1 1 100.0 6 7 85.7 2 3 5 2 0 1 2 5 -
p38
aVDavid Wingate PHL 04/24/1987 PHL @ MIL L 6 0 0 0 - 0 0 - 0 0 - 0 1 1 0 0 0 0 1 -
p39
aVTim McCormick PHL 04/24/1987 PHL @ MIL L 34 6 2 6 33.3 0 0 - 2 2 100.0 1 8 9 0 0 1 3 4 -
p40
aVJulius Erving PHL 04/24/1987 PHL @ MIL L 35 10 5 18 27.8 0 0 - 0 0 - 4 1 5 1 1 1 1 3 -
p41
aVCharles Barkley PHL 04/24/1987 PHL @ MIL L 36 21 8 15 53.3 1 3 33.3 4 4 100.0 4 9 13 2 1 6 6 4 -
p42
aVMaurice Cheeks PHL 04/24/1987 PHL @ MIL L 38 20 9 14 64.3 0 0 - 2 2 100.0 0 2 2 9 1 1 2 3 -
p43
aVAndrew Toney PHL 04/24/1987 PHL @ MIL L 27 8 3 8 37.5 0 1 0.0 2 2 100.0 2 3 5 9 0 0 5 4 -
p44
aVRoy Hinson PHL 04/24/1987 PHL @ MIL L 24 20 8 12 66.7 0 0 - 4 5 80.0 0 3 3 0 0 2 0 5 -
p45
aVCliff T. Robinson PHL 04/24/1987 PHL @ MIL L 40 19 8 12 66.7 0 0 - 3 4 75.0 1 9 10 1 1 1 2 4 -
p46
a.