(lp0
VPLAYER TEAM DATE MATCHUP W/L MIN PTS FGM FGA FG% 3PM 3PA 3P% FTM FTA FT% OREB DREB REB AST STL BLK TOV PF +/-
p1
aVMark Aguirre DAL 04/30/1987 DAL @ SEA L 31 13 4 13 30.8 0 0 - 5 8 62.5 6 2 8 3 2 0 1 3 -
p2
aVDerek Harper DAL 04/30/1987 DAL @ SEA L 33 5 1 7 14.3 0 2 0.0 3 4 75.0 0 3 3 5 0 0 0 2 -
p3
aVRolando Blackman DAL 04/30/1987 DAL @ SEA L 44 25 11 21 52.4 0 0 - 3 3 100.0 0 1 1 3 0 0 3 2 -
p4
aVBrad Davis DAL 04/30/1987 DAL @ SEA L 19 10 4 7 57.1 0 1 0.0 2 2 100.0 1 4 5 2 0 0 1 0 -
p5
aVBill Wennington DAL 04/30/1987 DAL @ SEA L 15 3 1 7 14.3 0 0 - 1 2 50.0 3 2 5 1 0 0 0 4 -
p6
aVDetlef Schrempf DAL 04/30/1987 DAL @ SEA L 23 6 3 10 30.0 0 1 0.0 0 0 - 0 0 0 1 1 0 1 4 -
p7
aVRoy Tarpley DAL 04/30/1987 DAL @ SEA L 37 12 6 19 31.6 0 0 - 0 0 - 9 8 17 0 1 1 3 5 -
p8
aVSam Perkins DAL 04/30/1987 DAL @ SEA L 38 24 9 21 42.9 0 3 0.0 6 6 100.0 7 5 12 1 1 0 6 4 -
p9
aVMark Aguirre DAL 04/28/1987 DAL @ SEA L 35 16 5 12 41.7 0 4 0.0 6 9 66.7 2 4 6 0 3 0 4 6 -
p10
aVRolando Blackman DAL 04/28/1987 DAL @ SEA L 40 27 10 21 47.6 0 1 0.0 7 8 87.5 2 3 5 4 1 0 2 3 -
p11
aVRoy Tarpley DAL 04/28/1987 DAL @ SEA L 15 2 1 3 33.3 0 0 - 0 0 - 2 4 6 0 0 0 0 6 -
p12
aVSam Perkins DAL 04/28/1987 DAL @ SEA L 39 15 5 11 45.5 0 1 0.0 5 9 55.6 1 10 11 2 2 0 2 4 -
p13
aVDerek Harper DAL 04/28/1987 DAL @ SEA L 34 30 10 15 66.7 1 2 50.0 9 12 75.0 2 2 4 8 2 0 2 2 -
p14
aVBill Wennington DAL 04/28/1987 DAL @ SEA L 11 2 1 1 100.0 0 0 - 0 0 - 0 0 0 0 0 1 0 2 -
p15
aVBrad Davis DAL 04/28/1987 DAL @ SEA L 20 6 3 6 50.0 0 0 - 0 0 - 0 0 0 1 0 0 2 3 -
p16
aVDetlef Schrempf DAL 04/28/1987 DAL @ SEA L 31 9 3 12 25.0 0 1 0.0 3 4 75.0 2 0 2 1 0 1 0 5 -
p17
aVJames Donaldson DAL 04/28/1987 DAL @ SEA L 15 0 0 0 - 0 0 - 0 0 - 0 1 1 0 0 0 0 1 -
p18
aVRoy Tarpley DAL 04/25/1987 DAL vs. SEA L 30 14 7 11 63.6 0 0 - 0 0 - 4 4 8 0 0 3 4 2 -
p19
aVJames Donaldson DAL 04/25/1987 DAL vs. SEA L 28 1 0 1 0.0 0 0 - 1 2 50.0 1 6 7 1 0 1 1 3 -
p20
aVRolando Blackman DAL 04/25/1987 DAL vs. SEA L 42 24 7 16 43.8 0 0 - 10 11 90.9 1 4 5 3 1 0 3 2 -
p21
aVSam Perkins DAL 04/25/1987 DAL vs. SEA L 34 17 7 10 70.0 0 0 - 3 6 50.0 1 6 7 1 1 0 1 5 -
p22
aVBrad Davis DAL 04/25/1987 DAL vs. SEA L 19 7 3 5 60.0 0 1 0.0 1 2 50.0 0 1 1 5 0 0 1 0 -
p23
aVBill Wennington DAL 04/25/1987 DAL vs. SEA L 4 0 0 0 - 0 0 - 0 0 - 0 0 0 1 0 1 0 1 -
p24
aVMark Aguirre DAL 04/25/1987 DAL vs. SEA L 36 28 10 17 58.8 0 0 - 8 9 88.9 2 3 5 1 0 0 4 3 -
p25
aVDerek Harper DAL 04/25/1987 DAL vs. SEA L 33 13 2 8 25.0 1 5 20.0 8 9 88.9 0 3 3 8 1 0 2 2 -
p26
aVDetlef Schrempf DAL 04/25/1987 DAL vs. SEA L 14 6 3 3 100.0 0 0 - 0 0 - 0 3 3 0 2 1 2 1 -
p27
aVDerek Harper DAL 04/23/1987 DAL vs. SEA W 23 18 7 10 70.0 0 0 - 4 5 80.0 0 2 2 6 4 0 1 1 -
p28
aVSam Perkins DAL 04/23/1987 DAL vs. SEA W 22 12 5 10 50.0 0 0 - 2 2 100.0 3 1 4 1 0 1 0 3 -
p29
aVMark Aguirre DAL 04/23/1987 DAL vs. SEA W 28 28 12 20 60.0 0 0 - 4 4 100.0 1 4 5 4 3 0 0 3 -
p30
aVUwe Blab DAL 04/23/1987 DAL vs. SEA W 10 3 1 1 100.0 0 0 - 1 4 25.0 1 2 3 0 1 1 2 4 -
p31
aVBrad Davis DAL 04/23/1987 DAL vs. SEA W 17 10 3 5 60.0 0 0 - 4 5 80.0 1 2 3 9 0 0 2 1 -
p32
aVDennis Nutt DAL 04/23/1987 DAL vs. SEA W 10 2 1 5 20.0 0 2 0.0 0 0 - 1 1 2 1 0 0 1 0 -
p33
aVJames Donaldson DAL 04/23/1987 DAL vs. SEA W 25 15 4 4 100.0 0 0 - 7 7 100.0 1 8 9 1 1 2 1 2 -
p34
aVRolando Blackman DAL 04/23/1987 DAL vs. SEA W 27 18 8 15 53.3 0 0 - 2 2 100.0 1 2 3 7 0 0 0 0 -
p35
aVRoy Tarpley DAL 04/23/1987 DAL vs. SEA W 32 25 10 15 66.7 0 0 - 5 7 71.4 3 8 11 1 0 3 0 5 -
p36
aVDetlef Schrempf DAL 04/23/1987 DAL vs. SEA W 29 10 4 10 40.0 0 1 0.0 2 7 28.6 2 5 7 4 0 0 3 3 -
p37
aVBill Wennington DAL 04/23/1987 DAL vs. SEA W 17 10 4 4 100.0 0 0 - 2 3 66.7 1 4 5 2 0 1 3 2 -
p38
a.