(lp0
VPLAYER TEAM DATE MATCHUP W/L MIN PTS FGM FGA FG% 3PM 3PA 3P% FTM FTA FT% OREB DREB REB AST STL BLK TOV PF +/-
p1
aVVinnie Johnson DET 05/30/1987 DET @ BOS L 22 10 5 12 41.7 0 1 0.0 0 0 - 0 2 2 4 1 0 1 1 -
p2
aVRick Mahorn DET 05/30/1987 DET @ BOS L 34 7 3 5 60.0 0 0 - 1 2 50.0 2 5 7 0 0 0 0 5 -
p3
aVAdrian Dantley DET 05/30/1987 DET @ BOS L 31 18 5 11 45.5 0 0 - 8 8 100.0 2 3 5 2 3 0 3 3 -
p4
aVTony Campbell DET 05/30/1987 DET @ BOS L 1 0 0 0 - 0 0 - 0 0 - 0 0 0 0 0 0 0 0 -
p5
aVJohn Salley DET 05/30/1987 DET @ BOS L 23 7 2 4 50.0 0 0 - 3 6 50.0 4 3 7 0 0 0 0 4 -
p6
aVJoe Dumars DET 05/30/1987 DET @ BOS L 38 35 15 21 71.4 2 2 100.0 3 7 42.9 1 1 2 6 0 0 1 3 -
p7
aVBill Laimbeer DET 05/30/1987 DET @ BOS L 37 9 4 6 66.7 0 0 - 1 2 50.0 1 12 13 2 2 2 1 5 -
p8
aVIsiah Thomas DET 05/30/1987 DET @ BOS L 34 25 10 28 35.7 0 1 0.0 5 7 71.4 2 2 4 9 0 0 1 6 -
p9
aVSidney Green DET 05/30/1987 DET @ BOS L 2 0 0 0 - 0 0 - 0 0 - 0 0 0 0 0 0 0 0 -
p10
aVDennis Rodman DET 05/30/1987 DET @ BOS L 18 3 1 2 50.0 0 0 - 1 1 100.0 0 0 0 0 1 3 1 4 -
p11
aVAdrian Dantley DET 05/28/1987 DET vs. BOS W 34 24 7 14 50.0 0 0 - 10 17 58.8 2 1 3 2 0 0 4 1 -
p12
aVJohn Salley DET 05/28/1987 DET vs. BOS W 24 4 2 4 50.0 0 0 - 0 0 - 2 2 4 0 1 1 0 4 -
p13
aVVinnie Johnson DET 05/28/1987 DET vs. BOS W 27 24 9 15 60.0 0 0 - 6 6 100.0 1 2 3 4 1 0 3 1 -
p14
aVIsiah Thomas DET 05/28/1987 DET vs. BOS W 35 21 10 19 52.6 0 0 - 1 3 33.3 2 3 5 9 1 0 0 4 -
p15
aVJoe Dumars DET 05/28/1987 DET vs. BOS W 34 8 2 6 33.3 0 0 - 4 4 100.0 0 1 1 4 2 0 0 1 -
p16
aVDennis Rodman DET 05/28/1987 DET vs. BOS W 17 6 3 3 100.0 0 0 - 0 0 - 0 5 5 0 0 1 1 5 -
p17
aVRick Mahorn DET 05/28/1987 DET vs. BOS W 35 14 6 9 66.7 0 0 - 2 6 33.3 5 13 18 1 0 0 2 4 -
p18
aVBill Laimbeer DET 05/28/1987 DET vs. BOS W 34 12 6 9 66.7 0 0 - 0 0 - 1 9 10 1 1 0 3 2 -
p19
aVBill Laimbeer DET 05/26/1987 DET @ BOS L 43 16 7 20 35.0 0 0 - 2 4 50.0 1 13 14 6 2 1 3 5 -
p20
aVRick Mahorn DET 05/26/1987 DET @ BOS L 25 4 2 3 66.7 0 0 - 0 0 - 0 4 4 0 0 0 1 5 -
p21
aVVinnie Johnson DET 05/26/1987 DET @ BOS L 27 20 8 13 61.5 0 0 - 4 4 100.0 1 1 2 3 1 0 0 1 -
p22
aVJohn Salley DET 05/26/1987 DET @ BOS L 17 7 3 8 37.5 0 0 - 1 2 50.0 4 4 8 2 0 0 1 6 -
p23
aVIsiah Thomas DET 05/26/1987 DET @ BOS L 43 17 6 16 37.5 0 2 0.0 5 8 62.5 1 2 3 11 3 0 4 5 -
p24
aVSidney Green DET 05/26/1987 DET @ BOS L 1 0 0 0 - 0 0 - 0 0 - 0 0 0 0 0 0 0 0 -
p25
aVAdrian Dantley DET 05/26/1987 DET @ BOS L 37 25 10 15 66.7 0 0 - 5 5 100.0 1 2 3 2 2 0 2 4 -
p26
aVDennis Rodman DET 05/26/1987 DET @ BOS L 21 14 7 7 100.0 0 0 - 0 0 - 0 3 3 1 0 1 2 5 -
p27
aVJoe Dumars DET 05/26/1987 DET @ BOS L 26 4 2 5 40.0 0 0 - 0 0 - 0 1 1 6 0 0 2 1 -
p28
aVKurt Nimphius DET 05/24/1987 DET vs. BOS W 4 2 1 1 100.0 0 0 - 0 0 - 1 0 1 0 0 0 0 2 -
p29
aVAdrian Dantley DET 05/24/1987 DET vs. BOS W 33 32 11 15 73.3 0 0 - 10 12 83.3 2 2 4 6 1 0 2 2 -
p30
aVRick Mahorn DET 05/24/1987 DET vs. BOS W 35 17 8 11 72.7 0 0 - 1 1 100.0 1 5 6 0 0 2 3 2 -
p31
aVJohn Salley DET 05/24/1987 DET vs. BOS W 21 4 2 5 40.0 0 0 - 0 0 - 0 1 1 1 0 1 0 3 -
p32
aVDennis Rodman DET 05/24/1987 DET vs. BOS W 15 6 3 5 60.0 0 0 - 0 0 - 3 3 6 0 0 1 0 2 -
p33
aVSidney Green DET 05/24/1987 DET vs. BOS W 3 2 1 2 50.0 0 0 - 0 0 - 1 0 1 1 0 0 0 0 -
p34
aVVinnie Johnson DET 05/24/1987 DET vs. BOS W 30 25 12 20 60.0 0 0 - 1 4 25.0 4 3 7 7 0 0 1 2 -
p35
aVJoe Dumars DET 05/24/1987 DET vs. BOS W 28 13 5 7 71.4 0 0 - 3 4 75.0 0 2 2 8 1 0 1 3 -
p36
aVIsiah Thomas DET 05/24/1987 DET vs. BOS W 34 22 8 15 53.3 2 5 40.0 4 6 66.7 0 2 2 8 1 0 0 3 -
p37
aVTony Campbell DET 05/24/1987 DET vs. BOS W 4 2 0 2 0.0 0 0 - 2 2 100.0 0 1 1 0 0 0 0 1 -
p38
aVBill Laimbeer DET 05/24/1987 DET vs. BOS W 33 20 10 13 76.9 0 0 - 0 0 - 1 12 13 3 2 0 0 4 -
p39
aVIsiah Thomas DET 05/23/1987 DET vs. BOS W 32 23 9 19 47.4 1 2 50.0 4 6 66.7 0 0 0 7 2 0 0 2 -
p40
aVTony Campbell DET 05/23/1987 DET vs. BOS W 1 0 0 1 0.0 0 0 - 0 0 - 0 1 1 0 0 0 0 0 -
p41
aVJoe Dumars DET 05/23/1987 DET vs. BOS W 39 15 6 10 60.0 0 0 - 3 4 75.0 1 0 1 3 0 0 3 1 -
p42
aVDennis Rodman DET 05/23/1987 DET vs. BOS W 20 3 1 3 33.3 0 0 - 1 4 25.0 3 3 6 0 0 1 1 4 -
p43
aVKurt Nimphius DET 05/23/1987 DET vs. BOS W 4 2 0 0 - 0 0 - 2 4 50.0 0 0 0 0 0 0 1 1 -
p44
aVRick Mahorn DET 05/23/1987 DET vs. BOS W 33 6 3 5 60.0 0 0 - 0 0 - 1 11 12 1 2 0 1 3 -
p45
aVChuck Nevitt DET 05/23/1987 DET vs. BOS W 1 2 1 1 100.0 0 0 - 0 0 - 0 0 0 0 0 1 0 0 -
p46
aVAdrian Dantley DET 05/23/1987 DET vs. BOS W 28 25 11 16 68.8 0 0 - 3 4 75.0 0 1 1 1 0 0 0 2 -
p47
aVBill Laimbeer DET 05/23/1987 DET vs. BOS W 30 18 8 12 66.7 0 0 - 2 2 100.0 3 5 8 5 1 1 1 3 -
p48
aVVinnie Johnson DET 05/23/1987 DET vs. BOS W 24 14 6 16 37.5 0 0 - 2 2 100.0 2 1 3 8 1 0 1 5 -
p49
aVJohn Salley DET 05/23/1987 DET vs. BOS W 28 14 4 8 50.0 0 0 - 6 6 100.0 3 4 7 1 1 0 1 3 -
p50
aVSidney Green DET 05/21/1987 DET @ BOS L 2 0 0 1 0.0 0 0 - 0 0 - 0 1 1 0 0 0 0 0 -
p51
aVAdrian Dantley DET 05/21/1987 DET @ BOS L 40 24 9 16 56.3 0 0 - 6 10 60.0 3 5 8 3 1 0 2 2 -
p52
aVJoe Dumars DET 05/21/1987 DET @ BOS L 35 18 9 15 60.0 0 0 - 0 0 - 0 0 0 2 1 0 3 3 -
p53
aVRick Mahorn DET 05/21/1987 DET @ BOS L 24 3 1 3 33.3 0 0 - 1 1 100.0 2 2 4 1 1 0 1 6 -
p54
aVDennis Rodman DET 05/21/1987 DET @ BOS L 13 2 1 2 50.0 0 0 - 0 2 0.0 0 2 2 1 0 1 1 4 -
p55
aVBill Laimbeer DET 05/21/1987 DET @ BOS L 38 2 1 6 16.7 0 0 - 0 0 - 1 16 17 1 0 0 1 6 -
p56
aVIsiah Thomas DET 05/21/1987 DET @ BOS L 43 36 11 21 52.4 1 2 50.0 13 17 76.5 3 2 5 10 2 0 5 3 -
p57
aVVinnie Johnson DET 05/21/1987 DET @ BOS L 18 14 7 11 63.6 0 0 - 0 0 - 1 1 2 1 0 0 0 5 -
p58
aVJohn Salley DET 05/21/1987 DET @ BOS L 27 2 1 6 16.7 0 0 - 0 2 0.0 3 4 7 1 0 0 1 5 -
p59
aVIsiah Thomas DET 05/19/1987 DET @ BOS L 40 18 6 24 25.0 0 3 0.0 6 6 100.0 3 4 7 10 3 2 2 3 -
p60
aVJohn Salley DET 05/19/1987 DET @ BOS L 25 7 3 5 60.0 0 0 - 1 3 33.3 3 3 6 1 0 0 3 5 -
p61
aVAdrian Dantley DET 05/19/1987 DET @ BOS L 38 17 7 17 41.2 0 0 - 3 4 75.0 3 1 4 2 1 0 3 3 -
p62
aVDennis Rodman DET 05/19/1987 DET @ BOS L 10 0 0 1 0.0 0 0 - 0 0 - 0 2 2 0 0 1 1 4 -
p63
aVBill Laimbeer DET 05/19/1987 DET @ BOS L 32 10 5 12 41.7 0 1 0.0 0 1 0.0 5 5 10 1 0 1 0 4 -
p64
aVVinnie Johnson DET 05/19/1987 DET @ BOS L 25 15 7 15 46.7 0 0 - 1 1 100.0 2 2 4 2 1 0 3 1 -
p65
aVJoe Dumars DET 05/19/1987 DET @ BOS L 31 10 5 10 50.0 0 1 0.0 0 2 0.0 0 1 1 3 1 1 3 0 -
p66
aVRick Mahorn DET 05/19/1987 DET @ BOS L 39 14 7 11 63.6 0 0 - 0 0 - 3 8 11 0 0 2 1 5 -
p67
aVRick Mahorn DET 05/13/1987 DET @ ATL W 35 10 2 8 25.0 0 0 - 6 6 100.0 5 11 16 0 0 1 1 3 -
p68
aVAdrian Dantley DET 05/13/1987 DET @ ATL W 31 17 7 15 46.7 0 0 - 3 4 75.0 2 2 4 2 0 0 2 3 -
p69
aVJohn Salley DET 05/13/1987 DET @ ATL W 27 7 2 3 66.7 0 0 - 3 4 75.0 2 3 5 0 0 2 1 3 -
p70
aVVinnie Johnson DET 05/13/1987 DET @ ATL W 28 17 6 14 42.9 0 0 - 5 6 83.3 3 4 7 2 1 0 3 3 -
p71
aVDennis Rodman DET 05/13/1987 DET @ ATL W 17 6 2 4 50.0 0 0 - 2 2 100.0 0 1 1 0 1 1 2 4 -
p72
aVJoe Dumars DET 05/13/1987 DET @ ATL W 27 21 7 10 70.0 0 0 - 7 7 100.0 0 0 0 1 2 0 2 0 -
p73
aVBill Laimbeer DET 05/13/1987 DET @ ATL W 34 7 3 8 37.5 0 1 0.0 1 3 33.3 3 3 6 2 3 2 1 4 -
p74
aVIsiah Thomas DET 05/13/1987 DET @ ATL W 41 19 6 23 26.1 0 3 0.0 7 9 77.8 3 5 8 12 2 0 1 3 -
p75
aVIsiah Thomas DET 05/10/1987 DET vs. ATL W 43 31 12 24 50.0 1 1 100.0 6 9 66.7 1 2 3 3 3 0 5 2 -
p76
aVJohn Salley DET 05/10/1987 DET vs. ATL W 23 2 1 3 33.3 0 0 - 0 0 - 1 3 4 0 1 2 0 3 -
p77
aVJoe Dumars DET 05/10/1987 DET vs. ATL W 30 5 2 6 33.3 0 0 - 1 2 50.0 1 1 2 5 1 0 1 2 -
p78
aVAdrian Dantley DET 05/10/1987 DET vs. ATL W 42 19 6 12 50.0 0 0 - 7 8 87.5 1 4 5 2 2 0 5 4 -
p79
aVBill Laimbeer DET 05/10/1987 DET vs. ATL W 32 10 4 8 50.0 0 0 - 2 4 50.0 1 12 13 1 0 0 2 5 -
p80
aVVinnie Johnson DET 05/10/1987 DET vs. ATL W 23 4 2 9 22.2 0 0 - 0 0 - 0 0 0 4 1 0 1 2 -
p81
aVRick Mahorn DET 05/10/1987 DET vs. ATL W 41 12 2 7 28.6 0 1 0.0 8 8 100.0 6 11 17 1 1 2 2 4 -
p82
aVDennis Rodman DET 05/10/1987 DET vs. ATL W 6 6 2 4 50.0 0 0 - 2 2 100.0 1 0 1 0 0 0 0 2 -
p83
aVIsiah Thomas DET 05/08/1987 DET vs. ATL W 32 35 11 23 47.8 1 5 20.0 12 14 85.7 3 5 8 8 5 0 5 4 -
p84
aVJohn Salley DET 05/08/1987 DET vs. ATL W 26 15 3 7 42.9 0 0 - 9 12 75.0 2 4 6 3 0 3 1 5 -
p85
aVVinnie Johnson DET 05/08/1987 DET vs. ATL W 26 4 2 8 25.0 0 0 - 0 0 - 0 1 1 3 0 1 2 2 -
p86
aVBill Laimbeer DET 05/08/1987 DET vs. ATL W 43 14 7 16 43.8 0 0 - 0 0 - 3 4 7 2 0 0 1 1 -
p87
aVAdrian Dantley DET 05/08/1987 DET vs. ATL W 31 16 5 13 38.5 0 0 - 6 7 85.7 5 0 5 2 1 0 0 3 -
p88
aVRick Mahorn DET 05/08/1987 DET vs. ATL W 25 6 3 6 50.0 0 0 - 0 0 - 1 5 6 0 0 1 0 4 -
p89
aVJoe Dumars DET 05/08/1987 DET vs. ATL W 38 6 2 5 40.0 0 0 - 2 2 100.0 2 0 2 5 1 0 3 3 -
p90
aVDennis Rodman DET 05/08/1987 DET vs. ATL W 19 12 5 8 62.5 0 0 - 2 4 50.0 4 5 9 0 1 1 0 3 -
p91
aVIsiah Thomas DET 05/05/1987 DET @ ATL L 34 20 5 13 38.5 0 2 0.0 10 11 90.9 0 3 3 6 5 0 5 5 -
p92
aVVinnie Johnson DET 05/05/1987 DET @ ATL L 32 17 6 14 42.9 0 0 - 5 6 83.3 1 1 2 5 0 0 1 5 -
p93
aVDennis Rodman DET 05/05/1987 DET @ ATL L 22 6 2 5 40.0 0 0 - 2 4 50.0 3 3 6 0 0 3 1 4 -
p94
aVRick Mahorn DET 05/05/1987 DET @ ATL L 32 14 5 7 71.4 0 0 - 4 5 80.0 4 5 9 1 0 0 3 4 -
p95
aVChuck Nevitt DET 05/05/1987 DET @ ATL L 1 0 0 1 0.0 0 0 - 0 0 - 1 0 1 0 0 0 0 0 -
p96
aVBill Laimbeer DET 05/05/1987 DET @ ATL L 39 20 7 10 70.0 0 1 0.0 6 6 100.0 2 10 12 4 0 0 4 3 -
p97
aVJohn Salley DET 05/05/1987 DET @ ATL L 21 6 2 3 66.7 0 0 - 2 4 50.0 4 1 5 0 0 4 3 5 -
p98
aVJoe Dumars DET 05/05/1987 DET @ ATL L 30 8 4 11 36.4 0 0 - 0 0 - 0 1 1 4 1 0 2 2 -
p99
aVAdrian Dantley DET 05/05/1987 DET @ ATL L 26 9 4 11 36.4 0 0 - 1 2 50.0 1 2 3 2 2 0 2 1 -
p100
aVSidney Green DET 05/05/1987 DET @ ATL L 3 2 1 1 100.0 0 0 - 0 0 - 0 1 1 0 0 0 0 0 -
p101
aVSidney Green DET 05/03/1987 DET @ ATL W 6 4 2 2 100.0 0 0 - 0 0 - 1 1 2 0 0 0 1 0 -
p102
aVIsiah Thomas DET 05/03/1987 DET @ ATL W 41 30 11 16 68.8 2 3 66.7 6 7 85.7 0 4 4 10 2 0 4 3 -
p103
aVAdrian Dantley DET 05/03/1987 DET @ ATL W 35 18 4 11 36.4 0 0 - 10 13 76.9 4 1 5 4 0 0 2 5 -
p104
aVBill Laimbeer DET 05/03/1987 DET @ ATL W 38 15 7 8 87.5 1 1 100.0 0 0 - 2 5 7 2 1 0 0 6 -
p105
aVJoe Dumars DET 05/03/1987 DET @ ATL W 34 17 5 8 62.5 0 0 - 7 7 100.0 0 3 3 5 0 0 1 1 -
p106
aVRick Mahorn DET 05/03/1987 DET @ ATL W 37 8 4 10 40.0 0 0 - 0 0 - 2 2 4 0 0 0 0 4 -
p107
aVDennis Rodman DET 05/03/1987 DET @ ATL W 19 10 4 13 30.8 0 0 - 2 2 100.0 9 1 10 0 0 0 1 1 -
p108
aVJohn Salley DET 05/03/1987 DET @ ATL W 9 0 0 1 0.0 0 0 - 0 0 - 1 0 1 1 0 1 2 5 -
p109
aVVinnie Johnson DET 05/03/1987 DET @ ATL W 21 10 5 13 38.5 0 0 - 0 0 - 1 1 2 0 2 2 1 1 -
p110
aVSidney Green DET 04/29/1987 DET @ WAS W 5 0 0 2 0.0 0 0 - 0 0 - 1 1 2 0 0 0 0 1 -
p111
aVJohn Salley DET 04/29/1987 DET @ WAS W 13 3 1 1 100.0 0 0 - 1 2 50.0 0 4 4 0 0 0 0 4 -
p112
aVBill Laimbeer DET 04/29/1987 DET @ WAS W 42 14 7 11 63.6 0 0 - 0 0 - 1 6 7 1 0 0 2 2 -
p113
aVDennis Rodman DET 04/29/1987 DET @ WAS W 10 5 1 3 33.3 0 0 - 3 6 50.0 1 2 3 0 1 0 2 2 -
p114
aVAdrian Dantley DET 04/29/1987 DET @ WAS W 38 21 8 14 57.1 0 0 - 5 7 71.4 0 9 9 3 0 0 3 2 -
p115
aVIsiah Thomas DET 04/29/1987 DET @ WAS W 43 13 6 15 40.0 0 1 0.0 1 2 50.0 0 2 2 10 2 0 3 3 -
p116
aVJoe Dumars DET 04/29/1987 DET @ WAS W 26 6 3 11 27.3 0 0 - 0 0 - 1 0 1 9 0 0 0 2 -
p117
aVVinnie Johnson DET 04/29/1987 DET @ WAS W 27 21 8 16 50.0 0 0 - 5 5 100.0 3 0 3 1 0 0 2 2 -
p118
aVRick Mahorn DET 04/29/1987 DET @ WAS W 36 14 5 11 45.5 0 0 - 4 5 80.0 4 8 12 0 0 0 1 5 -
p119
aVKurt Nimphius DET 04/26/1987 DET vs. WAS W 12 4 2 7 28.6 0 0 - 0 0 - 4 3 7 0 0 2 1 4 -
p120
aVJohn Salley DET 04/26/1987 DET vs. WAS W 15 9 4 4 100.0 0 0 - 1 1 100.0 0 5 5 0 0 2 1 3 -
p121
aVAdrian Dantley DET 04/26/1987 DET vs. WAS W 27 24 9 12 75.0 0 0 - 6 7 85.7 1 2 3 2 0 0 2 1 -
p122
aVDennis Rodman DET 04/26/1987 DET vs. WAS W 19 11 4 8 50.0 0 0 - 3 3 100.0 3 4 7 0 2 1 3 1 -
p123
aVJoe Dumars DET 04/26/1987 DET vs. WAS W 30 14 7 10 70.0 0 0 - 0 0 - 0 0 0 9 1 0 2 2 -
p124
aVChuck Nevitt DET 04/26/1987 DET vs. WAS W 8 2 0 3 0.0 0 0 - 2 2 100.0 0 5 5 0 0 2 3 1 -
p125
aVRick Mahorn DET 04/26/1987 DET vs. WAS W 25 9 4 7 57.1 0 0 - 1 1 100.0 3 4 7 0 1 0 0 3 -
p126
aVBill Laimbeer DET 04/26/1987 DET vs. WAS W 28 11 5 9 55.6 0 0 - 1 2 50.0 0 9 9 4 2 3 0 1 -
p127
aVVinnie Johnson DET 04/26/1987 DET vs. WAS W 31 14 6 18 33.3 0 1 0.0 2 2 100.0 1 4 5 13 0 0 4 2 -
p128
aVSidney Green DET 04/26/1987 DET vs. WAS W 13 6 2 2 100.0 0 0 - 2 2 100.0 0 2 2 0 0 2 0 0 -
p129
aVTony Campbell DET 04/26/1987 DET vs. WAS W 7 7 3 3 100.0 1 1 100.0 0 0 - 0 3 3 0 0 0 0 0 -
p130
aVIsiah Thomas DET 04/26/1987 DET vs. WAS W 25 17 8 12 66.7 1 2 50.0 0 0 - 0 4 4 8 4 0 4 2 -
p131
aVJohn Salley DET 04/24/1987 DET vs. WAS W 12 6 3 4 75.0 0 0 - 0 0 - 1 1 2 1 0 1 0 2 -
p132
aVKurt Nimphius DET 04/24/1987 DET vs. WAS W 10 0 0 1 0.0 0 0 - 0 0 - 0 2 2 0 0 0 1 3 -
p133
aVVinnie Johnson DET 04/24/1987 DET vs. WAS W 27 12 6 13 46.2 0 0 - 0 0 - 0 1 1 5 0 1 0 0 -
p134
aVSidney Green DET 04/24/1987 DET vs. WAS W 7 3 0 0 - 0 0 - 3 4 75.0 0 0 0 0 1 0 2 1 -
p135
aVAdrian Dantley DET 04/24/1987 DET vs. WAS W 29 19 8 14 57.1 0 0 - 3 3 100.0 2 4 6 0 0 0 1 0 -
p136
aVRick Mahorn DET 04/24/1987 DET vs. WAS W 27 8 4 6 66.7 0 0 - 0 0 - 3 6 9 0 1 3 0 3 -
p137
aVBill Laimbeer DET 04/24/1987 DET vs. WAS W 40 6 3 15 20.0 0 1 0.0 0 0 - 5 5 10 2 1 2 1 2 -
p138
aVDennis Rodman DET 04/24/1987 DET vs. WAS W 19 8 4 6 66.7 0 0 - 0 2 0.0 5 5 10 1 0 2 1 3 -
p139
aVIsiah Thomas DET 04/24/1987 DET vs. WAS W 42 34 15 29 51.7 1 1 100.0 3 5 60.0 3 6 9 9 4 2 3 3 -
p140
aVJoe Dumars DET 04/24/1987 DET vs. WAS W 27 10 4 10 40.0 0 0 - 2 2 100.0 2 0 2 2 1 0 3 2 -
p141
a.