(lp0
VPLAYER TEAM DATE MATCHUP W/L MIN PTS FGM FGA FG% 3PM 3PA 3P% FTM FTA FT% OREB DREB REB AST STL BLK TOV PF +/-
p1
aVKareem Abdul-Jabbar LAL 06/14/1987 LAL vs. BOS W 29 32 13 18 72.2 0 0 - 6 10 60.0 2 4 6 1 0 4 0 5 -
p2
aVMychal Thompson LAL 06/14/1987 LAL vs. BOS W 37 15 6 12 50.0 0 0 - 3 4 75.0 3 6 9 1 1 2 1 3 -
p3
aVMagic Johnson LAL 06/14/1987 LAL vs. BOS W 42 16 7 21 33.3 0 1 0.0 2 2 100.0 1 7 8 19 3 1 3 2 -
p4
aVA.C. Green LAL 06/14/1987 LAL vs. BOS W 24 6 2 8 25.0 0 0 - 2 2 100.0 3 4 7 1 0 0 1 3 -
p5
aVKurt Rambis LAL 06/14/1987 LAL vs. BOS W 6 1 0 0 - 0 0 - 1 2 50.0 0 2 2 0 0 0 0 3 -
p6
aVByron Scott LAL 06/14/1987 LAL vs. BOS W 29 8 4 7 57.1 0 1 0.0 0 0 - 1 0 1 2 1 0 0 4 -
p7
aVWes Matthews LAL 06/14/1987 LAL vs. BOS W 1 0 0 0 - 0 0 - 0 0 - 0 0 0 0 0 0 0 0 -
p8
aVAdrian Branch LAL 06/14/1987 LAL vs. BOS W 1 0 0 1 0.0 0 1 0.0 0 0 - 0 1 1 0 0 0 0 0 -
p9
aVJames Worthy LAL 06/14/1987 LAL vs. BOS W 36 22 10 16 62.5 0 0 - 2 3 66.7 2 5 7 3 3 2 3 6 -
p10
aVMike Smrek LAL 06/14/1987 LAL vs. BOS W 1 0 0 0 - 0 0 - 0 0 - 1 0 1 0 0 0 1 0 -
p11
aVMichael Cooper LAL 06/14/1987 LAL vs. BOS W 34 6 3 10 30.0 0 2 0.0 0 0 - 0 2 2 6 3 0 2 2 -
p12
aVMychal Thompson LAL 06/11/1987 LAL @ BOS L 32 18 4 6 66.7 0 0 - 10 11 90.9 2 1 3 0 0 0 2 5 -
p13
aVKareem Abdul-Jabbar LAL 06/11/1987 LAL @ BOS L 35 18 8 21 38.1 0 1 0.0 2 2 100.0 5 2 7 0 1 4 0 4 -
p14
aVJames Worthy LAL 06/11/1987 LAL @ BOS L 38 12 6 19 31.6 0 0 - 0 0 - 2 5 7 3 1 0 3 2 -
p15
aVA.C. Green LAL 06/11/1987 LAL @ BOS L 22 10 5 10 50.0 0 0 - 0 1 0.0 4 2 6 0 1 0 1 4 -
p16
aVWes Matthews LAL 06/11/1987 LAL @ BOS L 2 1 0 1 0.0 0 0 - 1 2 50.0 0 0 0 0 0 0 0 1 -
p17
aVAdrian Branch LAL 06/11/1987 LAL @ BOS L 1 1 0 0 - 0 0 - 1 2 50.0 0 0 0 0 0 0 0 0 -
p18
aVMichael Cooper LAL 06/11/1987 LAL @ BOS L 26 10 4 5 80.0 2 3 66.7 0 0 - 0 2 2 1 0 0 2 3 -
p19
aVMagic Johnson LAL 06/11/1987 LAL @ BOS L 40 29 12 21 57.1 1 1 100.0 4 4 100.0 1 7 8 12 4 0 2 4 -
p20
aVMike Smrek LAL 06/11/1987 LAL @ BOS L 1 0 0 0 - 0 0 - 0 0 - 0 1 1 0 0 0 0 1 -
p21
aVByron Scott LAL 06/11/1987 LAL @ BOS L 33 7 3 10 30.0 1 3 33.3 0 0 - 1 2 3 0 0 0 2 1 -
p22
aVKurt Rambis LAL 06/11/1987 LAL @ BOS L 10 2 1 2 50.0 0 0 - 0 0 - 2 1 3 0 0 0 0 1 -
p23
aVMagic Johnson LAL 06/09/1987 LAL @ BOS W 41 29 12 20 60.0 0 0 - 5 6 83.3 3 5 8 5 1 0 5 0 -
p24
aVKareem Abdul-Jabbar LAL 06/09/1987 LAL @ BOS W 36 16 5 17 29.4 0 0 - 6 10 60.0 3 8 11 1 1 1 3 0 -
p25
aVMichael Cooper LAL 06/09/1987 LAL @ BOS W 35 10 3 6 50.0 2 3 66.7 2 2 100.0 0 2 2 5 0 1 3 3 -
p26
aVKurt Rambis LAL 06/09/1987 LAL @ BOS W 6 0 0 1 0.0 0 0 - 0 0 - 0 2 2 0 0 0 0 1 -
p27
aVMychal Thompson LAL 06/09/1987 LAL @ BOS W 33 16 6 9 66.7 0 0 - 4 7 57.1 3 6 9 2 2 0 0 3 -
p28
aVA.C. Green LAL 06/09/1987 LAL @ BOS W 20 7 3 4 75.0 0 0 - 1 2 50.0 3 2 5 0 0 0 0 3 -
p29
aVJames Worthy LAL 06/09/1987 LAL @ BOS W 43 21 9 18 50.0 0 0 - 3 3 100.0 1 2 3 2 0 2 0 2 -
p30
aVByron Scott LAL 06/09/1987 LAL @ BOS W 26 8 3 10 30.0 0 1 0.0 2 2 100.0 2 4 6 2 0 0 0 4 -
p31
aVKurt Rambis LAL 06/07/1987 LAL @ BOS L 5 0 0 0 - 0 0 - 0 0 - 1 0 1 0 0 0 0 1 -
p32
aVJames Worthy LAL 06/07/1987 LAL @ BOS L 44 13 6 18 33.3 0 0 - 1 4 25.0 1 2 3 3 3 0 3 2 -
p33
aVMagic Johnson LAL 06/07/1987 LAL @ BOS L 43 32 12 18 66.7 0 0 - 8 8 100.0 3 8 11 9 1 0 1 0 -
p34
aVMichael Cooper LAL 06/07/1987 LAL @ BOS L 35 15 6 10 60.0 3 6 50.0 0 0 - 0 2 2 3 2 1 1 5 -
p35
aVBilly Thompson LAL 06/07/1987 LAL @ BOS L 27 10 4 7 57.1 0 0 - 2 2 100.0 - - - 0 - - - 3 -
p36
aVA.C. Green LAL 06/07/1987 LAL @ BOS L 19 2 1 3 33.3 0 0 - 0 0 - 2 3 5 0 0 0 1 3 -
p37
aVKareem Abdul-Jabbar LAL 06/07/1987 LAL @ BOS L 38 27 9 16 56.3 0 0 - 9 13 69.2 1 6 7 0 1 1 2 5 -
p38
aVByron Scott LAL 06/07/1987 LAL @ BOS L 29 4 2 9 22.2 0 5 0.0 0 0 - 0 0 0 3 1 0 2 5 -
p39
aVByron Scott LAL 06/04/1987 LAL vs. BOS W 29 24 9 11 81.8 0 1 0.0 6 7 85.7 1 2 3 5 1 0 1 3 -
p40
aVKurt Rambis LAL 06/04/1987 LAL vs. BOS W 20 8 2 3 66.7 0 0 - 4 4 100.0 0 5 5 2 0 0 0 4 -
p41
aVMichael Cooper LAL 06/04/1987 LAL vs. BOS W 26 21 7 10 70.0 6 7 85.7 1 1 100.0 1 3 4 9 3 0 4 0 -
p42
aVA.C. Green LAL 06/04/1987 LAL vs. BOS W 25 12 5 8 62.5 0 0 - 2 2 100.0 0 1 1 0 0 2 0 3 -
p43
aVMychal Thompson LAL 06/04/1987 LAL vs. BOS W 24 4 2 6 33.3 0 0 - 0 1 0.0 0 4 4 0 0 3 0 3 -
p44
aVMagic Johnson LAL 06/04/1987 LAL vs. BOS W 31 22 10 17 58.8 0 0 - 2 2 100.0 2 3 5 20 3 0 2 2 -
p45
aVWes Matthews LAL 06/04/1987 LAL vs. BOS W 6 0 0 3 0.0 0 0 - 0 0 - 0 1 1 2 0 0 2 2 -
p46
aVKareem Abdul-Jabbar LAL 06/04/1987 LAL vs. BOS W 31 23 10 14 71.4 0 0 - 3 6 50.0 1 2 3 3 0 1 1 2 -
p47
aVMike Smrek LAL 06/04/1987 LAL vs. BOS W 5 2 1 1 100.0 0 0 - 0 0 - 0 2 2 0 0 1 0 1 -
p48
aVJames Worthy LAL 06/04/1987 LAL vs. BOS W 37 23 10 15 66.7 0 0 - 3 5 60.0 2 1 3 3 1 1 0 2 -
p49
aVAdrian Branch LAL 06/04/1987 LAL vs. BOS W 6 2 0 3 0.0 0 0 - 2 4 50.0 0 2 2 0 0 0 0 3 -
p50
aVJames Worthy LAL 06/02/1987 LAL vs. BOS W 40 33 16 23 69.6 0 2 0.0 1 4 25.0 4 5 9 10 2 0 3 1 -
p51
aVAdrian Branch LAL 06/02/1987 LAL vs. BOS W 2 2 1 2 50.0 0 0 - 0 0 - 0 0 0 1 1 0 0 0 -
p52
aVMagic Johnson LAL 06/02/1987 LAL vs. BOS W 39 29 13 25 52.0 0 0 - 3 3 100.0 2 6 8 13 2 1 0 2 -
p53
aVA.C. Green LAL 06/02/1987 LAL vs. BOS W 34 10 4 7 57.1 0 0 - 2 3 66.7 3 4 7 0 1 0 1 1 -
p54
aVMike Smrek LAL 06/02/1987 LAL vs. BOS W 2 0 0 2 0.0 0 0 - 0 0 - 1 0 1 0 0 0 0 2 -
p55
aVWes Matthews LAL 06/02/1987 LAL vs. BOS W 4 4 2 2 100.0 0 0 - 0 0 - 0 0 0 0 0 0 1 2 -
p56
aVMychal Thompson LAL 06/02/1987 LAL vs. BOS W 18 4 1 1 100.0 0 0 - 2 2 100.0 1 2 3 1 2 0 0 4 -
p57
aVKurt Rambis LAL 06/02/1987 LAL vs. BOS W 9 0 0 1 0.0 0 0 - 0 0 - 1 1 2 1 0 0 2 4 -
p58
aVMichael Cooper LAL 06/02/1987 LAL vs. BOS W 23 10 4 9 44.4 1 2 50.0 1 1 100.0 0 2 2 4 2 0 1 3 -
p59
aVKareem Abdul-Jabbar LAL 06/02/1987 LAL vs. BOS W 34 14 5 12 41.7 0 0 - 4 4 100.0 3 7 10 0 0 4 4 3 -
p60
aVByron Scott LAL 06/02/1987 LAL vs. BOS W 35 20 9 15 60.0 0 1 0.0 2 2 100.0 2 3 5 2 0 1 1 2 -
p61
aVWes Matthews LAL 05/25/1987 LAL @ SEA W 8 4 2 3 66.7 0 0 - 0 0 - 0 0 0 4 0 0 1 0 -
p62
aVKurt Rambis LAL 05/25/1987 LAL @ SEA W 18 14 5 5 100.0 0 0 - 4 4 100.0 1 6 7 0 0 1 2 3 -
p63
aVMagic Johnson LAL 05/25/1987 LAL @ SEA W 34 21 6 9 66.7 0 0 - 9 10 90.0 1 4 5 12 2 0 4 1 -
p64
aVA.C. Green LAL 05/25/1987 LAL @ SEA W 33 19 5 9 55.6 0 0 - 9 13 69.2 4 9 13 1 0 0 1 4 -
p65
aVAdrian Branch LAL 05/25/1987 LAL @ SEA W 7 2 1 4 25.0 0 0 - 0 0 - 1 1 2 1 1 0 0 1 -
p66
aVJames Worthy LAL 05/25/1987 LAL @ SEA W 33 26 10 19 52.6 0 0 - 6 8 75.0 2 6 8 1 2 0 1 2 -
p67
aVMychal Thompson LAL 05/25/1987 LAL @ SEA W 21 6 3 10 30.0 0 0 - 0 0 - 0 1 1 0 0 0 1 3 -
p68
aVMike Smrek LAL 05/25/1987 LAL @ SEA W 3 0 0 0 - 0 0 - 0 0 - 0 0 0 0 0 0 0 3 -
p69
aVByron Scott LAL 05/25/1987 LAL @ SEA W 34 19 6 13 46.2 1 2 50.0 6 6 100.0 1 3 4 0 4 1 1 3 -
p70
aVKareem Abdul-Jabbar LAL 05/25/1987 LAL @ SEA W 25 13 4 7 57.1 0 0 - 5 6 83.3 3 3 6 1 1 1 3 3 -
p71
aVMichael Cooper LAL 05/25/1987 LAL @ SEA W 24 9 2 7 28.6 0 2 0.0 5 6 83.3 1 4 5 8 4 0 2 1 -
p72
aVMichael Cooper LAL 05/23/1987 LAL @ SEA W 33 12 3 10 30.0 1 5 20.0 5 6 83.3 0 2 2 5 0 2 2 5 -
p73
aVMagic Johnson LAL 05/23/1987 LAL @ SEA W 35 19 6 12 50.0 0 2 0.0 7 7 100.0 0 7 7 11 2 0 3 5 -
p74
aVByron Scott LAL 05/23/1987 LAL @ SEA W 25 6 3 6 50.0 0 1 0.0 0 0 - 0 1 1 3 1 0 2 4 -
p75
aVKareem Abdul-Jabbar LAL 05/23/1987 LAL @ SEA W 42 28 9 14 64.3 0 0 - 10 10 100.0 1 9 10 3 0 0 4 5 -
p76
aVWes Matthews LAL 05/23/1987 LAL @ SEA W 7 4 2 3 66.7 0 1 0.0 0 0 - 0 0 0 0 0 0 1 1 -
p77
aVA.C. Green LAL 05/23/1987 LAL @ SEA W 38 8 1 1 100.0 0 0 - 6 9 66.7 2 7 9 0 1 0 1 3 -
p78
aVMychal Thompson LAL 05/23/1987 LAL @ SEA W 18 6 2 3 66.7 0 0 - 2 2 100.0 0 4 4 0 1 0 0 2 -
p79
aVJames Worthy LAL 05/23/1987 LAL @ SEA W 42 39 16 25 64.0 0 0 - 7 9 77.8 2 3 5 5 2 1 2 3 -
p80
aVKareem Abdul-Jabbar LAL 05/19/1987 LAL vs. SEA W 33 16 7 13 53.8 0 0 - 2 2 100.0 5 2 7 3 0 1 6 5 -
p81
aVByron Scott LAL 05/19/1987 LAL vs. SEA W 43 16 5 9 55.6 0 0 - 6 8 75.0 0 2 2 5 2 0 4 4 -
p82
aVMagic Johnson LAL 05/19/1987 LAL vs. SEA W 45 20 6 12 50.0 0 0 - 8 10 80.0 1 9 10 10 2 1 4 3 -
p83
aVMychal Thompson LAL 05/19/1987 LAL vs. SEA W 18 2 1 6 16.7 0 0 - 0 0 - 1 1 2 0 0 3 1 2 -
p84
aVJames Worthy LAL 05/19/1987 LAL vs. SEA W 42 30 12 19 63.2 0 0 - 6 7 85.7 2 3 5 2 2 0 2 2 -
p85
aVKurt Rambis LAL 05/19/1987 LAL vs. SEA W 5 0 0 0 - 0 0 - 0 0 - 0 1 1 0 0 0 1 2 -
p86
aVMichael Cooper LAL 05/19/1987 LAL vs. SEA W 26 13 5 10 50.0 1 3 33.3 2 2 100.0 0 1 1 3 1 1 1 4 -
p87
aVA.C. Green LAL 05/19/1987 LAL vs. SEA W 28 15 3 6 50.0 0 0 - 9 10 90.0 7 7 14 1 0 0 1 3 -
p88
aVKurt Rambis LAL 05/16/1987 LAL vs. SEA W 10 0 0 0 - 0 0 - 0 0 - 0 2 2 0 0 0 0 0 -
p89
aVJames Worthy LAL 05/16/1987 LAL vs. SEA W 39 27 11 19 57.9 0 0 - 5 6 83.3 0 5 5 1 3 1 2 4 -
p90
aVMychal Thompson LAL 05/16/1987 LAL vs. SEA W 15 2 1 4 25.0 0 0 - 0 0 - 1 1 2 0 0 1 0 5 -
p91
aVMagic Johnson LAL 05/16/1987 LAL vs. SEA W 40 19 5 18 27.8 0 1 0.0 9 12 75.0 0 7 7 11 2 1 4 3 -
p92
aVKareem Abdul-Jabbar LAL 05/16/1987 LAL vs. SEA W 38 20 6 11 54.5 0 0 - 8 8 100.0 0 6 6 3 0 0 3 1 -
p93
aVByron Scott LAL 05/16/1987 LAL vs. SEA W 36 11 5 8 62.5 0 2 0.0 1 4 25.0 1 3 4 4 1 0 1 1 -
p94
aVA.C. Green LAL 05/16/1987 LAL vs. SEA W 27 3 1 3 33.3 0 0 - 1 2 50.0 2 3 5 2 1 1 1 5 -
p95
aVKurt Rambis LAL 05/12/1987 LAL vs. GOS W 19 7 2 4 50.0 0 0 - 3 4 75.0 0 6 6 2 1 1 1 4 -
p96
aVByron Scott LAL 05/12/1987 LAL vs. GOS W 34 10 5 13 38.5 0 0 - 0 3 0.0 3 0 3 0 1 0 2 2 -
p97
aVAdrian Branch LAL 05/12/1987 LAL vs. GOS W 3 0 0 0 - 0 0 - 0 0 - 0 1 1 0 0 0 1 0 -
p98
aVMagic Johnson LAL 05/12/1987 LAL vs. GOS W 35 19 8 11 72.7 0 0 - 3 3 100.0 0 5 5 13 2 1 2 1 -
p99
aVKareem Abdul-Jabbar LAL 05/12/1987 LAL vs. GOS W 26 13 4 8 50.0 0 0 - 5 6 83.3 2 7 9 0 1 2 5 3 -
p100
aVMychal Thompson LAL 05/12/1987 LAL vs. GOS W 22 9 4 8 50.0 0 0 - 1 1 100.0 2 5 7 2 0 0 2 1 -
p101
aVMichael Cooper LAL 05/12/1987 LAL vs. GOS W 27 17 5 12 41.7 1 3 33.3 6 8 75.0 1 3 4 2 2 2 2 0 -
p102
aVMike Smrek LAL 05/12/1987 LAL vs. GOS W 2 0 0 1 0.0 0 0 - 0 0 - 0 0 0 0 0 0 0 1 -
p103
aVWes Matthews LAL 05/12/1987 LAL vs. GOS W 3 0 0 0 - 0 0 - 0 0 - 0 0 0 0 0 0 2 0 -
p104
aVA.C. Green LAL 05/12/1987 LAL vs. GOS W 32 20 8 13 61.5 0 0 - 4 6 66.7 3 4 7 2 0 1 0 1 -
p105
aVJames Worthy LAL 05/12/1987 LAL vs. GOS W 37 23 9 11 81.8 0 0 - 5 8 62.5 1 7 8 4 2 2 2 0 -
p106
aVKurt Rambis LAL 05/10/1987 LAL @ GOS L 10 4 1 1 100.0 0 0 - 2 2 100.0 1 4 5 0 0 0 1 3 -
p107
aVMichael Cooper LAL 05/10/1987 LAL @ GOS L 37 17 6 14 42.9 3 9 33.3 2 2 100.0 0 4 4 10 1 1 5 2 -
p108
aVJames Worthy LAL 05/10/1987 LAL @ GOS L 39 11 5 12 41.7 0 0 - 1 2 50.0 3 5 8 2 0 1 4 3 -
p109
aVMagic Johnson LAL 05/10/1987 LAL @ GOS L 37 16 5 11 45.5 0 0 - 6 6 100.0 1 4 5 5 0 0 3 5 -
p110
aVKareem Abdul-Jabbar LAL 05/10/1987 LAL @ GOS L 38 27 8 14 57.1 0 0 - 11 15 73.3 3 5 8 3 0 0 3 4 -
p111
aVByron Scott LAL 05/10/1987 LAL @ GOS L 40 28 10 19 52.6 1 2 50.0 7 8 87.5 3 4 7 2 1 0 0 3 -
p112
aVA.C. Green LAL 05/10/1987 LAL @ GOS L 29 13 3 7 42.9 0 0 - 7 8 87.5 6 6 12 1 0 1 3 2 -
p113
aVMychal Thompson LAL 05/10/1987 LAL @ GOS L 10 5 2 8 25.0 0 0 - 1 1 100.0 2 0 2 0 0 0 0 4 -
p114
aVMychal Thompson LAL 05/09/1987 LAL @ GOS W 27 23 10 18 55.6 0 0 - 3 8 37.5 7 5 12 0 0 2 3 4 -
p115
aVA.C. Green LAL 05/09/1987 LAL @ GOS W 27 4 2 3 66.7 0 0 - 0 0 - 2 4 6 1 0 0 1 2 -
p116
aVWes Matthews LAL 05/09/1987 LAL @ GOS W 3 3 1 1 100.0 0 0 - 1 1 100.0 0 1 1 2 1 0 1 0 -
p117
aVMike Smrek LAL 05/09/1987 LAL @ GOS W 2 2 1 1 100.0 0 0 - 0 0 - 0 0 0 0 0 0 0 2 -
p118
aVJames Worthy LAL 05/09/1987 LAL @ GOS W 40 28 12 19 63.2 0 0 - 4 5 80.0 4 1 5 3 2 2 2 2 -
p119
aVMichael Cooper LAL 05/09/1987 LAL @ GOS W 26 19 6 11 54.5 4 7 57.1 3 3 100.0 0 4 4 3 0 2 1 2 -
p120
aVMagic Johnson LAL 05/09/1987 LAL @ GOS W 38 20 7 15 46.7 0 2 0.0 6 9 66.7 0 10 10 14 2 0 3 1 -
p121
aVKareem Abdul-Jabbar LAL 05/09/1987 LAL @ GOS W 19 8 3 8 37.5 0 0 - 2 2 100.0 1 1 2 3 0 0 0 5 -
p122
aVAdrian Branch LAL 05/09/1987 LAL @ GOS W 2 2 1 1 100.0 0 0 - 0 0 - 0 0 0 0 0 0 0 0 -
p123
aVByron Scott LAL 05/09/1987 LAL @ GOS W 36 17 6 10 60.0 0 0 - 5 5 100.0 2 3 5 5 0 0 2 3 -
p124
aVKurt Rambis LAL 05/09/1987 LAL @ GOS W 20 7 1 1 100.0 0 0 - 5 6 83.3 2 4 6 0 1 1 1 2 -
p125
aVKurt Rambis LAL 05/07/1987 LAL vs. GOS W 8 6 1 1 100.0 0 0 - 4 4 100.0 0 3 3 0 0 0 2 1 -
p126
aVMagic Johnson LAL 05/07/1987 LAL vs. GOS W 33 23 8 11 72.7 0 0 - 7 10 70.0 4 4 8 8 1 0 4 4 -
p127
aVJames Worthy LAL 05/07/1987 LAL vs. GOS W 38 20 8 13 61.5 0 0 - 4 4 100.0 1 3 4 3 1 1 4 2 -
p128
aVMychal Thompson LAL 05/07/1987 LAL vs. GOS W 17 4 2 4 50.0 0 0 - 0 0 - 0 2 2 1 0 0 3 0 -
p129
aVAdrian Branch LAL 05/07/1987 LAL vs. GOS W 2 2 1 1 100.0 0 0 - 0 0 - 0 0 0 1 0 0 1 1 -
p130
aVKareem Abdul-Jabbar LAL 05/07/1987 LAL vs. GOS W 35 25 10 16 62.5 0 0 - 5 8 62.5 2 6 8 1 1 4 3 3 -
p131
aVByron Scott LAL 05/07/1987 LAL vs. GOS W 40 13 5 14 35.7 0 1 0.0 3 4 75.0 1 3 4 7 1 0 1 1 -
p132
aVMichael Cooper LAL 05/07/1987 LAL vs. GOS W 33 12 3 7 42.9 0 2 0.0 6 7 85.7 2 6 8 12 2 1 5 2 -
p133
aVA.C. Green LAL 05/07/1987 LAL vs. GOS W 34 11 5 6 83.3 0 0 - 1 2 50.0 2 3 5 0 3 0 2 2 -
p134
aVMagic Johnson LAL 05/05/1987 LAL vs. GOS W 37 25 8 16 50.0 0 0 - 9 10 90.0 4 8 12 14 2 0 5 0 -
p135
aVWes Matthews LAL 05/05/1987 LAL vs. GOS W 2 0 0 1 0.0 0 0 - 0 0 - 0 0 0 1 0 0 2 0 -
p136
aVKurt Rambis LAL 05/05/1987 LAL vs. GOS W 11 0 0 0 - 0 0 - 0 0 - 1 1 2 1 0 0 0 2 -
p137
aVByron Scott LAL 05/05/1987 LAL vs. GOS W 37 17 7 17 41.2 1 6 16.7 2 2 100.0 1 4 5 5 2 0 3 3 -
p138
aVA.C. Green LAL 05/05/1987 LAL vs. GOS W 34 13 5 10 50.0 0 0 - 3 4 75.0 4 6 10 2 0 0 1 2 -
p139
aVJames Worthy LAL 05/05/1987 LAL vs. GOS W 40 28 10 16 62.5 0 0 - 8 10 80.0 2 5 7 2 2 2 4 5 -
p140
aVMichael Cooper LAL 05/05/1987 LAL vs. GOS W 31 17 7 9 77.8 3 3 100.0 0 0 - 1 2 3 7 0 1 3 4 -
p141
aVKareem Abdul-Jabbar LAL 05/05/1987 LAL vs. GOS W 30 15 7 11 63.6 0 0 - 1 1 100.0 3 1 4 3 1 2 0 2 -
p142
aVMychal Thompson LAL 05/05/1987 LAL vs. GOS W 18 10 5 10 50.0 0 0 - 0 3 0.0 1 4 5 0 0 0 1 3 -
p143
aVMagic Johnson LAL 04/29/1987 LAL @ DEN W 34 16 7 12 58.3 0 1 0.0 2 2 100.0 2 5 7 14 0 0 1 1 -
p144
aVMike Smrek LAL 04/29/1987 LAL @ DEN W 7 4 0 0 - 0 0 - 4 6 66.7 1 1 2 0 0 3 0 0 -
p145
aVJames Worthy LAL 04/29/1987 LAL @ DEN W 29 22 7 10 70.0 0 0 - 8 8 100.0 0 3 3 7 0 3 2 0 -
p146
aVMychal Thompson LAL 04/29/1987 LAL @ DEN W 23 13 4 12 33.3 0 0 - 5 6 83.3 4 5 9 0 0 1 1 1 -
p147
aVWes Matthews LAL 04/29/1987 LAL @ DEN W 8 4 1 3 33.3 0 0 - 2 2 100.0 0 0 0 0 0 0 0 1 -
p148
aVByron Scott LAL 04/29/1987 LAL @ DEN W 37 25 11 15 73.3 0 1 0.0 3 4 75.0 0 4 4 7 1 1 3 3 -
p149
aVA.C. Green LAL 04/29/1987 LAL @ DEN W 28 18 7 11 63.6 0 0 - 4 8 50.0 1 9 10 1 0 0 0 3 -
p150
aVAdrian Branch LAL 04/29/1987 LAL @ DEN W 7 3 0 3 0.0 0 0 - 3 4 75.0 0 0 0 1 0 0 2 3 -
p151
aVBilly Thompson LAL 04/29/1987 LAL @ DEN W 3 2 1 1 100.0 0 0 - 0 0 - 0 2 2 0 1 0 0 0 -
p152
aVMichael Cooper LAL 04/29/1987 LAL @ DEN W 22 14 4 7 57.1 4 5 80.0 2 2 100.0 1 3 4 4 1 1 0 3 -
p153
aVKurt Rambis LAL 04/29/1987 LAL @ DEN W 17 10 4 9 44.4 0 0 - 2 2 100.0 1 7 8 1 0 0 0 4 -
p154
aVKareem Abdul-Jabbar LAL 04/29/1987 LAL @ DEN W 25 9 2 8 25.0 0 0 - 5 5 100.0 0 6 6 5 1 5 1 3 -
p155
aVByron Scott LAL 04/25/1987 LAL vs. DEN W 37 16 4 11 36.4 0 3 0.0 8 10 80.0 0 1 1 2 1 1 0 3 -
p156
aVMichael Cooper LAL 04/25/1987 LAL vs. DEN W 24 12 4 9 44.4 2 3 66.7 2 2 100.0 0 4 4 4 0 0 0 1 -
p157
aVKurt Rambis LAL 04/25/1987 LAL vs. DEN W 19 12 5 8 62.5 0 0 - 2 2 100.0 4 2 6 2 3 0 1 5 -
p158
aVMychal Thompson LAL 04/25/1987 LAL vs. DEN W 21 7 3 6 50.0 0 0 - 1 2 50.0 0 2 2 2 1 1 0 1 -
p159
aVWes Matthews LAL 04/25/1987 LAL vs. DEN W 5 4 2 3 66.7 0 0 - 0 0 - 0 1 1 0 0 0 1 1 -
p160
aVBilly Thompson LAL 04/25/1987 LAL vs. DEN W 6 4 1 3 33.3 0 0 - 2 2 100.0 0 0 0 0 0 0 0 1 -
p161
aVMagic Johnson LAL 04/25/1987 LAL vs. DEN W 35 21 7 12 58.3 0 1 0.0 7 8 87.5 3 5 8 15 2 1 4 3 -
p162
aVA.C. Green LAL 04/25/1987 LAL vs. DEN W 29 16 3 11 27.3 0 0 - 10 11 90.9 5 8 13 0 1 0 2 2 -
p163
aVAdrian Branch LAL 04/25/1987 LAL vs. DEN W 2 0 0 1 0.0 0 0 - 0 0 - 1 1 2 1 0 0 1 0 -
p164
aVKareem Abdul-Jabbar LAL 04/25/1987 LAL vs. DEN W 25 28 8 13 61.5 0 0 - 12 12 100.0 2 4 6 3 0 4 1 2 -
p165
aVMike Smrek LAL 04/25/1987 LAL vs. DEN W 2 0 0 1 0.0 0 0 - 0 0 - 0 0 0 0 0 0 0 1 -
p166
aVJames Worthy LAL 04/25/1987 LAL vs. DEN W 35 19 7 12 58.3 0 0 - 5 6 83.3 0 3 3 3 1 2 2 3 -
p167
aVKurt Rambis LAL 04/23/1987 LAL vs. DEN W 22 8 2 5 40.0 0 0 - 4 4 100.0 2 4 6 0 3 0 2 2 -
p168
aVMike Smrek LAL 04/23/1987 LAL vs. DEN W 8 0 0 4 0.0 0 0 - 0 0 - 0 0 0 0 0 2 0 4 -
p169
aVMichael Cooper LAL 04/23/1987 LAL vs. DEN W 25 10 3 8 37.5 1 3 33.3 3 4 75.0 1 2 3 3 0 0 2 1 -
p170
aVMychal Thompson LAL 04/23/1987 LAL vs. DEN W 20 4 2 7 28.6 0 0 - 0 0 - 2 7 9 0 0 2 1 3 -
p171
aVMagic Johnson LAL 04/23/1987 LAL vs. DEN W 27 16 7 10 70.0 1 1 100.0 1 6 16.7 0 7 7 14 0 1 1 0 -
p172
aVAdrian Branch LAL 04/23/1987 LAL vs. DEN W 9 0 0 5 0.0 0 0 - 0 2 0.0 1 1 2 0 0 0 0 2 -
p173
aVKareem Abdul-Jabbar LAL 04/23/1987 LAL vs. DEN W 20 13 6 13 46.2 0 0 - 1 2 50.0 2 5 7 3 0 1 1 1 -
p174
aVByron Scott LAL 04/23/1987 LAL vs. DEN W 28 17 6 13 46.2 3 4 75.0 2 2 100.0 1 3 4 6 1 0 0 3 -
p175
aVA.C. Green LAL 04/23/1987 LAL vs. DEN W 22 20 8 10 80.0 0 0 - 4 4 100.0 1 6 7 1 1 3 0 1 -
p176
aVWes Matthews LAL 04/23/1987 LAL vs. DEN W 12 4 1 3 33.3 0 0 - 2 2 100.0 0 1 1 0 0 0 2 1 -
p177
aVJames Worthy LAL 04/23/1987 LAL vs. DEN W 29 28 12 14 85.7 0 0 - 4 5 80.0 2 6 8 6 1 2 1 1 -
p178
aVBilly Thompson LAL 04/23/1987 LAL vs. DEN W 18 8 4 7 57.1 0 0 - 0 0 - 3 1 4 2 3 0 0 1 -
p179
a.