(lp0
VPLAYER TEAM DATE MATCHUP W/L MIN PTS FGM FGA FG% 3PM 3PA 3P% FTM FTA FT% OREB DREB REB AST STL BLK TOV PF +/-
p1
aVBill Walton BOS 06/14/1987 BOS @ LAL L 10 2 1 3 33.3 0 0 - 0 0 - 1 2 3 0 0 0 2 2 -
p2
aVDanny Ainge BOS 06/14/1987 BOS @ LAL L 41 2 1 9 11.1 0 2 0.0 0 0 - 0 2 2 6 1 0 2 3 -
p3
aVDennis Johnson BOS 06/14/1987 BOS @ LAL L 46 33 11 22 50.0 0 2 0.0 11 11 100.0 6 4 10 5 0 1 0 1 -
p4
aVConner Henry BOS 06/14/1987 BOS @ LAL L 2 0 0 0 - 0 0 - 0 0 - 1 0 1 0 0 0 1 0 -
p5
aVLarry Bird BOS 06/14/1987 BOS @ LAL L 41 16 6 16 37.5 0 1 0.0 4 4 100.0 1 8 9 5 2 2 4 1 -
p6
aVFred Roberts BOS 06/14/1987 BOS @ LAL L 6 0 0 0 - 0 0 - 0 2 0.0 0 0 0 0 0 0 0 2 -
p7
aVRobert Parish BOS 06/14/1987 BOS @ LAL L 27 12 4 8 50.0 0 0 - 4 6 66.7 1 4 5 2 1 1 2 6 -
p8
aVGreg Kite BOS 06/14/1987 BOS @ LAL L 6 2 1 1 100.0 0 0 - 0 0 - 1 0 1 0 1 1 1 3 -
p9
aVKevin McHale BOS 06/14/1987 BOS @ LAL L 40 20 7 15 46.7 0 0 - 6 6 100.0 1 9 10 2 0 2 3 4 -
p10
aVJerry Sichting BOS 06/14/1987 BOS @ LAL L 6 0 0 4 0.0 0 0 - 0 0 - 0 0 0 0 0 0 0 1 -
p11
aVSam Vincent BOS 06/14/1987 BOS @ LAL L 2 0 0 0 - 0 0 - 0 0 - 0 0 0 0 0 0 1 0 -
p12
aVDarren Daye BOS 06/14/1987 BOS @ LAL L 13 6 2 3 66.7 0 0 - 2 2 100.0 1 0 1 1 1 0 2 2 -
p13
aVDarren Daye BOS 06/11/1987 BOS vs. LAL W 7 4 1 2 50.0 0 0 - 2 2 100.0 0 1 1 1 0 0 0 0 -
p14
aVRobert Parish BOS 06/11/1987 BOS vs. LAL W 28 21 10 12 83.3 0 0 - 1 2 50.0 1 6 7 1 0 1 1 5 -
p15
aVDennis Johnson BOS 06/11/1987 BOS vs. LAL W 43 25 11 22 50.0 0 1 0.0 3 4 75.0 1 1 2 11 1 0 2 3 -
p16
aVGreg Kite BOS 06/11/1987 BOS vs. LAL W 21 1 0 3 0.0 0 0 - 1 2 50.0 2 3 5 1 0 1 0 4 -
p17
aVSam Vincent BOS 06/11/1987 BOS vs. LAL W 1 2 0 1 0.0 0 0 - 2 2 100.0 0 0 0 0 0 0 0 0 -
p18
aVKevin McHale BOS 06/11/1987 BOS vs. LAL W 40 22 8 15 53.3 0 0 - 6 8 75.0 4 10 14 2 1 0 2 1 -
p19
aVFred Roberts BOS 06/11/1987 BOS vs. LAL W 3 0 0 0 - 0 0 - 0 0 - 0 0 0 0 0 0 0 2 -
p20
aVLarry Bird BOS 06/11/1987 BOS vs. LAL W 44 23 7 18 38.9 1 2 50.0 8 9 88.9 2 10 12 7 2 1 2 2 -
p21
aVBill Walton BOS 06/11/1987 BOS vs. LAL W 2 2 1 1 100.0 0 0 - 0 0 - 0 0 0 1 0 0 0 1 -
p22
aVJerry Sichting BOS 06/11/1987 BOS vs. LAL W 11 2 1 3 33.3 0 0 - 0 0 - 1 0 1 3 0 0 1 0 -
p23
aVConner Henry BOS 06/11/1987 BOS vs. LAL W 1 0 0 1 0.0 0 1 0.0 0 0 - 0 0 0 0 0 0 0 0 -
p24
aVDanny Ainge BOS 06/11/1987 BOS vs. LAL W 39 21 7 11 63.6 5 6 83.3 2 2 100.0 2 2 4 6 2 0 2 3 -
p25
aVDanny Ainge BOS 06/09/1987 BOS vs. LAL L 42 23 11 21 52.4 1 7 14.3 0 0 - 0 3 3 4 1 1 2 3 -
p26
aVGreg Kite BOS 06/09/1987 BOS vs. LAL L 13 0 0 0 - 0 0 - 0 0 - 0 1 1 0 0 1 0 2 -
p27
aVDarren Daye BOS 06/09/1987 BOS vs. LAL L 3 2 1 1 100.0 0 0 - 0 0 - 0 0 0 0 0 0 0 0 -
p28
aVDennis Johnson BOS 06/09/1987 BOS vs. LAL L 45 15 6 15 40.0 0 1 0.0 3 3 100.0 2 0 2 14 1 1 2 3 -
p29
aVKevin McHale BOS 06/09/1987 BOS vs. LAL L 45 25 10 14 71.4 0 0 - 5 8 62.5 4 9 13 0 0 2 1 5 -
p30
aVRobert Parish BOS 06/09/1987 BOS vs. LAL L 36 18 9 14 64.3 0 0 - 0 0 - 2 5 7 0 0 1 1 5 -
p31
aVLarry Bird BOS 06/09/1987 BOS vs. LAL L 47 21 7 19 36.8 2 3 66.7 5 5 100.0 1 9 10 7 1 2 5 3 -
p32
aVJerry Sichting BOS 06/09/1987 BOS vs. LAL L 9 2 1 2 50.0 0 0 - 0 0 - 0 1 1 1 2 0 1 0 -
p33
aVKevin McHale BOS 06/07/1987 BOS vs. LAL W 43 21 8 15 53.3 0 0 - 5 5 100.0 4 6 10 5 0 1 2 2 -
p34
aVDennis Johnson BOS 06/07/1987 BOS vs. LAL W 42 26 11 22 50.0 1 2 50.0 3 4 75.0 3 4 7 4 0 0 1 3 -
p35
aVBill Walton BOS 06/07/1987 BOS vs. LAL W 1 0 0 0 - 0 0 - 0 0 - 0 1 1 0 0 0 1 1 -
p36
aVFred Roberts BOS 06/07/1987 BOS vs. LAL W 4 2 1 1 100.0 0 0 - 0 0 - 0 0 0 0 0 0 0 0 -
p37
aVGreg Kite BOS 06/07/1987 BOS vs. LAL W 22 0 0 3 0.0 0 0 - 0 0 - 5 4 9 2 0 1 1 5 -
p38
aVLarry Bird BOS 06/07/1987 BOS vs. LAL W 44 30 10 24 41.7 0 1 0.0 10 11 90.9 3 9 12 4 0 1 4 2 -
p39
aVRobert Parish BOS 06/07/1987 BOS vs. LAL W 26 16 6 7 85.7 0 0 - 4 7 57.1 1 1 2 0 3 1 1 4 -
p40
aVDanny Ainge BOS 06/07/1987 BOS vs. LAL W 43 12 5 11 45.5 0 2 0.0 2 2 100.0 1 3 4 5 1 0 3 4 -
p41
aVJerry Sichting BOS 06/07/1987 BOS vs. LAL W 11 0 0 1 0.0 0 0 - 0 0 - 0 1 1 3 0 0 0 0 -
p42
aVDarren Daye BOS 06/07/1987 BOS vs. LAL W 4 2 1 2 50.0 0 0 - 0 0 - 0 2 2 1 0 0 0 0 -
p43
aVDanny Ainge BOS 06/04/1987 BOS @ LAL L 37 6 3 4 75.0 0 1 0.0 0 0 - 1 1 2 5 1 1 2 3 -
p44
aVDennis Johnson BOS 06/04/1987 BOS @ LAL L 34 20 9 18 50.0 0 1 0.0 2 2 100.0 1 3 4 9 0 1 2 1 -
p45
aVSam Vincent BOS 06/04/1987 BOS @ LAL L 13 10 4 6 66.7 0 0 - 2 4 50.0 1 2 3 3 0 0 1 2 -
p46
aVConner Henry BOS 06/04/1987 BOS @ LAL L 6 2 1 4 25.0 0 2 0.0 0 2 0.0 0 0 0 0 0 0 0 1 -
p47
aVBill Walton BOS 06/04/1987 BOS @ LAL L 5 0 0 0 - 0 0 - 0 0 - 0 1 1 0 0 1 1 2 -
p48
aVKevin McHale BOS 06/04/1987 BOS @ LAL L 34 20 9 12 75.0 0 0 - 2 2 100.0 1 1 2 3 0 0 3 3 -
p49
aVGreg Kite BOS 06/04/1987 BOS @ LAL L 8 0 0 1 0.0 0 0 - 0 0 - 0 1 1 1 1 1 0 3 -
p50
aVDarren Daye BOS 06/04/1987 BOS @ LAL L 9 6 3 4 75.0 0 0 - 0 0 - 0 1 1 1 0 0 0 1 -
p51
aVRobert Parish BOS 06/04/1987 BOS @ LAL L 35 17 6 16 37.5 0 1 0.0 5 8 62.5 7 7 14 4 1 1 2 3 -
p52
aVLarry Bird BOS 06/04/1987 BOS @ LAL L 36 23 9 17 52.9 1 1 100.0 4 5 80.0 2 8 10 4 1 1 3 1 -
p53
aVFred Roberts BOS 06/04/1987 BOS @ LAL L 11 16 6 8 75.0 0 0 - 4 6 66.7 1 3 4 2 1 0 0 0 -
p54
aVJerry Sichting BOS 06/04/1987 BOS @ LAL L 12 2 1 3 33.3 0 1 0.0 0 0 - 1 0 1 3 0 0 0 1 -
p55
aVRobert Parish BOS 06/02/1987 BOS @ LAL L 31 16 7 14 50.0 0 0 - 2 4 50.0 0 4 4 0 0 2 2 1 -
p56
aVKevin McHale BOS 06/02/1987 BOS @ LAL L 29 15 6 11 54.5 0 0 - 3 4 75.0 1 4 5 0 0 1 4 3 -
p57
aVSam Vincent BOS 06/02/1987 BOS @ LAL L 17 7 2 5 40.0 0 0 - 3 4 75.0 0 1 1 2 1 1 1 1 -
p58
aVLarry Bird BOS 06/02/1987 BOS @ LAL L 42 32 14 25 56.0 0 0 - 4 4 100.0 2 5 7 6 1 0 0 0 -
p59
aVDennis Johnson BOS 06/02/1987 BOS @ LAL L 34 7 3 7 42.9 0 1 0.0 1 2 50.0 0 1 1 13 1 0 1 4 -
p60
aVDanny Ainge BOS 06/02/1987 BOS @ LAL L 32 11 4 6 66.7 3 3 100.0 0 0 - 0 3 3 4 1 0 3 1 -
p61
aVDarren Daye BOS 06/02/1987 BOS @ LAL L 14 7 2 4 50.0 0 0 - 3 3 100.0 1 2 3 0 0 1 2 3 -
p62
aVBill Walton BOS 06/02/1987 BOS @ LAL L 6 2 1 1 100.0 0 0 - 0 0 - 0 0 0 0 0 0 1 2 -
p63
aVConner Henry BOS 06/02/1987 BOS @ LAL L 6 8 3 4 75.0 0 0 - 2 2 100.0 0 2 2 0 0 0 0 0 -
p64
aVFred Roberts BOS 06/02/1987 BOS @ LAL L 16 4 1 2 50.0 0 0 - 2 3 66.7 1 4 5 1 0 0 0 2 -
p65
aVJerry Sichting BOS 06/02/1987 BOS @ LAL L 7 2 1 2 50.0 0 0 - 0 0 - 0 0 0 1 0 0 0 1 -
p66
aVGreg Kite BOS 06/02/1987 BOS @ LAL L 6 2 1 1 100.0 0 0 - 0 0 - 0 1 1 1 0 0 1 1 -
p67
aVRobert Parish BOS 05/30/1987 BOS vs. DET W 42 16 5 12 41.7 0 0 - 6 7 85.7 2 9 11 1 0 2 0 3 -
p68
aVDarren Daye BOS 05/30/1987 BOS vs. DET W 11 4 1 4 25.0 0 0 - 2 2 100.0 3 1 4 1 0 0 1 1 -
p69
aVGreg Kite BOS 05/30/1987 BOS vs. DET W 1 0 0 0 - 0 0 - 0 0 - 0 1 1 0 0 0 0 0 -
p70
aVSam Vincent BOS 05/30/1987 BOS vs. DET W 4 2 0 2 0.0 0 0 - 2 2 100.0 0 0 0 1 1 0 0 0 -
p71
aVJerry Sichting BOS 05/30/1987 BOS vs. DET W 7 0 0 0 - 0 0 - 0 0 - 1 0 1 0 0 0 0 1 -
p72
aVKevin McHale BOS 05/30/1987 BOS vs. DET W 41 22 8 11 72.7 0 0 - 6 9 66.7 4 6 10 2 0 2 4 5 -
p73
aVDanny Ainge BOS 05/30/1987 BOS vs. DET W 40 18 6 13 46.2 2 6 33.3 4 4 100.0 0 2 2 3 1 2 0 4 -
p74
aVDennis Johnson BOS 05/30/1987 BOS vs. DET W 45 18 6 14 42.9 0 0 - 6 8 75.0 0 2 2 11 1 1 4 5 -
p75
aVLarry Bird BOS 05/30/1987 BOS vs. DET W 48 37 13 24 54.2 1 2 50.0 10 10 100.0 2 7 9 9 0 2 3 3 -
p76
aVBill Walton BOS 05/30/1987 BOS vs. DET W 1 0 0 0 - 0 0 - 0 2 0.0 0 0 0 0 0 0 0 1 -
p77
aVDennis Johnson BOS 05/28/1987 BOS @ DET L 47 8 3 17 17.6 0 3 0.0 2 4 50.0 2 1 3 11 2 0 1 4 -
p78
aVSam Vincent BOS 05/28/1987 BOS @ DET L 14 4 2 4 50.0 0 0 - 0 0 - 0 1 1 1 0 0 1 2 -
p79
aVFred Roberts BOS 05/28/1987 BOS @ DET L 4 0 0 0 - 0 0 - 0 0 - 0 1 1 0 0 0 0 4 -
p80
aVGreg Kite BOS 05/28/1987 BOS @ DET L 13 3 1 2 50.0 0 0 - 1 2 50.0 2 2 4 1 0 0 1 3 -
p81
aVLarry Bird BOS 05/28/1987 BOS @ DET L 47 35 14 20 70.0 0 0 - 7 7 100.0 1 8 9 2 1 1 0 4 -
p82
aVDarren Daye BOS 05/28/1987 BOS @ DET L 27 16 8 13 61.5 0 0 - 0 0 - 1 2 3 1 0 0 0 3 -
p83
aVKevin McHale BOS 05/28/1987 BOS @ DET L 40 23 10 16 62.5 0 0 - 3 5 60.0 4 8 12 4 0 1 2 2 -
p84
aVJerry Sichting BOS 05/28/1987 BOS @ DET L 11 0 0 1 0.0 0 0 - 0 0 - 0 2 2 0 1 0 0 0 -
p85
aVDanny Ainge BOS 05/28/1987 BOS @ DET L 37 16 6 18 33.3 1 5 20.0 3 3 100.0 0 1 1 3 2 0 5 4 -
p86
aVLarry Bird BOS 05/26/1987 BOS vs. DET W 47 36 12 25 48.0 0 2 0.0 12 12 100.0 1 11 12 9 1 1 5 1 -
p87
aVFred Roberts BOS 05/26/1987 BOS vs. DET W 7 0 0 0 - 0 0 - 0 0 - 0 0 0 0 0 0 0 0 -
p88
aVDennis Johnson BOS 05/26/1987 BOS vs. DET W 45 18 5 13 38.5 0 0 - 8 10 80.0 2 5 7 5 0 0 2 3 -
p89
aVDanny Ainge BOS 05/26/1987 BOS vs. DET W 36 12 5 12 41.7 2 6 33.3 0 0 - 0 1 1 4 0 0 3 3 -
p90
aVRobert Parish BOS 05/26/1987 BOS vs. DET W 38 11 3 10 30.0 0 0 - 5 6 83.3 3 5 8 0 1 1 3 1 -
p91
aVDarren Daye BOS 05/26/1987 BOS vs. DET W 22 7 2 3 66.7 0 0 - 3 5 60.0 0 2 2 1 3 0 1 6 -
p92
aVSam Vincent BOS 05/26/1987 BOS vs. DET W 10 4 1 4 25.0 0 0 - 2 2 100.0 1 0 1 1 0 0 1 1 -
p93
aVGreg Kite BOS 05/26/1987 BOS vs. DET W 2 0 0 1 0.0 0 0 - 0 0 - 1 1 2 0 0 0 0 2 -
p94
aVJerry Sichting BOS 05/26/1987 BOS vs. DET W 6 0 0 1 0.0 0 0 - 0 0 - 0 0 0 0 0 0 0 1 -
p95
aVKevin McHale BOS 05/26/1987 BOS vs. DET W 27 20 8 9 88.9 0 0 - 4 4 100.0 1 6 7 1 2 1 3 5 -
p96
aVJerry Sichting BOS 05/24/1987 BOS @ DET L 22 9 4 7 57.1 0 2 0.0 1 2 50.0 0 1 1 2 0 0 0 3 -
p97
aVDarren Daye BOS 05/24/1987 BOS @ DET L 23 13 5 7 71.4 0 0 - 3 4 75.0 0 1 1 2 0 0 0 5 -
p98
aVKevin McHale BOS 05/24/1987 BOS @ DET L 33 13 6 12 50.0 0 0 - 1 1 100.0 4 5 9 3 1 2 4 3 -
p99
aVSam Vincent BOS 05/24/1987 BOS @ DET L 26 18 7 15 46.7 0 1 0.0 4 4 100.0 0 1 1 7 0 0 1 0 -
p100
aVDanny Ainge BOS 05/24/1987 BOS @ DET L 20 12 5 9 55.6 2 5 40.0 0 0 - 0 2 2 2 0 0 0 1 -
p101
aVGreg Kite BOS 05/24/1987 BOS @ DET L 11 2 1 2 50.0 0 0 - 0 0 - 1 2 3 0 0 0 1 3 -
p102
aVConner Henry BOS 05/24/1987 BOS @ DET L 8 6 2 4 50.0 0 0 - 2 2 100.0 2 0 2 0 0 0 0 1 -
p103
aVFred Roberts BOS 05/24/1987 BOS @ DET L 18 11 2 3 66.7 0 0 - 7 9 77.8 2 1 3 1 1 0 1 2 -
p104
aVRobert Parish BOS 05/24/1987 BOS @ DET L 26 11 5 9 55.6 0 0 - 1 2 50.0 2 4 6 1 0 0 0 0 -
p105
aVLarry Bird BOS 05/24/1987 BOS @ DET L 33 16 8 16 50.0 0 2 0.0 0 0 - 1 6 7 4 0 0 3 1 -
p106
aVDennis Johnson BOS 05/24/1987 BOS @ DET L 20 8 4 8 50.0 0 0 - 0 0 - 0 0 0 5 0 0 1 1 -
p107
aVSam Vincent BOS 05/23/1987 BOS @ DET L 20 18 5 8 62.5 1 1 100.0 7 11 63.6 0 3 3 1 0 0 2 2 -
p108
aVGreg Kite BOS 05/23/1987 BOS @ DET L 16 2 1 2 50.0 0 0 - 0 0 - 1 1 2 0 0 0 1 6 -
p109
aVLarry Bird BOS 05/23/1987 BOS @ DET L 30 17 6 14 42.9 0 0 - 5 6 83.3 1 10 11 6 0 0 5 3 -
p110
aVDennis Johnson BOS 05/23/1987 BOS @ DET L 33 8 4 11 36.4 0 2 0.0 0 0 - 0 0 0 8 0 1 1 0 -
p111
aVConner Henry BOS 05/23/1987 BOS @ DET L 7 5 2 3 66.7 1 2 50.0 0 0 - 0 1 1 0 0 0 2 1 -
p112
aVFred Roberts BOS 05/23/1987 BOS @ DET L 20 7 2 3 66.7 0 0 - 3 4 75.0 1 1 2 1 0 0 1 5 -
p113
aVDarren Daye BOS 05/23/1987 BOS @ DET L 26 15 6 9 66.7 0 0 - 3 4 75.0 0 4 4 1 1 0 2 5 -
p114
aVRobert Parish BOS 05/23/1987 BOS @ DET L 21 4 2 2 100.0 0 0 - 0 0 - 2 6 8 1 0 0 3 3 -
p115
aVJerry Sichting BOS 05/23/1987 BOS @ DET L 35 11 5 9 55.6 1 1 100.0 0 0 - 0 1 1 2 1 0 2 2 -
p116
aVKevin McHale BOS 05/23/1987 BOS @ DET L 32 17 5 13 38.5 0 0 - 7 9 77.8 5 3 8 1 0 1 4 1 -
p117
aVDennis Johnson BOS 05/21/1987 BOS vs. DET W 42 18 8 16 50.0 0 0 - 2 3 66.7 1 3 4 9 0 0 3 3 -
p118
aVKevin McHale BOS 05/21/1987 BOS vs. DET W 44 19 6 10 60.0 0 0 - 7 10 70.0 3 5 8 3 0 2 3 2 -
p119
aVFred Roberts BOS 05/21/1987 BOS vs. DET W 8 2 1 1 100.0 0 0 - 0 0 - 0 1 1 0 0 0 0 2 -
p120
aVGreg Kite BOS 05/21/1987 BOS vs. DET W 6 2 1 1 100.0 0 0 - 0 1 0.0 0 3 3 0 0 0 0 1 -
p121
aVRobert Parish BOS 05/21/1987 BOS vs. DET W 37 20 6 10 60.0 0 0 - 8 11 72.7 3 6 9 0 4 2 1 6 -
p122
aVLarry Bird BOS 05/21/1987 BOS vs. DET W 47 31 10 23 43.5 2 5 40.0 9 11 81.8 1 8 9 12 0 0 0 1 -
p123
aVSam Vincent BOS 05/21/1987 BOS vs. DET W 10 4 0 3 0.0 0 0 - 4 4 100.0 1 0 1 1 1 0 1 2 -
p124
aVJerry Sichting BOS 05/21/1987 BOS vs. DET W 38 11 5 11 45.5 0 1 0.0 1 2 50.0 1 2 3 2 1 0 0 3 -
p125
aVDarren Daye BOS 05/21/1987 BOS vs. DET W 8 3 1 2 50.0 0 0 - 1 1 100.0 0 0 0 0 0 0 1 1 -
p126
aVSam Vincent BOS 05/19/1987 BOS vs. DET W 8 2 1 4 25.0 0 0 - 0 0 - 0 0 0 0 0 1 0 0 -
p127
aVLarry Bird BOS 05/19/1987 BOS vs. DET W 44 18 7 22 31.8 0 3 0.0 4 4 100.0 2 14 16 11 2 1 6 4 -
p128
aVDennis Johnson BOS 05/19/1987 BOS vs. DET W 44 18 8 18 44.4 0 1 0.0 2 2 100.0 2 5 7 7 1 1 3 3 -
p129
aVJerry Sichting BOS 05/19/1987 BOS vs. DET W 41 12 5 10 50.0 0 1 0.0 2 2 100.0 0 1 1 4 2 0 1 5 -
p130
aVKevin McHale BOS 05/19/1987 BOS vs. DET W 44 21 7 8 87.5 0 0 - 7 9 77.8 2 4 6 1 1 2 1 1 -
p131
aVDarren Daye BOS 05/19/1987 BOS vs. DET W 8 2 1 1 100.0 0 0 - 0 0 - 1 0 1 1 1 0 1 0 -
p132
aVRobert Parish BOS 05/19/1987 BOS vs. DET W 43 31 10 12 83.3 0 0 - 11 12 91.7 0 9 9 2 1 0 2 4 -
p133
aVFred Roberts BOS 05/19/1987 BOS vs. DET W 6 0 0 0 - 0 0 - 0 0 - 0 0 0 0 1 0 3 1 -
p134
aVGreg Kite BOS 05/19/1987 BOS vs. DET W 2 0 0 0 - 0 0 - 0 0 - 0 0 0 0 0 0 0 0 -
p135
aVFred Roberts BOS 05/17/1987 BOS vs. MIL W 15 3 0 3 0.0 0 0 - 3 4 75.0 0 1 1 0 1 0 1 5 -
p136
aVDennis Johnson BOS 05/17/1987 BOS vs. MIL W 46 19 7 16 43.8 0 1 0.0 5 6 83.3 0 8 8 10 0 0 3 3 -
p137
aVSam Vincent BOS 05/17/1987 BOS vs. MIL W 2 0 0 0 - 0 0 - 0 0 - 0 0 0 0 0 0 1 0 -
p138
aVRobert Parish BOS 05/17/1987 BOS vs. MIL W 38 23 9 20 45.0 0 0 - 5 6 83.3 11 8 19 1 0 4 1 5 -
p139
aVKevin McHale BOS 05/17/1987 BOS vs. MIL W 40 26 11 19 57.9 0 0 - 4 5 80.0 10 5 15 1 1 2 2 3 -
p140
aVJerry Sichting BOS 05/17/1987 BOS vs. MIL W 8 6 2 2 100.0 0 0 - 2 2 100.0 0 0 0 3 0 0 1 2 -
p141
aVLarry Bird BOS 05/17/1987 BOS vs. MIL W 48 31 9 21 42.9 0 1 0.0 13 13 100.0 2 8 10 8 2 2 3 1 -
p142
aVBill Walton BOS 05/17/1987 BOS vs. MIL W 1 0 0 0 - 0 0 - 0 0 - 0 0 0 0 0 0 0 1 -
p143
aVDanny Ainge BOS 05/17/1987 BOS vs. MIL W 29 9 4 7 57.1 0 0 - 1 2 50.0 1 0 1 2 0 0 1 4 -
p144
aVDarren Daye BOS 05/17/1987 BOS vs. MIL W 11 2 1 2 50.0 0 0 - 0 0 - 1 1 2 1 0 0 1 0 -
p145
aVGreg Kite BOS 05/17/1987 BOS vs. MIL W 2 0 0 0 - 0 0 - 0 0 - 0 1 1 0 0 0 0 0 -
p146
aVDennis Johnson BOS 05/15/1987 BOS @ MIL L 44 25 11 23 47.8 1 3 33.3 2 2 100.0 0 6 6 14 1 1 1 2 -
p147
aVDanny Ainge BOS 05/15/1987 BOS @ MIL L 42 22 8 17 47.1 4 5 80.0 2 2 100.0 1 2 3 5 0 0 4 4 -
p148
aVConner Henry BOS 05/15/1987 BOS @ MIL L 1 0 0 0 - 0 0 - 0 0 - 0 0 0 0 0 0 0 0 -
p149
aVSam Vincent BOS 05/15/1987 BOS @ MIL L 2 0 0 0 - 0 0 - 0 0 - 0 0 0 0 0 0 0 1 -
p150
aVFred Roberts BOS 05/15/1987 BOS @ MIL L 25 13 6 12 50.0 0 0 - 1 3 33.3 4 0 4 1 1 0 1 4 -
p151
aVDarren Daye BOS 05/15/1987 BOS @ MIL L 11 6 1 3 33.3 0 0 - 4 4 100.0 1 0 1 1 1 0 1 2 -
p152
aVGreg Kite BOS 05/15/1987 BOS @ MIL L 17 0 0 2 0.0 0 0 - 0 0 - 1 2 3 2 0 0 0 5 -
p153
aVKevin McHale BOS 05/15/1987 BOS @ MIL L 45 21 8 17 47.1 0 0 - 5 8 62.5 3 13 16 1 0 0 3 5 -
p154
aVJerry Sichting BOS 05/15/1987 BOS @ MIL L 8 2 0 2 0.0 0 0 - 2 2 100.0 0 2 2 0 0 0 1 2 -
p155
aVLarry Bird BOS 05/15/1987 BOS @ MIL L 45 22 9 20 45.0 0 2 0.0 4 6 66.7 4 10 14 4 2 1 4 1 -
p156
aVRobert Parish BOS 05/13/1987 BOS vs. MIL L 42 30 14 22 63.6 0 0 - 2 4 50.0 8 8 16 2 2 4 6 5 -
p157
aVFred Roberts BOS 05/13/1987 BOS vs. MIL L 5 0 0 1 0.0 0 0 - 0 0 - 0 0 0 1 0 0 0 2 -
p158
aVDanny Ainge BOS 05/13/1987 BOS vs. MIL L 36 14 5 8 62.5 1 3 33.3 3 4 75.0 0 1 1 7 0 0 2 5 -
p159
aVDennis Johnson BOS 05/13/1987 BOS vs. MIL L 42 19 5 10 50.0 0 0 - 9 10 90.0 0 5 5 2 0 0 0 5 -
p160
aVJerry Sichting BOS 05/13/1987 BOS vs. MIL L 15 4 2 4 50.0 0 0 - 0 0 - 0 1 1 2 0 0 1 3 -
p161
aVLarry Bird BOS 05/13/1987 BOS vs. MIL L 46 26 8 22 36.4 0 4 0.0 10 11 90.9 2 6 8 12 1 0 4 4 -
p162
aVDarren Daye BOS 05/13/1987 BOS vs. MIL L 5 4 2 2 100.0 0 0 - 0 0 - 0 0 0 0 0 0 0 0 -
p163
aVKevin McHale BOS 05/13/1987 BOS vs. MIL L 42 27 12 18 66.7 0 0 - 3 5 60.0 1 10 11 2 0 2 1 4 -
p164
aVConner Henry BOS 05/13/1987 BOS vs. MIL L 1 0 0 0 - 0 0 - 0 2 0.0 0 0 0 0 0 0 0 0 -
p165
aVGreg Kite BOS 05/13/1987 BOS vs. MIL L 6 0 0 0 - 0 0 - 0 0 - 0 4 4 0 0 1 0 1 -
p166
aVDanny Ainge BOS 05/10/1987 BOS @ MIL W 51 18 8 16 50.0 2 5 40.0 0 0 - 3 4 7 5 4 0 2 3 -
p167
aVSam Vincent BOS 05/10/1987 BOS @ MIL W 2 0 0 1 0.0 0 0 - 0 0 - 0 0 0 1 0 0 0 1 -
p168
aVFred Roberts BOS 05/10/1987 BOS @ MIL W 12 0 0 2 0.0 0 0 - 0 0 - 0 0 0 0 0 0 0 5 -
p169
aVLarry Bird BOS 05/10/1987 BOS @ MIL W 56 42 13 23 56.5 3 5 60.0 13 15 86.7 1 6 7 8 0 2 4 4 -
p170
aVDarren Daye BOS 05/10/1987 BOS @ MIL W 6 6 1 2 50.0 0 0 - 4 4 100.0 1 1 2 0 0 0 0 0 -
p171
aVRobert Parish BOS 05/10/1987 BOS @ MIL W 38 17 6 14 42.9 0 0 - 5 6 83.3 2 8 10 2 0 0 1 6 -
p172
aVDennis Johnson BOS 05/10/1987 BOS @ MIL W 54 19 7 16 43.8 0 0 - 5 8 62.5 1 2 3 12 0 0 1 3 -
p173
aVKevin McHale BOS 05/10/1987 BOS @ MIL W 56 34 15 25 60.0 0 0 - 4 5 80.0 6 5 11 2 1 4 3 4 -
p174
aVJerry Sichting BOS 05/10/1987 BOS @ MIL W 10 2 1 1 100.0 0 0 - 0 0 - 1 1 2 3 1 0 0 1 -
p175
aVGreg Kite BOS 05/10/1987 BOS @ MIL W 5 0 0 0 - 0 0 - 0 0 - 0 0 0 0 0 1 0 3 -
p176
aVDanny Ainge BOS 05/08/1987 BOS @ MIL L 41 14 4 13 30.8 3 4 75.0 3 4 75.0 1 2 3 2 2 0 2 2 -
p177
aVConner Henry BOS 05/08/1987 BOS @ MIL L 1 1 0 0 - 0 0 - 1 2 50.0 0 0 0 0 0 0 0 0 -
p178
aVLarry Bird BOS 05/08/1987 BOS @ MIL L 46 18 7 16 43.8 0 0 - 4 4 100.0 1 7 8 8 2 0 5 6 -
p179
aVDennis Johnson BOS 05/08/1987 BOS @ MIL L 50 32 11 17 64.7 1 3 33.3 9 9 100.0 1 4 5 14 0 0 6 4 -
p180
aVJerry Sichting BOS 05/08/1987 BOS @ MIL L 14 4 2 4 50.0 0 0 - 0 0 - 0 0 0 1 0 0 0 1 -
p181
aVFred Roberts BOS 05/08/1987 BOS @ MIL L 14 4 2 4 50.0 0 0 - 0 0 - 2 2 4 0 0 1 1 1 -
p182
aVRobert Parish BOS 05/08/1987 BOS @ MIL L 40 18 8 16 50.0 0 0 - 2 2 100.0 4 12 16 3 0 2 2 5 -
p183
aVSam Vincent BOS 05/08/1987 BOS @ MIL L 1 0 0 0 - 0 0 - 0 0 - 0 0 0 0 0 0 0 0 -
p184
aVKevin McHale BOS 05/08/1987 BOS @ MIL L 38 25 8 14 57.1 0 0 - 9 12 75.0 2 4 6 0 0 3 1 6 -
p185
aVGreg Kite BOS 05/08/1987 BOS @ MIL L 13 2 1 1 100.0 0 0 - 0 0 - 1 3 4 0 0 1 1 1 -
p186
aVDarren Daye BOS 05/08/1987 BOS @ MIL L 7 3 0 1 0.0 0 0 - 3 4 75.0 0 0 0 0 0 1 1 2 -
p187
aVJerry Sichting BOS 05/06/1987 BOS vs. MIL W 14 0 0 1 0.0 0 0 - 0 0 - 0 1 1 1 0 0 1 2 -
p188
aVDanny Ainge BOS 05/06/1987 BOS vs. MIL W 42 30 11 14 78.6 4 8 50.0 4 5 80.0 1 3 4 8 3 0 4 4 -
p189
aVKevin McHale BOS 05/06/1987 BOS vs. MIL W 26 12 4 9 44.4 0 0 - 4 4 100.0 1 4 5 0 0 0 2 6 -
p190
aVDarren Daye BOS 05/06/1987 BOS vs. MIL W 1 0 0 0 - 0 0 - 0 0 - 0 0 0 0 0 0 0 0 -
p191
aVFred Roberts BOS 05/06/1987 BOS vs. MIL W 22 9 2 4 50.0 0 0 - 5 5 100.0 0 2 2 1 0 0 1 3 -
p192
aVRobert Parish BOS 05/06/1987 BOS vs. MIL W 39 24 8 13 61.5 0 0 - 8 8 100.0 0 4 4 0 2 1 1 3 -
p193
aVDennis Johnson BOS 05/06/1987 BOS vs. MIL W 40 21 8 13 61.5 0 1 0.0 5 6 83.3 1 1 2 10 2 0 2 5 -
p194
aVBill Walton BOS 05/06/1987 BOS vs. MIL W 11 0 0 1 0.0 0 0 - 0 2 0.0 1 1 2 3 1 0 0 3 -
p195
aVLarry Bird BOS 05/06/1987 BOS vs. MIL W 45 30 10 21 47.6 1 3 33.3 9 12 75.0 1 9 10 5 1 0 1 2 -
p196
aVFred Roberts BOS 05/05/1987 BOS vs. MIL W 36 13 6 10 60.0 0 0 - 1 2 50.0 3 2 5 3 0 1 1 4 -
p197
aVRobert Parish BOS 05/05/1987 BOS vs. MIL W 35 22 10 15 66.7 0 0 - 2 2 100.0 3 9 12 3 1 4 2 1 -
p198
aVDanny Ainge BOS 05/05/1987 BOS vs. MIL W 34 4 1 9 11.1 0 1 0.0 2 2 100.0 0 0 0 4 1 0 1 2 -
p199
aVConner Henry BOS 05/05/1987 BOS vs. MIL W 1 0 0 0 - 0 0 - 0 0 - 0 0 0 0 0 0 1 0 -
p200
aVSam Vincent BOS 05/05/1987 BOS vs. MIL W 8 3 1 2 50.0 0 0 - 1 2 50.0 0 1 1 1 0 0 0 1 -
p201
aVBill Walton BOS 05/05/1987 BOS vs. MIL W 20 4 2 5 40.0 0 0 - 0 2 0.0 2 5 7 4 2 1 1 2 -
p202
aVGreg Kite BOS 05/05/1987 BOS vs. MIL W 1 1 0 0 - 0 0 - 1 2 50.0 0 1 1 0 0 0 0 0 -
p203
aVJerry Sichting BOS 05/05/1987 BOS vs. MIL W 11 0 0 1 0.0 0 0 - 0 0 - 0 0 0 1 1 0 1 2 -
p204
aVDarren Daye BOS 05/05/1987 BOS vs. MIL W 8 4 1 2 50.0 0 0 - 2 2 100.0 0 1 1 0 1 0 5 0 -
p205
aVLarry Bird BOS 05/05/1987 BOS vs. MIL W 44 40 13 23 56.5 1 1 100.0 13 13 100.0 2 9 11 7 4 1 3 2 -
p206
aVDennis Johnson BOS 05/05/1987 BOS vs. MIL W 42 20 8 16 50.0 0 1 0.0 4 4 100.0 0 4 4 7 1 1 5 5 -
p207
aVDanny Ainge BOS 04/28/1987 BOS @ CHI W 37 13 5 11 45.5 0 1 0.0 3 4 75.0 1 3 4 4 1 0 0 4 -
p208
aVRobert Parish BOS 04/28/1987 BOS @ CHI W 40 17 6 11 54.5 0 0 - 5 6 83.3 2 8 10 3 0 1 4 6 -
p209
aVGreg Kite BOS 04/28/1987 BOS @ CHI W 1 0 0 0 - 0 0 - 0 0 - 0 0 0 0 0 0 0 0 -
p210
aVJerry Sichting BOS 04/28/1987 BOS @ CHI W 17 0 0 2 0.0 0 0 - 0 0 - 0 0 0 0 0 0 0 3 -
p211
aVDennis Johnson BOS 04/28/1987 BOS @ CHI W 40 24 10 17 58.8 0 1 0.0 4 4 100.0 0 5 5 10 1 0 1 2 -
p212
aVBill Walton BOS 04/28/1987 BOS @ CHI W 19 8 2 5 40.0 0 0 - 4 6 66.7 1 5 6 1 0 1 2 2 -
p213
aVDarren Daye BOS 04/28/1987 BOS @ CHI W 6 4 2 2 100.0 0 0 - 0 0 - 1 1 2 0 1 0 0 0 -
p214
aVConner Henry BOS 04/28/1987 BOS @ CHI W 1 0 0 0 - 0 0 - 0 0 - 0 0 0 0 0 0 0 0 -
p215
aVFred Roberts BOS 04/28/1987 BOS @ CHI W 33 7 1 5 20.0 0 0 - 5 6 83.3 1 0 1 1 1 1 2 3 -
p216
aVLarry Bird BOS 04/28/1987 BOS @ CHI W 45 32 11 21 52.4 0 1 0.0 10 11 90.9 3 11 14 6 2 1 4 3 -
p217
aVSam Vincent BOS 04/28/1987 BOS @ CHI W 1 0 0 1 0.0 0 0 - 0 0 - 0 0 0 0 0 0 0 0 -
p218
aVJerry Sichting BOS 04/26/1987 BOS vs. CHI W 12 2 1 4 25.0 0 0 - 0 0 - 0 0 0 0 0 0 0 0 -
p219
aVDennis Johnson BOS 04/26/1987 BOS vs. CHI W 43 18 7 17 41.2 0 0 - 4 5 80.0 0 1 1 7 3 0 1 4 -
p220
aVBill Walton BOS 04/26/1987 BOS vs. CHI W 17 4 2 4 50.0 0 0 - 0 1 0.0 2 7 9 1 0 0 0 3 -
p221
aVRobert Parish BOS 04/26/1987 BOS vs. CHI W 31 14 6 12 50.0 0 0 - 2 2 100.0 4 6 10 1 2 5 0 4 -
p222
aVDarren Daye BOS 04/26/1987 BOS vs. CHI W 6 0 0 1 0.0 0 0 - 0 0 - 0 0 0 0 0 0 0 1 -
p223
aVLarry Bird BOS 04/26/1987 BOS vs. CHI W 44 29 9 17 52.9 0 0 - 11 13 84.6 2 5 7 8 0 0 2 4 -
p224
aVKevin McHale BOS 04/26/1987 BOS vs. CHI W 44 20 8 14 57.1 0 0 - 4 6 66.7 3 7 10 4 0 1 2 4 -
p225
aVDanny Ainge BOS 04/26/1987 BOS vs. CHI W 41 18 9 17 52.9 0 3 0.0 0 0 - 1 0 1 5 3 0 0 2 -
p226
aVFred Roberts BOS 04/26/1987 BOS vs. CHI W 2 0 0 0 - 0 0 - 0 0 - 0 0 0 0 0 0 0 0 -
p227
aVBill Walton BOS 04/23/1987 BOS vs. CHI W 9 7 3 5 60.0 0 0 - 1 1 100.0 2 0 2 0 0 1 0 3 -
p228
aVKevin McHale BOS 04/23/1987 BOS vs. CHI W 44 21 10 21 47.6 0 0 - 1 1 100.0 2 4 6 2 0 1 4 2 -
p229
aVJerry Sichting BOS 04/23/1987 BOS vs. CHI W 13 8 4 7 57.1 0 0 - 0 0 - 0 1 1 1 0 0 0 2 -
p230
aVRobert Parish BOS 04/23/1987 BOS vs. CHI W 41 19 9 14 64.3 0 0 - 1 2 50.0 1 10 11 1 0 2 3 3 -
p231
aVDennis Johnson BOS 04/23/1987 BOS vs. CHI W 43 16 5 13 38.5 0 2 0.0 6 6 100.0 1 2 3 6 1 0 1 4 -
p232
aVDanny Ainge BOS 04/23/1987 BOS vs. CHI W 40 20 8 12 66.7 2 2 100.0 2 2 100.0 0 4 4 8 0 0 3 3 -
p233
aVLarry Bird BOS 04/23/1987 BOS vs. CHI W 46 17 4 7 57.1 2 2 100.0 7 7 100.0 3 6 9 13 2 0 1 2 -
p234
aVDarren Daye BOS 04/23/1987 BOS vs. CHI W 4 0 0 2 0.0 0 0 - 0 0 - 0 1 1 0 0 1 0 1 -
p235
a.