(lp0
VPLAYER TEAM DATE MATCHUP W/L MIN PTS FGM FGA FG% 3PM 3PA 3P% FTM FTA FT% OREB DREB REB AST STL BLK TOV PF +/-
p1
aVBrad Sellers CHI 05/18/1988 CHI @ DET L 5 0 0 1 0.0 0 0 - 0 0 - 0 0 0 0 0 0 0 2 -
p2
aVSam Vincent CHI 05/18/1988 CHI @ DET L 15 8 3 7 42.9 0 0 - 2 2 100.0 0 0 0 2 0 0 0 3 -
p3
aVDave Corzine CHI 05/18/1988 CHI @ DET L 16 0 0 4 0.0 0 0 - 0 0 - 0 0 0 0 0 2 0 2 -
p4
aVScottie Pippen CHI 05/18/1988 CHI @ DET L 42 11 5 11 45.5 1 1 100.0 0 0 - 2 4 6 2 0 2 4 3 -
p5
aVHorace Grant CHI 05/18/1988 CHI @ DET L 37 20 10 14 71.4 0 0 - 0 0 - 2 5 7 2 1 0 0 2 -
p6
aVJohn Paxson CHI 05/18/1988 CHI @ DET L 39 12 5 13 38.5 0 3 0.0 2 2 100.0 0 2 2 8 0 1 0 5 -
p7
aVCharles Oakley CHI 05/18/1988 CHI @ DET L 43 19 7 11 63.6 0 0 - 5 6 83.3 4 11 15 1 0 2 3 2 -
p8
aVMichael Jordan CHI 05/18/1988 CHI @ DET L 43 25 10 22 45.5 1 2 50.0 4 7 57.1 2 6 8 8 2 0 3 4 -
p9
aVScottie Pippen CHI 05/15/1988 CHI vs. DET L 37 15 7 14 50.0 1 2 50.0 0 0 - 3 4 7 3 2 0 3 3 -
p10
aVHorace Grant CHI 05/15/1988 CHI vs. DET L 20 2 1 3 33.3 0 0 - 0 0 - 0 3 3 2 0 0 0 6 -
p11
aVBrad Sellers CHI 05/15/1988 CHI vs. DET L 13 3 0 1 0.0 0 0 - 3 4 75.0 1 0 1 2 0 0 0 1 -
p12
aVElston Turner CHI 05/15/1988 CHI vs. DET L 3 0 0 0 - 0 0 - 0 0 - 0 0 0 0 0 0 1 0 -
p13
aVJohn Paxson CHI 05/15/1988 CHI vs. DET L 27 15 6 13 46.2 2 5 40.0 1 1 100.0 0 0 0 3 0 0 2 6 -
p14
aVDave Corzine CHI 05/15/1988 CHI vs. DET L 31 5 2 5 40.0 0 0 - 1 4 25.0 0 4 4 0 0 0 2 0 -
p15
aVSam Vincent CHI 05/15/1988 CHI vs. DET L 26 12 5 14 35.7 0 0 - 2 2 100.0 3 1 4 1 0 0 5 3 -
p16
aVMichael Jordan CHI 05/15/1988 CHI vs. DET L 45 23 11 22 50.0 0 0 - 1 2 50.0 2 5 7 5 6 0 3 0 -
p17
aVCharles Oakley CHI 05/15/1988 CHI vs. DET L 38 2 1 5 20.0 0 0 - 0 0 - 1 9 10 3 0 0 3 2 -
p18
aVScottie Pippen CHI 05/14/1988 CHI vs. DET L 32 15 7 11 63.6 1 1 100.0 0 1 0.0 2 4 6 1 0 0 2 3 -
p19
aVHorace Grant CHI 05/14/1988 CHI vs. DET L 34 10 5 7 71.4 0 0 - 0 0 - 1 3 4 0 1 0 1 2 -
p20
aVMike Brown CHI 05/14/1988 CHI vs. DET L 4 1 0 0 - 0 0 - 1 2 50.0 0 0 0 1 1 0 0 0 -
p21
aVSam Vincent CHI 05/14/1988 CHI vs. DET L 29 9 3 12 25.0 0 0 - 3 3 100.0 0 3 3 6 0 0 2 2 -
p22
aVBrad Sellers CHI 05/14/1988 CHI vs. DET L 7 0 0 2 0.0 0 0 - 0 0 - 1 1 2 0 0 0 1 1 -
p23
aVMichael Jordan CHI 05/14/1988 CHI vs. DET L 38 24 8 20 40.0 0 0 - 8 9 88.9 1 6 7 3 1 1 5 3 -
p24
aVRory Sparrow CHI 05/14/1988 CHI vs. DET L 17 2 1 6 16.7 0 0 - 0 0 - 0 0 0 3 0 0 1 0 -
p25
aVElston Turner CHI 05/14/1988 CHI vs. DET L 11 2 1 2 50.0 0 0 - 0 0 - 0 2 2 2 0 0 0 0 -
p26
aVCharles Oakley CHI 05/14/1988 CHI vs. DET L 36 11 4 10 40.0 0 1 0.0 3 3 100.0 2 10 12 4 0 1 3 4 -
p27
aVDave Corzine CHI 05/14/1988 CHI vs. DET L 27 5 2 6 33.3 0 0 - 1 2 50.0 3 3 6 1 1 0 2 1 -
p28
aVJohn Paxson CHI 05/14/1988 CHI vs. DET L 5 0 0 1 0.0 0 0 - 0 0 - 0 0 0 3 0 0 0 0 -
p29
aVMichael Jordan CHI 05/12/1988 CHI @ DET W 44 36 14 22 63.6 0 0 - 8 10 80.0 4 7 11 1 1 1 2 5 -
p30
aVBrad Sellers CHI 05/12/1988 CHI @ DET W 22 5 0 4 0.0 0 0 - 5 6 83.3 2 4 6 1 1 1 0 3 -
p31
aVSam Vincent CHI 05/12/1988 CHI @ DET W 36 31 11 17 64.7 0 1 0.0 9 11 81.8 2 0 2 5 0 1 8 5 -
p32
aVJohn Paxson CHI 05/12/1988 CHI @ DET W 1 0 0 0 - 0 0 - 0 0 - 0 0 0 0 0 0 0 0 -
p33
aVCharles Oakley CHI 05/12/1988 CHI @ DET W 31 10 3 5 60.0 0 0 - 4 4 100.0 3 9 12 2 0 0 5 5 -
p34
aVHorace Grant CHI 05/12/1988 CHI @ DET W 32 9 3 8 37.5 0 0 - 3 4 75.0 2 8 10 1 1 0 2 4 -
p35
aVScottie Pippen CHI 05/12/1988 CHI @ DET W 26 4 2 6 33.3 0 0 - 0 0 - 1 3 4 5 1 1 3 4 -
p36
aVDave Corzine CHI 05/12/1988 CHI @ DET W 29 6 2 6 33.3 0 0 - 2 2 100.0 0 1 1 0 0 1 0 2 -
p37
aVRory Sparrow CHI 05/12/1988 CHI @ DET W 6 4 1 2 50.0 1 1 100.0 1 2 50.0 0 0 0 0 1 0 1 4 -
p38
aVElston Turner CHI 05/12/1988 CHI @ DET W 13 0 0 4 0.0 0 0 - 0 0 - 0 2 2 4 0 0 0 2 -
p39
aVScottie Pippen CHI 05/10/1988 CHI @ DET L 23 2 1 6 16.7 0 0 - 0 0 - 1 2 3 1 1 0 1 3 -
p40
aVSam Vincent CHI 05/10/1988 CHI @ DET L 20 4 2 9 22.2 0 1 0.0 0 2 0.0 0 1 1 3 3 0 2 2 -
p41
aVCharles Oakley CHI 05/10/1988 CHI @ DET L 34 5 2 11 18.2 0 0 - 1 1 100.0 4 9 13 4 0 0 0 3 -
p42
aVMichael Jordan CHI 05/10/1988 CHI @ DET L 40 29 10 22 45.5 0 1 0.0 9 10 90.0 5 6 11 6 0 1 5 4 -
p43
aVElston Turner CHI 05/10/1988 CHI @ DET L 2 0 0 0 - 0 0 - 0 0 - 1 0 1 0 0 0 0 0 -
p44
aVBrad Sellers CHI 05/10/1988 CHI @ DET L 18 8 4 7 57.1 0 0 - 0 0 - 0 2 2 1 0 1 1 3 -
p45
aVDave Corzine CHI 05/10/1988 CHI @ DET L 34 9 4 9 44.4 0 0 - 1 2 50.0 2 6 8 1 0 1 1 3 -
p46
aVHorace Grant CHI 05/10/1988 CHI @ DET L 35 16 8 13 61.5 0 1 0.0 0 2 0.0 2 2 4 4 6 2 1 2 -
p47
aVRory Sparrow CHI 05/10/1988 CHI @ DET L 28 9 3 9 33.3 1 1 100.0 2 2 100.0 0 0 0 3 1 0 0 2 -
p48
aVJohn Paxson CHI 05/10/1988 CHI @ DET L 6 0 0 1 0.0 0 0 - 0 0 - 0 0 0 1 0 0 0 0 -
p49
aVDave Corzine CHI 05/08/1988 CHI vs. CLE W 40 14 7 12 58.3 0 0 - 0 0 - 2 6 8 3 0 2 0 4 -
p50
aVRory Sparrow CHI 05/08/1988 CHI vs. CLE W 29 7 3 8 37.5 0 0 - 1 2 50.0 0 2 2 7 2 0 2 3 -
p51
aVScottie Pippen CHI 05/08/1988 CHI vs. CLE W 39 24 10 20 50.0 0 1 0.0 4 4 100.0 5 1 6 5 3 0 3 6 -
p52
aVSam Vincent CHI 05/08/1988 CHI vs. CLE W 16 2 1 6 16.7 0 0 - 0 0 - 0 2 2 3 1 0 1 1 -
p53
aVCharles Oakley CHI 05/08/1988 CHI vs. CLE W 35 8 3 5 60.0 0 0 - 2 2 100.0 8 12 20 5 0 0 2 3 -
p54
aVJohn Paxson CHI 05/08/1988 CHI vs. CLE W 11 3 1 5 20.0 0 2 0.0 1 1 100.0 0 0 0 1 0 0 0 0 -
p55
aVHorace Grant CHI 05/08/1988 CHI vs. CLE W 22 8 4 5 80.0 0 0 - 0 2 0.0 1 3 4 0 1 0 0 3 -
p56
aVBrad Sellers CHI 05/08/1988 CHI vs. CLE W 5 2 1 2 50.0 0 0 - 0 0 - 0 0 0 1 0 0 0 0 -
p57
aVMichael Jordan CHI 05/08/1988 CHI vs. CLE W 43 39 12 22 54.5 0 0 - 15 18 83.3 1 3 4 6 2 2 7 4 -
p58
aVDave Corzine CHI 05/05/1988 CHI @ CLE L 42 12 6 15 40.0 0 0 - 0 0 - 2 7 9 1 1 0 3 3 -
p59
aVBrad Sellers CHI 05/05/1988 CHI @ CLE L 17 2 1 5 20.0 0 0 - 0 0 - 1 0 1 1 0 0 0 1 -
p60
aVMichael Jordan CHI 05/05/1988 CHI @ CLE L 42 44 18 25 72.0 0 0 - 8 9 88.9 2 3 5 4 4 2 4 6 -
p61
aVJohn Paxson CHI 05/05/1988 CHI @ CLE L 11 2 1 2 50.0 0 0 - 0 0 - 0 1 1 1 0 0 1 1 -
p62
aVCharles Oakley CHI 05/05/1988 CHI @ CLE L 33 5 2 10 20.0 0 1 0.0 1 2 50.0 4 6 10 2 1 1 1 3 -
p63
aVRory Sparrow CHI 05/05/1988 CHI @ CLE L 18 2 1 4 25.0 0 1 0.0 0 0 - 0 1 1 4 0 0 0 2 -
p64
aVScottie Pippen CHI 05/05/1988 CHI @ CLE L 30 15 7 11 63.6 0 0 - 1 2 50.0 3 2 5 0 0 2 3 4 -
p65
aVHorace Grant CHI 05/05/1988 CHI @ CLE L 22 1 0 4 0.0 0 0 - 1 2 50.0 1 5 6 1 1 0 0 5 -
p66
aVSam Vincent CHI 05/05/1988 CHI @ CLE L 25 8 3 10 30.0 0 0 - 2 2 100.0 0 3 3 5 2 0 1 1 -
p67
aVMichael Jordan CHI 05/03/1988 CHI @ CLE L 44 38 12 25 48.0 0 0 - 14 15 93.3 2 3 5 9 2 1 4 5 -
p68
aVHorace Grant CHI 05/03/1988 CHI @ CLE L 38 14 6 10 60.0 0 0 - 2 2 100.0 4 4 8 2 0 0 0 6 -
p69
aVJohn Paxson CHI 05/03/1988 CHI @ CLE L 24 8 4 8 50.0 0 1 0.0 0 0 - 0 1 1 4 0 0 0 5 -
p70
aVSam Vincent CHI 05/03/1988 CHI @ CLE L 18 2 1 7 14.3 0 0 - 0 0 - 0 0 0 3 0 0 0 1 -
p71
aVRory Sparrow CHI 05/03/1988 CHI @ CLE L 7 2 1 3 33.3 0 1 0.0 0 0 - 0 0 0 1 0 0 0 0 -
p72
aVBrad Sellers CHI 05/03/1988 CHI @ CLE L 37 22 8 14 57.1 0 0 - 6 6 100.0 3 0 3 1 1 1 2 3 -
p73
aVScottie Pippen CHI 05/03/1988 CHI @ CLE L 16 6 3 7 42.9 0 1 0.0 0 0 - 0 1 1 3 0 1 2 2 -
p74
aVDave Corzine CHI 05/03/1988 CHI @ CLE L 18 0 0 3 0.0 0 0 - 0 0 - 0 2 2 0 1 1 0 1 -
p75
aVCharles Oakley CHI 05/03/1988 CHI @ CLE L 38 10 4 7 57.1 0 0 - 2 2 100.0 3 6 9 1 2 0 0 5 -
p76
aVJohn Paxson CHI 05/01/1988 CHI vs. CLE W 14 0 0 4 0.0 0 1 0.0 0 0 - 0 0 0 2 0 0 1 2 -
p77
aVScottie Pippen CHI 05/01/1988 CHI vs. CLE W 30 8 4 8 50.0 0 0 - 0 0 - 6 6 12 2 0 1 3 1 -
p78
aVSam Vincent CHI 05/01/1988 CHI vs. CLE W 40 9 4 14 28.6 0 0 - 1 2 50.0 1 2 3 14 1 0 3 2 -
p79
aVMichael Jordan CHI 05/01/1988 CHI vs. CLE W 44 55 24 45 53.3 0 0 - 7 7 100.0 3 3 6 3 4 1 1 4 -
p80
aVDave Corzine CHI 05/01/1988 CHI vs. CLE W 33 4 2 9 22.2 0 0 - 0 0 - 2 6 8 1 0 0 2 4 -
p81
aVRory Sparrow CHI 05/01/1988 CHI vs. CLE W 1 0 0 0 - 0 0 - 0 0 - 0 0 0 0 0 0 0 0 -
p82
aVHorace Grant CHI 05/01/1988 CHI vs. CLE W 33 13 5 10 50.0 0 0 - 3 3 100.0 6 8 14 1 1 0 0 2 -
p83
aVCharles Oakley CHI 05/01/1988 CHI vs. CLE W 41 17 8 13 61.5 0 0 - 1 2 50.0 5 7 12 7 1 0 0 3 -
p84
aVBrad Sellers CHI 05/01/1988 CHI vs. CLE W 4 0 0 3 0.0 0 0 - 0 0 - 1 1 2 0 0 0 0 2 -
p85
aVSam Vincent CHI 04/28/1988 CHI vs. CLE W 26 17 8 14 57.1 0 1 0.0 1 1 100.0 0 1 1 2 1 0 4 3 -
p86
aVCharles Oakley CHI 04/28/1988 CHI vs. CLE W 44 14 6 14 42.9 0 0 - 2 2 100.0 5 10 15 3 2 0 1 3 -
p87
aVDave Corzine CHI 04/28/1988 CHI vs. CLE W 38 6 2 7 28.6 0 0 - 2 3 66.7 4 7 11 1 0 1 1 1 -
p88
aVScottie Pippen CHI 04/28/1988 CHI vs. CLE W 19 0 0 5 0.0 0 0 - 0 0 - 1 1 2 2 1 1 2 4 -
p89
aVBrad Sellers CHI 04/28/1988 CHI vs. CLE W 16 3 1 4 25.0 0 0 - 1 1 100.0 1 3 4 1 0 2 0 2 -
p90
aVJohn Paxson CHI 04/28/1988 CHI vs. CLE W 27 6 3 6 50.0 0 0 - 0 0 - 0 0 0 7 1 0 0 5 -
p91
aVMichael Jordan CHI 04/28/1988 CHI vs. CLE W 44 50 19 35 54.3 0 0 - 12 12 100.0 1 6 7 2 2 2 5 3 -
p92
aVHorace Grant CHI 04/28/1988 CHI vs. CLE W 26 8 4 7 57.1 0 0 - 0 0 - 6 4 10 3 2 0 3 3 -
p93
a.