(lp0
VPLAYER TEAM DATE MATCHUP W/L MIN PTS FGM FGA FG% 3PM 3PA 3P% FTM FTA FT% OREB DREB REB AST STL BLK TOV PF +/-
p1
aVJerry Sichting POR 05/06/1988 POR @ UTH L 8 2 1 2 50.0 0 0 - 0 0 - 0 0 0 1 0 0 0 1 -
p2
aVMaurice Lucas POR 05/06/1988 POR @ UTH L 14 2 1 2 50.0 0 0 - 0 0 - 0 4 4 3 1 0 1 2 -
p3
aVKevin Duckworth POR 05/06/1988 POR @ UTH L 33 33 14 20 70.0 0 0 - 5 5 100.0 6 4 10 1 0 0 4 5 -
p4
aVMichael Holton POR 05/06/1988 POR @ UTH L 4 0 0 1 0.0 0 1 0.0 0 0 - 0 1 1 0 0 0 0 2 -
p5
aVTerry Porter POR 05/06/1988 POR @ UTH L 42 17 7 13 53.8 1 2 50.0 2 2 100.0 0 3 3 5 3 0 7 3 -
p6
aVJerome Kersey POR 05/06/1988 POR @ UTH L 35 13 6 18 33.3 0 0 - 1 2 50.0 7 3 10 2 2 2 1 4 -
p7
aVCaldwell Jones POR 05/06/1988 POR @ UTH L 24 4 2 5 40.0 0 0 - 0 0 - 0 3 3 0 1 3 1 5 -
p8
aVKiki Vandeweghe POR 05/06/1988 POR @ UTH L 14 0 0 2 0.0 0 1 0.0 0 0 - 0 2 2 1 0 0 1 1 -
p9
aVClyde Drexler POR 05/06/1988 POR @ UTH L 41 16 8 21 38.1 0 1 0.0 0 2 0.0 2 5 7 6 0 2 4 3 -
p10
aVCharles Jones POR 05/06/1988 POR @ UTH L 1 0 0 1 0.0 0 0 - 0 0 - 0 1 1 0 0 0 0 0 -
p11
aVRichard Anderson POR 05/06/1988 POR @ UTH L 24 9 2 5 40.0 1 3 33.3 4 4 100.0 1 4 5 0 0 0 1 5 -
p12
aVMichael Holton POR 05/04/1988 POR @ UTH L 14 4 2 5 40.0 0 0 - 0 0 - 1 2 3 1 1 0 1 1 -
p13
aVKevin Duckworth POR 05/04/1988 POR @ UTH L 39 21 8 18 44.4 0 0 - 5 7 71.4 8 8 16 2 1 1 7 3 -
p14
aVKiki Vandeweghe POR 05/04/1988 POR @ UTH L 21 16 4 16 25.0 0 1 0.0 8 8 100.0 1 3 4 3 0 0 1 3 -
p15
aVJerome Kersey POR 05/04/1988 POR @ UTH L 35 23 7 18 38.9 0 0 - 9 11 81.8 4 5 9 1 1 0 1 5 -
p16
aVJerry Sichting POR 05/04/1988 POR @ UTH L 13 0 0 2 0.0 0 0 - 0 0 - 1 1 2 3 0 0 0 1 -
p17
aVMaurice Lucas POR 05/04/1988 POR @ UTH L 11 2 1 4 25.0 0 0 - 0 0 - 2 1 3 1 0 0 1 3 -
p18
aVCaldwell Jones POR 05/04/1988 POR @ UTH L 19 0 0 2 0.0 0 0 - 0 0 - 0 3 3 0 0 3 0 4 -
p19
aVClyde Drexler POR 05/04/1988 POR @ UTH L 43 21 7 20 35.0 1 1 100.0 6 8 75.0 3 3 6 4 3 0 3 3 -
p20
aVTerry Porter POR 05/04/1988 POR @ UTH L 27 12 5 9 55.6 0 0 - 2 2 100.0 2 0 2 4 0 0 1 4 -
p21
aVRichard Anderson POR 05/04/1988 POR @ UTH L 18 9 3 6 50.0 3 6 50.0 0 0 - 2 2 4 1 0 1 0 3 -
p22
aVKevin Duckworth POR 04/30/1988 POR vs. UTH L 36 19 8 19 42.1 0 0 - 3 4 75.0 3 4 7 2 0 0 4 3 -
p23
aVJerry Sichting POR 04/30/1988 POR vs. UTH L 3 0 0 0 - 0 0 - 0 0 - 0 0 0 1 0 0 0 2 -
p24
aVTerry Porter POR 04/30/1988 POR vs. UTH L 41 19 8 15 53.3 0 1 0.0 3 6 50.0 0 3 3 7 3 0 3 4 -
p25
aVMaurice Lucas POR 04/30/1988 POR vs. UTH L 19 1 0 4 0.0 0 0 - 1 2 50.0 5 9 14 1 0 0 2 4 -
p26
aVMichael Holton POR 04/30/1988 POR vs. UTH L 7 2 1 4 25.0 0 0 - 0 0 - 0 1 1 2 1 0 0 3 -
p27
aVKiki Vandeweghe POR 04/30/1988 POR vs. UTH L 18 4 2 11 18.2 0 2 0.0 0 0 - 1 3 4 2 1 0 0 1 -
p28
aVClyde Drexler POR 04/30/1988 POR vs. UTH L 45 25 10 24 41.7 2 4 50.0 3 7 42.9 2 0 2 5 6 0 2 4 -
p29
aVJerome Kersey POR 04/30/1988 POR vs. UTH L 27 17 6 11 54.5 0 1 0.0 5 8 62.5 4 2 6 3 2 0 2 6 -
p30
aVCharles Jones POR 04/30/1988 POR vs. UTH L 1 0 0 0 - 0 0 - 0 0 - 0 0 0 0 0 0 0 0 -
p31
aVCaldwell Jones POR 04/30/1988 POR vs. UTH L 22 4 2 5 40.0 0 0 - 0 0 - 2 2 4 0 1 1 0 4 -
p32
aVRichard Anderson POR 04/30/1988 POR vs. UTH L 21 14 6 13 46.2 2 5 40.0 0 0 - 2 2 4 0 2 0 1 3 -
p33
aVCaldwell Jones POR 04/28/1988 POR vs. UTH W 33 5 2 4 50.0 0 0 - 1 2 50.0 2 5 7 1 0 1 1 4 -
p34
aVMaurice Lucas POR 04/28/1988 POR vs. UTH W 19 5 2 3 66.7 0 0 - 1 2 50.0 2 2 4 0 0 0 1 3 -
p35
aVKiki Vandeweghe POR 04/28/1988 POR vs. UTH W 19 11 5 11 45.5 0 1 0.0 1 1 100.0 1 2 3 1 0 0 1 3 -
p36
aVJerome Kersey POR 04/28/1988 POR vs. UTH W 30 26 13 18 72.2 0 0 - 0 0 - 2 3 5 3 2 2 1 2 -
p37
aVJerry Sichting POR 04/28/1988 POR vs. UTH W 7 2 1 3 33.3 0 0 - 0 0 - 0 0 0 0 1 0 0 0 -
p38
aVTerry Porter POR 04/28/1988 POR vs. UTH W 39 20 9 15 60.0 0 0 - 2 3 66.7 2 4 6 12 4 0 2 2 -
p39
aVKevin Duckworth POR 04/28/1988 POR vs. UTH W 43 13 4 13 30.8 0 1 0.0 5 7 71.4 3 8 11 2 0 1 6 3 -
p40
aVMichael Holton POR 04/28/1988 POR vs. UTH W 9 0 0 3 0.0 0 0 - 0 0 - 0 0 0 3 0 0 0 0 -
p41
aVClyde Drexler POR 04/28/1988 POR vs. UTH W 41 26 7 18 38.9 0 0 - 12 12 100.0 5 8 13 6 3 0 3 4 -
p42
a.