(lp0
VPLAYER TEAM DATE MATCHUP W/L MIN PTS FGM FGA FG% 3PM 3PA 3P% FTM FTA FT% OREB DREB REB AST STL BLK TOV PF +/-
p1
aVJohn Stockton UTH 05/21/1988 UTH @ LAL L 48 29 10 15 66.7 1 3 33.3 8 8 100.0 0 1 1 20 5 0 5 2 -
p2
aVKarl Malone UTH 05/21/1988 UTH @ LAL L 48 31 14 21 66.7 0 0 - 3 9 33.3 1 14 15 4 2 0 5 4 -
p3
aVBart Kofoed UTH 05/21/1988 UTH @ LAL L 2 0 0 0 - 0 0 - 0 0 - 0 0 0 0 0 0 1 0 -
p4
aVBob Hansen UTH 05/21/1988 UTH @ LAL L 46 16 6 19 31.6 2 6 33.3 2 5 40.0 3 2 5 4 0 0 2 3 -
p5
aVThurl Bailey UTH 05/21/1988 UTH @ LAL L 42 16 6 12 50.0 0 0 - 4 4 100.0 0 1 1 2 2 0 1 5 -
p6
aVMark Eaton UTH 05/21/1988 UTH @ LAL L 44 2 1 3 33.3 0 0 - 0 2 0.0 1 5 6 1 0 2 0 4 -
p7
aVMarc Iavaroni UTH 05/21/1988 UTH @ LAL L 10 4 2 3 66.7 0 0 - 0 0 - 1 0 1 0 0 1 0 3 -
p8
aVBob Hansen UTH 05/19/1988 UTH vs. LAL W 31 25 10 11 90.9 2 2 100.0 3 4 75.0 0 4 4 3 2 0 0 4 -
p9
aVScott Roth UTH 05/19/1988 UTH vs. LAL W 2 0 0 1 0.0 0 0 - 0 0 - 0 0 0 0 0 0 0 0 -
p10
aVMel Turpin UTH 05/19/1988 UTH vs. LAL W 2 2 0 1 0.0 0 0 - 2 2 100.0 1 0 1 1 0 0 1 0 -
p11
aVEddie Hughes UTH 05/19/1988 UTH vs. LAL W 4 3 1 2 50.0 1 2 50.0 0 0 - 0 0 0 0 0 0 0 0 -
p12
aVMark Eaton UTH 05/19/1988 UTH vs. LAL W 46 9 3 5 60.0 0 0 - 3 6 50.0 4 6 10 0 3 2 1 5 -
p13
aVBart Kofoed UTH 05/19/1988 UTH vs. LAL W 17 4 1 4 25.0 0 0 - 2 2 100.0 0 1 1 0 1 0 1 1 -
p14
aVMarc Iavaroni UTH 05/19/1988 UTH vs. LAL W 16 4 2 6 33.3 0 0 - 0 0 - 1 3 4 2 0 0 1 1 -
p15
aVKarl Malone UTH 05/19/1988 UTH vs. LAL W 37 27 10 20 50.0 0 0 - 7 7 100.0 3 8 11 2 0 0 1 5 -
p16
aVThurl Bailey UTH 05/19/1988 UTH vs. LAL W 41 20 7 21 33.3 0 0 - 6 6 100.0 0 5 5 2 2 2 0 3 -
p17
aVJohn Stockton UTH 05/19/1988 UTH vs. LAL W 44 14 4 9 44.4 0 0 - 6 9 66.7 2 3 5 17 3 0 5 3 -
p18
aVScott Roth UTH 05/17/1988 UTH @ LAL L 1 0 0 0 - 0 0 - 0 0 - 0 0 0 0 0 0 0 0 -
p19
aVKarl Malone UTH 05/17/1988 UTH @ LAL L 48 27 10 21 47.6 0 0 - 7 9 77.8 4 12 16 1 1 0 5 3 -
p20
aVMark Eaton UTH 05/17/1988 UTH @ LAL L 37 10 4 8 50.0 0 0 - 2 3 66.7 5 4 9 1 0 2 3 6 -
p21
aVBob Hansen UTH 05/17/1988 UTH @ LAL L 48 15 6 14 42.9 2 4 50.0 1 2 50.0 1 2 3 4 1 0 5 4 -
p22
aVThurl Bailey UTH 05/17/1988 UTH @ LAL L 44 28 12 20 60.0 0 0 - 4 6 66.7 4 4 8 0 1 2 2 3 -
p23
aVMarc Iavaroni UTH 05/17/1988 UTH @ LAL L 14 6 2 3 66.7 0 0 - 2 2 100.0 0 1 1 0 0 0 2 2 -
p24
aVJohn Stockton UTH 05/17/1988 UTH @ LAL L 48 23 8 16 50.0 0 0 - 7 9 77.8 0 3 3 24 5 0 3 3 -
p25
aVScott Roth UTH 05/15/1988 UTH vs. LAL L 2 0 0 0 - 0 0 - 0 0 - 0 0 0 0 0 0 0 0 -
p26
aVMark Eaton UTH 05/15/1988 UTH vs. LAL L 39 16 4 6 66.7 0 0 - 8 10 80.0 3 5 8 1 1 1 0 4 -
p27
aVMarc Iavaroni UTH 05/15/1988 UTH vs. LAL L 22 2 1 3 33.3 0 0 - 0 0 - 0 2 2 1 0 0 1 2 -
p28
aVThurl Bailey UTH 05/15/1988 UTH vs. LAL L 27 14 4 9 44.4 0 1 0.0 6 6 100.0 0 3 3 1 0 1 3 3 -
p29
aVRickey Green UTH 05/15/1988 UTH vs. LAL L 3 0 0 1 0.0 0 0 - 0 0 - 0 0 0 1 1 0 0 0 -
p30
aVKelly Tripucka UTH 05/15/1988 UTH vs. LAL L 2 0 0 1 0.0 0 0 - 0 0 - 0 0 0 0 0 0 0 0 -
p31
aVBart Kofoed UTH 05/15/1988 UTH vs. LAL L 9 0 0 2 0.0 0 0 - 0 0 - 2 1 3 1 0 0 2 2 -
p32
aVKarl Malone UTH 05/15/1988 UTH vs. LAL L 47 29 12 26 46.2 0 1 0.0 5 10 50.0 7 4 11 0 2 1 3 4 -
p33
aVBob Hansen UTH 05/15/1988 UTH vs. LAL L 37 18 7 18 38.9 3 5 60.0 1 1 100.0 1 3 4 1 1 0 2 5 -
p34
aVEddie Hughes UTH 05/15/1988 UTH vs. LAL L 3 0 0 2 0.0 0 0 - 0 0 - 0 0 0 0 0 0 0 0 -
p35
aVMel Turpin UTH 05/15/1988 UTH vs. LAL L 5 0 0 2 0.0 0 0 - 0 0 - 1 2 3 0 0 0 0 0 -
p36
aVJohn Stockton UTH 05/15/1988 UTH vs. LAL L 44 21 6 12 50.0 0 1 0.0 9 10 90.0 2 2 4 13 4 1 4 2 -
p37
aVBart Kofoed UTH 05/13/1988 UTH vs. LAL W 4 0 0 1 0.0 0 1 0.0 0 0 - 1 0 1 0 0 0 0 2 -
p38
aVEddie Hughes UTH 05/13/1988 UTH vs. LAL W 3 0 0 0 - 0 0 - 0 0 - 0 0 0 1 1 0 1 0 -
p39
aVMarc Iavaroni UTH 05/13/1988 UTH vs. LAL W 3 2 0 0 - 0 0 - 2 2 100.0 1 0 1 0 0 0 0 4 -
p40
aVScott Roth UTH 05/13/1988 UTH vs. LAL W 2 0 0 1 0.0 0 0 - 0 0 - 0 0 0 0 0 0 0 0 -
p41
aVMark Eaton UTH 05/13/1988 UTH vs. LAL W 47 10 4 7 57.1 0 0 - 2 2 100.0 5 9 14 2 0 6 0 4 -
p42
aVJohn Stockton UTH 05/13/1988 UTH vs. LAL W 45 22 10 15 66.7 1 1 100.0 1 2 50.0 2 2 4 12 5 1 3 2 -
p43
aVKarl Malone UTH 05/13/1988 UTH vs. LAL W 48 29 11 28 39.3 0 0 - 7 9 77.8 2 11 13 0 0 1 2 4 -
p44
aVThurl Bailey UTH 05/13/1988 UTH vs. LAL W 45 21 8 19 42.1 0 0 - 5 7 71.4 4 4 8 0 0 3 2 2 -
p45
aVBob Hansen UTH 05/13/1988 UTH vs. LAL W 43 12 6 16 37.5 0 4 0.0 0 0 - 0 6 6 1 0 0 2 3 -
p46
aVEddie Hughes UTH 05/10/1988 UTH @ LAL W 2 0 0 1 0.0 0 0 - 0 0 - 0 0 0 0 0 0 0 0 -
p47
aVBart Kofoed UTH 05/10/1988 UTH @ LAL W 12 4 2 3 66.7 0 0 - 0 0 - 0 1 1 2 0 0 1 3 -
p48
aVBob Hansen UTH 05/10/1988 UTH @ LAL W 36 11 4 10 40.0 1 2 50.0 2 2 100.0 0 3 3 5 1 0 2 4 -
p49
aVJohn Stockton UTH 05/10/1988 UTH @ LAL W 44 19 7 15 46.7 0 1 0.0 5 6 83.3 2 4 6 13 2 0 3 4 -
p50
aVMarc Iavaroni UTH 05/10/1988 UTH @ LAL W 18 12 5 8 62.5 0 0 - 2 2 100.0 1 1 2 3 1 0 0 1 -
p51
aVMark Eaton UTH 05/10/1988 UTH @ LAL W 43 6 2 9 22.2 0 0 - 2 2 100.0 4 8 12 1 2 7 3 3 -
p52
aVKarl Malone UTH 05/10/1988 UTH @ LAL W 43 29 11 21 52.4 0 0 - 7 9 77.8 4 6 10 0 1 3 1 1 -
p53
aVThurl Bailey UTH 05/10/1988 UTH @ LAL W 40 20 9 18 50.0 0 0 - 2 2 100.0 2 4 6 1 0 4 1 3 -
p54
aVRickey Green UTH 05/10/1988 UTH @ LAL W 2 0 0 0 - 0 0 - 0 0 - 0 1 1 0 0 0 0 0 -
p55
aVBob Hansen UTH 05/08/1988 UTH @ LAL L 35 12 6 12 50.0 0 2 0.0 0 0 - 1 1 2 4 0 0 3 4 -
p56
aVKelly Tripucka UTH 05/08/1988 UTH @ LAL L 7 2 1 2 50.0 0 0 - 0 0 - 1 0 1 1 0 0 1 1 -
p57
aVBart Kofoed UTH 05/08/1988 UTH @ LAL L 6 0 0 2 0.0 0 1 0.0 0 0 - 0 0 0 0 0 0 1 1 -
p58
aVMarc Iavaroni UTH 05/08/1988 UTH @ LAL L 11 2 0 0 - 0 0 - 2 2 100.0 0 1 1 2 1 1 1 5 -
p59
aVEddie Hughes UTH 05/08/1988 UTH @ LAL L 2 2 1 1 100.0 0 0 - 0 0 - 0 0 0 0 0 0 0 1 -
p60
aVScott Roth UTH 05/08/1988 UTH @ LAL L 2 0 0 0 - 0 0 - 0 0 - 0 0 0 0 1 0 0 0 -
p61
aVRickey Green UTH 05/08/1988 UTH @ LAL L 7 2 1 2 50.0 0 0 - 0 0 - 0 0 0 2 0 0 0 0 -
p62
aVKarl Malone UTH 05/08/1988 UTH @ LAL L 45 29 12 25 48.0 0 0 - 5 6 83.3 2 4 6 3 3 0 3 3 -
p63
aVMark Eaton UTH 05/08/1988 UTH @ LAL L 39 10 3 6 50.0 0 0 - 4 4 100.0 0 7 7 1 0 2 0 1 -
p64
aVMel Turpin UTH 05/08/1988 UTH @ LAL L 5 2 1 2 50.0 0 0 - 0 0 - 1 0 1 1 1 0 0 0 -
p65
aVJohn Stockton UTH 05/08/1988 UTH @ LAL L 39 7 3 13 23.1 0 2 0.0 1 1 100.0 1 0 1 16 4 0 3 4 -
p66
aVThurl Bailey UTH 05/08/1988 UTH @ LAL L 42 23 10 19 52.6 0 0 - 3 3 100.0 2 6 8 1 0 1 4 3 -
p67
aVKarl Malone UTH 05/06/1988 UTH vs. POR W 44 38 17 29 58.6 0 0 - 4 8 50.0 3 7 10 2 2 1 3 1 -
p68
aVMarc Iavaroni UTH 05/06/1988 UTH vs. POR W 7 2 1 1 100.0 0 0 - 0 0 - 1 1 2 1 0 0 0 0 -
p69
aVThurl Bailey UTH 05/06/1988 UTH vs. POR W 44 26 7 23 30.4 0 0 - 12 15 80.0 4 5 9 3 1 1 1 1 -
p70
aVMark Eaton UTH 05/06/1988 UTH vs. POR W 43 6 3 8 37.5 0 0 - 0 3 0.0 3 8 11 1 2 3 1 5 -
p71
aVBob Hansen UTH 05/06/1988 UTH vs. POR W 39 14 5 10 50.0 2 2 100.0 2 2 100.0 1 2 3 2 0 0 2 6 -
p72
aVMel Turpin UTH 05/06/1988 UTH vs. POR W 5 0 0 0 - 0 0 - 0 0 - 0 1 1 0 0 2 1 1 -
p73
aVJohn Stockton UTH 05/06/1988 UTH vs. POR W 45 23 6 12 50.0 0 1 0.0 11 13 84.6 2 7 9 10 2 0 6 3 -
p74
aVBart Kofoed UTH 05/06/1988 UTH vs. POR W 9 2 1 1 100.0 0 0 - 0 0 - 0 1 1 0 0 0 0 1 -
p75
aVEddie Hughes UTH 05/06/1988 UTH vs. POR W 1 0 0 1 0.0 0 1 0.0 0 0 - 0 0 0 0 0 0 0 0 -
p76
aVRickey Green UTH 05/06/1988 UTH vs. POR W 3 0 0 0 - 0 0 - 0 0 - 0 0 0 1 0 0 0 0 -
p77
aVMarc Iavaroni UTH 05/04/1988 UTH vs. POR W 16 3 1 2 50.0 0 0 - 1 2 50.0 0 1 1 2 0 0 0 3 -
p78
aVKarl Malone UTH 05/04/1988 UTH vs. POR W 46 35 9 21 42.9 0 0 - 17 22 77.3 2 7 9 3 0 1 3 3 -
p79
aVRickey Green UTH 05/04/1988 UTH vs. POR W 8 2 1 3 33.3 0 0 - 0 0 - 0 0 0 1 0 0 0 0 -
p80
aVJohn Stockton UTH 05/04/1988 UTH vs. POR W 41 17 6 10 60.0 0 2 0.0 5 7 71.4 2 2 4 16 4 1 5 3 -
p81
aVThurl Bailey UTH 05/04/1988 UTH vs. POR W 43 39 15 25 60.0 0 0 - 9 9 100.0 2 6 8 1 0 4 3 3 -
p82
aVBob Hansen UTH 05/04/1988 UTH vs. POR W 25 11 4 5 80.0 2 2 100.0 1 2 50.0 1 5 6 2 1 0 2 5 -
p83
aVMark Eaton UTH 05/04/1988 UTH vs. POR W 31 4 2 4 50.0 0 0 - 0 0 - 0 4 4 0 1 1 2 6 -
p84
aVBart Kofoed UTH 05/04/1988 UTH vs. POR W 22 2 1 3 33.3 0 1 0.0 0 0 - 0 3 3 4 0 0 2 3 -
p85
aVMel Turpin UTH 05/04/1988 UTH vs. POR W 8 0 0 1 0.0 0 0 - 0 0 - 0 0 0 0 0 2 0 3 -
p86
aVThurl Bailey UTH 04/30/1988 UTH @ POR W 38 17 7 14 50.0 0 0 - 3 4 75.0 0 2 2 3 0 3 4 3 -
p87
aVBart Kofoed UTH 04/30/1988 UTH @ POR W 9 2 1 1 100.0 0 0 - 0 0 - 0 2 2 1 0 0 0 2 -
p88
aVJohn Stockton UTH 04/30/1988 UTH @ POR W 42 20 2 8 25.0 0 1 0.0 16 19 84.2 1 5 6 13 1 0 5 5 -
p89
aVKarl Malone UTH 04/30/1988 UTH @ POR W 44 37 12 21 57.1 0 0 - 13 16 81.3 1 15 16 1 1 0 7 4 -
p90
aVMarc Iavaroni UTH 04/30/1988 UTH @ POR W 15 7 2 3 66.7 0 0 - 3 4 75.0 0 4 4 2 0 0 1 3 -
p91
aVRickey Green UTH 04/30/1988 UTH @ POR W 6 0 0 1 0.0 0 0 - 0 0 - 0 0 0 0 1 0 1 1 -
p92
aVBob Hansen UTH 04/30/1988 UTH @ POR W 39 23 8 11 72.7 3 4 75.0 4 4 100.0 0 2 2 3 1 0 5 3 -
p93
aVMel Turpin UTH 04/30/1988 UTH @ POR W 1 2 1 1 100.0 0 0 - 0 0 - 0 0 0 0 0 0 0 0 -
p94
aVMark Eaton UTH 04/30/1988 UTH @ POR W 46 6 2 4 50.0 0 0 - 2 4 50.0 3 10 13 4 2 6 3 6 -
p95
aVMarc Iavaroni UTH 04/28/1988 UTH @ POR L 5 0 0 0 - 0 0 - 0 0 - 0 0 0 1 0 0 0 2 -
p96
aVRickey Green UTH 04/28/1988 UTH @ POR L 9 0 0 1 0.0 0 0 - 0 0 - 0 0 0 4 0 0 1 1 -
p97
aVEddie Hughes UTH 04/28/1988 UTH @ POR L 1 0 0 0 - 0 0 - 0 0 - 0 0 0 0 0 0 0 0 -
p98
aVThurl Bailey UTH 04/28/1988 UTH @ POR L 43 31 14 23 60.9 0 0 - 3 6 50.0 3 2 5 4 0 2 0 3 -
p99
aVKarl Malone UTH 04/28/1988 UTH @ POR L 44 16 5 22 22.7 0 0 - 6 7 85.7 4 9 13 1 1 0 6 3 -
p100
aVJohn Stockton UTH 04/28/1988 UTH @ POR L 38 20 6 9 66.7 2 2 100.0 6 7 85.7 0 2 2 9 2 0 6 5 -
p101
aVMel Turpin UTH 04/28/1988 UTH @ POR L 5 2 1 2 50.0 0 0 - 0 0 - 0 0 0 0 0 0 0 1 -
p102
aVBart Kofoed UTH 04/28/1988 UTH @ POR L 19 7 3 6 50.0 1 2 50.0 0 0 - 0 2 2 3 0 0 1 3 -
p103
aVBob Hansen UTH 04/28/1988 UTH @ POR L 29 12 5 9 55.6 2 3 66.7 0 0 - 0 1 1 3 0 0 2 1 -
p104
aVScott Roth UTH 04/28/1988 UTH @ POR L 1 2 1 1 100.0 0 0 - 0 0 - 0 0 0 0 1 0 0 0 -
p105
aVMark Eaton UTH 04/28/1988 UTH @ POR L 46 6 3 5 60.0 0 0 - 0 0 - 0 9 9 1 1 2 1 4 -
p106
a.