(lp0
VPLAYER TEAM DATE MATCHUP W/L MIN PTS FGM FGA FG% 3PM 3PA 3P% FTM FTA FT% OREB DREB REB AST STL BLK TOV PF +/-
p1
aVHakeem Olajuwon HOU 05/05/1988 HOU vs. DAL L 44 40 16 24 66.7 0 1 0.0 8 8 100.0 3 12 15 3 2 1 1 3 -
p2
aVWorld Free HOU 05/05/1988 HOU vs. DAL L 5 0 0 1 0.0 0 1 0.0 0 0 - 1 1 2 0 0 0 3 1 -
p3
aVJoe Barry Carroll HOU 05/05/1988 HOU vs. DAL L 24 8 4 11 36.4 0 0 - 0 0 - 1 3 4 0 1 0 1 3 -
p4
aVPurvis Short HOU 05/05/1988 HOU vs. DAL L 18 4 2 6 33.3 0 1 0.0 0 0 - 1 1 2 0 0 0 2 1 -
p5
aVRodney McCray HOU 05/05/1988 HOU vs. DAL L 38 7 2 5 40.0 0 0 - 3 4 75.0 4 2 6 2 0 1 2 2 -
p6
aVSleepy Floyd HOU 05/05/1988 HOU vs. DAL L 35 11 4 16 25.0 2 4 50.0 1 1 100.0 1 0 1 9 2 0 5 2 -
p7
aVJim Petersen HOU 05/05/1988 HOU vs. DAL L 25 12 4 7 57.1 0 0 - 4 4 100.0 2 4 6 0 0 1 3 6 -
p8
aVBuck Johnson HOU 05/05/1988 HOU vs. DAL L 5 1 0 0 - 0 0 - 1 2 50.0 1 1 2 0 1 0 3 0 -
p9
aVCedric Maxwell HOU 05/05/1988 HOU vs. DAL L 4 0 0 0 - 0 0 - 0 0 - 0 0 0 1 0 0 0 0 -
p10
aVAllen Leavell HOU 05/05/1988 HOU vs. DAL L 13 10 3 7 42.9 2 4 50.0 2 2 100.0 0 1 1 4 1 0 2 2 -
p11
aVRobert Reid HOU 05/05/1988 HOU vs. DAL L 29 4 1 5 20.0 0 1 0.0 2 2 100.0 0 6 6 2 0 0 0 4 -
p12
aVJim Petersen HOU 05/03/1988 HOU vs. DAL L 23 7 3 7 42.9 0 0 - 1 2 50.0 3 1 4 4 1 0 0 1 -
p13
aVRodney McCray HOU 05/03/1988 HOU vs. DAL L 39 4 2 8 25.0 0 0 - 0 0 - 5 3 8 1 3 0 3 3 -
p14
aVBuck Johnson HOU 05/03/1988 HOU vs. DAL L 5 4 2 3 66.7 0 0 - 0 0 - 0 1 1 0 0 0 1 0 -
p15
aVSleepy Floyd HOU 05/03/1988 HOU vs. DAL L 37 10 4 13 30.8 1 2 50.0 1 2 50.0 0 0 0 5 2 0 1 3 -
p16
aVJoe Barry Carroll HOU 05/03/1988 HOU vs. DAL L 33 16 8 17 47.1 0 0 - 0 0 - 6 3 9 0 1 0 0 1 -
p17
aVAllen Leavell HOU 05/03/1988 HOU vs. DAL L 11 6 3 4 75.0 0 0 - 0 0 - 0 2 2 4 1 0 3 0 -
p18
aVHakeem Olajuwon HOU 05/03/1988 HOU vs. DAL L 40 35 13 27 48.1 0 0 - 9 10 90.0 6 6 12 0 3 3 2 2 -
p19
aVCedric Maxwell HOU 05/03/1988 HOU vs. DAL L 4 0 0 0 - 0 0 - 0 0 - 0 0 0 0 0 0 0 0 -
p20
aVPurvis Short HOU 05/03/1988 HOU vs. DAL L 13 0 0 5 0.0 0 0 - 0 0 - 1 1 2 1 0 0 1 1 -
p21
aVRobert Reid HOU 05/03/1988 HOU vs. DAL L 35 10 5 13 38.5 0 2 0.0 0 1 0.0 3 3 6 1 2 0 0 4 -
p22
aVRodney McCray HOU 04/30/1988 HOU @ DAL W 42 11 4 8 50.0 0 1 0.0 3 6 50.0 2 2 4 1 1 0 1 4 -
p23
aVAllen Leavell HOU 04/30/1988 HOU @ DAL W 4 0 0 1 0.0 0 0 - 0 0 - 0 0 0 1 0 0 0 1 -
p24
aVSleepy Floyd HOU 04/30/1988 HOU @ DAL W 44 42 16 22 72.7 1 1 100.0 9 10 90.0 1 2 3 9 1 0 2 2 -
p25
aVCedric Maxwell HOU 04/30/1988 HOU @ DAL W 3 0 0 1 0.0 0 0 - 0 0 - 0 0 0 0 0 0 0 0 -
p26
aVLester Conner HOU 04/30/1988 HOU @ DAL W 1 2 0 0 - 0 0 - 2 2 100.0 0 1 1 1 1 0 0 0 -
p27
aVHakeem Olajuwon HOU 04/30/1988 HOU @ DAL W 43 41 15 27 55.6 0 0 - 11 14 78.6 7 19 26 2 3 4 3 4 -
p28
aVJoe Barry Carroll HOU 04/30/1988 HOU @ DAL W 28 7 2 9 22.2 0 0 - 3 4 75.0 0 3 3 2 1 1 1 5 -
p29
aVPurvis Short HOU 04/30/1988 HOU @ DAL W 22 5 1 7 14.3 0 0 - 3 3 100.0 1 1 2 0 0 0 0 2 -
p30
aVRobert Reid HOU 04/30/1988 HOU @ DAL W 26 9 4 8 50.0 1 1 100.0 0 0 - 0 1 1 3 0 0 1 4 -
p31
aVBuck Johnson HOU 04/30/1988 HOU @ DAL W 3 0 0 0 - 0 0 - 0 0 - 0 0 0 0 0 0 0 0 -
p32
aVJim Petersen HOU 04/30/1988 HOU @ DAL W 24 2 1 2 50.0 0 0 - 0 0 - 0 3 3 2 0 1 1 1 -
p33
aVWorld Free HOU 04/28/1988 HOU @ DAL L 7 0 0 1 0.0 0 0 - 0 0 - 0 0 0 1 0 0 0 1 -
p34
aVSleepy Floyd HOU 04/28/1988 HOU @ DAL L 38 12 2 10 20.0 0 1 0.0 8 9 88.9 1 2 3 11 3 0 4 3 -
p35
aVCedric Maxwell HOU 04/28/1988 HOU @ DAL L 4 2 1 1 100.0 0 0 - 0 0 - 1 0 1 0 0 0 0 1 -
p36
aVAllen Leavell HOU 04/28/1988 HOU @ DAL L 10 4 1 7 14.3 0 2 0.0 2 2 100.0 0 0 0 0 0 0 1 3 -
p37
aVJim Petersen HOU 04/28/1988 HOU @ DAL L 26 10 4 7 57.1 0 0 - 2 6 33.3 2 6 8 0 0 0 0 3 -
p38
aVRodney McCray HOU 04/28/1988 HOU @ DAL L 40 10 4 10 40.0 0 0 - 2 2 100.0 4 5 9 5 0 2 1 3 -
p39
aVRobert Reid HOU 04/28/1988 HOU @ DAL L 24 12 5 7 71.4 2 3 66.7 0 0 - 0 2 2 2 0 0 2 1 -
p40
aVBuck Johnson HOU 04/28/1988 HOU @ DAL L 7 0 0 0 - 0 0 - 0 0 - 1 0 1 0 0 0 0 1 -
p41
aVJoe Barry Carroll HOU 04/28/1988 HOU @ DAL L 31 13 4 10 40.0 0 0 - 5 6 83.3 1 2 3 0 0 0 3 3 -
p42
aVHakeem Olajuwon HOU 04/28/1988 HOU @ DAL L 35 34 12 20 60.0 0 0 - 10 11 90.9 4 10 14 2 1 3 3 5 -
p43
aVPurvis Short HOU 04/28/1988 HOU @ DAL L 18 13 4 8 50.0 0 0 - 5 5 100.0 1 2 3 0 1 0 1 4 -
p44
a.