(lp0
VPLAYER TEAM DATE MATCHUP W/L MIN PTS FGM FGA FG% 3PM 3PA 3P% FTM FTA FT% OREB DREB REB AST STL BLK TOV PF +/-
p1
aVWayne Cooper DEN 05/19/1988 DEN @ DAL L 12 2 1 3 33.3 0 0 - 0 0 - 1 2 3 1 1 1 0 2 -
p2
aVDan Schayes DEN 05/19/1988 DEN @ DAL L 35 15 5 12 41.7 0 0 - 5 7 71.4 5 4 9 2 1 0 3 4 -
p3
aVBill Hanzlik DEN 05/19/1988 DEN @ DAL L 25 8 2 6 33.3 0 2 0.0 4 4 100.0 1 4 5 7 0 2 1 5 -
p4
aVBlair Rasmussen DEN 05/19/1988 DEN @ DAL L 29 9 4 16 25.0 0 0 - 1 1 100.0 1 6 7 1 0 1 0 3 -
p5
aVT.R. Dunn DEN 05/19/1988 DEN @ DAL L 32 11 5 7 71.4 0 0 - 1 2 50.0 2 6 8 0 3 0 0 3 -
p6
aVAlex English DEN 05/19/1988 DEN @ DAL L 44 34 16 29 55.2 0 1 0.0 2 2 100.0 2 3 5 4 0 0 1 3 -
p7
aVMike Evans DEN 05/19/1988 DEN @ DAL L 22 7 3 10 30.0 1 4 25.0 0 0 - 0 2 2 1 2 0 1 0 -
p8
aVMichael Adams DEN 05/19/1988 DEN @ DAL L 41 9 4 12 33.3 0 3 0.0 1 1 100.0 1 3 4 8 3 0 1 2 -
p9
aVMichael Adams DEN 05/17/1988 DEN vs. DAL L 43 13 5 19 26.3 1 6 16.7 2 2 100.0 1 3 4 6 0 0 1 1 -
p10
aVMike Evans DEN 05/17/1988 DEN vs. DAL L 22 2 1 7 14.3 0 4 0.0 0 0 - 1 3 4 3 3 0 0 3 -
p11
aVAlex English DEN 05/17/1988 DEN vs. DAL L 42 30 15 30 50.0 0 0 - 0 2 0.0 4 4 8 6 1 0 1 3 -
p12
aVWayne Cooper DEN 05/17/1988 DEN vs. DAL L 15 2 1 3 33.3 0 0 - 0 0 - 1 2 3 0 0 1 2 3 -
p13
aVBlair Rasmussen DEN 05/17/1988 DEN vs. DAL L 33 10 5 15 33.3 0 0 - 0 0 - 4 6 10 3 0 1 0 2 -
p14
aVT.R. Dunn DEN 05/17/1988 DEN vs. DAL L 32 6 2 4 50.0 0 0 - 2 4 50.0 1 5 6 1 0 0 1 2 -
p15
aVDan Schayes DEN 05/17/1988 DEN vs. DAL L 34 33 11 16 68.8 0 0 - 11 14 78.6 5 8 13 1 0 0 3 4 -
p16
aVBill Hanzlik DEN 05/17/1988 DEN vs. DAL L 19 10 5 7 71.4 0 0 - 0 2 0.0 1 0 1 3 0 1 1 6 -
p17
aVMichael Brooks DEN 05/15/1988 DEN @ DAL L 5 0 0 2 0.0 0 1 0.0 0 0 - 1 2 3 1 0 0 0 1 -
p18
aVBill Hanzlik DEN 05/15/1988 DEN @ DAL L 16 4 2 4 50.0 0 0 - 0 0 - 0 0 0 0 1 0 1 2 -
p19
aVDan Schayes DEN 05/15/1988 DEN @ DAL L 39 8 3 7 42.9 0 0 - 2 2 100.0 2 4 6 1 0 2 1 4 -
p20
aVMike Evans DEN 05/15/1988 DEN @ DAL L 30 19 7 24 29.2 2 8 25.0 3 3 100.0 3 1 4 4 0 0 2 0 -
p21
aVMichael Adams DEN 05/15/1988 DEN @ DAL L 37 8 3 12 25.0 1 4 25.0 1 2 50.0 1 2 3 9 0 0 3 1 -
p22
aVMo Martin DEN 05/15/1988 DEN @ DAL L 4 3 0 3 0.0 0 0 - 3 4 75.0 0 1 1 0 0 1 0 0 -
p23
aVWayne Cooper DEN 05/15/1988 DEN @ DAL L 19 10 4 8 50.0 0 0 - 2 2 100.0 6 4 10 1 0 2 2 4 -
p24
aVT.R. Dunn DEN 05/15/1988 DEN @ DAL L 20 4 2 3 66.7 0 0 - 0 0 - 1 2 3 0 2 0 0 3 -
p25
aVBlair Rasmussen DEN 05/15/1988 DEN @ DAL L 31 23 10 19 52.6 0 0 - 3 4 75.0 3 6 9 1 1 1 1 2 -
p26
aVAlex English DEN 05/15/1988 DEN @ DAL L 39 24 10 20 50.0 0 0 - 4 4 100.0 2 2 4 6 1 0 2 2 -
p27
aVT.R. Dunn DEN 05/14/1988 DEN @ DAL W 4 0 0 1 0.0 0 0 - 0 0 - 0 0 0 0 0 0 0 0 -
p28
aVJay Vincent DEN 05/14/1988 DEN @ DAL W 11 7 3 8 37.5 0 0 - 1 1 100.0 2 2 4 0 0 0 1 2 -
p29
aVAlex English DEN 05/14/1988 DEN @ DAL W 40 23 11 22 50.0 0 0 - 1 2 50.0 2 2 4 7 1 1 2 4 -
p30
aVBlair Rasmussen DEN 05/14/1988 DEN @ DAL W 31 16 8 19 42.1 0 0 - 0 0 - 4 3 7 1 0 0 2 5 -
p31
aVLafayette Lever DEN 05/14/1988 DEN @ DAL W 43 11 5 12 41.7 0 0 - 1 3 33.3 2 9 11 12 2 0 0 1 -
p32
aVBill Hanzlik DEN 05/14/1988 DEN @ DAL W 19 9 4 8 50.0 0 0 - 1 2 50.0 1 3 4 5 0 0 1 4 -
p33
aVWayne Cooper DEN 05/14/1988 DEN @ DAL W 20 0 0 3 0.0 0 0 - 0 0 - 5 1 6 1 2 4 0 4 -
p34
aVDan Schayes DEN 05/14/1988 DEN @ DAL W 22 12 5 6 83.3 0 0 - 2 3 66.7 2 3 5 1 0 0 4 5 -
p35
aVMichael Adams DEN 05/14/1988 DEN @ DAL W 36 17 5 11 45.5 2 6 33.3 5 7 71.4 1 3 4 6 2 0 2 2 -
p36
aVMike Evans DEN 05/14/1988 DEN @ DAL W 14 12 5 8 62.5 2 2 100.0 0 0 - 1 1 2 1 0 0 2 2 -
p37
aVLafayette Lever DEN 05/12/1988 DEN vs. DAL L 43 22 9 19 47.4 2 2 100.0 2 4 50.0 4 6 10 5 0 0 0 3 -
p38
aVBlair Rasmussen DEN 05/12/1988 DEN vs. DAL L 23 10 5 12 41.7 0 0 - 0 0 - 1 4 5 1 0 0 0 5 -
p39
aVMike Evans DEN 05/12/1988 DEN vs. DAL L 20 16 6 15 40.0 3 9 33.3 1 1 100.0 0 0 0 0 3 0 0 3 -
p40
aVDan Schayes DEN 05/12/1988 DEN vs. DAL L 29 20 8 9 88.9 0 0 - 4 4 100.0 4 8 12 5 1 1 2 4 -
p41
aVT.R. Dunn DEN 05/12/1988 DEN vs. DAL L 4 0 0 1 0.0 0 0 - 0 0 - 0 0 0 0 0 0 0 0 -
p42
aVMichael Adams DEN 05/12/1988 DEN vs. DAL L 31 7 1 6 16.7 1 3 33.3 4 4 100.0 0 0 0 7 2 0 3 0 -
p43
aVJay Vincent DEN 05/12/1988 DEN vs. DAL L 21 9 4 10 40.0 0 0 - 1 1 100.0 1 1 2 1 0 0 1 3 -
p44
aVWayne Cooper DEN 05/12/1988 DEN vs. DAL L 14 2 1 4 25.0 0 0 - 0 0 - 2 2 4 2 0 0 0 3 -
p45
aVAlex English DEN 05/12/1988 DEN vs. DAL L 41 22 8 21 38.1 0 1 0.0 6 6 100.0 5 3 8 3 0 0 3 5 -
p46
aVBill Hanzlik DEN 05/12/1988 DEN vs. DAL L 14 0 0 5 0.0 0 3 0.0 0 0 - 2 0 2 1 0 0 1 5 -
p47
aVMike Evans DEN 05/10/1988 DEN vs. DAL W 11 11 5 5 100.0 1 1 100.0 0 0 - 0 1 1 0 0 0 2 2 -
p48
aVAlex English DEN 05/10/1988 DEN vs. DAL W 37 22 10 22 45.5 0 0 - 2 2 100.0 2 2 4 8 1 1 3 3 -
p49
aVWayne Cooper DEN 05/10/1988 DEN vs. DAL W 8 2 1 2 50.0 0 0 - 0 0 - 1 4 5 1 0 0 0 2 -
p50
aVBlair Rasmussen DEN 05/10/1988 DEN vs. DAL W 19 8 3 5 60.0 0 0 - 2 2 100.0 0 6 6 0 0 3 0 5 -
p51
aVJay Vincent DEN 05/10/1988 DEN vs. DAL W 22 17 7 15 46.7 0 0 - 3 3 100.0 0 3 3 0 0 0 2 3 -
p52
aVMichael Adams DEN 05/10/1988 DEN vs. DAL W 37 14 4 7 57.1 2 4 50.0 4 4 100.0 0 1 1 6 2 0 2 2 -
p53
aVDan Schayes DEN 05/10/1988 DEN vs. DAL W 29 14 4 4 100.0 0 0 - 6 6 100.0 1 5 6 2 0 2 5 6 -
p54
aVT.R. Dunn DEN 05/10/1988 DEN vs. DAL W 6 0 0 1 0.0 0 0 - 0 0 - 1 0 1 0 0 0 0 2 -
p55
aVLafayette Lever DEN 05/10/1988 DEN vs. DAL W 44 30 12 17 70.6 1 1 100.0 5 6 83.3 3 8 11 8 3 1 1 2 -
p56
aVBill Hanzlik DEN 05/10/1988 DEN vs. DAL W 27 8 2 5 40.0 0 0 - 4 5 80.0 0 1 1 1 2 2 0 4 -
p57
aVMike Evans DEN 05/07/1988 DEN vs. SEA W 12 0 0 3 0.0 0 1 0.0 0 0 - 0 1 1 2 0 0 0 0 -
p58
aVAlex English DEN 05/07/1988 DEN vs. SEA W 36 23 9 19 47.4 0 0 - 5 7 71.4 3 2 5 7 1 0 1 2 -
p59
aVT.R. Dunn DEN 05/07/1988 DEN vs. SEA W 12 2 1 1 100.0 0 0 - 0 0 - 0 0 0 0 0 0 0 2 -
p60
aVMichael Brooks DEN 05/07/1988 DEN vs. SEA W 3 3 1 1 100.0 1 1 100.0 0 0 - 0 1 1 1 0 0 0 0 -
p61
aVBill Hanzlik DEN 05/07/1988 DEN vs. SEA W 18 7 3 6 50.0 0 0 - 1 1 100.0 0 4 4 0 1 1 3 4 -
p62
aVMichael Adams DEN 05/07/1988 DEN vs. SEA W 43 20 7 13 53.8 4 7 57.1 2 2 100.0 1 3 4 4 1 0 3 2 -
p63
aVDan Schayes DEN 05/07/1988 DEN vs. SEA W 27 21 4 5 80.0 0 0 - 13 14 92.9 1 3 4 0 0 0 1 4 -
p64
aVJay Vincent DEN 05/07/1988 DEN vs. SEA W 25 16 6 11 54.5 0 0 - 4 6 66.7 1 6 7 1 1 0 1 4 -
p65
aVLafayette Lever DEN 05/07/1988 DEN vs. SEA W 39 21 7 13 53.8 0 0 - 7 8 87.5 1 4 5 6 2 0 1 3 -
p66
aVMo Martin DEN 05/07/1988 DEN vs. SEA W 1 0 0 0 - 0 0 - 0 0 - 0 0 0 0 0 0 0 0 -
p67
aVBlair Rasmussen DEN 05/07/1988 DEN vs. SEA W 24 2 1 5 20.0 0 0 - 0 0 - 0 4 4 0 0 2 0 1 -
p68
aVAlex English DEN 05/05/1988 DEN @ SEA L 38 20 7 20 35.0 0 1 0.0 6 6 100.0 2 2 4 5 0 0 1 5 -
p69
aVT.R. Dunn DEN 05/05/1988 DEN @ SEA L 28 3 1 1 100.0 0 0 - 1 2 50.0 3 2 5 0 1 0 2 2 -
p70
aVBill Hanzlik DEN 05/05/1988 DEN @ SEA L 14 4 0 1 0.0 0 0 - 4 8 50.0 1 1 2 1 1 2 0 3 -
p71
aVDan Schayes DEN 05/05/1988 DEN @ SEA L 28 11 2 5 40.0 0 0 - 7 8 87.5 3 5 8 2 1 1 3 3 -
p72
aVMike Evans DEN 05/05/1988 DEN @ SEA L 25 13 5 13 38.5 0 4 0.0 3 4 75.0 0 2 2 5 1 0 0 3 -
p73
aVMichael Adams DEN 05/05/1988 DEN @ SEA L 46 22 8 16 50.0 3 7 42.9 3 4 75.0 2 4 6 4 3 1 5 4 -
p74
aVMichael Brooks DEN 05/05/1988 DEN @ SEA L 1 0 0 0 - 0 0 - 0 0 - 0 0 0 0 0 0 0 0 -
p75
aVJay Vincent DEN 05/05/1988 DEN @ SEA L 40 28 10 18 55.6 0 1 0.0 8 10 80.0 2 3 5 2 1 1 2 4 -
p76
aVBlair Rasmussen DEN 05/05/1988 DEN @ SEA L 20 16 5 7 71.4 0 0 - 6 6 100.0 1 3 4 0 0 0 0 3 -
p77
aVWayne Cooper DEN 05/03/1988 DEN @ SEA W 4 0 0 0 - 0 0 - 0 0 - 0 0 0 0 0 0 0 0 -
p78
aVLafayette Lever DEN 05/03/1988 DEN @ SEA W 20 6 3 6 50.0 0 0 - 0 0 - 0 5 5 7 3 0 0 1 -
p79
aVMichael Adams DEN 05/03/1988 DEN @ SEA W 35 19 5 12 41.7 2 3 66.7 7 8 87.5 1 3 4 7 1 0 0 1 -
p80
aVJay Vincent DEN 05/03/1988 DEN @ SEA W 31 24 10 18 55.6 0 0 - 4 4 100.0 1 4 5 1 1 0 5 3 -
p81
aVT.R. Dunn DEN 05/03/1988 DEN @ SEA W 21 0 0 0 - 0 0 - 0 0 - 1 1 2 0 2 0 0 2 -
p82
aVDan Schayes DEN 05/03/1988 DEN @ SEA W 20 12 4 5 80.0 0 0 - 4 4 100.0 2 3 5 1 0 1 2 5 -
p83
aVBlair Rasmussen DEN 05/03/1988 DEN @ SEA W 39 28 13 21 61.9 0 0 - 2 3 66.7 7 5 12 0 0 3 1 4 -
p84
aVAlex English DEN 05/03/1988 DEN @ SEA W 39 25 12 24 50.0 0 0 - 1 2 50.0 1 4 5 0 0 0 0 2 -
p85
aVBill Hanzlik DEN 05/03/1988 DEN @ SEA W 19 2 1 6 16.7 0 1 0.0 0 0 - 2 4 6 3 0 0 1 2 -
p86
aVMike Evans DEN 05/03/1988 DEN @ SEA W 12 9 4 8 50.0 1 3 33.3 0 0 - 0 0 0 2 1 0 2 4 -
p87
aVBlair Rasmussen DEN 05/01/1988 DEN vs. SEA L 9 6 3 4 75.0 0 0 - 0 0 - 1 1 2 0 0 1 2 1 -
p88
aVMichael Adams DEN 05/01/1988 DEN vs. SEA L 31 12 2 11 18.2 1 6 16.7 7 7 100.0 1 5 6 5 4 1 2 1 -
p89
aVMichael Brooks DEN 05/01/1988 DEN vs. SEA L 2 0 0 0 - 0 0 - 0 0 - 0 0 0 0 0 0 0 0 -
p90
aVT.R. Dunn DEN 05/01/1988 DEN vs. SEA L 15 0 0 0 - 0 0 - 0 0 - 1 1 2 1 0 0 1 2 -
p91
aVWayne Cooper DEN 05/01/1988 DEN vs. SEA L 2 0 0 0 - 0 0 - 0 0 - 0 1 1 0 0 0 0 0 -
p92
aVMo Martin DEN 05/01/1988 DEN vs. SEA L 4 4 1 2 50.0 0 1 0.0 2 2 100.0 0 0 0 0 0 0 1 1 -
p93
aVBill Hanzlik DEN 05/01/1988 DEN vs. SEA L 21 4 0 5 0.0 0 2 0.0 4 4 100.0 1 0 1 4 0 1 1 3 -
p94
aVLafayette Lever DEN 05/01/1988 DEN vs. SEA L 39 11 5 20 25.0 0 4 0.0 1 2 50.0 5 7 12 3 0 2 0 2 -
p95
aVAlex English DEN 05/01/1988 DEN vs. SEA L 39 16 6 18 33.3 0 0 - 4 6 66.7 2 3 5 0 0 0 1 3 -
p96
aVJay Vincent DEN 05/01/1988 DEN vs. SEA L 23 14 4 9 44.4 0 0 - 6 6 100.0 1 3 4 0 1 1 1 2 -
p97
aVMike Evans DEN 05/01/1988 DEN vs. SEA L 32 16 6 14 42.9 1 4 25.0 3 3 100.0 0 4 4 4 1 0 2 1 -
p98
aVDan Schayes DEN 05/01/1988 DEN vs. SEA L 23 8 2 7 28.6 0 0 - 4 6 66.7 3 2 5 1 0 1 0 3 -
p99
aVMike Evans DEN 04/29/1988 DEN vs. SEA W 19 11 3 7 42.9 1 4 25.0 4 4 100.0 1 1 2 1 1 0 1 1 -
p100
aVWayne Cooper DEN 04/29/1988 DEN vs. SEA W 2 0 0 0 - 0 0 - 0 0 - 0 1 1 0 0 0 0 1 -
p101
aVBlair Rasmussen DEN 04/29/1988 DEN vs. SEA W 19 10 3 4 75.0 0 0 - 4 4 100.0 3 2 5 0 0 0 0 2 -
p102
aVBill Hanzlik DEN 04/29/1988 DEN vs. SEA W 20 2 1 3 33.3 0 0 - 0 0 - 2 1 3 1 0 0 4 2 -
p103
aVLafayette Lever DEN 04/29/1988 DEN vs. SEA W 45 18 4 11 36.4 0 0 - 10 10 100.0 1 10 11 8 3 1 2 3 -
p104
aVDan Schayes DEN 04/29/1988 DEN vs. SEA W 28 26 7 12 58.3 0 0 - 12 15 80.0 2 4 6 2 0 2 0 4 -
p105
aVMichael Adams DEN 04/29/1988 DEN vs. SEA W 26 6 3 11 27.3 0 5 0.0 0 0 - 0 0 0 2 0 0 1 3 -
p106
aVJay Vincent DEN 04/29/1988 DEN vs. SEA W 27 25 9 15 60.0 0 0 - 7 9 77.8 2 5 7 1 1 2 1 4 -
p107
aVT.R. Dunn DEN 04/29/1988 DEN vs. SEA W 11 0 0 1 0.0 0 0 - 0 0 - 1 1 2 1 0 0 0 2 -
p108
aVAlex English DEN 04/29/1988 DEN vs. SEA W 43 28 12 30 40.0 0 0 - 4 4 100.0 6 1 7 2 2 1 1 2 -
p109
a.