(lp0
VPLAYER TEAM DATE MATCHUP W/L MIN PTS FGM FGA FG% 3PM 3PA 3P% FTM FTA FT% OREB DREB REB AST STL BLK TOV PF +/-
p1
aVJay Humphries MIL 05/08/1988 MIL @ ATL L 7 0 0 2 0.0 0 0 - 0 0 - 0 0 0 1 0 0 0 2 -
p2
aVJohn Stroeder MIL 05/08/1988 MIL @ ATL L 1 3 1 1 100.0 1 1 100.0 0 0 - 0 0 0 0 0 0 0 0 -
p3
aVJack Sikma MIL 05/08/1988 MIL @ ATL L 36 14 5 13 38.5 0 1 0.0 4 6 66.7 2 6 8 2 1 2 4 4 -
p4
aVRicky Pierce MIL 05/08/1988 MIL @ ATL L 20 12 5 10 50.0 0 0 - 2 2 100.0 5 2 7 3 0 0 1 3 -
p5
aVTerry Cummings MIL 05/08/1988 MIL @ ATL L 37 28 11 16 68.8 0 0 - 6 10 60.0 1 4 5 2 2 0 2 3 -
p6
aVLarry Krystkowiak MIL 05/08/1988 MIL @ ATL L 32 5 1 4 25.0 0 0 - 3 4 75.0 2 8 10 1 1 0 3 3 -
p7
aVJohn Lucas MIL 05/08/1988 MIL @ ATL L 26 15 6 11 54.5 2 6 33.3 1 2 50.0 0 0 0 4 0 0 0 2 -
p8
aVJerry Reynolds MIL 05/08/1988 MIL @ ATL L 10 8 4 5 80.0 0 0 - 0 0 - 0 1 1 1 0 0 1 1 -
p9
aVRandy Breuer MIL 05/08/1988 MIL @ ATL L 13 6 3 3 100.0 0 0 - 0 2 0.0 1 2 3 0 0 0 0 2 -
p10
aVPaul Mokeski MIL 05/08/1988 MIL @ ATL L 12 8 3 5 60.0 0 0 - 2 2 100.0 3 1 4 0 0 1 1 1 -
p11
aVSidney Moncrief MIL 05/08/1988 MIL @ ATL L 24 4 2 6 33.3 0 0 - 0 0 - 1 4 5 6 1 0 3 3 -
p12
aVPaul Pressey MIL 05/08/1988 MIL @ ATL L 22 8 2 7 28.6 1 2 50.0 3 5 60.0 1 0 1 6 2 0 3 4 -
p13
aVLarry Krystkowiak MIL 05/06/1988 MIL vs. ATL W 38 13 5 10 50.0 0 0 - 3 4 75.0 3 3 6 2 1 0 0 3 -
p14
aVPaul Mokeski MIL 05/06/1988 MIL vs. ATL W 13 4 1 4 25.0 0 0 - 2 4 50.0 1 3 4 0 3 1 1 2 -
p15
aVRicky Pierce MIL 05/06/1988 MIL vs. ATL W 12 5 2 3 66.7 1 2 50.0 0 0 - 0 1 1 1 0 0 0 1 -
p16
aVSidney Moncrief MIL 05/06/1988 MIL vs. ATL W 43 13 5 14 35.7 1 1 100.0 2 2 100.0 4 3 7 7 1 0 1 4 -
p17
aVPaul Pressey MIL 05/06/1988 MIL vs. ATL W 35 11 4 10 40.0 0 0 - 3 4 75.0 0 1 1 5 0 1 3 4 -
p18
aVJohn Lucas MIL 05/06/1988 MIL vs. ATL W 19 6 2 6 33.3 0 2 0.0 2 3 66.7 3 2 5 3 2 0 3 1 -
p19
aVTerry Cummings MIL 05/06/1988 MIL vs. ATL W 39 30 12 23 52.2 0 0 - 6 9 66.7 2 5 7 3 2 2 1 4 -
p20
aVJerry Reynolds MIL 05/06/1988 MIL vs. ATL W 1 0 0 1 0.0 0 0 - 0 0 - 0 0 0 0 0 0 0 0 -
p21
aVJack Sikma MIL 05/06/1988 MIL vs. ATL W 40 23 7 13 53.8 0 0 - 9 10 90.0 2 7 9 4 0 1 2 5 -
p22
aVJohn Lucas MIL 05/04/1988 MIL vs. ATL W 7 0 0 1 0.0 0 0 - 0 0 - 0 0 0 5 0 0 0 0 -
p23
aVPaul Pressey MIL 05/04/1988 MIL vs. ATL W 43 21 6 14 42.9 0 1 0.0 9 10 90.0 1 4 5 6 1 1 6 3 -
p24
aVJack Sikma MIL 05/04/1988 MIL vs. ATL W 36 25 9 17 52.9 0 0 - 7 8 87.5 8 8 16 3 0 1 1 0 -
p25
aVPaul Mokeski MIL 05/04/1988 MIL vs. ATL W 10 2 1 4 25.0 0 0 - 0 0 - 1 0 1 0 0 0 0 1 -
p26
aVLarry Krystkowiak MIL 05/04/1988 MIL vs. ATL W 39 10 1 5 20.0 0 0 - 8 8 100.0 2 4 6 1 1 0 0 3 -
p27
aVRicky Pierce MIL 05/04/1988 MIL vs. ATL W 20 8 4 9 44.4 0 1 0.0 0 0 - 1 2 3 3 0 1 1 3 -
p28
aVSidney Moncrief MIL 05/04/1988 MIL vs. ATL W 39 25 7 15 46.7 0 0 - 11 11 100.0 0 2 2 4 1 1 2 5 -
p29
aVTerry Cummings MIL 05/04/1988 MIL vs. ATL W 40 30 12 20 60.0 0 0 - 6 8 75.0 4 6 10 3 2 0 1 3 -
p30
aVRandy Breuer MIL 05/04/1988 MIL vs. ATL W 6 2 1 1 100.0 0 0 - 0 0 - 0 2 2 1 1 0 0 1 -
p31
aVSidney Moncrief MIL 05/01/1988 MIL @ ATL L 41 22 6 8 75.0 0 0 - 10 11 90.9 1 1 2 4 0 0 3 1 -
p32
aVJohn Lucas MIL 05/01/1988 MIL @ ATL L 19 6 1 5 20.0 1 3 33.3 3 4 75.0 0 1 1 4 2 0 3 2 -
p33
aVRandy Breuer MIL 05/01/1988 MIL @ ATL L 14 2 1 5 20.0 0 0 - 0 2 0.0 0 3 3 0 0 1 1 1 -
p34
aVPaul Pressey MIL 05/01/1988 MIL @ ATL L 35 9 3 9 33.3 0 0 - 3 4 75.0 3 3 6 9 1 1 3 5 -
p35
aVLarry Krystkowiak MIL 05/01/1988 MIL @ ATL L 21 4 2 3 66.7 0 0 - 0 0 - 3 3 6 0 0 0 0 4 -
p36
aVRicky Pierce MIL 05/01/1988 MIL @ ATL L 28 19 8 16 50.0 0 0 - 3 4 75.0 0 3 3 1 1 0 1 2 -
p37
aVJack Sikma MIL 05/01/1988 MIL @ ATL L 41 18 7 17 41.2 0 1 0.0 4 5 80.0 8 9 17 1 1 0 7 5 -
p38
aVTerry Cummings MIL 05/01/1988 MIL @ ATL L 41 17 6 14 42.9 0 0 - 5 9 55.6 4 8 12 2 2 0 3 3 -
p39
aVRicky Pierce MIL 04/29/1988 MIL @ ATL L 25 15 6 15 40.0 0 2 0.0 3 3 100.0 0 0 0 1 0 1 1 0 -
p40
aVJay Humphries MIL 04/29/1988 MIL @ ATL L 11 0 0 3 0.0 0 0 - 0 0 - 1 2 3 0 1 0 1 4 -
p41
aVRandy Breuer MIL 04/29/1988 MIL @ ATL L 14 9 4 7 57.1 0 0 - 1 2 50.0 1 3 4 0 0 1 0 3 -
p42
aVPaul Pressey MIL 04/29/1988 MIL @ ATL L 43 21 8 10 80.0 0 0 - 5 7 71.4 1 5 6 7 0 0 1 5 -
p43
aVJohn Lucas MIL 04/29/1988 MIL @ ATL L 9 2 1 4 25.0 0 2 0.0 0 0 - 2 0 2 3 1 0 0 0 -
p44
aVLarry Krystkowiak MIL 04/29/1988 MIL @ ATL L 33 10 4 7 57.1 0 0 - 2 2 100.0 3 3 6 3 1 0 2 4 -
p45
aVJack Sikma MIL 04/29/1988 MIL @ ATL L 37 15 7 16 43.8 0 1 0.0 1 1 100.0 4 8 12 3 0 0 1 5 -
p46
aVJerry Reynolds MIL 04/29/1988 MIL @ ATL L 1 0 0 0 - 0 0 - 0 0 - 0 0 0 0 0 0 0 0 -
p47
aVTerry Cummings MIL 04/29/1988 MIL @ ATL L 36 24 9 16 56.3 0 0 - 6 8 75.0 1 4 5 3 1 1 5 3 -
p48
aVPaul Mokeski MIL 04/29/1988 MIL @ ATL L 5 0 0 1 0.0 0 0 - 0 0 - 0 0 0 0 0 0 0 0 -
p49
aVSidney Moncrief MIL 04/29/1988 MIL @ ATL L 26 11 4 7 57.1 0 0 - 3 3 100.0 0 3 3 5 0 0 2 1 -
p50
a.