(lp0
VPLAYER TEAM DATE MATCHUP W/L MIN PTS FGM FGA FG% 3PM 3PA 3P% FTM FTA FT% OREB DREB REB AST STL BLK TOV PF +/-
p1
aVTrent Tucker NYK 05/06/1988 NYK vs. BOS L 6 3 1 3 33.3 1 3 33.3 0 0 - 0 1 1 0 1 0 0 1 -
p2
aVBill Cartwright NYK 05/06/1988 NYK vs. BOS L 15 4 1 3 33.3 0 0 - 2 2 100.0 1 2 3 0 0 1 2 5 -
p3
aVPatrick Ewing NYK 05/06/1988 NYK vs. BOS L 38 10 3 12 25.0 0 1 0.0 4 4 100.0 5 15 20 3 0 1 3 4 -
p4
aVPat Cummings NYK 05/06/1988 NYK vs. BOS L 11 0 0 0 - 0 0 - 0 0 - 0 2 2 2 0 0 0 5 -
p5
aVMark Jackson NYK 05/06/1988 NYK vs. BOS L 47 28 11 24 45.8 2 5 40.0 4 5 80.0 2 3 5 9 1 0 0 2 -
p6
aVGerald Wilkins NYK 05/06/1988 NYK vs. BOS L 39 18 8 17 47.1 0 1 0.0 2 2 100.0 0 1 1 7 1 0 3 4 -
p7
aVSedric Toney NYK 05/06/1988 NYK vs. BOS L 1 0 0 0 - 0 0 - 0 0 - 0 0 0 0 0 0 0 0 -
p8
aVSidney Green NYK 05/06/1988 NYK vs. BOS L 31 6 3 8 37.5 0 0 - 0 0 - 5 7 12 0 0 1 3 3 -
p9
aVJohnny Newman NYK 05/06/1988 NYK vs. BOS L 39 25 11 24 45.8 0 0 - 3 3 100.0 2 0 2 2 1 0 1 2 -
p10
aVKenny Walker NYK 05/06/1988 NYK vs. BOS L 9 0 0 0 - 0 0 - 0 0 - 0 0 0 0 0 0 0 0 -
p11
aVRick Carlisle NYK 05/06/1988 NYK vs. BOS L 4 0 0 1 0.0 0 1 0.0 0 0 - 0 1 1 0 1 0 0 1 -
p12
aVBill Cartwright NYK 05/04/1988 NYK vs. BOS W 18 7 3 6 50.0 0 0 - 1 2 50.0 4 2 6 0 0 1 1 2 -
p13
aVTrent Tucker NYK 05/04/1988 NYK vs. BOS W 12 5 2 3 66.7 1 2 50.0 0 0 - 0 0 0 2 0 0 1 0 -
p14
aVPatrick Ewing NYK 05/04/1988 NYK vs. BOS W 39 31 10 16 62.5 0 0 - 11 12 91.7 4 6 10 0 0 4 5 4 -
p15
aVSidney Green NYK 05/04/1988 NYK vs. BOS W 14 0 0 0 - 0 0 - 0 0 - 1 2 3 3 0 0 2 4 -
p16
aVKenny Walker NYK 05/04/1988 NYK vs. BOS W 18 4 2 6 33.3 0 0 - 0 0 - 1 2 3 2 0 1 1 2 -
p17
aVGerald Wilkins NYK 05/04/1988 NYK vs. BOS W 38 14 5 15 33.3 0 0 - 4 5 80.0 0 3 3 5 2 0 4 3 -
p18
aVMark Jackson NYK 05/04/1988 NYK vs. BOS W 46 9 4 14 28.6 1 2 50.0 0 0 - 2 5 7 14 5 0 3 4 -
p19
aVPat Cummings NYK 05/04/1988 NYK vs. BOS W 13 5 1 3 33.3 0 0 - 3 4 75.0 0 3 3 1 0 0 0 3 -
p20
aVJohnny Newman NYK 05/04/1988 NYK vs. BOS W 42 34 14 25 56.0 0 4 0.0 6 7 85.7 4 2 6 3 2 1 0 5 -
p21
aVRick Carlisle NYK 05/01/1988 NYK @ BOS L 4 2 1 3 33.3 0 1 0.0 0 0 - 1 0 1 0 0 0 0 0 -
p22
aVTrent Tucker NYK 05/01/1988 NYK @ BOS L 40 17 5 13 38.5 4 8 50.0 3 4 75.0 0 1 1 0 2 0 0 2 -
p23
aVSedric Toney NYK 05/01/1988 NYK @ BOS L 3 2 0 1 0.0 0 1 0.0 2 2 100.0 0 0 0 1 1 0 1 1 -
p24
aVLouis Orr NYK 05/01/1988 NYK @ BOS L 2 0 0 0 - 0 0 - 0 0 - 0 0 0 0 0 0 0 0 -
p25
aVSidney Green NYK 05/01/1988 NYK @ BOS L 18 4 2 4 50.0 0 0 - 0 0 - 0 7 7 3 0 0 1 4 -
p26
aVMark Jackson NYK 05/01/1988 NYK @ BOS L 41 9 3 11 27.3 1 2 50.0 2 4 50.0 1 3 4 7 1 0 6 4 -
p27
aVPatrick Ewing NYK 05/01/1988 NYK @ BOS L 41 18 8 14 57.1 0 0 - 2 2 100.0 4 6 10 5 6 3 0 5 -
p28
aVBill Cartwright NYK 05/01/1988 NYK @ BOS L 21 11 3 4 75.0 0 0 - 5 6 83.3 3 1 4 3 0 0 5 3 -
p29
aVGerald Wilkins NYK 05/01/1988 NYK @ BOS L 37 24 10 21 47.6 1 2 50.0 3 4 75.0 1 2 3 4 0 0 2 5 -
p30
aVKenny Walker NYK 05/01/1988 NYK @ BOS L 24 6 2 6 33.3 0 0 - 2 2 100.0 0 0 0 1 1 2 0 4 -
p31
aVJohnny Newman NYK 05/01/1988 NYK @ BOS L 9 9 3 6 50.0 0 1 0.0 3 3 100.0 2 0 2 1 1 0 1 4 -
p32
aVSedric Toney NYK 04/29/1988 NYK @ BOS L 11 9 3 5 60.0 3 5 60.0 0 0 - 0 0 0 1 0 0 1 3 -
p33
aVLouis Orr NYK 04/29/1988 NYK @ BOS L 1 1 0 1 0.0 0 0 - 1 2 50.0 1 1 2 0 0 0 0 0 -
p34
aVTrent Tucker NYK 04/29/1988 NYK @ BOS L 13 0 0 0 - 0 0 - 0 0 - 0 0 0 2 0 0 0 1 -
p35
aVMark Jackson NYK 04/29/1988 NYK @ BOS L 37 11 4 11 36.4 1 3 33.3 2 2 100.0 1 2 3 9 3 0 5 3 -
p36
aVBill Cartwright NYK 04/29/1988 NYK @ BOS L 22 7 2 5 40.0 0 0 - 3 5 60.0 0 6 6 3 0 1 0 2 -
p37
aVPatrick Ewing NYK 04/29/1988 NYK @ BOS L 35 16 7 15 46.7 0 0 - 2 4 50.0 3 8 11 2 0 5 3 4 -
p38
aVGerald Wilkins NYK 04/29/1988 NYK @ BOS L 35 24 10 16 62.5 1 1 100.0 3 3 100.0 0 1 1 3 1 0 2 0 -
p39
aVKenny Walker NYK 04/29/1988 NYK @ BOS L 29 8 4 12 33.3 0 0 - 0 0 - 2 4 6 2 1 0 0 5 -
p40
aVPat Cummings NYK 04/29/1988 NYK @ BOS L 4 2 1 2 50.0 0 0 - 0 0 - 2 0 2 0 0 0 0 3 -
p41
aVSidney Green NYK 04/29/1988 NYK @ BOS L 30 6 3 5 60.0 0 0 - 0 0 - 2 9 11 1 0 0 3 3 -
p42
aVJohnny Newman NYK 04/29/1988 NYK @ BOS L 23 8 3 13 23.1 0 4 0.0 2 3 66.7 0 1 1 1 2 0 4 5 -
p43
a.