(lp0
VPLAYER TEAM DATE MATCHUP W/L MIN PTS FGM FGA FG% 3PM 3PA 3P% FTM FTA FT% OREB DREB REB AST STL BLK TOV PF +/-
p1
aVBrad Lohaus BOS 06/03/1988 BOS @ DET L 10 6 3 5 60.0 0 1 0.0 0 0 - 0 1 1 0 0 0 0 1 -
p2
aVJim Paxson BOS 06/03/1988 BOS @ DET L 10 0 0 3 0.0 0 0 - 0 0 - 1 0 1 0 1 0 1 0 -
p3
aVMark Acres BOS 06/03/1988 BOS @ DET L 25 6 3 3 100.0 0 0 - 0 0 - 4 3 7 0 0 1 2 5 -
p4
aVDirk Minniefield BOS 06/03/1988 BOS @ DET L 6 0 0 1 0.0 0 0 - 0 0 - 0 0 0 1 0 0 2 2 -
p5
aVDanny Ainge BOS 06/03/1988 BOS @ DET L 31 2 1 11 9.1 0 2 0.0 0 0 - 2 1 3 4 0 1 1 1 -
p6
aVFred Roberts BOS 06/03/1988 BOS @ DET L 2 0 0 1 0.0 0 0 - 0 0 - 0 1 1 0 0 0 0 0 -
p7
aVArtis Gilmore BOS 06/03/1988 BOS @ DET L 10 3 1 2 50.0 0 0 - 1 2 50.0 0 4 4 0 0 1 0 3 -
p8
aVReggie Lewis BOS 06/03/1988 BOS @ DET L 10 5 2 5 40.0 0 0 - 1 1 100.0 0 1 1 1 0 0 0 2 -
p9
aVLarry Bird BOS 06/03/1988 BOS @ DET L 44 16 4 17 23.5 0 0 - 8 10 80.0 5 9 14 5 3 2 2 3 -
p10
aVRobert Parish BOS 06/03/1988 BOS @ DET L 6 2 0 1 0.0 0 0 - 2 2 100.0 0 1 1 0 0 0 0 0 -
p11
aVDennis Johnson BOS 06/03/1988 BOS @ DET L 42 17 6 16 37.5 1 1 100.0 4 4 100.0 2 3 5 9 1 2 1 3 -
p12
aVKevin McHale BOS 06/03/1988 BOS @ DET L 44 33 12 20 60.0 0 0 - 9 14 64.3 7 4 11 3 0 0 3 3 -
p13
aVDanny Ainge BOS 06/01/1988 BOS vs. DET L 47 0 0 6 0.0 0 2 0.0 0 0 - 0 7 7 5 1 0 4 4 -
p14
aVMark Acres BOS 06/01/1988 BOS vs. DET L 3 0 0 0 - 0 0 - 0 0 - 0 0 0 0 0 0 0 0 -
p15
aVDennis Johnson BOS 06/01/1988 BOS vs. DET L 49 23 9 18 50.0 0 3 0.0 5 8 62.5 3 1 4 8 0 1 4 5 -
p16
aVJim Paxson BOS 06/01/1988 BOS vs. DET L 8 0 0 1 0.0 0 1 0.0 0 0 - 0 0 0 0 0 0 1 2 -
p17
aVKevin McHale BOS 06/01/1988 BOS vs. DET L 41 26 9 20 45.0 0 0 - 8 9 88.9 2 5 7 3 0 3 0 6 -
p18
aVLarry Bird BOS 06/01/1988 BOS vs. DET L 49 27 9 25 36.0 0 1 0.0 9 9 100.0 3 14 17 4 5 1 2 3 -
p19
aVDirk Minniefield BOS 06/01/1988 BOS vs. DET L 3 0 0 0 - 0 0 - 0 0 - 0 0 0 0 0 0 0 0 -
p20
aVArtis Gilmore BOS 06/01/1988 BOS vs. DET L 2 0 0 1 0.0 0 0 - 0 0 - 0 0 0 0 0 0 0 0 -
p21
aVFred Roberts BOS 06/01/1988 BOS vs. DET L 12 2 1 1 100.0 0 0 - 0 0 - 0 0 0 0 1 0 1 6 -
p22
aVRobert Parish BOS 06/01/1988 BOS vs. DET L 49 18 5 15 33.3 0 0 - 8 8 100.0 6 8 14 2 1 0 5 1 -
p23
aVBrad Lohaus BOS 06/01/1988 BOS vs. DET L 2 0 0 1 0.0 0 1 0.0 0 0 - 0 0 0 0 0 0 0 1 -
p24
aVRobert Parish BOS 05/30/1988 BOS @ DET W 38 13 5 10 50.0 0 0 - 3 4 75.0 1 8 9 1 0 1 5 2 -
p25
aVMark Acres BOS 05/30/1988 BOS @ DET W 6 0 0 1 0.0 0 0 - 0 0 - 0 0 0 0 0 0 0 3 -
p26
aVJim Paxson BOS 05/30/1988 BOS @ DET W 11 0 0 3 0.0 0 0 - 0 0 - 0 1 1 0 2 0 1 0 -
p27
aVKevin McHale BOS 05/30/1988 BOS @ DET W 45 15 5 12 41.7 0 0 - 5 6 83.3 1 4 5 3 0 3 2 2 -
p28
aVDanny Ainge BOS 05/30/1988 BOS @ DET W 43 12 4 11 36.4 3 6 50.0 1 2 50.0 1 1 2 3 0 0 4 4 -
p29
aVDennis Johnson BOS 05/30/1988 BOS @ DET W 42 18 5 12 41.7 1 1 100.0 7 8 87.5 0 5 5 6 1 0 4 1 -
p30
aVFred Roberts BOS 05/30/1988 BOS @ DET W 11 1 0 1 0.0 0 0 - 1 2 50.0 0 0 0 1 0 0 0 3 -
p31
aVArtis Gilmore BOS 05/30/1988 BOS @ DET W 5 0 0 0 - 0 0 - 0 0 - 0 0 0 0 0 0 0 1 -
p32
aVLarry Bird BOS 05/30/1988 BOS @ DET W 39 20 7 15 46.7 1 2 50.0 5 6 83.3 1 9 10 6 1 3 2 5 -
p33
aVDirk Minniefield BOS 05/28/1988 BOS @ DET L 3 3 1 1 100.0 1 1 100.0 0 0 - 0 0 0 1 0 0 0 0 -
p34
aVDennis Johnson BOS 05/28/1988 BOS @ DET L 39 11 5 10 50.0 1 2 50.0 0 0 - 0 3 3 5 1 0 2 4 -
p35
aVBrad Lohaus BOS 05/28/1988 BOS @ DET L 1 0 0 0 - 0 0 - 0 0 - 0 0 0 0 0 0 0 0 -
p36
aVFred Roberts BOS 05/28/1988 BOS @ DET L 12 3 1 3 33.3 0 0 - 1 2 50.0 4 1 5 0 1 0 1 0 -
p37
aVArtis Gilmore BOS 05/28/1988 BOS @ DET L 5 2 1 2 50.0 0 0 - 0 0 - 1 1 2 0 0 0 0 1 -
p38
aVReggie Lewis BOS 05/28/1988 BOS @ DET L 1 0 0 0 - 0 0 - 0 0 - 0 0 0 0 0 0 0 0 -
p39
aVJim Paxson BOS 05/28/1988 BOS @ DET L 16 2 1 8 12.5 0 0 - 0 0 - 0 1 1 0 0 0 1 2 -
p40
aVRobert Parish BOS 05/28/1988 BOS @ DET L 27 6 2 7 28.6 0 0 - 2 2 100.0 0 6 6 0 0 0 3 3 -
p41
aVLarry Bird BOS 05/28/1988 BOS @ DET L 45 18 6 17 35.3 0 1 0.0 6 6 100.0 2 9 11 8 3 0 1 3 -
p42
aVDanny Ainge BOS 05/28/1988 BOS @ DET L 38 15 6 16 37.5 3 8 37.5 0 0 - 1 2 3 5 0 0 2 5 -
p43
aVMark Acres BOS 05/28/1988 BOS @ DET L 13 2 1 1 100.0 0 0 - 0 0 - 2 4 6 0 0 0 0 3 -
p44
aVKevin McHale BOS 05/28/1988 BOS @ DET L 40 32 11 17 64.7 0 0 - 10 13 76.9 2 2 4 1 1 1 1 2 -
p45
aVJim Paxson BOS 05/26/1988 BOS vs. DET W 20 8 3 7 42.9 0 0 - 2 2 100.0 0 0 0 1 0 0 0 1 -
p46
aVDanny Ainge BOS 05/26/1988 BOS vs. DET W 43 10 4 8 50.0 0 1 0.0 2 2 100.0 1 3 4 5 2 0 6 6 -
p47
aVDennis Johnson BOS 05/26/1988 BOS vs. DET W 53 22 8 19 42.1 1 2 50.0 5 6 83.3 2 1 3 10 3 1 1 4 -
p48
aVFred Roberts BOS 05/26/1988 BOS vs. DET W 7 9 4 4 100.0 0 0 - 1 2 50.0 1 1 2 0 0 0 1 3 -
p49
aVLarry Bird BOS 05/26/1988 BOS vs. DET W 54 18 6 20 30.0 0 1 0.0 6 7 85.7 2 10 12 8 2 3 2 5 -
p50
aVMark Acres BOS 05/26/1988 BOS vs. DET W 4 2 1 1 100.0 0 0 - 0 0 - 1 1 2 0 0 0 0 0 -
p51
aVRobert Parish BOS 05/26/1988 BOS vs. DET W 54 26 10 17 58.8 0 0 - 6 6 100.0 1 10 11 2 1 1 3 4 -
p52
aVKevin McHale BOS 05/26/1988 BOS vs. DET W 47 24 8 17 47.1 1 1 100.0 7 8 87.5 4 4 8 7 0 0 2 5 -
p53
aVReggie Lewis BOS 05/26/1988 BOS vs. DET W 8 0 0 2 0.0 0 0 - 0 0 - 0 0 0 0 0 1 0 3 -
p54
aVReggie Lewis BOS 05/25/1988 BOS vs. DET L 4 2 1 3 33.3 0 0 - 0 0 - 0 1 1 0 1 0 0 1 -
p55
aVRobert Parish BOS 05/25/1988 BOS vs. DET L 36 14 5 14 35.7 0 0 - 4 5 80.0 5 8 13 2 0 1 0 3 -
p56
aVDennis Johnson BOS 05/25/1988 BOS vs. DET L 43 8 3 14 21.4 0 2 0.0 2 4 50.0 0 5 5 10 0 0 0 3 -
p57
aVDanny Ainge BOS 05/25/1988 BOS vs. DET L 42 19 7 18 38.9 2 5 40.0 3 4 75.0 1 1 2 6 1 0 2 5 -
p58
aVMark Acres BOS 05/25/1988 BOS vs. DET L 6 0 0 0 - 0 0 - 0 0 - 0 0 0 0 0 0 0 1 -
p59
aVArtis Gilmore BOS 05/25/1988 BOS vs. DET L 8 0 0 0 - 0 0 - 0 0 - 0 0 0 0 0 0 0 2 -
p60
aVJim Paxson BOS 05/25/1988 BOS vs. DET L 11 2 1 3 33.3 0 0 - 0 0 - 0 1 1 1 1 0 1 1 -
p61
aVFred Roberts BOS 05/25/1988 BOS vs. DET L 3 0 0 2 0.0 0 0 - 0 0 - 0 1 1 0 0 0 0 0 -
p62
aVKevin McHale BOS 05/25/1988 BOS vs. DET L 43 31 13 17 76.5 0 0 - 5 7 71.4 3 3 6 2 0 2 3 4 -
p63
aVLarry Bird BOS 05/25/1988 BOS vs. DET L 44 20 8 20 40.0 1 2 50.0 3 5 60.0 1 8 9 6 2 2 2 3 -
p64
aVLarry Bird BOS 05/22/1988 BOS vs. ATL W 47 34 15 24 62.5 1 3 33.3 3 3 100.0 0 4 4 6 1 1 4 2 -
p65
aVFred Roberts BOS 05/22/1988 BOS vs. ATL W 5 0 0 1 0.0 0 0 - 0 0 - 0 0 0 0 0 0 0 1 -
p66
aVDanny Ainge BOS 05/22/1988 BOS vs. ATL W 47 13 5 10 50.0 2 6 33.3 1 1 100.0 0 1 1 10 0 0 1 4 -
p67
aVMark Acres BOS 05/22/1988 BOS vs. ATL W 4 2 1 1 100.0 0 0 - 0 0 - 0 0 0 0 0 0 0 0 -
p68
aVJim Paxson BOS 05/22/1988 BOS vs. ATL W 7 2 0 1 0.0 0 0 - 2 2 100.0 0 0 0 0 0 0 0 1 -
p69
aVReggie Lewis BOS 05/22/1988 BOS vs. ATL W 6 4 2 2 100.0 0 0 - 0 0 - 0 0 0 0 0 0 0 0 -
p70
aVRobert Parish BOS 05/22/1988 BOS vs. ATL W 45 14 6 10 60.0 0 0 - 2 3 66.7 2 3 5 4 0 1 0 2 -
p71
aVKevin McHale BOS 05/22/1988 BOS vs. ATL W 43 33 10 14 71.4 0 0 - 13 13 100.0 3 10 13 0 0 4 0 4 -
p72
aVDennis Johnson BOS 05/22/1988 BOS vs. ATL W 36 16 6 11 54.5 0 0 - 4 6 66.7 1 3 4 8 1 0 3 3 -
p73
aVRobert Parish BOS 05/20/1988 BOS @ ATL W 32 8 4 8 50.0 0 0 - 0 0 - 1 1 2 0 1 1 1 4 -
p74
aVDirk Minniefield BOS 05/20/1988 BOS @ ATL W 1 0 0 1 0.0 0 0 - 0 0 - 0 0 0 0 0 0 0 1 -
p75
aVLarry Bird BOS 05/20/1988 BOS @ ATL W 46 23 10 22 45.5 0 1 0.0 3 3 100.0 2 9 11 1 2 0 2 3 -
p76
aVArtis Gilmore BOS 05/20/1988 BOS @ ATL W 3 0 0 0 - 0 0 - 0 0 - 0 0 0 0 0 0 0 0 -
p77
aVDennis Johnson BOS 05/20/1988 BOS @ ATL W 44 11 5 8 62.5 0 0 - 1 1 100.0 0 7 7 5 0 0 1 3 -
p78
aVReggie Lewis BOS 05/20/1988 BOS @ ATL W 9 2 1 4 25.0 0 0 - 0 0 - 2 0 2 0 2 0 0 1 -
p79
aVMark Acres BOS 05/20/1988 BOS @ ATL W 15 6 1 5 20.0 0 0 - 4 4 100.0 1 4 5 1 0 0 1 1 -
p80
aVDanny Ainge BOS 05/20/1988 BOS @ ATL W 40 22 7 14 50.0 3 3 100.0 5 7 71.4 1 4 5 14 0 0 2 3 -
p81
aVKevin McHale BOS 05/20/1988 BOS @ ATL W 40 26 10 16 62.5 0 0 - 6 7 85.7 6 4 10 2 0 1 4 5 -
p82
aVFred Roberts BOS 05/20/1988 BOS @ ATL W 6 2 1 2 50.0 0 0 - 0 0 - 1 0 1 0 0 0 0 1 -
p83
aVJim Paxson BOS 05/20/1988 BOS @ ATL W 4 2 0 1 0.0 0 0 - 2 2 100.0 0 0 0 0 0 0 0 1 -
p84
aVRobert Parish BOS 05/18/1988 BOS vs. ATL L 38 24 9 17 52.9 0 0 - 6 7 85.7 5 8 13 0 1 1 2 3 -
p85
aVMark Acres BOS 05/18/1988 BOS vs. ATL L 9 2 1 1 100.0 0 0 - 0 2 0.0 0 0 0 0 0 0 1 1 -
p86
aVFred Roberts BOS 05/18/1988 BOS vs. ATL L 6 2 0 0 - 0 0 - 2 2 100.0 1 0 1 0 0 0 0 1 -
p87
aVDennis Johnson BOS 05/18/1988 BOS vs. ATL L 42 20 6 15 40.0 0 1 0.0 8 10 80.0 1 1 2 10 3 1 2 4 -
p88
aVLarry Bird BOS 05/18/1988 BOS vs. ATL L 46 22 9 21 42.9 0 0 - 4 6 66.7 1 8 9 8 0 0 3 3 -
p89
aVReggie Lewis BOS 05/18/1988 BOS vs. ATL L 13 3 1 6 16.7 0 1 0.0 1 2 50.0 4 2 6 0 0 1 0 4 -
p90
aVKevin McHale BOS 05/18/1988 BOS vs. ATL L 43 19 8 14 57.1 0 0 - 3 3 100.0 3 3 6 4 1 0 1 3 -
p91
aVDanny Ainge BOS 05/18/1988 BOS vs. ATL L 39 12 6 11 54.5 0 3 0.0 0 0 - 0 3 3 7 0 0 3 6 -
p92
aVArtis Gilmore BOS 05/18/1988 BOS vs. ATL L 4 0 0 0 - 0 0 - 0 2 0.0 0 0 0 0 0 1 0 1 -
p93
aVReggie Lewis BOS 05/16/1988 BOS @ ATL L 11 8 4 6 66.7 0 0 - 0 0 - 1 2 3 1 0 0 0 1 -
p94
aVRobert Parish BOS 05/16/1988 BOS @ ATL L 39 17 8 8 100.0 0 0 - 1 2 50.0 3 4 7 2 0 1 1 1 -
p95
aVLarry Bird BOS 05/16/1988 BOS @ ATL L 44 30 12 19 63.2 0 1 0.0 6 7 85.7 1 7 8 8 0 0 5 3 -
p96
aVDennis Johnson BOS 05/16/1988 BOS @ ATL L 40 12 3 9 33.3 0 0 - 6 8 75.0 3 5 8 10 1 1 5 5 -
p97
aVKevin McHale BOS 05/16/1988 BOS @ ATL L 41 22 7 16 43.8 0 0 - 8 8 100.0 4 8 12 1 0 1 2 4 -
p98
aVDanny Ainge BOS 05/16/1988 BOS @ ATL L 40 18 6 11 54.5 1 2 50.0 5 5 100.0 0 1 1 8 0 0 5 4 -
p99
aVFred Roberts BOS 05/16/1988 BOS @ ATL L 6 0 0 1 0.0 0 0 - 0 0 - 0 0 0 0 0 0 0 2 -
p100
aVDirk Minniefield BOS 05/16/1988 BOS @ ATL L 5 2 1 3 33.3 0 2 0.0 0 0 - 0 0 0 0 1 0 2 2 -
p101
aVBrad Lohaus BOS 05/16/1988 BOS @ ATL L 1 0 0 0 - 0 0 - 0 0 - 0 0 0 0 0 0 0 0 -
p102
aVArtis Gilmore BOS 05/16/1988 BOS @ ATL L 8 0 0 0 - 0 0 - 0 0 - 0 2 2 0 0 0 1 1 -
p103
aVMark Acres BOS 05/16/1988 BOS @ ATL L 5 0 0 0 - 0 0 - 0 0 - 0 0 0 0 0 0 1 0 -
p104
aVReggie Lewis BOS 05/15/1988 BOS @ ATL L 2 0 0 1 0.0 0 0 - 0 0 - 0 0 0 0 0 0 0 0 -
p105
aVKevin McHale BOS 05/15/1988 BOS @ ATL L 36 17 6 11 54.5 0 0 - 5 6 83.3 1 4 5 1 0 1 4 4 -
p106
aVFred Roberts BOS 05/15/1988 BOS @ ATL L 8 0 0 1 0.0 0 0 - 0 0 - 1 1 2 0 0 0 1 1 -
p107
aVDennis Johnson BOS 05/15/1988 BOS @ ATL L 36 7 2 11 18.2 0 0 - 3 5 60.0 0 3 3 3 0 0 4 4 -
p108
aVDirk Minniefield BOS 05/15/1988 BOS @ ATL L 15 7 2 5 40.0 1 1 100.0 2 2 100.0 1 1 2 4 0 0 2 3 -
p109
aVLarry Bird BOS 05/15/1988 BOS @ ATL L 40 22 5 18 27.8 0 3 0.0 12 13 92.3 3 6 9 8 3 2 4 2 -
p110
aVMark Acres BOS 05/15/1988 BOS @ ATL L 11 3 1 2 50.0 0 0 - 1 4 25.0 1 1 2 0 0 0 0 3 -
p111
aVJim Paxson BOS 05/15/1988 BOS @ ATL L 3 0 0 1 0.0 0 0 - 0 0 - 0 0 0 0 0 0 0 0 -
p112
aVRobert Parish BOS 05/15/1988 BOS @ ATL L 37 17 6 8 75.0 0 0 - 5 7 71.4 2 11 13 1 0 0 2 1 -
p113
aVArtis Gilmore BOS 05/15/1988 BOS @ ATL L 7 5 1 2 50.0 0 0 - 3 4 75.0 1 1 2 0 0 0 0 1 -
p114
aVBrad Lohaus BOS 05/15/1988 BOS @ ATL L 5 0 0 0 - 0 0 - 0 0 - 0 1 1 0 0 0 1 0 -
p115
aVDanny Ainge BOS 05/15/1988 BOS @ ATL L 40 14 4 10 40.0 1 2 50.0 5 6 83.3 1 2 3 3 1 0 1 3 -
p116
aVDennis Johnson BOS 05/13/1988 BOS vs. ATL W 43 23 9 16 56.3 0 1 0.0 5 6 83.3 0 2 2 9 1 1 1 1 -
p117
aVKevin McHale BOS 05/13/1988 BOS vs. ATL W 39 32 13 17 76.5 0 0 - 6 6 100.0 1 4 5 3 0 0 1 4 -
p118
aVBrad Lohaus BOS 05/13/1988 BOS vs. ATL W 2 2 1 1 100.0 0 0 - 0 0 - 0 0 0 0 0 0 0 1 -
p119
aVArtis Gilmore BOS 05/13/1988 BOS vs. ATL W 9 2 1 1 100.0 0 0 - 0 0 - 1 0 1 0 0 1 0 1 -
p120
aVDanny Ainge BOS 05/13/1988 BOS vs. ATL W 39 11 3 10 30.0 0 4 0.0 5 5 100.0 3 1 4 7 0 0 5 3 -
p121
aVRobert Parish BOS 05/13/1988 BOS vs. ATL W 39 15 5 7 71.4 0 0 - 5 6 83.3 5 9 14 1 1 3 2 3 -
p122
aVDirk Minniefield BOS 05/13/1988 BOS vs. ATL W 1 0 0 0 - 0 0 - 0 0 - 0 0 0 2 0 0 1 1 -
p123
aVLarry Bird BOS 05/13/1988 BOS vs. ATL W 40 16 7 14 50.0 2 3 66.7 0 0 - 1 7 8 6 0 0 3 1 -
p124
aVFred Roberts BOS 05/13/1988 BOS vs. ATL W 6 5 2 2 100.0 0 0 - 1 2 50.0 0 1 1 1 0 0 0 1 -
p125
aVReggie Lewis BOS 05/13/1988 BOS vs. ATL W 2 0 0 1 0.0 0 0 - 0 0 - 0 0 0 0 0 0 0 0 -
p126
aVMark Acres BOS 05/13/1988 BOS vs. ATL W 9 1 0 0 - 0 0 - 1 2 50.0 1 2 3 1 0 0 1 3 -
p127
aVJim Paxson BOS 05/13/1988 BOS vs. ATL W 11 1 0 4 0.0 0 0 - 1 2 50.0 0 1 1 0 0 0 1 1 -
p128
aVArtis Gilmore BOS 05/11/1988 BOS vs. ATL W 3 0 0 0 - 0 0 - 0 0 - 0 1 1 0 0 0 0 0 -
p129
aVKevin McHale BOS 05/11/1988 BOS vs. ATL W 41 25 11 15 73.3 0 0 - 3 4 75.0 1 5 6 1 0 3 3 5 -
p130
aVDennis Johnson BOS 05/11/1988 BOS vs. ATL W 39 11 3 9 33.3 0 0 - 5 6 83.3 0 7 7 9 3 0 6 4 -
p131
aVJim Paxson BOS 05/11/1988 BOS vs. ATL W 12 2 1 3 33.3 0 1 0.0 0 0 - 0 0 0 1 0 0 1 2 -
p132
aVRobert Parish BOS 05/11/1988 BOS vs. ATL W 45 22 10 12 83.3 0 0 - 2 2 100.0 4 10 14 1 1 1 6 3 -
p133
aVDanny Ainge BOS 05/11/1988 BOS vs. ATL W 43 10 3 9 33.3 0 1 0.0 4 4 100.0 0 6 6 12 1 0 1 4 -
p134
aVMark Acres BOS 05/11/1988 BOS vs. ATL W 8 2 1 4 25.0 0 0 - 0 0 - 1 1 2 0 0 0 0 2 -
p135
aVLarry Bird BOS 05/11/1988 BOS vs. ATL W 47 38 15 25 60.0 3 5 60.0 5 6 83.3 1 4 5 8 3 0 5 1 -
p136
aVDirk Minniefield BOS 05/11/1988 BOS vs. ATL W 2 0 0 0 - 0 0 - 0 0 - 0 0 0 0 0 0 1 1 -
p137
aVDennis Johnson BOS 05/06/1988 BOS @ NYK W 42 19 6 12 50.0 1 1 100.0 6 8 75.0 2 8 10 12 1 0 0 1 -
p138
aVJim Paxson BOS 05/06/1988 BOS @ NYK W 15 3 1 3 33.3 0 0 - 1 2 50.0 0 1 1 2 0 0 2 4 -
p139
aVDanny Ainge BOS 05/06/1988 BOS @ NYK W 40 11 5 9 55.6 1 3 33.3 0 0 - 0 1 1 6 2 0 2 4 -
p140
aVRobert Parish BOS 05/06/1988 BOS @ NYK W 40 18 8 16 50.0 0 0 - 2 3 66.7 3 9 12 1 2 4 3 3 -
p141
aVMark Acres BOS 05/06/1988 BOS @ NYK W 14 3 1 1 100.0 0 0 - 1 4 25.0 0 2 2 0 0 0 0 4 -
p142
aVLarry Bird BOS 05/06/1988 BOS @ NYK W 46 28 10 20 50.0 2 2 100.0 6 6 100.0 1 5 6 6 2 0 3 2 -
p143
aVBrad Lohaus BOS 05/06/1988 BOS @ NYK W 1 0 0 0 - 0 0 - 0 0 - 0 0 0 0 0 0 0 0 -
p144
aVKevin McHale BOS 05/06/1988 BOS @ NYK W 42 20 6 10 60.0 0 0 - 8 9 88.9 2 6 8 3 1 1 4 3 -
p145
aVDirk Minniefield BOS 05/04/1988 BOS @ NYK L 2 0 0 0 - 0 0 - 0 0 - 0 0 0 1 1 0 0 0 -
p146
aVDennis Johnson BOS 05/04/1988 BOS @ NYK L 38 18 5 10 50.0 1 2 50.0 7 8 87.5 0 2 2 7 2 1 4 4 -
p147
aVLarry Bird BOS 05/04/1988 BOS @ NYK L 46 20 8 22 36.4 1 5 20.0 3 3 100.0 3 5 8 12 5 0 3 3 -
p148
aVArtis Gilmore BOS 05/04/1988 BOS @ NYK L 7 1 0 0 - 0 0 - 1 2 50.0 1 2 3 0 0 0 2 2 -
p149
aVKevin McHale BOS 05/04/1988 BOS @ NYK L 42 24 11 15 73.3 0 0 - 2 5 40.0 3 5 8 2 3 1 4 5 -
p150
aVDanny Ainge BOS 05/04/1988 BOS @ NYK L 44 17 6 15 40.0 1 4 25.0 4 4 100.0 2 2 4 5 0 0 2 2 -
p151
aVRobert Parish BOS 05/04/1988 BOS @ NYK L 33 9 4 11 36.4 0 0 - 1 2 50.0 5 6 11 1 2 1 1 5 -
p152
aVFred Roberts BOS 05/04/1988 BOS @ NYK L 5 0 0 0 - 0 0 - 0 0 - 0 1 1 1 1 0 1 0 -
p153
aVMark Acres BOS 05/04/1988 BOS @ NYK L 11 4 1 1 100.0 0 0 - 2 2 100.0 0 0 0 0 0 0 0 3 -
p154
aVJim Paxson BOS 05/04/1988 BOS @ NYK L 12 7 2 5 40.0 0 0 - 3 3 100.0 0 0 0 1 0 0 2 0 -
p155
aVReggie Lewis BOS 05/01/1988 BOS vs. NYK W 3 4 2 4 50.0 0 0 - 0 0 - 2 1 3 1 0 0 0 1 -
p156
aVFred Roberts BOS 05/01/1988 BOS vs. NYK W 6 2 1 1 100.0 0 0 - 0 0 - 0 1 1 0 0 0 1 0 -
p157
aVRobert Parish BOS 05/01/1988 BOS vs. NYK W 31 13 6 13 46.2 0 0 - 1 2 50.0 4 6 10 1 1 2 2 1 -
p158
aVKevin McHale BOS 05/01/1988 BOS vs. NYK W 44 24 5 11 45.5 0 0 - 14 16 87.5 7 5 12 1 0 4 4 3 -
p159
aVLarry Bird BOS 05/01/1988 BOS vs. NYK W 42 36 12 19 63.2 1 2 50.0 11 11 100.0 0 4 4 6 3 0 4 2 -
p160
aVJim Paxson BOS 05/01/1988 BOS vs. NYK W 20 9 3 6 50.0 0 0 - 3 3 100.0 0 0 0 2 1 0 1 2 -
p161
aVDennis Johnson BOS 05/01/1988 BOS vs. NYK W 36 18 6 10 60.0 0 0 - 6 6 100.0 1 4 5 9 2 0 2 1 -
p162
aVBrad Lohaus BOS 05/01/1988 BOS vs. NYK W 3 6 3 3 100.0 0 0 - 0 0 - 1 1 2 0 0 0 0 0 -
p163
aVArtis Gilmore BOS 05/01/1988 BOS vs. NYK W 6 0 0 0 - 0 0 - 0 0 - 0 2 2 1 0 0 1 0 -
p164
aVDirk Minniefield BOS 05/01/1988 BOS vs. NYK W 5 2 1 2 50.0 0 0 - 0 0 - 0 0 0 1 0 0 1 1 -
p165
aVDanny Ainge BOS 05/01/1988 BOS vs. NYK W 32 10 3 11 27.3 2 5 40.0 2 2 100.0 1 1 2 6 0 0 0 2 -
p166
aVMark Acres BOS 05/01/1988 BOS vs. NYK W 12 4 2 5 40.0 0 0 - 0 0 - 3 2 5 0 1 0 0 4 -
p167
aVKevin McHale BOS 04/29/1988 BOS vs. NYK W 45 29 13 20 65.0 0 0 - 3 3 100.0 5 5 10 3 1 5 1 3 -
p168
aVDirk Minniefield BOS 04/29/1988 BOS vs. NYK W 7 2 1 1 100.0 0 0 - 0 0 - 0 0 0 1 0 0 1 2 -
p169
aVLarry Bird BOS 04/29/1988 BOS vs. NYK W 44 29 9 20 45.0 0 0 - 11 12 91.7 2 3 5 8 1 0 2 1 -
p170
aVDennis Johnson BOS 04/29/1988 BOS vs. NYK W 38 16 4 10 40.0 0 0 - 8 9 88.9 0 2 2 9 4 0 5 1 -
p171
aVReggie Lewis BOS 04/29/1988 BOS vs. NYK W 1 1 0 0 - 0 0 - 1 2 50.0 0 0 0 1 0 0 0 0 -
p172
aVDanny Ainge BOS 04/29/1988 BOS vs. NYK W 22 2 1 4 25.0 0 1 0.0 0 0 - 1 1 2 3 1 0 0 4 -
p173
aVMark Acres BOS 04/29/1988 BOS vs. NYK W 3 0 0 0 - 0 0 - 0 0 - 0 2 2 0 0 0 0 0 -
p174
aVArtis Gilmore BOS 04/29/1988 BOS vs. NYK W 9 2 0 0 - 0 0 - 2 4 50.0 0 3 3 0 0 1 0 1 -
p175
aVBrad Lohaus BOS 04/29/1988 BOS vs. NYK W 1 2 1 1 100.0 0 0 - 0 0 - 0 0 0 0 0 1 0 1 -
p176
aVJim Paxson BOS 04/29/1988 BOS vs. NYK W 28 12 5 10 50.0 0 0 - 2 4 50.0 0 3 3 3 1 2 0 1 -
p177
aVRobert Parish BOS 04/29/1988 BOS vs. NYK W 37 14 7 14 50.0 0 0 - 0 0 - 4 9 13 2 0 1 2 3 -
p178
aVFred Roberts BOS 04/29/1988 BOS vs. NYK W 5 3 1 1 100.0 0 0 - 1 1 100.0 0 0 0 0 0 0 0 1 -
p179
a.