(lp0
VPLAYER TEAM DATE MATCHUP W/L MIN PTS FGM FGA FG% 3PM 3PA 3P% FTM FTA FT% OREB DREB REB AST STL BLK TOV PF +/-
p1
aVMichael Cooper LAL 06/21/1988 LAL vs. DET W 28 12 5 13 38.5 2 6 33.3 0 2 0.0 2 3 5 3 0 0 0 2 -
p2
aVMychal Thompson LAL 06/21/1988 LAL vs. DET W 22 12 6 10 60.0 0 0 - 0 1 0.0 2 2 4 1 0 0 1 3 -
p3
aVJames Worthy LAL 06/21/1988 LAL vs. DET W 44 36 15 22 68.2 0 0 - 6 10 60.0 5 11 16 10 2 0 5 2 -
p4
aVKareem Abdul-Jabbar LAL 06/21/1988 LAL vs. DET W 29 4 2 7 28.6 0 0 - 0 0 - 1 2 3 2 0 1 3 5 -
p5
aVA.C. Green LAL 06/21/1988 LAL vs. DET W 33 4 2 4 50.0 0 0 - 0 0 - 0 2 2 0 1 0 1 2 -
p6
aVMagic Johnson LAL 06/21/1988 LAL vs. DET W 40 19 6 9 66.7 0 1 0.0 7 8 87.5 0 5 5 14 2 0 4 5 -
p7
aVKurt Rambis LAL 06/21/1988 LAL vs. DET W 7 0 0 0 - 0 0 - 0 0 - 0 3 3 0 0 0 1 1 -
p8
aVByron Scott LAL 06/21/1988 LAL vs. DET W 37 21 7 12 58.3 1 3 33.3 6 6 100.0 0 3 3 0 1 0 3 2 -
p9
aVMichael Cooper LAL 06/19/1988 LAL vs. DET W 22 4 1 3 33.3 0 1 0.0 2 2 100.0 0 2 2 3 1 0 0 5 -
p10
aVMagic Johnson LAL 06/19/1988 LAL vs. DET W 45 22 5 12 41.7 0 1 0.0 12 13 92.3 2 2 4 19 2 0 2 2 -
p11
aVKurt Rambis LAL 06/19/1988 LAL vs. DET W 6 2 1 1 100.0 0 0 - 0 0 - 0 1 1 0 0 0 0 1 -
p12
aVA.C. Green LAL 06/19/1988 LAL vs. DET W 29 10 2 2 100.0 0 0 - 6 8 75.0 2 8 10 0 0 0 2 2 -
p13
aVKareem Abdul-Jabbar LAL 06/19/1988 LAL vs. DET W 32 14 3 14 21.4 0 0 - 8 8 100.0 2 4 6 1 1 2 3 5 -
p14
aVByron Scott LAL 06/19/1988 LAL vs. DET W 35 16 7 12 58.3 0 0 - 2 4 50.0 2 5 7 3 1 1 1 1 -
p15
aVJames Worthy LAL 06/19/1988 LAL vs. DET W 46 28 12 22 54.5 0 0 - 4 6 66.7 4 5 9 4 1 0 5 1 -
p16
aVMychal Thompson LAL 06/19/1988 LAL vs. DET W 25 7 3 6 50.0 0 0 - 1 2 50.0 1 1 2 0 0 0 1 2 -
p17
aVWes Matthews LAL 06/16/1988 LAL @ DET L 1 2 1 1 100.0 0 0 - 0 0 - 0 0 0 0 0 0 0 0 -
p18
aVMike Smrek LAL 06/16/1988 LAL @ DET L 1 0 0 0 - 0 0 - 0 0 - 0 0 0 0 0 0 0 0 -
p19
aVTony Campbell LAL 06/16/1988 LAL @ DET L 5 2 1 1 100.0 0 0 - 0 0 - 1 0 1 0 0 0 0 1 -
p20
aVMychal Thompson LAL 06/16/1988 LAL @ DET L 24 14 7 8 87.5 0 0 - 0 2 0.0 2 0 2 0 0 0 2 1 -
p21
aVMagic Johnson LAL 06/16/1988 LAL @ DET L 45 15 4 15 26.7 0 0 - 7 11 63.6 2 4 6 17 2 1 4 3 -
p22
aVKareem Abdul-Jabbar LAL 06/16/1988 LAL @ DET L 34 26 12 21 57.1 0 0 - 2 4 50.0 3 3 6 0 0 1 4 3 -
p23
aVKurt Rambis LAL 06/16/1988 LAL @ DET L 5 1 0 0 - 0 0 - 1 2 50.0 1 0 1 0 1 0 0 1 -
p24
aVJames Worthy LAL 06/16/1988 LAL @ DET L 26 14 4 10 40.0 0 0 - 6 7 85.7 2 2 4 4 0 1 2 5 -
p25
aVA.C. Green LAL 06/16/1988 LAL @ DET L 30 5 2 3 66.7 0 0 - 1 2 50.0 2 4 6 0 1 0 0 5 -
p26
aVMilt Wagner LAL 06/16/1988 LAL @ DET L 1 0 0 0 - 0 0 - 0 0 - 0 0 0 1 0 0 0 0 -
p27
aVByron Scott LAL 06/16/1988 LAL @ DET L 44 15 6 16 37.5 1 1 100.0 2 5 40.0 2 3 5 2 3 0 2 3 -
p28
aVMichael Cooper LAL 06/16/1988 LAL @ DET L 24 0 0 3 0.0 0 3 0.0 0 0 - 0 0 0 2 0 0 0 5 -
p29
aVMychal Thompson LAL 06/14/1988 LAL @ DET L 25 6 2 5 40.0 0 0 - 2 4 50.0 2 3 5 0 0 0 2 4 -
p30
aVA.C. Green LAL 06/14/1988 LAL @ DET L 33 9 3 8 37.5 0 0 - 3 4 75.0 2 8 10 0 1 0 2 3 -
p31
aVMichael Cooper LAL 06/14/1988 LAL @ DET L 28 3 1 7 14.3 0 3 0.0 1 2 50.0 1 0 1 0 1 1 0 5 -
p32
aVMagic Johnson LAL 06/14/1988 LAL @ DET L 34 23 7 13 53.8 0 2 0.0 9 11 81.8 0 4 4 6 1 0 2 5 -
p33
aVByron Scott LAL 06/14/1988 LAL @ DET L 37 13 6 14 42.9 0 1 0.0 1 1 100.0 0 5 5 2 0 2 5 4 -
p34
aVKareem Abdul-Jabbar LAL 06/14/1988 LAL @ DET L 24 13 5 10 50.0 0 0 - 3 4 75.0 2 2 4 1 0 0 2 2 -
p35
aVMike Smrek LAL 06/14/1988 LAL @ DET L 5 0 0 0 - 0 0 - 0 0 - 0 2 2 0 0 0 0 0 -
p36
aVTony Campbell LAL 06/14/1988 LAL @ DET L 9 6 1 2 50.0 0 0 - 4 4 100.0 0 0 0 1 0 0 1 3 -
p37
aVKurt Rambis LAL 06/14/1988 LAL @ DET L 11 2 1 2 50.0 0 0 - 0 1 0.0 1 1 2 0 0 0 0 1 -
p38
aVJames Worthy LAL 06/14/1988 LAL @ DET L 26 7 3 9 33.3 0 1 0.0 1 2 50.0 0 1 1 1 0 0 1 3 -
p39
aVWes Matthews LAL 06/14/1988 LAL @ DET L 4 4 0 1 0.0 0 0 - 4 4 100.0 0 0 0 0 0 0 1 0 -
p40
aVMilt Wagner LAL 06/14/1988 LAL @ DET L 4 0 0 1 0.0 0 0 - 0 0 - 0 0 0 0 0 0 0 0 -
p41
aVA.C. Green LAL 06/12/1988 LAL @ DET W 41 21 9 11 81.8 0 0 - 3 6 50.0 3 5 8 1 0 0 2 2 -
p42
aVMychal Thompson LAL 06/12/1988 LAL @ DET W 22 4 2 6 33.3 0 0 - 0 2 0.0 0 5 5 0 0 1 0 1 -
p43
aVMagic Johnson LAL 06/12/1988 LAL @ DET W 40 18 7 8 87.5 0 0 - 4 5 80.0 0 6 6 14 3 0 3 2 -
p44
aVWes Matthews LAL 06/12/1988 LAL @ DET W 3 0 0 1 0.0 0 1 0.0 0 0 - 0 0 0 0 1 0 0 1 -
p45
aVByron Scott LAL 06/12/1988 LAL @ DET W 38 18 6 13 46.2 1 1 100.0 5 5 100.0 0 2 2 1 0 0 1 3 -
p46
aVMichael Cooper LAL 06/12/1988 LAL @ DET W 27 2 1 6 16.7 0 1 0.0 0 0 - 0 1 1 1 3 0 2 1 -
p47
aVJames Worthy LAL 06/12/1988 LAL @ DET W 41 24 8 20 40.0 0 0 - 8 8 100.0 2 7 9 3 1 2 2 1 -
p48
aVKareem Abdul-Jabbar LAL 06/12/1988 LAL @ DET W 28 12 4 7 57.1 0 0 - 4 8 50.0 0 7 7 1 0 3 1 2 -
p49
aVKareem Abdul-Jabbar LAL 06/09/1988 LAL vs. DET W 32 15 6 15 40.0 0 0 - 3 4 75.0 0 1 1 1 2 1 0 4 -
p50
aVJames Worthy LAL 06/09/1988 LAL vs. DET W 45 26 10 19 52.6 0 0 - 6 11 54.5 5 5 10 6 0 1 2 4 -
p51
aVMichael Cooper LAL 06/09/1988 LAL vs. DET W 24 5 1 5 20.0 1 3 33.3 2 2 100.0 0 2 2 4 1 1 1 2 -
p52
aVMychal Thompson LAL 06/09/1988 LAL vs. DET W 16 2 0 3 0.0 0 0 - 2 4 50.0 0 3 3 1 0 2 3 3 -
p53
aVMagic Johnson LAL 06/09/1988 LAL vs. DET W 42 23 7 12 58.3 0 0 - 9 9 100.0 0 7 7 11 2 0 3 3 -
p54
aVByron Scott LAL 06/09/1988 LAL vs. DET W 44 24 8 14 57.1 2 3 66.7 6 8 75.0 0 6 6 3 1 0 0 3 -
p55
aVKurt Rambis LAL 06/09/1988 LAL vs. DET W 4 1 0 0 - 0 0 - 1 2 50.0 0 1 1 0 0 0 0 2 -
p56
aVA.C. Green LAL 06/09/1988 LAL vs. DET W 32 12 3 9 33.3 0 0 - 6 6 100.0 3 10 13 1 0 0 0 4 -
p57
aVWes Matthews LAL 06/09/1988 LAL vs. DET W 1 0 0 0 - 0 0 - 0 0 - 0 0 0 0 0 0 0 0 -
p58
aVMagic Johnson LAL 06/07/1988 LAL vs. DET L 44 28 8 11 72.7 2 2 100.0 10 10 100.0 2 6 8 10 2 0 1 3 -
p59
aVA.C. Green LAL 06/07/1988 LAL vs. DET L 44 9 3 6 50.0 0 0 - 3 4 75.0 4 8 12 2 0 0 2 4 -
p60
aVMichael Cooper LAL 06/07/1988 LAL vs. DET L 23 0 0 7 0.0 0 3 0.0 0 0 - 0 0 0 2 0 0 1 2 -
p61
aVMychal Thompson LAL 06/07/1988 LAL vs. DET L 17 4 1 4 25.0 0 0 - 2 2 100.0 2 2 4 0 0 0 1 1 -
p62
aVKareem Abdul-Jabbar LAL 06/07/1988 LAL vs. DET L 28 8 4 13 30.8 0 0 - 0 0 - 0 2 2 1 1 0 1 1 -
p63
aVByron Scott LAL 06/07/1988 LAL vs. DET L 46 25 10 24 41.7 0 2 0.0 5 6 83.3 4 2 6 3 1 0 3 5 -
p64
aVJames Worthy LAL 06/07/1988 LAL vs. DET L 38 19 7 18 38.9 0 1 0.0 5 5 100.0 1 2 3 3 1 0 1 2 -
p65
aVMichael Cooper LAL 06/04/1988 LAL vs. DAL W 24 8 2 4 50.0 2 2 100.0 2 2 100.0 0 3 3 1 1 0 1 3 -
p66
aVKareem Abdul-Jabbar LAL 06/04/1988 LAL vs. DAL W 35 17 8 14 57.1 0 0 - 1 1 100.0 1 6 7 4 2 2 0 4 -
p67
aVByron Scott LAL 06/04/1988 LAL vs. DAL W 38 21 6 13 46.2 2 3 66.7 7 7 100.0 0 0 0 5 1 0 1 1 -
p68
aVA.C. Green LAL 06/04/1988 LAL vs. DAL W 36 14 6 13 46.2 0 0 - 2 2 100.0 3 5 8 2 1 0 2 3 -
p69
aVMychal Thompson LAL 06/04/1988 LAL vs. DAL W 19 5 2 4 50.0 0 0 - 1 2 50.0 1 3 4 0 0 1 4 4 -
p70
aVTony Campbell LAL 06/04/1988 LAL vs. DAL W 1 0 0 0 - 0 0 - 0 0 - 0 0 0 0 0 0 0 0 -
p71
aVJames Worthy LAL 06/04/1988 LAL vs. DAL W 43 28 13 20 65.0 0 1 0.0 2 2 100.0 5 2 7 7 1 1 0 3 -
p72
aVMagic Johnson LAL 06/04/1988 LAL vs. DAL W 43 24 9 15 60.0 0 1 0.0 6 6 100.0 3 6 9 11 1 1 4 2 -
p73
aVWes Matthews LAL 06/04/1988 LAL vs. DAL W 1 0 0 0 - 0 0 - 0 0 - 0 0 0 1 0 0 0 0 -
p74
aVA.C. Green LAL 06/02/1988 LAL @ DAL L 36 6 3 10 30.0 0 0 - 0 0 - 3 6 9 1 1 0 0 2 -
p75
aVJames Worthy LAL 06/02/1988 LAL @ DAL L 44 27 9 21 42.9 0 1 0.0 9 11 81.8 7 4 11 5 3 1 2 3 -
p76
aVMychal Thompson LAL 06/02/1988 LAL @ DAL L 25 6 2 5 40.0 0 0 - 2 4 50.0 0 3 3 0 2 2 1 5 -
p77
aVByron Scott LAL 06/02/1988 LAL @ DAL L 37 27 9 14 64.3 0 2 0.0 9 9 100.0 3 3 6 3 0 0 0 3 -
p78
aVKareem Abdul-Jabbar LAL 06/02/1988 LAL @ DAL L 32 8 4 7 57.1 0 0 - 0 0 - 2 6 8 1 1 1 2 4 -
p79
aVMichael Cooper LAL 06/02/1988 LAL @ DAL L 25 10 4 8 50.0 2 5 40.0 0 0 - 3 3 6 5 1 0 1 3 -
p80
aVMagic Johnson LAL 06/02/1988 LAL @ DAL L 41 19 8 18 44.4 0 1 0.0 3 4 75.0 2 0 2 12 1 0 8 1 -
p81
aVWes Matthews LAL 05/31/1988 LAL vs. DAL W 3 0 0 0 - 0 0 - 0 0 - 0 0 0 0 0 0 0 0 -
p82
aVMagic Johnson LAL 05/31/1988 LAL vs. DAL W 35 15 7 14 50.0 1 1 100.0 0 0 - 2 4 6 20 0 0 3 3 -
p83
aVJames Worthy LAL 05/31/1988 LAL vs. DAL W 34 28 12 18 66.7 0 0 - 4 4 100.0 2 4 6 6 3 3 1 1 -
p84
aVMychal Thompson LAL 05/31/1988 LAL vs. DAL W 29 6 3 6 50.0 0 0 - 0 0 - 3 6 9 1 0 2 0 1 -
p85
aVTony Campbell LAL 05/31/1988 LAL vs. DAL W 3 3 1 2 50.0 0 0 - 1 2 50.0 1 0 1 0 0 0 1 0 -
p86
aVMike Smrek LAL 05/31/1988 LAL vs. DAL W 3 0 0 1 0.0 0 0 - 0 0 - 1 1 2 0 0 0 0 0 -
p87
aVMilt Wagner LAL 05/31/1988 LAL vs. DAL W 2 2 1 2 50.0 0 1 0.0 0 0 - 0 1 1 0 0 0 0 1 -
p88
aVKareem Abdul-Jabbar LAL 05/31/1988 LAL vs. DAL W 35 21 10 16 62.5 0 0 - 1 2 50.0 2 3 5 1 1 2 1 5 -
p89
aVA.C. Green LAL 05/31/1988 LAL vs. DAL W 34 16 6 8 75.0 0 0 - 4 6 66.7 2 8 10 2 0 0 0 3 -
p90
aVMichael Cooper LAL 05/31/1988 LAL vs. DAL W 21 11 4 6 66.7 1 3 33.3 2 4 50.0 0 1 1 0 0 1 2 3 -
p91
aVByron Scott LAL 05/31/1988 LAL vs. DAL W 41 17 7 12 58.3 1 1 100.0 2 2 100.0 0 6 6 1 0 0 3 1 -
p92
aVJames Worthy LAL 05/29/1988 LAL @ DAL L 41 18 8 19 42.1 0 1 0.0 2 3 66.7 1 4 5 5 1 1 3 3 -
p93
aVMichael Cooper LAL 05/29/1988 LAL @ DAL L 28 6 2 5 40.0 1 4 25.0 1 2 50.0 1 3 4 4 2 1 1 1 -
p94
aVKurt Rambis LAL 05/29/1988 LAL @ DAL L 5 0 0 0 - 0 0 - 0 0 - 1 0 1 0 0 0 0 1 -
p95
aVKareem Abdul-Jabbar LAL 05/29/1988 LAL @ DAL L 31 16 7 13 53.8 0 0 - 2 2 100.0 3 1 4 3 0 0 2 1 -
p96
aVA.C. Green LAL 05/29/1988 LAL @ DAL L 34 15 5 10 50.0 0 0 - 5 5 100.0 5 7 12 2 0 1 1 2 -
p97
aVMychal Thompson LAL 05/29/1988 LAL @ DAL L 27 11 5 12 41.7 0 0 - 1 2 50.0 3 2 5 0 0 0 0 5 -
p98
aVByron Scott LAL 05/29/1988 LAL @ DAL L 32 10 4 7 57.1 0 1 0.0 2 2 100.0 3 3 6 1 1 1 1 4 -
p99
aVMagic Johnson LAL 05/29/1988 LAL @ DAL L 42 28 10 22 45.5 1 2 50.0 7 7 100.0 2 3 5 12 0 0 2 3 -
p100
aVByron Scott LAL 05/27/1988 LAL @ DAL L 39 11 4 13 30.8 0 1 0.0 3 3 100.0 0 3 3 4 2 0 1 0 -
p101
aVMychal Thompson LAL 05/27/1988 LAL @ DAL L 25 14 7 12 58.3 0 0 - 0 0 - 3 3 6 0 1 0 1 5 -
p102
aVKareem Abdul-Jabbar LAL 05/27/1988 LAL @ DAL L 31 10 4 12 33.3 0 0 - 2 2 100.0 3 1 4 1 1 1 3 5 -
p103
aVMagic Johnson LAL 05/27/1988 LAL @ DAL L 39 14 6 13 46.2 1 1 100.0 1 3 33.3 0 8 8 10 1 1 2 3 -
p104
aVA.C. Green LAL 05/27/1988 LAL @ DAL L 30 13 5 8 62.5 0 0 - 3 4 75.0 1 3 4 1 2 1 0 3 -
p105
aVKurt Rambis LAL 05/27/1988 LAL @ DAL L 8 4 2 2 100.0 0 0 - 0 0 - 1 0 1 1 0 0 0 0 -
p106
aVJames Worthy LAL 05/27/1988 LAL @ DAL L 42 19 8 16 50.0 0 1 0.0 3 6 50.0 1 2 3 3 1 0 3 2 -
p107
aVMichael Cooper LAL 05/27/1988 LAL @ DAL L 26 9 2 2 100.0 1 1 100.0 4 5 80.0 1 3 4 3 2 1 1 3 -
p108
aVWes Matthews LAL 05/25/1988 LAL vs. DAL W 4 2 0 0 - 0 0 - 2 2 100.0 0 0 0 1 0 0 0 1 -
p109
aVJames Worthy LAL 05/25/1988 LAL vs. DAL W 34 16 8 12 66.7 0 0 - 0 0 - 0 6 6 3 1 1 2 2 -
p110
aVMychal Thompson LAL 05/25/1988 LAL vs. DAL W 23 6 3 6 50.0 0 0 - 0 0 - 2 3 5 4 2 0 1 3 -
p111
aVA.C. Green LAL 05/25/1988 LAL vs. DAL W 26 10 4 6 66.7 0 0 - 2 4 50.0 1 2 3 1 1 1 1 0 -
p112
aVByron Scott LAL 05/25/1988 LAL vs. DAL W 43 30 11 17 64.7 1 3 33.3 7 7 100.0 0 1 1 5 4 0 2 3 -
p113
aVKurt Rambis LAL 05/25/1988 LAL vs. DAL W 19 5 1 1 100.0 0 0 - 3 3 100.0 0 2 2 1 1 0 1 1 -
p114
aVTony Campbell LAL 05/25/1988 LAL vs. DAL W 4 5 2 4 50.0 0 0 - 1 2 50.0 0 0 0 0 0 0 1 0 -
p115
aVMilt Wagner LAL 05/25/1988 LAL vs. DAL W 3 4 1 1 100.0 0 0 - 2 2 100.0 0 0 0 0 0 1 0 0 -
p116
aVMagic Johnson LAL 05/25/1988 LAL vs. DAL W 37 15 5 7 71.4 2 2 100.0 3 3 100.0 1 3 4 19 2 0 3 4 -
p117
aVMichael Cooper LAL 05/25/1988 LAL vs. DAL W 19 9 4 8 50.0 1 1 100.0 0 0 - 0 0 0 2 1 0 2 1 -
p118
aVKareem Abdul-Jabbar LAL 05/25/1988 LAL vs. DAL W 24 19 8 15 53.3 0 0 - 3 3 100.0 3 4 7 2 1 0 2 2 -
p119
aVMike Smrek LAL 05/25/1988 LAL vs. DAL W 4 2 1 1 100.0 0 0 - 0 1 0.0 0 0 0 0 1 1 0 2 -
p120
aVTony Campbell LAL 05/23/1988 LAL vs. DAL W 3 0 0 3 0.0 0 0 - 0 0 - 0 0 0 0 0 0 0 0 -
p121
aVMichael Cooper LAL 05/23/1988 LAL vs. DAL W 18 8 3 7 42.9 2 4 50.0 0 0 - 0 1 1 3 0 0 0 1 -
p122
aVA.C. Green LAL 05/23/1988 LAL vs. DAL W 29 14 7 12 58.3 0 0 - 0 0 - 2 4 6 0 0 0 0 2 -
p123
aVByron Scott LAL 05/23/1988 LAL vs. DAL W 42 23 7 14 50.0 2 3 66.7 7 8 87.5 1 1 2 7 4 0 0 1 -
p124
aVJames Worthy LAL 05/23/1988 LAL vs. DAL W 39 28 12 17 70.6 0 0 - 4 4 100.0 1 1 2 6 2 0 2 3 -
p125
aVMychal Thompson LAL 05/23/1988 LAL vs. DAL W 28 4 1 5 20.0 0 0 - 2 2 100.0 1 5 6 2 1 2 1 3 -
p126
aVMagic Johnson LAL 05/23/1988 LAL vs. DAL W 42 19 8 14 57.1 0 0 - 3 4 75.0 1 5 6 12 1 0 4 2 -
p127
aVKareem Abdul-Jabbar LAL 05/23/1988 LAL vs. DAL W 33 17 7 10 70.0 0 0 - 3 4 75.0 3 2 5 0 0 2 2 2 -
p128
aVKurt Rambis LAL 05/23/1988 LAL vs. DAL W 6 0 0 0 - 0 0 - 0 0 - 1 2 3 1 0 0 0 1 -
p129
aVJames Worthy LAL 05/21/1988 LAL vs. UTH W 39 23 7 17 41.2 0 0 - 9 11 81.8 0 6 6 2 4 0 2 0 -
p130
aVMychal Thompson LAL 05/21/1988 LAL vs. UTH W 30 12 4 8 50.0 0 0 - 4 5 80.0 2 5 7 0 1 0 1 3 -
p131
aVA.C. Green LAL 05/21/1988 LAL vs. UTH W 26 5 2 4 50.0 0 0 - 1 1 100.0 0 6 6 0 1 0 1 4 -
p132
aVMagic Johnson LAL 05/21/1988 LAL vs. UTH W 40 23 9 15 60.0 0 0 - 5 6 83.3 4 5 9 16 1 0 3 3 -
p133
aVKareem Abdul-Jabbar LAL 05/21/1988 LAL vs. UTH W 36 11 4 10 40.0 0 1 0.0 3 3 100.0 3 3 6 3 1 4 2 4 -
p134
aVKurt Rambis LAL 05/21/1988 LAL vs. UTH W 4 0 0 0 - 0 0 - 0 0 - 0 3 3 0 0 0 0 3 -
p135
aVMichael Cooper LAL 05/21/1988 LAL vs. UTH W 23 6 2 4 50.0 2 3 66.7 0 0 - 1 0 1 2 0 0 1 3 -
p136
aVTony Campbell LAL 05/21/1988 LAL vs. UTH W 2 0 0 0 - 0 0 - 0 0 - 0 0 0 0 0 0 0 0 -
p137
aVByron Scott LAL 05/21/1988 LAL vs. UTH W 40 29 12 19 63.2 1 5 20.0 4 5 80.0 0 5 5 0 3 0 1 4 -
p138
aVByron Scott LAL 05/19/1988 LAL @ UTH L 34 16 5 16 31.3 2 2 100.0 4 4 100.0 1 3 4 1 0 1 1 3 -
p139
aVMychal Thompson LAL 05/19/1988 LAL @ UTH L 25 6 3 5 60.0 0 0 - 0 0 - 4 5 9 0 1 1 2 2 -
p140
aVA.C. Green LAL 05/19/1988 LAL @ UTH L 24 7 3 6 50.0 0 0 - 1 2 50.0 3 3 6 0 0 1 1 3 -
p141
aVWes Matthews LAL 05/19/1988 LAL @ UTH L 7 2 1 2 50.0 0 0 - 0 2 0.0 0 1 1 0 0 0 2 2 -
p142
aVMike Smrek LAL 05/19/1988 LAL @ UTH L 9 0 0 2 0.0 0 0 - 0 0 - 0 1 1 0 0 1 0 1 -
p143
aVMagic Johnson LAL 05/19/1988 LAL @ UTH L 31 10 3 12 25.0 0 0 - 4 4 100.0 3 3 6 9 1 0 3 2 -
p144
aVKurt Rambis LAL 05/19/1988 LAL @ UTH L 14 1 0 3 0.0 0 0 - 1 2 50.0 1 2 3 0 0 1 0 3 -
p145
aVKareem Abdul-Jabbar LAL 05/19/1988 LAL @ UTH L 21 10 4 10 40.0 0 0 - 2 2 100.0 2 3 5 0 0 1 4 2 -
p146
aVMichael Cooper LAL 05/19/1988 LAL @ UTH L 32 10 3 5 60.0 2 3 66.7 2 2 100.0 2 1 3 2 0 0 2 2 -
p147
aVTony Campbell LAL 05/19/1988 LAL @ UTH L 20 14 6 12 50.0 0 1 0.0 2 4 50.0 2 1 3 1 2 0 1 3 -
p148
aVJames Worthy LAL 05/19/1988 LAL @ UTH L 19 4 2 6 33.3 0 0 - 0 2 0.0 1 0 1 1 0 1 2 1 -
p149
aVMilt Wagner LAL 05/19/1988 LAL @ UTH L 4 0 0 1 0.0 0 0 - 0 0 - 0 1 1 2 0 0 0 2 -
p150
aVJames Worthy LAL 05/17/1988 LAL vs. UTH W 43 27 12 20 60.0 1 1 100.0 2 4 50.0 0 1 1 5 4 0 2 3 -
p151
aVKareem Abdul-Jabbar LAL 05/17/1988 LAL vs. UTH W 38 14 5 13 38.5 0 0 - 4 5 80.0 3 2 5 4 0 2 5 6 -
p152
aVMichael Cooper LAL 05/17/1988 LAL vs. UTH W 17 3 1 4 25.0 0 1 0.0 1 1 100.0 0 1 1 2 2 0 1 3 -
p153
aVKurt Rambis LAL 05/17/1988 LAL vs. UTH W 3 0 0 0 - 0 0 - 0 0 - 0 2 2 0 0 0 0 1 -
p154
aVMagic Johnson LAL 05/17/1988 LAL vs. UTH W 41 20 10 18 55.6 0 0 - 0 0 - 0 3 3 13 2 0 2 0 -
p155
aVA.C. Green LAL 05/17/1988 LAL vs. UTH W 31 5 2 3 66.7 0 0 - 1 2 50.0 4 3 7 0 0 3 1 3 -
p156
aVByron Scott LAL 05/17/1988 LAL vs. UTH W 41 24 10 21 47.6 3 4 75.0 1 2 50.0 0 6 6 4 1 0 2 4 -
p157
aVMychal Thompson LAL 05/17/1988 LAL vs. UTH W 26 18 7 9 77.8 0 0 - 4 5 80.0 7 4 11 0 0 0 1 3 -
p158
aVByron Scott LAL 05/15/1988 LAL @ UTH W 38 20 7 19 36.8 1 5 20.0 5 6 83.3 0 3 3 2 4 0 2 2 -
p159
aVMychal Thompson LAL 05/15/1988 LAL @ UTH W 31 7 3 3 100.0 0 0 - 1 2 50.0 3 7 10 0 1 1 1 6 -
p160
aVTony Campbell LAL 05/15/1988 LAL @ UTH W 3 0 0 1 0.0 0 0 - 0 0 - 0 1 1 0 0 0 1 1 -
p161
aVMagic Johnson LAL 05/15/1988 LAL @ UTH W 41 24 7 13 53.8 0 0 - 10 11 90.9 1 1 2 9 0 0 3 2 -
p162
aVKareem Abdul-Jabbar LAL 05/15/1988 LAL @ UTH W 35 20 9 16 56.3 0 0 - 2 4 50.0 5 6 11 1 0 3 0 5 -
p163
aVWes Matthews LAL 05/15/1988 LAL @ UTH W 1 0 0 0 - 0 0 - 0 0 - 0 0 0 0 0 0 0 0 -
p164
aVKurt Rambis LAL 05/15/1988 LAL @ UTH W 5 0 0 0 - 0 0 - 0 0 - 0 1 1 0 0 0 1 2 -
p165
aVJames Worthy LAL 05/15/1988 LAL @ UTH W 39 29 12 22 54.5 0 1 0.0 5 5 100.0 3 3 6 2 1 0 4 2 -
p166
aVA.C. Green LAL 05/15/1988 LAL @ UTH W 27 8 4 6 66.7 0 0 - 0 0 - 3 4 7 0 0 0 1 3 -
p167
aVMike Smrek LAL 05/15/1988 LAL @ UTH W 2 0 0 0 - 0 0 - 0 0 - 0 0 0 0 0 0 0 1 -
p168
aVMichael Cooper LAL 05/15/1988 LAL @ UTH W 18 5 2 4 50.0 1 2 50.0 0 0 - 1 3 4 5 0 0 2 2 -
p169
aVA.C. Green LAL 05/13/1988 LAL @ UTH L 30 6 3 5 60.0 0 0 - 0 0 - 4 5 9 3 0 0 1 3 -
p170
aVMike Smrek LAL 05/13/1988 LAL @ UTH L 5 1 0 0 - 0 0 - 1 2 50.0 0 1 1 0 0 0 1 0 -
p171
aVKareem Abdul-Jabbar LAL 05/13/1988 LAL @ UTH L 24 6 3 14 21.4 0 0 - 0 0 - 0 5 5 0 1 2 2 5 -
p172
aVMychal Thompson LAL 05/13/1988 LAL @ UTH L 28 9 3 16 18.8 0 0 - 3 4 75.0 7 5 12 0 1 2 0 2 -
p173
aVKurt Rambis LAL 05/13/1988 LAL @ UTH L 12 4 2 2 100.0 0 0 - 0 0 - 1 3 4 1 0 0 0 0 -
p174
aVMichael Cooper LAL 05/13/1988 LAL @ UTH L 25 5 2 4 50.0 1 2 50.0 0 0 - 3 2 5 3 0 0 0 1 -
p175
aVByron Scott LAL 05/13/1988 LAL @ UTH L 38 29 14 23 60.9 1 3 33.3 0 0 - 3 3 6 2 1 0 2 3 -
p176
aVMagic Johnson LAL 05/13/1988 LAL @ UTH L 36 16 7 14 50.0 0 0 - 2 4 50.0 0 0 0 6 1 0 3 1 -
p177
aVTony Campbell LAL 05/13/1988 LAL @ UTH L 14 4 2 7 28.6 0 0 - 0 0 - 0 0 0 0 0 0 0 3 -
p178
aVJames Worthy LAL 05/13/1988 LAL @ UTH L 28 9 3 7 42.9 0 0 - 3 5 60.0 1 3 4 3 0 1 0 5 -
p179
aVKurt Rambis LAL 05/10/1988 LAL vs. UTH L 13 0 0 3 0.0 0 0 - 0 0 - 1 3 4 1 2 0 0 1 -
p180
aVMychal Thompson LAL 05/10/1988 LAL vs. UTH L 31 10 5 12 41.7 0 0 - 0 0 - 4 8 12 1 0 1 0 1 -
p181
aVA.C. Green LAL 05/10/1988 LAL vs. UTH L 17 2 0 4 0.0 0 0 - 2 2 100.0 4 5 9 0 1 1 2 2 -
p182
aVJames Worthy LAL 05/10/1988 LAL vs. UTH L 41 17 7 16 43.8 0 0 - 3 4 75.0 3 3 6 4 1 3 0 3 -
p183
aVByron Scott LAL 05/10/1988 LAL vs. UTH L 37 26 10 21 47.6 3 6 50.0 3 4 75.0 0 4 4 1 0 0 1 4 -
p184
aVMagic Johnson LAL 05/10/1988 LAL vs. UTH L 45 19 7 15 46.7 0 0 - 5 6 83.3 4 3 7 10 0 1 8 3 -
p185
aVKareem Abdul-Jabbar LAL 05/10/1988 LAL vs. UTH L 29 10 3 13 23.1 0 0 - 4 4 100.0 2 4 6 0 2 1 1 1 -
p186
aVMichael Cooper LAL 05/10/1988 LAL vs. UTH L 26 13 5 8 62.5 3 5 60.0 0 0 - 0 1 1 6 2 2 0 2 -
p187
aVTony Campbell LAL 05/10/1988 LAL vs. UTH L 1 0 0 0 - 0 0 - 0 0 - 0 0 0 0 0 0 0 0 -
p188
aVWes Matthews LAL 05/08/1988 LAL vs. UTH W 2 2 0 0 - 0 0 - 2 2 100.0 0 0 0 0 0 0 0 0 -
p189
aVTony Campbell LAL 05/08/1988 LAL vs. UTH W 5 2 1 2 50.0 0 0 - 0 0 - 0 0 0 1 0 0 0 1 -
p190
aVByron Scott LAL 05/08/1988 LAL vs. UTH W 33 18 8 16 50.0 0 2 0.0 2 2 100.0 3 1 4 3 0 0 3 0 -
p191
aVMike Smrek LAL 05/08/1988 LAL vs. UTH W 5 0 0 1 0.0 0 0 - 0 0 - 0 0 0 0 0 1 1 0 -
p192
aVMagic Johnson LAL 05/08/1988 LAL vs. UTH W 36 19 6 11 54.5 0 0 - 7 7 100.0 0 5 5 9 2 0 5 3 -
p193
aVJames Worthy LAL 05/08/1988 LAL vs. UTH W 38 23 9 18 50.0 0 0 - 5 6 83.3 4 3 7 5 2 1 2 1 -
p194
aVMichael Cooper LAL 05/08/1988 LAL vs. UTH W 24 7 3 5 60.0 1 2 50.0 0 0 - 0 1 1 0 0 0 0 0 -
p195
aVMychal Thompson LAL 05/08/1988 LAL vs. UTH W 21 7 2 3 66.7 0 0 - 3 4 75.0 0 7 7 1 3 0 3 4 -
p196
aVKareem Abdul-Jabbar LAL 05/08/1988 LAL vs. UTH W 28 16 7 14 50.0 0 1 0.0 2 2 100.0 4 6 10 4 1 2 2 3 -
p197
aVA.C. Green LAL 05/08/1988 LAL vs. UTH W 30 12 5 7 71.4 0 0 - 2 2 100.0 1 3 4 2 0 1 1 1 -
p198
aVKurt Rambis LAL 05/08/1988 LAL vs. UTH W 18 4 2 3 66.7 0 0 - 0 0 - 2 3 5 0 1 0 1 3 -
p199
aVMagic Johnson LAL 05/03/1988 LAL @ SAN W 41 25 9 17 52.9 0 0 - 7 9 77.8 1 4 5 11 2 0 3 1 -
p200
aVByron Scott LAL 05/03/1988 LAL @ SAN W 32 9 4 11 36.4 0 0 - 1 1 100.0 1 2 3 1 0 0 6 3 -
p201
aVKareem Abdul-Jabbar LAL 05/03/1988 LAL @ SAN W 27 12 4 12 33.3 0 0 - 4 4 100.0 1 4 5 1 0 1 1 3 -
p202
aVMychal Thompson LAL 05/03/1988 LAL @ SAN W 28 23 10 16 62.5 0 0 - 3 5 60.0 4 5 9 0 1 1 3 2 -
p203
aVTony Campbell LAL 05/03/1988 LAL @ SAN W 18 9 3 5 60.0 0 0 - 3 4 75.0 0 3 3 2 1 0 0 1 -
p204
aVMichael Cooper LAL 05/03/1988 LAL @ SAN W 19 3 1 3 33.3 1 1 100.0 0 0 - 0 2 2 2 1 1 0 2 -
p205
aVA.C. Green LAL 05/03/1988 LAL @ SAN W 28 8 3 6 50.0 0 0 - 2 2 100.0 0 3 3 1 0 0 1 2 -
p206
aVKurt Rambis LAL 05/03/1988 LAL @ SAN W 12 4 2 4 50.0 0 0 - 0 0 - 1 3 4 1 0 0 1 1 -
p207
aVJames Worthy LAL 05/03/1988 LAL @ SAN W 35 16 7 11 63.6 0 0 - 2 2 100.0 3 8 11 8 1 0 2 3 -
p208
aVTony Campbell LAL 05/01/1988 LAL vs. SAN W 1 0 0 0 - 0 0 - 0 0 - 0 0 0 0 0 0 0 1 -
p209
aVKareem Abdul-Jabbar LAL 05/01/1988 LAL vs. SAN W 31 20 10 15 66.7 0 0 - 0 0 - 2 3 5 3 0 1 1 2 -
p210
aVA.C. Green LAL 05/01/1988 LAL vs. SAN W 24 12 4 7 57.1 0 0 - 4 5 80.0 3 6 9 0 1 3 1 2 -
p211
aVByron Scott LAL 05/01/1988 LAL vs. SAN W 17 9 3 4 75.0 0 1 0.0 3 4 75.0 0 3 3 2 1 0 3 5 -
p212
aVJames Worthy LAL 05/01/1988 LAL vs. SAN W 34 18 6 15 40.0 0 0 - 6 8 75.0 1 1 2 1 2 2 3 3 -
p213
aVMichael Cooper LAL 05/01/1988 LAL vs. SAN W 43 12 4 8 50.0 1 2 50.0 3 3 100.0 0 4 4 8 1 1 1 3 -
p214
aVMychal Thompson LAL 05/01/1988 LAL vs. SAN W 34 29 12 17 70.6 0 0 - 5 8 62.5 4 12 16 0 1 0 3 3 -
p215
aVMagic Johnson LAL 05/01/1988 LAL vs. SAN W 43 26 9 20 45.0 0 0 - 8 10 80.0 2 7 9 15 2 0 2 3 -
p216
aVKurt Rambis LAL 05/01/1988 LAL vs. SAN W 13 4 2 3 66.7 0 0 - 0 0 - 1 2 3 0 0 1 1 2 -
p217
aVMychal Thompson LAL 04/29/1988 LAL vs. SAN W 34 10 5 10 50.0 0 0 - 0 2 0.0 6 8 14 1 2 5 1 2 -
p218
aVTony Campbell LAL 04/29/1988 LAL vs. SAN W 5 2 1 3 33.3 0 0 - 0 0 - 0 1 1 0 0 0 0 2 -
p219
aVA.C. Green LAL 04/29/1988 LAL vs. SAN W 22 16 6 11 54.5 0 0 - 4 6 66.7 2 0 2 1 0 0 3 1 -
p220
aVKareem Abdul-Jabbar LAL 04/29/1988 LAL vs. SAN W 21 19 8 13 61.5 0 0 - 3 5 60.0 2 2 4 1 0 4 2 5 -
p221
aVByron Scott LAL 04/29/1988 LAL vs. SAN W 34 19 7 12 58.3 2 2 100.0 3 3 100.0 3 1 4 3 5 0 3 4 -
p222
aVMichael Cooper LAL 04/29/1988 LAL vs. SAN W 24 2 1 2 50.0 0 1 0.0 0 0 - 0 6 6 3 0 0 2 2 -
p223
aVMagic Johnson LAL 04/29/1988 LAL vs. SAN W 42 13 5 11 45.5 0 0 - 3 4 75.0 0 4 4 18 3 0 6 2 -
p224
aVJames Worthy LAL 04/29/1988 LAL vs. SAN W 37 22 10 15 66.7 0 1 0.0 2 2 100.0 1 2 3 9 1 0 7 2 -
p225
aVKurt Rambis LAL 04/29/1988 LAL vs. SAN W 21 19 8 10 80.0 0 0 - 3 3 100.0 1 6 7 3 0 0 2 3 -
p226
a.