(lp0
VPLAYER TEAM DATE MATCHUP W/L MIN PTS FGM FGA FG% 3PM 3PA 3P% FTM FTA FT% OREB DREB REB AST STL BLK TOV PF +/-
p1
aVMuggsy Bogues WAS 05/08/1988 WAS @ DET L 2 0 0 0 - 0 0 - 0 0 - 0 0 0 2 0 0 1 0 -
p2
aVCharles Jones WAS 05/08/1988 WAS @ DET L 16 0 0 0 - 0 0 - 0 0 - 2 3 5 0 0 0 0 5 -
p3
aVJeff Malone WAS 05/08/1988 WAS @ DET L 28 4 1 12 8.3 0 0 - 2 2 100.0 0 1 1 0 1 0 2 2 -
p4
aVMoses Malone WAS 05/08/1988 WAS @ DET L 36 15 2 10 20.0 0 0 - 11 12 91.7 6 6 12 3 1 2 2 2 -
p5
aVFrank Johnson WAS 05/08/1988 WAS @ DET L 18 8 4 11 36.4 0 2 0.0 0 0 - 0 1 1 0 2 0 2 2 -
p6
aVTerry Catledge WAS 05/08/1988 WAS @ DET L 10 4 2 5 40.0 0 1 0.0 0 0 - 1 0 1 0 0 0 0 2 -
p7
aVSteve Colter WAS 05/08/1988 WAS @ DET L 13 4 2 2 100.0 0 0 - 0 0 - 0 1 1 1 1 0 1 2 -
p8
aVBernard King WAS 05/08/1988 WAS @ DET L 36 18 6 15 40.0 0 0 - 6 6 100.0 2 3 5 1 0 0 2 4 -
p9
aVJohn Williams WAS 05/08/1988 WAS @ DET L 32 13 4 14 28.6 0 1 0.0 5 9 55.6 2 3 5 3 0 1 1 3 -
p10
aVMark Alarie WAS 05/08/1988 WAS @ DET L 4 3 1 2 50.0 1 2 50.0 0 0 - 0 1 1 0 0 0 0 0 -
p11
aVManute Bol WAS 05/08/1988 WAS @ DET L 12 2 1 3 33.3 0 0 - 0 0 - 2 3 5 0 0 0 1 1 -
p12
aVDarrell Walker WAS 05/08/1988 WAS @ DET L 33 7 3 11 27.3 0 1 0.0 1 2 50.0 3 3 6 3 1 0 1 3 -
p13
aVDarrell Walker WAS 05/04/1988 WAS vs. DET W 35 10 3 10 30.0 0 0 - 4 6 66.7 0 1 1 5 2 1 2 1 -
p14
aVSteve Colter WAS 05/04/1988 WAS vs. DET W 11 5 2 4 50.0 0 0 - 1 1 100.0 3 2 5 2 0 0 1 2 -
p15
aVTerry Catledge WAS 05/04/1988 WAS vs. DET W 2 0 0 0 - 0 0 - 0 0 - 0 0 0 0 0 0 0 0 -
p16
aVManute Bol WAS 05/04/1988 WAS vs. DET W 6 3 1 2 50.0 0 0 - 1 1 100.0 3 0 3 0 0 1 0 1 -
p17
aVMoses Malone WAS 05/04/1988 WAS vs. DET W 41 22 8 14 57.1 0 0 - 6 7 85.7 4 4 8 0 1 0 3 0 -
p18
aVBernard King WAS 05/04/1988 WAS vs. DET W 42 19 8 13 61.5 0 0 - 3 3 100.0 1 1 2 2 2 0 4 3 -
p19
aVFrank Johnson WAS 05/04/1988 WAS vs. DET W 5 6 1 3 33.3 0 0 - 4 4 100.0 0 0 0 0 1 0 0 0 -
p20
aVJohn Williams WAS 05/04/1988 WAS vs. DET W 39 15 6 8 75.0 0 0 - 3 5 60.0 3 4 7 3 3 0 5 3 -
p21
aVCharles Jones WAS 05/04/1988 WAS vs. DET W 16 1 0 1 0.0 0 0 - 1 2 50.0 0 6 6 0 0 1 0 3 -
p22
aVJeff Malone WAS 05/04/1988 WAS vs. DET W 43 25 10 19 52.6 0 0 - 5 8 62.5 0 3 3 3 0 1 4 4 -
p23
aVJeff Malone WAS 05/02/1988 WAS vs. DET W 46 35 15 22 68.2 0 0 - 5 7 71.4 0 3 3 2 2 2 3 2 -
p24
aVTerry Catledge WAS 05/02/1988 WAS vs. DET W 5 2 1 3 33.3 0 0 - 0 0 - 0 1 1 0 0 0 0 1 -
p25
aVSteve Colter WAS 05/02/1988 WAS vs. DET W 26 4 2 6 33.3 0 0 - 0 2 0.0 0 4 4 6 0 1 1 1 -
p26
aVBernard King WAS 05/02/1988 WAS vs. DET W 40 19 8 15 53.3 0 0 - 3 4 75.0 0 2 2 5 0 0 3 4 -
p27
aVFrank Johnson WAS 05/02/1988 WAS vs. DET W 7 2 1 3 33.3 0 0 - 0 0 - 0 0 0 1 0 0 0 0 -
p28
aVDarrell Walker WAS 05/02/1988 WAS vs. DET W 27 11 4 6 66.7 0 0 - 3 4 75.0 2 3 5 4 2 0 2 5 -
p29
aVCharles Jones WAS 05/02/1988 WAS vs. DET W 18 2 1 2 50.0 0 0 - 0 0 - 1 1 2 1 0 0 0 2 -
p30
aVManute Bol WAS 05/02/1988 WAS vs. DET W 9 2 1 1 100.0 0 0 - 0 0 - 2 0 2 0 0 1 0 1 -
p31
aVJohn Williams WAS 05/02/1988 WAS vs. DET W 43 14 4 10 40.0 0 0 - 6 8 75.0 2 4 6 3 3 1 2 3 -
p32
aVMoses Malone WAS 05/02/1988 WAS vs. DET W 44 23 8 14 57.1 0 0 - 7 9 77.8 4 5 9 1 0 2 5 3 -
p33
aVManute Bol WAS 04/30/1988 WAS @ DET L 7 0 0 0 - 0 0 - 0 0 - 0 0 0 0 0 0 0 0 -
p34
aVDarrell Walker WAS 04/30/1988 WAS @ DET L 33 19 8 17 47.1 0 0 - 3 4 75.0 2 7 9 2 1 2 2 4 -
p35
aVJohn Williams WAS 04/30/1988 WAS @ DET L 36 19 7 8 87.5 0 0 - 5 10 50.0 2 4 6 3 2 1 2 3 -
p36
aVCharles Jones WAS 04/30/1988 WAS @ DET L 18 0 0 2 0.0 0 0 - 0 0 - 1 2 3 0 1 2 0 4 -
p37
aVFrank Johnson WAS 04/30/1988 WAS @ DET L 7 0 0 1 0.0 0 0 - 0 0 - 0 0 0 0 0 0 0 2 -
p38
aVJeff Malone WAS 04/30/1988 WAS @ DET L 41 31 11 20 55.0 0 0 - 9 9 100.0 0 2 2 4 2 1 1 5 -
p39
aVBernard King WAS 04/30/1988 WAS @ DET L 38 12 4 8 50.0 0 0 - 4 4 100.0 0 2 2 0 1 0 4 5 -
p40
aVSteve Colter WAS 04/30/1988 WAS @ DET L 15 7 2 4 50.0 0 0 - 3 4 75.0 0 1 1 1 0 1 2 3 -
p41
aVMoses Malone WAS 04/30/1988 WAS @ DET L 39 12 4 10 40.0 0 0 - 4 6 66.7 4 10 14 3 0 0 2 0 -
p42
aVTerry Catledge WAS 04/30/1988 WAS @ DET L 6 1 0 0 - 0 0 - 1 2 50.0 0 0 0 0 0 0 1 2 -
p43
aVJohn Williams WAS 04/28/1988 WAS @ DET L 35 4 2 8 25.0 0 0 - 0 0 - 2 3 5 9 0 1 2 6 -
p44
aVTerry Catledge WAS 04/28/1988 WAS @ DET L 22 4 1 3 33.3 0 0 - 2 2 100.0 1 3 4 2 0 0 0 4 -
p45
aVDarrell Walker WAS 04/28/1988 WAS @ DET L 27 8 4 10 40.0 0 0 - 0 0 - 2 1 3 0 1 1 2 5 -
p46
aVManute Bol WAS 04/28/1988 WAS @ DET L 10 2 1 1 100.0 0 0 - 0 0 - 0 2 2 0 0 0 1 2 -
p47
aVCharles Jones WAS 04/28/1988 WAS @ DET L 27 0 0 0 - 0 0 - 0 0 - 1 0 1 1 1 1 0 4 -
p48
aVFrank Johnson WAS 04/28/1988 WAS @ DET L 7 2 1 4 25.0 0 0 - 0 0 - 0 1 1 0 1 0 0 0 -
p49
aVJeff Malone WAS 04/28/1988 WAS @ DET L 41 33 13 24 54.2 0 1 0.0 7 11 63.6 3 5 8 2 0 1 4 3 -
p50
aVSteve Colter WAS 04/28/1988 WAS @ DET L 21 12 6 15 40.0 0 0 - 0 0 - 2 2 4 3 2 1 0 1 -
p51
aVBernard King WAS 04/28/1988 WAS @ DET L 12 1 0 2 0.0 0 0 - 1 4 25.0 0 0 0 1 0 0 1 1 -
p52
aVMoses Malone WAS 04/28/1988 WAS @ DET L 38 21 8 17 47.1 0 1 0.0 5 6 83.3 4 9 13 0 1 0 3 4 -
p53
a.