(lp0
VPLAYER TEAM DATE MATCHUP W/L MIN PTS FGM FGA FG% 3PM 3PA 3P% FTM FTA FT% OREB DREB REB AST STL BLK TOV PF +/-
p1
aVSam Perkins DAL 06/04/1988 DAL @ LAL L 31 13 5 14 35.7 0 1 0.0 3 3 100.0 3 2 5 0 1 1 2 1 -
p2
aVJames Donaldson DAL 06/04/1988 DAL @ LAL L 39 15 6 9 66.7 0 0 - 3 6 50.0 8 6 14 2 1 0 2 3 -
p3
aVDerek Harper DAL 06/04/1988 DAL @ LAL L 46 15 5 13 38.5 0 1 0.0 5 5 100.0 1 2 3 11 2 0 2 5 -
p4
aVMark Aguirre DAL 06/04/1988 DAL @ LAL L 42 24 11 24 45.8 1 5 20.0 1 2 50.0 2 1 3 5 0 0 2 3 -
p5
aVRoy Tarpley DAL 06/04/1988 DAL @ LAL L 32 18 8 14 57.1 0 0 - 2 4 50.0 5 2 7 1 3 0 0 4 -
p6
aVBrad Davis DAL 06/04/1988 DAL @ LAL L 7 3 1 1 100.0 0 0 - 1 1 100.0 0 1 1 1 0 0 1 1 -
p7
aVRolando Blackman DAL 06/04/1988 DAL @ LAL L 43 14 6 15 40.0 0 1 0.0 2 2 100.0 1 2 3 5 0 1 3 1 -
p8
aVMark Aguirre DAL 06/02/1988 DAL vs. LAL W 39 23 9 17 52.9 0 1 0.0 5 7 71.4 4 9 13 2 1 1 1 4 -
p9
aVRoy Tarpley DAL 06/02/1988 DAL vs. LAL W 35 12 5 12 41.7 0 0 - 2 2 100.0 2 5 7 0 0 2 2 2 -
p10
aVDerek Harper DAL 06/02/1988 DAL vs. LAL W 40 17 4 12 33.3 1 4 25.0 8 11 72.7 5 1 6 10 2 0 2 2 -
p11
aVJames Donaldson DAL 06/02/1988 DAL vs. LAL W 31 11 4 7 57.1 0 0 - 3 4 75.0 5 7 12 0 1 2 0 3 -
p12
aVBrad Davis DAL 06/02/1988 DAL vs. LAL W 15 6 3 4 75.0 0 0 - 0 0 - 0 1 1 3 1 0 4 3 -
p13
aVRolando Blackman DAL 06/02/1988 DAL vs. LAL W 41 22 9 17 52.9 0 0 - 4 5 80.0 2 3 5 2 2 0 1 2 -
p14
aVSam Perkins DAL 06/02/1988 DAL vs. LAL W 39 14 5 12 41.7 1 1 100.0 3 4 75.0 0 3 3 2 3 0 1 4 -
p15
aVJames Donaldson DAL 05/31/1988 DAL @ LAL L 25 11 5 5 100.0 0 0 - 1 3 33.3 3 5 8 0 0 0 2 3 -
p16
aVBrad Davis DAL 05/31/1988 DAL @ LAL L 20 4 2 4 50.0 0 0 - 0 0 - 1 0 1 4 0 0 1 2 -
p17
aVDerek Harper DAL 05/31/1988 DAL @ LAL L 32 19 7 15 46.7 0 2 0.0 5 6 83.3 1 2 3 6 2 0 1 3 -
p18
aVSam Perkins DAL 05/31/1988 DAL @ LAL L 22 4 1 7 14.3 0 0 - 2 2 100.0 0 1 1 1 2 1 1 3 -
p19
aVDetlef Schrempf DAL 05/31/1988 DAL @ LAL L 16 3 1 4 25.0 0 0 - 1 2 50.0 1 0 1 1 1 0 0 0 -
p20
aVRoy Tarpley DAL 05/31/1988 DAL @ LAL L 36 18 7 14 50.0 0 1 0.0 4 5 80.0 6 5 11 1 0 3 1 2 -
p21
aVMark Aguirre DAL 05/31/1988 DAL @ LAL L 39 31 12 25 48.0 1 3 33.3 6 8 75.0 4 3 7 2 1 0 2 2 -
p22
aVUwe Blab DAL 05/31/1988 DAL @ LAL L 3 0 0 0 - 0 0 - 0 0 - 0 0 0 0 0 0 0 0 -
p23
aVBill Wennington DAL 05/31/1988 DAL @ LAL L 3 0 0 2 0.0 0 0 - 0 0 - 1 0 1 0 1 0 0 1 -
p24
aVSteve Alford DAL 05/31/1988 DAL @ LAL L 2 2 1 3 33.3 0 2 0.0 0 0 - 1 0 1 0 0 0 0 0 -
p25
aVRolando Blackman DAL 05/31/1988 DAL @ LAL L 39 10 5 17 29.4 0 1 0.0 0 0 - 3 2 5 5 1 0 0 3 -
p26
aVJim Farmer DAL 05/31/1988 DAL @ LAL L 3 0 0 1 0.0 0 0 - 0 0 - 1 0 1 1 0 0 0 1 -
p27
aVSam Perkins DAL 05/29/1988 DAL vs. LAL W 32 9 4 9 44.4 0 1 0.0 1 1 100.0 4 3 7 1 1 0 0 3 -
p28
aVBrad Davis DAL 05/29/1988 DAL vs. LAL W 12 4 2 2 100.0 0 0 - 0 0 - 0 0 0 3 0 0 2 2 -
p29
aVDerek Harper DAL 05/29/1988 DAL vs. LAL W 39 35 12 21 57.1 3 6 50.0 8 8 100.0 1 5 6 7 1 0 0 1 -
p30
aVRoy Tarpley DAL 05/29/1988 DAL vs. LAL W 34 16 8 17 47.1 0 0 - 0 0 - 7 6 13 1 1 5 2 5 -
p31
aVDetlef Schrempf DAL 05/29/1988 DAL vs. LAL W 11 3 1 3 33.3 0 0 - 1 4 25.0 2 0 2 1 0 0 0 2 -
p32
aVMark Aguirre DAL 05/29/1988 DAL vs. LAL W 37 26 12 21 57.1 2 3 66.7 0 0 - 0 3 3 3 1 1 0 4 -
p33
aVRolando Blackman DAL 05/29/1988 DAL vs. LAL W 45 15 6 11 54.5 0 0 - 3 3 100.0 1 3 4 11 2 0 2 1 -
p34
aVJames Donaldson DAL 05/29/1988 DAL vs. LAL W 30 10 5 7 71.4 0 0 - 0 0 - 3 7 10 1 0 0 3 3 -
p35
aVDetlef Schrempf DAL 05/27/1988 DAL vs. LAL W 11 0 0 1 0.0 0 0 - 0 0 - 0 1 1 1 1 0 0 1 -
p36
aVMark Aguirre DAL 05/27/1988 DAL vs. LAL W 37 23 9 18 50.0 1 2 50.0 4 5 80.0 3 7 10 4 0 2 3 1 -
p37
aVJames Donaldson DAL 05/27/1988 DAL vs. LAL W 18 10 4 4 100.0 0 0 - 2 3 66.7 1 4 5 2 0 1 2 2 -
p38
aVRolando Blackman DAL 05/27/1988 DAL vs. LAL W 42 20 10 17 58.8 0 0 - 0 1 0.0 2 1 3 5 0 0 2 1 -
p39
aVSam Perkins DAL 05/27/1988 DAL vs. LAL W 37 16 5 10 50.0 0 0 - 6 7 85.7 7 4 11 2 2 1 2 4 -
p40
aVBrad Davis DAL 05/27/1988 DAL vs. LAL W 20 5 2 8 25.0 0 1 0.0 1 1 100.0 0 0 0 6 1 0 3 3 -
p41
aVRoy Tarpley DAL 05/27/1988 DAL vs. LAL W 41 21 7 24 29.2 0 1 0.0 7 7 100.0 11 9 20 1 2 2 1 5 -
p42
aVDerek Harper DAL 05/27/1988 DAL vs. LAL W 34 11 5 11 45.5 1 2 50.0 0 0 - 1 1 2 5 0 1 1 3 -
p43
aVJim Farmer DAL 05/25/1988 DAL @ LAL L 4 2 1 2 50.0 0 0 - 0 0 - 2 0 2 0 0 0 1 1 -
p44
aVMark Aguirre DAL 05/25/1988 DAL @ LAL L 30 28 11 16 68.8 2 3 66.7 4 5 80.0 0 3 3 1 2 1 2 4 -
p45
aVSam Perkins DAL 05/25/1988 DAL @ LAL L 29 16 8 12 66.7 0 0 - 0 0 - 2 1 3 1 1 0 0 4 -
p46
aVRolando Blackman DAL 05/25/1988 DAL @ LAL L 34 14 6 15 40.0 0 0 - 2 2 100.0 1 0 1 4 0 0 2 1 -
p47
aVJames Donaldson DAL 05/25/1988 DAL @ LAL L 26 7 3 3 100.0 0 0 - 1 2 50.0 2 4 6 1 0 0 0 2 -
p48
aVRoy Tarpley DAL 05/25/1988 DAL @ LAL L 35 8 4 11 36.4 0 0 - 0 0 - 5 8 13 2 4 1 4 3 -
p49
aVBill Wennington DAL 05/25/1988 DAL @ LAL L 4 0 0 2 0.0 0 0 - 0 0 - 2 0 2 1 0 0 0 2 -
p50
aVDetlef Schrempf DAL 05/25/1988 DAL @ LAL L 18 12 5 9 55.6 0 0 - 2 3 66.7 2 1 3 0 1 0 3 2 -
p51
aVUwe Blab DAL 05/25/1988 DAL @ LAL L 2 0 0 1 0.0 0 0 - 0 0 - 0 0 0 1 0 0 1 1 -
p52
aVBrad Davis DAL 05/25/1988 DAL @ LAL L 19 6 3 6 50.0 0 0 - 0 0 - 0 0 0 5 0 0 0 1 -
p53
aVSteve Alford DAL 05/25/1988 DAL @ LAL L 4 2 1 3 33.3 0 0 - 0 0 - 0 1 1 1 0 0 1 0 -
p54
aVDerek Harper DAL 05/25/1988 DAL @ LAL L 35 6 3 9 33.3 0 0 - 0 0 - 0 2 2 8 5 0 4 2 -
p55
aVDetlef Schrempf DAL 05/23/1988 DAL @ LAL L 10 4 2 4 50.0 0 0 - 0 0 - 1 1 2 1 0 1 2 2 -
p56
aVBrad Davis DAL 05/23/1988 DAL @ LAL L 13 4 2 4 50.0 0 1 0.0 0 0 - 0 1 1 4 0 0 0 1 -
p57
aVDerek Harper DAL 05/23/1988 DAL @ LAL L 40 17 7 14 50.0 1 2 50.0 2 4 50.0 0 0 0 7 0 0 3 4 -
p58
aVMark Aguirre DAL 05/23/1988 DAL @ LAL L 38 18 8 18 44.4 1 2 50.0 1 2 50.0 3 4 7 4 0 0 2 2 -
p59
aVRoy Tarpley DAL 05/23/1988 DAL @ LAL L 36 18 7 11 63.6 0 0 - 4 6 66.7 8 12 20 6 0 2 2 1 -
p60
aVSam Perkins DAL 05/23/1988 DAL @ LAL L 31 8 4 10 40.0 0 1 0.0 0 0 - 0 2 2 1 0 0 3 2 -
p61
aVJames Donaldson DAL 05/23/1988 DAL @ LAL L 29 11 5 8 62.5 0 0 - 1 2 50.0 2 5 7 0 2 1 1 2 -
p62
aVRolando Blackman DAL 05/23/1988 DAL @ LAL L 43 18 8 14 57.1 0 0 - 2 2 100.0 0 0 0 3 2 0 1 2 -
p63
aVMark Aguirre DAL 05/19/1988 DAL vs. DEN W 19 4 2 7 28.6 0 0 - 0 0 - 0 3 3 2 1 0 2 4 -
p64
aVBill Wennington DAL 05/19/1988 DAL vs. DEN W 1 0 0 0 - 0 0 - 0 0 - 0 0 0 0 0 0 0 0 -
p65
aVBrad Davis DAL 05/19/1988 DAL vs. DEN W 16 6 3 3 100.0 0 0 - 0 0 - 0 2 2 2 0 1 1 1 -
p66
aVSam Perkins DAL 05/19/1988 DAL vs. DEN W 42 23 8 12 66.7 0 0 - 7 9 77.8 1 10 11 4 2 3 1 2 -
p67
aVDerek Harper DAL 05/19/1988 DAL vs. DEN W 40 19 8 16 50.0 1 4 25.0 2 2 100.0 0 1 1 9 3 1 4 3 -
p68
aVJames Donaldson DAL 05/19/1988 DAL vs. DEN W 22 3 1 6 16.7 0 0 - 1 2 50.0 2 3 5 2 0 1 1 2 -
p69
aVDetlef Schrempf DAL 05/19/1988 DAL vs. DEN W 26 12 3 7 42.9 0 0 - 6 7 85.7 1 6 7 3 0 1 0 2 -
p70
aVRoy Tarpley DAL 05/19/1988 DAL vs. DEN W 34 18 8 16 50.0 0 0 - 2 2 100.0 5 14 19 2 1 2 3 4 -
p71
aVRolando Blackman DAL 05/19/1988 DAL vs. DEN W 40 23 10 16 62.5 0 0 - 3 3 100.0 2 2 4 2 0 0 2 0 -
p72
aVJames Donaldson DAL 05/17/1988 DAL @ DEN W 20 0 0 0 - 0 0 - 0 0 - 1 2 3 1 0 0 1 1 -
p73
aVSteve Alford DAL 05/17/1988 DAL @ DEN W 3 2 1 2 50.0 0 0 - 0 0 - 0 0 0 0 0 0 0 0 -
p74
aVSam Perkins DAL 05/17/1988 DAL @ DEN W 37 17 4 16 25.0 0 0 - 9 10 90.0 1 6 7 2 0 3 1 2 -
p75
aVRolando Blackman DAL 05/17/1988 DAL @ DEN W 39 24 11 17 64.7 0 0 - 2 2 100.0 2 4 6 3 0 0 3 2 -
p76
aVRoy Tarpley DAL 05/17/1988 DAL @ DEN W 38 21 10 16 62.5 0 1 0.0 1 2 50.0 4 12 16 1 2 3 5 6 -
p77
aVBrad Davis DAL 05/17/1988 DAL @ DEN W 25 6 1 5 20.0 0 0 - 4 5 80.0 0 1 1 3 0 0 1 4 -
p78
aVDetlef Schrempf DAL 05/17/1988 DAL @ DEN W 16 11 3 5 60.0 0 0 - 5 8 62.5 3 3 6 1 1 1 0 2 -
p79
aVMark Aguirre DAL 05/17/1988 DAL @ DEN W 33 25 11 20 55.0 1 3 33.3 2 3 66.7 1 3 4 1 1 0 0 2 -
p80
aVDerek Harper DAL 05/17/1988 DAL @ DEN W 29 4 2 6 33.3 0 0 - 0 1 0.0 0 2 2 6 2 1 1 2 -
p81
aVDetlef Schrempf DAL 05/15/1988 DAL vs. DEN W 16 6 1 6 16.7 0 0 - 4 4 100.0 4 3 7 1 0 0 2 2 -
p82
aVJim Farmer DAL 05/15/1988 DAL vs. DEN W 4 2 1 3 33.3 0 0 - 0 0 - 0 1 1 0 0 0 1 0 -
p83
aVJames Donaldson DAL 05/15/1988 DAL vs. DEN W 26 11 5 8 62.5 0 0 - 1 2 50.0 2 6 8 0 0 1 1 2 -
p84
aVSam Perkins DAL 05/15/1988 DAL vs. DEN W 31 15 7 13 53.8 0 0 - 1 2 50.0 2 7 9 2 2 1 2 5 -
p85
aVBrad Davis DAL 05/15/1988 DAL vs. DEN W 21 4 2 5 40.0 0 0 - 0 0 - 0 2 2 6 0 0 2 2 -
p86
aVRoy Tarpley DAL 05/15/1988 DAL vs. DEN W 30 24 12 20 60.0 0 0 - 0 0 - 7 6 13 5 1 0 1 3 -
p87
aVBill Wennington DAL 05/15/1988 DAL vs. DEN W 4 0 0 0 - 0 0 - 0 0 - 0 0 0 0 0 0 1 2 -
p88
aVDerek Harper DAL 05/15/1988 DAL vs. DEN W 31 12 5 11 45.5 0 1 0.0 2 2 100.0 1 1 2 10 2 1 2 1 -
p89
aVSteve Alford DAL 05/15/1988 DAL vs. DEN W 3 0 0 0 - 0 0 - 0 0 - 0 0 0 1 0 0 0 0 -
p90
aVRolando Blackman DAL 05/15/1988 DAL vs. DEN W 37 14 6 10 60.0 0 0 - 2 3 66.7 1 3 4 4 3 0 1 2 -
p91
aVUwe Blab DAL 05/15/1988 DAL vs. DEN W 3 2 0 1 0.0 0 0 - 2 2 100.0 1 0 1 0 0 0 0 0 -
p92
aVMark Aguirre DAL 05/15/1988 DAL vs. DEN W 34 34 14 20 70.0 0 1 0.0 6 7 85.7 2 5 7 7 1 2 2 2 -
p93
aVBrad Davis DAL 05/14/1988 DAL vs. DEN L 18 9 3 3 100.0 0 0 - 3 4 75.0 0 2 2 4 0 0 3 1 -
p94
aVRolando Blackman DAL 05/14/1988 DAL vs. DEN L 35 16 6 9 66.7 0 0 - 4 4 100.0 0 4 4 3 1 2 1 0 -
p95
aVSam Perkins DAL 05/14/1988 DAL vs. DEN L 39 17 7 14 50.0 0 0 - 3 3 100.0 3 4 7 3 4 1 2 2 -
p96
aVJames Donaldson DAL 05/14/1988 DAL vs. DEN L 36 7 3 5 60.0 0 0 - 1 1 100.0 1 7 8 0 0 1 4 1 -
p97
aVMark Aguirre DAL 05/14/1988 DAL vs. DEN L 25 13 4 13 30.8 0 0 - 5 8 62.5 2 6 8 6 1 0 4 3 -
p98
aVDetlef Schrempf DAL 05/14/1988 DAL vs. DEN L 22 14 6 10 60.0 1 1 100.0 1 4 25.0 4 1 5 1 0 0 3 2 -
p99
aVDerek Harper DAL 05/14/1988 DAL vs. DEN L 37 14 7 17 41.2 0 3 0.0 0 0 - 0 2 2 3 0 0 1 3 -
p100
aVRoy Tarpley DAL 05/14/1988 DAL vs. DEN L 28 15 3 7 42.9 0 0 - 9 15 60.0 6 9 15 2 1 1 1 3 -
p101
aVRoy Tarpley DAL 05/12/1988 DAL @ DEN W 33 27 9 14 64.3 0 0 - 9 9 100.0 3 9 12 1 0 1 2 4 -
p102
aVMark Aguirre DAL 05/12/1988 DAL @ DEN W 27 9 3 7 42.9 0 1 0.0 3 7 42.9 0 3 3 5 0 1 6 3 -
p103
aVJames Donaldson DAL 05/12/1988 DAL @ DEN W 39 14 5 8 62.5 0 0 - 4 6 66.7 3 10 13 1 1 2 4 4 -
p104
aVBrad Davis DAL 05/12/1988 DAL @ DEN W 15 4 1 1 100.0 0 0 - 2 2 100.0 0 0 0 1 0 0 1 4 -
p105
aVDerek Harper DAL 05/12/1988 DAL @ DEN W 40 5 2 8 25.0 0 1 0.0 1 2 50.0 1 1 2 8 1 0 2 2 -
p106
aVSam Perkins DAL 05/12/1988 DAL @ DEN W 29 9 4 7 57.1 0 0 - 1 2 50.0 1 9 10 2 0 0 2 2 -
p107
aVDetlef Schrempf DAL 05/12/1988 DAL @ DEN W 20 13 4 7 57.1 0 0 - 5 5 100.0 1 2 3 4 1 0 2 3 -
p108
aVRolando Blackman DAL 05/12/1988 DAL @ DEN W 37 31 13 23 56.5 0 0 - 5 7 71.4 2 1 3 2 0 0 1 2 -
p109
aVRolando Blackman DAL 05/10/1988 DAL @ DEN L 37 20 6 14 42.9 0 0 - 8 9 88.9 5 1 6 2 0 0 2 1 -
p110
aVDerek Harper DAL 05/10/1988 DAL @ DEN L 41 17 6 13 46.2 0 2 0.0 5 9 55.6 0 1 1 5 3 0 1 1 -
p111
aVBill Wennington DAL 05/10/1988 DAL @ DEN L 1 0 0 0 - 0 0 - 0 0 - 0 1 1 0 0 0 0 0 -
p112
aVDetlef Schrempf DAL 05/10/1988 DAL @ DEN L 21 9 3 7 42.9 0 2 0.0 3 4 75.0 0 3 3 2 0 0 2 3 -
p113
aVJames Donaldson DAL 05/10/1988 DAL @ DEN L 34 8 3 8 37.5 0 0 - 2 4 50.0 6 7 13 1 0 1 1 4 -
p114
aVBrad Davis DAL 05/10/1988 DAL @ DEN L 18 6 3 3 100.0 0 0 - 0 0 - 0 2 2 0 0 0 2 2 -
p115
aVMark Aguirre DAL 05/10/1988 DAL @ DEN L 33 26 10 23 43.5 1 2 50.0 5 7 71.4 1 4 5 2 0 0 6 1 -
p116
aVRoy Tarpley DAL 05/10/1988 DAL @ DEN L 28 18 7 14 50.0 0 0 - 4 4 100.0 6 4 10 1 0 0 1 6 -
p117
aVSam Perkins DAL 05/10/1988 DAL @ DEN L 27 11 3 10 30.0 0 0 - 5 6 83.3 2 4 6 3 1 1 2 6 -
p118
aVBrad Davis DAL 05/05/1988 DAL @ HOU W 24 14 5 9 55.6 0 0 - 4 4 100.0 0 3 3 2 0 0 3 2 -
p119
aVJames Donaldson DAL 05/05/1988 DAL @ HOU W 31 10 5 7 71.4 0 0 - 0 0 - 4 6 10 0 1 1 1 3 -
p120
aVRoy Tarpley DAL 05/05/1988 DAL @ HOU W 20 6 2 5 40.0 0 0 - 2 2 100.0 2 6 8 1 2 0 3 5 -
p121
aVSam Perkins DAL 05/05/1988 DAL @ HOU W 42 16 5 15 33.3 0 1 0.0 6 7 85.7 4 2 6 3 4 0 3 3 -
p122
aVDerek Harper DAL 05/05/1988 DAL @ HOU W 24 2 1 5 20.0 0 0 - 0 0 - 0 1 1 4 1 0 1 1 -
p123
aVMark Aguirre DAL 05/05/1988 DAL @ HOU W 33 38 13 21 61.9 3 4 75.0 9 9 100.0 3 2 5 2 3 1 3 4 -
p124
aVDetlef Schrempf DAL 05/05/1988 DAL @ HOU W 24 4 2 7 28.6 0 0 - 0 0 - 0 2 2 1 1 0 2 1 -
p125
aVRolando Blackman DAL 05/05/1988 DAL @ HOU W 42 17 6 15 40.0 0 0 - 5 5 100.0 0 1 1 10 1 0 0 2 -
p126
aVRoy Tarpley DAL 05/03/1988 DAL @ HOU W 38 17 8 15 53.3 0 0 - 1 3 33.3 7 6 13 1 2 1 1 5 -
p127
aVJames Donaldson DAL 05/03/1988 DAL @ HOU W 35 6 3 5 60.0 0 0 - 0 0 - 2 7 9 0 0 2 5 1 -
p128
aVBrad Davis DAL 05/03/1988 DAL @ HOU W 14 7 3 4 75.0 0 0 - 1 1 100.0 0 1 1 1 0 0 0 1 -
p129
aVSam Perkins DAL 05/03/1988 DAL @ HOU W 35 15 7 11 63.6 0 0 - 1 2 50.0 3 4 7 1 0 2 4 2 -
p130
aVDerek Harper DAL 05/03/1988 DAL @ HOU W 34 14 6 9 66.7 0 0 - 2 4 50.0 0 5 5 6 3 0 4 4 -
p131
aVMark Aguirre DAL 05/03/1988 DAL @ HOU W 27 14 6 15 40.0 0 1 0.0 2 2 100.0 2 4 6 2 2 0 3 1 -
p132
aVDetlef Schrempf DAL 05/03/1988 DAL @ HOU W 17 5 2 5 40.0 0 0 - 1 2 50.0 0 3 3 2 1 0 2 3 -
p133
aVRolando Blackman DAL 05/03/1988 DAL @ HOU W 40 15 6 16 37.5 0 0 - 3 3 100.0 1 1 2 7 1 0 1 0 -
p134
aVBill Wennington DAL 04/30/1988 DAL vs. HOU L 1 0 0 0 - 0 0 - 0 0 - 0 0 0 0 0 0 0 0 -
p135
aVDetlef Schrempf DAL 04/30/1988 DAL vs. HOU L 22 9 3 5 60.0 0 0 - 3 3 100.0 2 1 3 3 1 1 1 3 -
p136
aVDerek Harper DAL 04/30/1988 DAL vs. HOU L 32 11 5 14 35.7 1 5 20.0 0 0 - 0 2 2 8 2 0 0 3 -
p137
aVJames Donaldson DAL 04/30/1988 DAL vs. HOU L 25 6 3 4 75.0 0 0 - 0 0 - 1 7 8 0 1 1 1 2 -
p138
aVMark Aguirre DAL 04/30/1988 DAL vs. HOU L 34 15 6 14 42.9 0 3 0.0 3 8 37.5 1 4 5 3 0 0 0 4 -
p139
aVSam Perkins DAL 04/30/1988 DAL vs. HOU L 35 16 7 13 53.8 0 2 0.0 2 3 66.7 3 6 9 1 1 2 4 3 -
p140
aVBrad Davis DAL 04/30/1988 DAL vs. HOU L 17 9 3 5 60.0 1 3 33.3 2 2 100.0 0 2 2 3 0 3 3 3 -
p141
aVRoy Tarpley DAL 04/30/1988 DAL vs. HOU L 34 23 10 14 71.4 0 0 - 3 6 50.0 3 10 13 3 0 2 1 6 -
p142
aVRolando Blackman DAL 04/30/1988 DAL vs. HOU L 40 19 6 17 35.3 0 0 - 7 7 100.0 2 0 2 4 1 0 3 4 -
p143
aVSam Perkins DAL 04/28/1988 DAL vs. HOU W 34 11 4 10 40.0 0 0 - 3 5 60.0 3 5 8 2 1 1 0 3 -
p144
aVMark Aguirre DAL 04/28/1988 DAL vs. HOU W 31 16 6 15 40.0 0 0 - 4 6 66.7 6 2 8 5 0 0 3 5 -
p145
aVRolando Blackman DAL 04/28/1988 DAL vs. HOU W 38 15 6 18 33.3 0 1 0.0 3 4 75.0 1 1 2 5 1 0 0 4 -
p146
aVDerek Harper DAL 04/28/1988 DAL vs. HOU W 32 12 4 8 50.0 1 3 33.3 3 5 60.0 0 3 3 8 3 1 3 4 -
p147
aVJames Donaldson DAL 04/28/1988 DAL vs. HOU W 33 18 8 10 80.0 0 0 - 2 2 100.0 1 6 7 1 0 1 0 3 -
p148
aVRoy Tarpley DAL 04/28/1988 DAL vs. HOU W 31 24 10 17 58.8 0 0 - 4 6 66.7 1 8 9 1 2 1 2 5 -
p149
aVDetlef Schrempf DAL 04/28/1988 DAL vs. HOU W 24 12 4 6 66.7 0 0 - 4 5 80.0 4 3 7 2 0 3 2 1 -
p150
aVBrad Davis DAL 04/28/1988 DAL vs. HOU W 17 12 3 3 100.0 0 0 - 6 6 100.0 0 1 1 7 1 1 2 1 -
p151
a.