(lp0
VPLAYER TEAM DATE MATCHUP W/L MIN PTS FGM FGA FG% 3PM 3PA 3P% FTM FTA FT% OREB DREB REB AST STL BLK TOV PF +/-
p1
aVKurt Nimphius SAN 05/03/1988 SAN vs. LAL L 15 10 4 5 80.0 0 0 - 2 2 100.0 1 4 5 0 0 0 0 4 -
p2
aVJon Sundvold SAN 05/03/1988 SAN vs. LAL L 28 13 6 10 60.0 1 4 25.0 0 0 - 0 1 1 4 1 0 1 0 -
p3
aVMike Mitchell SAN 05/03/1988 SAN vs. LAL L 24 10 4 11 36.4 0 0 - 2 2 100.0 1 4 5 2 0 0 1 1 -
p4
aVGreg Anderson SAN 05/03/1988 SAN vs. LAL L 39 13 6 11 54.5 0 0 - 1 3 33.3 1 7 8 0 0 2 4 2 -
p5
aVWalter Berry SAN 05/03/1988 SAN vs. LAL L 32 27 12 18 66.7 0 0 - 3 4 75.0 4 3 7 2 1 1 4 5 -
p6
aVFrank Brickowski SAN 05/03/1988 SAN vs. LAL L 42 22 8 16 50.0 1 1 100.0 5 6 83.3 3 4 7 4 2 1 1 4 -
p7
aVAlvin Robertson SAN 05/03/1988 SAN vs. LAL L 39 8 4 12 33.3 0 1 0.0 0 0 - 1 4 5 11 4 0 4 6 -
p8
aVJohnny Dawkins SAN 05/03/1988 SAN vs. LAL L 21 4 1 10 10.0 0 1 0.0 2 2 100.0 1 1 2 3 0 0 1 0 -
p9
aVWalter Berry SAN 05/01/1988 SAN @ LAL L 31 14 7 16 43.8 0 1 0.0 0 1 0.0 5 1 6 2 1 0 3 2 -
p10
aVFrank Brickowski SAN 05/01/1988 SAN @ LAL L 38 19 7 13 53.8 0 0 - 5 10 50.0 3 9 12 5 3 1 5 5 -
p11
aVMike Mitchell SAN 05/01/1988 SAN @ LAL L 30 12 6 16 37.5 0 0 - 0 0 - 2 4 6 1 0 1 2 2 -
p12
aVAlvin Robertson SAN 05/01/1988 SAN @ LAL L 41 28 11 18 61.1 2 4 50.0 4 5 80.0 3 3 6 12 2 0 1 4 -
p13
aVKurt Nimphius SAN 05/01/1988 SAN @ LAL L 10 2 1 4 25.0 0 0 - 0 0 - 2 0 2 1 0 1 0 3 -
p14
aVJohnny Dawkins SAN 05/01/1988 SAN @ LAL L 22 11 5 11 45.5 0 1 0.0 1 2 50.0 0 1 1 1 2 0 0 0 -
p15
aVEd Nealy SAN 05/01/1988 SAN @ LAL L 10 0 0 0 - 0 0 - 0 0 - 0 1 1 3 0 0 1 3 -
p16
aVPhil Zevenbergen SAN 05/01/1988 SAN @ LAL L 1 0 0 0 - 0 0 - 0 0 - 0 0 0 0 0 0 0 0 -
p17
aVPetur Gudmundsson SAN 05/01/1988 SAN @ LAL L 2 0 0 1 0.0 0 0 - 0 0 - 0 0 0 0 0 0 1 0 -
p18
aVGreg Anderson SAN 05/01/1988 SAN @ LAL L 25 18 8 14 57.1 0 0 - 2 2 100.0 2 3 5 2 0 2 2 6 -
p19
aVJon Sundvold SAN 05/01/1988 SAN @ LAL L 27 8 3 9 33.3 1 3 33.3 1 2 50.0 1 1 2 7 0 0 1 2 -
p20
aVRicky Wilson SAN 05/01/1988 SAN @ LAL L 3 0 0 0 - 0 0 - 0 0 - 0 0 0 0 0 0 0 1 -
p21
aVFrank Brickowski SAN 04/29/1988 SAN @ LAL L 33 17 7 15 46.7 0 0 - 3 3 100.0 1 2 3 5 1 0 3 3 -
p22
aVWalter Berry SAN 04/29/1988 SAN @ LAL L 31 25 8 16 50.0 0 0 - 9 10 90.0 4 4 8 2 3 1 4 3 -
p23
aVMike Mitchell SAN 04/29/1988 SAN @ LAL L 20 9 3 10 30.0 0 0 - 3 4 75.0 3 1 4 1 1 0 2 2 -
p24
aVEd Nealy SAN 04/29/1988 SAN @ LAL L 26 4 2 4 50.0 0 0 - 0 0 - 3 3 6 1 1 0 0 3 -
p25
aVRicky Wilson SAN 04/29/1988 SAN @ LAL L 6 0 0 2 0.0 0 0 - 0 0 - 0 0 0 1 0 0 1 1 -
p26
aVKurt Nimphius SAN 04/29/1988 SAN @ LAL L 5 0 0 1 0.0 0 0 - 0 0 - 0 1 1 1 0 0 0 0 -
p27
aVPetur Gudmundsson SAN 04/29/1988 SAN @ LAL L 4 0 0 1 0.0 0 0 - 0 0 - 0 0 0 1 0 0 2 0 -
p28
aVGreg Anderson SAN 04/29/1988 SAN @ LAL L 31 7 3 11 27.3 0 0 - 1 4 25.0 3 5 8 1 2 0 4 2 -
p29
aVJon Sundvold SAN 04/29/1988 SAN @ LAL L 35 14 6 11 54.5 1 2 50.0 1 1 100.0 0 1 1 4 3 0 1 1 -
p30
aVJohnny Dawkins SAN 04/29/1988 SAN @ LAL L 10 0 0 2 0.0 0 0 - 0 0 - 0 0 0 1 0 0 0 2 -
p31
aVAlvin Robertson SAN 04/29/1988 SAN @ LAL L 39 34 15 23 65.2 1 2 50.0 3 4 75.0 1 2 3 5 6 1 4 5 -
p32
a.