(lp0
VPLAYER TEAM DATE MATCHUP W/L MIN PTS FGM FGA FG% 3PM 3PA 3P% FTM FTA FT% OREB DREB REB AST STL BLK TOV PF +/-
p1
aVDanny Young SEA 05/07/1988 SEA @ DEN L 18 2 0 3 0.0 0 1 0.0 2 2 100.0 1 2 3 3 0 0 1 2 -
p2
aVClemon Johnson SEA 05/07/1988 SEA @ DEN L 9 2 1 3 33.3 0 0 - 0 0 - 0 1 1 0 0 0 0 3 -
p3
aVTom Chambers SEA 05/07/1988 SEA @ DEN L 35 23 9 20 45.0 0 0 - 5 6 83.3 3 3 6 1 1 1 3 5 -
p4
aVNate McMillan SEA 05/07/1988 SEA @ DEN L 20 2 1 5 20.0 0 1 0.0 0 0 - 1 4 5 4 0 1 5 2 -
p5
aVRuss Schoene SEA 05/07/1988 SEA @ DEN L 12 8 3 4 75.0 2 3 66.7 0 0 - 0 0 0 0 0 0 0 2 -
p6
aVAlton Lister SEA 05/07/1988 SEA @ DEN L 18 8 3 4 75.0 0 0 - 2 2 100.0 1 7 8 0 0 2 1 4 -
p7
aVKevin Williams SEA 05/07/1988 SEA @ DEN L 20 4 2 7 28.6 0 2 0.0 0 0 - 0 1 1 3 0 0 0 4 -
p8
aVDerrick McKey SEA 05/07/1988 SEA @ DEN L 22 19 8 9 88.9 1 2 50.0 2 4 50.0 2 2 4 2 0 1 1 5 -
p9
aVOlden Polynice SEA 05/07/1988 SEA @ DEN L 12 4 2 3 66.7 0 0 - 0 0 - 1 3 4 0 1 0 0 3 -
p10
aVDale Ellis SEA 05/07/1988 SEA @ DEN L 26 12 4 9 44.4 0 2 0.0 4 7 57.1 1 0 1 0 1 0 1 2 -
p11
aVXavier McDaniel SEA 05/07/1988 SEA @ DEN L 32 6 2 9 22.2 0 2 0.0 2 6 33.3 0 4 4 5 0 0 2 4 -
p12
aVSedale Threatt SEA 05/07/1988 SEA @ DEN L 16 6 3 6 50.0 0 1 0.0 0 0 - 0 1 1 2 0 0 1 0 -
p13
aVDale Ellis SEA 05/05/1988 SEA vs. DEN W 37 17 6 19 31.6 0 3 0.0 5 6 83.3 4 1 5 2 0 0 3 4 -
p14
aVKevin Williams SEA 05/05/1988 SEA vs. DEN W 15 4 2 3 66.7 0 0 - 0 0 - 5 1 6 3 0 0 3 4 -
p15
aVDanny Young SEA 05/05/1988 SEA vs. DEN W 19 12 3 6 50.0 0 1 0.0 6 6 100.0 2 1 3 8 0 0 1 0 -
p16
aVClemon Johnson SEA 05/05/1988 SEA vs. DEN W 7 0 0 2 0.0 0 0 - 0 0 - 0 1 1 0 0 0 1 2 -
p17
aVTom Chambers SEA 05/05/1988 SEA vs. DEN W 26 25 8 14 57.1 0 0 - 9 10 90.0 1 4 5 2 0 0 1 5 -
p18
aVDerrick McKey SEA 05/05/1988 SEA vs. DEN W 25 18 7 11 63.6 0 1 0.0 4 6 66.7 2 5 7 2 0 3 0 4 -
p19
aVNate McMillan SEA 05/05/1988 SEA vs. DEN W 25 8 3 6 50.0 0 0 - 2 2 100.0 1 2 3 6 2 1 0 0 -
p20
aVOlden Polynice SEA 05/05/1988 SEA vs. DEN W 17 6 3 7 42.9 0 0 - 0 2 0.0 1 2 3 0 1 0 0 2 -
p21
aVXavier McDaniel SEA 05/05/1988 SEA vs. DEN W 37 27 10 18 55.6 1 1 100.0 6 7 85.7 1 4 5 2 2 1 2 2 -
p22
aVAlton Lister SEA 05/05/1988 SEA vs. DEN W 18 8 4 4 100.0 0 0 - 0 0 - 1 4 5 1 0 1 1 3 -
p23
aVSedale Threatt SEA 05/05/1988 SEA vs. DEN W 9 2 1 4 25.0 0 0 - 0 0 - 2 1 3 1 0 0 0 2 -
p24
aVRuss Schoene SEA 05/05/1988 SEA vs. DEN W 5 0 0 0 - 0 0 - 0 0 - 0 1 1 0 0 0 0 1 -
p25
aVKevin Williams SEA 05/03/1988 SEA vs. DEN L 2 0 0 0 - 0 0 - 0 0 - 0 0 0 0 0 0 0 1 -
p26
aVRuss Schoene SEA 05/03/1988 SEA vs. DEN L 6 4 2 5 40.0 0 1 0.0 0 0 - 0 2 2 2 1 0 1 0 -
p27
aVOlden Polynice SEA 05/03/1988 SEA vs. DEN L 6 0 0 1 0.0 0 0 - 0 0 - 0 0 0 0 0 0 1 1 -
p28
aVDerrick McKey SEA 05/03/1988 SEA vs. DEN L 20 5 2 3 66.7 0 0 - 1 2 50.0 2 1 3 1 0 0 0 0 -
p29
aVTom Chambers SEA 05/03/1988 SEA vs. DEN L 40 34 13 23 56.5 0 2 0.0 8 9 88.9 1 5 6 2 1 0 4 6 -
p30
aVClemon Johnson SEA 05/03/1988 SEA vs. DEN L 5 0 0 0 - 0 0 - 0 0 - 0 2 2 0 0 0 0 1 -
p31
aVDale Ellis SEA 05/03/1988 SEA vs. DEN L 44 27 11 17 64.7 1 4 25.0 4 6 66.7 2 4 6 5 1 2 4 3 -
p32
aVSedale Threatt SEA 05/03/1988 SEA vs. DEN L 11 0 0 4 0.0 0 0 - 0 0 - 0 2 2 1 0 0 2 1 -
p33
aVAlton Lister SEA 05/03/1988 SEA vs. DEN L 18 5 2 4 50.0 0 0 - 1 1 100.0 3 3 6 2 0 0 0 2 -
p34
aVNate McMillan SEA 05/03/1988 SEA vs. DEN L 29 3 1 7 14.3 0 0 - 1 4 25.0 0 3 3 9 0 1 0 3 -
p35
aVXavier McDaniel SEA 05/03/1988 SEA vs. DEN L 40 30 13 20 65.0 2 3 66.7 2 4 50.0 3 9 12 5 1 0 3 4 -
p36
aVDanny Young SEA 05/03/1988 SEA vs. DEN L 19 6 3 6 50.0 0 1 0.0 0 0 - 0 1 1 5 1 2 1 2 -
p37
aVDerrick McKey SEA 05/01/1988 SEA @ DEN W 21 10 4 8 50.0 0 1 0.0 2 3 66.7 0 3 3 1 1 1 2 1 -
p38
aVXavier McDaniel SEA 05/01/1988 SEA @ DEN W 40 23 11 19 57.9 0 1 0.0 1 1 100.0 6 11 17 5 0 0 3 1 -
p39
aVKevin Williams SEA 05/01/1988 SEA @ DEN W 16 2 1 2 50.0 0 0 - 0 0 - 0 0 0 1 1 0 1 4 -
p40
aVAlton Lister SEA 05/01/1988 SEA @ DEN W 6 2 1 3 33.3 0 0 - 0 1 0.0 2 0 2 1 0 1 0 3 -
p41
aVClemon Johnson SEA 05/01/1988 SEA @ DEN W 6 5 2 2 100.0 0 0 - 1 2 50.0 0 2 2 0 1 1 0 2 -
p42
aVOlden Polynice SEA 05/01/1988 SEA @ DEN W 6 0 0 0 - 0 0 - 0 0 - 0 1 1 0 1 0 0 0 -
p43
aVDale Ellis SEA 05/01/1988 SEA @ DEN W 32 24 11 20 55.0 2 3 66.7 0 0 - 2 5 7 5 0 0 2 4 -
p44
aVTom Chambers SEA 05/01/1988 SEA @ DEN W 36 18 7 16 43.8 0 0 - 4 4 100.0 0 8 8 5 1 0 3 4 -
p45
aVDanny Young SEA 05/01/1988 SEA @ DEN W 26 8 3 4 75.0 0 0 - 2 2 100.0 0 3 3 3 1 0 2 2 -
p46
aVRuss Schoene SEA 05/01/1988 SEA @ DEN W 5 2 1 2 50.0 0 0 - 0 0 - 1 0 1 0 0 0 0 2 -
p47
aVSedale Threatt SEA 05/01/1988 SEA @ DEN W 22 8 3 10 30.0 0 0 - 2 2 100.0 0 2 2 3 0 0 1 2 -
p48
aVNate McMillan SEA 05/01/1988 SEA @ DEN W 24 9 4 9 44.4 0 0 - 1 1 100.0 3 3 6 6 0 0 1 4 -
p49
aVDale Ellis SEA 04/29/1988 SEA @ DEN L 33 24 8 18 44.4 0 0 - 8 10 80.0 2 2 4 3 1 0 2 4 -
p50
aVSedale Threatt SEA 04/29/1988 SEA @ DEN L 22 16 7 10 70.0 0 0 - 2 2 100.0 0 3 3 4 1 0 1 2 -
p51
aVNate McMillan SEA 04/29/1988 SEA @ DEN L 29 11 3 8 37.5 0 0 - 5 7 71.4 1 3 4 8 0 0 2 2 -
p52
aVXavier McDaniel SEA 04/29/1988 SEA @ DEN L 31 20 9 15 60.0 1 1 100.0 1 6 16.7 4 6 10 8 0 0 1 4 -
p53
aVOlden Polynice SEA 04/29/1988 SEA @ DEN L 3 0 0 0 - 0 0 - 0 0 - 0 0 0 0 0 0 0 0 -
p54
aVRuss Schoene SEA 04/29/1988 SEA @ DEN L 11 2 1 1 100.0 0 0 - 0 0 - 0 3 3 0 0 0 1 3 -
p55
aVTom Chambers SEA 04/29/1988 SEA @ DEN L 31 29 13 18 72.2 0 0 - 3 6 50.0 3 3 6 1 0 0 2 4 -
p56
aVDanny Young SEA 04/29/1988 SEA @ DEN L 13 4 2 2 100.0 0 0 - 0 0 - 0 0 0 0 0 0 2 1 -
p57
aVAlton Lister SEA 04/29/1988 SEA @ DEN L 17 5 2 2 100.0 0 0 - 1 1 100.0 2 6 8 1 1 1 2 5 -
p58
aVKevin Williams SEA 04/29/1988 SEA @ DEN L 17 4 2 4 50.0 0 0 - 0 0 - 1 0 1 2 2 0 0 2 -
p59
aVDerrick McKey SEA 04/29/1988 SEA @ DEN L 21 8 3 7 42.9 1 2 50.0 1 2 50.0 1 2 3 2 2 0 2 2 -
p60
aVClemon Johnson SEA 04/29/1988 SEA @ DEN L 12 0 0 0 - 0 0 - 0 0 - 0 1 1 0 0 0 1 2 -
p61
a.