(lp0
VPLAYER TEAM DATE MATCHUP W/L MIN PTS FGM FGA FG% 3PM 3PA 3P% FTM FTA FT% OREB DREB REB AST STL BLK TOV PF +/-
p1
aVVinnie Johnson DET 06/13/1989 DET @ LAL W 29 14 5 11 45.5 0 0 - 4 7 57.1 0 6 6 5 0 0 0 2 -
p2
aVJohn Salley DET 06/13/1989 DET @ LAL W 20 8 3 4 75.0 0 0 - 2 4 50.0 1 2 3 1 0 3 0 2 -
p3
aVJoe Dumars DET 06/13/1989 DET @ LAL W 37 23 5 13 38.5 0 0 - 13 17 76.5 0 1 1 6 0 0 2 0 -
p4
aVMark Aguirre DET 06/13/1989 DET @ LAL W 23 2 1 5 20.0 0 0 - 0 0 - 0 2 2 0 0 0 2 2 -
p5
aVRick Mahorn DET 06/13/1989 DET @ LAL W 35 13 5 7 71.4 0 0 - 3 4 75.0 3 4 7 1 1 0 1 6 -
p6
aVIsiah Thomas DET 06/13/1989 DET @ LAL W 32 14 5 9 55.6 0 1 0.0 4 6 66.7 0 3 3 5 2 0 3 4 -
p7
aVBill Laimbeer DET 06/13/1989 DET @ LAL W 30 16 5 8 62.5 2 2 100.0 4 4 100.0 1 5 6 2 0 0 0 4 -
p8
aVJames Edwards DET 06/13/1989 DET @ LAL W 21 13 4 8 50.0 0 0 - 5 9 55.6 1 3 4 0 0 1 0 4 -
p9
aVDennis Rodman DET 06/13/1989 DET @ LAL W 13 2 1 5 20.0 0 0 - 0 0 - 3 1 4 1 0 0 1 2 -
p10
aVVinnie Johnson DET 06/11/1989 DET @ LAL W 18 17 8 11 72.7 0 2 0.0 1 2 50.0 2 1 3 2 0 0 2 3 -
p11
aVJames Edwards DET 06/11/1989 DET @ LAL W 19 0 0 2 0.0 0 0 - 0 0 - 0 2 2 1 0 1 1 4 -
p12
aVJoe Dumars DET 06/11/1989 DET @ LAL W 35 31 12 21 57.1 0 1 0.0 7 7 100.0 0 2 2 5 2 1 3 1 -
p13
aVJohn Salley DET 06/11/1989 DET @ LAL W 23 9 4 6 66.7 0 0 - 1 1 100.0 0 3 3 3 0 0 0 5 -
p14
aVDennis Rodman DET 06/11/1989 DET @ LAL W 28 12 3 6 50.0 0 1 0.0 6 6 100.0 7 12 19 1 1 1 4 4 -
p15
aVIsiah Thomas DET 06/11/1989 DET @ LAL W 43 26 9 20 45.0 1 2 50.0 7 9 77.8 1 2 3 8 2 0 2 3 -
p16
aVMark Aguirre DET 06/11/1989 DET @ LAL W 24 2 0 6 0.0 0 0 - 2 2 100.0 3 3 6 3 2 0 1 3 -
p17
aVRick Mahorn DET 06/11/1989 DET @ LAL W 21 7 3 4 75.0 0 0 - 1 2 50.0 1 3 4 0 0 0 0 4 -
p18
aVBill Laimbeer DET 06/11/1989 DET @ LAL W 29 10 4 7 57.1 0 1 0.0 2 3 66.7 0 2 2 6 1 0 0 3 -
p19
aVIsiah Thomas DET 06/08/1989 DET vs. LAL W 34 21 9 21 42.9 0 2 0.0 3 4 75.0 1 3 4 7 2 1 3 4 -
p20
aVDennis Rodman DET 06/08/1989 DET vs. LAL W 26 2 1 1 100.0 0 0 - 0 0 - 2 5 7 0 0 0 1 3 -
p21
aVJoe Dumars DET 06/08/1989 DET vs. LAL W 36 33 10 16 62.5 0 1 0.0 13 14 92.9 1 1 2 6 0 0 0 2 -
p22
aVJames Edwards DET 06/08/1989 DET vs. LAL W 32 8 3 8 37.5 0 0 - 2 2 100.0 3 1 4 2 0 1 1 4 -
p23
aVVinnie Johnson DET 06/08/1989 DET vs. LAL W 27 18 8 14 57.1 1 3 33.3 1 1 100.0 1 2 3 2 0 1 0 1 -
p24
aVBill Laimbeer DET 06/08/1989 DET vs. LAL W 14 2 1 3 33.3 0 0 - 0 0 - 2 3 5 0 0 0 1 4 -
p25
aVRick Mahorn DET 06/08/1989 DET vs. LAL W 21 2 1 3 33.3 0 0 - 0 0 - 0 2 2 2 0 3 0 4 -
p26
aVJohn Salley DET 06/08/1989 DET vs. LAL W 17 8 4 4 100.0 0 0 - 0 0 - 1 1 2 0 1 3 0 4 -
p27
aVMark Aguirre DET 06/08/1989 DET vs. LAL W 33 14 7 11 63.6 0 2 0.0 0 0 - 2 4 6 2 0 0 4 5 -
p28
aVMicheal Williams DET 06/06/1989 DET vs. LAL W 2 0 0 0 - 0 0 - 0 0 - 0 0 0 1 0 0 0 1 -
p29
aVIsiah Thomas DET 06/06/1989 DET vs. LAL W 32 24 9 16 56.3 1 1 100.0 5 6 83.3 0 0 0 9 0 0 2 2 -
p30
aVRick Mahorn DET 06/06/1989 DET vs. LAL W 21 2 1 4 25.0 0 0 - 0 0 - 2 6 8 1 0 0 0 3 -
p31
aVJoe Dumars DET 06/06/1989 DET vs. LAL W 39 22 11 16 68.8 0 0 - 0 0 - 0 2 2 7 0 0 2 1 -
p32
aVJohn Salley DET 06/06/1989 DET vs. LAL W 21 5 2 5 40.0 0 0 - 1 2 50.0 0 2 2 1 0 5 2 3 -
p33
aVBill Laimbeer DET 06/06/1989 DET vs. LAL W 21 4 2 4 50.0 0 0 - 0 0 - 0 8 8 1 1 0 2 4 -
p34
aVMark Aguirre DET 06/06/1989 DET vs. LAL W 27 12 4 11 36.4 0 1 0.0 4 6 66.7 4 6 10 1 0 0 1 3 -
p35
aVVinnie Johnson DET 06/06/1989 DET vs. LAL W 21 19 9 14 64.3 0 0 - 1 1 100.0 0 1 1 2 0 0 0 3 -
p36
aVDennis Rodman DET 06/06/1989 DET vs. LAL W 27 4 2 3 66.7 0 0 - 0 1 0.0 1 9 10 3 1 0 3 3 -
p37
aVJames Edwards DET 06/06/1989 DET vs. LAL W 25 15 5 9 55.6 0 0 - 5 5 100.0 2 2 4 0 0 0 1 4 -
p38
aVJohn Long DET 06/06/1989 DET vs. LAL W 2 2 1 1 100.0 0 0 - 0 0 - 0 0 0 0 0 0 0 0 -
p39
aVFennis Dembo DET 06/06/1989 DET vs. LAL W 2 0 0 0 - 0 0 - 0 0 - 0 0 0 0 0 0 0 1 -
p40
aVVinnie Johnson DET 06/02/1989 DET @ CHI W 16 8 3 13 23.1 0 1 0.0 2 4 50.0 1 0 1 2 0 0 1 1 -
p41
aVBill Laimbeer DET 06/02/1989 DET @ CHI W 33 11 4 10 40.0 1 4 25.0 2 2 100.0 4 6 10 5 0 0 1 4 -
p42
aVRick Mahorn DET 06/02/1989 DET @ CHI W 22 4 2 2 100.0 0 0 - 0 0 - 1 2 3 0 0 1 0 4 -
p43
aVDennis Rodman DET 06/02/1989 DET @ CHI W 32 9 3 5 60.0 0 0 - 3 4 75.0 6 9 15 0 0 0 0 3 -
p44
aVMark Aguirre DET 06/02/1989 DET @ CHI W 32 10 3 8 37.5 0 2 0.0 4 4 100.0 1 6 7 4 0 0 2 2 -
p45
aVJames Edwards DET 06/02/1989 DET @ CHI W 14 11 3 9 33.3 0 0 - 5 7 71.4 0 2 2 0 0 0 1 3 -
p46
aVIsiah Thomas DET 06/02/1989 DET @ CHI W 40 33 12 28 42.9 0 2 0.0 9 10 90.0 1 4 5 4 3 0 4 1 -
p47
aVJoe Dumars DET 06/02/1989 DET @ CHI W 40 12 5 12 41.7 0 0 - 2 2 100.0 2 2 4 9 2 0 3 2 -
p48
aVJohn Salley DET 06/02/1989 DET @ CHI W 10 5 2 3 66.7 0 0 - 1 2 50.0 2 1 3 0 1 0 0 5 -
p49
aVJohn Long DET 06/02/1989 DET @ CHI W 1 0 0 0 - 0 0 - 0 0 - 0 0 0 0 0 0 0 0 -
p50
aVVinnie Johnson DET 05/31/1989 DET vs. CHI W 23 22 8 14 57.1 1 2 50.0 5 5 100.0 1 1 2 4 0 0 1 3 -
p51
aVJoe Dumars DET 05/31/1989 DET vs. CHI W 41 9 4 11 36.4 0 0 - 1 2 50.0 0 1 1 2 1 0 1 3 -
p52
aVDennis Rodman DET 05/31/1989 DET vs. CHI W 26 0 0 1 0.0 0 0 - 0 0 - 2 12 14 0 1 1 2 4 -
p53
aVBill Laimbeer DET 05/31/1989 DET vs. CHI W 24 7 3 8 37.5 1 4 25.0 0 0 - 2 1 3 1 1 0 1 0 -
p54
aVJames Edwards DET 05/31/1989 DET vs. CHI W 24 12 5 9 55.6 0 0 - 2 3 66.7 1 0 1 1 0 0 1 4 -
p55
aVRick Mahorn DET 05/31/1989 DET vs. CHI W 10 0 0 0 - 0 0 - 0 0 - 0 2 2 0 1 1 1 4 -
p56
aVJohn Salley DET 05/31/1989 DET vs. CHI W 31 8 3 6 50.0 0 0 - 2 2 100.0 2 3 5 1 3 0 0 4 -
p57
aVIsiah Thomas DET 05/31/1989 DET vs. CHI W 32 17 8 17 47.1 0 1 0.0 1 1 100.0 0 3 3 12 2 0 2 1 -
p58
aVMark Aguirre DET 05/31/1989 DET vs. CHI W 29 19 8 14 57.1 1 2 50.0 2 4 50.0 2 1 3 1 0 0 1 2 -
p59
aVVinnie Johnson DET 05/29/1989 DET @ CHI W 21 7 3 8 37.5 0 0 - 1 2 50.0 1 2 3 4 1 0 0 3 -
p60
aVRick Mahorn DET 05/29/1989 DET @ CHI W 14 0 0 2 0.0 0 0 - 0 0 - 1 2 3 0 1 0 0 2 -
p61
aVJohn Salley DET 05/29/1989 DET @ CHI W 33 9 2 10 20.0 0 0 - 5 10 50.0 4 4 8 0 1 0 2 2 -
p62
aVIsiah Thomas DET 05/29/1989 DET @ CHI W 43 27 9 20 45.0 1 1 100.0 8 10 80.0 4 6 10 6 3 0 2 2 -
p63
aVDennis Rodman DET 05/29/1989 DET @ CHI W 32 7 2 6 33.3 0 0 - 3 6 50.0 8 10 18 2 0 1 2 3 -
p64
aVBill Laimbeer DET 05/29/1989 DET @ CHI W 28 2 1 5 20.0 0 2 0.0 0 0 - 2 3 5 1 0 1 2 1 -
p65
aVMark Aguirre DET 05/29/1989 DET @ CHI W 15 6 2 2 100.0 0 0 - 2 2 100.0 1 3 4 0 0 1 1 1 -
p66
aVJames Edwards DET 05/29/1989 DET @ CHI W 21 13 3 9 33.3 0 0 - 7 10 70.0 0 2 2 1 0 0 1 4 -
p67
aVJoe Dumars DET 05/29/1989 DET @ CHI W 33 15 5 13 38.5 0 0 - 5 6 83.3 2 1 3 1 0 0 1 3 -
p68
aVJoe Dumars DET 05/27/1989 DET @ CHI L 29 12 3 8 37.5 0 1 0.0 6 7 85.7 1 1 2 4 0 0 3 4 -
p69
aVMark Aguirre DET 05/27/1989 DET @ CHI L 36 25 9 16 56.3 1 5 20.0 6 8 75.0 1 2 3 4 0 0 1 3 -
p70
aVJohn Salley DET 05/27/1989 DET @ CHI L 19 8 4 4 100.0 0 0 - 0 0 - 0 3 3 0 1 0 1 3 -
p71
aVJames Edwards DET 05/27/1989 DET @ CHI L 19 4 2 3 66.7 0 0 - 0 0 - 0 1 1 2 0 0 0 4 -
p72
aVJohn Long DET 05/27/1989 DET @ CHI L 3 3 0 0 - 0 0 - 3 3 100.0 0 0 0 0 0 0 0 0 -
p73
aVIsiah Thomas DET 05/27/1989 DET @ CHI L 39 5 2 8 25.0 0 1 0.0 1 2 50.0 2 3 5 11 2 0 4 3 -
p74
aVRick Mahorn DET 05/27/1989 DET @ CHI L 12 9 4 6 66.7 0 0 - 1 2 50.0 1 3 4 0 0 0 1 3 -
p75
aVVinnie Johnson DET 05/27/1989 DET @ CHI L 25 19 6 14 42.9 2 4 50.0 5 5 100.0 1 2 3 1 0 0 1 2 -
p76
aVDennis Rodman DET 05/27/1989 DET @ CHI L 26 8 4 6 66.7 0 0 - 0 0 - 4 9 13 0 0 0 3 5 -
p77
aVBill Laimbeer DET 05/27/1989 DET @ CHI L 32 4 2 9 22.2 0 3 0.0 0 0 - 3 3 6 5 1 1 1 4 -
p78
aVVinnie Johnson DET 05/23/1989 DET vs. CHI W 20 16 4 11 36.4 2 4 50.0 6 7 85.7 2 1 3 0 0 0 0 2 -
p79
aVBill Laimbeer DET 05/23/1989 DET vs. CHI W 26 7 3 7 42.9 1 3 33.3 0 0 - 1 4 5 2 1 1 1 3 -
p80
aVMicheal Williams DET 05/23/1989 DET vs. CHI W 1 0 0 0 - 0 0 - 0 0 - 0 0 0 0 0 0 0 0 -
p81
aVJames Edwards DET 05/23/1989 DET vs. CHI W 21 1 0 2 0.0 0 0 - 1 2 50.0 1 2 3 0 0 1 1 4 -
p82
aVIsiah Thomas DET 05/23/1989 DET vs. CHI W 38 33 12 27 44.4 1 2 50.0 8 12 66.7 2 1 3 4 2 0 6 3 -
p83
aVJoe Dumars DET 05/23/1989 DET vs. CHI W 36 20 5 13 38.5 0 1 0.0 10 11 90.9 1 2 3 3 2 0 2 2 -
p84
aVRick Mahorn DET 05/23/1989 DET vs. CHI W 23 1 0 0 - 0 0 - 1 2 50.0 1 2 3 1 1 0 2 3 -
p85
aVDennis Rodman DET 05/23/1989 DET vs. CHI W 17 8 2 4 50.0 0 1 0.0 4 4 100.0 2 10 12 1 1 0 0 5 -
p86
aVMark Aguirre DET 05/23/1989 DET vs. CHI W 36 8 4 8 50.0 0 1 0.0 0 0 - 0 8 8 1 1 0 0 1 -
p87
aVJohn Salley DET 05/23/1989 DET vs. CHI W 20 6 1 2 50.0 0 0 - 4 6 66.7 3 1 4 0 1 0 1 3 -
p88
aVJohn Long DET 05/23/1989 DET vs. CHI W 2 0 0 0 - 0 0 - 0 0 - 0 0 0 0 0 0 0 0 -
p89
aVDennis Rodman DET 05/21/1989 DET vs. CHI L 23 9 3 5 60.0 0 0 - 3 6 50.0 5 3 8 0 0 2 1 1 -
p90
aVRick Mahorn DET 05/21/1989 DET vs. CHI L 26 17 7 11 63.6 0 0 - 3 5 60.0 4 3 7 0 0 1 1 4 -
p91
aVJohn Salley DET 05/21/1989 DET vs. CHI L 17 1 0 4 0.0 0 0 - 1 2 50.0 4 1 5 0 0 1 1 5 -
p92
aVJoe Dumars DET 05/21/1989 DET vs. CHI L 34 10 5 16 31.3 0 1 0.0 0 0 - 1 3 4 6 0 0 3 1 -
p93
aVVinnie Johnson DET 05/21/1989 DET vs. CHI L 20 8 3 11 27.3 0 0 - 2 2 100.0 2 2 4 1 0 1 0 2 -
p94
aVBill Laimbeer DET 05/21/1989 DET vs. CHI L 37 15 6 11 54.5 2 3 66.7 1 2 50.0 4 11 15 3 0 1 4 3 -
p95
aVMark Aguirre DET 05/21/1989 DET vs. CHI L 30 14 6 12 50.0 0 2 0.0 2 2 100.0 1 3 4 1 1 0 2 2 -
p96
aVJames Edwards DET 05/21/1989 DET vs. CHI L 11 5 2 3 66.7 0 0 - 1 1 100.0 0 2 2 0 0 0 1 0 -
p97
aVIsiah Thomas DET 05/21/1989 DET vs. CHI L 42 9 3 18 16.7 0 5 0.0 3 6 50.0 2 2 4 10 2 0 1 3 -
p98
aVJohn Salley DET 05/15/1989 DET @ MIL W 20 3 1 3 33.3 0 0 - 1 2 50.0 2 4 6 1 0 1 2 3 -
p99
aVMark Aguirre DET 05/15/1989 DET @ MIL W 28 15 7 12 58.3 0 1 0.0 1 1 100.0 0 1 1 2 1 1 1 1 -
p100
aVVinnie Johnson DET 05/15/1989 DET @ MIL W 16 2 1 5 20.0 0 0 - 0 2 0.0 0 3 3 1 0 0 5 2 -
p101
aVBill Laimbeer DET 05/15/1989 DET @ MIL W 34 17 7 11 63.6 3 7 42.9 0 0 - 0 7 7 0 0 1 1 2 -
p102
aVRick Mahorn DET 05/15/1989 DET @ MIL W 29 10 4 6 66.7 0 0 - 2 3 66.7 1 3 4 0 0 1 0 4 -
p103
aVDennis Rodman DET 05/15/1989 DET @ MIL W 20 2 1 2 50.0 0 1 0.0 0 0 - 1 2 3 0 1 0 2 3 -
p104
aVJoe Dumars DET 05/15/1989 DET @ MIL W 40 22 7 11 63.6 0 0 - 8 9 88.9 2 3 5 7 1 0 3 3 -
p105
aVJames Edwards DET 05/15/1989 DET @ MIL W 13 8 3 4 75.0 0 0 - 2 2 100.0 0 0 0 1 0 0 0 2 -
p106
aVIsiah Thomas DET 05/15/1989 DET @ MIL W 40 17 7 14 50.0 2 2 100.0 1 2 50.0 4 6 10 13 0 1 3 3 -
p107
aVJoe Dumars DET 05/14/1989 DET @ MIL W 41 7 1 5 20.0 0 0 - 5 5 100.0 0 4 4 10 1 0 0 2 -
p108
aVFennis Dembo DET 05/14/1989 DET @ MIL W 2 2 1 1 100.0 0 0 - 0 0 - 0 0 0 0 0 0 1 0 -
p109
aVRick Mahorn DET 05/14/1989 DET @ MIL W 22 13 4 5 80.0 0 0 - 5 7 71.4 4 5 9 1 1 4 3 4 -
p110
aVMicheal Williams DET 05/14/1989 DET @ MIL W 2 2 0 0 - 0 0 - 2 2 100.0 1 1 2 1 1 0 0 0 -
p111
aVVinnie Johnson DET 05/14/1989 DET @ MIL W 15 11 5 12 41.7 1 1 100.0 0 0 - 2 0 2 2 0 0 2 1 -
p112
aVJohn Salley DET 05/14/1989 DET @ MIL W 28 14 4 7 57.1 0 0 - 6 7 85.7 1 5 6 0 0 1 0 1 -
p113
aVDennis Rodman DET 05/14/1989 DET @ MIL W 13 2 1 2 50.0 0 0 - 0 0 - 1 2 3 1 0 0 0 5 -
p114
aVBill Laimbeer DET 05/14/1989 DET @ MIL W 20 12 4 8 50.0 2 3 66.7 2 4 50.0 0 11 11 0 0 0 2 4 -
p115
aVIsiah Thomas DET 05/14/1989 DET @ MIL W 38 26 11 19 57.9 2 4 50.0 2 3 66.7 2 2 4 9 0 0 2 1 -
p116
aVMark Aguirre DET 05/14/1989 DET @ MIL W 33 15 6 12 50.0 1 2 50.0 2 2 100.0 0 4 4 4 0 0 1 2 -
p117
aVJames Edwards DET 05/14/1989 DET @ MIL W 26 6 2 4 50.0 0 0 - 2 2 100.0 1 1 2 0 0 0 3 2 -
p118
aVJoe Dumars DET 05/12/1989 DET vs. MIL W 38 13 6 14 42.9 1 2 50.0 0 0 - 0 1 1 6 1 0 1 1 -
p119
aVBill Laimbeer DET 05/12/1989 DET vs. MIL W 34 10 3 9 33.3 0 2 0.0 4 4 100.0 0 12 12 1 0 2 0 3 -
p120
aVMark Aguirre DET 05/12/1989 DET vs. MIL W 25 6 3 9 33.3 0 1 0.0 0 0 - 2 2 4 1 0 0 0 3 -
p121
aVRick Mahorn DET 05/12/1989 DET vs. MIL W 20 11 5 8 62.5 0 0 - 1 1 100.0 4 3 7 0 1 0 0 2 -
p122
aVDennis Rodman DET 05/12/1989 DET vs. MIL W 22 11 5 7 71.4 0 0 - 1 4 25.0 4 9 13 3 0 1 0 5 -
p123
aVVinnie Johnson DET 05/12/1989 DET vs. MIL W 24 21 7 14 50.0 1 4 25.0 6 8 75.0 1 1 2 3 0 0 3 2 -
p124
aVIsiah Thomas DET 05/12/1989 DET vs. MIL W 33 11 3 9 33.3 0 0 - 5 6 83.3 0 3 3 10 1 0 1 2 -
p125
aVMicheal Williams DET 05/12/1989 DET vs. MIL W 1 0 0 0 - 0 0 - 0 0 - 0 0 0 0 0 0 0 0 -
p126
aVJohn Salley DET 05/12/1989 DET vs. MIL W 29 23 10 14 71.4 0 0 - 3 4 75.0 3 1 4 0 0 1 0 3 -
p127
aVJames Edwards DET 05/12/1989 DET vs. MIL W 14 6 2 3 66.7 0 0 - 2 2 100.0 0 1 1 2 0 1 0 3 -
p128
aVMark Aguirre DET 05/10/1989 DET vs. MIL W 24 13 6 14 42.9 1 2 50.0 0 0 - 2 1 3 2 0 1 0 1 -
p129
aVDennis Rodman DET 05/10/1989 DET vs. MIL W 24 2 1 6 16.7 0 1 0.0 0 0 - 4 2 6 0 0 0 1 4 -
p130
aVIsiah Thomas DET 05/10/1989 DET vs. MIL W 37 10 4 17 23.5 0 2 0.0 2 4 50.0 2 5 7 5 0 0 1 1 -
p131
aVJohn Salley DET 05/10/1989 DET vs. MIL W 28 14 5 7 71.4 0 0 - 4 6 66.7 5 3 8 0 0 1 2 2 -
p132
aVJames Edwards DET 05/10/1989 DET vs. MIL W 8 6 2 2 100.0 0 0 - 2 2 100.0 0 1 1 0 0 0 1 2 -
p133
aVBill Laimbeer DET 05/10/1989 DET vs. MIL W 43 19 5 10 50.0 0 3 0.0 9 10 90.0 4 13 17 2 0 1 0 3 -
p134
aVJoe Dumars DET 05/10/1989 DET vs. MIL W 35 9 2 10 20.0 0 2 0.0 5 6 83.3 1 3 4 6 0 0 2 3 -
p135
aVVinnie Johnson DET 05/10/1989 DET vs. MIL W 25 12 5 11 45.5 1 2 50.0 1 2 50.0 1 1 2 5 1 0 1 2 -
p136
aVRick Mahorn DET 05/10/1989 DET vs. MIL W 16 0 0 2 0.0 0 0 - 0 0 - 1 4 5 0 0 2 0 3 -
p137
aVBill Laimbeer DET 05/02/1989 DET @ BOS W 18 9 4 9 44.4 1 2 50.0 0 0 - 0 1 1 0 0 0 0 3 -
p138
aVMark Aguirre DET 05/02/1989 DET @ BOS W 18 13 6 11 54.5 1 2 50.0 0 0 - 1 1 2 0 1 0 1 1 -
p139
aVJoe Dumars DET 05/02/1989 DET @ BOS W 34 24 9 17 52.9 0 0 - 6 9 66.7 0 3 3 4 0 0 1 1 -
p140
aVJohn Salley DET 05/02/1989 DET @ BOS W 30 14 5 7 71.4 0 0 - 4 4 100.0 2 4 6 0 1 1 1 4 -
p141
aVRick Mahorn DET 05/02/1989 DET @ BOS W 18 0 0 1 0.0 0 0 - 0 0 - 1 4 5 0 2 0 0 2 -
p142
aVIsiah Thomas DET 05/02/1989 DET @ BOS W 34 3 1 9 11.1 0 2 0.0 1 3 33.3 1 4 5 10 2 0 1 2 -
p143
aVJames Edwards DET 05/02/1989 DET @ BOS W 30 6 2 4 50.0 0 0 - 2 2 100.0 0 4 4 2 0 2 2 3 -
p144
aVVinnie Johnson DET 05/02/1989 DET @ BOS W 28 25 10 18 55.6 1 1 100.0 4 4 100.0 1 3 4 5 2 0 3 2 -
p145
aVDennis Rodman DET 05/02/1989 DET @ BOS W 30 6 3 6 50.0 0 0 - 0 0 - 2 7 9 2 0 3 2 3 -
p146
aVMark Aguirre DET 04/30/1989 DET vs. BOS W 29 21 10 19 52.6 1 2 50.0 0 3 0.0 4 1 5 1 0 0 1 2 -
p147
aVIsiah Thomas DET 04/30/1989 DET vs. BOS W 39 26 9 20 45.0 0 2 0.0 8 9 88.9 2 2 4 8 2 2 3 2 -
p148
aVJoe Dumars DET 04/30/1989 DET vs. BOS W 33 13 5 14 35.7 0 0 - 3 3 100.0 0 2 2 5 1 0 1 0 -
p149
aVDennis Rodman DET 04/30/1989 DET vs. BOS W 22 4 1 1 100.0 0 0 - 2 2 100.0 1 3 4 1 1 0 0 3 -
p150
aVBill Laimbeer DET 04/30/1989 DET vs. BOS W 36 10 4 10 40.0 1 1 100.0 1 2 50.0 2 13 15 0 0 0 3 6 -
p151
aVJames Edwards DET 04/30/1989 DET vs. BOS W 9 6 2 3 66.7 0 0 - 2 2 100.0 2 0 2 0 1 0 0 2 -
p152
aVJohn Salley DET 04/30/1989 DET vs. BOS W 19 2 1 4 25.0 0 0 - 0 0 - 1 3 4 0 0 2 0 4 -
p153
aVRick Mahorn DET 04/30/1989 DET vs. BOS W 29 2 1 4 25.0 0 0 - 0 0 - 3 5 8 0 1 0 1 4 -
p154
aVVinnie Johnson DET 04/30/1989 DET vs. BOS W 24 18 5 10 50.0 0 0 - 8 10 80.0 0 1 1 2 0 1 1 1 -
p155
aVJoe Dumars DET 04/28/1989 DET vs. BOS W 39 25 11 23 47.8 0 3 0.0 3 3 100.0 0 1 1 9 1 0 3 2 -
p156
aVIsiah Thomas DET 04/28/1989 DET vs. BOS W 37 7 2 7 28.6 0 0 - 3 3 100.0 0 0 0 10 2 0 3 2 -
p157
aVJames Edwards DET 04/28/1989 DET vs. BOS W 10 0 0 3 0.0 0 1 0.0 0 0 - 0 1 1 0 0 1 1 4 -
p158
aVVinnie Johnson DET 04/28/1989 DET vs. BOS W 20 2 1 9 11.1 0 0 - 0 0 - 0 2 2 2 0 0 1 0 -
p159
aVRick Mahorn DET 04/28/1989 DET vs. BOS W 21 6 3 4 75.0 0 0 - 0 0 - 2 4 6 1 0 0 1 3 -
p160
aVDennis Rodman DET 04/28/1989 DET vs. BOS W 28 10 4 4 100.0 0 0 - 2 2 100.0 3 9 12 1 0 3 2 2 -
p161
aVBill Laimbeer DET 04/28/1989 DET vs. BOS W 38 17 8 13 61.5 1 2 50.0 0 0 - 1 11 12 2 1 0 0 4 -
p162
aVJohn Salley DET 04/28/1989 DET vs. BOS W 27 15 7 9 77.8 0 0 - 1 2 50.0 3 4 7 2 0 6 0 5 -
p163
aVMark Aguirre DET 04/28/1989 DET vs. BOS W 20 19 7 12 58.3 2 4 50.0 3 4 75.0 2 1 3 1 2 0 1 4 -
p164
a.