(lp0
VPLAYER TEAM DATE MATCHUP W/L MIN PTS FGM FGA FG% 3PM 3PA 3P% FTM FTA FT% OREB DREB REB AST STL BLK TOV PF +/-
p1
aVRon Anderson PHL 05/02/1989 PHL vs. NYK L 41 10 4 11 36.4 0 0 - 2 2 100.0 2 5 7 6 0 2 2 4 -
p2
aVCharles Barkley PHL 05/02/1989 PHL vs. NYK L 44 29 12 16 75.0 0 0 - 5 8 62.5 3 8 11 3 1 1 5 2 -
p3
aVScott Brooks PHL 05/02/1989 PHL vs. NYK L 10 5 1 4 25.0 1 2 50.0 2 2 100.0 0 2 2 1 0 0 0 2 -
p4
aVChris Welp PHL 05/02/1989 PHL vs. NYK L 7 0 0 1 0.0 0 0 - 0 0 - 0 0 0 0 0 0 0 1 -
p5
aVBen Coleman PHL 05/02/1989 PHL vs. NYK L 13 12 5 7 71.4 0 0 - 2 2 100.0 2 0 2 0 1 0 1 3 -
p6
aVDerek Smith PHL 05/02/1989 PHL vs. NYK L 16 9 4 5 80.0 0 0 - 1 1 100.0 2 1 3 1 0 0 1 4 -
p7
aVMaurice Cheeks PHL 05/02/1989 PHL vs. NYK L 43 18 6 12 50.0 0 0 - 6 7 85.7 2 5 7 11 1 0 1 2 -
p8
aVGerald Henderson PHL 05/02/1989 PHL vs. NYK L 26 15 6 11 54.5 1 2 50.0 2 6 33.3 2 2 4 3 1 0 2 4 -
p9
aVMike Gminski PHL 05/02/1989 PHL vs. NYK L 42 15 5 14 35.7 0 0 - 5 8 62.5 3 5 8 0 0 2 1 4 -
p10
aVHersey Hawkins PHL 05/02/1989 PHL vs. NYK L 23 2 0 6 0.0 0 1 0.0 2 2 100.0 0 1 1 0 2 0 2 2 -
p11
aVScott Brooks PHL 04/29/1989 PHL @ NYK L 4 0 0 0 - 0 0 - 0 0 - 0 0 0 1 0 0 1 0 -
p12
aVDerek Smith PHL 04/29/1989 PHL @ NYK L 15 8 4 6 66.7 0 0 - 0 0 - 0 3 3 1 0 0 1 2 -
p13
aVHersey Hawkins PHL 04/29/1989 PHL @ NYK L 21 4 2 9 22.2 0 2 0.0 0 0 - 0 2 2 2 0 1 0 2 -
p14
aVMaurice Cheeks PHL 04/29/1989 PHL @ NYK L 44 16 6 12 50.0 0 0 - 4 4 100.0 1 2 3 12 3 0 1 1 -
p15
aVGerald Henderson PHL 04/29/1989 PHL @ NYK L 27 4 2 7 28.6 0 1 0.0 0 0 - 0 1 1 2 1 0 2 5 -
p16
aVChris Welp PHL 04/29/1989 PHL @ NYK L 6 0 0 0 - 0 0 - 0 2 0.0 0 4 4 0 0 0 1 4 -
p17
aVCharles Barkley PHL 04/29/1989 PHL @ NYK L 45 30 10 17 58.8 0 2 0.0 10 11 90.9 4 8 12 7 1 0 1 5 -
p18
aVRon Anderson PHL 04/29/1989 PHL @ NYK L 33 26 12 20 60.0 0 1 0.0 2 3 66.7 3 2 5 4 1 0 0 3 -
p19
aVMike Gminski PHL 04/29/1989 PHL @ NYK L 37 18 7 18 38.9 0 0 - 4 6 66.7 0 8 8 1 0 5 1 3 -
p20
aVBen Coleman PHL 04/29/1989 PHL @ NYK L 8 0 0 0 - 0 0 - 0 0 - 0 1 1 0 0 0 0 3 -
p21
aVBen Coleman PHL 04/27/1989 PHL @ NYK L 2 2 1 1 100.0 0 0 - 0 0 - 0 2 2 0 0 0 0 2 -
p22
aVCharles Barkley PHL 04/27/1989 PHL @ NYK L 46 22 7 12 58.3 1 3 33.3 7 12 58.3 1 11 12 6 3 1 5 2 -
p23
aVRon Anderson PHL 04/27/1989 PHL @ NYK L 35 26 13 20 65.0 0 0 - 0 0 - 2 2 4 3 0 0 0 3 -
p24
aVMike Gminski PHL 04/27/1989 PHL @ NYK L 39 16 7 16 43.8 0 0 - 2 2 100.0 3 4 7 1 0 1 0 1 -
p25
aVScott Brooks PHL 04/27/1989 PHL @ NYK L 7 0 0 2 0.0 0 0 - 0 0 - 0 2 2 3 0 0 0 2 -
p26
aVHersey Hawkins PHL 04/27/1989 PHL @ NYK L 28 2 1 9 11.1 0 2 0.0 0 0 - 1 1 2 2 1 0 1 2 -
p27
aVChris Welp PHL 04/27/1989 PHL @ NYK L 9 2 1 2 50.0 0 0 - 0 0 - 0 3 3 0 0 0 0 2 -
p28
aVGerald Henderson PHL 04/27/1989 PHL @ NYK L 16 5 2 7 28.6 1 4 25.0 0 0 - 1 1 2 0 0 0 1 1 -
p29
aVMaurice Cheeks PHL 04/27/1989 PHL @ NYK L 41 19 9 17 52.9 0 1 0.0 1 2 50.0 0 1 1 16 3 1 1 1 -
p30
aVDerek Smith PHL 04/27/1989 PHL @ NYK L 17 2 1 3 33.3 0 0 - 0 1 0.0 0 1 1 1 1 0 4 3 -
p31
a.