(lp0
VPLAYER TEAM DATE MATCHUP W/L MIN PTS FGM FGA FG% 3PM 3PA 3P% FTM FTA FT% OREB DREB REB AST STL BLK TOV PF +/-
p1
aVCraig Hodges CHI 06/02/1989 CHI vs. DET L 39 15 6 12 50.0 3 8 37.5 0 0 - 0 2 2 2 1 0 2 2 -
p2
aVHorace Grant CHI 06/02/1989 CHI vs. DET L 33 13 4 6 66.7 0 0 - 5 6 83.3 4 9 13 2 0 1 1 4 -
p3
aVDave Corzine CHI 06/02/1989 CHI vs. DET L 10 0 0 2 0.0 0 0 - 0 2 0.0 0 1 1 0 0 0 1 1 -
p4
aVScottie Pippen CHI 06/02/1989 CHI vs. DET L 1 0 0 0 - 0 0 - 0 0 - 0 0 0 0 0 0 0 0 -
p5
aVJohn Paxson CHI 06/02/1989 CHI vs. DET L 16 10 4 6 66.7 1 2 50.0 1 2 50.0 0 1 1 1 0 0 1 6 -
p6
aVBill Cartwright CHI 06/02/1989 CHI vs. DET L 41 4 1 8 12.5 0 0 - 2 4 50.0 1 5 6 0 0 1 0 3 -
p7
aVMichael Jordan CHI 06/02/1989 CHI vs. DET L 42 32 13 26 50.0 1 2 50.0 5 12 41.7 0 4 4 13 3 2 8 5 -
p8
aVBrad Sellers CHI 06/02/1989 CHI vs. DET L 38 16 4 10 40.0 0 0 - 8 8 100.0 3 4 7 3 1 1 0 3 -
p9
aVSam Vincent CHI 06/02/1989 CHI vs. DET L 4 2 1 2 50.0 0 0 - 0 0 - 1 0 1 0 0 0 0 1 -
p10
aVCharlie Davis CHI 06/02/1989 CHI vs. DET L 16 2 1 4 25.0 0 0 - 0 0 - 0 5 5 0 0 0 0 2 -
p11
aVCraig Hodges CHI 05/31/1989 CHI @ DET L 32 19 7 12 58.3 5 9 55.6 0 0 - 1 1 2 1 0 0 6 2 -
p12
aVDave Corzine CHI 05/31/1989 CHI @ DET L 13 7 3 5 60.0 0 0 - 1 2 50.0 2 2 4 0 0 0 0 1 -
p13
aVJohn Paxson CHI 05/31/1989 CHI @ DET L 14 6 2 4 50.0 0 1 0.0 2 2 100.0 0 0 0 0 0 0 1 3 -
p14
aVSam Vincent CHI 05/31/1989 CHI @ DET L 6 2 1 2 50.0 0 0 - 0 0 - 0 0 0 1 0 0 1 1 -
p15
aVCharlie Davis CHI 05/31/1989 CHI @ DET L 7 0 0 0 - 0 0 - 0 0 - 0 0 0 0 0 0 0 2 -
p16
aVHorace Grant CHI 05/31/1989 CHI @ DET L 26 4 1 5 20.0 0 0 - 2 2 100.0 0 1 1 1 0 1 4 5 -
p17
aVMichael Jordan CHI 05/31/1989 CHI @ DET L 46 18 4 8 50.0 0 1 0.0 10 11 90.9 0 5 5 9 1 0 4 3 -
p18
aVBrad Sellers CHI 05/31/1989 CHI @ DET L 22 6 3 7 42.9 0 0 - 0 0 - 2 4 6 2 0 0 1 2 -
p19
aVScottie Pippen CHI 05/31/1989 CHI @ DET L 39 7 3 7 42.9 1 2 50.0 0 0 - 0 9 9 2 0 1 2 2 -
p20
aVBill Cartwright CHI 05/31/1989 CHI @ DET L 35 16 5 9 55.6 0 0 - 6 8 75.0 1 11 12 0 0 0 5 1 -
p21
aVCharlie Davis CHI 05/29/1989 CHI vs. DET L 6 0 0 0 - 0 0 - 0 0 - 0 1 1 0 0 0 0 2 -
p22
aVCraig Hodges CHI 05/29/1989 CHI vs. DET L 30 16 6 13 46.2 4 6 66.7 0 0 - 1 3 4 5 0 1 1 5 -
p23
aVScottie Pippen CHI 05/29/1989 CHI vs. DET L 42 18 8 18 44.4 1 6 16.7 1 2 50.0 4 7 11 3 2 3 1 6 -
p24
aVDave Corzine CHI 05/29/1989 CHI vs. DET L 13 0 0 2 0.0 0 0 - 0 0 - 0 5 5 1 0 1 1 3 -
p25
aVSam Vincent CHI 05/29/1989 CHI vs. DET L 3 2 0 1 0.0 0 1 0.0 2 2 100.0 0 0 0 0 0 0 0 0 -
p26
aVJohn Paxson CHI 05/29/1989 CHI vs. DET L 22 0 0 5 0.0 0 4 0.0 0 0 - 0 2 2 2 1 0 3 2 -
p27
aVJack Haley CHI 05/29/1989 CHI vs. DET L 1 0 0 0 - 0 0 - 0 0 - 0 0 0 0 0 0 0 2 -
p28
aVBill Cartwright CHI 05/29/1989 CHI vs. DET L 34 9 3 7 42.9 0 0 - 3 4 75.0 1 2 3 1 0 2 1 4 -
p29
aVHorace Grant CHI 05/29/1989 CHI vs. DET L 46 12 5 8 62.5 0 0 - 2 2 100.0 3 9 12 4 1 1 3 3 -
p30
aVMichael Jordan CHI 05/29/1989 CHI vs. DET L 43 23 5 15 33.3 1 3 33.3 12 17 70.6 0 2 2 4 1 0 1 5 -
p31
aVSam Vincent CHI 05/27/1989 CHI vs. DET W 5 0 0 2 0.0 0 0 - 0 0 - 0 0 0 1 0 0 1 0 -
p32
aVScottie Pippen CHI 05/27/1989 CHI vs. DET W 43 7 2 10 20.0 1 2 50.0 2 4 50.0 1 7 8 4 4 1 3 5 -
p33
aVMichael Jordan CHI 05/27/1989 CHI vs. DET W 45 46 16 26 61.5 0 3 0.0 14 15 93.3 3 4 7 5 5 0 2 2 -
p34
aVBill Cartwright CHI 05/27/1989 CHI vs. DET W 34 15 5 6 83.3 0 0 - 5 6 83.3 0 4 4 1 0 1 2 4 -
p35
aVDave Corzine CHI 05/27/1989 CHI vs. DET W 16 4 2 4 50.0 0 0 - 0 0 - 1 2 3 0 0 3 1 2 -
p36
aVCraig Hodges CHI 05/27/1989 CHI vs. DET W 25 2 1 7 14.3 0 4 0.0 0 2 0.0 0 0 0 5 0 0 0 3 -
p37
aVJohn Paxson CHI 05/27/1989 CHI vs. DET W 26 12 6 9 66.7 0 0 - 0 0 - 0 1 1 4 0 0 0 5 -
p38
aVCharlie Davis CHI 05/27/1989 CHI vs. DET W 13 6 3 4 75.0 0 0 - 0 0 - 2 1 3 0 0 0 0 2 -
p39
aVHorace Grant CHI 05/27/1989 CHI vs. DET W 33 7 2 5 40.0 0 0 - 3 4 75.0 1 2 3 1 0 0 1 4 -
p40
aVCharlie Davis CHI 05/23/1989 CHI @ DET L 20 4 2 4 50.0 0 0 - 0 0 - 2 3 5 0 0 1 2 3 -
p41
aVSam Vincent CHI 05/23/1989 CHI @ DET L 15 6 1 3 33.3 0 1 0.0 4 6 66.7 0 0 0 5 0 0 0 1 -
p42
aVMichael Jordan CHI 05/23/1989 CHI @ DET L 38 27 9 20 45.0 0 2 0.0 9 11 81.8 1 3 4 4 2 1 4 5 -
p43
aVHorace Grant CHI 05/23/1989 CHI @ DET L 43 16 7 13 53.8 0 0 - 2 3 66.7 7 13 20 2 0 2 4 1 -
p44
aVJohn Paxson CHI 05/23/1989 CHI @ DET L 26 6 1 3 33.3 0 0 - 4 4 100.0 0 0 0 6 3 0 0 3 -
p45
aVBill Cartwright CHI 05/23/1989 CHI @ DET L 33 9 3 12 25.0 0 0 - 3 4 75.0 1 6 7 0 0 1 2 4 -
p46
aVCraig Hodges CHI 05/23/1989 CHI @ DET L 19 6 2 7 28.6 0 3 0.0 2 2 100.0 0 0 0 1 0 0 1 5 -
p47
aVDave Corzine CHI 05/23/1989 CHI @ DET L 16 5 2 4 50.0 0 0 - 1 2 50.0 1 1 2 0 0 0 1 2 -
p48
aVScottie Pippen CHI 05/23/1989 CHI @ DET L 30 12 5 9 55.6 0 2 0.0 2 4 50.0 1 4 5 3 3 1 3 2 -
p49
aVSam Vincent CHI 05/21/1989 CHI @ DET W 3 0 0 0 - 0 0 - 0 0 - 0 0 0 0 0 0 0 0 -
p50
aVCraig Hodges CHI 05/21/1989 CHI @ DET W 29 14 5 9 55.6 4 7 57.1 0 0 - 2 1 3 4 1 0 1 4 -
p51
aVBrad Sellers CHI 05/21/1989 CHI @ DET W 3 0 0 1 0.0 0 0 - 0 0 - 0 0 0 0 0 0 0 0 -
p52
aVMichael Jordan CHI 05/21/1989 CHI @ DET W 45 32 10 29 34.5 2 6 33.3 10 13 76.9 2 9 11 4 0 0 3 5 -
p53
aVHorace Grant CHI 05/21/1989 CHI @ DET W 24 4 2 5 40.0 0 0 - 0 0 - 5 2 7 1 1 1 2 6 -
p54
aVBill Cartwright CHI 05/21/1989 CHI @ DET W 31 10 4 9 44.4 0 0 - 2 4 50.0 2 2 4 1 0 0 1 4 -
p55
aVJohn Paxson CHI 05/21/1989 CHI @ DET W 19 0 0 2 0.0 0 0 - 0 0 - 0 1 1 3 2 0 0 2 -
p56
aVScottie Pippen CHI 05/21/1989 CHI @ DET W 45 14 5 13 38.5 0 3 0.0 4 6 66.7 1 10 11 6 0 2 0 4 -
p57
aVDave Corzine CHI 05/21/1989 CHI @ DET W 21 12 6 12 50.0 0 0 - 0 0 - 4 1 5 0 2 0 1 0 -
p58
aVCharlie Davis CHI 05/21/1989 CHI @ DET W 20 8 3 5 60.0 0 1 0.0 2 2 100.0 2 1 3 0 0 0 3 5 -
p59
aVBrad Sellers CHI 05/19/1989 CHI vs. NYK W 13 4 2 6 33.3 0 0 - 0 0 - 1 0 1 2 0 0 1 4 -
p60
aVBill Cartwright CHI 05/19/1989 CHI vs. NYK W 41 16 7 10 70.0 0 0 - 2 4 50.0 2 6 8 3 1 1 1 5 -
p61
aVCharlie Davis CHI 05/19/1989 CHI vs. NYK W 2 0 0 0 - 0 0 - 0 0 - 0 0 0 0 0 0 1 0 -
p62
aVCraig Hodges CHI 05/19/1989 CHI vs. NYK W 39 15 6 11 54.5 3 6 50.0 0 0 - 0 1 1 6 2 0 1 3 -
p63
aVJohn Paxson CHI 05/19/1989 CHI vs. NYK W 23 8 4 7 57.1 0 1 0.0 0 0 - 0 0 0 0 3 0 1 4 -
p64
aVHorace Grant CHI 05/19/1989 CHI vs. NYK W 43 11 3 6 50.0 0 0 - 5 5 100.0 2 5 7 3 1 2 2 4 -
p65
aVSam Vincent CHI 05/19/1989 CHI vs. NYK W 1 0 0 0 - 0 0 - 0 0 - 0 0 0 0 1 0 0 0 -
p66
aVDave Corzine CHI 05/19/1989 CHI vs. NYK W 6 0 0 2 0.0 0 0 - 0 0 - 0 1 1 1 0 0 0 0 -
p67
aVScottie Pippen CHI 05/19/1989 CHI vs. NYK W 27 19 6 7 85.7 4 4 100.0 3 4 75.0 1 3 4 2 2 3 2 4 -
p68
aVMichael Jordan CHI 05/19/1989 CHI vs. NYK W 45 40 14 22 63.6 1 3 33.3 11 12 91.7 1 4 5 10 0 4 6 3 -
p69
aVBrad Sellers CHI 05/16/1989 CHI @ NYK L 2 0 0 0 - 0 0 - 0 2 0.0 1 0 1 0 0 0 0 0 -
p70
aVCraig Hodges CHI 05/16/1989 CHI @ NYK L 27 5 2 6 33.3 1 2 50.0 0 0 - 0 0 0 3 2 0 2 1 -
p71
aVBill Cartwright CHI 05/16/1989 CHI @ NYK L 33 12 4 10 40.0 0 0 - 4 4 100.0 2 4 6 2 2 0 2 6 -
p72
aVHorace Grant CHI 05/16/1989 CHI @ NYK L 30 16 6 9 66.7 0 0 - 4 5 80.0 2 3 5 0 0 0 0 5 -
p73
aVJohn Paxson CHI 05/16/1989 CHI @ NYK L 30 12 4 9 44.4 2 5 40.0 2 3 66.7 1 0 1 4 2 0 1 1 -
p74
aVMichael Jordan CHI 05/16/1989 CHI @ NYK L 43 38 13 30 43.3 1 3 33.3 11 15 73.3 5 3 8 10 5 1 3 2 -
p75
aVCharlie Davis CHI 05/16/1989 CHI @ NYK L 9 0 0 2 0.0 0 1 0.0 0 0 - 0 2 2 0 0 0 2 2 -
p76
aVScottie Pippen CHI 05/16/1989 CHI @ NYK L 44 17 8 13 61.5 1 3 33.3 0 0 - 3 6 9 3 1 0 3 3 -
p77
aVDave Corzine CHI 05/16/1989 CHI @ NYK L 22 14 4 6 66.7 0 0 - 6 6 100.0 0 3 3 3 0 1 0 4 -
p78
aVHorace Grant CHI 05/14/1989 CHI vs. NYK W 37 12 5 8 62.5 0 0 - 2 2 100.0 3 6 9 3 2 0 0 4 -
p79
aVJohn Paxson CHI 05/14/1989 CHI vs. NYK W 25 6 3 7 42.9 0 1 0.0 0 0 - 0 2 2 3 1 0 2 2 -
p80
aVSam Vincent CHI 05/14/1989 CHI vs. NYK W 2 0 0 0 - 0 0 - 0 0 - 0 0 0 0 0 0 0 0 -
p81
aVJack Haley CHI 05/14/1989 CHI vs. NYK W 1 0 0 0 - 0 0 - 0 0 - 0 0 0 0 0 0 0 0 -
p82
aVMichael Jordan CHI 05/14/1989 CHI vs. NYK W 42 47 12 18 66.7 0 1 0.0 23 28 82.1 0 11 11 6 1 2 6 3 -
p83
aVCharlie Davis CHI 05/14/1989 CHI vs. NYK W 12 4 1 2 50.0 0 0 - 2 2 100.0 1 1 2 0 0 0 0 0 -
p84
aVCraig Hodges CHI 05/14/1989 CHI vs. NYK W 30 2 0 8 0.0 0 2 0.0 2 4 50.0 1 1 2 5 2 0 1 3 -
p85
aVWill Perdue CHI 05/14/1989 CHI vs. NYK W 8 2 1 1 100.0 0 0 - 0 0 - 0 1 1 1 0 0 0 1 -
p86
aVScottie Pippen CHI 05/14/1989 CHI vs. NYK W 39 12 5 10 50.0 0 3 0.0 2 2 100.0 2 5 7 8 0 0 2 3 -
p87
aVBill Cartwright CHI 05/14/1989 CHI vs. NYK W 39 21 7 9 77.8 0 0 - 7 7 100.0 1 5 6 1 1 1 3 4 -
p88
aVBrad Sellers CHI 05/14/1989 CHI vs. NYK W 5 0 0 0 - 0 0 - 0 0 - 0 0 0 0 0 0 0 1 -
p89
aVScottie Pippen CHI 05/13/1989 CHI vs. NYK W 28 12 6 9 66.7 0 0 - 0 0 - 5 2 7 5 2 1 3 6 -
p90
aVSam Vincent CHI 05/13/1989 CHI vs. NYK W 6 2 1 3 33.3 0 0 - 0 0 - 1 0 1 1 0 1 0 0 -
p91
aVCharlie Davis CHI 05/13/1989 CHI vs. NYK W 26 7 3 8 37.5 0 0 - 1 3 33.3 3 2 5 2 0 0 0 4 -
p92
aVBrad Sellers CHI 05/13/1989 CHI vs. NYK W 14 4 2 8 25.0 0 0 - 0 0 - 5 0 5 1 0 0 1 2 -
p93
aVHorace Grant CHI 05/13/1989 CHI vs. NYK W 35 15 7 10 70.0 0 0 - 1 1 100.0 3 8 11 3 0 0 4 3 -
p94
aVWill Perdue CHI 05/13/1989 CHI vs. NYK W 3 0 0 0 - 0 0 - 0 0 - 0 2 2 1 0 0 0 0 -
p95
aVBill Cartwright CHI 05/13/1989 CHI vs. NYK W 27 9 4 6 66.7 0 0 - 1 4 25.0 1 3 4 1 1 1 3 5 -
p96
aVJohn Paxson CHI 05/13/1989 CHI vs. NYK W 15 7 3 6 50.0 1 1 100.0 0 0 - 1 0 1 2 0 0 2 3 -
p97
aVCraig Hodges CHI 05/13/1989 CHI vs. NYK W 35 11 4 12 33.3 1 5 20.0 2 2 100.0 0 1 1 6 1 0 0 2 -
p98
aVMichael Jordan CHI 05/13/1989 CHI vs. NYK W 39 40 14 25 56.0 1 2 50.0 11 13 84.6 2 13 15 9 6 1 3 3 -
p99
aVJack Haley CHI 05/13/1989 CHI vs. NYK W 3 3 1 2 50.0 0 0 - 1 2 50.0 0 0 0 0 0 0 0 0 -
p100
aVDave Corzine CHI 05/13/1989 CHI vs. NYK W 9 1 0 1 0.0 0 0 - 1 2 50.0 2 1 3 0 0 0 2 2 -
p101
aVWill Perdue CHI 05/11/1989 CHI @ NYK L 11 12 5 8 62.5 0 1 0.0 2 3 66.7 3 0 3 0 0 0 0 3 -
p102
aVJack Haley CHI 05/11/1989 CHI @ NYK L 1 2 1 1 100.0 0 0 - 0 0 - 0 1 1 1 0 0 0 0 -
p103
aVBrad Sellers CHI 05/11/1989 CHI @ NYK L 7 2 1 4 25.0 0 0 - 0 0 - 1 0 1 3 0 0 0 0 -
p104
aVCharlie Davis CHI 05/11/1989 CHI @ NYK L 26 10 4 11 36.4 0 1 0.0 2 2 100.0 4 5 9 2 4 0 2 3 -
p105
aVScottie Pippen CHI 05/11/1989 CHI @ NYK L 37 14 5 13 38.5 2 4 50.0 2 2 100.0 2 4 6 5 1 0 6 5 -
p106
aVBill Cartwright CHI 05/11/1989 CHI @ NYK L 30 12 5 8 62.5 0 0 - 2 2 100.0 0 5 5 0 0 1 4 4 -
p107
aVJohn Paxson CHI 05/11/1989 CHI @ NYK L 22 16 5 8 62.5 1 3 33.3 5 5 100.0 0 0 0 3 0 0 2 0 -
p108
aVDave Corzine CHI 05/11/1989 CHI @ NYK L 3 0 0 0 - 0 0 - 0 0 - 0 0 0 0 0 0 1 0 -
p109
aVSam Vincent CHI 05/11/1989 CHI @ NYK L 2 1 0 0 - 0 0 - 1 2 50.0 0 0 0 0 0 0 0 0 -
p110
aVMichael Jordan CHI 05/11/1989 CHI @ NYK L 34 15 7 17 41.2 0 2 0.0 1 4 25.0 2 6 8 3 1 0 1 4 -
p111
aVCraig Hodges CHI 05/11/1989 CHI @ NYK L 39 10 4 11 36.4 2 7 28.6 0 0 - 0 0 0 4 2 0 1 2 -
p112
aVHorace Grant CHI 05/11/1989 CHI @ NYK L 28 3 0 4 0.0 0 0 - 3 4 75.0 1 4 5 0 0 1 1 4 -
p113
aVCharlie Davis CHI 05/09/1989 CHI @ NYK W 10 2 1 2 50.0 0 0 - 0 0 - 1 3 4 1 0 0 3 1 -
p114
aVMichael Jordan CHI 05/09/1989 CHI @ NYK W 46 34 11 17 64.7 1 2 50.0 11 11 100.0 2 8 10 12 2 0 6 5 -
p115
aVSam Vincent CHI 05/09/1989 CHI @ NYK W 14 2 0 3 0.0 0 0 - 2 2 100.0 0 1 1 0 0 0 2 1 -
p116
aVCraig Hodges CHI 05/09/1989 CHI @ NYK W 39 24 10 18 55.6 4 10 40.0 0 0 - 0 4 4 1 3 1 1 3 -
p117
aVScottie Pippen CHI 05/09/1989 CHI @ NYK W 42 15 6 10 60.0 1 2 50.0 2 2 100.0 1 8 9 6 0 0 2 2 -
p118
aVBrad Sellers CHI 05/09/1989 CHI @ NYK W 12 4 2 6 33.3 0 0 - 0 0 - 1 1 2 0 1 0 0 1 -
p119
aVBill Cartwright CHI 05/09/1989 CHI @ NYK W 42 18 5 12 41.7 0 0 - 8 13 61.5 6 8 14 4 0 1 6 5 -
p120
aVDave Corzine CHI 05/09/1989 CHI @ NYK W 10 2 1 2 50.0 0 0 - 0 0 - 0 1 1 0 0 1 0 1 -
p121
aVJohn Paxson CHI 05/09/1989 CHI @ NYK W 6 0 0 0 - 0 0 - 0 0 - 0 0 0 2 0 0 0 1 -
p122
aVHorace Grant CHI 05/09/1989 CHI @ NYK W 44 19 6 13 46.2 0 0 - 7 8 87.5 2 7 9 3 0 1 1 4 -
p123
aVHorace Grant CHI 05/07/1989 CHI @ CLE W 28 12 6 10 60.0 0 0 - 0 0 - 3 2 5 1 1 0 3 6 -
p124
aVSam Vincent CHI 05/07/1989 CHI @ CLE W 8 2 1 1 100.0 0 0 - 0 0 - 0 0 0 2 0 0 0 0 -
p125
aVCharlie Davis CHI 05/07/1989 CHI @ CLE W 4 0 0 0 - 0 0 - 0 0 - 0 0 0 0 0 0 0 0 -
p126
aVCraig Hodges CHI 05/07/1989 CHI @ CLE W 42 10 4 12 33.3 2 4 50.0 0 0 - 2 0 2 4 2 0 3 4 -
p127
aVDave Corzine CHI 05/07/1989 CHI @ CLE W 16 2 1 4 25.0 0 0 - 0 0 - 0 3 3 1 0 0 0 0 -
p128
aVBrad Sellers CHI 05/07/1989 CHI @ CLE W 25 2 1 3 33.3 0 0 - 0 0 - 1 2 3 3 0 1 1 3 -
p129
aVBill Cartwright CHI 05/07/1989 CHI @ CLE W 31 16 6 7 85.7 0 0 - 4 5 80.0 3 2 5 1 2 1 3 4 -
p130
aVMichael Jordan CHI 05/07/1989 CHI @ CLE W 44 44 17 32 53.1 1 1 100.0 9 13 69.2 3 6 9 6 1 0 2 3 -
p131
aVScottie Pippen CHI 05/07/1989 CHI @ CLE W 42 13 4 14 28.6 2 6 33.3 3 8 37.5 1 9 10 2 1 1 1 4 -
p132
aVHorace Grant CHI 05/05/1989 CHI vs. CLE L 47 7 3 7 42.9 0 0 - 1 4 25.0 6 10 16 3 2 1 0 5 -
p133
aVScottie Pippen CHI 05/05/1989 CHI vs. CLE L 44 15 5 12 41.7 2 4 50.0 3 4 75.0 5 3 8 5 3 2 2 4 -
p134
aVBrad Sellers CHI 05/05/1989 CHI vs. CLE L 13 8 3 6 50.0 0 0 - 2 2 100.0 0 3 3 0 0 1 0 1 -
p135
aVJohn Paxson CHI 05/05/1989 CHI vs. CLE L 15 0 0 1 0.0 0 0 - 0 0 - 0 0 0 3 0 0 1 0 -
p136
aVSam Vincent CHI 05/05/1989 CHI vs. CLE L 14 2 1 6 16.7 0 0 - 0 0 - 0 0 0 3 1 0 1 1 -
p137
aVMichael Jordan CHI 05/05/1989 CHI vs. CLE L 43 50 14 28 50.0 0 1 0.0 22 27 81.5 0 3 3 4 3 0 1 6 -
p138
aVCharlie Davis CHI 05/05/1989 CHI vs. CLE L 3 0 0 1 0.0 0 1 0.0 0 0 - 0 1 1 0 0 0 0 1 -
p139
aVBill Cartwright CHI 05/05/1989 CHI vs. CLE L 39 12 5 10 50.0 0 0 - 2 3 66.7 3 10 13 0 0 1 2 5 -
p140
aVDave Corzine CHI 05/05/1989 CHI vs. CLE L 13 5 2 5 40.0 0 0 - 1 1 100.0 1 0 1 1 0 0 0 2 -
p141
aVCraig Hodges CHI 05/05/1989 CHI vs. CLE L 34 6 2 8 25.0 0 3 0.0 2 2 100.0 1 1 2 5 0 1 1 5 -
p142
aVBill Cartwright CHI 05/03/1989 CHI vs. CLE W 27 9 3 11 27.3 0 0 - 3 6 50.0 5 3 8 3 0 0 1 3 -
p143
aVCraig Hodges CHI 05/03/1989 CHI vs. CLE W 39 12 5 8 62.5 2 4 50.0 0 0 - 0 0 0 3 2 0 0 1 -
p144
aVJohn Paxson CHI 05/03/1989 CHI vs. CLE W 8 0 0 1 0.0 0 0 - 0 0 - 0 1 1 0 0 0 1 0 -
p145
aVHorace Grant CHI 05/03/1989 CHI vs. CLE W 45 8 4 9 44.4 0 0 - 0 0 - 5 12 17 5 1 2 0 4 -
p146
aVScottie Pippen CHI 05/03/1989 CHI vs. CLE W 33 7 3 8 37.5 0 4 0.0 1 3 33.3 1 10 11 6 2 0 3 5 -
p147
aVMichael Jordan CHI 05/03/1989 CHI vs. CLE W 39 44 18 34 52.9 1 1 100.0 7 9 77.8 2 5 7 10 5 1 5 4 -
p148
aVSam Vincent CHI 05/03/1989 CHI vs. CLE W 10 4 2 4 50.0 0 0 - 0 0 - 0 0 0 3 0 0 1 1 -
p149
aVCharlie Davis CHI 05/03/1989 CHI vs. CLE W 1 0 0 1 0.0 0 0 - 0 0 - 0 0 0 0 0 0 0 0 -
p150
aVDave Corzine CHI 05/03/1989 CHI vs. CLE W 21 9 4 8 50.0 0 0 - 1 2 50.0 2 3 5 1 0 0 0 2 -
p151
aVBrad Sellers CHI 05/03/1989 CHI vs. CLE W 17 8 4 7 57.1 0 0 - 0 0 - 0 2 2 0 1 1 1 3 -
p152
aVCraig Hodges CHI 04/30/1989 CHI @ CLE L 27 9 4 11 36.4 1 4 25.0 0 0 - 0 0 0 3 1 0 2 4 -
p153
aVCharlie Davis CHI 04/30/1989 CHI @ CLE L 9 3 1 3 33.3 1 2 50.0 0 0 - 1 2 3 0 0 0 0 1 -
p154
aVBill Cartwright CHI 04/30/1989 CHI @ CLE L 34 10 4 8 50.0 0 0 - 2 2 100.0 3 5 8 1 0 0 2 5 -
p155
aVJack Haley CHI 04/30/1989 CHI @ CLE L 1 0 0 0 - 0 0 - 0 0 - 0 0 0 0 0 0 0 0 -
p156
aVSam Vincent CHI 04/30/1989 CHI @ CLE L 8 2 1 2 50.0 0 0 - 0 0 - 0 1 1 2 1 0 0 3 -
p157
aVScottie Pippen CHI 04/30/1989 CHI @ CLE L 43 18 6 18 33.3 3 7 42.9 3 5 60.0 5 3 8 5 2 1 3 5 -
p158
aVMichael Jordan CHI 04/30/1989 CHI @ CLE L 44 30 10 22 45.5 0 1 0.0 10 10 100.0 3 2 5 10 2 0 7 2 -
p159
aVHorace Grant CHI 04/30/1989 CHI @ CLE L 42 12 6 12 50.0 0 0 - 0 0 - 2 12 14 0 0 2 4 3 -
p160
aVDave Corzine CHI 04/30/1989 CHI @ CLE L 14 0 0 2 0.0 0 0 - 0 0 - 0 2 2 0 2 0 2 2 -
p161
aVJohn Paxson CHI 04/30/1989 CHI @ CLE L 18 4 2 4 50.0 0 1 0.0 0 0 - 0 0 0 1 0 0 0 3 -
p162
aVCharlie Davis CHI 04/28/1989 CHI @ CLE W 7 0 0 0 - 0 0 - 0 0 - 0 0 0 0 0 0 0 1 -
p163
aVBrad Sellers CHI 04/28/1989 CHI @ CLE W 6 0 0 0 - 0 0 - 0 0 - 0 0 0 1 0 0 1 1 -
p164
aVMichael Jordan CHI 04/28/1989 CHI @ CLE W 40 31 12 21 57.1 0 1 0.0 7 8 87.5 0 5 5 11 4 1 6 5 -
p165
aVSam Vincent CHI 04/28/1989 CHI @ CLE W 12 2 1 4 25.0 0 0 - 0 0 - 2 2 4 1 0 0 0 0 -
p166
aVHorace Grant CHI 04/28/1989 CHI @ CLE W 41 13 5 9 55.6 0 0 - 3 4 75.0 4 9 13 3 2 1 1 3 -
p167
aVJohn Paxson CHI 04/28/1989 CHI @ CLE W 17 6 3 6 50.0 0 0 - 0 0 - 0 0 0 0 0 0 0 0 -
p168
aVCraig Hodges CHI 04/28/1989 CHI @ CLE W 29 15 5 12 41.7 3 4 75.0 2 2 100.0 0 2 2 4 3 0 1 6 -
p169
aVBill Cartwright CHI 04/28/1989 CHI @ CLE W 32 2 1 6 16.7 0 0 - 0 0 - 1 7 8 1 2 0 3 4 -
p170
aVScottie Pippen CHI 04/28/1989 CHI @ CLE W 40 22 7 11 63.6 4 4 100.0 4 4 100.0 1 5 6 2 0 0 5 3 -
p171
aVDave Corzine CHI 04/28/1989 CHI @ CLE W 16 4 2 5 40.0 0 0 - 0 0 - 1 1 2 1 0 0 1 5 -
p172
a.