(lp0
VPLAYER TEAM DATE MATCHUP W/L MIN PTS FGM FGA FG% 3PM 3PA 3P% FTM FTA FT% OREB DREB REB AST STL BLK TOV PF +/-
p1
aVKevin McHale BOS 05/02/1989 BOS vs. DET L 41 17 6 12 50.0 0 0 - 5 5 100.0 1 5 6 3 0 2 3 3 -
p2
aVOtis Birdsong BOS 05/02/1989 BOS vs. DET L 1 0 0 1 0.0 0 1 0.0 0 0 - 0 0 0 0 0 0 0 0 -
p3
aVReggie Lewis BOS 05/02/1989 BOS vs. DET L 35 20 8 14 57.1 0 0 - 4 4 100.0 2 7 9 1 1 0 5 5 -
p4
aVDennis Johnson BOS 05/02/1989 BOS vs. DET L 25 6 3 9 33.3 0 0 - 0 0 - 1 1 2 3 2 0 1 2 -
p5
aVJoe Kleine BOS 05/02/1989 BOS vs. DET L 33 7 3 6 50.0 0 1 0.0 1 2 50.0 3 8 11 1 0 0 2 3 -
p6
aVRobert Parish BOS 05/02/1989 BOS vs. DET L 29 4 2 12 16.7 0 0 - 0 0 - 1 5 6 3 1 0 2 1 -
p7
aVKelvin Upshaw BOS 05/02/1989 BOS vs. DET L 12 8 4 7 57.1 0 0 - 0 0 - 0 1 1 2 1 0 0 3 -
p8
aVEd Pinckney BOS 05/02/1989 BOS vs. DET L 23 8 3 6 50.0 0 0 - 2 2 100.0 1 1 2 0 1 1 1 3 -
p9
aVBrian Shaw BOS 05/02/1989 BOS vs. DET L 40 15 6 16 37.5 0 0 - 3 4 75.0 0 3 3 7 2 0 1 3 -
p10
aVMark Acres BOS 05/02/1989 BOS vs. DET L 1 0 0 1 0.0 0 1 0.0 0 0 - 0 1 1 0 0 0 0 0 -
p11
aVEd Pinckney BOS 04/30/1989 BOS @ DET L 9 0 0 1 0.0 0 0 - 0 0 - 0 2 2 1 0 0 2 2 -
p12
aVJoe Kleine BOS 04/30/1989 BOS @ DET L 26 12 3 4 75.0 0 0 - 6 7 85.7 1 5 6 1 0 1 4 5 -
p13
aVOtis Birdsong BOS 04/30/1989 BOS @ DET L 9 0 0 2 0.0 0 1 0.0 0 0 - 0 1 1 0 0 0 2 1 -
p14
aVDennis Johnson BOS 04/30/1989 BOS @ DET L 22 2 1 5 20.0 0 0 - 0 0 - 1 1 2 5 1 0 0 5 -
p15
aVReggie Lewis BOS 04/30/1989 BOS @ DET L 45 21 10 21 47.6 0 1 0.0 1 2 50.0 2 7 9 5 1 0 1 4 -
p16
aVKevin McHale BOS 04/30/1989 BOS @ DET L 40 13 4 13 30.8 0 0 - 5 8 62.5 4 7 11 3 1 0 1 5 -
p17
aVKelvin Upshaw BOS 04/30/1989 BOS @ DET L 6 2 1 2 50.0 0 0 - 0 0 - 0 0 0 2 0 0 0 1 -
p18
aVRobert Parish BOS 04/30/1989 BOS @ DET L 41 25 11 19 57.9 0 0 - 3 4 75.0 2 6 8 2 3 1 3 4 -
p19
aVBrian Shaw BOS 04/30/1989 BOS @ DET L 42 20 8 14 57.1 0 1 0.0 4 4 100.0 1 5 6 4 0 0 2 4 -
p20
aVKelvin Upshaw BOS 04/28/1989 BOS @ DET L 6 0 0 3 0.0 0 0 - 0 0 - 0 1 1 1 0 0 1 0 -
p21
aVMark Acres BOS 04/28/1989 BOS @ DET L 1 0 0 0 - 0 0 - 0 0 - 0 0 0 0 0 0 0 0 -
p22
aVJoe Kleine BOS 04/28/1989 BOS @ DET L 6 0 0 1 0.0 0 0 - 0 0 - 0 0 0 0 0 0 0 1 -
p23
aVKevin Gamble BOS 04/28/1989 BOS @ DET L 29 8 4 11 36.4 0 1 0.0 0 2 0.0 1 0 1 2 1 0 0 1 -
p24
aVOtis Birdsong BOS 04/28/1989 BOS @ DET L 10 2 1 2 50.0 0 0 - 0 0 - 0 1 1 1 1 1 1 2 -
p25
aVReggie Lewis BOS 04/28/1989 BOS @ DET L 45 20 8 20 40.0 0 1 0.0 4 7 57.1 1 2 3 5 3 0 2 2 -
p26
aVKevin McHale BOS 04/28/1989 BOS @ DET L 34 27 10 16 62.5 0 0 - 7 10 70.0 2 5 7 3 0 0 0 5 -
p27
aVRobert Parish BOS 04/28/1989 BOS @ DET L 42 18 7 13 53.8 0 0 - 4 5 80.0 3 9 12 1 0 1 1 0 -
p28
aVBrian Shaw BOS 04/28/1989 BOS @ DET L 42 16 8 13 61.5 0 0 - 0 1 0.0 1 7 8 8 1 0 3 4 -
p29
aVDennis Johnson BOS 04/28/1989 BOS @ DET L 12 0 0 1 0.0 0 0 - 0 0 - 0 0 0 1 0 0 2 1 -
p30
aVEd Pinckney BOS 04/28/1989 BOS @ DET L 13 0 0 5 0.0 0 0 - 0 0 - 1 0 1 0 0 0 1 2 -
p31
a.