(lp0
VPLAYER TEAM DATE MATCHUP W/L MIN PTS FGM FGA FG% 3PM 3PA 3P% FTM FTA FT% OREB DREB REB AST STL BLK TOV PF +/-
p1
aVJohn Stockton UTH 05/02/1989 UTH @ GOS L 47 34 13 20 65.0 1 2 50.0 7 8 87.5 0 3 3 16 6 2 5 5 -
p2
aVThurl Bailey UTH 05/02/1989 UTH @ GOS L 31 3 1 7 14.3 0 0 - 1 1 100.0 1 7 8 1 0 1 2 5 -
p3
aVDarrell Griffith UTH 05/02/1989 UTH @ GOS L 30 21 9 19 47.4 3 7 42.9 0 0 - 2 4 6 0 1 1 2 4 -
p4
aVMarc Iavaroni UTH 05/02/1989 UTH @ GOS L 1 0 0 1 0.0 0 1 0.0 0 0 - 0 0 0 0 0 0 0 1 -
p5
aVBob Hansen UTH 05/02/1989 UTH @ GOS L 42 7 3 14 21.4 1 3 33.3 0 0 - 2 7 9 1 0 0 2 5 -
p6
aVJim Les UTH 05/02/1989 UTH @ GOS L 1 0 0 0 - 0 0 - 0 0 - 0 0 0 1 0 0 0 0 -
p7
aVMark Eaton UTH 05/02/1989 UTH @ GOS L 33 6 2 6 33.3 0 0 - 2 2 100.0 3 4 7 1 0 0 3 1 -
p8
aVEric Leckner UTH 05/02/1989 UTH @ GOS L 3 2 1 1 100.0 0 0 - 0 0 - 0 0 0 0 0 0 0 1 -
p9
aVJim Farmer UTH 05/02/1989 UTH @ GOS L 2 0 0 1 0.0 0 0 - 0 0 - 0 0 0 0 0 0 0 0 -
p10
aVMike Brown UTH 05/02/1989 UTH @ GOS L 5 0 0 1 0.0 0 0 - 0 0 - 0 1 1 0 0 0 0 2 -
p11
aVKarl Malone UTH 05/02/1989 UTH @ GOS L 45 33 13 26 50.0 0 0 - 7 10 70.0 4 10 14 2 1 0 2 6 -
p12
aVBob Hansen UTH 04/29/1989 UTH vs. GOS L 40 15 3 11 27.3 1 4 25.0 8 10 80.0 1 1 2 1 0 0 2 5 -
p13
aVJim Farmer UTH 04/29/1989 UTH vs. GOS L 1 0 0 1 0.0 0 1 0.0 0 0 - 0 0 0 0 0 0 0 0 -
p14
aVJim Les UTH 04/29/1989 UTH vs. GOS L 2 0 0 0 - 0 0 - 0 0 - 0 0 0 0 0 0 0 1 -
p15
aVMark Eaton UTH 04/29/1989 UTH vs. GOS L 37 8 3 6 50.0 0 0 - 2 3 66.7 3 11 14 0 1 1 3 3 -
p16
aVJohn Stockton UTH 04/29/1989 UTH vs. GOS L 46 18 6 18 33.3 0 0 - 6 6 100.0 1 4 5 11 3 2 4 5 -
p17
aVThurl Bailey UTH 04/29/1989 UTH vs. GOS L 47 6 3 10 30.0 0 0 - 0 0 - 5 2 7 2 0 2 3 3 -
p18
aVDarrell Griffith UTH 04/29/1989 UTH vs. GOS L 17 7 3 7 42.9 1 4 25.0 0 0 - 0 0 0 0 0 0 1 1 -
p19
aVEric Leckner UTH 04/29/1989 UTH vs. GOS L 5 0 0 1 0.0 0 0 - 0 0 - 0 1 1 0 0 0 2 0 -
p20
aVKarl Malone UTH 04/29/1989 UTH vs. GOS L 45 37 13 25 52.0 0 0 - 11 14 78.6 11 11 22 1 1 1 4 5 -
p21
aVDarrell Griffith UTH 04/27/1989 UTH vs. GOS L 24 18 8 23 34.8 2 8 25.0 0 0 - 1 5 6 0 3 0 2 2 -
p22
aVMark Eaton UTH 04/27/1989 UTH vs. GOS L 29 11 3 5 60.0 0 0 - 5 6 83.3 5 7 12 0 0 1 1 2 -
p23
aVThurl Bailey UTH 04/27/1989 UTH vs. GOS L 44 27 8 17 47.1 0 0 - 11 14 78.6 4 6 10 0 1 1 4 3 -
p24
aVKarl Malone UTH 04/27/1989 UTH vs. GOS L 46 22 7 15 46.7 0 0 - 8 8 100.0 7 6 13 1 1 0 7 5 -
p25
aVJohn Stockton UTH 04/27/1989 UTH vs. GOS L 46 30 11 21 52.4 2 2 100.0 6 7 85.7 1 1 2 14 2 1 2 5 -
p26
aVEric Leckner UTH 04/27/1989 UTH vs. GOS L 2 0 0 2 0.0 0 0 - 0 0 - 1 0 1 0 0 0 1 1 -
p27
aVBob Hansen UTH 04/27/1989 UTH vs. GOS L 41 11 5 10 50.0 1 2 50.0 0 0 - 2 4 6 2 1 2 2 5 -
p28
aVMike Brown UTH 04/27/1989 UTH vs. GOS L 6 0 0 1 0.0 0 0 - 0 0 - 0 1 1 0 0 0 0 1 -
p29
aVJim Les UTH 04/27/1989 UTH vs. GOS L 2 0 0 0 - 0 0 - 0 0 - 0 0 0 0 0 0 1 1 -
p30
a.