(lp0
VPLAYER TEAM DATE MATCHUP W/L MIN PTS FGM FGA FG% 3PM 3PA 3P% FTM FTA FT% OREB DREB REB AST STL BLK TOV PF +/-
p1
aVTony Brown MIL 05/15/1989 MIL vs. DET L 28 2 1 4 25.0 0 0 - 0 0 - 1 3 4 2 1 0 0 2 -
p2
aVRicky Pierce MIL 05/15/1989 MIL vs. DET L 33 21 9 17 52.9 0 0 - 3 4 75.0 0 4 4 1 1 0 0 2 -
p3
aVSidney Moncrief MIL 05/15/1989 MIL vs. DET L 26 6 2 7 28.6 0 0 - 2 3 66.7 1 2 3 2 2 0 1 0 -
p4
aVJay Humphries MIL 05/15/1989 MIL vs. DET L 38 12 4 10 40.0 0 0 - 4 4 100.0 1 1 2 14 0 0 1 0 -
p5
aVJack Sikma MIL 05/15/1989 MIL vs. DET L 44 12 4 11 36.4 1 2 50.0 3 4 75.0 0 4 4 2 2 1 1 2 -
p6
aVRandy Breuer MIL 05/15/1989 MIL vs. DET L 25 8 4 8 50.0 0 0 - 0 2 0.0 3 6 9 3 2 0 0 4 -
p7
aVFred Roberts MIL 05/15/1989 MIL vs. DET L 46 33 12 19 63.2 0 0 - 9 11 81.8 3 1 4 2 0 0 4 5 -
p8
aVTony Brown MIL 05/14/1989 MIL vs. DET L 21 2 0 3 0.0 0 1 0.0 2 2 100.0 0 1 1 2 0 0 0 0 -
p9
aVSidney Moncrief MIL 05/14/1989 MIL vs. DET L 16 5 1 3 33.3 0 1 0.0 3 3 100.0 1 1 2 0 0 0 0 2 -
p10
aVJack Sikma MIL 05/14/1989 MIL vs. DET L 36 6 2 13 15.4 0 2 0.0 2 2 100.0 3 4 7 2 0 0 1 4 -
p11
aVJay Humphries MIL 05/14/1989 MIL vs. DET L 31 16 7 14 50.0 0 0 - 2 2 100.0 4 2 6 5 2 0 1 4 -
p12
aVRandy Breuer MIL 05/14/1989 MIL vs. DET L 25 6 2 4 50.0 0 0 - 2 4 50.0 2 6 8 0 0 1 0 2 -
p13
aVRicky Pierce MIL 05/14/1989 MIL vs. DET L 36 22 11 20 55.0 0 0 - 0 0 - 1 3 4 4 2 0 2 4 -
p14
aVFred Roberts MIL 05/14/1989 MIL vs. DET L 38 18 7 14 50.0 0 0 - 4 4 100.0 1 4 5 3 1 0 2 1 -
p15
aVTerry Cummings MIL 05/14/1989 MIL vs. DET L 17 4 2 8 25.0 0 1 0.0 0 0 - 1 1 2 0 1 0 1 4 -
p16
aVRickey Green MIL 05/14/1989 MIL vs. DET L 19 11 5 7 71.4 1 1 100.0 0 0 - 0 3 3 3 1 0 3 3 -
p17
aVLarry Krystkowiak MIL 05/14/1989 MIL vs. DET L 1 0 0 0 - 0 0 - 0 0 - 0 0 0 0 0 0 0 0 -
p18
aVJack Sikma MIL 05/12/1989 MIL @ DET L 18 4 1 3 33.3 0 1 0.0 2 2 100.0 0 2 2 2 0 2 2 6 -
p19
aVFred Roberts MIL 05/12/1989 MIL @ DET L 35 12 3 10 30.0 0 1 0.0 6 6 100.0 1 3 4 2 0 0 1 2 -
p20
aVRandy Breuer MIL 05/12/1989 MIL @ DET L 31 5 1 3 33.3 0 0 - 3 5 60.0 2 10 12 0 0 2 0 1 -
p21
aVSidney Moncrief MIL 05/12/1989 MIL @ DET L 11 5 2 4 50.0 1 1 100.0 0 0 - 0 1 1 0 0 0 2 3 -
p22
aVRicky Pierce MIL 05/12/1989 MIL @ DET L 36 22 9 17 52.9 2 4 50.0 2 2 100.0 0 1 1 2 1 0 1 3 -
p23
aVRickey Green MIL 05/12/1989 MIL @ DET L 15 4 1 4 25.0 0 1 0.0 2 2 100.0 0 1 1 6 0 0 0 1 -
p24
aVLarry Krystkowiak MIL 05/12/1989 MIL @ DET L 43 22 4 13 30.8 0 2 0.0 14 16 87.5 6 7 13 1 0 0 2 2 -
p25
aVJay Humphries MIL 05/12/1989 MIL @ DET L 34 11 5 13 38.5 0 4 0.0 1 2 50.0 0 4 4 5 1 0 1 3 -
p26
aVTony Brown MIL 05/12/1989 MIL @ DET L 17 7 3 4 75.0 0 0 - 1 2 50.0 1 1 2 1 1 0 1 6 -
p27
aVJack Sikma MIL 05/10/1989 MIL @ DET L 35 15 5 14 35.7 2 5 40.0 3 4 75.0 0 5 5 3 0 0 2 5 -
p28
aVPaul Mokeski MIL 05/10/1989 MIL @ DET L 11 1 0 0 - 0 0 - 1 2 50.0 1 2 3 0 0 0 0 4 -
p29
aVRicky Pierce MIL 05/10/1989 MIL @ DET L 29 25 11 19 57.9 0 0 - 3 6 50.0 0 2 2 1 1 0 1 2 -
p30
aVRandy Breuer MIL 05/10/1989 MIL @ DET L 15 2 1 2 50.0 0 0 - 0 0 - 0 3 3 0 0 1 1 0 -
p31
aVJay Humphries MIL 05/10/1989 MIL @ DET L 32 10 4 8 50.0 1 2 50.0 1 2 50.0 1 3 4 6 0 0 1 4 -
p32
aVRickey Green MIL 05/10/1989 MIL @ DET L 16 0 0 2 0.0 0 0 - 0 0 - 0 0 0 3 2 0 0 1 -
p33
aVFred Roberts MIL 05/10/1989 MIL @ DET L 48 13 5 12 41.7 0 1 0.0 3 4 75.0 0 4 4 4 0 1 1 4 -
p34
aVLarry Krystkowiak MIL 05/10/1989 MIL @ DET L 32 8 3 7 42.9 0 0 - 2 2 100.0 2 2 4 0 0 0 1 4 -
p35
aVSidney Moncrief MIL 05/10/1989 MIL @ DET L 22 6 3 6 50.0 0 0 - 0 0 - 3 3 6 1 0 0 1 1 -
p36
aVTony Brown MIL 05/07/1989 MIL @ ATL W 1 0 0 0 - 0 0 - 0 0 - 0 0 0 1 0 0 0 0 -
p37
aVJay Humphries MIL 05/07/1989 MIL @ ATL W 31 15 4 7 57.1 0 1 0.0 7 8 87.5 0 4 4 6 1 0 1 3 -
p38
aVSidney Moncrief MIL 05/07/1989 MIL @ ATL W 15 6 2 3 66.7 0 0 - 2 2 100.0 1 1 2 1 1 1 3 1 -
p39
aVFred Roberts MIL 05/07/1989 MIL @ ATL W 46 18 6 15 40.0 0 0 - 6 6 100.0 2 4 6 2 2 1 1 2 -
p40
aVRandy Breuer MIL 05/07/1989 MIL @ ATL W 13 4 2 4 50.0 0 0 - 0 0 - 0 2 2 1 0 0 0 2 -
p41
aVPaul Mokeski MIL 05/07/1989 MIL @ ATL W 25 11 4 7 57.1 1 1 100.0 2 3 66.7 3 3 6 3 0 0 1 4 -
p42
aVLarry Krystkowiak MIL 05/07/1989 MIL @ ATL W 24 2 1 7 14.3 0 0 - 0 0 - 0 4 4 1 1 0 4 4 -
p43
aVRicky Pierce MIL 05/07/1989 MIL @ ATL W 33 25 9 15 60.0 2 2 100.0 5 6 83.3 1 4 5 1 1 0 1 4 -
p44
aVRickey Green MIL 05/07/1989 MIL @ ATL W 17 6 2 6 33.3 0 0 - 2 2 100.0 2 2 4 2 0 0 0 0 -
p45
aVJack Sikma MIL 05/07/1989 MIL @ ATL W 35 9 3 12 25.0 1 5 20.0 2 2 100.0 3 6 9 1 1 0 2 5 -
p46
aVSidney Moncrief MIL 05/05/1989 MIL vs. ATL L 21 10 4 8 50.0 0 2 0.0 2 2 100.0 1 4 5 0 0 0 2 1 -
p47
aVLarry Krystkowiak MIL 05/05/1989 MIL vs. ATL L 47 18 8 15 53.3 0 0 - 2 2 100.0 3 7 10 2 0 0 2 1 -
p48
aVJay Humphries MIL 05/05/1989 MIL vs. ATL L 48 16 5 15 33.3 0 2 0.0 6 6 100.0 1 1 2 15 2 0 1 5 -
p49
aVRandy Breuer MIL 05/05/1989 MIL vs. ATL L 8 2 1 2 50.0 0 0 - 0 2 0.0 0 0 0 0 0 0 0 1 -
p50
aVFred Roberts MIL 05/05/1989 MIL vs. ATL L 38 8 4 7 57.1 0 0 - 0 0 - 0 2 2 2 1 0 1 6 -
p51
aVJack Sikma MIL 05/05/1989 MIL vs. ATL L 44 24 10 16 62.5 0 2 0.0 4 5 80.0 0 6 6 5 0 0 4 5 -
p52
aVRicky Pierce MIL 05/05/1989 MIL vs. ATL L 38 22 7 18 38.9 0 0 - 8 8 100.0 2 2 4 5 3 1 1 6 -
p53
aVTerry Cummings MIL 05/05/1989 MIL vs. ATL L 6 2 1 3 33.3 0 0 - 0 0 - 0 1 1 0 0 0 0 1 -
p54
aVPaul Mokeski MIL 05/05/1989 MIL vs. ATL L 8 4 1 1 100.0 0 0 - 2 2 100.0 1 0 1 0 0 0 0 5 -
p55
aVTony Brown MIL 05/05/1989 MIL vs. ATL L 1 0 0 0 - 0 0 - 0 0 - 0 0 0 0 0 0 0 1 -
p56
aVRickey Green MIL 05/05/1989 MIL vs. ATL L 6 0 0 3 0.0 0 0 - 0 0 - 0 0 0 2 0 0 0 0 -
p57
aVJack Sikma MIL 05/02/1989 MIL vs. ATL W 32 11 5 10 50.0 1 3 33.3 0 0 - 1 5 6 4 2 1 3 4 -
p58
aVFred Roberts MIL 05/02/1989 MIL vs. ATL W 35 9 2 4 50.0 0 0 - 5 6 83.3 0 3 3 3 0 1 1 3 -
p59
aVRandy Breuer MIL 05/02/1989 MIL vs. ATL W 18 4 2 4 50.0 0 0 - 0 0 - 1 1 2 0 0 0 0 2 -
p60
aVTerry Cummings MIL 05/02/1989 MIL vs. ATL W 39 18 7 21 33.3 0 0 - 4 4 100.0 8 6 14 3 0 0 1 4 -
p61
aVSidney Moncrief MIL 05/02/1989 MIL vs. ATL W 22 5 1 6 16.7 1 2 50.0 2 2 100.0 0 2 2 3 1 1 0 2 -
p62
aVRickey Green MIL 05/02/1989 MIL vs. ATL W 14 4 2 5 40.0 0 0 - 0 0 - 1 0 1 1 2 0 0 1 -
p63
aVLarry Krystkowiak MIL 05/02/1989 MIL vs. ATL W 31 12 5 11 45.5 0 0 - 2 2 100.0 2 3 5 5 0 1 2 3 -
p64
aVRicky Pierce MIL 05/02/1989 MIL vs. ATL W 32 35 13 17 76.5 2 2 100.0 7 7 100.0 1 0 1 5 1 0 1 5 -
p65
aVJay Humphries MIL 05/02/1989 MIL vs. ATL W 39 19 7 10 70.0 1 3 33.3 4 4 100.0 0 2 2 10 1 0 2 4 -
p66
aVPaul Mokeski MIL 05/02/1989 MIL vs. ATL W 3 0 0 2 0.0 0 0 - 0 0 - 1 0 1 0 0 0 0 0 -
p67
aVJack Sikma MIL 04/29/1989 MIL @ ATL W 29 13 4 8 50.0 2 6 33.3 3 3 100.0 0 6 6 7 2 0 3 4 -
p68
aVRicky Pierce MIL 04/29/1989 MIL @ ATL W 32 20 6 11 54.5 0 0 - 8 8 100.0 0 3 3 4 1 0 1 3 -
p69
aVTerry Cummings MIL 04/29/1989 MIL @ ATL W 27 22 9 16 56.3 0 0 - 4 4 100.0 4 4 8 3 2 0 1 4 -
p70
aVFred Roberts MIL 04/29/1989 MIL @ ATL W 31 12 6 11 54.5 0 0 - 0 0 - 3 3 6 1 1 1 2 2 -
p71
aVRandy Breuer MIL 04/29/1989 MIL @ ATL W 13 2 1 1 100.0 0 0 - 0 0 - 0 2 2 0 0 1 0 4 -
p72
aVRickey Green MIL 04/29/1989 MIL @ ATL W 13 4 2 2 100.0 0 0 - 0 0 - 0 1 1 0 0 0 1 2 -
p73
aVTony Brown MIL 04/29/1989 MIL @ ATL W 1 0 0 0 - 0 0 - 0 0 - 0 0 0 0 0 0 0 0 -
p74
aVJay Humphries MIL 04/29/1989 MIL @ ATL W 30 12 4 9 44.4 0 2 0.0 4 4 100.0 1 0 1 5 0 0 1 2 -
p75
aVLarry Krystkowiak MIL 04/29/1989 MIL @ ATL W 29 10 3 4 75.0 0 0 - 4 5 80.0 0 2 2 1 1 0 3 5 -
p76
aVPaul Mokeski MIL 04/29/1989 MIL @ ATL W 14 7 3 4 75.0 0 0 - 1 1 100.0 2 4 6 0 0 0 1 3 -
p77
aVSidney Moncrief MIL 04/29/1989 MIL @ ATL W 21 6 1 6 16.7 0 0 - 4 4 100.0 1 3 4 0 0 0 1 4 -
p78
aVLarry Krystkowiak MIL 04/27/1989 MIL @ ATL L 32 13 5 11 45.5 0 0 - 3 4 75.0 1 6 7 2 0 0 2 3 -
p79
aVJay Humphries MIL 04/27/1989 MIL @ ATL L 40 20 9 13 69.2 1 4 25.0 1 2 50.0 0 2 2 4 1 0 3 4 -
p80
aVRandy Breuer MIL 04/27/1989 MIL @ ATL L 14 6 3 4 75.0 0 0 - 0 0 - 1 1 2 1 0 1 1 1 -
p81
aVTerry Cummings MIL 04/27/1989 MIL @ ATL L 35 18 6 21 28.6 0 0 - 6 8 75.0 6 2 8 1 0 0 1 3 -
p82
aVJack Sikma MIL 04/27/1989 MIL @ ATL L 28 11 3 7 42.9 1 2 50.0 4 6 66.7 2 3 5 4 1 0 3 6 -
p83
aVFred Roberts MIL 04/27/1989 MIL @ ATL L 28 9 4 8 50.0 0 1 0.0 1 3 33.3 1 4 5 1 0 0 0 4 -
p84
aVRickey Green MIL 04/27/1989 MIL @ ATL L 10 0 0 0 - 0 0 - 0 0 - 0 3 3 1 0 0 0 1 -
p85
aVSidney Moncrief MIL 04/27/1989 MIL @ ATL L 30 6 3 5 60.0 0 1 0.0 0 0 - 0 1 1 6 1 0 1 3 -
p86
aVRicky Pierce MIL 04/27/1989 MIL @ ATL L 23 9 2 7 28.6 0 0 - 5 6 83.3 0 1 1 2 0 1 1 2 -
p87
a.