(lp0
VPLAYER TEAM DATE MATCHUP W/L MIN PTS FGM FGA FG% 3PM 3PA 3P% FTM FTA FT% OREB DREB REB AST STL BLK TOV PF +/-
p1
aVSteve Johnson POR 05/03/1989 POR vs. LAL L 8 2 1 2 50.0 0 0 - 0 0 - 0 1 1 0 0 0 0 2 -
p2
aVClyde Drexler POR 05/03/1989 POR vs. LAL L 44 25 11 22 50.0 0 0 - 3 4 75.0 3 5 8 6 4 1 7 4 -
p3
aVKevin Duckworth POR 05/03/1989 POR vs. LAL L 31 16 8 14 57.1 0 0 - 0 2 0.0 3 4 7 1 1 0 3 6 -
p4
aVJerome Kersey POR 05/03/1989 POR vs. LAL L 34 16 5 11 45.5 0 0 - 6 8 75.0 3 2 5 3 2 0 2 4 -
p5
aVDanny Young POR 05/03/1989 POR vs. LAL L 22 12 4 8 50.0 3 6 50.0 1 2 50.0 0 4 4 5 0 0 1 0 -
p6
aVTerry Porter POR 05/03/1989 POR vs. LAL L 44 29 12 18 66.7 4 6 66.7 1 2 50.0 3 1 4 9 0 0 1 3 -
p7
aVRichard Anderson POR 05/03/1989 POR vs. LAL L 16 0 0 1 0.0 0 1 0.0 0 0 - 0 0 0 0 0 1 0 1 -
p8
aVCaldwell Jones POR 05/03/1989 POR vs. LAL L 23 4 2 3 66.7 0 0 - 0 0 - 1 4 5 0 0 2 1 4 -
p9
aVSam Bowie POR 05/03/1989 POR vs. LAL L 18 4 1 7 14.3 0 0 - 2 2 100.0 3 1 4 1 0 1 1 2 -
p10
aVClyde Drexler POR 04/30/1989 POR @ LAL L 39 28 10 22 45.5 0 2 0.0 8 9 88.9 6 2 8 10 2 0 3 3 -
p11
aVDanny Young POR 04/30/1989 POR @ LAL L 23 10 5 11 45.5 0 0 - 0 0 - 1 2 3 4 1 0 1 1 -
p12
aVJerry Sichting POR 04/30/1989 POR @ LAL L 11 0 0 3 0.0 0 0 - 0 0 - 0 1 1 1 0 0 0 1 -
p13
aVTerry Porter POR 04/30/1989 POR @ LAL L 41 21 8 16 50.0 0 2 0.0 5 6 83.3 1 3 4 6 1 0 2 3 -
p14
aVJerome Kersey POR 04/30/1989 POR @ LAL L 44 21 8 19 42.1 0 1 0.0 5 5 100.0 5 6 11 1 3 1 2 5 -
p15
aVSteve Johnson POR 04/30/1989 POR @ LAL L 9 0 0 2 0.0 0 0 - 0 0 - 0 1 1 0 0 0 2 2 -
p16
aVCaldwell Jones POR 04/30/1989 POR @ LAL L 11 0 0 0 - 0 0 - 0 0 - 1 2 3 0 0 0 1 0 -
p17
aVKevin Duckworth POR 04/30/1989 POR @ LAL L 31 13 4 13 30.8 0 0 - 5 8 62.5 4 1 5 1 0 1 1 5 -
p18
aVSam Bowie POR 04/30/1989 POR @ LAL L 28 12 5 14 35.7 0 1 0.0 2 2 100.0 6 5 11 0 0 4 2 2 -
p19
aVRichard Anderson POR 04/30/1989 POR @ LAL L 3 0 0 1 0.0 0 1 0.0 0 0 - 0 0 0 1 0 0 0 0 -
p20
aVCaldwell Jones POR 04/27/1989 POR @ LAL L 16 0 0 0 - 0 0 - 0 0 - 0 0 0 0 0 1 1 2 -
p21
aVAdrian Branch POR 04/27/1989 POR @ LAL L 5 2 0 3 0.0 0 0 - 2 2 100.0 0 1 1 2 0 0 0 0 -
p22
aVClyde Drexler POR 04/27/1989 POR @ LAL L 45 30 14 27 51.9 0 0 - 2 4 50.0 4 0 4 9 0 1 2 4 -
p23
aVSam Bowie POR 04/27/1989 POR @ LAL L 21 15 6 7 85.7 1 1 100.0 2 4 50.0 1 4 5 2 0 2 0 4 -
p24
aVJerome Kersey POR 04/27/1989 POR @ LAL L 39 24 10 17 58.8 0 1 0.0 4 6 66.7 3 5 8 3 5 0 0 3 -
p25
aVDanny Young POR 04/27/1989 POR @ LAL L 21 6 3 7 42.9 0 2 0.0 0 0 - 1 0 1 3 0 0 0 1 -
p26
aVTerry Porter POR 04/27/1989 POR @ LAL L 39 16 6 18 33.3 0 3 0.0 4 4 100.0 2 6 8 10 0 1 4 2 -
p27
aVRichard Anderson POR 04/27/1989 POR @ LAL L 16 5 2 4 50.0 1 2 50.0 0 0 - 0 3 3 3 0 0 0 1 -
p28
aVSteve Johnson POR 04/27/1989 POR @ LAL L 17 5 1 4 25.0 0 0 - 3 3 100.0 1 3 4 0 2 0 1 3 -
p29
aVKevin Duckworth POR 04/27/1989 POR @ LAL L 21 5 2 8 25.0 0 0 - 1 1 100.0 1 4 5 0 0 0 1 6 -
p30
a.