(lp0
VPLAYER TEAM DATE MATCHUP W/L MIN PTS FGM FGA FG% 3PM 3PA 3P% FTM FTA FT% OREB DREB REB AST STL BLK TOV PF +/-
p1
aVSedale Threatt SEA 05/14/1989 SEA vs. LAL L 19 0 0 5 0.0 0 0 - 0 0 - 0 1 1 3 2 0 2 3 -
p2
aVXavier McDaniel SEA 05/14/1989 SEA vs. LAL L 40 30 11 25 44.0 2 2 100.0 6 9 66.7 4 7 11 5 0 0 1 5 -
p3
aVJerry Reynolds SEA 05/14/1989 SEA vs. LAL L 4 0 0 2 0.0 0 2 0.0 0 0 - 0 0 0 0 0 0 1 1 -
p4
aVDerrick McKey SEA 05/14/1989 SEA vs. LAL L 43 26 10 16 62.5 0 1 0.0 6 7 85.7 5 4 9 3 1 3 4 5 -
p5
aVMichael Cage SEA 05/14/1989 SEA vs. LAL L 13 0 0 0 - 0 0 - 0 4 0.0 1 2 3 0 0 1 1 0 -
p6
aVAvery Johnson SEA 05/14/1989 SEA vs. LAL L 1 0 0 0 - 0 0 - 0 0 - 0 0 0 0 0 0 0 0 -
p7
aVDale Ellis SEA 05/14/1989 SEA vs. LAL L 42 28 9 24 37.5 2 7 28.6 8 11 72.7 4 3 7 1 2 0 1 3 -
p8
aVNate McMillan SEA 05/14/1989 SEA vs. LAL L 39 4 2 6 33.3 0 1 0.0 0 0 - 1 2 3 8 1 0 1 2 -
p9
aVOlden Polynice SEA 05/14/1989 SEA vs. LAL L 25 6 3 7 42.9 0 0 - 0 0 - 4 3 7 0 0 1 0 4 -
p10
aVAlton Lister SEA 05/14/1989 SEA vs. LAL L 14 1 0 3 0.0 0 0 - 1 2 50.0 1 3 4 0 0 1 2 2 -
p11
aVJohn Lucas SEA 05/12/1989 SEA vs. LAL L 3 0 0 2 0.0 0 0 - 0 0 - 0 0 0 0 0 0 0 0 -
p12
aVOlden Polynice SEA 05/12/1989 SEA vs. LAL L 14 2 1 4 25.0 0 0 - 0 2 0.0 3 2 5 0 1 1 0 3 -
p13
aVAvery Johnson SEA 05/12/1989 SEA vs. LAL L 7 1 0 2 0.0 0 0 - 1 2 50.0 1 0 1 1 0 0 0 1 -
p14
aVMichael Cage SEA 05/12/1989 SEA vs. LAL L 22 0 0 1 0.0 0 0 - 0 0 - 1 4 5 1 1 0 0 2 -
p15
aVXavier McDaniel SEA 05/12/1989 SEA vs. LAL L 40 20 10 27 37.0 0 2 0.0 0 2 0.0 4 8 12 1 2 1 2 5 -
p16
aVDale Ellis SEA 05/12/1989 SEA vs. LAL L 41 30 13 27 48.1 1 5 20.0 3 5 60.0 6 2 8 0 2 1 7 1 -
p17
aVSedale Threatt SEA 05/12/1989 SEA vs. LAL L 32 10 5 13 38.5 0 1 0.0 0 0 - 0 2 2 9 6 0 1 3 -
p18
aVNate McMillan SEA 05/12/1989 SEA vs. LAL L 16 2 1 2 50.0 0 1 0.0 0 0 - 0 1 1 3 0 0 0 1 -
p19
aVJerry Reynolds SEA 05/12/1989 SEA vs. LAL L 9 3 1 4 25.0 0 0 - 1 2 50.0 1 1 2 0 0 1 1 2 -
p20
aVDerrick McKey SEA 05/12/1989 SEA vs. LAL L 39 15 6 17 35.3 1 3 33.3 2 2 100.0 6 5 11 2 1 4 1 5 -
p21
aVAlton Lister SEA 05/12/1989 SEA vs. LAL L 17 3 1 4 25.0 0 0 - 1 2 50.0 1 4 5 0 0 2 0 4 -
p22
aVSedale Threatt SEA 05/10/1989 SEA @ LAL L 24 10 3 6 50.0 0 0 - 4 4 100.0 0 0 0 9 1 0 2 3 -
p23
aVJerry Reynolds SEA 05/10/1989 SEA @ LAL L 12 14 4 6 66.7 1 1 100.0 5 6 83.3 0 0 0 0 2 2 0 1 -
p24
aVJohn Lucas SEA 05/10/1989 SEA @ LAL L 13 6 3 7 42.9 0 0 - 0 0 - 0 0 0 3 0 0 1 2 -
p25
aVDale Ellis SEA 05/10/1989 SEA @ LAL L 28 14 5 12 41.7 2 5 40.0 2 2 100.0 0 0 0 1 0 0 2 1 -
p26
aVRuss Schoene SEA 05/10/1989 SEA @ LAL L 24 8 3 9 33.3 0 2 0.0 2 2 100.0 2 1 3 1 2 0 0 3 -
p27
aVAvery Johnson SEA 05/10/1989 SEA @ LAL L 12 6 3 5 60.0 0 2 0.0 0 0 - 0 1 1 2 0 0 0 0 -
p28
aVDerrick McKey SEA 05/10/1989 SEA @ LAL L 34 7 3 10 30.0 0 0 - 1 1 100.0 1 2 3 0 1 0 1 6 -
p29
aVNate McMillan SEA 05/10/1989 SEA @ LAL L 6 0 0 1 0.0 0 0 - 0 2 0.0 0 1 1 1 0 0 0 1 -
p30
aVXavier McDaniel SEA 05/10/1989 SEA @ LAL L 28 17 7 17 41.2 1 3 33.3 2 2 100.0 3 5 8 5 0 0 3 3 -
p31
aVAlton Lister SEA 05/10/1989 SEA @ LAL L 16 9 3 5 60.0 0 0 - 3 4 75.0 2 2 4 0 1 2 1 3 -
p32
aVMichael Cage SEA 05/10/1989 SEA @ LAL L 20 9 4 5 80.0 0 0 - 1 4 25.0 4 3 7 1 1 0 1 2 -
p33
aVOlden Polynice SEA 05/10/1989 SEA @ LAL L 23 8 4 6 66.7 0 0 - 0 0 - 4 3 7 1 2 0 2 5 -
p34
aVDale Ellis SEA 05/07/1989 SEA @ LAL L 42 19 6 15 40.0 2 3 66.7 5 5 100.0 0 1 1 3 0 0 6 3 -
p35
aVOlden Polynice SEA 05/07/1989 SEA @ LAL L 21 11 5 6 83.3 0 0 - 1 2 50.0 5 5 10 0 1 0 0 6 -
p36
aVDerrick McKey SEA 05/07/1989 SEA @ LAL L 43 23 11 16 68.8 0 1 0.0 1 1 100.0 3 3 6 3 1 3 4 3 -
p37
aVAvery Johnson SEA 05/07/1989 SEA @ LAL L 1 0 0 0 - 0 0 - 0 0 - 0 0 0 1 1 0 0 0 -
p38
aVSedale Threatt SEA 05/07/1989 SEA @ LAL L 28 9 4 11 36.4 0 0 - 1 2 50.0 1 2 3 6 1 0 1 5 -
p39
aVMichael Cage SEA 05/07/1989 SEA @ LAL L 24 6 3 8 37.5 0 0 - 0 2 0.0 4 3 7 1 1 1 0 2 -
p40
aVXavier McDaniel SEA 05/07/1989 SEA @ LAL L 34 15 7 11 63.6 0 0 - 1 2 50.0 1 2 3 1 0 0 5 5 -
p41
aVNate McMillan SEA 05/07/1989 SEA @ LAL L 28 11 3 5 60.0 0 0 - 5 7 71.4 2 1 3 12 0 0 3 4 -
p42
aVAlton Lister SEA 05/07/1989 SEA @ LAL L 19 8 2 6 33.3 0 0 - 4 4 100.0 2 6 8 0 0 1 2 3 -
p43
aVNate McMillan SEA 05/05/1989 SEA @ HOU W 34 6 1 4 25.0 0 0 - 4 4 100.0 2 3 5 10 3 1 7 3 -
p44
aVAlton Lister SEA 05/05/1989 SEA @ HOU W 17 4 1 4 25.0 0 0 - 2 2 100.0 0 3 3 0 0 1 0 4 -
p45
aVMichael Cage SEA 05/05/1989 SEA @ HOU W 33 12 5 10 50.0 0 0 - 2 6 33.3 4 3 7 0 2 0 1 1 -
p46
aVXavier McDaniel SEA 05/05/1989 SEA @ HOU W 38 17 7 18 38.9 0 1 0.0 3 4 75.0 4 6 10 4 0 0 4 4 -
p47
aVDale Ellis SEA 05/05/1989 SEA @ HOU W 38 26 9 21 42.9 4 4 100.0 4 7 57.1 3 3 6 1 3 0 3 2 -
p48
aVOlden Polynice SEA 05/05/1989 SEA @ HOU W 21 6 3 5 60.0 0 0 - 0 0 - 2 9 11 0 0 1 1 4 -
p49
aVDerrick McKey SEA 05/05/1989 SEA @ HOU W 38 15 6 11 54.5 0 3 0.0 3 4 75.0 2 7 9 4 1 1 6 4 -
p50
aVSedale Threatt SEA 05/05/1989 SEA @ HOU W 21 12 4 7 57.1 0 0 - 4 5 80.0 0 2 2 6 2 0 1 3 -
p51
aVJerry Reynolds SEA 05/03/1989 SEA @ HOU L 15 5 2 10 20.0 0 1 0.0 1 2 50.0 0 3 3 1 0 3 2 2 -
p52
aVAvery Johnson SEA 05/03/1989 SEA @ HOU L 9 4 2 4 50.0 0 1 0.0 0 0 - 1 1 2 1 3 0 0 0 -
p53
aVDerrick McKey SEA 05/03/1989 SEA @ HOU L 27 6 2 5 40.0 0 0 - 2 2 100.0 1 1 2 2 0 2 3 4 -
p54
aVSedale Threatt SEA 05/03/1989 SEA @ HOU L 25 17 7 17 41.2 0 1 0.0 3 3 100.0 2 1 3 4 3 0 1 2 -
p55
aVOlden Polynice SEA 05/03/1989 SEA @ HOU L 28 13 4 6 66.7 0 0 - 5 5 100.0 4 4 8 0 1 0 0 5 -
p56
aVMichael Cage SEA 05/03/1989 SEA @ HOU L 17 10 4 5 80.0 0 0 - 2 2 100.0 3 7 10 1 0 0 4 1 -
p57
aVNate McMillan SEA 05/03/1989 SEA @ HOU L 27 15 5 8 62.5 0 0 - 5 8 62.5 2 5 7 10 3 4 3 4 -
p58
aVXavier McDaniel SEA 05/03/1989 SEA @ HOU L 23 7 1 9 11.1 0 1 0.0 5 5 100.0 1 4 5 1 0 1 2 3 -
p59
aVDale Ellis SEA 05/03/1989 SEA @ HOU L 32 26 12 22 54.5 1 5 20.0 1 1 100.0 1 0 1 1 1 0 0 1 -
p60
aVJohn Lucas SEA 05/03/1989 SEA @ HOU L 7 1 0 2 0.0 0 1 0.0 1 2 50.0 0 1 1 2 0 0 1 2 -
p61
aVRuss Schoene SEA 05/03/1989 SEA @ HOU L 14 3 0 6 0.0 0 4 0.0 3 4 75.0 1 1 2 1 0 0 0 4 -
p62
aVAlton Lister SEA 05/03/1989 SEA @ HOU L 16 0 0 3 0.0 0 0 - 0 0 - 1 2 3 0 0 1 0 4 -
p63
aVSedale Threatt SEA 04/30/1989 SEA vs. HOU W 25 16 6 10 60.0 0 1 0.0 4 4 100.0 0 1 1 6 2 0 1 1 -
p64
aVOlden Polynice SEA 04/30/1989 SEA vs. HOU W 16 6 3 5 60.0 0 0 - 0 0 - 3 7 10 0 1 1 2 3 -
p65
aVAvery Johnson SEA 04/30/1989 SEA vs. HOU W 1 0 0 1 0.0 0 1 0.0 0 0 - 0 0 0 0 0 0 0 0 -
p66
aVDale Ellis SEA 04/30/1989 SEA vs. HOU W 42 15 6 17 35.3 3 7 42.9 0 0 - 0 2 2 2 1 0 0 2 -
p67
aVNate McMillan SEA 04/30/1989 SEA vs. HOU W 22 8 3 7 42.9 0 0 - 2 2 100.0 2 1 3 8 1 0 3 1 -
p68
aVJohn Lucas SEA 04/30/1989 SEA vs. HOU W 14 4 2 6 33.3 0 2 0.0 0 0 - 0 0 0 3 0 0 0 1 -
p69
aVAlton Lister SEA 04/30/1989 SEA vs. HOU W 30 20 7 8 87.5 0 0 - 6 6 100.0 3 2 5 0 0 5 1 4 -
p70
aVXavier McDaniel SEA 04/30/1989 SEA vs. HOU W 36 20 7 19 36.8 0 0 - 6 8 75.0 1 6 7 1 0 2 3 2 -
p71
aVDerrick McKey SEA 04/30/1989 SEA vs. HOU W 25 2 1 4 25.0 0 0 - 0 0 - 1 4 5 3 0 0 3 4 -
p72
aVRuss Schoene SEA 04/30/1989 SEA vs. HOU W 5 2 1 2 50.0 0 1 0.0 0 0 - 0 0 0 0 0 0 0 0 -
p73
aVMichael Cage SEA 04/30/1989 SEA vs. HOU W 24 16 7 8 87.5 0 0 - 2 2 100.0 3 2 5 0 2 1 1 2 -
p74
aVSedale Threatt SEA 04/28/1989 SEA vs. HOU W 27 22 10 13 76.9 1 1 100.0 1 2 50.0 0 1 1 6 0 0 2 2 -
p75
aVDerrick McKey SEA 04/28/1989 SEA vs. HOU W 37 12 5 10 50.0 0 1 0.0 2 4 50.0 2 5 7 1 1 2 1 2 -
p76
aVMichael Cage SEA 04/28/1989 SEA vs. HOU W 22 4 1 3 33.3 0 1 0.0 2 2 100.0 2 0 2 1 0 0 0 4 -
p77
aVXavier McDaniel SEA 04/28/1989 SEA vs. HOU W 42 24 8 18 44.4 0 0 - 8 9 88.9 6 5 11 4 0 1 2 3 -
p78
aVDale Ellis SEA 04/28/1989 SEA vs. HOU W 39 25 12 22 54.5 0 1 0.0 1 2 50.0 0 7 7 1 2 0 2 6 -
p79
aVOlden Polynice SEA 04/28/1989 SEA vs. HOU W 14 5 2 2 100.0 0 0 - 1 4 25.0 2 2 4 0 0 0 0 2 -
p80
aVAlton Lister SEA 04/28/1989 SEA vs. HOU W 31 11 3 6 50.0 0 0 - 5 6 83.3 3 3 6 2 1 8 3 4 -
p81
aVNate McMillan SEA 04/28/1989 SEA vs. HOU W 28 8 4 7 57.1 0 0 - 0 2 0.0 0 2 2 11 2 0 2 5 -
p82
a.