(lp0
VPLAYER TEAM DATE MATCHUP W/L MIN PTS FGM FGA FG% 3PM 3PA 3P% FTM FTA FT% OREB DREB REB AST STL BLK TOV PF +/-
p1
aVJames Worthy LAL 06/13/1989 LAL vs. DET L 46 40 17 26 65.4 2 3 66.7 4 6 66.7 0 3 3 3 0 3 1 3 -
p2
aVOrlando Woolridge LAL 06/13/1989 LAL vs. DET L 25 13 4 7 57.1 0 0 - 5 6 83.3 1 6 7 3 0 1 1 3 -
p3
aVMychal Thompson LAL 06/13/1989 LAL vs. DET L 24 11 3 10 30.0 0 0 - 5 6 83.3 3 4 7 1 0 0 0 3 -
p4
aVDavid Rivers LAL 06/13/1989 LAL vs. DET L 12 2 1 5 20.0 0 0 - 0 0 - 0 1 1 2 0 0 2 3 -
p5
aVA.C. Green LAL 06/13/1989 LAL vs. DET L 38 6 2 5 40.0 0 1 0.0 2 4 50.0 3 9 12 0 1 0 0 3 -
p6
aVTony Campbell LAL 06/13/1989 LAL vs. DET L 14 6 2 3 66.7 0 0 - 2 2 100.0 2 1 3 2 0 0 1 6 -
p7
aVMark McNamara LAL 06/13/1989 LAL vs. DET L 1 0 0 0 - 0 0 - 0 0 - 0 0 0 0 0 0 0 0 -
p8
aVMichael Cooper LAL 06/13/1989 LAL vs. DET L 46 11 4 14 28.6 1 7 14.3 2 3 66.7 0 3 3 9 2 0 0 4 -
p9
aVJeff Lamp LAL 06/13/1989 LAL vs. DET L 5 1 0 1 0.0 0 0 - 1 2 50.0 0 1 1 0 0 0 0 2 -
p10
aVKareem Abdul-Jabbar LAL 06/13/1989 LAL vs. DET L 29 7 2 8 25.0 0 0 - 3 4 75.0 1 2 3 3 0 2 2 3 -
p11
aVMagic Johnson LAL 06/11/1989 LAL vs. DET L 5 0 0 2 0.0 0 0 - 0 0 - 0 0 0 1 0 0 0 0 -
p12
aVOrlando Woolridge LAL 06/11/1989 LAL vs. DET L 18 9 3 4 75.0 0 0 - 3 4 75.0 0 4 4 1 0 0 1 2 -
p13
aVMychal Thompson LAL 06/11/1989 LAL vs. DET L 22 8 3 6 50.0 0 0 - 2 3 66.7 2 1 3 2 0 2 0 2 -
p14
aVMichael Cooper LAL 06/11/1989 LAL vs. DET L 48 15 6 14 42.9 3 8 37.5 0 0 - 0 0 0 13 1 1 2 2 -
p15
aVDavid Rivers LAL 06/11/1989 LAL vs. DET L 11 6 2 6 33.3 0 2 0.0 2 3 66.7 0 1 1 2 0 0 2 3 -
p16
aVTony Campbell LAL 06/11/1989 LAL vs. DET L 23 11 3 4 75.0 0 1 0.0 5 7 71.4 0 1 1 1 1 0 2 5 -
p17
aVKareem Abdul-Jabbar LAL 06/11/1989 LAL vs. DET L 33 24 10 19 52.6 0 0 - 4 4 100.0 3 10 13 2 1 0 2 1 -
p18
aVA.C. Green LAL 06/11/1989 LAL vs. DET L 37 11 3 6 50.0 0 0 - 5 9 55.6 4 4 8 1 3 1 3 6 -
p19
aVJames Worthy LAL 06/11/1989 LAL vs. DET L 42 26 9 18 50.0 0 0 - 8 9 88.9 5 2 7 4 1 1 2 3 -
p20
aVJeff Lamp LAL 06/11/1989 LAL vs. DET L 1 0 0 0 - 0 0 - 0 0 - 0 0 0 0 0 0 0 0 -
p21
aVMichael Cooper LAL 06/08/1989 LAL @ DET L 44 19 6 12 50.0 4 8 50.0 3 3 100.0 1 0 1 4 3 1 0 3 -
p22
aVJeff Lamp LAL 06/08/1989 LAL @ DET L 1 0 0 0 - 0 0 - 0 0 - 0 0 0 0 0 0 1 0 -
p23
aVJames Worthy LAL 06/08/1989 LAL @ DET L 43 19 7 19 36.8 0 0 - 5 8 62.5 2 3 5 4 0 1 3 3 -
p24
aVKareem Abdul-Jabbar LAL 06/08/1989 LAL @ DET L 28 11 4 12 33.3 0 0 - 3 4 75.0 1 1 2 2 0 1 3 3 -
p25
aVMagic Johnson LAL 06/08/1989 LAL @ DET L 29 18 6 12 50.0 1 3 33.3 5 5 100.0 2 4 6 9 0 0 0 2 -
p26
aVA.C. Green LAL 06/08/1989 LAL @ DET L 34 10 3 6 50.0 0 2 0.0 4 4 100.0 2 7 9 0 0 0 2 3 -
p27
aVTony Campbell LAL 06/08/1989 LAL @ DET L 21 15 6 8 75.0 1 2 50.0 2 2 100.0 1 3 4 1 0 0 1 3 -
p28
aVOrlando Woolridge LAL 06/08/1989 LAL @ DET L 20 7 1 2 50.0 0 0 - 5 6 83.3 3 2 5 1 0 0 3 2 -
p29
aVMychal Thompson LAL 06/08/1989 LAL @ DET L 20 6 2 6 33.3 0 0 - 2 2 100.0 3 1 4 0 0 0 1 3 -
p30
aVJames Worthy LAL 06/06/1989 LAL @ DET L 39 17 6 18 33.3 0 0 - 5 8 62.5 0 2 2 3 1 1 1 1 -
p31
aVMychal Thompson LAL 06/06/1989 LAL @ DET L 37 15 5 8 62.5 0 0 - 5 11 45.5 4 1 5 0 1 0 1 4 -
p32
aVOrlando Woolridge LAL 06/06/1989 LAL @ DET L 24 9 3 5 60.0 0 0 - 3 3 100.0 1 4 5 1 0 1 1 4 -
p33
aVDavid Rivers LAL 06/06/1989 LAL @ DET L 3 4 1 1 100.0 0 0 - 2 2 100.0 0 1 1 1 0 0 0 0 -
p34
aVMichael Cooper LAL 06/06/1989 LAL @ DET L 25 3 1 5 20.0 1 4 25.0 0 0 - 0 2 2 1 1 0 0 5 -
p35
aVA.C. Green LAL 06/06/1989 LAL @ DET L 25 8 3 8 37.5 0 0 - 2 2 100.0 2 6 8 1 0 0 1 3 -
p36
aVTony Campbell LAL 06/06/1989 LAL @ DET L 25 12 4 9 44.4 0 0 - 4 6 66.7 0 2 2 0 2 0 2 5 -
p37
aVKareem Abdul-Jabbar LAL 06/06/1989 LAL @ DET L 14 8 4 7 57.1 0 0 - 0 0 - 0 2 2 0 1 0 1 4 -
p38
aVMagic Johnson LAL 06/06/1989 LAL @ DET L 41 17 6 12 50.0 0 2 0.0 5 6 83.3 1 4 5 14 3 0 5 2 -
p39
aVJeff Lamp LAL 06/06/1989 LAL @ DET L 4 4 2 2 100.0 0 0 - 0 0 - 0 0 0 0 0 0 0 0 -
p40
aVMark McNamara LAL 06/06/1989 LAL @ DET L 3 0 0 0 - 0 0 - 0 0 - 0 0 0 0 0 0 0 0 -
p41
aVMagic Johnson LAL 05/28/1989 LAL @ PHX W 41 21 6 11 54.5 1 2 50.0 8 8 100.0 0 6 6 20 3 1 6 2 -
p42
aVMychal Thompson LAL 05/28/1989 LAL @ PHX W 20 9 4 8 50.0 0 0 - 1 1 100.0 2 1 3 1 0 0 0 3 -
p43
aVMichael Cooper LAL 05/28/1989 LAL @ PHX W 25 8 2 4 50.0 2 4 50.0 2 2 100.0 0 3 3 3 1 2 1 1 -
p44
aVOrlando Woolridge LAL 05/28/1989 LAL @ PHX W 28 14 6 10 60.0 0 0 - 2 2 100.0 3 4 7 1 1 5 2 4 -
p45
aVJames Worthy LAL 05/28/1989 LAL @ PHX W 43 20 10 19 52.6 0 1 0.0 0 0 - 2 6 8 6 1 0 1 1 -
p46
aVKareem Abdul-Jabbar LAL 05/28/1989 LAL @ PHX W 10 2 1 6 16.7 0 0 - 0 0 - 0 3 3 0 0 0 1 5 -
p47
aVByron Scott LAL 05/28/1989 LAL @ PHX W 39 35 13 18 72.2 3 3 100.0 6 7 85.7 0 4 4 3 0 1 4 4 -
p48
aVA.C. Green LAL 05/28/1989 LAL @ PHX W 34 13 4 8 50.0 0 0 - 5 6 83.3 4 7 11 0 3 1 2 2 -
p49
aVA.C. Green LAL 05/26/1989 LAL @ PHX W 25 2 1 7 14.3 0 0 - 0 0 - 1 5 6 0 0 0 2 1 -
p50
aVByron Scott LAL 05/26/1989 LAL @ PHX W 35 10 4 10 40.0 0 1 0.0 2 3 66.7 3 0 3 1 0 0 2 5 -
p51
aVMichael Cooper LAL 05/26/1989 LAL @ PHX W 30 16 5 6 83.3 4 4 100.0 2 2 100.0 0 4 4 4 0 0 1 2 -
p52
aVKareem Abdul-Jabbar LAL 05/26/1989 LAL @ PHX W 25 15 6 14 42.9 0 0 - 3 4 75.0 2 2 4 1 1 1 0 1 -
p53
aVMagic Johnson LAL 05/26/1989 LAL @ PHX W 43 20 8 17 47.1 1 3 33.3 3 3 100.0 2 7 9 11 1 0 6 2 -
p54
aVJames Worthy LAL 05/26/1989 LAL @ PHX W 43 29 11 17 64.7 0 0 - 7 7 100.0 3 9 12 3 1 1 1 1 -
p55
aVMychal Thompson LAL 05/26/1989 LAL @ PHX W 22 13 4 8 50.0 0 0 - 5 6 83.3 2 5 7 0 1 2 0 5 -
p56
aVOrlando Woolridge LAL 05/26/1989 LAL @ PHX W 17 5 2 5 40.0 0 0 - 1 4 25.0 0 4 4 1 0 0 2 4 -
p57
aVMychal Thompson LAL 05/23/1989 LAL vs. PHX W 27 6 3 12 25.0 0 0 - 0 0 - 3 5 8 0 0 3 0 3 -
p58
aVA.C. Green LAL 05/23/1989 LAL vs. PHX W 24 4 2 8 25.0 0 0 - 0 0 - 2 6 8 7 1 0 3 1 -
p59
aVJames Worthy LAL 05/23/1989 LAL vs. PHX W 41 19 7 17 41.2 0 0 - 5 7 71.4 3 5 8 4 1 0 3 3 -
p60
aVKareem Abdul-Jabbar LAL 05/23/1989 LAL vs. PHX W 21 8 3 5 60.0 0 0 - 2 2 100.0 0 0 0 0 0 1 2 4 -
p61
aVOrlando Woolridge LAL 05/23/1989 LAL vs. PHX W 14 10 4 8 50.0 0 0 - 2 3 66.7 2 3 5 0 0 3 1 4 -
p62
aVByron Scott LAL 05/23/1989 LAL vs. PHX W 44 30 12 20 60.0 2 7 28.6 4 7 57.1 0 5 5 1 6 0 3 2 -
p63
aVMagic Johnson LAL 05/23/1989 LAL vs. PHX W 44 22 9 17 52.9 1 1 100.0 3 3 100.0 0 9 9 14 2 0 4 1 -
p64
aVMichael Cooper LAL 05/23/1989 LAL vs. PHX W 25 2 1 4 25.0 0 3 0.0 0 0 - 1 2 3 2 0 0 0 3 -
p65
aVByron Scott LAL 05/20/1989 LAL vs. PHX W 33 24 8 16 50.0 0 2 0.0 8 8 100.0 0 4 4 3 4 0 2 5 -
p66
aVMychal Thompson LAL 05/20/1989 LAL vs. PHX W 34 8 4 4 100.0 0 0 - 0 1 0.0 1 5 6 1 0 1 1 3 -
p67
aVJames Worthy LAL 05/20/1989 LAL vs. PHX W 41 32 13 22 59.1 0 1 0.0 6 7 85.7 1 4 5 4 0 3 4 1 -
p68
aVKareem Abdul-Jabbar LAL 05/20/1989 LAL vs. PHX W 17 6 3 5 60.0 0 0 - 0 0 - 0 1 1 2 0 0 1 3 -
p69
aVMichael Cooper LAL 05/20/1989 LAL vs. PHX W 25 8 3 7 42.9 1 3 33.3 1 2 50.0 1 3 4 8 0 0 2 3 -
p70
aVMagic Johnson LAL 05/20/1989 LAL vs. PHX W 31 18 6 13 46.2 0 1 0.0 6 7 85.7 0 3 3 12 3 0 4 6 -
p71
aVTony Campbell LAL 05/20/1989 LAL vs. PHX W 2 0 0 0 - 0 0 - 0 0 - 0 0 0 1 0 0 0 1 -
p72
aVOrlando Woolridge LAL 05/20/1989 LAL vs. PHX W 23 13 4 6 66.7 0 0 - 5 6 83.3 1 6 7 3 1 2 1 2 -
p73
aVA.C. Green LAL 05/20/1989 LAL vs. PHX W 34 18 8 9 88.9 0 0 - 2 3 66.7 2 8 10 3 1 2 1 0 -
p74
aVJames Worthy LAL 05/14/1989 LAL @ SEA W 42 33 15 19 78.9 1 1 100.0 2 2 100.0 4 3 7 1 1 0 0 3 -
p75
aVKareem Abdul-Jabbar LAL 05/14/1989 LAL @ SEA W 22 6 3 11 27.3 0 0 - 0 0 - 3 4 7 4 0 2 3 3 -
p76
aVOrlando Woolridge LAL 05/14/1989 LAL @ SEA W 17 5 0 2 0.0 0 0 - 5 6 83.3 1 4 5 1 0 1 3 3 -
p77
aVMichael Cooper LAL 05/14/1989 LAL @ SEA W 26 2 0 3 0.0 0 3 0.0 2 2 100.0 1 4 5 6 0 0 2 5 -
p78
aVTony Campbell LAL 05/14/1989 LAL @ SEA W 10 5 2 3 66.7 1 1 100.0 0 0 - 0 0 0 1 0 0 1 2 -
p79
aVByron Scott LAL 05/14/1989 LAL @ SEA W 21 2 1 9 11.1 0 1 0.0 0 0 - 2 2 4 0 1 0 1 1 -
p80
aVMychal Thompson LAL 05/14/1989 LAL @ SEA W 23 15 6 11 54.5 0 0 - 3 4 75.0 3 2 5 0 0 0 3 3 -
p81
aVMagic Johnson LAL 05/14/1989 LAL @ SEA W 39 17 4 12 33.3 0 4 0.0 9 10 90.0 2 7 9 9 0 2 3 1 -
p82
aVA.C. Green LAL 05/14/1989 LAL @ SEA W 40 12 3 9 33.3 0 0 - 6 8 75.0 3 7 10 0 2 1 1 3 -
p83
aVByron Scott LAL 05/12/1989 LAL @ SEA W 41 17 6 14 42.9 0 3 0.0 5 6 83.3 0 5 5 1 0 0 0 1 -
p84
aVMichael Cooper LAL 05/12/1989 LAL @ SEA W 15 5 0 4 0.0 0 2 0.0 5 6 83.3 0 0 0 1 0 1 2 3 -
p85
aVOrlando Woolridge LAL 05/12/1989 LAL @ SEA W 19 11 4 7 57.1 0 0 - 3 4 75.0 2 2 4 0 0 0 1 0 -
p86
aVMychal Thompson LAL 05/12/1989 LAL @ SEA W 23 12 5 8 62.5 0 0 - 2 3 66.7 1 4 5 0 0 2 2 4 -
p87
aVA.C. Green LAL 05/12/1989 LAL @ SEA W 37 8 2 11 18.2 0 0 - 4 7 57.1 0 8 8 1 2 0 1 3 -
p88
aVMagic Johnson LAL 05/12/1989 LAL @ SEA W 44 10 3 6 50.0 0 1 0.0 4 5 80.0 1 8 9 14 2 0 9 2 -
p89
aVKareem Abdul-Jabbar LAL 05/12/1989 LAL @ SEA W 21 8 2 3 66.7 0 0 - 4 4 100.0 0 1 1 2 0 0 1 2 -
p90
aVJames Worthy LAL 05/12/1989 LAL @ SEA W 40 20 10 16 62.5 0 0 - 0 0 - 3 3 6 1 1 1 4 1 -
p91
aVJames Worthy LAL 05/10/1989 LAL vs. SEA W 41 30 13 16 81.3 0 1 0.0 4 4 100.0 0 7 7 1 2 1 1 3 -
p92
aVOrlando Woolridge LAL 05/10/1989 LAL vs. SEA W 21 13 4 7 57.1 0 0 - 5 6 83.3 2 5 7 1 0 0 2 0 -
p93
aVMichael Cooper LAL 05/10/1989 LAL vs. SEA W 21 10 4 6 66.7 2 3 66.7 0 0 - 0 1 1 3 0 2 1 1 -
p94
aVMychal Thompson LAL 05/10/1989 LAL vs. SEA W 25 12 5 6 83.3 0 0 - 2 4 50.0 1 3 4 1 0 1 1 2 -
p95
aVByron Scott LAL 05/10/1989 LAL vs. SEA W 28 16 6 13 46.2 1 4 25.0 3 4 75.0 0 2 2 5 2 0 1 2 -
p96
aVMark McNamara LAL 05/10/1989 LAL vs. SEA W 3 3 1 2 50.0 0 0 - 1 2 50.0 0 1 1 0 0 0 0 0 -
p97
aVKareem Abdul-Jabbar LAL 05/10/1989 LAL vs. SEA W 19 10 3 5 60.0 0 0 - 4 4 100.0 1 4 5 1 0 0 0 4 -
p98
aVDavid Rivers LAL 05/10/1989 LAL vs. SEA W 5 3 0 0 - 0 0 - 3 3 100.0 1 0 1 1 0 0 0 0 -
p99
aVTony Campbell LAL 05/10/1989 LAL vs. SEA W 6 3 1 3 33.3 0 0 - 1 3 33.3 1 0 1 0 0 0 1 3 -
p100
aVA.C. Green LAL 05/10/1989 LAL vs. SEA W 30 16 4 7 57.1 0 0 - 8 8 100.0 4 4 8 2 1 0 0 2 -
p101
aVJeff Lamp LAL 05/10/1989 LAL vs. SEA W 3 2 1 3 33.3 0 0 - 0 0 - 2 0 2 1 0 0 0 1 -
p102
aVMagic Johnson LAL 05/10/1989 LAL vs. SEA W 38 12 4 12 33.3 0 2 0.0 4 4 100.0 1 4 5 12 2 0 6 2 -
p103
aVJames Worthy LAL 05/07/1989 LAL vs. SEA W 41 28 9 20 45.0 0 0 - 10 11 90.9 5 7 12 2 2 1 2 2 -
p104
aVOrlando Woolridge LAL 05/07/1989 LAL vs. SEA W 7 2 1 1 100.0 0 0 - 0 2 0.0 0 0 0 0 0 0 1 1 -
p105
aVDavid Rivers LAL 05/07/1989 LAL vs. SEA W 1 0 0 0 - 0 0 - 0 0 - 0 0 0 0 0 0 0 0 -
p106
aVMychal Thompson LAL 05/07/1989 LAL vs. SEA W 28 16 5 11 45.5 0 0 - 6 8 75.0 6 1 7 3 3 0 1 4 -
p107
aVMagic Johnson LAL 05/07/1989 LAL vs. SEA W 42 21 5 10 50.0 0 1 0.0 11 14 78.6 0 1 1 14 5 0 1 3 -
p108
aVByron Scott LAL 05/07/1989 LAL vs. SEA W 45 18 6 17 35.3 0 4 0.0 6 6 100.0 2 2 4 4 1 0 2 2 -
p109
aVA.C. Green LAL 05/07/1989 LAL vs. SEA W 33 10 4 7 57.1 0 0 - 2 3 66.7 4 6 10 1 0 0 0 2 -
p110
aVMichael Cooper LAL 05/07/1989 LAL vs. SEA W 15 2 0 1 0.0 0 1 0.0 2 2 100.0 1 2 3 3 1 1 1 0 -
p111
aVKareem Abdul-Jabbar LAL 05/07/1989 LAL vs. SEA W 28 16 8 14 57.1 0 0 - 0 0 - 0 0 0 1 0 1 1 2 -
p112
aVA.C. Green LAL 05/03/1989 LAL @ POR W 42 16 3 10 30.0 0 0 - 10 12 83.3 3 10 13 0 1 0 4 2 -
p113
aVByron Scott LAL 05/03/1989 LAL @ POR W 37 25 7 11 63.6 3 4 75.0 8 10 80.0 1 4 5 1 4 0 0 2 -
p114
aVJames Worthy LAL 05/03/1989 LAL @ POR W 35 24 11 17 64.7 0 1 0.0 2 4 50.0 3 2 5 2 3 2 3 2 -
p115
aVMagic Johnson LAL 05/03/1989 LAL @ POR W 41 17 8 11 72.7 0 2 0.0 1 1 100.0 1 5 6 7 1 0 2 3 -
p116
aVKareem Abdul-Jabbar LAL 05/03/1989 LAL @ POR W 29 22 9 17 52.9 0 0 - 4 8 50.0 2 4 6 0 0 0 1 0 -
p117
aVMychal Thompson LAL 05/03/1989 LAL @ POR W 20 5 2 9 22.2 0 0 - 1 3 33.3 2 0 2 1 0 0 2 4 -
p118
aVTony Campbell LAL 05/03/1989 LAL @ POR W 3 2 0 0 - 0 0 - 2 2 100.0 0 0 0 0 0 0 0 1 -
p119
aVMichael Cooper LAL 05/03/1989 LAL @ POR W 21 4 1 1 100.0 1 1 100.0 1 2 50.0 2 1 3 2 0 0 2 1 -
p120
aVOrlando Woolridge LAL 05/03/1989 LAL @ POR W 12 1 0 2 0.0 0 0 - 1 2 50.0 0 1 1 0 0 0 0 1 -
p121
aVA.C. Green LAL 04/30/1989 LAL vs. POR W 36 7 1 5 20.0 0 0 - 5 6 83.3 3 10 13 2 0 0 3 5 -
p122
aVMychal Thompson LAL 04/30/1989 LAL vs. POR W 25 15 6 10 60.0 0 0 - 3 3 100.0 3 2 5 1 0 0 0 6 -
p123
aVMichael Cooper LAL 04/30/1989 LAL vs. POR W 25 7 3 6 50.0 1 2 50.0 0 0 - 1 3 4 4 0 0 2 2 -
p124
aVMagic Johnson LAL 04/30/1989 LAL vs. POR W 38 35 10 19 52.6 4 8 50.0 11 11 100.0 2 6 8 12 5 0 3 2 -
p125
aVOrlando Woolridge LAL 04/30/1989 LAL vs. POR W 14 5 1 3 33.3 0 0 - 3 6 50.0 3 2 5 2 0 1 3 3 -
p126
aVByron Scott LAL 04/30/1989 LAL vs. POR W 36 13 6 16 37.5 1 4 25.0 0 0 - 0 1 1 3 0 0 2 4 -
p127
aVJames Worthy LAL 04/30/1989 LAL vs. POR W 37 18 7 14 50.0 0 0 - 4 5 80.0 5 2 7 2 3 1 4 5 -
p128
aVKareem Abdul-Jabbar LAL 04/30/1989 LAL vs. POR W 29 13 6 10 60.0 0 0 - 1 2 50.0 0 4 4 0 2 2 2 4 -
p129
aVTony Campbell LAL 04/27/1989 LAL vs. POR W 2 2 1 1 100.0 0 0 - 0 0 - 0 1 1 0 0 0 1 0 -
p130
aVMychal Thompson LAL 04/27/1989 LAL vs. POR W 27 20 8 11 72.7 0 0 - 4 5 80.0 3 3 6 0 1 1 2 3 -
p131
aVDavid Rivers LAL 04/27/1989 LAL vs. POR W 1 0 0 0 - 0 0 - 0 0 - 0 0 0 0 0 0 0 0 -
p132
aVOrlando Woolridge LAL 04/27/1989 LAL vs. POR W 17 5 2 6 33.3 0 0 - 1 2 50.0 1 3 4 2 0 1 0 2 -
p133
aVJames Worthy LAL 04/27/1989 LAL vs. POR W 26 17 8 12 66.7 0 0 - 1 2 50.0 1 6 7 2 1 0 3 4 -
p134
aVKareem Abdul-Jabbar LAL 04/27/1989 LAL vs. POR W 26 11 4 11 36.4 0 0 - 3 7 42.9 0 8 8 1 0 1 2 4 -
p135
aVMagic Johnson LAL 04/27/1989 LAL vs. POR W 42 30 10 20 50.0 2 5 40.0 8 9 88.9 3 4 7 16 0 0 4 2 -
p136
aVA.C. Green LAL 04/27/1989 LAL vs. POR W 33 11 4 8 50.0 0 0 - 3 4 75.0 1 2 3 0 1 1 0 1 -
p137
aVMichael Cooper LAL 04/27/1989 LAL vs. POR W 23 3 1 2 50.0 1 2 50.0 0 0 - 1 3 4 8 0 0 1 3 -
p138
aVByron Scott LAL 04/27/1989 LAL vs. POR W 43 29 10 16 62.5 5 6 83.3 4 4 100.0 2 6 8 3 0 1 3 3 -
p139
a.