(lp0
VPLAYER TEAM DATE MATCHUP W/L MIN PTS FGM FGA FG% 3PM 3PA 3P% FTM FTA FT% OREB DREB REB AST STL BLK TOV PF +/-
p1
aVTim McCormick HOU 05/05/1989 HOU vs. SEA L 14 6 2 4 50.0 0 0 - 2 2 100.0 0 2 2 0 0 1 0 3 -
p2
aVDerrick Chievous HOU 05/05/1989 HOU vs. SEA L 10 4 1 3 33.3 0 0 - 2 2 100.0 1 1 2 0 0 0 1 1 -
p3
aVHakeem Olajuwon HOU 05/05/1989 HOU vs. SEA L 40 24 11 17 64.7 0 0 - 2 5 40.0 1 12 13 2 4 1 4 3 -
p4
aVMike Woodson HOU 05/05/1989 HOU vs. SEA L 33 15 4 13 30.8 0 2 0.0 7 8 87.5 1 2 3 7 3 0 2 2 -
p5
aVWalter Berry HOU 05/05/1989 HOU vs. SEA L 11 5 2 5 40.0 0 0 - 1 2 50.0 1 2 3 0 0 0 3 2 -
p6
aVFrank Johnson HOU 05/05/1989 HOU vs. SEA L 7 0 0 0 - 0 0 - 0 0 - 0 1 1 3 1 0 2 0 -
p7
aVOtis Thorpe HOU 05/05/1989 HOU vs. SEA L 35 11 5 7 71.4 0 0 - 1 2 50.0 0 3 3 4 4 0 3 6 -
p8
aVPurvis Short HOU 05/05/1989 HOU vs. SEA L 18 12 6 12 50.0 0 1 0.0 0 0 - 1 1 2 1 0 0 0 3 -
p9
aVSleepy Floyd HOU 05/05/1989 HOU vs. SEA L 41 14 5 14 35.7 3 6 50.0 1 2 50.0 0 1 1 7 2 0 2 3 -
p10
aVBuck Johnson HOU 05/05/1989 HOU vs. SEA L 29 5 2 7 28.6 0 1 0.0 1 2 50.0 3 1 4 3 0 0 1 3 -
p11
aVAllen Leavell HOU 05/05/1989 HOU vs. SEA L 1 0 0 0 - 0 0 - 0 0 - 0 0 0 0 0 0 0 0 -
p12
aVChuck Nevitt HOU 05/05/1989 HOU vs. SEA L 1 0 0 0 - 0 0 - 0 0 - 0 0 0 0 0 0 0 0 -
p13
aVMike Woodson HOU 05/03/1989 HOU vs. SEA W 33 11 4 13 30.8 0 0 - 3 4 75.0 3 2 5 5 1 2 3 2 -
p14
aVFrank Johnson HOU 05/03/1989 HOU vs. SEA W 14 6 2 4 50.0 0 0 - 2 4 50.0 0 1 1 0 0 0 1 0 -
p15
aVPurvis Short HOU 05/03/1989 HOU vs. SEA W 7 1 0 2 0.0 0 0 - 1 1 100.0 0 1 1 0 0 0 1 2 -
p16
aVTim McCormick HOU 05/03/1989 HOU vs. SEA W 17 5 2 3 66.7 0 0 - 1 1 100.0 0 3 3 0 2 1 0 3 -
p17
aVHakeem Olajuwon HOU 05/03/1989 HOU vs. SEA W 39 19 7 11 63.6 0 0 - 5 6 83.3 3 15 18 4 1 6 4 5 -
p18
aVOtis Thorpe HOU 05/03/1989 HOU vs. SEA W 35 23 7 10 70.0 0 0 - 9 9 100.0 2 5 7 4 0 1 6 4 -
p19
aVDerrick Chievous HOU 05/03/1989 HOU vs. SEA W 6 2 1 3 33.3 0 0 - 0 0 - 0 0 0 1 0 0 0 1 -
p20
aVChuck Nevitt HOU 05/03/1989 HOU vs. SEA W 2 0 0 0 - 0 0 - 0 0 - 0 1 1 0 0 0 0 0 -
p21
aVWalter Berry HOU 05/03/1989 HOU vs. SEA W 21 11 5 8 62.5 0 0 - 1 1 100.0 0 2 2 3 1 0 2 4 -
p22
aVSleepy Floyd HOU 05/03/1989 HOU vs. SEA W 38 28 8 11 72.7 3 3 100.0 9 12 75.0 0 4 4 6 2 0 1 2 -
p23
aVBuck Johnson HOU 05/03/1989 HOU vs. SEA W 24 16 6 11 54.5 0 0 - 4 6 66.7 1 5 6 4 0 2 1 5 -
p24
aVAllen Leavell HOU 05/03/1989 HOU vs. SEA W 4 4 1 3 33.3 0 0 - 2 2 100.0 0 0 0 1 0 0 0 0 -
p25
aVFrank Johnson HOU 04/30/1989 HOU @ SEA L 4 2 0 1 0.0 0 1 0.0 2 4 50.0 0 1 1 0 0 0 0 0 -
p26
aVHakeem Olajuwon HOU 04/30/1989 HOU @ SEA L 38 30 13 27 48.1 0 0 - 4 5 80.0 7 5 12 1 2 2 1 4 -
p27
aVWalter Berry HOU 04/30/1989 HOU @ SEA L 8 7 3 6 50.0 0 0 - 1 1 100.0 1 1 2 1 0 0 1 0 -
p28
aVPurvis Short HOU 04/30/1989 HOU @ SEA L 4 5 2 3 66.7 0 0 - 1 2 50.0 4 1 5 0 0 0 0 1 -
p29
aVOtis Thorpe HOU 04/30/1989 HOU @ SEA L 41 15 6 13 46.2 0 0 - 3 4 75.0 2 3 5 3 1 0 5 4 -
p30
aVTim McCormick HOU 04/30/1989 HOU @ SEA L 17 8 3 6 50.0 0 1 0.0 2 2 100.0 2 2 4 0 1 0 0 3 -
p31
aVBuck Johnson HOU 04/30/1989 HOU @ SEA L 36 10 5 11 45.5 0 0 - 0 0 - 0 1 1 4 1 0 3 3 -
p32
aVDerrick Chievous HOU 04/30/1989 HOU @ SEA L 9 2 1 4 25.0 0 0 - 0 0 - 1 0 1 0 0 1 1 0 -
p33
aVSleepy Floyd HOU 04/30/1989 HOU @ SEA L 44 7 3 10 30.0 1 4 25.0 0 0 - 1 7 8 6 3 1 2 2 -
p34
aVMike Woodson HOU 04/30/1989 HOU @ SEA L 39 11 5 13 38.5 1 3 33.3 0 0 - 0 0 0 3 0 0 2 1 -
p35
aVDerrick Chievous HOU 04/28/1989 HOU @ SEA L 15 10 2 7 28.6 0 0 - 6 8 75.0 3 0 3 1 1 0 1 5 -
p36
aVSleepy Floyd HOU 04/28/1989 HOU @ SEA L 37 13 6 11 54.5 1 2 50.0 0 0 - 2 3 5 7 1 0 5 3 -
p37
aVMike Woodson HOU 04/28/1989 HOU @ SEA L 32 10 4 10 40.0 2 4 50.0 0 0 - 0 1 1 3 0 0 2 2 -
p38
aVOtis Thorpe HOU 04/28/1989 HOU @ SEA L 41 15 6 7 85.7 0 0 - 3 6 50.0 2 3 5 1 0 0 1 3 -
p39
aVTim McCormick HOU 04/28/1989 HOU @ SEA L 5 3 0 0 - 0 0 - 3 4 75.0 0 4 4 0 0 0 0 0 -
p40
aVWalter Berry HOU 04/28/1989 HOU @ SEA L 17 10 3 7 42.9 0 0 - 4 4 100.0 1 1 2 1 1 1 0 2 -
p41
aVBuck Johnson HOU 04/28/1989 HOU @ SEA L 29 15 6 11 54.5 0 0 - 3 6 50.0 3 1 4 2 2 0 1 4 -
p42
aVHakeem Olajuwon HOU 04/28/1989 HOU @ SEA L 45 28 11 26 42.3 0 0 - 6 9 66.7 3 6 9 5 3 2 1 5 -
p43
aVFrank Johnson HOU 04/28/1989 HOU @ SEA L 11 2 0 1 0.0 0 0 - 2 2 100.0 1 1 2 4 0 0 1 3 -
p44
aVPurvis Short HOU 04/28/1989 HOU @ SEA L 8 1 0 4 0.0 0 1 0.0 1 2 50.0 1 0 1 0 0 0 0 1 -
p45
a.