(lp0
VPLAYER TEAM DATE MATCHUP W/L MIN PTS FGM FGA FG% 3PM 3PA 3P% FTM FTA FT% OREB DREB REB AST STL BLK TOV PF +/-
p1
aVJohn Bagley BOS 05/06/1990 BOS vs. NYK L 9 2 0 1 0.0 0 0 - 2 2 100.0 1 0 1 1 0 0 2 2 -
p2
aVMichael Smith BOS 05/06/1990 BOS vs. NYK L 1 0 0 1 0.0 0 1 0.0 0 0 - 0 0 0 0 0 0 0 0 -
p3
aVEd Pinckney BOS 05/06/1990 BOS vs. NYK L 2 0 0 0 - 0 0 - 0 0 - 0 1 1 0 0 0 0 1 -
p4
aVLarry Bird BOS 05/06/1990 BOS vs. NYK L 46 31 11 25 44.0 1 4 25.0 8 9 88.9 4 5 9 5 1 1 1 3 -
p5
aVRobert Parish BOS 05/06/1990 BOS vs. NYK L 41 22 10 15 66.7 0 0 - 2 2 100.0 6 3 9 3 2 3 2 4 -
p6
aVJoe Kleine BOS 05/06/1990 BOS vs. NYK L 9 2 0 3 0.0 0 1 0.0 2 2 100.0 1 0 1 1 1 0 1 0 -
p7
aVDennis Johnson BOS 05/06/1990 BOS vs. NYK L 39 21 10 20 50.0 1 3 33.3 0 0 - 1 4 5 10 1 0 2 5 -
p8
aVReggie Lewis BOS 05/06/1990 BOS vs. NYK L 41 19 8 13 61.5 0 1 0.0 3 7 42.9 2 3 5 9 3 0 2 3 -
p9
aVKevin McHale BOS 05/06/1990 BOS vs. NYK L 45 17 7 14 50.0 1 2 50.0 2 3 66.7 2 5 7 3 0 3 2 3 -
p10
aVJim Paxson BOS 05/06/1990 BOS vs. NYK L 7 0 0 2 0.0 0 0 - 0 0 - 0 0 0 0 0 0 0 0 -
p11
aVJim Paxson BOS 05/04/1990 BOS @ NYK L 12 4 2 4 50.0 0 0 - 0 0 - 0 0 0 0 1 0 1 1 -
p12
aVEd Pinckney BOS 05/04/1990 BOS @ NYK L 6 1 0 1 0.0 0 0 - 1 2 50.0 0 1 1 0 0 0 1 1 -
p13
aVMichael Smith BOS 05/04/1990 BOS @ NYK L 6 6 1 2 50.0 0 1 0.0 4 4 100.0 0 0 0 0 1 0 0 1 -
p14
aVJoe Kleine BOS 05/04/1990 BOS @ NYK L 17 11 4 5 80.0 0 0 - 3 4 75.0 1 1 2 0 0 1 1 4 -
p15
aVCharles Smith BOS 05/04/1990 BOS @ NYK L 4 0 0 1 0.0 0 0 - 0 0 - 1 0 1 0 0 0 0 0 -
p16
aVReggie Lewis BOS 05/04/1990 BOS @ NYK L 40 23 8 12 66.7 0 0 - 7 10 70.0 3 1 4 2 0 0 5 3 -
p17
aVJohn Bagley BOS 05/04/1990 BOS @ NYK L 17 2 1 4 25.0 0 0 - 0 0 - 2 1 3 6 3 0 2 1 -
p18
aVRobert Parish BOS 05/04/1990 BOS @ NYK L 31 10 4 8 50.0 0 0 - 2 2 100.0 1 4 5 1 0 0 4 3 -
p19
aVKevin Gamble BOS 05/04/1990 BOS @ NYK L 2 2 1 1 100.0 0 0 - 0 0 - 1 0 1 0 0 0 0 0 -
p20
aVLarry Bird BOS 05/04/1990 BOS @ NYK L 39 21 6 15 40.0 1 2 50.0 8 8 100.0 0 8 8 5 1 0 7 1 -
p21
aVDennis Johnson BOS 05/04/1990 BOS @ NYK L 27 4 2 9 22.2 0 0 - 0 0 - 1 4 5 6 0 0 3 3 -
p22
aVKevin McHale BOS 05/04/1990 BOS @ NYK L 39 24 8 13 61.5 0 0 - 8 9 88.9 1 3 4 1 0 2 2 2 -
p23
aVLarry Bird BOS 05/02/1990 BOS @ NYK L 45 31 12 25 48.0 1 4 25.0 6 7 85.7 0 8 8 8 1 2 5 4 -
p24
aVDennis Johnson BOS 05/02/1990 BOS @ NYK L 39 18 8 14 57.1 0 2 0.0 2 2 100.0 0 2 2 2 0 0 2 2 -
p25
aVJoe Kleine BOS 05/02/1990 BOS @ NYK L 16 4 2 2 100.0 0 0 - 0 0 - 0 6 6 0 0 1 0 4 -
p26
aVReggie Lewis BOS 05/02/1990 BOS @ NYK L 44 16 5 11 45.5 0 0 - 6 7 85.7 1 7 8 2 0 1 2 3 -
p27
aVJohn Bagley BOS 05/02/1990 BOS @ NYK L 9 0 0 1 0.0 0 1 0.0 0 0 - 0 0 0 1 0 1 2 0 -
p28
aVKevin McHale BOS 05/02/1990 BOS @ NYK L 44 17 6 13 46.2 0 0 - 5 6 83.3 0 9 9 2 2 2 5 5 -
p29
aVRobert Parish BOS 05/02/1990 BOS @ NYK L 32 11 4 7 57.1 0 0 - 3 4 75.0 4 6 10 4 2 2 5 5 -
p30
aVJim Paxson BOS 05/02/1990 BOS @ NYK L 11 2 1 1 100.0 0 0 - 0 1 0.0 0 0 0 1 0 0 0 0 -
p31
aVRobert Parish BOS 04/28/1990 BOS vs. NYK W 28 18 6 11 54.5 0 0 - 6 6 100.0 8 8 16 3 0 2 0 4 -
p32
aVMichael Smith BOS 04/28/1990 BOS vs. NYK W 7 9 4 5 80.0 0 0 - 1 1 100.0 0 0 0 0 0 0 1 0 -
p33
aVKevin McHale BOS 04/28/1990 BOS vs. NYK W 28 31 12 15 80.0 0 1 0.0 7 7 100.0 2 8 10 4 0 2 0 3 -
p34
aVJim Paxson BOS 04/28/1990 BOS vs. NYK W 19 11 4 6 66.7 0 0 - 3 3 100.0 0 0 0 5 3 0 2 0 -
p35
aVKevin Gamble BOS 04/28/1990 BOS vs. NYK W 5 4 2 4 50.0 0 0 - 0 0 - 0 0 0 2 0 0 1 1 -
p36
aVJohn Bagley BOS 04/28/1990 BOS vs. NYK W 18 10 5 7 71.4 0 0 - 0 1 0.0 0 0 0 4 1 0 1 3 -
p37
aVCharles Smith BOS 04/28/1990 BOS vs. NYK W 4 2 1 1 100.0 0 0 - 0 0 - 0 0 0 3 1 0 0 0 -
p38
aVJoe Kleine BOS 04/28/1990 BOS vs. NYK W 23 8 4 4 100.0 0 0 - 0 0 - 0 3 3 1 0 1 2 2 -
p39
aVLarry Bird BOS 04/28/1990 BOS vs. NYK W 37 15 5 15 33.3 0 4 0.0 5 6 83.3 0 3 3 16 1 2 1 1 -
p40
aVReggie Lewis BOS 04/28/1990 BOS vs. NYK W 31 21 9 13 69.2 0 0 - 3 3 100.0 2 4 6 4 1 0 1 4 -
p41
aVEd Pinckney BOS 04/28/1990 BOS vs. NYK W 14 16 6 6 100.0 0 0 - 4 5 80.0 2 2 4 0 0 0 1 1 -
p42
aVDennis Johnson BOS 04/28/1990 BOS vs. NYK W 26 12 5 7 71.4 1 1 100.0 1 1 100.0 0 0 0 4 0 0 2 1 -
p43
aVLarry Bird BOS 04/26/1990 BOS vs. NYK W 40 24 10 19 52.6 2 5 40.0 2 2 100.0 3 15 18 10 1 0 4 1 -
p44
aVJim Paxson BOS 04/26/1990 BOS vs. NYK W 13 2 1 3 33.3 0 1 0.0 0 0 - 0 0 0 1 1 0 0 0 -
p45
aVJoe Kleine BOS 04/26/1990 BOS vs. NYK W 14 6 3 3 100.0 0 0 - 0 0 - 1 1 2 0 1 0 0 2 -
p46
aVReggie Lewis BOS 04/26/1990 BOS vs. NYK W 44 22 7 13 53.8 0 0 - 8 8 100.0 1 1 2 5 3 1 2 1 -
p47
aVEd Pinckney BOS 04/26/1990 BOS vs. NYK W 3 2 0 0 - 0 0 - 2 2 100.0 0 0 0 0 0 0 0 0 -
p48
aVJohn Bagley BOS 04/26/1990 BOS vs. NYK W 17 5 2 2 100.0 0 0 - 1 1 100.0 0 0 0 5 0 0 2 3 -
p49
aVMichael Smith BOS 04/26/1990 BOS vs. NYK W 2 2 0 0 - 0 0 - 2 2 100.0 0 0 0 0 0 0 0 0 -
p50
aVDennis Johnson BOS 04/26/1990 BOS vs. NYK W 31 14 5 12 41.7 0 0 - 4 4 100.0 0 2 2 6 1 2 1 6 -
p51
aVKevin Gamble BOS 04/26/1990 BOS vs. NYK W 1 0 0 0 - 0 0 - 0 0 - 0 0 0 0 0 0 0 0 -
p52
aVCharles Smith BOS 04/26/1990 BOS vs. NYK W 1 0 0 0 - 0 0 - 0 0 - 0 0 0 0 0 0 0 0 -
p53
aVRobert Parish BOS 04/26/1990 BOS vs. NYK W 38 18 7 13 53.8 0 0 - 4 4 100.0 4 6 10 2 1 0 1 5 -
p54
aVKevin McHale BOS 04/26/1990 BOS vs. NYK W 36 21 9 14 64.3 0 0 - 3 4 75.0 3 6 9 3 0 1 5 4 -
p55
a.