(lp0
VPLAYER TEAM DATE MATCHUP W/L MIN PTS FGM FGA FG% 3PM 3PA 3P% FTM FTA FT% OREB DREB REB AST STL BLK TOV PF +/-
p1
aVMark Price CLE 05/05/1990 CLE @ PHL L 40 19 5 10 50.0 1 2 50.0 8 8 100.0 0 3 3 4 1 0 1 3 -
p2
aVHot Rod Williams CLE 05/05/1990 CLE @ PHL L 40 20 8 14 57.1 0 0 - 4 4 100.0 3 10 13 0 0 1 2 6 -
p3
aVLarry Nance CLE 05/05/1990 CLE @ PHL L 36 9 2 7 28.6 0 0 - 5 7 71.4 2 6 8 3 3 3 2 5 -
p4
aVDerrick Chievous CLE 05/05/1990 CLE @ PHL L 11 6 1 2 50.0 0 0 - 4 6 66.7 0 1 1 0 1 0 0 0 -
p5
aVSteve Kerr CLE 05/05/1990 CLE @ PHL L 9 0 0 1 0.0 0 0 - 0 0 - 0 0 0 2 0 0 0 1 -
p6
aVBrad Daugherty CLE 05/05/1990 CLE @ PHL L 42 25 10 19 52.6 0 0 - 5 8 62.5 1 8 9 4 0 1 6 3 -
p7
aVJohn Morton CLE 05/05/1990 CLE @ PHL L 3 0 0 2 0.0 0 0 - 0 0 - 0 0 0 0 0 0 0 0 -
p8
aVCraig Ehlo CLE 05/05/1990 CLE @ PHL L 36 10 4 9 44.4 0 1 0.0 2 4 50.0 2 1 3 5 0 0 2 4 -
p9
aVWinston Bennett CLE 05/05/1990 CLE @ PHL L 15 4 2 5 40.0 0 0 - 0 0 - 1 0 1 2 0 0 0 3 -
p10
aVTree Rollins CLE 05/05/1990 CLE @ PHL L 7 2 0 1 0.0 0 0 - 2 2 100.0 0 1 1 0 0 0 0 1 -
p11
aVPaul Mokeski CLE 05/05/1990 CLE @ PHL L 1 2 1 1 100.0 0 0 - 0 0 - 0 1 1 0 0 0 0 0 -
p12
aVWinston Bennett CLE 05/03/1990 CLE vs. PHL W 31 8 4 10 40.0 0 0 - 0 0 - 4 3 7 1 0 1 2 1 -
p13
aVCraig Ehlo CLE 05/03/1990 CLE vs. PHL W 44 15 7 14 50.0 1 3 33.3 0 2 0.0 0 8 8 6 1 0 3 3 -
p14
aVTree Rollins CLE 05/03/1990 CLE vs. PHL W 11 2 0 0 - 0 0 - 2 2 100.0 0 3 3 1 1 1 0 3 -
p15
aVDerrick Chievous CLE 05/03/1990 CLE vs. PHL W 6 0 0 2 0.0 0 0 - 0 0 - 1 0 1 0 0 0 1 0 -
p16
aVHot Rod Williams CLE 05/03/1990 CLE vs. PHL W 29 21 9 17 52.9 0 0 - 3 4 75.0 2 4 6 3 0 1 0 3 -
p17
aVSteve Kerr CLE 05/03/1990 CLE vs. PHL W 2 0 0 0 - 0 0 - 0 0 - 0 0 0 0 0 0 0 0 -
p18
aVLarry Nance CLE 05/03/1990 CLE vs. PHL W 36 10 5 9 55.6 0 0 - 0 0 - 0 1 1 4 0 2 0 3 -
p19
aVMark Price CLE 05/03/1990 CLE vs. PHL W 45 18 6 13 46.2 1 3 33.3 5 5 100.0 0 4 4 18 2 1 5 1 -
p20
aVBrad Daugherty CLE 05/03/1990 CLE vs. PHL W 36 34 12 15 80.0 0 0 - 10 12 83.3 1 8 9 1 1 0 1 4 -
p21
aVBrad Daugherty CLE 05/01/1990 CLE vs. PHL W 28 13 5 8 62.5 0 0 - 3 9 33.3 1 9 10 9 0 1 1 2 -
p22
aVSteve Kerr CLE 05/01/1990 CLE vs. PHL W 17 4 2 3 66.7 0 0 - 0 0 - 0 2 2 2 1 0 0 1 -
p23
aVWinston Bennett CLE 05/01/1990 CLE vs. PHL W 29 10 4 11 36.4 0 0 - 2 4 50.0 4 0 4 2 1 0 1 3 -
p24
aVTree Rollins CLE 05/01/1990 CLE vs. PHL W 20 4 1 2 50.0 0 0 - 2 4 50.0 0 4 4 0 1 0 3 3 -
p25
aVDerrick Chievous CLE 05/01/1990 CLE vs. PHL W 11 13 5 6 83.3 0 0 - 3 3 100.0 1 0 1 2 0 0 2 2 -
p26
aVLarry Nance CLE 05/01/1990 CLE vs. PHL W 31 17 7 10 70.0 0 0 - 3 3 100.0 0 7 7 1 0 2 0 4 -
p27
aVJohn Morton CLE 05/01/1990 CLE vs. PHL W 6 6 2 3 66.7 0 0 - 2 2 100.0 0 0 0 0 0 0 1 1 -
p28
aVPaul Mokeski CLE 05/01/1990 CLE vs. PHL W 8 2 0 1 0.0 0 0 - 2 2 100.0 0 1 1 0 1 1 0 1 -
p29
aVCraig Ehlo CLE 05/01/1990 CLE vs. PHL W 36 25 9 13 69.2 2 3 66.7 5 7 71.4 1 9 10 9 4 0 2 3 -
p30
aVHot Rod Williams CLE 05/01/1990 CLE vs. PHL W 28 13 5 10 50.0 0 0 - 3 3 100.0 2 4 6 3 1 1 2 4 -
p31
aVMark Price CLE 05/01/1990 CLE vs. PHL W 26 15 3 9 33.3 2 4 50.0 7 7 100.0 0 2 2 4 3 0 2 3 -
p32
aVBrad Daugherty CLE 04/29/1990 CLE @ PHL L 39 21 7 13 53.8 0 0 - 7 8 87.5 0 13 13 2 0 1 3 2 -
p33
aVSteve Kerr CLE 04/29/1990 CLE @ PHL L 21 0 0 6 0.0 0 2 0.0 0 0 - 1 2 3 5 0 0 1 2 -
p34
aVWinston Bennett CLE 04/29/1990 CLE @ PHL L 38 22 10 13 76.9 0 0 - 2 2 100.0 4 4 8 0 0 0 1 2 -
p35
aVPaul Mokeski CLE 04/29/1990 CLE @ PHL L 1 0 0 0 - 0 0 - 0 0 - 0 0 0 0 0 0 0 1 -
p36
aVMark Price CLE 04/29/1990 CLE @ PHL L 39 27 9 15 60.0 2 5 40.0 7 7 100.0 0 2 2 6 1 0 2 1 -
p37
aVCraig Ehlo CLE 04/29/1990 CLE @ PHL L 41 8 3 12 25.0 0 4 0.0 2 2 100.0 0 2 2 8 0 0 3 4 -
p38
aVHot Rod Williams CLE 04/29/1990 CLE @ PHL L 39 18 7 14 50.0 0 0 - 4 6 66.7 4 7 11 2 0 0 2 5 -
p39
aVLarry Nance CLE 04/29/1990 CLE @ PHL L 22 5 2 6 33.3 0 0 - 1 2 50.0 1 2 3 1 0 1 1 5 -
p40
aVMark Price CLE 04/26/1990 CLE @ PHL L 42 21 9 14 64.3 0 3 0.0 3 3 100.0 0 3 3 12 2 0 5 1 -
p41
aVSteve Kerr CLE 04/26/1990 CLE @ PHL L 24 4 2 4 50.0 0 1 0.0 0 0 - 0 1 1 1 3 0 1 2 -
p42
aVCraig Ehlo CLE 04/26/1990 CLE @ PHL L 39 11 3 14 21.4 2 4 50.0 3 4 75.0 4 5 9 4 1 0 2 4 -
p43
aVLarry Nance CLE 04/26/1990 CLE @ PHL L 34 20 10 13 76.9 0 0 - 0 0 - 1 4 5 3 0 2 1 3 -
p44
aVWinston Bennett CLE 04/26/1990 CLE @ PHL L 22 6 3 8 37.5 0 0 - 0 0 - 1 0 1 0 2 0 0 2 -
p45
aVBrad Daugherty CLE 04/26/1990 CLE @ PHL L 41 21 7 15 46.7 0 0 - 7 9 77.8 1 6 7 4 1 1 2 1 -
p46
aVHot Rod Williams CLE 04/26/1990 CLE @ PHL L 38 23 10 15 66.7 0 0 - 3 5 60.0 3 7 10 3 1 2 1 5 -
p47
a.