(lp0
VPLAYER TEAM DATE MATCHUP W/L MIN PTS FGM FGA FG% 3PM 3PA 3P% FTM FTA FT% OREB DREB REB AST STL BLK TOV PF +/-
p1
aVRon Anderson PHL 04/22/1990 PHL vs. BOS L 36 8 3 9 33.3 0 0 - 2 3 66.7 4 2 6 4 2 0 1 3 -
p2
aVHersey Hawkins PHL 04/22/1990 PHL vs. BOS L 31 24 9 16 56.3 3 3 100.0 3 3 100.0 0 4 4 2 1 0 6 2 -
p3
aVMike Gminski PHL 04/22/1990 PHL vs. BOS L 33 14 6 13 46.2 0 1 0.0 2 2 100.0 3 4 7 0 0 0 1 2 -
p4
aVKurt Nimphius PHL 04/22/1990 PHL vs. BOS L 25 5 2 6 33.3 0 0 - 1 2 50.0 1 5 6 0 0 3 1 3 -
p5
aVRick Mahorn PHL 04/22/1990 PHL vs. BOS L 32 13 5 10 50.0 0 0 - 3 4 75.0 3 6 9 2 1 1 2 2 -
p6
aVLanard Copeland PHL 04/22/1990 PHL vs. BOS L 17 7 3 10 30.0 0 0 - 1 2 50.0 1 0 1 1 0 0 0 1 -
p7
aVJohnny Dawkins PHL 04/22/1990 PHL vs. BOS L 28 14 5 11 45.5 1 1 100.0 3 4 75.0 2 1 3 8 0 0 4 0 -
p8
aVKenny Payne PHL 04/22/1990 PHL vs. BOS L 18 10 3 6 50.0 0 1 0.0 4 4 100.0 0 1 1 1 3 2 0 4 -
p9
aVScott Brooks PHL 04/22/1990 PHL vs. BOS L 20 3 1 5 20.0 1 2 50.0 0 0 - 1 1 2 3 0 0 3 1 -
p10
aVRick Mahorn PHL 04/19/1990 PHL @ DET W 38 11 4 8 50.0 0 0 - 3 4 75.0 2 6 8 1 0 0 3 4 -
p11
aVCharles Barkley PHL 04/19/1990 PHL @ DET W 47 36 12 20 60.0 1 1 100.0 11 16 68.8 5 10 15 1 2 1 2 3 -
p12
aVHersey Hawkins PHL 04/19/1990 PHL @ DET W 38 13 2 9 22.2 2 3 66.7 7 8 87.5 0 3 3 4 0 0 2 3 -
p13
aVJohnny Dawkins PHL 04/19/1990 PHL @ DET W 44 16 5 11 45.5 0 1 0.0 6 6 100.0 1 5 6 8 2 0 3 3 -
p14
aVKurt Nimphius PHL 04/19/1990 PHL @ DET W 3 0 0 0 - 0 0 - 0 0 - 0 1 1 0 0 0 0 1 -
p15
aVKenny Payne PHL 04/19/1990 PHL @ DET W 3 0 0 1 0.0 0 0 - 0 0 - 0 0 0 1 0 0 0 1 -
p16
aVRon Anderson PHL 04/19/1990 PHL @ DET W 24 15 5 11 45.5 0 0 - 5 6 83.3 1 3 4 2 1 0 0 4 -
p17
aVScott Brooks PHL 04/19/1990 PHL @ DET W 4 0 0 0 - 0 0 - 0 0 - 0 0 0 0 0 0 1 1 -
p18
aVMike Gminski PHL 04/19/1990 PHL @ DET W 39 16 8 18 44.4 0 1 0.0 0 0 - 3 7 10 0 0 0 0 1 -
p19
aVMike Gminski PHL 04/18/1990 PHL vs. IND W 29 10 3 8 37.5 0 0 - 4 4 100.0 2 4 6 1 0 3 0 2 -
p20
aVKurt Nimphius PHL 04/18/1990 PHL vs. IND W 18 8 3 6 50.0 0 0 - 2 2 100.0 4 2 6 0 0 2 1 4 -
p21
aVRick Mahorn PHL 04/18/1990 PHL vs. IND W 28 6 2 6 33.3 0 0 - 2 2 100.0 0 9 9 2 1 0 3 3 -
p22
aVHersey Hawkins PHL 04/18/1990 PHL vs. IND W 36 31 11 14 78.6 1 1 100.0 8 8 100.0 3 2 5 3 2 1 2 3 -
p23
aVScott Brooks PHL 04/18/1990 PHL vs. IND W 19 4 2 4 50.0 0 0 - 0 0 - 0 0 0 4 1 0 0 4 -
p24
aVJohnny Dawkins PHL 04/18/1990 PHL vs. IND W 29 19 7 11 63.6 1 1 100.0 4 4 100.0 0 1 1 7 1 0 3 1 -
p25
aVKenny Payne PHL 04/18/1990 PHL vs. IND W 13 10 5 6 83.3 0 0 - 0 0 - 1 1 2 0 0 0 2 1 -
p26
aVCharles Barkley PHL 04/18/1990 PHL vs. IND W 29 17 7 18 38.9 1 2 50.0 2 3 66.7 3 6 9 1 0 1 2 5 -
p27
aVLanard Copeland PHL 04/18/1990 PHL vs. IND W 5 2 1 3 33.3 0 0 - 0 0 - 0 0 0 0 0 0 1 1 -
p28
aVRon Anderson PHL 04/18/1990 PHL vs. IND W 34 17 6 11 54.5 0 0 - 5 7 71.4 1 5 6 2 2 0 2 4 -
p29
aVKurt Nimphius PHL 04/14/1990 PHL @ CHH W 7 2 1 2 50.0 0 0 - 0 0 - 0 1 1 0 0 0 0 0 -
p30
aVScott Brooks PHL 04/14/1990 PHL @ CHH W 6 1 0 3 0.0 0 1 0.0 1 1 100.0 1 0 1 2 0 0 0 1 -
p31
aVCharles Barkley PHL 04/14/1990 PHL @ CHH W 33 32 10 12 83.3 1 1 100.0 11 13 84.6 3 4 7 4 1 0 2 4 -
p32
aVRick Mahorn PHL 04/14/1990 PHL @ CHH W 40 18 7 11 63.6 0 0 - 4 6 66.7 3 8 11 0 0 0 2 3 -
p33
aVBob Thornton PHL 04/14/1990 PHL @ CHH W 5 1 0 1 0.0 0 0 - 1 2 50.0 2 0 2 0 1 0 1 0 -
p34
aVRon Anderson PHL 04/14/1990 PHL @ CHH W 35 16 8 17 47.1 0 0 - 0 0 - 2 2 4 2 1 0 0 1 -
p35
aVJohnny Dawkins PHL 04/14/1990 PHL @ CHH W 42 17 6 15 40.0 2 4 50.0 3 3 100.0 2 2 4 9 1 0 1 4 -
p36
aVHersey Hawkins PHL 04/14/1990 PHL @ CHH W 33 7 2 11 18.2 0 4 0.0 3 3 100.0 0 3 3 3 0 0 2 2 -
p37
aVMike Gminski PHL 04/14/1990 PHL @ CHH W 36 13 4 12 33.3 0 1 0.0 5 6 83.3 3 7 10 1 0 0 1 2 -
p38
aVLanard Copeland PHL 04/14/1990 PHL @ CHH W 3 2 1 1 100.0 0 0 - 0 0 - 0 0 0 0 0 0 0 0 -
p39
aVLanard Copeland PHL 04/12/1990 PHL vs. MIN W 6 8 4 7 57.1 0 1 0.0 0 2 0.0 1 0 1 0 1 0 0 1 -
p40
aVCharles Barkley PHL 04/12/1990 PHL vs. MIN W 22 11 4 6 66.7 0 0 - 3 7 42.9 1 3 4 0 2 0 1 0 -
p41
aVHersey Hawkins PHL 04/12/1990 PHL vs. MIN W 33 19 4 10 40.0 1 3 33.3 10 10 100.0 1 3 4 3 2 0 0 2 -
p42
aVKurt Nimphius PHL 04/12/1990 PHL vs. MIN W 7 4 2 3 66.7 0 0 - 0 0 - 0 0 0 0 0 0 1 1 -
p43
aVRon Anderson PHL 04/12/1990 PHL vs. MIN W 26 20 9 14 64.3 0 0 - 2 3 66.7 2 3 5 3 0 1 1 2 -
p44
aVScott Brooks PHL 04/12/1990 PHL vs. MIN W 13 2 1 3 33.3 0 1 0.0 0 0 - 0 3 3 4 1 0 0 1 -
p45
aVMike Gminski PHL 04/12/1990 PHL vs. MIN W 30 12 6 12 50.0 0 0 - 0 0 - 4 1 5 1 1 1 2 1 -
p46
aVJohnny Dawkins PHL 04/12/1990 PHL vs. MIN W 35 14 5 9 55.6 0 2 0.0 4 4 100.0 1 2 3 6 0 0 0 1 -
p47
aVDerek Smith PHL 04/12/1990 PHL vs. MIN W 9 5 2 2 100.0 1 1 100.0 0 0 - 0 0 0 1 0 0 1 1 -
p48
aVKenny Payne PHL 04/12/1990 PHL vs. MIN W 6 2 1 2 50.0 0 0 - 0 0 - 0 1 1 0 0 2 0 1 -
p49
aVRick Mahorn PHL 04/12/1990 PHL vs. MIN W 35 11 5 10 50.0 0 0 - 1 3 33.3 3 8 11 4 3 0 3 3 -
p50
aVBob Thornton PHL 04/12/1990 PHL vs. MIN W 18 2 1 2 50.0 0 0 - 0 0 - 0 2 2 3 1 2 2 3 -
p51
aVCharles Barkley PHL 04/10/1990 PHL vs. ATL L 41 24 8 22 36.4 0 1 0.0 8 10 80.0 6 6 12 2 1 1 1 3 -
p52
aVMike Gminski PHL 04/10/1990 PHL vs. ATL L 32 17 7 9 77.8 0 0 - 3 4 75.0 2 4 6 2 1 2 2 3 -
p53
aVScott Brooks PHL 04/10/1990 PHL vs. ATL L 11 3 1 4 25.0 1 3 33.3 0 0 - 1 1 2 1 1 0 0 2 -
p54
aVRick Mahorn PHL 04/10/1990 PHL vs. ATL L 37 10 2 4 50.0 0 0 - 6 6 100.0 1 2 3 0 0 2 2 5 -
p55
aVBob Thornton PHL 04/10/1990 PHL vs. ATL L 9 0 0 1 0.0 0 0 - 0 0 - 0 0 0 0 1 0 0 1 -
p56
aVJohnny Dawkins PHL 04/10/1990 PHL vs. ATL L 37 20 6 16 37.5 1 3 33.3 7 8 87.5 4 1 5 14 3 0 2 1 -
p57
aVRon Anderson PHL 04/10/1990 PHL vs. ATL L 23 6 3 8 37.5 0 0 - 0 0 - 1 4 5 1 0 0 2 1 -
p58
aVDerek Smith PHL 04/10/1990 PHL vs. ATL L 11 4 2 3 66.7 0 1 0.0 0 0 - 1 1 2 1 0 0 2 1 -
p59
aVHersey Hawkins PHL 04/10/1990 PHL vs. ATL L 39 27 10 16 62.5 3 3 100.0 4 6 66.7 1 3 4 6 2 0 2 1 -
p60
aVHersey Hawkins PHL 04/07/1990 PHL @ ATL W 45 19 6 17 35.3 2 4 50.0 5 6 83.3 1 4 5 5 1 0 2 5 -
p61
aVDerek Smith PHL 04/07/1990 PHL @ ATL W 28 13 5 8 62.5 2 2 100.0 1 3 33.3 1 4 5 3 0 0 3 4 -
p62
aVScott Brooks PHL 04/07/1990 PHL @ ATL W 16 4 2 4 50.0 0 1 0.0 0 0 - 1 0 1 3 1 0 2 2 -
p63
aVRon Anderson PHL 04/07/1990 PHL @ ATL W 25 8 2 4 50.0 0 0 - 4 6 66.7 0 3 3 0 0 2 2 2 -
p64
aVMike Gminski PHL 04/07/1990 PHL @ ATL W 35 16 7 11 63.6 0 0 - 2 2 100.0 4 1 5 0 2 1 1 2 -
p65
aVJohnny Dawkins PHL 04/07/1990 PHL @ ATL W 32 13 6 10 60.0 0 2 0.0 1 2 50.0 1 4 5 7 0 0 3 3 -
p66
aVBob Thornton PHL 04/07/1990 PHL @ ATL W 13 0 0 2 0.0 0 0 - 0 0 - 0 2 2 0 1 0 1 2 -
p67
aVCharles Barkley PHL 04/07/1990 PHL @ ATL W 46 39 14 19 73.7 1 1 100.0 10 11 90.9 5 8 13 2 2 3 1 5 -
p68
aVHersey Hawkins PHL 04/06/1990 PHL @ NYK L 31 12 3 11 27.3 1 3 33.3 5 6 83.3 1 5 6 5 2 0 1 1 -
p69
aVCharles Barkley PHL 04/06/1990 PHL @ NYK L 44 39 13 22 59.1 2 3 66.7 11 16 68.8 11 4 15 3 1 1 4 1 -
p70
aVBob Thornton PHL 04/06/1990 PHL @ NYK L 10 1 0 0 - 0 0 - 1 2 50.0 1 2 3 0 0 0 2 3 -
p71
aVRon Anderson PHL 04/06/1990 PHL @ NYK L 19 0 0 3 0.0 0 0 - 0 0 - 0 1 1 2 0 0 0 0 -
p72
aVMike Gminski PHL 04/06/1990 PHL @ NYK L 36 14 7 16 43.8 0 0 - 0 0 - 2 9 11 0 1 1 1 2 -
p73
aVRick Mahorn PHL 04/06/1990 PHL @ NYK L 32 10 4 8 50.0 0 1 0.0 2 2 100.0 1 2 3 5 0 0 0 5 -
p74
aVJohnny Dawkins PHL 04/06/1990 PHL @ NYK L 32 13 6 14 42.9 0 2 0.0 1 2 50.0 1 1 2 6 1 0 2 1 -
p75
aVDerek Smith PHL 04/06/1990 PHL @ NYK L 20 5 1 8 12.5 0 0 - 3 4 75.0 1 2 3 0 0 1 1 3 -
p76
aVScott Brooks PHL 04/06/1990 PHL @ NYK L 16 10 4 5 80.0 0 1 0.0 2 2 100.0 0 1 1 2 1 0 0 2 -
p77
aVCharles Barkley PHL 04/03/1990 PHL vs. HOU W 37 26 11 16 68.8 1 1 100.0 3 6 50.0 3 11 14 5 2 0 4 4 -
p78
aVScott Brooks PHL 04/03/1990 PHL vs. HOU W 19 11 3 6 50.0 2 3 66.7 3 4 75.0 0 0 0 8 0 0 0 1 -
p79
aVMike Gminski PHL 04/03/1990 PHL vs. HOU W 34 16 8 16 50.0 0 1 0.0 0 0 - 6 9 15 2 1 4 1 3 -
p80
aVDerek Smith PHL 04/03/1990 PHL vs. HOU W 16 7 3 8 37.5 1 2 50.0 0 0 - 2 0 2 2 0 0 1 1 -
p81
aVLanard Copeland PHL 04/03/1990 PHL vs. HOU W 3 0 0 1 0.0 0 0 - 0 0 - 0 0 0 1 0 0 0 0 -
p82
aVKenny Payne PHL 04/03/1990 PHL vs. HOU W 4 4 2 5 40.0 0 2 0.0 0 0 - 1 0 1 0 0 0 0 0 -
p83
aVHersey Hawkins PHL 04/03/1990 PHL vs. HOU W 31 21 7 13 53.8 0 1 0.0 7 7 100.0 0 5 5 2 4 1 4 1 -
p84
aVJohnny Dawkins PHL 04/03/1990 PHL vs. HOU W 29 12 4 9 44.4 0 1 0.0 4 4 100.0 2 2 4 7 3 0 1 1 -
p85
aVRick Mahorn PHL 04/03/1990 PHL vs. HOU W 34 23 9 14 64.3 1 1 100.0 4 6 66.7 1 5 6 1 0 1 0 2 -
p86
aVKurt Nimphius PHL 04/03/1990 PHL vs. HOU W 12 4 2 3 66.7 0 0 - 0 0 - 0 0 0 0 0 1 0 2 -
p87
aVRon Anderson PHL 04/03/1990 PHL vs. HOU W 21 9 4 11 36.4 0 1 0.0 1 1 100.0 2 3 5 1 3 0 1 0 -
p88
aVHersey Hawkins PHL 04/01/1990 PHL vs. PHX W 27 16 6 11 54.5 2 3 66.7 2 2 100.0 1 3 4 1 1 0 4 1 -
p89
aVRon Anderson PHL 04/01/1990 PHL vs. PHX W 20 13 5 8 62.5 0 0 - 3 4 75.0 1 3 4 3 0 0 1 1 -
p90
aVCharles Barkley PHL 04/01/1990 PHL vs. PHX W 37 31 13 16 81.3 1 2 50.0 4 5 80.0 5 2 7 2 6 0 2 3 -
p91
aVDerek Smith PHL 04/01/1990 PHL vs. PHX W 25 10 3 6 50.0 0 0 - 4 4 100.0 1 1 2 2 1 1 0 5 -
p92
aVMike Gminski PHL 04/01/1990 PHL vs. PHX W 31 19 8 14 57.1 0 0 - 3 4 75.0 4 9 13 2 0 4 0 3 -
p93
aVKurt Nimphius PHL 04/01/1990 PHL vs. PHX W 6 0 0 3 0.0 0 0 - 0 0 - 1 0 1 2 0 1 0 1 -
p94
aVScott Brooks PHL 04/01/1990 PHL vs. PHX W 23 12 4 5 80.0 2 3 66.7 2 3 66.7 0 1 1 6 2 0 0 4 -
p95
aVJohnny Dawkins PHL 04/01/1990 PHL vs. PHX W 25 14 6 8 75.0 1 1 100.0 1 1 100.0 0 1 1 7 0 0 4 2 -
p96
aVRick Mahorn PHL 04/01/1990 PHL vs. PHX W 33 15 7 13 53.8 1 1 100.0 0 0 - 0 7 7 3 0 1 2 2 -
p97
aVLanard Copeland PHL 04/01/1990 PHL vs. PHX W 6 4 2 3 66.7 0 0 - 0 0 - 0 1 1 0 0 0 3 3 -
p98
aVKenny Payne PHL 04/01/1990 PHL vs. PHX W 7 7 3 4 75.0 1 1 100.0 0 0 - 0 0 0 0 0 0 1 0 -
p99
aVRick Mahorn PHL 03/30/1990 PHL vs. DEN W 25 11 3 5 60.0 0 0 - 5 6 83.3 1 8 9 3 0 0 0 2 -
p100
aVKurt Nimphius PHL 03/30/1990 PHL vs. DEN W 15 5 2 5 40.0 0 1 0.0 1 2 50.0 0 3 3 2 0 2 0 3 -
p101
aVHersey Hawkins PHL 03/30/1990 PHL vs. DEN W 32 25 8 13 61.5 1 1 100.0 8 9 88.9 1 3 4 3 1 2 1 3 -
p102
aVScott Brooks PHL 03/30/1990 PHL vs. DEN W 17 9 3 5 60.0 2 3 66.7 1 2 50.0 1 0 1 4 2 0 0 2 -
p103
aVJohnny Dawkins PHL 03/30/1990 PHL vs. DEN W 31 10 3 7 42.9 0 0 - 4 4 100.0 0 2 2 12 2 0 3 0 -
p104
aVLanard Copeland PHL 03/30/1990 PHL vs. DEN W 7 4 2 5 40.0 0 0 - 0 0 - 0 0 0 0 0 0 1 0 -
p105
aVDerek Smith PHL 03/30/1990 PHL vs. DEN W 18 12 5 6 83.3 0 0 - 2 2 100.0 1 2 3 1 0 0 2 6 -
p106
aVKenny Payne PHL 03/30/1990 PHL vs. DEN W 11 1 0 7 0.0 0 1 0.0 1 2 50.0 1 0 1 1 0 0 3 2 -
p107
aVCharles Barkley PHL 03/30/1990 PHL vs. DEN W 29 38 14 16 87.5 1 1 100.0 9 14 64.3 7 6 13 3 2 0 2 3 -
p108
aVRon Anderson PHL 03/30/1990 PHL vs. DEN W 31 16 5 10 50.0 0 0 - 6 6 100.0 1 5 6 1 2 0 1 2 -
p109
aVMike Gminski PHL 03/30/1990 PHL vs. DEN W 24 18 8 15 53.3 0 1 0.0 2 5 40.0 2 8 10 3 0 1 3 0 -
p110
aVDerek Smith PHL 03/28/1990 PHL vs. BOS W 14 6 3 9 33.3 0 1 0.0 0 0 - 2 1 3 2 0 0 2 2 -
p111
aVLanard Copeland PHL 03/28/1990 PHL vs. BOS W 3 2 0 1 0.0 0 0 - 2 2 100.0 0 0 0 0 0 0 1 0 -
p112
aVJohnny Dawkins PHL 03/28/1990 PHL vs. BOS W 34 20 8 11 72.7 1 2 50.0 3 3 100.0 0 3 3 10 2 1 1 2 -
p113
aVRon Anderson PHL 03/28/1990 PHL vs. BOS W 33 21 10 16 62.5 0 0 - 1 2 50.0 3 3 6 1 4 0 0 2 -
p114
aVKenny Payne PHL 03/28/1990 PHL vs. BOS W 3 2 0 2 0.0 0 1 0.0 2 2 100.0 0 0 0 0 1 0 0 0 -
p115
aVMike Gminski PHL 03/28/1990 PHL vs. BOS W 32 14 6 11 54.5 0 0 - 2 3 66.7 4 8 12 2 1 3 0 2 -
p116
aVKurt Nimphius PHL 03/28/1990 PHL vs. BOS W 3 0 0 1 0.0 0 0 - 0 0 - 1 0 1 0 0 0 0 1 -
p117
aVScott Brooks PHL 03/28/1990 PHL vs. BOS W 14 4 2 3 66.7 0 0 - 0 0 - 0 0 0 0 0 0 0 1 -
p118
aVHersey Hawkins PHL 03/28/1990 PHL vs. BOS W 31 21 8 16 50.0 1 2 50.0 4 4 100.0 1 3 4 1 1 1 1 3 -
p119
aVCharles Barkley PHL 03/28/1990 PHL vs. BOS W 37 22 7 15 46.7 0 1 0.0 8 9 88.9 3 7 10 8 0 0 1 2 -
p120
aVBob Thornton PHL 03/28/1990 PHL vs. BOS W 13 2 1 3 33.3 0 0 - 0 0 - 2 2 4 1 0 1 1 2 -
p121
aVRick Mahorn PHL 03/28/1990 PHL vs. BOS W 23 8 4 13 30.8 0 0 - 0 1 0.0 3 4 7 0 0 2 2 4 -
p122
aVKenny Payne PHL 03/24/1990 PHL @ WAS W 4 0 0 2 0.0 0 1 0.0 0 0 - 0 0 0 0 0 0 0 2 -
p123
aVHersey Hawkins PHL 03/24/1990 PHL @ WAS W 41 21 9 22 40.9 0 2 0.0 3 4 75.0 4 0 4 1 3 0 0 2 -
p124
aVScott Brooks PHL 03/24/1990 PHL @ WAS W 4 0 0 2 0.0 0 0 - 0 0 - 0 0 0 0 0 0 0 0 -
p125
aVRick Mahorn PHL 03/24/1990 PHL @ WAS W 39 18 7 13 53.8 0 0 - 4 6 66.7 1 6 7 0 1 0 3 4 -
p126
aVCharles Barkley PHL 03/24/1990 PHL @ WAS W 43 29 11 18 61.1 0 2 0.0 7 10 70.0 8 12 20 4 2 1 4 6 -
p127
aVBob Thornton PHL 03/24/1990 PHL @ WAS W 18 5 2 3 66.7 0 0 - 1 1 100.0 4 4 8 1 0 1 3 3 -
p128
aVRon Anderson PHL 03/24/1990 PHL @ WAS W 38 12 5 14 35.7 1 2 50.0 1 1 100.0 3 3 6 1 2 0 2 4 -
p129
aVMike Gminski PHL 03/24/1990 PHL @ WAS W 31 12 5 10 50.0 0 0 - 2 2 100.0 3 4 7 1 1 1 2 3 -
p130
aVJohnny Dawkins PHL 03/24/1990 PHL @ WAS W 47 17 5 19 26.3 0 1 0.0 7 7 100.0 2 3 5 8 0 0 1 3 -
p131
aVRick Mahorn PHL 03/23/1990 PHL vs. SAC W 36 16 8 16 50.0 0 1 0.0 0 1 0.0 0 9 9 1 1 3 1 3 -
p132
aVKenny Payne PHL 03/23/1990 PHL vs. SAC W 3 3 1 3 33.3 1 1 100.0 0 0 - 0 0 0 0 0 0 1 0 -
p133
aVCharles Barkley PHL 03/23/1990 PHL vs. SAC W 35 12 6 18 33.3 0 2 0.0 0 0 - 7 14 21 4 0 0 2 4 -
p134
aVLanard Copeland PHL 03/23/1990 PHL vs. SAC W 3 4 1 1 100.0 0 0 - 2 2 100.0 0 0 0 1 0 0 1 0 -
p135
aVMike Gminski PHL 03/23/1990 PHL vs. SAC W 31 14 4 11 36.4 0 0 - 6 6 100.0 4 4 8 3 0 3 1 2 -
p136
aVRon Anderson PHL 03/23/1990 PHL vs. SAC W 29 16 7 15 46.7 0 0 - 2 2 100.0 2 4 6 0 1 0 0 0 -
p137
aVKurt Nimphius PHL 03/23/1990 PHL vs. SAC W 3 2 1 1 100.0 0 0 - 0 0 - 0 0 0 0 0 0 0 1 -
p138
aVJohnny Dawkins PHL 03/23/1990 PHL vs. SAC W 28 18 4 9 44.4 1 2 50.0 9 10 90.0 1 2 3 3 1 0 2 3 -
p139
aVBob Thornton PHL 03/23/1990 PHL vs. SAC W 16 4 1 2 50.0 0 0 - 2 2 100.0 0 4 4 2 1 0 1 4 -
p140
aVScott Brooks PHL 03/23/1990 PHL vs. SAC W 17 5 2 4 50.0 0 0 - 1 2 50.0 0 1 1 4 1 0 1 2 -
p141
aVHersey Hawkins PHL 03/23/1990 PHL vs. SAC W 39 21 6 18 33.3 1 2 50.0 8 8 100.0 2 1 3 2 5 1 1 3 -
p142
aVKenny Payne PHL 03/21/1990 PHL vs. MIA W 10 7 3 7 42.9 0 0 - 1 1 100.0 2 2 4 0 0 0 1 1 -
p143
aVLanard Copeland PHL 03/21/1990 PHL vs. MIA W 4 2 1 4 25.0 0 0 - 0 0 - 0 0 0 0 0 0 0 0 -
p144
aVScott Brooks PHL 03/21/1990 PHL vs. MIA W 14 5 2 3 66.7 1 1 100.0 0 0 - 0 2 2 5 2 0 1 1 -
p145
aVRon Anderson PHL 03/21/1990 PHL vs. MIA W 22 15 6 8 75.0 0 0 - 3 3 100.0 0 3 3 3 1 0 2 3 -
p146
aVRick Mahorn PHL 03/21/1990 PHL vs. MIA W 31 13 6 11 54.5 0 0 - 1 3 33.3 1 4 5 2 0 2 1 3 -
p147
aVBob Thornton PHL 03/21/1990 PHL vs. MIA W 21 5 2 3 66.7 0 0 - 1 3 33.3 1 1 2 3 2 0 0 3 -
p148
aVCharles Barkley PHL 03/21/1990 PHL vs. MIA W 34 19 5 9 55.6 0 1 0.0 9 13 69.2 1 4 5 3 0 0 4 3 -
p149
aVHersey Hawkins PHL 03/21/1990 PHL vs. MIA W 39 25 8 15 53.3 2 4 50.0 7 7 100.0 2 1 3 6 4 1 4 2 -
p150
aVJohnny Dawkins PHL 03/21/1990 PHL vs. MIA W 34 13 5 10 50.0 1 3 33.3 2 2 100.0 0 2 2 9 0 0 0 2 -
p151
aVMike Gminski PHL 03/21/1990 PHL vs. MIA W 27 12 4 7 57.1 0 0 - 4 4 100.0 1 10 11 0 0 3 2 0 -
p152
aVKurt Nimphius PHL 03/21/1990 PHL vs. MIA W 4 2 1 1 100.0 0 0 - 0 0 - 0 0 0 0 0 1 0 1 -
p153
aVScott Brooks PHL 03/19/1990 PHL @ NJN W 17 5 2 2 100.0 0 0 - 1 1 100.0 0 1 1 3 0 0 0 0 -
p154
aVKenny Payne PHL 03/19/1990 PHL @ NJN W 1 0 0 0 - 0 0 - 0 0 - 0 0 0 0 0 0 0 0 -
p155
aVRon Anderson PHL 03/19/1990 PHL @ NJN W 30 10 5 10 50.0 0 1 0.0 0 0 - 2 3 5 3 1 1 3 3 -
p156
aVDerek Smith PHL 03/19/1990 PHL @ NJN W 29 15 6 10 60.0 0 2 0.0 3 4 75.0 0 2 2 2 2 0 1 4 -
p157
aVMike Gminski PHL 03/19/1990 PHL @ NJN W 30 12 6 17 35.3 0 0 - 0 2 0.0 1 7 8 1 0 0 1 0 -
p158
aVJohnny Dawkins PHL 03/19/1990 PHL @ NJN W 31 14 6 8 75.0 1 1 100.0 1 2 50.0 1 0 1 6 1 0 3 3 -
p159
aVCharles Barkley PHL 03/19/1990 PHL @ NJN W 45 29 10 15 66.7 0 2 0.0 9 13 69.2 3 12 15 10 5 2 7 3 -
p160
aVHersey Hawkins PHL 03/19/1990 PHL @ NJN W 36 21 7 15 46.7 2 3 66.7 5 5 100.0 1 1 2 1 2 0 5 3 -
p161
aVBob Thornton PHL 03/19/1990 PHL @ NJN W 21 2 1 3 33.3 0 0 - 0 0 - 1 2 3 0 1 0 0 3 -
p162
aVScott Brooks PHL 03/17/1990 PHL @ CHI L 4 1 0 0 - 0 0 - 1 1 100.0 0 0 0 2 1 0 0 1 -
p163
aVCharles Barkley PHL 03/17/1990 PHL @ CHI L 41 26 8 17 47.1 0 3 0.0 10 15 66.7 0 4 4 3 0 0 2 4 -
p164
aVHersey Hawkins PHL 03/17/1990 PHL @ CHI L 43 16 4 10 40.0 0 1 0.0 8 10 80.0 0 5 5 3 2 0 0 3 -
p165
aVBob Thornton PHL 03/17/1990 PHL @ CHI L 16 3 1 2 50.0 0 0 - 1 2 50.0 1 3 4 0 0 1 0 4 -
p166
aVRon Anderson PHL 03/17/1990 PHL @ CHI L 30 30 11 17 64.7 1 1 100.0 7 8 87.5 3 1 4 1 2 0 1 2 -
p167
aVJohnny Dawkins PHL 03/17/1990 PHL @ CHI L 44 10 5 15 33.3 0 0 - 0 0 - 1 5 6 11 1 0 4 2 -
p168
aVMike Gminski PHL 03/17/1990 PHL @ CHI L 35 10 5 9 55.6 0 0 - 0 0 - 4 5 9 2 1 2 1 1 -
p169
aVDerek Smith PHL 03/17/1990 PHL @ CHI L 27 13 5 7 71.4 0 1 0.0 3 4 75.0 2 2 4 1 2 0 3 3 -
p170
aVRon Anderson PHL 03/16/1990 PHL vs. NJN W 21 10 3 9 33.3 0 0 - 4 4 100.0 1 0 1 1 0 0 1 0 -
p171
aVCharles Barkley PHL 03/16/1990 PHL vs. NJN W 44 25 8 11 72.7 1 1 100.0 8 11 72.7 6 12 18 7 3 1 8 4 -
p172
aVMike Gminski PHL 03/16/1990 PHL vs. NJN W 38 18 7 17 41.2 0 1 0.0 4 4 100.0 4 4 8 3 0 1 0 1 -
p173
aVDerek Smith PHL 03/16/1990 PHL vs. NJN W 35 20 7 13 53.8 1 3 33.3 5 8 62.5 4 4 8 3 3 0 2 5 -
p174
aVScott Brooks PHL 03/16/1990 PHL vs. NJN W 5 0 0 2 0.0 0 0 - 0 0 - 0 1 1 1 0 0 0 0 -
p175
aVKurt Nimphius PHL 03/16/1990 PHL vs. NJN W 1 0 0 0 - 0 0 - 0 0 - 0 0 0 0 0 0 0 2 -
p176
aVHersey Hawkins PHL 03/16/1990 PHL vs. NJN W 40 25 8 15 53.3 0 2 0.0 9 9 100.0 1 1 2 1 2 1 3 4 -
p177
aVJohnny Dawkins PHL 03/16/1990 PHL vs. NJN W 43 17 6 13 46.2 0 0 - 5 6 83.3 1 4 5 9 1 0 2 3 -
p178
aVBob Thornton PHL 03/16/1990 PHL vs. NJN W 13 4 2 3 66.7 0 0 - 0 0 - 1 2 3 0 0 0 1 2 -
p179
aVHersey Hawkins PHL 03/14/1990 PHL vs. LAL W 40 24 6 12 50.0 2 2 100.0 10 12 83.3 0 2 2 2 0 0 0 3 -
p180
aVMike Gminski PHL 03/14/1990 PHL vs. LAL W 32 6 3 10 30.0 0 0 - 0 0 - 1 6 7 6 1 0 1 3 -
p181
aVScott Brooks PHL 03/14/1990 PHL vs. LAL W 8 2 1 3 33.3 0 2 0.0 0 0 - 0 0 0 0 1 0 0 0 -
p182
aVBob Thornton PHL 03/14/1990 PHL vs. LAL W 9 2 1 2 50.0 0 0 - 0 0 - 1 0 1 0 0 0 0 1 -
p183
aVRon Anderson PHL 03/14/1990 PHL vs. LAL W 15 4 2 6 33.3 0 0 - 0 0 - 1 1 2 1 0 0 1 2 -
p184
aVDerek Smith PHL 03/14/1990 PHL vs. LAL W 25 9 3 9 33.3 0 1 0.0 3 3 100.0 1 1 2 3 1 0 0 3 -
p185
aVRick Mahorn PHL 03/14/1990 PHL vs. LAL W 27 4 2 6 33.3 0 0 - 0 0 - 0 3 3 1 0 1 1 4 -
p186
aVJohnny Dawkins PHL 03/14/1990 PHL vs. LAL W 40 30 13 19 68.4 1 1 100.0 3 6 50.0 1 4 5 10 2 0 3 3 -
p187
aVCharles Barkley PHL 03/14/1990 PHL vs. LAL W 44 35 11 17 64.7 0 0 - 13 16 81.3 6 13 19 6 2 0 2 3 -
p188
aVRon Anderson PHL 03/13/1990 PHL @ CLE L 23 10 5 11 45.5 0 1 0.0 0 0 - 1 4 5 1 0 0 0 3 -
p189
aVScott Brooks PHL 03/13/1990 PHL @ CLE L 9 2 1 3 33.3 0 0 - 0 0 - 0 0 0 3 0 0 0 0 -
p190
aVJohnny Dawkins PHL 03/13/1990 PHL @ CLE L 39 11 4 11 36.4 1 3 33.3 2 2 100.0 1 1 2 5 0 1 3 3 -
p191
aVCharles Barkley PHL 03/13/1990 PHL @ CLE L 44 29 12 18 66.7 0 2 0.0 5 6 83.3 6 4 10 5 2 0 3 4 -
p192
aVLanard Copeland PHL 03/13/1990 PHL @ CLE L 1 0 0 0 - 0 0 - 0 0 - 0 0 0 0 0 0 0 0 -
p193
aVKenny Payne PHL 03/13/1990 PHL @ CLE L 2 0 0 1 0.0 0 0 - 0 0 - 0 0 0 0 0 0 0 0 -
p194
aVDerek Smith PHL 03/13/1990 PHL @ CLE L 16 10 5 9 55.6 0 1 0.0 0 1 0.0 0 0 0 1 0 0 2 2 -
p195
aVHersey Hawkins PHL 03/13/1990 PHL @ CLE L 33 23 6 14 42.9 2 3 66.7 9 9 100.0 3 2 5 2 0 0 4 0 -
p196
aVMike Gminski PHL 03/13/1990 PHL @ CLE L 30 4 2 7 28.6 0 0 - 0 0 - 1 9 10 1 2 1 1 3 -
p197
aVRick Mahorn PHL 03/13/1990 PHL @ CLE L 31 10 5 9 55.6 0 0 - 0 0 - 3 4 7 0 0 2 1 4 -
p198
aVBob Thornton PHL 03/13/1990 PHL @ CLE L 12 3 1 3 33.3 0 0 - 1 2 50.0 1 1 2 1 0 0 1 4 -
p199
aVCharles Barkley PHL 03/11/1990 PHL @ BOS L 42 22 7 17 41.2 1 2 50.0 7 12 58.3 3 6 9 7 2 0 3 3 -
p200
aVMike Gminski PHL 03/11/1990 PHL @ BOS L 24 4 2 10 20.0 0 0 - 0 0 - 2 5 7 1 0 0 0 1 -
p201
aVHersey Hawkins PHL 03/11/1990 PHL @ BOS L 32 12 5 10 50.0 1 2 50.0 1 1 100.0 1 2 3 1 2 0 1 2 -
p202
aVBob Thornton PHL 03/11/1990 PHL @ BOS L 12 2 1 4 25.0 0 0 - 0 0 - 2 2 4 0 0 0 1 5 -
p203
aVScott Brooks PHL 03/11/1990 PHL @ BOS L 12 1 0 3 0.0 0 2 0.0 1 1 100.0 0 0 0 1 0 0 0 2 -
p204
aVJohnny Dawkins PHL 03/11/1990 PHL @ BOS L 36 23 10 14 71.4 1 3 33.3 2 2 100.0 0 1 1 9 0 0 3 4 -
p205
aVRick Mahorn PHL 03/11/1990 PHL @ BOS L 42 14 5 10 50.0 0 0 - 4 7 57.1 3 5 8 3 0 0 1 3 -
p206
aVRon Anderson PHL 03/11/1990 PHL @ BOS L 19 12 5 8 62.5 0 0 - 2 2 100.0 0 3 3 1 0 0 0 1 -
p207
aVDerek Smith PHL 03/11/1990 PHL @ BOS L 21 15 4 5 80.0 0 0 - 7 8 87.5 1 1 2 1 0 0 0 4 -
p208
aVRon Anderson PHL 03/09/1990 PHL vs. POR L 19 8 3 10 30.0 0 0 - 2 2 100.0 1 2 3 0 1 0 0 1 -
p209
aVBob Thornton PHL 03/09/1990 PHL vs. POR L 5 0 0 0 - 0 0 - 0 0 - 0 0 0 0 0 0 0 1 -
p210
aVScott Brooks PHL 03/09/1990 PHL vs. POR L 18 7 3 5 60.0 1 3 33.3 0 0 - 0 0 0 3 1 0 0 3 -
p211
aVRick Mahorn PHL 03/09/1990 PHL vs. POR L 38 5 1 6 16.7 0 0 - 3 4 75.0 3 6 9 1 1 3 0 2 -
p212
aVDerek Smith PHL 03/09/1990 PHL vs. POR L 4 0 0 4 0.0 0 1 0.0 0 0 - 0 0 0 0 1 0 0 0 -
p213
aVHersey Hawkins PHL 03/09/1990 PHL vs. POR L 43 26 7 15 46.7 0 1 0.0 12 12 100.0 1 1 2 2 2 1 1 2 -
p214
aVMike Gminski PHL 03/09/1990 PHL vs. POR L 37 16 6 14 42.9 0 0 - 4 4 100.0 2 3 5 1 2 2 1 2 -
p215
aVJohnny Dawkins PHL 03/09/1990 PHL vs. POR L 30 7 3 9 33.3 1 2 50.0 0 0 - 0 3 3 2 0 0 2 1 -
p216
aVCharles Barkley PHL 03/09/1990 PHL vs. POR L 46 31 10 16 62.5 1 1 100.0 10 14 71.4 4 7 11 2 2 1 4 3 -
p217
aVBob Thornton PHL 03/07/1990 PHL vs. NYK W 3 0 0 0 - 0 0 - 0 0 - 0 0 0 0 1 0 0 1 -
p218
aVLanard Copeland PHL 03/07/1990 PHL vs. NYK W 2 4 1 3 33.3 0 0 - 2 2 100.0 0 0 0 0 0 0 0 1 -
p219
aVKurt Nimphius PHL 03/07/1990 PHL vs. NYK W 3 2 1 2 50.0 0 0 - 0 1 0.0 1 1 2 1 0 0 0 1 -
p220
aVRick Mahorn PHL 03/07/1990 PHL vs. NYK W 16 10 5 7 71.4 0 0 - 0 0 - 3 6 9 0 0 1 1 2 -
p221
aVDerek Smith PHL 03/07/1990 PHL vs. NYK W 30 12 4 8 50.0 1 1 100.0 3 4 75.0 1 2 3 1 0 0 1 3 -
p222
aVScott Brooks PHL 03/07/1990 PHL vs. NYK W 22 12 4 8 50.0 1 2 50.0 3 3 100.0 1 2 3 5 4 0 0 0 -
p223
aVRon Anderson PHL 03/07/1990 PHL vs. NYK W 24 11 4 8 50.0 1 1 100.0 2 2 100.0 0 1 1 1 0 0 1 2 -
p224
aVJohnny Dawkins PHL 03/07/1990 PHL vs. NYK W 26 4 2 5 40.0 0 0 - 0 0 - 0 1 1 2 2 0 1 1 -
p225
aVMike Gminski PHL 03/07/1990 PHL vs. NYK W 31 12 6 19 31.6 0 0 - 0 0 - 5 7 12 2 0 2 0 1 -
p226
aVKenny Payne PHL 03/07/1990 PHL vs. NYK W 3 2 1 1 100.0 0 0 - 0 0 - 0 1 1 1 0 0 1 1 -
p227
aVHersey Hawkins PHL 03/07/1990 PHL vs. NYK W 38 26 9 17 52.9 3 5 60.0 5 5 100.0 0 4 4 1 1 0 3 4 -
p228
aVCharles Barkley PHL 03/07/1990 PHL vs. NYK W 42 15 6 12 50.0 1 1 100.0 2 4 50.0 3 9 12 11 2 1 2 4 -
p229
aVLanard Copeland PHL 03/05/1990 PHL vs. LAC W 7 8 3 5 60.0 0 0 - 2 2 100.0 0 2 2 2 0 0 1 0 -
p230
aVCharles Barkley PHL 03/05/1990 PHL vs. LAC W 29 11 5 8 62.5 0 1 0.0 1 2 50.0 2 5 7 9 2 0 3 3 -
p231
aVMike Gminski PHL 03/05/1990 PHL vs. LAC W 30 25 11 14 78.6 1 2 50.0 2 4 50.0 1 9 10 2 0 0 0 2 -
p232
aVScott Brooks PHL 03/05/1990 PHL vs. LAC W 21 8 3 5 60.0 2 2 100.0 0 0 - 0 1 1 8 1 0 1 3 -
p233
aVHersey Hawkins PHL 03/05/1990 PHL vs. LAC W 31 28 9 16 56.3 1 3 33.3 9 11 81.8 5 4 9 2 2 0 5 2 -
p234
aVKenny Payne PHL 03/05/1990 PHL vs. LAC W 12 8 4 5 80.0 0 0 - 0 0 - 0 1 1 0 2 0 1 2 -
p235
aVKurt Nimphius PHL 03/05/1990 PHL vs. LAC W 7 2 1 4 25.0 0 0 - 0 0 - 0 1 1 0 0 0 0 1 -
p236
aVBob Thornton PHL 03/05/1990 PHL vs. LAC W 18 0 0 4 0.0 0 0 - 0 0 - 1 4 5 0 0 0 1 4 -
p237
aVJohnny Dawkins PHL 03/05/1990 PHL vs. LAC W 30 9 4 9 44.4 1 3 33.3 0 0 - 0 1 1 9 2 0 3 1 -
p238
aVDerek Smith PHL 03/05/1990 PHL vs. LAC W 32 16 6 11 54.5 0 1 0.0 4 4 100.0 1 3 4 3 1 1 1 3 -
p239
aVRon Anderson PHL 03/05/1990 PHL vs. LAC W 23 13 6 12 50.0 0 0 - 1 2 50.0 2 7 9 2 2 0 0 1 -
p240
aVCharles Barkley PHL 03/02/1990 PHL @ DET L 50 26 9 23 39.1 0 2 0.0 8 11 72.7 5 9 14 3 0 0 5 4 -
p241
aVMike Gminski PHL 03/02/1990 PHL @ DET L 38 13 5 9 55.6 0 0 - 3 6 50.0 0 10 10 1 0 0 1 0 -
p242
aVDerek Smith PHL 03/02/1990 PHL @ DET L 32 15 5 14 35.7 1 2 50.0 4 5 80.0 2 1 3 2 2 0 2 4 -
p243
aVRon Anderson PHL 03/02/1990 PHL @ DET L 27 16 6 10 60.0 0 0 - 4 4 100.0 3 2 5 0 0 1 1 4 -
p244
aVScott Brooks PHL 03/02/1990 PHL @ DET L 44 20 7 13 53.8 1 2 50.0 5 5 100.0 1 2 3 7 0 0 1 5 -
p245
aVKenny Payne PHL 03/02/1990 PHL @ DET L 1 0 0 0 - 0 0 - 0 0 - 0 0 0 0 0 0 0 0 -
p246
aVBob Thornton PHL 03/02/1990 PHL @ DET L 10 0 0 1 0.0 0 0 - 0 2 0.0 0 0 0 0 0 0 0 0 -
p247
aVRick Mahorn PHL 03/02/1990 PHL @ DET L 37 20 6 11 54.5 0 0 - 8 12 66.7 2 5 7 1 0 1 0 6 -
p248
aVHersey Hawkins PHL 03/02/1990 PHL @ DET L 26 2 0 4 0.0 0 0 - 2 2 100.0 0 2 2 1 0 1 5 6 -
p249
aVBob Thornton PHL 03/01/1990 PHL @ NYK W 13 0 0 1 0.0 0 0 - 0 0 - 0 0 0 0 0 1 1 1 -
p250
aVScott Brooks PHL 03/01/1990 PHL @ NYK W 18 3 1 4 25.0 0 2 0.0 1 1 100.0 0 1 1 3 0 0 0 2 -
p251
aVRon Anderson PHL 03/01/1990 PHL @ NYK W 12 2 1 7 14.3 0 1 0.0 0 0 - 0 3 3 2 0 0 1 0 -
p252
aVHersey Hawkins PHL 03/01/1990 PHL @ NYK W 36 24 8 17 47.1 0 2 0.0 8 8 100.0 2 3 5 2 1 0 1 1 -
p253
aVMike Gminski PHL 03/01/1990 PHL @ NYK W 35 16 8 14 57.1 0 1 0.0 0 0 - 1 5 6 2 1 0 1 1 -
p254
aVJohnny Dawkins PHL 03/01/1990 PHL @ NYK W 27 2 1 7 14.3 0 1 0.0 0 0 - 0 3 3 6 0 0 1 2 -
p255
aVRick Mahorn PHL 03/01/1990 PHL @ NYK W 37 15 5 11 45.5 0 0 - 5 8 62.5 3 4 7 2 2 1 2 2 -
p256
aVDerek Smith PHL 03/01/1990 PHL @ NYK W 18 11 2 7 28.6 1 1 100.0 6 6 100.0 1 3 4 1 1 0 0 3 -
p257
aVCharles Barkley PHL 03/01/1990 PHL @ NYK W 44 32 13 21 61.9 2 3 66.7 4 4 100.0 5 10 15 2 1 2 1 2 -
p258
aVBob Thornton PHL 02/26/1990 PHL vs. ORL W 11 0 0 1 0.0 0 0 - 0 0 - 2 2 4 0 1 0 1 3 -
p259
aVJohnny Dawkins PHL 02/26/1990 PHL vs. ORL W 8 4 2 2 100.0 0 0 - 0 0 - 0 0 0 2 0 0 0 0 -
p260
aVScott Brooks PHL 02/26/1990 PHL vs. ORL W 36 10 4 10 40.0 1 4 25.0 1 1 100.0 0 0 0 8 1 0 3 2 -
p261
aVRon Anderson PHL 02/26/1990 PHL vs. ORL W 23 12 6 12 50.0 0 1 0.0 0 0 - 1 2 3 2 1 0 0 1 -
p262
aVCharles Barkley PHL 02/26/1990 PHL vs. ORL W 33 25 10 18 55.6 0 0 - 5 6 83.3 3 7 10 3 2 0 2 4 -
p263
aVMike Gminski PHL 02/26/1990 PHL vs. ORL W 30 20 6 10 60.0 0 1 0.0 8 8 100.0 0 8 8 0 0 1 1 1 -
p264
aVKurt Nimphius PHL 02/26/1990 PHL vs. ORL W 3 2 0 2 0.0 0 0 - 2 4 50.0 0 0 0 0 0 0 0 2 -
p265
aVLanard Copeland PHL 02/26/1990 PHL vs. ORL W 3 2 1 3 33.3 0 1 0.0 0 0 - 0 0 0 0 0 0 1 0 -
p266
aVKenny Payne PHL 02/26/1990 PHL vs. ORL W 5 6 3 3 100.0 0 0 - 0 0 - 0 1 1 0 1 0 0 1 -
p267
aVRick Mahorn PHL 02/26/1990 PHL vs. ORL W 35 14 6 12 50.0 0 0 - 2 2 100.0 6 9 15 4 1 1 1 3 -
p268
aVDerek Smith PHL 02/26/1990 PHL vs. ORL W 20 12 4 6 66.7 1 1 100.0 3 4 75.0 0 4 4 2 0 0 0 2 -
p269
aVHersey Hawkins PHL 02/26/1990 PHL vs. ORL W 33 22 8 16 50.0 2 4 50.0 4 6 66.7 0 1 1 8 3 2 4 0 -
p270
aVRon Anderson PHL 02/24/1990 PHL @ PHX L 25 9 4 11 36.4 0 1 0.0 1 1 100.0 0 3 3 1 1 0 0 1 -
p271
aVBob Thornton PHL 02/24/1990 PHL @ PHX L 24 4 2 4 50.0 0 0 - 0 4 0.0 4 6 10 1 2 0 2 6 -
p272
aVKurt Nimphius PHL 02/24/1990 PHL @ PHX L 15 2 1 6 16.7 0 0 - 0 2 0.0 1 1 2 0 0 0 1 2 -
p273
aVKenny Payne PHL 02/24/1990 PHL @ PHX L 13 8 4 9 44.4 0 0 - 0 0 - 2 1 3 1 0 0 2 4 -
p274
aVDerek Smith PHL 02/24/1990 PHL @ PHX L 20 16 5 10 50.0 2 2 100.0 4 4 100.0 3 1 4 3 1 0 0 5 -
p275
aVRick Mahorn PHL 02/24/1990 PHL @ PHX L 10 2 1 1 100.0 0 0 - 0 0 - 0 0 0 0 0 1 1 4 -
p276
aVMike Gminski PHL 02/24/1990 PHL @ PHX L 26 6 2 7 28.6 0 0 - 2 2 100.0 2 4 6 0 0 0 2 1 -
p277
aVLanard Copeland PHL 02/24/1990 PHL @ PHX L 9 6 3 4 75.0 0 0 - 0 0 - 0 1 1 0 0 1 1 0 -
p278
aVCharles Barkley PHL 02/24/1990 PHL @ PHX L 26 12 5 10 50.0 0 0 - 2 3 66.7 2 2 4 4 0 1 4 4 -
p279
aVScott Brooks PHL 02/24/1990 PHL @ PHX L 19 11 3 5 60.0 2 3 66.7 3 4 75.0 1 1 2 10 1 0 2 0 -
p280
aVHersey Hawkins PHL 02/24/1990 PHL @ PHX L 24 14 7 14 50.0 0 1 0.0 0 1 0.0 0 2 2 0 0 1 5 3 -
p281
aVJohnny Dawkins PHL 02/24/1990 PHL @ PHX L 29 9 4 9 44.4 0 0 - 1 1 100.0 1 6 7 5 0 0 3 2 -
p282
aVCharles Barkley PHL 02/23/1990 PHL @ LAL L 45 32 12 20 60.0 0 2 0.0 8 10 80.0 7 8 15 5 0 0 2 4 -
p283
aVJohnny Dawkins PHL 02/23/1990 PHL @ LAL L 35 19 8 16 50.0 0 0 - 3 3 100.0 1 1 2 6 1 0 2 0 -
p284
aVDerek Smith PHL 02/23/1990 PHL @ LAL L 22 15 7 11 63.6 0 0 - 1 4 25.0 0 1 1 1 0 1 1 3 -
p285
aVHersey Hawkins PHL 02/23/1990 PHL @ LAL L 26 9 4 15 26.7 1 2 50.0 0 1 0.0 1 1 2 4 2 0 1 2 -
p286
aVMike Gminski PHL 02/23/1990 PHL @ LAL L 23 8 4 8 50.0 0 0 - 0 0 - 3 3 6 0 2 0 1 2 -
p287
aVRon Anderson PHL 02/23/1990 PHL @ LAL L 27 8 3 10 30.0 0 0 - 2 2 100.0 1 2 3 3 2 0 1 2 -
p288
aVRick Mahorn PHL 02/23/1990 PHL @ LAL L 36 12 4 10 40.0 0 0 - 4 4 100.0 3 5 8 2 3 1 0 4 -
p289
aVBob Thornton PHL 02/23/1990 PHL @ LAL L 14 5 2 3 66.7 0 0 - 1 1 100.0 2 1 3 0 0 0 0 0 -
p290
aVScott Brooks PHL 02/23/1990 PHL @ LAL L 12 8 3 6 50.0 2 4 50.0 0 0 - 0 1 1 3 0 0 0 3 -
p291
aVRick Mahorn PHL 02/21/1990 PHL @ GOS W 31 9 3 12 25.0 0 1 0.0 3 4 75.0 2 8 10 1 1 1 2 4 -
p292
aVJohnny Dawkins PHL 02/21/1990 PHL @ GOS W 38 13 6 11 54.5 1 2 50.0 0 0 - 1 5 6 4 2 0 3 2 -
p293
aVCharles Barkley PHL 02/21/1990 PHL @ GOS W 44 24 9 18 50.0 1 5 20.0 5 6 83.3 4 7 11 6 1 1 1 3 -
p294
aVScott Brooks PHL 02/21/1990 PHL @ GOS W 10 7 3 4 75.0 1 2 50.0 0 0 - 0 2 2 2 0 0 0 4 -
p295
aVMike Gminski PHL 02/21/1990 PHL @ GOS W 32 8 2 10 20.0 0 0 - 4 4 100.0 6 7 13 6 1 1 0 2 -
p296
aVBob Thornton PHL 02/21/1990 PHL @ GOS W 10 2 1 2 50.0 0 0 - 0 0 - 0 2 2 0 0 0 1 2 -
p297
aVRon Anderson PHL 02/21/1990 PHL @ GOS W 23 6 3 5 60.0 0 0 - 0 0 - 1 0 1 1 0 1 1 3 -
p298
aVDerek Smith PHL 02/21/1990 PHL @ GOS W 20 11 5 9 55.6 0 1 0.0 1 2 50.0 1 4 5 0 0 1 0 1 -
p299
aVHersey Hawkins PHL 02/21/1990 PHL @ GOS W 32 16 5 15 33.3 3 5 60.0 3 6 50.0 1 2 3 2 1 1 5 3 -
p300
aVKenny Payne PHL 02/19/1990 PHL @ UTH L 3 7 2 2 100.0 1 1 100.0 2 2 100.0 0 0 0 0 0 0 0 1 -
p301
aVHersey Hawkins PHL 02/19/1990 PHL @ UTH L 33 15 2 10 20.0 1 4 25.0 10 13 76.9 1 4 5 4 2 0 3 3 -
p302
aVRick Mahorn PHL 02/19/1990 PHL @ UTH L 34 14 5 10 50.0 0 0 - 4 6 66.7 2 5 7 1 0 0 2 5 -
p303
aVBob Thornton PHL 02/19/1990 PHL @ UTH L 14 4 1 2 50.0 0 0 - 2 2 100.0 0 2 2 1 0 0 2 2 -
p304
aVMike Gminski PHL 02/19/1990 PHL @ UTH L 31 4 1 6 16.7 0 0 - 2 3 66.7 2 3 5 0 0 2 0 1 -
p305
aVRon Anderson PHL 02/19/1990 PHL @ UTH L 19 0 0 6 0.0 0 0 - 0 0 - 1 1 2 1 0 0 1 2 -
p306
aVScott Brooks PHL 02/19/1990 PHL @ UTH L 14 4 1 4 25.0 0 1 0.0 2 2 100.0 0 0 0 2 0 0 0 3 -
p307
aVKurt Nimphius PHL 02/19/1990 PHL @ UTH L 3 2 1 1 100.0 0 0 - 0 1 0.0 1 0 1 0 0 1 0 0 -
p308
aVCharles Barkley PHL 02/19/1990 PHL @ UTH L 36 28 11 19 57.9 0 2 0.0 6 8 75.0 2 8 10 2 0 0 3 4 -
p309
aVLanard Copeland PHL 02/19/1990 PHL @ UTH L 1 3 1 1 100.0 1 1 100.0 0 0 - 0 0 0 0 0 0 0 0 -
p310
aVJohnny Dawkins PHL 02/19/1990 PHL @ UTH L 34 11 5 8 62.5 1 1 100.0 0 0 - 1 1 2 2 1 0 1 2 -
p311
aVDerek Smith PHL 02/19/1990 PHL @ UTH L 18 10 3 6 50.0 1 1 100.0 3 4 75.0 0 2 2 1 0 0 1 1 -
p312
aVDerek Smith PHL 02/18/1990 PHL @ POR W 20 8 4 4 100.0 0 0 - 0 0 - 0 1 1 2 1 0 2 2 -
p313
aVCharles Barkley PHL 02/18/1990 PHL @ POR W 43 27 9 18 50.0 0 4 0.0 9 13 69.2 2 3 5 3 3 1 1 4 -
p314
aVBob Thornton PHL 02/18/1990 PHL @ POR W 10 6 2 2 100.0 0 0 - 2 4 50.0 2 1 3 0 0 0 1 2 -
p315
aVJohnny Dawkins PHL 02/18/1990 PHL @ POR W 38 15 5 13 38.5 1 2 50.0 4 4 100.0 3 3 6 7 1 0 2 2 -
p316
aVRick Mahorn PHL 02/18/1990 PHL @ POR W 33 12 4 10 40.0 0 0 - 4 6 66.7 1 6 7 0 0 2 2 5 -
p317
aVHersey Hawkins PHL 02/18/1990 PHL @ POR W 28 16 6 14 42.9 2 4 50.0 2 2 100.0 0 4 4 5 0 1 3 3 -
p318
aVScott Brooks PHL 02/18/1990 PHL @ POR W 10 2 1 4 25.0 0 0 - 0 0 - 0 0 0 1 1 0 0 1 -
p319
aVMike Gminski PHL 02/18/1990 PHL @ POR W 37 14 6 10 60.0 0 0 - 2 2 100.0 0 5 5 4 2 2 0 3 -
p320
aVRon Anderson PHL 02/18/1990 PHL @ POR W 21 10 3 8 37.5 0 0 - 4 4 100.0 1 3 4 2 2 0 2 2 -
p321
aVJohnny Dawkins PHL 02/16/1990 PHL vs. SEA W 46 20 7 15 46.7 1 1 100.0 5 6 83.3 0 2 2 10 2 0 1 3 -
p322
aVBob Thornton PHL 02/16/1990 PHL vs. SEA W 5 2 1 2 50.0 0 0 - 0 0 - 1 1 2 0 0 0 0 1 -
p323
aVRick Mahorn PHL 02/16/1990 PHL vs. SEA W 46 16 6 10 60.0 0 1 0.0 4 7 57.1 7 7 14 2 1 3 1 4 -
p324
aVDerek Smith PHL 02/16/1990 PHL vs. SEA W 27 10 4 7 57.1 0 0 - 2 5 40.0 1 1 2 2 2 3 1 1 -
p325
aVScott Brooks PHL 02/16/1990 PHL vs. SEA W 7 2 1 2 50.0 0 1 0.0 0 0 - 0 0 0 0 0 0 0 1 -
p326
aVHersey Hawkins PHL 02/16/1990 PHL vs. SEA W 37 10 5 17 29.4 0 2 0.0 0 0 - 0 2 2 5 0 0 1 1 -
p327
aVCharles Barkley PHL 02/16/1990 PHL vs. SEA W 47 23 8 14 57.1 0 0 - 7 10 70.0 4 5 9 3 2 2 6 2 -
p328
aVMike Gminski PHL 02/16/1990 PHL vs. SEA W 32 11 5 13 38.5 0 0 - 1 1 100.0 2 9 11 4 1 0 1 3 -
p329
aVRon Anderson PHL 02/16/1990 PHL vs. SEA W 18 6 3 8 37.5 0 0 - 0 0 - 0 1 1 0 0 0 0 2 -
p330
aVJohnny Dawkins PHL 02/14/1990 PHL vs. NJN W 30 14 5 9 55.6 0 0 - 4 5 80.0 0 2 2 10 2 1 3 0 -
p331
aVScott Brooks PHL 02/14/1990 PHL vs. NJN W 18 4 2 6 33.3 0 0 - 0 0 - 0 1 1 4 1 0 1 1 -
p332
aVDerek Smith PHL 02/14/1990 PHL vs. NJN W 19 10 3 4 75.0 1 1 100.0 3 5 60.0 0 4 4 1 1 0 2 4 -
p333
aVHersey Hawkins PHL 02/14/1990 PHL vs. NJN W 23 15 6 11 54.5 1 1 100.0 2 3 66.7 1 2 3 2 0 0 1 3 -
p334
aVBob Thornton PHL 02/14/1990 PHL vs. NJN W 21 3 1 4 25.0 0 1 0.0 1 2 50.0 1 3 4 0 0 0 0 2 -
p335
aVRon Anderson PHL 02/14/1990 PHL vs. NJN W 19 9 4 8 50.0 0 0 - 1 2 50.0 1 3 4 1 2 0 1 2 -
p336
aVRick Mahorn PHL 02/14/1990 PHL vs. NJN W 24 11 5 10 50.0 0 0 - 1 2 50.0 4 5 9 3 0 1 0 2 -
p337
aVKurt Nimphius PHL 02/14/1990 PHL vs. NJN W 12 6 3 7 42.9 0 0 - 0 0 - 0 0 0 0 0 0 1 1 -
p338
aVMike Gminski PHL 02/14/1990 PHL vs. NJN W 29 16 7 11 63.6 0 0 - 2 3 66.7 4 5 9 2 0 3 1 3 -
p339
aVLanard Copeland PHL 02/14/1990 PHL vs. NJN W 6 2 1 4 25.0 0 0 - 0 0 - 0 0 0 1 0 0 3 1 -
p340
aVCharles Barkley PHL 02/14/1990 PHL vs. NJN W 31 30 12 16 75.0 1 1 100.0 5 6 83.3 3 5 8 5 5 0 5 2 -
p341
aVKenny Payne PHL 02/14/1990 PHL vs. NJN W 8 2 0 3 0.0 0 0 - 2 2 100.0 0 0 0 1 0 0 0 2 -
p342
aVJohnny Dawkins PHL 02/08/1990 PHL @ ORL L 44 11 5 15 33.3 0 0 - 1 1 100.0 0 4 4 5 4 0 0 2 -
p343
aVDerek Smith PHL 02/08/1990 PHL @ ORL L 20 16 7 9 77.8 0 0 - 2 4 50.0 1 0 1 3 0 0 2 4 -
p344
aVMike Gminski PHL 02/08/1990 PHL @ ORL L 35 16 7 16 43.8 0 0 - 2 2 100.0 3 5 8 1 1 6 2 4 -
p345
aVCharles Barkley PHL 02/08/1990 PHL @ ORL L 44 22 7 11 63.6 0 2 0.0 8 11 72.7 4 8 12 5 0 0 0 4 -
p346
aVRon Anderson PHL 02/08/1990 PHL @ ORL L 18 2 1 7 14.3 0 1 0.0 0 0 - 1 4 5 0 1 0 0 2 -
p347
aVRick Mahorn PHL 02/08/1990 PHL @ ORL L 37 14 6 12 50.0 0 0 - 2 4 50.0 3 5 8 0 0 6 0 3 -
p348
aVScott Brooks PHL 02/08/1990 PHL @ ORL L 4 0 0 1 0.0 0 0 - 0 0 - 0 0 0 1 0 0 1 1 -
p349
aVHersey Hawkins PHL 02/08/1990 PHL @ ORL L 30 16 7 18 38.9 1 5 20.0 1 3 33.3 1 1 2 2 2 0 3 1 -
p350
aVBob Thornton PHL 02/08/1990 PHL @ ORL L 8 2 0 0 - 0 0 - 2 2 100.0 0 1 1 0 0 0 0 2 -
p351
aVRick Mahorn PHL 02/07/1990 PHL vs. GOS L 37 11 4 11 36.4 0 0 - 3 4 75.0 3 7 10 0 0 0 2 4 -
p352
aVCharles Barkley PHL 02/07/1990 PHL vs. GOS L 38 30 11 13 84.6 0 0 - 8 10 80.0 5 7 12 1 3 1 4 6 -
p353
aVRon Anderson PHL 02/07/1990 PHL vs. GOS L 20 12 5 8 62.5 0 0 - 2 2 100.0 0 5 5 2 1 0 0 2 -
p354
aVJohnny Dawkins PHL 02/07/1990 PHL vs. GOS L 38 11 2 9 22.2 1 1 100.0 6 6 100.0 0 3 3 10 4 0 7 4 -
p355
aVBob Thornton PHL 02/07/1990 PHL vs. GOS L 9 4 2 2 100.0 0 0 - 0 2 0.0 0 2 2 0 0 0 0 2 -
p356
aVDerek Smith PHL 02/07/1990 PHL vs. GOS L 27 11 5 12 41.7 0 0 - 1 2 50.0 3 2 5 2 0 2 3 4 -
p357
aVHersey Hawkins PHL 02/07/1990 PHL vs. GOS L 32 16 5 12 41.7 0 1 0.0 6 7 85.7 1 1 2 1 2 0 1 2 -
p358
aVScott Brooks PHL 02/07/1990 PHL vs. GOS L 10 6 2 3 66.7 2 2 100.0 0 1 0.0 0 2 2 2 1 0 0 1 -
p359
aVMike Gminski PHL 02/07/1990 PHL vs. GOS L 29 11 3 10 30.0 0 0 - 5 6 83.3 2 4 6 2 0 1 3 1 -
p360
aVJohnny Dawkins PHL 02/05/1990 PHL vs. UTH W 33 16 7 13 53.8 0 0 - 2 2 100.0 0 1 1 5 1 0 2 2 -
p361
aVLanard Copeland PHL 02/05/1990 PHL vs. UTH W 6 2 1 2 50.0 0 1 0.0 0 0 - 0 0 0 1 0 0 3 0 -
p362
aVHersey Hawkins PHL 02/05/1990 PHL vs. UTH W 29 20 6 12 50.0 2 2 100.0 6 6 100.0 3 2 5 3 3 0 1 0 -
p363
aVScott Brooks PHL 02/05/1990 PHL vs. UTH W 15 9 4 9 44.4 0 0 - 1 2 50.0 0 1 1 0 1 0 0 2 -
p364
aVDerek Smith PHL 02/05/1990 PHL vs. UTH W 15 7 2 5 40.0 1 1 100.0 2 4 50.0 1 1 2 3 0 0 0 2 -
p365
aVCharles Barkley PHL 02/05/1990 PHL vs. UTH W 27 16 6 8 75.0 0 0 - 4 4 100.0 3 5 8 5 2 0 3 0 -
p366
aVRick Mahorn PHL 02/05/1990 PHL vs. UTH W 33 10 4 6 66.7 0 0 - 2 2 100.0 2 9 11 2 4 1 0 3 -
p367
aVKenny Payne PHL 02/05/1990 PHL vs. UTH W 8 6 2 5 40.0 1 1 100.0 1 2 50.0 1 1 2 1 0 0 1 2 -
p368
aVRon Anderson PHL 02/05/1990 PHL vs. UTH W 16 11 5 9 55.6 0 0 - 1 1 100.0 0 1 1 2 1 0 1 2 -
p369
aVKurt Nimphius PHL 02/05/1990 PHL vs. UTH W 10 4 2 3 66.7 0 0 - 0 2 0.0 1 2 3 1 0 0 0 0 -
p370
aVBob Thornton PHL 02/05/1990 PHL vs. UTH W 21 2 1 5 20.0 0 0 - 0 0 - 1 2 3 1 2 0 0 3 -
p371
aVMike Gminski PHL 02/05/1990 PHL vs. UTH W 27 11 5 11 45.5 0 0 - 1 2 50.0 2 3 5 1 0 3 2 1 -
p372
aVRick Mahorn PHL 02/04/1990 PHL @ MIL W 21 7 3 7 42.9 0 0 - 1 2 50.0 0 4 4 1 0 4 2 4 -
p373
aVMike Gminski PHL 02/04/1990 PHL @ MIL W 41 20 7 14 50.0 0 0 - 6 6 100.0 3 7 10 1 3 0 2 2 -
p374
aVCharles Barkley PHL 02/04/1990 PHL @ MIL W 34 14 5 11 45.5 0 1 0.0 4 7 57.1 3 3 6 2 0 0 3 3 -
p375
aVDerek Smith PHL 02/04/1990 PHL @ MIL W 35 11 5 8 62.5 0 0 - 1 1 100.0 1 0 1 5 0 1 0 5 -
p376
aVJohnny Dawkins PHL 02/04/1990 PHL @ MIL W 43 21 9 15 60.0 0 1 0.0 3 3 100.0 0 7 7 4 7 1 3 1 -
p377
aVRon Anderson PHL 02/04/1990 PHL @ MIL W 17 11 2 9 22.2 0 0 - 7 8 87.5 1 3 4 1 1 0 1 2 -
p378
aVHersey Hawkins PHL 02/04/1990 PHL @ MIL W 35 18 6 14 42.9 0 2 0.0 6 7 85.7 1 3 4 5 3 0 2 4 -
p379
aVBob Thornton PHL 02/04/1990 PHL @ MIL W 9 3 1 2 50.0 0 0 - 1 1 100.0 1 2 3 0 0 1 1 2 -
p380
aVScott Brooks PHL 02/04/1990 PHL @ MIL W 5 0 0 1 0.0 0 0 - 0 0 - 0 0 0 0 0 0 1 1 -
p381
aVRon Anderson PHL 02/02/1990 PHL vs. MIL W 22 6 3 6 50.0 0 0 - 0 0 - 1 2 3 1 0 0 1 0 -
p382
aVScott Brooks PHL 02/02/1990 PHL vs. MIL W 5 0 0 1 0.0 0 1 0.0 0 0 - 0 1 1 0 0 0 0 0 -
p383
aVHersey Hawkins PHL 02/02/1990 PHL vs. MIL W 32 20 8 15 53.3 0 2 0.0 4 5 80.0 0 1 1 3 1 0 2 3 -
p384
aVMike Gminski PHL 02/02/1990 PHL vs. MIL W 34 16 7 12 58.3 0 0 - 2 3 66.7 1 8 9 1 0 1 0 1 -
p385
aVJohnny Dawkins PHL 02/02/1990 PHL vs. MIL W 43 14 5 9 55.6 0 0 - 4 6 66.7 1 4 5 9 4 0 6 3 -
p386
aVRick Mahorn PHL 02/02/1990 PHL vs. MIL W 40 22 7 13 53.8 0 2 0.0 8 9 88.9 4 8 12 1 1 2 1 4 -
p387
aVDerek Smith PHL 02/02/1990 PHL vs. MIL W 17 8 3 5 60.0 1 1 100.0 1 2 50.0 0 2 2 4 0 0 3 2 -
p388
aVCharles Barkley PHL 02/02/1990 PHL vs. MIL W 47 33 10 23 43.5 0 0 - 13 17 76.5 8 6 14 4 3 1 2 3 -
p389
aVMike Gminski PHL 01/31/1990 PHL @ IND W 31 18 8 14 57.1 0 0 - 2 2 100.0 1 3 4 1 1 1 0 2 -
p390
aVScott Brooks PHL 01/31/1990 PHL @ IND W 14 0 0 2 0.0 0 0 - 0 0 - 0 2 2 4 1 0 1 2 -
p391
aVHersey Hawkins PHL 01/31/1990 PHL @ IND W 32 11 5 12 41.7 1 1 100.0 0 2 0.0 1 5 6 6 0 1 3 3 -
p392
aVCharles Barkley PHL 01/31/1990 PHL @ IND W 45 31 12 19 63.2 0 1 0.0 7 10 70.0 9 7 16 2 2 0 3 2 -
p393
aVBob Thornton PHL 01/31/1990 PHL @ IND W 3 0 0 1 0.0 0 0 - 0 0 - 0 1 1 0 1 0 0 1 -
p394
aVDerek Smith PHL 01/31/1990 PHL @ IND W 20 14 7 10 70.0 0 0 - 0 0 - 1 0 1 1 0 0 2 1 -
p395
aVJohnny Dawkins PHL 01/31/1990 PHL @ IND W 34 13 6 13 46.2 0 0 - 1 2 50.0 0 1 1 10 1 0 1 2 -
p396
aVRon Anderson PHL 01/31/1990 PHL @ IND W 27 12 6 11 54.5 0 0 - 0 0 - 2 2 4 2 1 0 1 1 -
p397
aVRick Mahorn PHL 01/31/1990 PHL @ IND W 34 13 6 9 66.7 0 0 - 1 1 100.0 5 7 12 0 2 2 0 4 -
p398
aVCharles Barkley PHL 01/27/1990 PHL vs. WAS W 36 29 11 17 64.7 0 0 - 7 8 87.5 8 10 18 0 0 1 5 2 -
p399
aVBob Thornton PHL 01/27/1990 PHL vs. WAS W 24 11 5 8 62.5 0 1 0.0 1 4 25.0 1 6 7 1 0 0 0 4 -
p400
aVMike Gminski PHL 01/27/1990 PHL vs. WAS W 29 8 4 12 33.3 0 0 - 0 0 - 1 4 5 2 0 0 2 2 -
p401
aVKurt Nimphius PHL 01/27/1990 PHL vs. WAS W 7 4 2 2 100.0 0 0 - 0 0 - 0 1 1 0 0 0 1 0 -
p402
aVJohnny Dawkins PHL 01/27/1990 PHL vs. WAS W 29 11 5 10 50.0 0 0 - 1 1 100.0 0 3 3 7 2 0 1 1 -
p403
aVDerek Smith PHL 01/27/1990 PHL vs. WAS W 25 6 3 7 42.9 0 0 - 0 0 - 1 3 4 2 1 0 0 4 -
p404
aVHersey Hawkins PHL 01/27/1990 PHL vs. WAS W 33 28 11 16 68.8 0 2 0.0 6 6 100.0 1 2 3 4 2 0 0 4 -
p405
aVKenny Payne PHL 01/27/1990 PHL vs. WAS W 5 0 0 2 0.0 0 0 - 0 0 - 0 0 0 0 0 1 0 0 -
p406
aVRon Anderson PHL 01/27/1990 PHL vs. WAS W 28 16 7 14 50.0 0 0 - 2 2 100.0 2 7 9 2 1 0 0 2 -
p407
aVLanard Copeland PHL 01/27/1990 PHL vs. WAS W 5 4 2 3 66.7 0 1 0.0 0 0 - 0 1 1 0 0 0 1 2 -
p408
aVScott Brooks PHL 01/27/1990 PHL vs. WAS W 19 8 3 8 37.5 0 0 - 2 2 100.0 2 0 2 6 4 0 1 1 -
p409
aVMike Gminski PHL 01/26/1990 PHL vs. CHI W 41 12 5 11 45.5 0 0 - 2 2 100.0 1 5 6 2 1 0 3 1 -
p410
aVBob Thornton PHL 01/26/1990 PHL vs. CHI W 12 4 1 1 100.0 0 0 - 2 3 66.7 1 0 1 0 0 0 1 3 -
p411
aVDerek Smith PHL 01/26/1990 PHL vs. CHI W 29 11 4 10 40.0 0 1 0.0 3 4 75.0 1 0 1 0 0 1 2 4 -
p412
aVScott Brooks PHL 01/26/1990 PHL vs. CHI W 9 0 0 2 0.0 0 0 - 0 0 - 0 0 0 2 1 0 0 1 -
p413
aVJohnny Dawkins PHL 01/26/1990 PHL vs. CHI W 39 17 6 11 54.5 0 0 - 5 7 71.4 0 3 3 15 1 0 1 2 -
p414
aVRick Mahorn PHL 01/26/1990 PHL vs. CHI W 4 0 0 0 - 0 0 - 0 0 - 0 1 1 0 0 0 1 1 -
p415
aVCharles Barkley PHL 01/26/1990 PHL vs. CHI W 43 37 12 17 70.6 0 0 - 13 14 92.9 7 14 21 3 1 1 2 2 -
p416
aVKenny Payne PHL 01/26/1990 PHL vs. CHI W 2 0 0 1 0.0 0 0 - 0 0 - 0 0 0 0 0 0 0 0 -
p417
aVRon Anderson PHL 01/26/1990 PHL vs. CHI W 28 11 4 11 36.4 0 0 - 3 3 100.0 1 3 4 0 3 0 1 1 -
p418
aVHersey Hawkins PHL 01/26/1990 PHL vs. CHI W 33 28 12 19 63.2 1 3 33.3 3 3 100.0 2 4 6 4 0 0 2 3 -
p419
aVRick Mahorn PHL 01/24/1990 PHL vs. ORL W 28 14 5 9 55.6 0 0 - 4 5 80.0 1 7 8 2 3 6 2 1 -
p420
aVBob Thornton PHL 01/24/1990 PHL vs. ORL W 17 2 1 4 25.0 0 0 - 0 1 0.0 1 5 6 1 0 2 0 1 -
p421
aVJohnny Dawkins PHL 01/24/1990 PHL vs. ORL W 26 18 8 14 57.1 0 0 - 2 2 100.0 0 2 2 11 4 0 3 2 -
p422
aVHersey Hawkins PHL 01/24/1990 PHL vs. ORL W 36 14 3 12 25.0 1 2 50.0 7 7 100.0 0 3 3 7 1 0 4 2 -
p423
aVMike Gminski PHL 01/24/1990 PHL vs. ORL W 30 18 9 17 52.9 0 0 - 0 2 0.0 3 4 7 2 1 2 0 3 -
p424
aVLanard Copeland PHL 01/24/1990 PHL vs. ORL W 4 2 1 2 50.0 0 0 - 0 0 - 0 1 1 1 0 0 1 2 -
p425
aVScott Brooks PHL 01/24/1990 PHL vs. ORL W 22 6 3 8 37.5 0 0 - 0 0 - 0 3 3 8 0 0 1 1 -
p426
aVCharles Barkley PHL 01/24/1990 PHL vs. ORL W 36 27 11 13 84.6 0 0 - 5 12 41.7 5 11 16 2 3 0 3 1 -
p427
aVDerek Smith PHL 01/24/1990 PHL vs. ORL W 18 8 4 7 57.1 0 0 - 0 2 0.0 1 2 3 2 1 0 0 5 -
p428
aVKurt Nimphius PHL 01/24/1990 PHL vs. ORL W 4 0 0 0 - 0 0 - 0 0 - 0 1 1 0 0 0 0 0 -
p429
aVKenny Payne PHL 01/24/1990 PHL vs. ORL W 4 6 3 4 75.0 0 0 - 0 0 - 0 0 0 0 0 0 1 1 -
p430
aVRon Anderson PHL 01/24/1990 PHL vs. ORL W 15 10 5 9 55.6 0 0 - 0 0 - 0 1 1 1 1 0 0 1 -
p431
aVJohnny Dawkins PHL 01/23/1990 PHL @ CLE W 33 12 6 10 60.0 0 0 - 0 0 - 0 2 2 3 0 0 6 2 -
p432
aVHersey Hawkins PHL 01/23/1990 PHL @ CLE W 41 13 6 14 42.9 1 1 100.0 0 0 - 0 5 5 7 2 0 3 1 -
p433
aVRick Mahorn PHL 01/23/1990 PHL @ CLE W 37 11 5 14 35.7 0 0 - 1 3 33.3 2 6 8 1 1 1 0 5 -
p434
aVBob Thornton PHL 01/23/1990 PHL @ CLE W 2 0 0 0 - 0 0 - 0 0 - 0 0 0 0 0 0 0 0 -
p435
aVDerek Smith PHL 01/23/1990 PHL @ CLE W 29 11 5 14 35.7 0 0 - 1 7 14.3 3 3 6 3 1 2 2 2 -
p436
aVCharles Barkley PHL 01/23/1990 PHL @ CLE W 41 32 11 16 68.8 0 0 - 10 12 83.3 9 6 15 7 5 3 4 3 -
p437
aVScott Brooks PHL 01/23/1990 PHL @ CLE W 15 6 3 3 100.0 0 0 - 0 0 - 0 0 0 2 0 0 0 2 -
p438
aVKurt Nimphius PHL 01/23/1990 PHL @ CLE W 2 2 1 1 100.0 0 0 - 0 0 - 0 0 0 0 0 0 0 0 -
p439
aVKenny Payne PHL 01/23/1990 PHL @ CLE W 10 2 1 2 50.0 0 0 - 0 0 - 0 0 0 1 0 0 0 1 -
p440
aVMike Gminski PHL 01/23/1990 PHL @ CLE W 30 14 6 11 54.5 0 0 - 2 2 100.0 4 4 8 2 0 1 0 2 -
p441
aVCharles Barkley PHL 01/20/1990 PHL vs. NJN W 42 26 9 12 75.0 0 0 - 8 10 80.0 10 12 22 6 4 0 6 3 -
p442
aVHersey Hawkins PHL 01/20/1990 PHL vs. NJN W 39 14 5 13 38.5 1 2 50.0 3 3 100.0 0 2 2 1 2 0 2 3 -
p443
aVDerek Smith PHL 01/20/1990 PHL vs. NJN W 30 14 6 8 75.0 0 0 - 2 2 100.0 1 2 3 3 1 0 2 2 -
p444
aVJohnny Dawkins PHL 01/20/1990 PHL vs. NJN W 37 28 10 18 55.6 0 0 - 8 8 100.0 0 1 1 4 1 1 6 0 -
p445
aVRick Mahorn PHL 01/20/1990 PHL vs. NJN W 33 10 3 10 30.0 0 0 - 4 4 100.0 1 5 6 0 1 2 1 4 -
p446
aVCorey Gaines PHL 01/20/1990 PHL vs. NJN W 11 2 1 4 25.0 0 0 - 0 2 0.0 0 2 2 1 0 0 2 2 -
p447
aVLewis Lloyd PHL 01/20/1990 PHL vs. NJN W 5 0 0 1 0.0 0 0 - 0 0 - 0 0 0 0 0 0 1 1 -
p448
aVMike Gminski PHL 01/20/1990 PHL vs. NJN W 37 14 4 12 33.3 0 1 0.0 6 6 100.0 2 4 6 2 0 3 1 1 -
p449
aVBob Thornton PHL 01/20/1990 PHL vs. NJN W 6 0 0 0 - 0 0 - 0 0 - 0 0 0 0 0 0 2 2 -
p450
aVCharles Barkley PHL 01/19/1990 PHL @ MIA W 35 32 11 17 64.7 0 1 0.0 10 11 90.9 6 6 12 2 3 1 1 4 -
p451
aVRick Mahorn PHL 01/19/1990 PHL @ MIA W 39 9 2 7 28.6 0 0 - 5 6 83.3 1 9 10 0 0 2 3 4 -
p452
aVCorey Gaines PHL 01/19/1990 PHL @ MIA W 4 0 0 0 - 0 0 - 0 0 - 0 0 0 0 0 0 0 1 -
p453
aVMike Gminski PHL 01/19/1990 PHL @ MIA W 27 18 6 15 40.0 0 0 - 6 7 85.7 4 2 6 2 1 0 1 0 -
p454
aVHersey Hawkins PHL 01/19/1990 PHL @ MIA W 45 19 7 21 33.3 1 4 25.0 4 5 80.0 2 9 11 4 5 0 1 0 -
p455
aVBob Thornton PHL 01/19/1990 PHL @ MIA W 18 0 0 0 - 0 0 - 0 2 0.0 0 1 1 0 1 0 2 2 -
p456
aVJohnny Dawkins PHL 01/19/1990 PHL @ MIA W 44 12 3 14 21.4 0 0 - 6 6 100.0 0 2 2 10 2 0 0 0 -
p457
aVDerek Smith PHL 01/19/1990 PHL @ MIA W 28 12 5 6 83.3 0 0 - 2 3 66.7 0 2 2 0 1 0 3 3 -
p458
aVCharles Barkley PHL 01/17/1990 PHL vs. DET W 46 30 8 16 50.0 0 1 0.0 14 17 82.4 5 6 11 4 0 0 4 5 -
p459
aVDerek Smith PHL 01/17/1990 PHL vs. DET W 22 7 3 8 37.5 0 0 - 1 2 50.0 1 3 4 2 1 0 1 4 -
p460
aVHersey Hawkins PHL 01/17/1990 PHL vs. DET W 43 25 7 16 43.8 1 4 25.0 10 12 83.3 1 1 2 6 1 0 0 2 -
p461
aVLewis Lloyd PHL 01/17/1990 PHL vs. DET W 5 2 1 1 100.0 0 0 - 0 0 - 0 0 0 0 0 0 3 2 -
p462
aVJohnny Dawkins PHL 01/17/1990 PHL vs. DET W 44 18 8 13 61.5 0 1 0.0 2 2 100.0 0 4 4 10 2 1 2 3 -
p463
aVMike Gminski PHL 01/17/1990 PHL vs. DET W 39 20 9 15 60.0 0 1 0.0 2 2 100.0 2 5 7 1 0 1 1 2 -
p464
aVCorey Gaines PHL 01/17/1990 PHL vs. DET W 4 0 0 0 - 0 0 - 0 0 - 0 0 0 2 1 0 1 0 -
p465
aVRick Mahorn PHL 01/17/1990 PHL vs. DET W 37 10 4 9 44.4 0 0 - 2 3 66.7 1 5 6 1 0 1 4 5 -
p466
aVCorey Gaines PHL 01/13/1990 PHL @ WAS W 8 2 1 2 50.0 0 0 - 0 0 - 0 0 0 0 0 0 1 2 -
p467
aVHersey Hawkins PHL 01/13/1990 PHL @ WAS W 29 13 5 10 50.0 1 1 100.0 2 2 100.0 1 5 6 7 2 0 1 1 -
p468
aVRon Anderson PHL 01/13/1990 PHL @ WAS W 26 15 6 11 54.5 0 0 - 3 3 100.0 0 2 2 1 0 0 1 1 -
p469
aVRick Mahorn PHL 01/13/1990 PHL @ WAS W 34 8 4 6 66.7 0 0 - 0 0 - 0 7 7 4 2 2 2 2 -
p470
aVMike Gminski PHL 01/13/1990 PHL @ WAS W 30 20 10 15 66.7 0 0 - 0 0 - 2 5 7 0 0 2 1 0 -
p471
aVBob Thornton PHL 01/13/1990 PHL @ WAS W 14 10 4 7 57.1 0 0 - 2 2 100.0 1 3 4 0 1 0 1 1 -
p472
aVKurt Nimphius PHL 01/13/1990 PHL @ WAS W 2 0 0 0 - 0 0 - 0 0 - 0 0 0 0 0 0 0 0 -
p473
aVScott Brooks PHL 01/13/1990 PHL @ WAS W 2 2 1 3 33.3 0 1 0.0 0 0 - 0 1 1 0 0 0 0 0 -
p474
aVJohnny Dawkins PHL 01/13/1990 PHL @ WAS W 40 19 9 13 69.2 0 1 0.0 1 2 50.0 0 3 3 11 1 0 0 1 -
p475
aVDerek Smith PHL 01/13/1990 PHL @ WAS W 21 9 3 5 60.0 0 0 - 3 3 100.0 0 2 2 2 0 0 2 3 -
p476
aVCharles Barkley PHL 01/13/1990 PHL @ WAS W 34 22 8 16 50.0 0 0 - 6 7 85.7 3 10 13 5 0 0 1 0 -
p477
aVBob Thornton PHL 01/12/1990 PHL vs. CLE L 4 0 0 0 - 0 0 - 0 0 - 0 1 1 0 0 0 0 1 -
p478
aVRon Anderson PHL 01/12/1990 PHL vs. CLE L 32 21 8 14 57.1 0 1 0.0 5 6 83.3 1 1 2 3 2 1 3 4 -
p479
aVRick Mahorn PHL 01/12/1990 PHL vs. CLE L 34 11 5 9 55.6 0 0 - 1 1 100.0 3 3 6 1 1 1 0 4 -
p480
aVHersey Hawkins PHL 01/12/1990 PHL vs. CLE L 35 14 4 12 33.3 0 1 0.0 6 6 100.0 3 4 7 3 0 0 0 2 -
p481
aVCorey Gaines PHL 01/12/1990 PHL vs. CLE L 16 2 1 4 25.0 0 1 0.0 0 0 - 0 0 0 5 0 0 0 1 -
p482
aVDerek Smith PHL 01/12/1990 PHL vs. CLE L 13 8 2 6 33.3 0 0 - 4 4 100.0 0 1 1 2 0 0 0 1 -
p483
aVJohnny Dawkins PHL 01/12/1990 PHL vs. CLE L 32 8 4 9 44.4 0 0 - 0 0 - 0 2 2 5 1 0 4 2 -
p484
aVMike Gminski PHL 01/12/1990 PHL vs. CLE L 31 17 7 12 58.3 0 1 0.0 3 4 75.0 2 5 7 0 1 0 0 1 -
p485
aVCharles Barkley PHL 01/12/1990 PHL vs. CLE L 43 21 9 14 64.3 0 2 0.0 3 7 42.9 1 4 5 7 7 1 4 4 -
p486
aVCharles Barkley PHL 01/10/1990 PHL vs. NYK W 42 24 9 10 90.0 0 0 - 6 7 85.7 6 6 12 7 2 0 7 3 -
p487
aVHersey Hawkins PHL 01/10/1990 PHL vs. NYK W 32 18 6 13 46.2 1 4 25.0 5 5 100.0 1 4 5 2 0 0 0 0 -
p488
aVJohnny Dawkins PHL 01/10/1990 PHL vs. NYK W 34 8 4 14 28.6 0 0 - 0 0 - 0 1 1 6 2 0 3 2 -
p489
aVBob Thornton PHL 01/10/1990 PHL vs. NYK W 1 0 0 0 - 0 0 - 0 0 - 0 0 0 0 0 0 0 0 -
p490
aVMike Gminski PHL 01/10/1990 PHL vs. NYK W 37 2 1 11 9.1 0 0 - 0 0 - 0 8 8 1 1 4 1 2 -
p491
aVKurt Nimphius PHL 01/10/1990 PHL vs. NYK W 5 0 0 0 - 0 0 - 0 0 - 0 1 1 0 1 0 0 0 -
p492
aVCorey Gaines PHL 01/10/1990 PHL vs. NYK W 13 4 1 1 100.0 1 1 100.0 1 2 50.0 0 0 0 11 1 0 2 1 -
p493
aVRon Anderson PHL 01/10/1990 PHL vs. NYK W 33 21 9 17 52.9 0 1 0.0 3 3 100.0 0 2 2 1 4 0 1 2 -
p494
aVDerek Smith PHL 01/10/1990 PHL vs. NYK W 16 18 9 12 75.0 0 0 - 0 1 0.0 1 0 1 2 0 0 2 1 -
p495
aVRick Mahorn PHL 01/10/1990 PHL vs. NYK W 27 18 7 9 77.8 0 0 - 4 4 100.0 2 5 7 0 0 1 2 6 -
p496
aVRon Anderson PHL 01/08/1990 PHL vs. IND W 31 21 9 16 56.3 0 0 - 3 4 75.0 0 0 0 1 0 0 1 1 -
p497
aVHersey Hawkins PHL 01/08/1990 PHL vs. IND W 32 27 9 13 69.2 2 2 100.0 7 9 77.8 3 1 4 2 1 0 2 5 -
p498
aVCharles Barkley PHL 01/08/1990 PHL vs. IND W 45 32 10 17 58.8 0 1 0.0 12 14 85.7 8 6 14 6 2 1 2 2 -
p499
aVMike Gminski PHL 01/08/1990 PHL vs. IND W 36 16 7 14 50.0 0 0 - 2 2 100.0 2 9 11 2 0 2 2 2 -
p500
aVCorey Gaines PHL 01/08/1990 PHL vs. IND W 10 0 0 1 0.0 0 0 - 0 0 - 0 1 1 4 1 0 0 1 -
p501
aVRick Mahorn PHL 01/08/1990 PHL vs. IND W 32 9 4 6 66.7 0 0 - 1 2 50.0 0 4 4 2 0 1 1 4 -
p502
aVDerek Smith PHL 01/08/1990 PHL vs. IND W 16 6 1 1 100.0 0 0 - 4 4 100.0 1 1 2 2 0 0 0 5 -
p503
aVJohnny Dawkins PHL 01/08/1990 PHL vs. IND W 38 9 3 10 30.0 0 0 - 3 4 75.0 1 1 2 11 1 0 2 1 -
p504
aVRon Anderson PHL 01/06/1990 PHL @ HOU L 29 4 2 7 28.6 0 0 - 0 0 - 0 1 1 1 3 0 1 3 -
p505
aVCharles Barkley PHL 01/06/1990 PHL @ HOU L 42 19 4 10 40.0 0 2 0.0 11 12 91.7 2 5 7 4 3 1 3 4 -
p506
aVJohnny Dawkins PHL 01/06/1990 PHL @ HOU L 51 26 12 25 48.0 1 2 50.0 1 1 100.0 1 3 4 8 1 0 4 1 -
p507
aVCorey Gaines PHL 01/06/1990 PHL @ HOU L 2 0 0 0 - 0 0 - 0 0 - 0 1 1 0 0 0 2 2 -
p508
aVMike Gminski PHL 01/06/1990 PHL @ HOU L 43 23 10 18 55.6 0 0 - 3 3 100.0 5 9 14 1 1 2 2 4 -
p509
aVDerek Smith PHL 01/06/1990 PHL @ HOU L 9 7 3 5 60.0 0 0 - 1 1 100.0 1 0 1 1 0 1 0 3 -
p510
aVBob Thornton PHL 01/06/1990 PHL @ HOU L 3 0 0 3 0.0 0 0 - 0 0 - 1 0 1 0 1 0 0 0 -
p511
aVRick Mahorn PHL 01/06/1990 PHL @ HOU L 38 14 6 15 40.0 0 0 - 2 3 66.7 7 7 14 2 2 1 3 5 -
p512
aVHersey Hawkins PHL 01/06/1990 PHL @ HOU L 48 26 10 18 55.6 0 2 0.0 6 7 85.7 0 4 4 6 3 0 2 4 -
p513
aVMike Gminski PHL 01/05/1990 PHL @ DAL W 37 20 8 15 53.3 0 0 - 4 4 100.0 1 8 9 3 1 1 3 2 -
p514
aVHersey Hawkins PHL 01/05/1990 PHL @ DAL W 32 9 2 9 22.2 0 2 0.0 5 5 100.0 0 0 0 3 2 0 1 3 -
p515
aVCorey Gaines PHL 01/05/1990 PHL @ DAL W 13 0 0 0 - 0 0 - 0 0 - 1 0 1 3 1 0 2 1 -
p516
aVJohnny Dawkins PHL 01/05/1990 PHL @ DAL W 35 21 10 16 62.5 0 1 0.0 1 1 100.0 0 2 2 8 0 0 2 1 -
p517
aVBob Thornton PHL 01/05/1990 PHL @ DAL W 3 2 1 1 100.0 0 0 - 0 0 - 1 1 2 0 0 1 1 0 -
p518
aVRon Anderson PHL 01/05/1990 PHL @ DAL W 33 20 8 16 50.0 0 0 - 4 7 57.1 1 4 5 2 2 1 1 2 -
p519
aVKurt Nimphius PHL 01/05/1990 PHL @ DAL W 8 3 1 3 33.3 0 0 - 1 1 100.0 0 1 1 0 0 0 1 1 -
p520
aVCharles Barkley PHL 01/05/1990 PHL @ DAL W 33 14 6 9 66.7 0 1 0.0 2 2 100.0 4 14 18 7 1 1 2 1 -
p521
aVRick Mahorn PHL 01/05/1990 PHL @ DAL W 29 4 2 5 40.0 0 0 - 0 0 - 1 9 10 1 0 2 1 4 -
p522
aVDerek Smith PHL 01/05/1990 PHL @ DAL W 17 11 5 8 62.5 0 0 - 1 1 100.0 1 2 3 0 0 0 3 1 -
p523
aVJohnny Dawkins PHL 01/03/1990 PHL @ SAN L 43 12 4 9 44.4 0 0 - 4 5 80.0 0 2 2 7 3 0 3 6 -
p524
aVCharles Barkley PHL 01/03/1990 PHL @ SAN L 42 24 7 13 53.8 0 2 0.0 10 14 71.4 5 8 13 3 2 2 5 4 -
p525
aVHersey Hawkins PHL 01/03/1990 PHL @ SAN L 39 14 4 13 30.8 1 3 33.3 5 5 100.0 1 2 3 3 3 1 3 4 -
p526
aVScott Brooks PHL 01/03/1990 PHL @ SAN L 5 0 0 1 0.0 0 0 - 0 0 - 0 0 0 1 0 0 1 0 -
p527
aVBob Thornton PHL 01/03/1990 PHL @ SAN L 4 0 0 0 - 0 0 - 0 0 - 0 1 1 0 1 1 1 2 -
p528
aVDerek Smith PHL 01/03/1990 PHL @ SAN L 9 0 0 5 0.0 0 0 - 0 0 - 1 2 3 0 0 0 0 1 -
p529
aVMike Gminski PHL 01/03/1990 PHL @ SAN L 42 18 8 12 66.7 0 0 - 2 2 100.0 0 4 4 2 0 1 1 1 -
p530
aVRick Mahorn PHL 01/03/1990 PHL @ SAN L 30 12 6 10 60.0 0 0 - 0 0 - 2 7 9 4 1 0 2 5 -
p531
aVRon Anderson PHL 01/03/1990 PHL @ SAN L 26 14 5 11 45.5 0 0 - 4 4 100.0 0 0 0 2 0 0 0 4 -
p532
aVBob Thornton PHL 12/30/1989 PHL @ LAC W 4 0 0 0 - 0 0 - 0 0 - 0 1 1 0 0 0 1 2 -
p533
aVMike Gminski PHL 12/30/1989 PHL @ LAC W 38 7 3 11 27.3 0 0 - 1 2 50.0 5 10 15 2 1 0 3 2 -
p534
aVCharles Barkley PHL 12/30/1989 PHL @ LAC W 44 28 10 15 66.7 0 0 - 8 10 80.0 6 9 15 3 3 0 3 3 -
p535
aVScott Brooks PHL 12/30/1989 PHL @ LAC W 10 3 1 2 50.0 0 1 0.0 1 1 100.0 0 0 0 2 0 0 0 2 -
p536
aVDerek Smith PHL 12/30/1989 PHL @ LAC W 15 9 3 6 50.0 0 0 - 3 4 75.0 0 1 1 0 0 0 1 2 -
p537
aVRon Anderson PHL 12/30/1989 PHL @ LAC W 29 13 5 14 35.7 0 0 - 3 4 75.0 1 3 4 5 0 0 1 0 -
p538
aVJohnny Dawkins PHL 12/30/1989 PHL @ LAC W 38 14 4 8 50.0 0 1 0.0 6 6 100.0 0 2 2 10 0 0 3 2 -
p539
aVHersey Hawkins PHL 12/30/1989 PHL @ LAC W 38 18 7 16 43.8 0 1 0.0 4 4 100.0 0 1 1 3 0 0 6 4 -
p540
aVRick Mahorn PHL 12/30/1989 PHL @ LAC W 24 8 3 6 50.0 0 0 - 2 2 100.0 2 4 6 1 1 3 1 2 -
p541
aVJohnny Dawkins PHL 12/29/1989 PHL @ SAC L 40 8 2 8 25.0 0 0 - 4 5 80.0 2 1 3 6 1 1 4 3 -
p542
aVScott Brooks PHL 12/29/1989 PHL @ SAC L 8 3 1 3 33.3 1 1 100.0 0 0 - 0 0 0 1 1 0 1 2 -
p543
aVRick Mahorn PHL 12/29/1989 PHL @ SAC L 30 9 4 9 44.4 0 0 - 1 2 50.0 4 8 12 0 0 0 3 4 -
p544
aVRon Anderson PHL 12/29/1989 PHL @ SAC L 31 9 4 10 40.0 0 0 - 1 2 50.0 1 1 2 1 0 1 2 3 -
p545
aVMike Gminski PHL 12/29/1989 PHL @ SAC L 36 14 5 16 31.3 0 0 - 4 5 80.0 5 7 12 0 0 1 2 2 -
p546
aVDerek Smith PHL 12/29/1989 PHL @ SAC L 12 5 2 7 28.6 0 0 - 1 4 25.0 0 1 1 1 1 1 1 1 -
p547
aVBob Thornton PHL 12/29/1989 PHL @ SAC L 4 0 0 1 0.0 0 0 - 0 0 - 0 0 0 0 0 0 0 1 -
p548
aVHersey Hawkins PHL 12/29/1989 PHL @ SAC L 36 19 8 15 53.3 0 3 0.0 3 3 100.0 2 4 6 4 0 0 1 4 -
p549
aVCharles Barkley PHL 12/29/1989 PHL @ SAC L 43 28 12 22 54.5 0 2 0.0 4 5 80.0 8 5 13 4 2 0 2 2 -
p550
aVJohnny Dawkins PHL 12/27/1989 PHL @ SEA L 34 14 6 12 50.0 0 0 - 2 2 100.0 1 0 1 7 1 0 2 3 -
p551
aVMike Gminski PHL 12/27/1989 PHL @ SEA L 35 12 6 11 54.5 0 0 - 0 0 - 2 6 8 2 0 0 2 2 -
p552
aVHersey Hawkins PHL 12/27/1989 PHL @ SEA L 31 17 5 12 41.7 1 4 25.0 6 7 85.7 1 0 1 3 3 0 3 4 -
p553
aVBob Thornton PHL 12/27/1989 PHL @ SEA L 3 2 1 1 100.0 0 0 - 0 0 - 0 0 0 0 0 0 0 0 -
p554
aVRon Anderson PHL 12/27/1989 PHL @ SEA L 29 18 7 13 53.8 0 0 - 4 4 100.0 1 3 4 2 0 0 0 1 -
p555
aVScott Brooks PHL 12/27/1989 PHL @ SEA L 14 4 1 2 50.0 0 0 - 2 2 100.0 0 1 1 0 0 0 0 0 -
p556
aVDerek Smith PHL 12/27/1989 PHL @ SEA L 19 6 3 6 50.0 0 1 0.0 0 0 - 0 0 0 1 0 0 3 1 -
p557
aVRick Mahorn PHL 12/27/1989 PHL @ SEA L 33 11 4 8 50.0 0 0 - 3 4 75.0 4 6 10 4 3 1 3 3 -
p558
aVCharles Barkley PHL 12/27/1989 PHL @ SEA L 42 22 8 14 57.1 0 1 0.0 6 7 85.7 3 2 5 1 1 1 3 5 -
p559
aVMike Gminski PHL 12/26/1989 PHL @ DEN L 25 7 2 10 20.0 0 0 - 3 4 75.0 2 3 5 1 0 0 1 2 -
p560
aVDerek Smith PHL 12/26/1989 PHL @ DEN L 20 14 4 8 50.0 0 1 0.0 6 7 85.7 0 0 0 2 0 0 0 2 -
p561
aVCharles Barkley PHL 12/26/1989 PHL @ DEN L 42 32 15 26 57.7 0 2 0.0 2 2 100.0 5 11 16 5 0 1 5 3 -
p562
aVRick Mahorn PHL 12/26/1989 PHL @ DEN L 26 4 1 3 33.3 0 0 - 2 2 100.0 1 4 5 0 0 1 2 3 -
p563
aVScott Brooks PHL 12/26/1989 PHL @ DEN L 23 6 3 7 42.9 0 1 0.0 0 0 - 0 1 1 4 1 0 1 2 -
p564
aVJohnny Dawkins PHL 12/26/1989 PHL @ DEN L 26 12 5 10 50.0 0 1 0.0 2 2 100.0 0 2 2 4 3 0 2 4 -
p565
aVHersey Hawkins PHL 12/26/1989 PHL @ DEN L 41 20 7 13 53.8 2 3 66.7 4 4 100.0 0 4 4 3 2 1 4 3 -
p566
aVRon Anderson PHL 12/26/1989 PHL @ DEN L 35 16 6 14 42.9 0 0 - 4 4 100.0 0 7 7 4 1 0 1 1 -
p567
aVBob Thornton PHL 12/26/1989 PHL @ DEN L 2 0 0 0 - 0 0 - 0 0 - 0 1 1 0 0 0 0 0 -
p568
aVJohnny Dawkins PHL 12/23/1989 PHL vs. CHI W 29 6 3 6 50.0 0 2 0.0 0 0 - 0 1 1 7 4 0 1 1 -
p569
aVRick Mahorn PHL 12/23/1989 PHL vs. CHI W 32 18 7 11 63.6 0 0 - 4 5 80.0 3 6 9 2 0 3 0 4 -
p570
aVScott Brooks PHL 12/23/1989 PHL vs. CHI W 18 7 3 5 60.0 0 1 0.0 1 1 100.0 2 2 4 7 1 0 1 1 -
p571
aVRon Anderson PHL 12/23/1989 PHL vs. CHI W 29 19 7 13 53.8 0 0 - 5 6 83.3 1 3 4 3 1 0 0 2 -
p572
aVDerek Smith PHL 12/23/1989 PHL vs. CHI W 19 9 4 8 50.0 0 0 - 1 2 50.0 2 1 3 3 0 0 1 1 -
p573
aVMike Gminski PHL 12/23/1989 PHL vs. CHI W 30 15 6 12 50.0 1 2 50.0 2 3 66.7 2 4 6 0 0 2 1 2 -
p574
aVBob Thornton PHL 12/23/1989 PHL vs. CHI W 9 4 2 4 50.0 0 0 - 0 0 - 2 2 4 0 0 0 0 1 -
p575
aVCharles Barkley PHL 12/23/1989 PHL vs. CHI W 38 33 13 17 76.5 0 0 - 7 13 53.8 7 6 13 4 3 0 4 4 -
p576
aVKenny Payne PHL 12/23/1989 PHL vs. CHI W 3 2 1 2 50.0 0 0 - 0 0 - 0 0 0 0 0 0 0 0 -
p577
aVLanard Copeland PHL 12/23/1989 PHL vs. CHI W 3 2 1 2 50.0 0 0 - 0 0 - 1 0 1 1 0 0 0 0 -
p578
aVKurt Nimphius PHL 12/23/1989 PHL vs. CHI W 3 1 0 1 0.0 0 0 - 1 2 50.0 0 2 2 0 0 0 0 1 -
p579
aVHersey Hawkins PHL 12/23/1989 PHL vs. CHI W 27 15 5 13 38.5 3 4 75.0 2 2 100.0 1 1 2 1 0 0 2 4 -
p580
aVJohnny Dawkins PHL 12/22/1989 PHL @ BOS W 34 6 3 9 33.3 0 0 - 0 0 - 1 2 3 5 3 1 2 1 -
p581
aVRon Anderson PHL 12/22/1989 PHL @ BOS W 31 10 3 11 27.3 0 0 - 4 6 66.7 1 5 6 5 0 0 2 2 -
p582
aVCharles Barkley PHL 12/22/1989 PHL @ BOS W 39 23 9 20 45.0 0 3 0.0 5 10 50.0 5 7 12 3 4 1 3 3 -
p583
aVBob Thornton PHL 12/22/1989 PHL @ BOS W 6 2 1 1 100.0 0 0 - 0 0 - 0 2 2 1 0 0 0 0 -
p584
aVHersey Hawkins PHL 12/22/1989 PHL @ BOS W 33 17 5 11 45.5 0 0 - 7 7 100.0 1 5 6 1 0 1 3 1 -
p585
aVScott Brooks PHL 12/22/1989 PHL @ BOS W 14 5 2 5 40.0 1 2 50.0 0 0 - 0 1 1 3 0 0 1 4 -
p586
aVRick Mahorn PHL 12/22/1989 PHL @ BOS W 32 2 0 7 0.0 0 0 - 2 2 100.0 3 2 5 0 0 1 1 2 -
p587
aVMike Gminski PHL 12/22/1989 PHL @ BOS W 36 11 4 14 28.6 0 0 - 3 3 100.0 3 11 14 1 0 1 0 2 -
p588
aVDerek Smith PHL 12/22/1989 PHL @ BOS W 15 13 6 8 75.0 0 0 - 1 3 33.3 1 1 2 0 1 0 0 0 -
p589
aVRon Anderson PHL 12/20/1989 PHL vs. WAS W 33 22 8 12 66.7 0 0 - 6 6 100.0 1 1 2 1 0 1 1 3 -
p590
aVCharles Barkley PHL 12/20/1989 PHL vs. WAS W 43 34 10 15 66.7 0 1 0.0 14 18 77.8 5 6 11 7 2 2 4 2 -
p591
aVRick Mahorn PHL 12/20/1989 PHL vs. WAS W 27 7 2 8 25.0 0 0 - 3 3 100.0 1 5 6 1 0 0 3 4 -
p592
aVDerek Smith PHL 12/20/1989 PHL vs. WAS W 15 6 2 3 66.7 0 0 - 2 2 100.0 0 0 0 2 0 1 1 3 -
p593
aVHersey Hawkins PHL 12/20/1989 PHL vs. WAS W 33 21 8 13 61.5 0 2 0.0 5 5 100.0 0 2 2 3 1 2 2 4 -
p594
aVJohnny Dawkins PHL 12/20/1989 PHL vs. WAS W 37 16 7 15 46.7 0 0 - 2 2 100.0 2 6 8 9 1 0 1 3 -
p595
aVMike Gminski PHL 12/20/1989 PHL vs. WAS W 38 10 5 13 38.5 0 0 - 0 2 0.0 2 10 12 4 0 1 2 2 -
p596
aVBob Thornton PHL 12/20/1989 PHL vs. WAS W 3 0 0 1 0.0 0 0 - 0 0 - 0 1 1 0 0 0 0 1 -
p597
aVScott Brooks PHL 12/20/1989 PHL vs. WAS W 11 2 1 4 25.0 0 1 0.0 0 0 - 0 0 0 1 2 0 1 0 -
p598
aVBob Thornton PHL 12/15/1989 PHL vs. DAL L 8 1 0 0 - 0 0 - 1 2 50.0 1 2 3 0 0 0 0 0 -
p599
aVCharles Barkley PHL 12/15/1989 PHL vs. DAL L 29 14 6 10 60.0 0 1 0.0 2 2 100.0 2 5 7 4 0 0 4 4 -
p600
aVMike Gminski PHL 12/15/1989 PHL vs. DAL L 40 26 10 18 55.6 0 0 - 6 6 100.0 3 12 15 2 1 3 1 1 -
p601
aVHersey Hawkins PHL 12/15/1989 PHL vs. DAL L 41 15 4 12 33.3 0 3 0.0 7 8 87.5 0 4 4 6 0 2 5 5 -
p602
aVScott Brooks PHL 12/15/1989 PHL vs. DAL L 7 2 1 3 33.3 0 1 0.0 0 0 - 0 0 0 2 0 0 0 0 -
p603
aVJohnny Dawkins PHL 12/15/1989 PHL vs. DAL L 41 10 5 14 35.7 0 2 0.0 0 0 - 0 5 5 4 1 0 5 5 -
p604
aVKurt Nimphius PHL 12/15/1989 PHL vs. DAL L 5 0 0 1 0.0 0 0 - 0 0 - 1 1 2 0 0 0 0 0 -
p605
aVDerek Smith PHL 12/15/1989 PHL vs. DAL L 13 2 1 2 50.0 0 0 - 0 0 - 0 1 1 0 0 0 1 3 -
p606
aVRick Mahorn PHL 12/15/1989 PHL vs. DAL L 28 14 7 10 70.0 0 1 0.0 0 0 - 5 5 10 2 0 3 1 5 -
p607
aVRon Anderson PHL 12/15/1989 PHL vs. DAL L 28 4 2 10 20.0 0 0 - 0 0 - 0 3 3 2 0 1 3 4 -
p608
aVRick Mahorn PHL 12/13/1989 PHL vs. ATL W 38 10 3 6 50.0 0 0 - 4 7 57.1 4 5 9 3 1 4 4 5 -
p609
aVMike Gminski PHL 12/13/1989 PHL vs. ATL W 31 10 5 9 55.6 0 0 - 0 0 - 1 6 7 3 0 2 3 2 -
p610
aVDerek Smith PHL 12/13/1989 PHL vs. ATL W 7 2 1 2 50.0 0 1 0.0 0 0 - 0 1 1 0 0 0 0 2 -
p611
aVBob Thornton PHL 12/13/1989 PHL vs. ATL W 5 2 1 2 50.0 0 0 - 0 0 - 1 0 1 0 0 0 0 3 -
p612
aVCharles Barkley PHL 12/13/1989 PHL vs. ATL W 43 23 5 10 50.0 0 0 - 13 16 81.3 5 7 12 4 2 1 2 3 -
p613
aVRon Anderson PHL 12/13/1989 PHL vs. ATL W 27 15 7 13 53.8 0 0 - 1 1 100.0 2 1 3 4 2 0 0 1 -
p614
aVJohnny Dawkins PHL 12/13/1989 PHL vs. ATL W 48 23 11 23 47.8 0 0 - 1 1 100.0 1 4 5 9 3 0 3 2 -
p615
aVHersey Hawkins PHL 12/13/1989 PHL vs. ATL W 41 27 9 18 50.0 2 4 50.0 7 8 87.5 0 1 1 2 3 1 1 3 -
p616
aVBob Thornton PHL 12/12/1989 PHL @ NJN L 12 2 0 3 0.0 0 0 - 2 2 100.0 1 2 3 0 0 0 2 3 -
p617
aVJay Vincent PHL 12/12/1989 PHL @ NJN L 5 0 0 2 0.0 0 0 - 0 0 - 0 0 0 0 0 0 0 0 -
p618
aVCharles Barkley PHL 12/12/1989 PHL @ NJN L 45 33 12 14 85.7 1 1 100.0 8 10 80.0 6 11 17 1 2 0 4 4 -
p619
aVScott Brooks PHL 12/12/1989 PHL @ NJN L 6 0 0 3 0.0 0 2 0.0 0 0 - 0 0 0 0 0 0 1 1 -
p620
aVMike Gminski PHL 12/12/1989 PHL @ NJN L 39 10 4 17 23.5 0 0 - 2 3 66.7 4 7 11 1 1 0 2 0 -
p621
aVHersey Hawkins PHL 12/12/1989 PHL @ NJN L 39 14 7 15 46.7 0 1 0.0 0 0 - 0 1 1 3 3 0 4 2 -
p622
aVDerek Smith PHL 12/12/1989 PHL @ NJN L 9 0 0 5 0.0 0 0 - 0 0 - 0 0 0 1 0 0 0 0 -
p623
aVRon Anderson PHL 12/12/1989 PHL @ NJN L 43 9 4 11 36.4 0 0 - 1 2 50.0 0 3 3 3 0 0 2 2 -
p624
aVJohnny Dawkins PHL 12/12/1989 PHL @ NJN L 42 14 6 14 42.9 0 0 - 2 2 100.0 0 3 3 6 2 0 3 2 -
p625
aVRick Mahorn PHL 12/09/1989 PHL @ CHI L 27 4 1 5 20.0 0 0 - 2 2 100.0 3 5 8 2 0 1 2 1 -
p626
aVKurt Nimphius PHL 12/09/1989 PHL @ CHI L 5 0 0 0 - 0 0 - 0 0 - 0 2 2 0 0 0 0 0 -
p627
aVDerek Smith PHL 12/09/1989 PHL @ CHI L 26 19 6 11 54.5 1 1 100.0 6 8 75.0 1 1 2 1 1 0 1 6 -
p628
aVJohnny Dawkins PHL 12/09/1989 PHL @ CHI L 32 13 6 10 60.0 0 0 - 1 2 50.0 0 0 0 7 1 0 4 1 -
p629
aVKenny Payne PHL 12/09/1989 PHL @ CHI L 8 7 2 6 33.3 0 0 - 3 3 100.0 1 0 1 0 0 0 1 1 -
p630
aVScott Brooks PHL 12/09/1989 PHL @ CHI L 16 6 2 5 40.0 2 2 100.0 0 0 - 0 1 1 3 0 0 0 1 -
p631
aVHersey Hawkins PHL 12/09/1989 PHL @ CHI L 21 12 4 7 57.1 1 1 100.0 3 3 100.0 0 0 0 3 0 0 2 0 -
p632
aVCharles Barkley PHL 12/09/1989 PHL @ CHI L 20 6 3 7 42.9 0 1 0.0 0 1 0.0 0 2 2 0 0 0 2 3 -
p633
aVBob Thornton PHL 12/09/1989 PHL @ CHI L 17 8 3 5 60.0 1 1 100.0 1 1 100.0 2 2 4 0 1 1 0 3 -
p634
aVMike Gminski PHL 12/09/1989 PHL @ CHI L 28 6 3 9 33.3 0 0 - 0 0 - 1 3 4 3 0 1 2 2 -
p635
aVJay Vincent PHL 12/09/1989 PHL @ CHI L 14 11 4 8 50.0 1 1 100.0 2 3 66.7 2 2 4 0 0 1 0 1 -
p636
aVRon Anderson PHL 12/09/1989 PHL @ CHI L 26 13 6 14 42.9 0 0 - 1 1 100.0 1 4 5 1 1 0 1 2 -
p637
aVDerek Smith PHL 12/08/1989 PHL vs. DET W 7 1 0 1 0.0 0 0 - 1 2 50.0 0 1 1 0 0 0 1 4 -
p638
aVScott Brooks PHL 12/08/1989 PHL vs. DET W 5 0 0 2 0.0 0 1 0.0 0 0 - 0 0 0 2 0 0 0 1 -
p639
aVHersey Hawkins PHL 12/08/1989 PHL vs. DET W 41 17 5 14 35.7 1 2 50.0 6 6 100.0 3 3 6 5 1 0 2 5 -
p640
aVRick Mahorn PHL 12/08/1989 PHL vs. DET W 39 22 6 9 66.7 0 0 - 10 14 71.4 4 10 14 1 1 0 2 2 -
p641
aVRon Anderson PHL 12/08/1989 PHL vs. DET W 30 18 6 15 40.0 0 0 - 6 7 85.7 1 2 3 3 2 0 3 3 -
p642
aVCharles Barkley PHL 12/08/1989 PHL vs. DET W 37 11 4 6 66.7 0 0 - 3 5 60.0 1 5 6 2 2 0 1 3 -
p643
aVMike Gminski PHL 12/08/1989 PHL vs. DET W 38 12 4 9 44.4 0 0 - 4 4 100.0 3 8 11 2 0 1 1 0 -
p644
aVJohnny Dawkins PHL 12/08/1989 PHL vs. DET W 43 26 12 18 66.7 0 1 0.0 2 3 66.7 0 5 5 4 2 1 1 3 -
p645
aVScott Brooks PHL 12/06/1989 PHL vs. MIA W 11 2 1 3 33.3 0 1 0.0 0 0 - 0 0 0 2 0 0 1 1 -
p646
aVKenny Payne PHL 12/06/1989 PHL vs. MIA W 3 4 2 2 100.0 0 0 - 0 0 - 0 1 1 0 0 0 0 0 -
p647
aVDerek Smith PHL 12/06/1989 PHL vs. MIA W 13 4 2 6 33.3 0 0 - 0 0 - 1 3 4 0 0 0 2 2 -
p648
aVRon Anderson PHL 12/06/1989 PHL vs. MIA W 37 16 6 18 33.3 0 0 - 4 4 100.0 3 3 6 8 0 0 3 1 -
p649
aVJohnny Dawkins PHL 12/06/1989 PHL vs. MIA W 37 24 10 12 83.3 1 1 100.0 3 4 75.0 1 7 8 7 4 0 5 2 -
p650
aVMike Gminski PHL 12/06/1989 PHL vs. MIA W 31 22 9 13 69.2 1 2 50.0 3 7 42.9 3 3 6 4 2 3 1 1 -
p651
aVJay Vincent PHL 12/06/1989 PHL vs. MIA W 20 9 1 5 20.0 0 0 - 7 8 87.5 1 2 3 1 0 0 2 3 -
p652
aVKurt Nimphius PHL 12/06/1989 PHL vs. MIA W 17 2 1 2 50.0 0 0 - 0 0 - 1 3 4 0 0 2 1 0 -
p653
aVRick Mahorn PHL 12/06/1989 PHL vs. MIA W 31 14 6 6 100.0 0 0 - 2 5 40.0 4 7 11 2 1 1 1 3 -
p654
aVHersey Hawkins PHL 12/06/1989 PHL vs. MIA W 40 24 7 16 43.8 0 1 0.0 10 11 90.9 2 6 8 5 2 0 3 1 -
p655
aVHersey Hawkins PHL 12/05/1989 PHL @ NYK L 39 15 5 11 45.5 0 2 0.0 5 6 83.3 3 1 4 4 1 1 2 2 -
p656
aVJohnny Dawkins PHL 12/05/1989 PHL @ NYK L 41 19 7 15 46.7 0 0 - 5 5 100.0 3 2 5 4 2 0 2 2 -
p657
aVJay Vincent PHL 12/05/1989 PHL @ NYK L 14 6 2 5 40.0 0 0 - 2 2 100.0 1 0 1 1 0 1 1 2 -
p658
aVDerek Smith PHL 12/05/1989 PHL @ NYK L 24 13 5 9 55.6 0 0 - 3 5 60.0 4 3 7 1 1 0 2 3 -
p659
aVMike Gminski PHL 12/05/1989 PHL @ NYK L 36 20 8 22 36.4 0 0 - 4 5 80.0 4 5 9 0 0 0 1 1 -
p660
aVRick Mahorn PHL 12/05/1989 PHL @ NYK L 38 27 12 20 60.0 0 0 - 3 5 60.0 7 8 15 2 0 2 1 3 -
p661
aVKurt Nimphius PHL 12/05/1989 PHL @ NYK L 9 0 0 3 0.0 0 0 - 0 0 - 2 0 2 0 0 0 1 1 -
p662
aVRon Anderson PHL 12/05/1989 PHL @ NYK L 35 3 1 13 7.7 0 2 0.0 1 2 50.0 1 7 8 2 0 0 0 2 -
p663
aVDexter Shouse PHL 12/05/1989 PHL @ NYK L 4 0 0 0 - 0 0 - 0 0 - 0 0 0 1 1 0 0 1 -
p664
aVRick Mahorn PHL 12/02/1989 PHL @ ATL L 34 17 6 11 54.5 0 0 - 5 5 100.0 4 4 8 1 0 0 2 4 -
p665
aVRon Anderson PHL 12/02/1989 PHL @ ATL L 27 9 3 6 50.0 0 0 - 3 5 60.0 1 4 5 0 0 0 0 0 -
p666
aVMike Gminski PHL 12/02/1989 PHL @ ATL L 37 10 5 12 41.7 0 0 - 0 0 - 3 6 9 2 2 0 3 4 -
p667
aVHersey Hawkins PHL 12/02/1989 PHL @ ATL L 39 24 8 18 44.4 2 4 50.0 6 6 100.0 1 1 2 3 4 0 1 0 -
p668
aVJay Vincent PHL 12/02/1989 PHL @ ATL L 3 2 1 3 33.3 0 0 - 0 0 - 0 0 0 0 0 0 0 0 -
p669
aVJohnny Dawkins PHL 12/02/1989 PHL @ ATL L 38 4 2 11 18.2 0 1 0.0 0 0 - 1 1 2 7 1 0 2 2 -
p670
aVCharles Barkley PHL 12/02/1989 PHL @ ATL L 39 19 7 12 58.3 0 2 0.0 5 8 62.5 3 7 10 1 1 1 3 3 -
p671
aVScott Brooks PHL 12/02/1989 PHL @ ATL L 12 3 1 4 25.0 0 2 0.0 1 1 100.0 1 2 3 2 1 0 0 4 -
p672
aVDerek Smith PHL 12/02/1989 PHL @ ATL L 11 4 1 6 16.7 0 0 - 2 2 100.0 1 1 2 1 1 0 0 2 -
p673
aVMike Gminski PHL 12/01/1989 PHL @ WAS L 30 15 7 13 53.8 0 0 - 1 1 100.0 1 8 9 2 0 1 5 3 -
p674
aVDexter Shouse PHL 12/01/1989 PHL @ WAS L 8 0 0 1 0.0 0 0 - 0 0 - 0 0 0 1 0 1 1 0 -
p675
aVJay Vincent PHL 12/01/1989 PHL @ WAS L 15 8 2 5 40.0 0 0 - 4 5 80.0 1 2 3 0 1 0 2 1 -
p676
aVJohnny Dawkins PHL 12/01/1989 PHL @ WAS L 24 8 3 8 37.5 0 0 - 2 4 50.0 0 2 2 5 1 0 2 1 -
p677
aVCharles Barkley PHL 12/01/1989 PHL @ WAS L 38 19 7 11 63.6 0 3 0.0 5 8 62.5 5 6 11 5 0 0 2 4 -
p678
aVHersey Hawkins PHL 12/01/1989 PHL @ WAS L 37 13 5 16 31.3 1 4 25.0 2 2 100.0 1 2 3 4 2 0 3 4 -
p679
aVScott Brooks PHL 12/01/1989 PHL @ WAS L 16 7 3 5 60.0 1 1 100.0 0 0 - 1 1 2 3 0 0 1 2 -
p680
aVRon Anderson PHL 12/01/1989 PHL @ WAS L 25 4 2 8 25.0 0 1 0.0 0 0 - 1 5 6 0 0 0 1 0 -
p681
aVKurt Nimphius PHL 12/01/1989 PHL @ WAS L 7 3 1 3 33.3 0 0 - 1 2 50.0 2 0 2 0 0 0 1 1 -
p682
aVRick Mahorn PHL 12/01/1989 PHL @ WAS L 29 10 4 8 50.0 0 0 - 2 2 100.0 1 5 6 1 0 0 3 3 -
p683
aVDerek Smith PHL 12/01/1989 PHL @ WAS L 11 3 1 3 33.3 0 0 - 1 2 50.0 1 0 1 1 0 0 0 2 -
p684
aVRick Mahorn PHL 11/29/1989 PHL vs. CLE W 24 4 1 4 25.0 0 0 - 2 2 100.0 1 1 2 0 0 1 0 2 -
p685
aVHersey Hawkins PHL 11/29/1989 PHL vs. CLE W 32 28 13 14 92.9 1 1 100.0 1 3 33.3 1 2 3 6 2 0 0 2 -
p686
aVKenny Payne PHL 11/29/1989 PHL vs. CLE W 6 2 1 2 50.0 0 0 - 0 0 - 0 1 1 1 0 0 1 1 -
p687
aVRon Anderson PHL 11/29/1989 PHL vs. CLE W 20 12 5 13 38.5 0 0 - 2 3 66.7 1 2 3 3 1 0 0 0 -
p688
aVCharles Barkley PHL 11/29/1989 PHL vs. CLE W 33 14 4 6 66.7 0 1 0.0 6 8 75.0 3 5 8 3 4 0 3 1 -
p689
aVScott Brooks PHL 11/29/1989 PHL vs. CLE W 14 6 1 5 20.0 0 0 - 4 4 100.0 0 0 0 4 1 0 0 1 -
p690
aVJay Vincent PHL 11/29/1989 PHL vs. CLE W 15 8 2 5 40.0 0 0 - 4 4 100.0 2 1 3 0 2 0 2 3 -
p691
aVDexter Shouse PHL 11/29/1989 PHL vs. CLE W 6 0 0 3 0.0 0 1 0.0 0 0 - 0 0 0 0 0 0 1 1 -
p692
aVJohnny Dawkins PHL 11/29/1989 PHL vs. CLE W 28 12 6 13 46.2 0 0 - 0 0 - 0 1 1 9 0 0 4 2 -
p693
aVDerek Smith PHL 11/29/1989 PHL vs. CLE W 16 6 1 3 33.3 0 0 - 4 4 100.0 2 7 9 2 0 0 1 4 -
p694
aVKurt Nimphius PHL 11/29/1989 PHL vs. CLE W 17 5 2 4 50.0 0 0 - 1 2 50.0 1 3 4 0 0 1 0 2 -
p695
aVMike Gminski PHL 11/29/1989 PHL vs. CLE W 29 17 7 12 58.3 0 0 - 3 3 100.0 0 6 6 1 0 0 0 0 -
p696
aVKurt Nimphius PHL 11/25/1989 PHL @ IND W 20 2 1 4 25.0 0 0 - 0 0 - 1 3 4 0 1 0 0 4 -
p697
aVScott Brooks PHL 11/25/1989 PHL @ IND W 16 4 1 3 33.3 1 2 50.0 1 1 100.0 0 2 2 4 1 0 0 2 -
p698
aVRick Mahorn PHL 11/25/1989 PHL @ IND W 37 18 8 12 66.7 0 0 - 2 2 100.0 3 2 5 2 0 0 0 5 -
p699
aVJay Vincent PHL 11/25/1989 PHL @ IND W 15 6 3 7 42.9 0 0 - 0 0 - 0 2 2 0 2 0 1 0 -
p700
aVCharles Barkley PHL 11/25/1989 PHL @ IND W 43 24 8 21 38.1 0 2 0.0 8 9 88.9 5 5 10 5 2 0 1 4 -
p701
aVKenny Payne PHL 11/25/1989 PHL @ IND W 1 0 0 0 - 0 0 - 0 0 - 0 0 0 0 0 0 0 0 -
p702
aVDerek Smith PHL 11/25/1989 PHL @ IND W 10 3 1 3 33.3 0 0 - 1 2 50.0 0 0 0 1 0 0 0 1 -
p703
aVJohnny Dawkins PHL 11/25/1989 PHL @ IND W 32 22 8 12 66.7 0 0 - 6 7 85.7 0 2 2 3 2 0 0 1 -
p704
aVRon Anderson PHL 11/25/1989 PHL @ IND W 28 8 3 10 30.0 0 1 0.0 2 2 100.0 1 3 4 1 3 0 2 4 -
p705
aVHersey Hawkins PHL 11/25/1989 PHL @ IND W 38 24 10 17 58.8 2 4 50.0 2 2 100.0 2 2 4 1 2 0 1 3 -
p706
aVScott Brooks PHL 11/24/1989 PHL vs. WAS W 14 9 4 6 66.7 1 2 50.0 0 0 - 0 0 0 2 0 0 1 1 -
p707
aVRick Mahorn PHL 11/24/1989 PHL vs. WAS W 25 12 5 7 71.4 0 0 - 2 5 40.0 5 3 8 2 1 3 2 3 -
p708
aVKurt Nimphius PHL 11/24/1989 PHL vs. WAS W 15 1 0 2 0.0 0 0 - 1 4 25.0 1 2 3 0 0 3 0 3 -
p709
aVMike Gminski PHL 11/24/1989 PHL vs. WAS W 27 7 3 11 27.3 0 0 - 1 2 50.0 1 2 3 3 0 0 0 0 -
p710
aVRon Anderson PHL 11/24/1989 PHL vs. WAS W 26 4 2 6 33.3 0 0 - 0 0 - 0 3 3 5 2 0 1 1 -
p711
aVLanard Copeland PHL 11/24/1989 PHL vs. WAS W 3 2 1 2 50.0 0 0 - 0 0 - 0 0 0 0 0 0 1 0 -
p712
aVKenny Payne PHL 11/24/1989 PHL vs. WAS W 3 0 0 1 0.0 0 0 - 0 0 - 0 0 0 1 0 0 1 0 -
p713
aVHersey Hawkins PHL 11/24/1989 PHL vs. WAS W 31 24 10 17 58.8 2 2 100.0 2 2 100.0 2 1 3 2 1 0 1 4 -
p714
aVJay Vincent PHL 11/24/1989 PHL vs. WAS W 14 8 4 5 80.0 0 0 - 0 0 - 0 1 1 1 0 0 0 0 -
p715
aVCharles Barkley PHL 11/24/1989 PHL vs. WAS W 34 32 10 17 58.8 1 1 100.0 11 11 100.0 6 9 15 3 0 0 2 3 -
p716
aVDerek Smith PHL 11/24/1989 PHL vs. WAS W 14 4 2 6 33.3 0 0 - 0 0 - 0 2 2 1 0 0 2 5 -
p717
aVJohnny Dawkins PHL 11/24/1989 PHL vs. WAS W 34 18 7 12 58.3 0 0 - 4 4 100.0 2 5 7 8 0 0 3 0 -
p718
aVKenny Payne PHL 11/22/1989 PHL @ MIA W 1 0 0 1 0.0 0 0 - 0 0 - 0 0 0 0 0 0 0 0 -
p719
aVScott Brooks PHL 11/22/1989 PHL @ MIA W 20 5 2 3 66.7 0 0 - 1 1 100.0 0 1 1 3 2 0 0 2 -
p720
aVRon Anderson PHL 11/22/1989 PHL @ MIA W 26 11 4 8 50.0 0 0 - 3 4 75.0 2 2 4 0 0 0 2 2 -
p721
aVJay Vincent PHL 11/22/1989 PHL @ MIA W 13 2 1 5 20.0 0 0 - 0 0 - 0 1 1 0 0 0 0 2 -
p722
aVKurt Nimphius PHL 11/22/1989 PHL @ MIA W 17 9 4 6 66.7 0 0 - 1 1 100.0 1 0 1 0 1 1 1 4 -
p723
aVMike Gminski PHL 11/22/1989 PHL @ MIA W 28 11 4 6 66.7 0 0 - 3 4 75.0 1 10 11 1 0 0 3 3 -
p724
aVJohnny Dawkins PHL 11/22/1989 PHL @ MIA W 28 19 8 12 66.7 0 0 - 3 3 100.0 1 2 3 5 1 0 4 3 -
p725
aVDerek Smith PHL 11/22/1989 PHL @ MIA W 11 6 3 6 50.0 0 0 - 0 0 - 0 0 0 0 0 0 1 4 -
p726
aVHersey Hawkins PHL 11/22/1989 PHL @ MIA W 37 20 7 14 50.0 0 0 - 6 7 85.7 0 7 7 4 3 0 1 3 -
p727
aVCharles Barkley PHL 11/22/1989 PHL @ MIA W 33 20 7 16 43.8 0 1 0.0 6 9 66.7 6 3 9 4 0 0 1 4 -
p728
aVRick Mahorn PHL 11/22/1989 PHL @ MIA W 26 10 4 10 40.0 0 0 - 2 4 50.0 1 6 7 1 1 0 0 4 -
p729
aVHersey Hawkins PHL 11/18/1989 PHL @ ORL L 33 11 4 12 33.3 0 1 0.0 3 4 75.0 1 5 6 0 0 2 3 4 -
p730
aVRick Mahorn PHL 11/18/1989 PHL @ ORL L 17 4 2 3 66.7 0 0 - 0 0 - 1 3 4 0 0 1 2 3 -
p731
aVScott Brooks PHL 11/18/1989 PHL @ ORL L 10 0 0 2 0.0 0 0 - 0 0 - 0 0 0 4 0 0 0 2 -
p732
aVKurt Nimphius PHL 11/18/1989 PHL @ ORL L 1 0 0 0 - 0 0 - 0 0 - 0 0 0 0 0 0 0 0 -
p733
aVMike Gminski PHL 11/18/1989 PHL @ ORL L 36 16 4 13 30.8 0 0 - 8 10 80.0 3 7 10 1 0 1 1 2 -
p734
aVJay Vincent PHL 11/18/1989 PHL @ ORL L 22 13 6 14 42.9 0 0 - 1 1 100.0 2 3 5 0 1 0 2 2 -
p735
aVCharles Barkley PHL 11/18/1989 PHL @ ORL L 34 22 10 14 71.4 0 1 0.0 2 3 66.7 2 5 7 2 2 1 2 4 -
p736
aVJohnny Dawkins PHL 11/18/1989 PHL @ ORL L 38 21 8 14 57.1 0 2 0.0 5 5 100.0 0 1 1 10 1 0 5 1 -
p737
aVRon Anderson PHL 11/18/1989 PHL @ ORL L 33 12 6 14 42.9 0 1 0.0 0 0 - 2 1 3 3 1 0 0 1 -
p738
aVDerek Smith PHL 11/18/1989 PHL @ ORL L 16 4 2 7 28.6 0 1 0.0 0 0 - 0 0 0 2 2 0 0 3 -
p739
aVRick Mahorn PHL 11/17/1989 PHL vs. SAN W 24 10 4 5 80.0 0 0 - 2 2 100.0 0 6 6 0 1 2 2 5 -
p740
aVRon Anderson PHL 11/17/1989 PHL vs. SAN W 32 11 5 11 45.5 0 0 - 1 1 100.0 0 2 2 2 1 1 1 1 -
p741
aVJay Vincent PHL 11/17/1989 PHL vs. SAN W 12 3 1 4 25.0 0 0 - 1 1 100.0 0 0 0 1 0 0 2 2 -
p742
aVHersey Hawkins PHL 11/17/1989 PHL vs. SAN W 33 9 4 15 26.7 1 3 33.3 0 0 - 2 5 7 5 2 0 1 1 -
p743
aVMike Gminski PHL 11/17/1989 PHL vs. SAN W 33 17 7 15 46.7 0 0 - 3 3 100.0 3 6 9 2 0 2 0 2 -
p744
aVScott Brooks PHL 11/17/1989 PHL vs. SAN W 13 4 1 2 50.0 0 1 0.0 2 2 100.0 0 0 0 3 0 0 0 1 -
p745
aVJohnny Dawkins PHL 11/17/1989 PHL vs. SAN W 35 20 9 13 69.2 0 1 0.0 2 2 100.0 0 3 3 11 0 0 1 2 -
p746
aVDerek Smith PHL 11/17/1989 PHL vs. SAN W 15 9 4 7 57.1 0 1 0.0 1 1 100.0 1 1 2 1 2 0 1 1 -
p747
aVCharles Barkley PHL 11/17/1989 PHL vs. SAN W 43 25 10 12 83.3 0 1 0.0 5 9 55.6 4 9 13 4 5 1 5 1 -
p748
aVMike Gminski PHL 11/15/1989 PHL vs. CHH W 34 20 5 11 45.5 0 0 - 10 10 100.0 2 7 9 1 0 1 2 1 -
p749
aVScott Brooks PHL 11/15/1989 PHL vs. CHH W 12 4 1 2 50.0 0 1 0.0 2 2 100.0 0 2 2 2 2 0 1 1 -
p750
aVJay Vincent PHL 11/15/1989 PHL vs. CHH W 25 14 6 9 66.7 0 0 - 2 2 100.0 1 1 2 1 1 0 1 1 -
p751
aVHersey Hawkins PHL 11/15/1989 PHL vs. CHH W 30 11 4 13 30.8 1 3 33.3 2 2 100.0 1 5 6 3 2 0 2 4 -
p752
aVCharles Barkley PHL 11/15/1989 PHL vs. CHH W 37 29 10 16 62.5 0 0 - 9 9 100.0 4 13 17 3 1 2 4 2 -
p753
aVRon Anderson PHL 11/15/1989 PHL vs. CHH W 26 7 3 9 33.3 0 0 - 1 2 50.0 1 2 3 5 0 0 2 3 -
p754
aVJohnny Dawkins PHL 11/15/1989 PHL vs. CHH W 36 10 4 9 44.4 0 0 - 2 3 66.7 0 0 0 11 2 0 2 1 -
p755
aVDerek Smith PHL 11/15/1989 PHL vs. CHH W 26 10 5 9 55.6 0 0 - 0 0 - 0 3 3 3 0 2 3 5 -
p756
aVRick Mahorn PHL 11/15/1989 PHL vs. CHH W 14 4 2 2 100.0 0 0 - 0 0 - 1 6 7 2 0 1 0 1 -
p757
aVHersey Hawkins PHL 11/14/1989 PHL @ BOS L 32 17 6 12 50.0 1 2 50.0 4 4 100.0 0 0 0 3 2 0 2 5 -
p758
aVRon Anderson PHL 11/14/1989 PHL @ BOS L 36 23 9 14 64.3 0 0 - 5 6 83.3 1 4 5 2 0 0 0 0 -
p759
aVJay Vincent PHL 11/14/1989 PHL @ BOS L 13 4 2 8 25.0 0 0 - 0 0 - 1 1 2 1 1 0 0 2 -
p760
aVScott Brooks PHL 11/14/1989 PHL @ BOS L 14 7 3 4 75.0 1 2 50.0 0 0 - 0 1 1 4 1 0 0 1 -
p761
aVCharles Barkley PHL 11/14/1989 PHL @ BOS L 38 16 7 14 50.0 0 0 - 2 3 66.7 1 5 6 5 3 0 5 4 -
p762
aVKurt Nimphius PHL 11/14/1989 PHL @ BOS L 3 0 0 0 - 0 0 - 0 0 - 0 0 0 0 0 0 0 0 -
p763
aVJohnny Dawkins PHL 11/14/1989 PHL @ BOS L 34 7 3 7 42.9 0 0 - 1 2 50.0 0 1 1 7 2 0 7 4 -
p764
aVRick Mahorn PHL 11/14/1989 PHL @ BOS L 22 2 1 7 14.3 0 0 - 0 0 - 2 3 5 0 0 1 0 2 -
p765
aVMike Gminski PHL 11/14/1989 PHL @ BOS L 32 10 4 10 40.0 0 0 - 2 2 100.0 1 10 11 0 0 0 1 0 -
p766
aVDerek Smith PHL 11/14/1989 PHL @ BOS L 16 8 4 5 80.0 0 0 - 0 0 - 0 2 2 0 0 0 0 2 -
p767
aVRick Mahorn PHL 11/11/1989 PHL @ MIL W 26 3 1 4 25.0 0 0 - 1 2 50.0 1 5 6 2 0 1 0 1 -
p768
aVMike Gminski PHL 11/11/1989 PHL @ MIL W 21 6 3 9 33.3 0 0 - 0 0 - 2 3 5 0 1 0 1 2 -
p769
aVHersey Hawkins PHL 11/11/1989 PHL @ MIL W 36 20 7 12 58.3 2 4 50.0 4 4 100.0 0 3 3 2 2 0 2 4 -
p770
aVRon Anderson PHL 11/11/1989 PHL @ MIL W 29 9 4 7 57.1 0 0 - 1 1 100.0 0 2 2 0 0 0 2 3 -
p771
aVJohnny Dawkins PHL 11/11/1989 PHL @ MIL W 32 13 5 8 62.5 0 0 - 3 4 75.0 1 4 5 8 2 0 9 1 -
p772
aVCharles Barkley PHL 11/11/1989 PHL @ MIL W 32 23 6 7 85.7 0 0 - 11 15 73.3 4 5 9 3 1 1 2 5 -
p773
aVScott Brooks PHL 11/11/1989 PHL @ MIL W 16 7 2 4 50.0 1 1 100.0 2 2 100.0 0 0 0 0 1 0 4 1 -
p774
aVJay Vincent PHL 11/11/1989 PHL @ MIL W 36 19 8 14 57.1 0 0 - 3 3 100.0 1 3 4 2 1 0 0 2 -
p775
aVDerek Smith PHL 11/11/1989 PHL @ MIL W 12 4 2 5 40.0 0 0 - 0 0 - 1 0 1 2 0 0 2 0 -
p776
aVJay Vincent PHL 11/10/1989 PHL @ MIN L 6 4 1 2 50.0 0 0 - 2 3 66.7 1 1 2 0 0 0 1 1 -
p777
aVRick Mahorn PHL 11/10/1989 PHL @ MIN L 20 5 0 3 0.0 0 0 - 5 6 83.3 1 2 3 0 0 3 1 4 -
p778
aVJohnny Dawkins PHL 11/10/1989 PHL @ MIN L 48 16 4 15 26.7 0 0 - 8 10 80.0 0 7 7 12 3 0 1 2 -
p779
aVCharles Barkley PHL 11/10/1989 PHL @ MIN L 46 31 10 16 62.5 1 3 33.3 10 11 90.9 5 3 8 3 3 0 4 4 -
p780
aVRon Anderson PHL 11/10/1989 PHL @ MIN L 43 14 7 15 46.7 0 1 0.0 0 0 - 1 5 6 5 1 0 1 3 -
p781
aVHersey Hawkins PHL 11/10/1989 PHL @ MIN L 38 26 9 18 50.0 2 4 50.0 6 6 100.0 1 1 2 3 3 0 4 6 -
p782
aVKenny Payne PHL 11/10/1989 PHL @ MIN L 8 2 1 4 25.0 0 0 - 0 0 - 2 1 3 0 0 0 0 4 -
p783
aVDerek Smith PHL 11/10/1989 PHL @ MIN L 15 10 4 6 66.7 0 0 - 2 2 100.0 0 2 2 0 0 1 2 3 -
p784
aVMike Gminski PHL 11/10/1989 PHL @ MIN L 36 10 4 11 36.4 0 0 - 2 2 100.0 4 4 8 3 0 0 1 2 -
p785
aVScott Brooks PHL 11/10/1989 PHL @ MIN L 5 0 0 1 0.0 0 0 - 0 0 - 1 0 1 0 0 0 1 2 -
p786
aVRick Mahorn PHL 11/08/1989 PHL vs. MIA W 6 2 0 1 0.0 0 0 - 2 4 50.0 0 0 0 0 0 3 1 2 -
p787
aVDerek Smith PHL 11/08/1989 PHL vs. MIA W 10 0 0 2 0.0 0 0 - 0 0 - 0 1 1 0 0 0 0 2 -
p788
aVMike Gminski PHL 11/08/1989 PHL vs. MIA W 32 19 6 13 46.2 0 0 - 7 8 87.5 3 9 12 1 1 6 1 1 -
p789
aVKurt Nimphius PHL 11/08/1989 PHL vs. MIA W 10 6 2 3 66.7 0 0 - 2 2 100.0 1 2 3 0 1 0 1 1 -
p790
aVJay Vincent PHL 11/08/1989 PHL vs. MIA W 17 7 1 4 25.0 0 0 - 5 5 100.0 0 3 3 0 1 0 0 1 -
p791
aVHersey Hawkins PHL 11/08/1989 PHL vs. MIA W 35 13 5 10 50.0 1 2 50.0 2 4 50.0 1 4 5 3 2 1 2 1 -
p792
aVJohnny Dawkins PHL 11/08/1989 PHL vs. MIA W 29 11 4 8 50.0 0 0 - 3 5 60.0 0 2 2 9 1 0 5 3 -
p793
aVLanard Copeland PHL 11/08/1989 PHL vs. MIA W 3 2 0 1 0.0 0 0 - 2 2 100.0 1 0 1 0 0 0 0 0 -
p794
aVScott Brooks PHL 11/08/1989 PHL vs. MIA W 19 4 1 4 25.0 0 0 - 2 2 100.0 0 0 0 10 1 0 1 1 -
p795
aVRon Anderson PHL 11/08/1989 PHL vs. MIA W 25 18 8 13 61.5 0 0 - 2 2 100.0 0 4 4 0 2 0 2 0 -
p796
aVKenny Payne PHL 11/08/1989 PHL vs. MIA W 17 4 2 4 50.0 0 0 - 0 0 - 0 1 1 0 0 0 3 2 -
p797
aVCharles Barkley PHL 11/08/1989 PHL vs. MIA W 37 29 10 14 71.4 0 0 - 9 10 90.0 2 5 7 6 6 0 6 5 -
p798
aVHersey Hawkins PHL 11/04/1989 PHL vs. MIL L 34 15 5 11 45.5 2 3 66.7 3 4 75.0 1 1 2 2 1 0 6 5 -
p799
aVRick Mahorn PHL 11/04/1989 PHL vs. MIL L 18 2 0 1 0.0 0 0 - 2 4 50.0 1 3 4 0 0 1 1 0 -
p800
aVKenny Payne PHL 11/04/1989 PHL vs. MIL L 7 0 0 3 0.0 0 0 - 0 0 - 0 1 1 0 0 1 0 2 -
p801
aVCharles Barkley PHL 11/04/1989 PHL vs. MIL L 45 27 6 8 75.0 0 0 - 15 23 65.2 9 5 14 2 1 4 6 1 -
p802
aVScott Brooks PHL 11/04/1989 PHL vs. MIL L 9 0 0 0 - 0 0 - 0 0 - 0 1 1 1 0 0 0 1 -
p803
aVRon Anderson PHL 11/04/1989 PHL vs. MIL L 35 14 6 15 40.0 0 2 0.0 2 2 100.0 3 2 5 1 0 1 2 5 -
p804
aVMike Gminski PHL 11/04/1989 PHL vs. MIL L 37 20 9 17 52.9 0 0 - 2 4 50.0 3 9 12 1 1 1 1 2 -
p805
aVDerek Smith PHL 11/04/1989 PHL vs. MIL L 16 9 4 9 44.4 0 0 - 1 1 100.0 0 1 1 2 1 0 1 1 -
p806
aVJohnny Dawkins PHL 11/04/1989 PHL vs. MIL L 39 9 4 11 36.4 0 1 0.0 1 1 100.0 0 2 2 12 1 0 5 3 -
p807
a.