(lp0
VPLAYER TEAM DATE MATCHUP W/L MIN PTS FGM FGA FG% 3PM 3PA 3P% FTM FTA FT% OREB DREB REB AST STL BLK TOV PF +/-
p1
aVDetlef Schrempf IND 05/01/1990 IND vs. DET L 44 20 7 15 46.7 0 2 0.0 6 6 100.0 1 6 7 1 0 1 3 4 -
p2
aVMike Sanders IND 05/01/1990 IND vs. DET L 8 4 2 6 33.3 0 0 - 0 0 - 4 0 4 0 0 0 1 2 -
p3
aVRickey Green IND 05/01/1990 IND vs. DET L 16 0 0 2 0.0 0 0 - 0 0 - 0 1 1 1 0 0 1 1 -
p4
aVReggie Miller IND 05/01/1990 IND vs. DET L 44 22 8 13 61.5 0 0 - 6 7 85.7 0 5 5 4 2 0 1 2 -
p5
aVRandy Wittman IND 05/01/1990 IND vs. DET L 4 0 0 0 - 0 0 - 0 0 - 0 0 0 0 0 0 0 0 -
p6
aVRik Smits IND 05/01/1990 IND vs. DET L 30 10 3 10 30.0 0 0 - 4 5 80.0 1 6 7 2 1 0 1 4 -
p7
aVChuck Person IND 05/01/1990 IND vs. DET L 40 14 6 14 42.9 1 3 33.3 1 4 25.0 1 3 4 3 0 0 1 3 -
p8
aVVern Fleming IND 05/01/1990 IND vs. DET L 32 14 5 11 45.5 0 1 0.0 4 4 100.0 1 4 5 3 0 0 3 1 -
p9
aVLaSalle Thompson IND 05/01/1990 IND vs. DET L 22 12 4 8 50.0 0 0 - 4 4 100.0 4 4 8 1 0 0 1 4 -
p10
aVMike Sanders IND 04/28/1990 IND @ DET L 6 2 1 2 50.0 0 0 - 0 0 - 0 0 0 0 0 0 1 2 -
p11
aVRik Smits IND 04/28/1990 IND @ DET L 28 4 2 8 25.0 0 0 - 0 0 - 1 2 3 0 1 2 2 4 -
p12
aVDetlef Schrempf IND 04/28/1990 IND @ DET L 41 15 7 16 43.8 0 1 0.0 1 2 50.0 4 4 8 2 2 0 3 4 -
p13
aVRickey Green IND 04/28/1990 IND @ DET L 10 2 1 3 33.3 0 0 - 0 0 - 0 0 0 2 1 0 0 3 -
p14
aVCalvin Natt IND 04/28/1990 IND @ DET L 5 0 0 0 - 0 0 - 0 0 - 0 1 1 0 0 0 0 2 -
p15
aVLaSalle Thompson IND 04/28/1990 IND @ DET L 23 4 2 4 50.0 0 0 - 0 0 - 1 4 5 0 0 0 4 5 -
p16
aVGeorge McCloud IND 04/28/1990 IND @ DET L 4 2 1 2 50.0 0 0 - 0 0 - 1 0 1 0 0 0 1 2 -
p17
aVChuck Person IND 04/28/1990 IND @ DET L 45 16 7 18 38.9 0 3 0.0 2 4 50.0 4 8 12 4 0 0 2 3 -
p18
aVVern Fleming IND 04/28/1990 IND @ DET L 38 19 9 14 64.3 0 1 0.0 1 2 50.0 1 2 3 7 1 1 2 2 -
p19
aVReggie Miller IND 04/28/1990 IND @ DET L 40 23 7 11 63.6 2 4 50.0 7 8 87.5 1 2 3 1 0 0 2 2 -
p20
aVCalvin Natt IND 04/26/1990 IND @ DET L 9 2 1 3 33.3 0 0 - 0 0 - 1 0 1 1 0 0 2 3 -
p21
aVChuck Person IND 04/26/1990 IND @ DET L 38 10 4 13 30.8 0 4 0.0 2 4 50.0 1 3 4 5 1 0 1 5 -
p22
aVMike Sanders IND 04/26/1990 IND @ DET L 10 5 2 3 66.7 1 1 100.0 0 0 - 1 1 2 2 0 0 0 0 -
p23
aVLaSalle Thompson IND 04/26/1990 IND @ DET L 9 2 1 3 33.3 0 0 - 0 0 - 1 1 2 1 0 1 2 4 -
p24
aVReggie Miller IND 04/26/1990 IND @ DET L 41 17 5 11 45.5 1 3 33.3 6 6 100.0 0 4 4 1 1 0 0 2 -
p25
aVRandy Wittman IND 04/26/1990 IND @ DET L 7 0 0 1 0.0 0 0 - 0 0 - 0 1 1 0 0 0 0 0 -
p26
aVVern Fleming IND 04/26/1990 IND @ DET L 43 7 2 9 22.2 0 0 - 3 3 100.0 2 3 5 8 1 0 3 3 -
p27
aVRik Smits IND 04/26/1990 IND @ DET L 38 23 9 10 90.0 0 0 - 5 6 83.3 2 4 6 1 0 2 2 4 -
p28
aVRickey Green IND 04/26/1990 IND @ DET L 5 0 0 2 0.0 0 0 - 0 0 - 0 0 0 0 0 0 1 1 -
p29
aVDetlef Schrempf IND 04/26/1990 IND @ DET L 40 26 9 16 56.3 0 0 - 8 8 100.0 0 7 7 2 0 0 4 5 -
p30
a.