(lp0
VPLAYER TEAM DATE MATCHUP W/L MIN PTS FGM FGA FG% 3PM 3PA 3P% FTM FTA FT% OREB DREB REB AST STL BLK TOV PF +/-
p1
aVKenny Walker NYK 04/22/1990 NYK @ CLE L 26 4 2 3 66.7 0 0 - 0 0 - 1 2 3 2 0 1 0 3 -
p2
aVTrent Tucker NYK 04/22/1990 NYK @ CLE L 23 10 5 11 45.5 0 2 0.0 0 0 - 1 1 2 4 3 1 0 1 -
p3
aVPatrick Ewing NYK 04/22/1990 NYK @ CLE L 36 23 10 16 62.5 0 0 - 3 5 60.0 1 4 5 0 1 2 3 4 -
p4
aVKiki Vandeweghe NYK 04/22/1990 NYK @ CLE L 19 7 3 7 42.9 0 0 - 1 1 100.0 1 1 2 3 0 0 1 1 -
p5
aVMaurice Cheeks NYK 04/22/1990 NYK @ CLE L 21 6 2 4 50.0 0 0 - 2 2 100.0 0 2 2 6 1 0 2 1 -
p6
aVEddielee Wilkins NYK 04/22/1990 NYK @ CLE L 18 6 3 6 50.0 0 1 0.0 0 0 - 0 3 3 1 0 0 0 1 -
p7
aVStuart Gray NYK 04/22/1990 NYK @ CLE L 12 2 0 1 0.0 0 0 - 2 2 100.0 0 2 2 1 0 0 3 2 -
p8
aVMark Jackson NYK 04/22/1990 NYK @ CLE L 27 15 6 10 60.0 0 1 0.0 3 4 75.0 4 3 7 7 0 0 3 1 -
p9
aVBrian Quinnett NYK 04/22/1990 NYK @ CLE L 4 0 0 0 - 0 0 - 0 0 - 0 0 0 1 1 0 0 0 -
p10
aVGerald Wilkins NYK 04/22/1990 NYK @ CLE L 25 11 5 12 41.7 0 1 0.0 1 2 50.0 0 3 3 3 1 0 4 1 -
p11
aVJohnny Newman NYK 04/22/1990 NYK @ CLE L 29 15 7 11 63.6 0 2 0.0 1 3 33.3 1 5 6 3 2 0 1 3 -
p12
aVMark Jackson NYK 04/20/1990 NYK vs. ATL L 27 16 6 15 40.0 0 1 0.0 4 5 80.0 5 1 6 6 3 0 2 1 -
p13
aVKenny Walker NYK 04/20/1990 NYK vs. ATL L 31 10 5 9 55.6 0 0 - 0 0 - 3 6 9 1 0 0 1 5 -
p14
aVEddielee Wilkins NYK 04/20/1990 NYK vs. ATL L 22 7 3 7 42.9 0 0 - 1 2 50.0 3 2 5 1 0 1 1 3 -
p15
aVPatrick Ewing NYK 04/20/1990 NYK vs. ATL L 36 24 8 16 50.0 0 0 - 8 9 88.9 3 7 10 4 3 0 3 6 -
p16
aVKiki Vandeweghe NYK 04/20/1990 NYK vs. ATL L 37 22 10 16 62.5 2 2 100.0 0 0 - 0 3 3 2 0 1 2 1 -
p17
aVGerald Wilkins NYK 04/20/1990 NYK vs. ATL L 32 18 6 15 40.0 0 0 - 6 6 100.0 1 2 3 6 0 1 3 3 -
p18
aVTrent Tucker NYK 04/20/1990 NYK vs. ATL L 18 9 2 9 22.2 1 4 25.0 4 4 100.0 3 1 4 1 1 0 0 1 -
p19
aVJohnny Newman NYK 04/20/1990 NYK vs. ATL L 16 0 0 6 0.0 0 1 0.0 0 0 - 1 1 2 0 0 1 2 3 -
p20
aVMaurice Cheeks NYK 04/20/1990 NYK vs. ATL L 21 6 2 3 66.7 0 0 - 2 2 100.0 1 2 3 3 1 1 1 2 -
p21
aVPatrick Ewing NYK 04/19/1990 NYK @ MIL L 29 13 6 11 54.5 0 0 - 1 3 33.3 3 4 7 2 1 5 2 4 -
p22
aVMark Jackson NYK 04/19/1990 NYK @ MIL L 27 9 4 10 40.0 0 1 0.0 1 2 50.0 3 4 7 6 2 0 1 0 -
p23
aVEddielee Wilkins NYK 04/19/1990 NYK @ MIL L 17 8 2 5 40.0 0 0 - 4 4 100.0 6 3 9 0 1 1 0 1 -
p24
aVJohnny Newman NYK 04/19/1990 NYK @ MIL L 23 4 2 11 18.2 0 0 - 0 0 - 1 0 1 2 0 1 1 2 -
p25
aVStuart Gray NYK 04/19/1990 NYK @ MIL L 5 1 0 0 - 0 0 - 1 2 50.0 0 0 0 0 1 0 0 1 -
p26
aVTrent Tucker NYK 04/19/1990 NYK @ MIL L 28 13 4 9 44.4 3 7 42.9 2 2 100.0 0 4 4 0 0 0 3 4 -
p27
aVKiki Vandeweghe NYK 04/19/1990 NYK @ MIL L 35 9 2 13 15.4 0 0 - 5 6 83.3 0 5 5 2 0 1 3 2 -
p28
aVMaurice Cheeks NYK 04/19/1990 NYK @ MIL L 21 1 0 3 0.0 0 0 - 1 2 50.0 0 3 3 1 0 0 2 1 -
p29
aVKenny Walker NYK 04/19/1990 NYK @ MIL L 35 24 9 12 75.0 0 0 - 6 6 100.0 2 3 5 1 2 1 3 3 -
p30
aVGerald Wilkins NYK 04/19/1990 NYK @ MIL L 20 13 5 9 55.6 1 2 50.0 2 2 100.0 2 4 6 1 1 0 6 0 -
p31
aVMark Jackson NYK 04/16/1990 NYK vs. MIA W 27 8 4 6 66.7 0 0 - 0 0 - 4 3 7 12 1 0 4 1 -
p32
aVKenny Walker NYK 04/16/1990 NYK vs. MIA W 24 5 2 5 40.0 0 0 - 1 2 50.0 2 3 5 0 1 1 1 2 -
p33
aVMaurice Cheeks NYK 04/16/1990 NYK vs. MIA W 21 8 3 7 42.9 0 0 - 2 2 100.0 0 2 2 3 1 1 2 1 -
p34
aVKiki Vandeweghe NYK 04/16/1990 NYK vs. MIA W 31 22 8 17 47.1 2 2 100.0 4 4 100.0 2 2 4 3 3 0 1 1 -
p35
aVPatrick Ewing NYK 04/16/1990 NYK vs. MIA W 27 25 9 15 60.0 0 0 - 7 8 87.5 1 7 8 1 1 3 1 4 -
p36
aVEddielee Wilkins NYK 04/16/1990 NYK vs. MIA W 18 10 4 7 57.1 0 0 - 2 2 100.0 2 4 6 1 1 0 1 2 -
p37
aVTrent Tucker NYK 04/16/1990 NYK vs. MIA W 23 11 5 6 83.3 1 1 100.0 0 0 - 2 0 2 4 1 0 0 0 -
p38
aVGerald Wilkins NYK 04/16/1990 NYK vs. MIA W 25 12 4 10 40.0 0 0 - 4 4 100.0 1 3 4 6 3 1 0 1 -
p39
aVBrian Quinnett NYK 04/16/1990 NYK vs. MIA W 10 4 2 5 40.0 0 0 - 0 0 - 1 1 2 0 0 0 0 2 -
p40
aVJohnny Newman NYK 04/16/1990 NYK vs. MIA W 27 14 5 7 71.4 1 2 50.0 3 4 75.0 0 2 2 6 0 0 4 2 -
p41
aVGreg Butler NYK 04/16/1990 NYK vs. MIA W 3 0 0 3 0.0 0 0 - 0 0 - 1 0 1 0 0 0 0 2 -
p42
aVStuart Gray NYK 04/16/1990 NYK vs. MIA W 4 0 0 2 0.0 0 1 0.0 0 0 - 0 0 0 0 0 0 0 1 -
p43
aVTrent Tucker NYK 04/15/1990 NYK @ BOS L 25 2 1 4 25.0 0 2 0.0 0 0 - 0 1 1 2 1 0 0 3 -
p44
aVMark Jackson NYK 04/15/1990 NYK @ BOS L 5 0 0 1 0.0 0 0 - 0 0 - 0 0 0 0 0 0 0 0 -
p45
aVKiki Vandeweghe NYK 04/15/1990 NYK @ BOS L 37 13 6 18 33.3 0 1 0.0 1 1 100.0 1 7 8 2 0 0 0 1 -
p46
aVPatrick Ewing NYK 04/15/1990 NYK @ BOS L 42 25 9 22 40.9 0 0 - 7 11 63.6 2 10 12 1 1 6 3 5 -
p47
aVJohnny Newman NYK 04/15/1990 NYK @ BOS L 24 15 6 10 60.0 0 1 0.0 3 3 100.0 0 1 1 4 3 0 0 4 -
p48
aVMaurice Cheeks NYK 04/15/1990 NYK @ BOS L 43 20 10 11 90.9 0 0 - 0 0 - 0 2 2 10 3 0 3 0 -
p49
aVStuart Gray NYK 04/15/1990 NYK @ BOS L 6 0 0 1 0.0 0 0 - 0 0 - 0 0 0 0 0 0 0 2 -
p50
aVGerald Wilkins NYK 04/15/1990 NYK @ BOS L 23 8 2 9 22.2 0 0 - 4 5 80.0 1 5 6 8 1 0 3 1 -
p51
aVKenny Walker NYK 04/15/1990 NYK @ BOS L 25 11 4 7 57.1 0 0 - 3 4 75.0 1 5 6 1 0 0 0 4 -
p52
aVBrian Quinnett NYK 04/15/1990 NYK @ BOS L 10 0 0 0 - 0 0 - 0 0 - 0 1 1 0 0 0 0 1 -
p53
aVKiki Vandeweghe NYK 04/12/1990 NYK vs. IND W 23 6 3 7 42.9 0 1 0.0 0 0 - 1 1 2 2 0 0 0 1 -
p54
aVKenny Walker NYK 04/12/1990 NYK vs. IND W 26 9 4 7 57.1 0 0 - 1 1 100.0 5 3 8 1 0 0 0 5 -
p55
aVMark Jackson NYK 04/12/1990 NYK vs. IND W 21 6 3 6 50.0 0 0 - 0 0 - 2 3 5 8 1 0 2 1 -
p56
aVStuart Gray NYK 04/12/1990 NYK vs. IND W 3 2 1 1 100.0 0 0 - 0 0 - 0 0 0 0 0 0 0 1 -
p57
aVMaurice Cheeks NYK 04/12/1990 NYK vs. IND W 27 7 2 4 50.0 0 0 - 3 4 75.0 1 5 6 8 3 0 4 0 -
p58
aVPatrick Ewing NYK 04/12/1990 NYK vs. IND W 39 40 18 26 69.2 0 0 - 4 4 100.0 2 13 15 2 2 4 4 5 -
p59
aVEddielee Wilkins NYK 04/12/1990 NYK vs. IND W 6 1 0 1 0.0 0 0 - 1 2 50.0 1 0 1 1 0 0 0 1 -
p60
aVJohnny Newman NYK 04/12/1990 NYK vs. IND W 30 12 3 8 37.5 1 2 50.0 5 9 55.6 0 2 2 2 0 0 2 1 -
p61
aVTrent Tucker NYK 04/12/1990 NYK vs. IND W 22 8 3 5 60.0 1 2 50.0 1 2 50.0 1 0 1 3 3 0 3 2 -
p62
aVBrian Quinnett NYK 04/12/1990 NYK vs. IND W 17 0 0 4 0.0 0 0 - 0 0 - 1 1 2 1 0 1 1 5 -
p63
aVGerald Wilkins NYK 04/12/1990 NYK vs. IND W 26 17 7 13 53.8 1 1 100.0 2 2 100.0 1 2 3 4 3 0 2 2 -
p64
aVBrian Quinnett NYK 04/10/1990 NYK vs. DET L 13 2 0 1 0.0 0 0 - 2 2 100.0 0 4 4 1 0 1 0 4 -
p65
aVStuart Gray NYK 04/10/1990 NYK vs. DET L 6 0 0 0 - 0 0 - 0 0 - 0 0 0 0 1 1 0 1 -
p66
aVTrent Tucker NYK 04/10/1990 NYK vs. DET L 18 11 3 9 33.3 3 6 50.0 2 2 100.0 0 1 1 3 1 0 0 2 -
p67
aVJohnny Newman NYK 04/10/1990 NYK vs. DET L 5 0 0 1 0.0 0 0 - 0 0 - 0 0 0 0 0 0 0 0 -
p68
aVKiki Vandeweghe NYK 04/10/1990 NYK vs. DET L 36 11 4 10 40.0 1 1 100.0 2 2 100.0 2 0 2 3 2 0 1 4 -
p69
aVMark Jackson NYK 04/10/1990 NYK vs. DET L 19 6 3 7 42.9 0 0 - 0 0 - 1 3 4 5 1 0 4 1 -
p70
aVMaurice Cheeks NYK 04/10/1990 NYK vs. DET L 32 13 4 9 44.4 0 1 0.0 5 5 100.0 0 2 2 6 2 0 0 3 -
p71
aVKenny Walker NYK 04/10/1990 NYK vs. DET L 35 10 4 7 57.1 0 0 - 2 6 33.3 1 4 5 2 0 1 1 5 -
p72
aVGerald Wilkins NYK 04/10/1990 NYK vs. DET L 34 19 6 12 50.0 1 1 100.0 6 6 100.0 1 1 2 5 0 0 2 1 -
p73
aVPatrick Ewing NYK 04/10/1990 NYK vs. DET L 42 26 12 24 50.0 0 0 - 2 4 50.0 3 6 9 1 2 1 3 4 -
p74
aVMaurice Cheeks NYK 04/08/1990 NYK @ IND L 31 11 5 8 62.5 0 0 - 1 1 100.0 0 2 2 7 1 0 2 0 -
p75
aVEddielee Wilkins NYK 04/08/1990 NYK @ IND L 11 2 1 2 50.0 0 0 - 0 0 - 0 0 0 0 1 0 1 2 -
p76
aVBrian Quinnett NYK 04/08/1990 NYK @ IND L 12 4 2 2 100.0 0 0 - 0 0 - 1 3 4 0 1 0 0 0 -
p77
aVPatrick Ewing NYK 04/08/1990 NYK @ IND L 46 30 11 22 50.0 0 0 - 8 11 72.7 3 9 12 4 0 4 4 6 -
p78
aVKenny Walker NYK 04/08/1990 NYK @ IND L 27 4 1 5 20.0 0 0 - 2 3 66.7 2 1 3 0 0 1 1 4 -
p79
aVGerald Wilkins NYK 04/08/1990 NYK @ IND L 24 6 2 10 20.0 0 2 0.0 2 3 66.7 2 0 2 3 0 0 2 3 -
p80
aVTrent Tucker NYK 04/08/1990 NYK @ IND L 27 16 5 12 41.7 3 6 50.0 3 3 100.0 0 2 2 1 3 0 1 3 -
p81
aVKiki Vandeweghe NYK 04/08/1990 NYK @ IND L 45 22 8 13 61.5 3 3 100.0 3 3 100.0 1 1 2 1 2 0 1 1 -
p82
aVMark Jackson NYK 04/08/1990 NYK @ IND L 17 2 1 3 33.3 0 0 - 0 0 - 0 1 1 4 3 0 0 1 -
p83
aVGerald Wilkins NYK 04/06/1990 NYK vs. PHL W 37 15 5 10 50.0 0 1 0.0 5 5 100.0 0 1 1 6 2 0 3 1 -
p84
aVTrent Tucker NYK 04/06/1990 NYK vs. PHL W 22 13 5 13 38.5 3 5 60.0 0 0 - 1 2 3 5 0 0 0 3 -
p85
aVKenny Walker NYK 04/06/1990 NYK vs. PHL W 42 13 6 9 66.7 0 0 - 1 4 25.0 4 8 12 2 2 0 0 4 -
p86
aVKiki Vandeweghe NYK 04/06/1990 NYK vs. PHL W 37 24 11 18 61.1 0 1 0.0 2 2 100.0 1 2 3 2 0 1 3 1 -
p87
aVPatrick Ewing NYK 04/06/1990 NYK vs. PHL W 47 37 17 24 70.8 0 0 - 3 5 60.0 3 16 19 2 1 9 4 3 -
p88
aVMaurice Cheeks NYK 04/06/1990 NYK vs. PHL W 25 6 2 4 50.0 0 0 - 2 2 100.0 1 0 1 9 0 1 0 4 -
p89
aVMark Jackson NYK 04/06/1990 NYK vs. PHL W 23 4 2 5 40.0 0 1 0.0 0 0 - 0 5 5 11 1 1 0 2 -
p90
aVEddielee Wilkins NYK 04/06/1990 NYK vs. PHL W 7 2 1 2 50.0 0 0 - 0 2 0.0 0 0 0 0 0 0 0 3 -
p91
aVJohnny Newman NYK 04/04/1990 NYK @ WAS W 19 4 2 7 28.6 0 0 - 0 0 - 0 0 0 2 3 0 1 2 -
p92
aVPatrick Ewing NYK 04/04/1990 NYK @ WAS W 45 37 15 23 65.2 0 0 - 7 8 87.5 7 10 17 4 1 3 2 1 -
p93
aVEddielee Wilkins NYK 04/04/1990 NYK @ WAS W 14 4 1 3 33.3 0 0 - 2 2 100.0 1 5 6 0 0 0 1 2 -
p94
aVMark Jackson NYK 04/04/1990 NYK @ WAS W 15 1 0 3 0.0 0 0 - 1 2 50.0 0 0 0 2 0 0 2 0 -
p95
aVKenny Walker NYK 04/04/1990 NYK @ WAS W 28 11 2 3 66.7 0 0 - 7 9 77.8 0 7 7 1 0 0 1 4 -
p96
aVMaurice Cheeks NYK 04/04/1990 NYK @ WAS W 33 10 5 7 71.4 0 0 - 0 0 - 1 2 3 8 4 0 3 2 -
p97
aVKiki Vandeweghe NYK 04/04/1990 NYK @ WAS W 31 21 10 12 83.3 0 0 - 1 1 100.0 0 1 1 0 0 0 0 2 -
p98
aVTrent Tucker NYK 04/04/1990 NYK @ WAS W 20 14 6 11 54.5 2 5 40.0 0 0 - 1 0 1 2 1 0 0 3 -
p99
aVBrian Quinnett NYK 04/04/1990 NYK @ WAS W 4 0 0 1 0.0 0 0 - 0 0 - 0 1 1 1 0 1 1 1 -
p100
aVGerald Wilkins NYK 04/04/1990 NYK @ WAS W 31 16 6 14 42.9 0 1 0.0 4 5 80.0 0 2 2 7 0 1 1 2 -
p101
aVGerald Wilkins NYK 04/03/1990 NYK vs. CLE W 32 25 11 19 57.9 0 1 0.0 3 4 75.0 1 6 7 7 3 1 1 0 -
p102
aVPatrick Ewing NYK 04/03/1990 NYK vs. CLE W 45 24 10 22 45.5 0 0 - 4 4 100.0 4 7 11 2 4 3 1 5 -
p103
aVMark Jackson NYK 04/03/1990 NYK vs. CLE W 24 11 4 7 57.1 0 0 - 3 4 75.0 0 2 2 5 2 0 2 2 -
p104
aVJohnny Newman NYK 04/03/1990 NYK vs. CLE W 28 18 8 13 61.5 0 1 0.0 2 2 100.0 2 2 4 2 2 0 1 3 -
p105
aVKenny Walker NYK 04/03/1990 NYK vs. CLE W 40 10 4 10 40.0 0 0 - 2 3 66.7 2 8 10 3 0 2 3 2 -
p106
aVTrent Tucker NYK 04/03/1990 NYK vs. CLE W 16 4 2 4 50.0 0 1 0.0 0 0 - 0 1 1 1 1 0 1 1 -
p107
aVKiki Vandeweghe NYK 04/03/1990 NYK vs. CLE W 20 6 3 10 30.0 0 1 0.0 0 0 - 2 2 4 4 1 0 3 1 -
p108
aVEddielee Wilkins NYK 04/03/1990 NYK vs. CLE W 11 4 2 2 100.0 0 0 - 0 0 - 0 2 2 0 0 0 2 3 -
p109
aVMaurice Cheeks NYK 04/03/1990 NYK vs. CLE W 24 4 2 5 40.0 0 0 - 0 0 - 0 1 1 4 0 1 1 1 -
p110
aVMark Jackson NYK 03/31/1990 NYK vs. DEN L 12 2 1 1 100.0 0 0 - 0 0 - 0 2 2 4 1 0 2 1 -
p111
aVMaurice Cheeks NYK 03/31/1990 NYK vs. DEN L 36 17 5 11 45.5 0 1 0.0 7 8 87.5 2 4 6 4 3 0 3 2 -
p112
aVGerald Wilkins NYK 03/31/1990 NYK vs. DEN L 33 21 9 18 50.0 0 1 0.0 3 4 75.0 2 4 6 2 3 0 4 4 -
p113
aVKiki Vandeweghe NYK 03/31/1990 NYK vs. DEN L 18 4 2 7 28.6 0 0 - 0 0 - 1 1 2 3 0 0 0 1 -
p114
aVJohnny Newman NYK 03/31/1990 NYK vs. DEN L 19 6 2 6 33.3 0 2 0.0 2 4 50.0 1 2 3 3 0 0 1 1 -
p115
aVKenny Walker NYK 03/31/1990 NYK vs. DEN L 30 11 3 5 60.0 0 0 - 5 8 62.5 1 7 8 1 0 1 1 3 -
p116
aVBrian Quinnett NYK 03/31/1990 NYK vs. DEN L 14 6 3 6 50.0 0 0 - 0 0 - 1 1 2 0 0 1 0 2 -
p117
aVTrent Tucker NYK 03/31/1990 NYK vs. DEN L 29 9 3 8 37.5 0 1 0.0 3 4 75.0 0 1 1 4 2 0 0 3 -
p118
aVPatrick Ewing NYK 03/31/1990 NYK vs. DEN L 37 37 15 26 57.7 0 0 - 7 9 77.8 6 15 21 3 1 6 5 4 -
p119
aVEddielee Wilkins NYK 03/31/1990 NYK vs. DEN L 12 2 1 4 25.0 0 0 - 0 0 - 1 4 5 1 0 1 1 5 -
p120
aVJohnny Newman NYK 03/30/1990 NYK @ CHI L 14 4 2 3 66.7 0 0 - 0 0 - 1 0 1 0 0 0 1 0 -
p121
aVTrent Tucker NYK 03/30/1990 NYK @ CHI L 11 7 2 2 100.0 1 1 100.0 2 2 100.0 0 2 2 0 1 0 1 0 -
p122
aVKenny Walker NYK 03/30/1990 NYK @ CHI L 47 14 5 13 38.5 0 0 - 4 6 66.7 1 6 7 2 3 3 0 4 -
p123
aVMaurice Cheeks NYK 03/30/1990 NYK @ CHI L 44 19 8 14 57.1 1 1 100.0 2 2 100.0 1 0 1 7 2 0 1 2 -
p124
aVStuart Gray NYK 03/30/1990 NYK @ CHI L 3 2 0 0 - 0 0 - 2 2 100.0 0 0 0 0 0 0 0 1 -
p125
aVGerald Wilkins NYK 03/30/1990 NYK @ CHI L 42 20 8 16 50.0 0 1 0.0 4 6 66.7 4 3 7 6 0 0 3 5 -
p126
aVMark Jackson NYK 03/30/1990 NYK @ CHI L 9 2 1 1 100.0 0 0 - 0 0 - 0 1 1 0 0 0 1 0 -
p127
aVPatrick Ewing NYK 03/30/1990 NYK @ CHI L 42 25 8 19 42.1 0 0 - 9 11 81.8 4 11 15 3 0 4 5 6 -
p128
aVKiki Vandeweghe NYK 03/30/1990 NYK @ CHI L 39 11 5 14 35.7 1 2 50.0 0 0 - 2 4 6 2 0 0 1 2 -
p129
aVEddielee Wilkins NYK 03/30/1990 NYK @ CHI L 14 2 1 3 33.3 0 0 - 0 0 - 0 2 2 0 0 0 3 1 -
p130
aVMaurice Cheeks NYK 03/28/1990 NYK @ NJN L 25 3 1 4 25.0 0 1 0.0 1 2 50.0 0 1 1 3 3 0 1 2 -
p131
aVEddielee Wilkins NYK 03/28/1990 NYK @ NJN L 13 7 3 7 42.9 0 0 - 1 2 50.0 3 0 3 0 0 0 0 2 -
p132
aVKiki Vandeweghe NYK 03/28/1990 NYK @ NJN L 21 11 4 11 36.4 1 1 100.0 2 2 100.0 0 1 1 0 0 0 0 0 -
p133
aVKenny Walker NYK 03/28/1990 NYK @ NJN L 33 9 4 7 57.1 0 0 - 1 2 50.0 3 3 6 0 2 0 3 4 -
p134
aVMark Jackson NYK 03/28/1990 NYK @ NJN L 28 9 3 7 42.9 1 2 50.0 2 2 100.0 2 3 5 5 2 0 1 4 -
p135
aVJohnny Newman NYK 03/28/1990 NYK @ NJN L 21 12 3 12 25.0 0 1 0.0 6 6 100.0 2 4 6 0 1 0 2 5 -
p136
aVPatrick Ewing NYK 03/28/1990 NYK @ NJN L 36 17 6 11 54.5 0 0 - 5 9 55.6 2 7 9 1 2 1 4 4 -
p137
aVGerald Wilkins NYK 03/28/1990 NYK @ NJN L 34 24 10 21 47.6 1 4 25.0 3 5 60.0 2 5 7 3 1 0 2 2 -
p138
aVTrent Tucker NYK 03/28/1990 NYK @ NJN L 22 7 3 9 33.3 1 6 16.7 0 0 - 1 2 3 1 0 1 1 0 -
p139
aVBrian Quinnett NYK 03/28/1990 NYK @ NJN L 7 2 1 3 33.3 0 1 0.0 0 0 - 0 0 0 0 0 0 1 1 -
p140
aVGerald Wilkins NYK 03/27/1990 NYK vs. WAS W 25 19 9 16 56.3 1 2 50.0 0 0 - 2 6 8 5 0 1 3 3 -
p141
aVPatrick Ewing NYK 03/27/1990 NYK vs. WAS W 40 41 14 22 63.6 1 1 100.0 12 14 85.7 0 12 12 1 1 4 4 2 -
p142
aVKenny Walker NYK 03/27/1990 NYK vs. WAS W 30 14 7 10 70.0 0 0 - 0 0 - 3 8 11 3 0 1 2 2 -
p143
aVMark Jackson NYK 03/27/1990 NYK vs. WAS W 24 4 2 3 66.7 0 0 - 0 0 - 1 4 5 10 0 0 3 1 -
p144
aVEddielee Wilkins NYK 03/27/1990 NYK vs. WAS W 18 8 4 8 50.0 0 0 - 0 0 - 3 3 6 0 0 0 1 3 -
p145
aVMaurice Cheeks NYK 03/27/1990 NYK vs. WAS W 24 6 2 3 66.7 0 0 - 2 2 100.0 1 2 3 7 3 0 1 0 -
p146
aVKiki Vandeweghe NYK 03/27/1990 NYK vs. WAS W 21 12 6 10 60.0 0 0 - 0 0 - 0 2 2 3 0 0 1 1 -
p147
aVJohnny Newman NYK 03/27/1990 NYK vs. WAS W 27 6 2 7 28.6 0 0 - 2 2 100.0 0 1 1 2 1 0 1 3 -
p148
aVStuart Gray NYK 03/27/1990 NYK vs. WAS W 3 2 1 4 25.0 0 1 0.0 0 0 - 0 1 1 1 0 0 0 0 -
p149
aVTrent Tucker NYK 03/27/1990 NYK vs. WAS W 23 5 2 7 28.6 1 3 33.3 0 0 - 0 3 3 3 0 0 1 2 -
p150
aVBrian Quinnett NYK 03/27/1990 NYK vs. WAS W 5 2 1 2 50.0 0 0 - 0 0 - 0 1 1 0 0 0 0 0 -
p151
aVMark Jackson NYK 03/24/1990 NYK vs. BOS L 21 6 3 12 25.0 0 2 0.0 0 0 - 1 2 3 10 2 0 1 2 -
p152
aVKiki Vandeweghe NYK 03/24/1990 NYK vs. BOS L 18 6 3 9 33.3 0 0 - 0 0 - 1 0 1 1 0 0 0 0 -
p153
aVBrian Quinnett NYK 03/24/1990 NYK vs. BOS L 8 0 0 2 0.0 0 0 - 0 0 - 1 0 1 1 0 0 0 1 -
p154
aVKenny Walker NYK 03/24/1990 NYK vs. BOS L 29 8 2 6 33.3 0 0 - 4 4 100.0 2 2 4 1 1 1 0 5 -
p155
aVEddielee Wilkins NYK 03/24/1990 NYK vs. BOS L 15 1 0 1 0.0 0 0 - 1 2 50.0 2 2 4 0 0 1 1 2 -
p156
aVJohnny Newman NYK 03/24/1990 NYK vs. BOS L 30 19 7 14 50.0 2 3 66.7 3 4 75.0 0 0 0 2 3 0 0 5 -
p157
aVGerald Wilkins NYK 03/24/1990 NYK vs. BOS L 31 10 4 10 40.0 0 0 - 2 2 100.0 0 3 3 2 0 0 1 2 -
p158
aVStuart Gray NYK 03/24/1990 NYK vs. BOS L 3 0 0 0 - 0 0 - 0 0 - 0 0 0 0 0 0 0 0 -
p159
aVTrent Tucker NYK 03/24/1990 NYK vs. BOS L 17 0 0 3 0.0 0 2 0.0 0 0 - 0 1 1 6 3 0 0 2 -
p160
aVPatrick Ewing NYK 03/24/1990 NYK vs. BOS L 41 51 20 29 69.0 0 0 - 11 13 84.6 5 13 18 1 1 0 5 6 -
p161
aVMaurice Cheeks NYK 03/24/1990 NYK vs. BOS L 27 9 2 4 50.0 0 0 - 5 6 83.3 0 5 5 8 1 0 2 1 -
p162
aVMark Jackson NYK 03/23/1990 NYK @ CHH L 31 2 1 6 16.7 0 3 0.0 0 0 - 0 0 0 9 0 0 3 1 -
p163
aVPatrick Ewing NYK 03/23/1990 NYK @ CHH L 40 32 15 25 60.0 0 0 - 2 3 66.7 4 10 14 2 0 1 3 4 -
p164
aVStuart Gray NYK 03/23/1990 NYK @ CHH L 8 2 0 0 - 0 0 - 2 2 100.0 1 0 1 0 0 0 0 2 -
p165
aVKiki Vandeweghe NYK 03/23/1990 NYK @ CHH L 13 7 1 3 33.3 0 1 0.0 5 5 100.0 0 1 1 1 2 0 1 0 -
p166
aVMaurice Cheeks NYK 03/23/1990 NYK @ CHH L 17 2 0 4 0.0 0 0 - 2 2 100.0 0 0 0 1 1 0 0 0 -
p167
aVEddielee Wilkins NYK 03/23/1990 NYK @ CHH L 16 6 1 5 20.0 0 0 - 4 8 50.0 5 4 9 0 0 0 1 0 -
p168
aVTrent Tucker NYK 03/23/1990 NYK @ CHH L 19 2 1 4 25.0 0 1 0.0 0 0 - 1 0 1 1 1 0 2 4 -
p169
aVJohnny Newman NYK 03/23/1990 NYK @ CHH L 28 16 6 14 42.9 0 4 0.0 4 4 100.0 0 0 0 3 2 0 0 4 -
p170
aVKenny Walker NYK 03/23/1990 NYK @ CHH L 30 12 5 5 100.0 0 0 - 2 2 100.0 3 8 11 0 0 1 3 4 -
p171
aVGerald Wilkins NYK 03/23/1990 NYK @ CHH L 38 12 3 14 21.4 0 3 0.0 6 6 100.0 2 2 4 2 0 0 3 4 -
p172
aVTrent Tucker NYK 03/20/1990 NYK vs. ORL L 16 10 4 9 44.4 2 2 100.0 0 0 - 0 2 2 0 0 0 1 1 -
p173
aVGerald Wilkins NYK 03/20/1990 NYK vs. ORL L 36 17 6 13 46.2 1 2 50.0 4 5 80.0 0 1 1 10 0 0 0 3 -
p174
aVJohnny Newman NYK 03/20/1990 NYK vs. ORL L 30 20 7 13 53.8 1 2 50.0 5 6 83.3 0 2 2 0 0 0 0 5 -
p175
aVEddielee Wilkins NYK 03/20/1990 NYK vs. ORL L 7 4 1 2 50.0 0 0 - 2 2 100.0 1 3 4 0 0 1 1 1 -
p176
aVMaurice Cheeks NYK 03/20/1990 NYK vs. ORL L 24 5 2 3 66.7 1 1 100.0 0 0 - 0 4 4 7 0 0 1 2 -
p177
aVKiki Vandeweghe NYK 03/20/1990 NYK vs. ORL L 14 9 1 7 14.3 0 1 0.0 7 9 77.8 0 1 1 0 0 0 1 2 -
p178
aVCharles Oakley NYK 03/20/1990 NYK vs. ORL L 40 14 5 11 45.5 0 0 - 4 4 100.0 5 14 19 3 0 0 1 6 -
p179
aVMark Jackson NYK 03/20/1990 NYK vs. ORL L 24 6 2 4 50.0 0 0 - 2 2 100.0 2 3 5 8 0 0 4 3 -
p180
aVKenny Walker NYK 03/20/1990 NYK vs. ORL L 16 5 2 6 33.3 0 1 0.0 1 2 50.0 1 1 2 0 0 1 0 5 -
p181
aVPatrick Ewing NYK 03/20/1990 NYK vs. ORL L 33 28 10 20 50.0 0 0 - 8 9 88.9 0 9 9 0 3 7 2 4 -
p182
aVTrent Tucker NYK 03/17/1990 NYK vs. MIL L 13 0 0 3 0.0 0 2 0.0 0 0 - 0 2 2 2 0 0 2 3 -
p183
aVStuart Gray NYK 03/17/1990 NYK vs. MIL L 5 0 0 0 - 0 0 - 0 0 - 0 1 1 0 0 0 0 1 -
p184
aVCharles Oakley NYK 03/17/1990 NYK vs. MIL L 23 6 3 4 75.0 0 0 - 0 0 - 0 7 7 4 0 0 2 3 -
p185
aVEddielee Wilkins NYK 03/17/1990 NYK vs. MIL L 10 2 1 2 50.0 0 0 - 0 0 - 0 0 0 0 0 0 1 2 -
p186
aVJohnny Newman NYK 03/17/1990 NYK vs. MIL L 26 13 6 11 54.5 0 1 0.0 1 2 50.0 1 2 3 2 1 0 4 5 -
p187
aVKiki Vandeweghe NYK 03/17/1990 NYK vs. MIL L 22 8 4 9 44.4 0 0 - 0 0 - 0 2 2 5 2 0 1 2 -
p188
aVGerald Wilkins NYK 03/17/1990 NYK vs. MIL L 40 16 5 17 29.4 0 4 0.0 6 8 75.0 1 3 4 5 3 0 3 4 -
p189
aVMark Jackson NYK 03/17/1990 NYK vs. MIL L 26 11 4 5 80.0 1 1 100.0 2 2 100.0 0 2 2 9 0 0 1 4 -
p190
aVBrian Quinnett NYK 03/17/1990 NYK vs. MIL L 7 4 2 3 66.7 0 0 - 0 0 - 0 0 0 0 0 0 0 1 -
p191
aVMaurice Cheeks NYK 03/17/1990 NYK vs. MIL L 27 14 6 7 85.7 0 0 - 2 3 66.7 0 3 3 4 2 0 2 0 -
p192
aVPatrick Ewing NYK 03/17/1990 NYK vs. MIL L 41 37 14 24 58.3 0 0 - 9 11 81.8 4 11 15 1 3 3 6 4 -
p193
aVCharles Oakley NYK 03/15/1990 NYK @ MIN L 31 5 1 5 20.0 0 0 - 3 4 75.0 2 6 8 2 1 0 1 3 -
p194
aVPatrick Ewing NYK 03/15/1990 NYK @ MIN L 34 24 8 13 61.5 0 0 - 8 8 100.0 0 4 4 0 0 3 1 5 -
p195
aVBrian Quinnett NYK 03/15/1990 NYK @ MIN L 2 0 0 1 0.0 0 0 - 0 0 - 0 0 0 0 0 0 0 0 -
p196
aVMark Jackson NYK 03/15/1990 NYK @ MIN L 28 4 2 6 33.3 0 1 0.0 0 0 - 0 1 1 3 0 0 4 3 -
p197
aVGreg Butler NYK 03/15/1990 NYK @ MIN L 2 0 0 1 0.0 0 0 - 0 0 - 0 2 2 0 0 0 0 2 -
p198
aVStuart Gray NYK 03/15/1990 NYK @ MIN L 2 0 0 1 0.0 0 0 - 0 0 - 0 0 0 0 0 0 0 1 -
p199
aVJohnny Newman NYK 03/15/1990 NYK @ MIN L 29 14 5 11 45.5 0 2 0.0 4 4 100.0 3 2 5 0 0 1 3 4 -
p200
aVTrent Tucker NYK 03/15/1990 NYK @ MIN L 24 6 2 8 25.0 0 4 0.0 2 2 100.0 0 0 0 2 2 0 0 1 -
p201
aVGerald Wilkins NYK 03/15/1990 NYK @ MIN L 34 10 3 15 20.0 0 2 0.0 4 4 100.0 1 1 2 2 1 0 1 0 -
p202
aVEddielee Wilkins NYK 03/15/1990 NYK @ MIN L 12 2 1 3 33.3 0 0 - 0 0 - 1 4 5 0 0 0 1 0 -
p203
aVMaurice Cheeks NYK 03/15/1990 NYK @ MIN L 23 4 1 1 100.0 0 0 - 2 2 100.0 0 3 3 9 1 0 0 0 -
p204
aVKiki Vandeweghe NYK 03/15/1990 NYK @ MIN L 19 13 5 8 62.5 0 0 - 3 3 100.0 0 1 1 0 2 0 2 1 -
p205
aVKiki Vandeweghe NYK 03/13/1990 NYK vs. CHI L 14 7 2 6 33.3 0 1 0.0 3 3 100.0 0 0 0 0 0 0 2 2 -
p206
aVTrent Tucker NYK 03/13/1990 NYK vs. CHI L 10 9 4 6 66.7 0 1 0.0 1 1 100.0 1 0 1 1 0 0 0 1 -
p207
aVStuart Gray NYK 03/13/1990 NYK vs. CHI L 4 0 0 0 - 0 0 - 0 0 - 0 0 0 0 0 0 0 1 -
p208
aVMaurice Cheeks NYK 03/13/1990 NYK vs. CHI L 24 8 4 7 57.1 0 1 0.0 0 0 - 0 1 1 7 3 1 0 0 -
p209
aVMark Jackson NYK 03/13/1990 NYK vs. CHI L 24 2 1 1 100.0 0 0 - 0 0 - 0 1 1 5 1 0 3 0 -
p210
aVPatrick Ewing NYK 03/13/1990 NYK vs. CHI L 41 29 12 19 63.2 0 0 - 5 6 83.3 1 7 8 1 3 7 3 3 -
p211
aVCharles Oakley NYK 03/13/1990 NYK vs. CHI L 41 6 3 6 50.0 0 0 - 0 0 - 3 11 14 8 0 0 1 5 -
p212
aVJohnny Newman NYK 03/13/1990 NYK vs. CHI L 34 17 7 14 50.0 0 1 0.0 3 4 75.0 0 2 2 4 1 0 0 2 -
p213
aVEddielee Wilkins NYK 03/13/1990 NYK vs. CHI L 10 4 2 3 66.7 0 0 - 0 1 0.0 0 2 2 1 0 1 1 3 -
p214
aVGerald Wilkins NYK 03/13/1990 NYK vs. CHI L 38 26 10 17 58.8 2 5 40.0 4 6 66.7 0 3 3 3 0 1 5 4 -
p215
aVCharles Oakley NYK 03/11/1990 NYK @ MIA W 40 9 1 4 25.0 0 0 - 7 8 87.5 3 14 17 3 1 0 4 4 -
p216
aVEddielee Wilkins NYK 03/11/1990 NYK @ MIA W 16 8 3 3 100.0 0 0 - 2 3 66.7 1 3 4 0 1 0 1 1 -
p217
aVGerald Wilkins NYK 03/11/1990 NYK @ MIA W 38 25 11 17 64.7 0 0 - 3 4 75.0 0 1 1 6 1 0 1 2 -
p218
aVPatrick Ewing NYK 03/11/1990 NYK @ MIA W 39 30 15 25 60.0 0 0 - 0 1 0.0 7 8 15 2 1 6 6 3 -
p219
aVStuart Gray NYK 03/11/1990 NYK @ MIA W 1 0 0 1 0.0 0 0 - 0 0 - 0 0 0 0 0 0 0 0 -
p220
aVMaurice Cheeks NYK 03/11/1990 NYK @ MIA W 18 0 0 1 0.0 0 0 - 0 0 - 0 3 3 1 0 0 1 0 -
p221
aVJohnny Newman NYK 03/11/1990 NYK @ MIA W 35 19 7 9 77.8 3 4 75.0 2 2 100.0 0 1 1 3 7 0 3 3 -
p222
aVKiki Vandeweghe NYK 03/11/1990 NYK @ MIA W 13 7 1 6 16.7 0 1 0.0 5 6 83.3 0 0 0 2 1 0 2 1 -
p223
aVMark Jackson NYK 03/11/1990 NYK @ MIA W 30 8 3 7 42.9 0 1 0.0 2 2 100.0 1 2 3 10 2 0 1 2 -
p224
aVTrent Tucker NYK 03/11/1990 NYK @ MIA W 10 0 0 5 0.0 0 2 0.0 0 0 - 0 0 0 1 1 0 3 2 -
p225
aVStuart Gray NYK 03/10/1990 NYK vs. NJN W 8 2 1 1 100.0 0 0 - 0 0 - 1 2 3 0 0 1 0 2 -
p226
aVPatrick Ewing NYK 03/10/1990 NYK vs. NJN W 33 31 13 15 86.7 0 0 - 5 6 83.3 0 7 7 1 0 6 4 1 -
p227
aVMaurice Cheeks NYK 03/10/1990 NYK vs. NJN W 26 11 4 5 80.0 0 0 - 3 4 75.0 0 0 0 2 1 0 0 1 -
p228
aVGerald Wilkins NYK 03/10/1990 NYK vs. NJN W 41 21 9 14 64.3 0 0 - 3 3 100.0 2 3 5 7 1 1 4 4 -
p229
aVJohnny Newman NYK 03/10/1990 NYK vs. NJN W 36 17 8 13 61.5 0 0 - 1 1 100.0 1 1 2 3 2 1 4 4 -
p230
aVMark Jackson NYK 03/10/1990 NYK vs. NJN W 40 7 3 7 42.9 0 0 - 1 2 50.0 1 3 4 11 4 0 3 2 -
p231
aVBrian Quinnett NYK 03/10/1990 NYK vs. NJN W 8 4 2 2 100.0 0 0 - 0 0 - 1 1 2 0 0 0 0 1 -
p232
aVEddielee Wilkins NYK 03/10/1990 NYK vs. NJN W 13 4 1 4 25.0 0 0 - 2 2 100.0 1 6 7 0 0 0 3 4 -
p233
aVCharles Oakley NYK 03/10/1990 NYK vs. NJN W 35 13 6 12 50.0 0 0 - 1 4 25.0 2 5 7 5 2 1 3 2 -
p234
aVGerald Wilkins NYK 03/07/1990 NYK @ PHL L 32 23 9 14 64.3 1 2 50.0 4 4 100.0 2 3 5 4 1 1 1 3 -
p235
aVStuart Gray NYK 03/07/1990 NYK @ PHL L 5 2 1 1 100.0 0 0 - 0 0 - 0 3 3 0 0 0 0 3 -
p236
aVPatrick Ewing NYK 03/07/1990 NYK @ PHL L 39 20 8 18 44.4 0 0 - 4 6 66.7 5 9 14 1 0 3 4 2 -
p237
aVMaurice Cheeks NYK 03/07/1990 NYK @ PHL L 23 4 0 3 0.0 0 0 - 4 4 100.0 0 1 1 4 2 0 0 1 -
p238
aVCharles Oakley NYK 03/07/1990 NYK @ PHL L 36 4 2 7 28.6 0 0 - 0 0 - 1 6 7 3 3 0 5 1 -
p239
aVTrent Tucker NYK 03/07/1990 NYK @ PHL L 25 6 3 9 33.3 0 2 0.0 0 0 - 0 1 1 3 1 0 0 1 -
p240
aVBrian Quinnett NYK 03/07/1990 NYK @ PHL L 3 0 0 2 0.0 0 0 - 0 0 - 0 1 1 0 0 0 0 0 -
p241
aVJohnny Newman NYK 03/07/1990 NYK @ PHL L 36 26 9 15 60.0 1 4 25.0 7 8 87.5 1 2 3 3 0 0 2 3 -
p242
aVGreg Butler NYK 03/07/1990 NYK @ PHL L 3 0 0 0 - 0 0 - 0 2 0.0 0 0 0 0 0 0 0 1 -
p243
aVEddielee Wilkins NYK 03/07/1990 NYK @ PHL L 9 6 2 4 50.0 0 0 - 2 6 33.3 0 3 3 0 0 0 0 3 -
p244
aVMark Jackson NYK 03/07/1990 NYK @ PHL L 29 2 1 7 14.3 0 3 0.0 0 0 - 3 3 6 9 1 0 2 1 -
p245
aVMaurice Cheeks NYK 03/06/1990 NYK vs. POR L 15 4 1 1 100.0 0 0 - 2 2 100.0 0 2 2 3 1 0 0 2 -
p246
aVJohnny Newman NYK 03/06/1990 NYK vs. POR L 34 16 5 11 45.5 1 2 50.0 5 5 100.0 1 0 1 4 2 0 3 3 -
p247
aVPatrick Ewing NYK 03/06/1990 NYK vs. POR L 39 40 17 28 60.7 0 0 - 6 7 85.7 4 5 9 5 1 3 2 5 -
p248
aVMark Jackson NYK 03/06/1990 NYK vs. POR L 33 13 6 10 60.0 0 2 0.0 1 2 50.0 1 2 3 4 1 0 5 5 -
p249
aVCharles Oakley NYK 03/06/1990 NYK vs. POR L 44 13 6 9 66.7 0 0 - 1 2 50.0 3 11 14 5 1 0 5 3 -
p250
aVEddielee Wilkins NYK 03/06/1990 NYK vs. POR L 10 0 0 5 0.0 0 0 - 0 0 - 1 1 2 0 0 1 0 0 -
p251
aVTrent Tucker NYK 03/06/1990 NYK vs. POR L 33 5 2 9 22.2 1 4 25.0 0 0 - 0 1 1 3 0 0 3 4 -
p252
aVGerald Wilkins NYK 03/06/1990 NYK vs. POR L 29 9 3 11 27.3 0 1 0.0 3 4 75.0 2 4 6 3 2 0 2 0 -
p253
aVStuart Gray NYK 03/06/1990 NYK vs. POR L 3 0 0 0 - 0 0 - 0 0 - 0 1 1 0 0 0 1 2 -
p254
aVMaurice Cheeks NYK 03/03/1990 NYK @ MIL W 18 8 3 4 75.0 0 0 - 2 2 100.0 0 2 2 3 0 0 2 0 -
p255
aVJohnny Newman NYK 03/03/1990 NYK @ MIL W 32 18 7 11 63.6 0 0 - 4 4 100.0 1 2 3 3 1 0 1 6 -
p256
aVPatrick Ewing NYK 03/03/1990 NYK @ MIL W 42 31 10 21 47.6 0 0 - 11 15 73.3 3 7 10 5 1 5 2 4 -
p257
aVStuart Gray NYK 03/03/1990 NYK @ MIL W 6 0 0 3 0.0 0 1 0.0 0 0 - 0 1 1 0 1 0 1 3 -
p258
aVCharles Oakley NYK 03/03/1990 NYK @ MIL W 41 23 9 15 60.0 0 0 - 5 7 71.4 7 6 13 4 1 0 2 3 -
p259
aVGerald Wilkins NYK 03/03/1990 NYK @ MIL W 36 12 5 11 45.5 0 1 0.0 2 4 50.0 1 4 5 3 1 0 5 3 -
p260
aVBrian Quinnett NYK 03/03/1990 NYK @ MIL W 8 0 0 2 0.0 0 0 - 0 0 - 0 0 0 0 0 0 0 1 -
p261
aVEddielee Wilkins NYK 03/03/1990 NYK @ MIL W 3 0 0 0 - 0 0 - 0 0 - 0 0 0 0 1 0 1 0 -
p262
aVMark Jackson NYK 03/03/1990 NYK @ MIL W 30 7 2 10 20.0 0 2 0.0 3 4 75.0 0 2 2 7 1 0 4 2 -
p263
aVTrent Tucker NYK 03/03/1990 NYK @ MIL W 24 7 2 4 50.0 2 2 100.0 1 2 50.0 1 1 2 0 0 0 0 2 -
p264
aVKenny Walker NYK 03/01/1990 NYK vs. PHL L 13 0 0 4 0.0 0 0 - 0 0 - 0 1 1 0 0 0 1 1 -
p265
aVCharles Oakley NYK 03/01/1990 NYK vs. PHL L 36 18 8 13 61.5 0 1 0.0 2 2 100.0 5 6 11 2 0 0 3 5 -
p266
aVMaurice Cheeks NYK 03/01/1990 NYK vs. PHL L 19 10 4 7 57.1 0 0 - 2 2 100.0 1 3 4 4 0 0 0 0 -
p267
aVJohnny Newman NYK 03/01/1990 NYK vs. PHL L 39 19 8 17 47.1 2 5 40.0 1 2 50.0 1 2 3 2 0 0 1 4 -
p268
aVEddielee Wilkins NYK 03/01/1990 NYK vs. PHL L 5 0 0 2 0.0 0 0 - 0 0 - 0 2 2 0 0 1 0 2 -
p269
aVMark Jackson NYK 03/01/1990 NYK vs. PHL L 37 6 2 5 40.0 0 1 0.0 2 2 100.0 0 3 3 11 3 0 2 2 -
p270
aVPatrick Ewing NYK 03/01/1990 NYK vs. PHL L 44 30 14 24 58.3 0 0 - 2 2 100.0 5 13 18 3 0 6 2 4 -
p271
aVTrent Tucker NYK 03/01/1990 NYK vs. PHL L 22 13 4 8 50.0 3 7 42.9 2 2 100.0 0 3 3 1 1 0 0 3 -
p272
aVGerald Wilkins NYK 03/01/1990 NYK vs. PHL L 25 4 2 8 25.0 0 0 - 0 0 - 0 1 1 3 0 0 2 1 -
p273
aVTrent Tucker NYK 02/27/1990 NYK vs. DAL W 19 13 5 10 50.0 1 3 33.3 2 2 100.0 1 2 3 3 0 0 2 1 -
p274
aVGreg Butler NYK 02/27/1990 NYK vs. DAL W 3 2 1 2 50.0 0 0 - 0 0 - 1 0 1 0 0 0 0 0 -
p275
aVGerald Wilkins NYK 02/27/1990 NYK vs. DAL W 27 19 7 14 50.0 0 0 - 5 6 83.3 4 4 8 4 1 0 3 2 -
p276
aVStuart Gray NYK 02/27/1990 NYK vs. DAL W 7 0 0 1 0.0 0 0 - 0 0 - 0 1 1 0 0 0 0 2 -
p277
aVMaurice Cheeks NYK 02/27/1990 NYK vs. DAL W 16 8 3 3 100.0 0 0 - 2 3 66.7 1 2 3 4 2 0 1 0 -
p278
aVMark Jackson NYK 02/27/1990 NYK vs. DAL W 32 10 5 8 62.5 0 2 0.0 0 0 - 1 5 6 10 0 0 5 2 -
p279
aVKenny Walker NYK 02/27/1990 NYK vs. DAL W 18 6 2 3 66.7 0 0 - 2 2 100.0 0 4 4 1 0 1 1 2 -
p280
aVPatrick Ewing NYK 02/27/1990 NYK vs. DAL W 37 21 9 14 64.3 0 0 - 3 4 75.0 5 5 10 2 1 2 4 3 -
p281
aVCharles Oakley NYK 02/27/1990 NYK vs. DAL W 36 15 6 15 40.0 0 0 - 3 4 75.0 5 10 15 2 0 2 4 3 -
p282
aVBrian Quinnett NYK 02/27/1990 NYK vs. DAL W 3 0 0 1 0.0 0 0 - 0 0 - 0 0 0 1 0 0 0 0 -
p283
aVEddielee Wilkins NYK 02/27/1990 NYK vs. DAL W 12 8 3 4 75.0 0 0 - 2 2 100.0 0 4 4 1 0 0 0 3 -
p284
aVJohnny Newman NYK 02/27/1990 NYK vs. DAL W 30 8 4 10 40.0 0 1 0.0 0 1 0.0 0 7 7 1 1 1 0 3 -
p285
aVGerald Wilkins NYK 02/25/1990 NYK vs. DET L 24 10 5 11 45.5 0 3 0.0 0 1 0.0 0 0 0 3 0 0 1 2 -
p286
aVEddielee Wilkins NYK 02/25/1990 NYK vs. DET L 8 2 1 3 33.3 0 0 - 0 0 - 3 0 3 0 0 0 1 1 -
p287
aVKenny Walker NYK 02/25/1990 NYK vs. DET L 24 2 1 5 20.0 0 0 - 0 0 - 4 4 8 0 0 1 1 4 -
p288
aVPatrick Ewing NYK 02/25/1990 NYK vs. DET L 45 37 13 28 46.4 0 0 - 11 12 91.7 5 8 13 6 2 3 7 4 -
p289
aVJohnny Newman NYK 02/25/1990 NYK vs. DET L 21 6 3 6 50.0 0 2 0.0 0 0 - 0 2 2 1 0 0 1 0 -
p290
aVMaurice Cheeks NYK 02/25/1990 NYK vs. DET L 23 12 5 6 83.3 1 1 100.0 1 1 100.0 0 3 3 3 0 0 1 2 -
p291
aVMark Jackson NYK 02/25/1990 NYK vs. DET L 31 6 2 9 22.2 1 4 25.0 1 2 50.0 3 2 5 8 1 0 4 2 -
p292
aVCharles Oakley NYK 02/25/1990 NYK vs. DET L 40 6 2 8 25.0 0 0 - 2 2 100.0 3 11 14 2 0 1 4 4 -
p293
aVTrent Tucker NYK 02/25/1990 NYK vs. DET L 24 6 3 9 33.3 0 1 0.0 0 0 - 2 3 5 3 0 0 1 4 -
p294
aVMaurice Cheeks NYK 02/23/1990 NYK @ MIA L 14 8 4 5 80.0 0 0 - 0 0 - 0 0 0 1 1 0 0 1 -
p295
aVTrent Tucker NYK 02/23/1990 NYK @ MIA L 25 18 7 11 63.6 1 2 50.0 3 5 60.0 0 0 0 4 1 0 0 4 -
p296
aVCharles Oakley NYK 02/23/1990 NYK @ MIA L 30 11 3 11 27.3 0 0 - 5 6 83.3 8 4 12 1 1 0 1 3 -
p297
aVGerald Wilkins NYK 02/23/1990 NYK @ MIA L 30 7 2 11 18.2 0 2 0.0 3 4 75.0 4 1 5 1 1 0 4 1 -
p298
aVKenny Walker NYK 02/23/1990 NYK @ MIA L 18 2 1 4 25.0 0 0 - 0 0 - 1 1 2 0 0 0 0 0 -
p299
aVEddielee Wilkins NYK 02/23/1990 NYK @ MIA L 13 4 1 5 20.0 0 1 0.0 2 4 50.0 1 1 2 0 2 1 0 0 -
p300
aVPatrick Ewing NYK 02/23/1990 NYK @ MIA L 35 24 9 19 47.4 0 1 0.0 6 9 66.7 2 13 15 2 0 1 0 5 -
p301
aVJohnny Newman NYK 02/23/1990 NYK @ MIA L 30 18 5 14 35.7 1 3 33.3 7 9 77.8 0 0 0 2 2 0 3 3 -
p302
aVMark Jackson NYK 02/23/1990 NYK @ MIA L 34 27 8 14 57.1 4 4 100.0 7 10 70.0 1 3 4 10 1 0 3 2 -
p303
aVBrian Quinnett NYK 02/23/1990 NYK @ MIA L 11 2 1 3 33.3 0 0 - 0 0 - 1 1 2 2 0 0 0 0 -
p304
aVEddielee Wilkins NYK 02/22/1990 NYK @ WAS W 19 14 5 7 71.4 0 0 - 4 5 80.0 5 1 6 1 0 0 0 2 -
p305
aVKenny Walker NYK 02/22/1990 NYK @ WAS W 20 6 3 7 42.9 0 0 - 0 0 - 2 1 3 1 0 0 1 0 -
p306
aVPatrick Ewing NYK 02/22/1990 NYK @ WAS W 33 41 18 28 64.3 0 0 - 5 5 100.0 6 8 14 1 0 5 6 5 -
p307
aVMaurice Cheeks NYK 02/22/1990 NYK @ WAS W 11 0 0 1 0.0 0 0 - 0 0 - 1 0 1 4 0 0 0 1 -
p308
aVGerald Wilkins NYK 02/22/1990 NYK @ WAS W 28 6 3 11 27.3 0 3 0.0 0 0 - 0 2 2 4 1 0 2 3 -
p309
aVJohnny Newman NYK 02/22/1990 NYK @ WAS W 33 13 5 10 50.0 0 0 - 3 5 60.0 2 0 2 4 0 0 0 4 -
p310
aVTrent Tucker NYK 02/22/1990 NYK @ WAS W 24 5 2 10 20.0 0 2 0.0 1 1 100.0 1 0 1 8 0 0 0 1 -
p311
aVCharles Oakley NYK 02/22/1990 NYK @ WAS W 35 20 7 15 46.7 0 0 - 6 8 75.0 6 13 19 5 3 0 7 2 -
p312
aVMark Jackson NYK 02/22/1990 NYK @ WAS W 37 14 7 14 50.0 0 1 0.0 0 0 - 2 3 5 6 1 0 0 0 -
p313
aVJohnny Newman NYK 02/17/1990 NYK vs. CLE W 17 4 2 4 50.0 0 0 - 0 0 - 0 0 0 0 0 0 0 3 -
p314
aVPatrick Ewing NYK 02/17/1990 NYK vs. CLE W 44 41 16 23 69.6 0 0 - 9 13 69.2 0 11 11 2 2 6 2 4 -
p315
aVGerald Wilkins NYK 02/17/1990 NYK vs. CLE W 41 14 6 15 40.0 0 0 - 2 2 100.0 2 2 4 5 2 0 5 2 -
p316
aVKenny Walker NYK 02/17/1990 NYK vs. CLE W 27 13 5 9 55.6 0 0 - 3 4 75.0 6 2 8 1 0 0 0 0 -
p317
aVRod Strickland NYK 02/17/1990 NYK vs. CLE W 15 4 2 5 40.0 0 0 - 0 0 - 0 0 0 0 1 0 3 2 -
p318
aVEddielee Wilkins NYK 02/17/1990 NYK vs. CLE W 12 6 2 6 33.3 0 0 - 2 2 100.0 2 2 4 0 0 0 1 1 -
p319
aVBrian Quinnett NYK 02/17/1990 NYK vs. CLE W 4 0 0 0 - 0 0 - 0 0 - 0 0 0 0 0 0 0 0 -
p320
aVCharles Oakley NYK 02/17/1990 NYK vs. CLE W 42 18 7 9 77.8 0 0 - 4 7 57.1 6 12 18 3 1 0 3 5 -
p321
aVTrent Tucker NYK 02/17/1990 NYK vs. CLE W 21 3 1 4 25.0 0 2 0.0 1 2 50.0 1 1 2 4 0 0 3 2 -
p322
aVMark Jackson NYK 02/17/1990 NYK vs. CLE W 42 16 6 13 46.2 1 2 50.0 3 3 100.0 2 5 7 17 3 0 4 2 -
p323
aVKenny Walker NYK 02/15/1990 NYK @ HOU L 24 16 8 12 66.7 0 0 - 0 0 - 4 3 7 1 0 1 2 2 -
p324
aVCharles Oakley NYK 02/15/1990 NYK @ HOU L 24 2 1 5 20.0 0 0 - 0 0 - 2 3 5 1 0 0 2 2 -
p325
aVPete Myers NYK 02/15/1990 NYK @ HOU L 16 2 1 5 20.0 0 0 - 0 0 - 1 3 4 3 2 0 1 4 -
p326
aVRod Strickland NYK 02/15/1990 NYK @ HOU L 27 10 4 9 44.4 0 1 0.0 2 6 33.3 1 1 2 11 1 1 1 1 -
p327
aVEddielee Wilkins NYK 02/15/1990 NYK @ HOU L 10 4 2 5 40.0 0 0 - 0 0 - 1 1 2 0 0 0 0 0 -
p328
aVTrent Tucker NYK 02/15/1990 NYK @ HOU L 22 15 7 11 63.6 1 2 50.0 0 2 0.0 1 2 3 0 0 0 1 3 -
p329
aVJohnny Newman NYK 02/15/1990 NYK @ HOU L 27 4 2 5 40.0 0 1 0.0 0 0 - 0 1 1 1 0 0 0 4 -
p330
aVPatrick Ewing NYK 02/15/1990 NYK @ HOU L 38 33 12 23 52.2 0 0 - 9 12 75.0 4 9 13 4 1 6 4 5 -
p331
aVGerald Wilkins NYK 02/15/1990 NYK @ HOU L 26 11 5 14 35.7 1 3 33.3 0 0 - 1 3 4 5 0 0 2 1 -
p332
aVMark Jackson NYK 02/15/1990 NYK @ HOU L 26 8 3 11 27.3 0 0 - 2 4 50.0 0 1 1 2 0 0 1 1 -
p333
aVMark Jackson NYK 02/13/1990 NYK @ ATL W 32 12 6 11 54.5 0 0 - 0 0 - 1 2 3 11 1 0 5 0 -
p334
aVGerald Wilkins NYK 02/13/1990 NYK @ ATL W 34 15 5 11 45.5 0 1 0.0 5 6 83.3 0 4 4 5 3 0 1 3 -
p335
aVCharles Oakley NYK 02/13/1990 NYK @ ATL W 40 23 7 15 46.7 0 0 - 9 11 81.8 6 4 10 1 0 0 1 4 -
p336
aVKenny Walker NYK 02/13/1990 NYK @ ATL W 16 6 3 6 50.0 0 0 - 0 0 - 4 1 5 1 0 1 2 3 -
p337
aVPatrick Ewing NYK 02/13/1990 NYK @ ATL W 34 31 12 16 75.0 0 0 - 7 7 100.0 0 6 6 4 0 4 4 5 -
p338
aVEddielee Wilkins NYK 02/13/1990 NYK @ ATL W 16 6 3 8 37.5 0 0 - 0 0 - 3 4 7 0 0 1 1 4 -
p339
aVRod Strickland NYK 02/13/1990 NYK @ ATL W 16 6 2 6 33.3 1 2 50.0 1 2 50.0 1 1 2 5 1 0 0 1 -
p340
aVJohnny Newman NYK 02/13/1990 NYK @ ATL W 31 9 4 8 50.0 0 1 0.0 1 1 100.0 1 1 2 3 2 0 3 2 -
p341
aVTrent Tucker NYK 02/13/1990 NYK @ ATL W 21 6 3 5 60.0 0 0 - 0 0 - 0 0 0 2 1 0 0 2 -
p342
aVMark Jackson NYK 02/08/1990 NYK vs. GOS W 27 13 5 7 71.4 0 0 - 3 5 60.0 2 3 5 7 1 0 2 1 -
p343
aVEddielee Wilkins NYK 02/08/1990 NYK vs. GOS W 14 8 3 7 42.9 0 0 - 2 3 66.7 1 7 8 2 0 0 0 2 -
p344
aVPete Myers NYK 02/08/1990 NYK vs. GOS W 13 8 2 3 66.7 0 0 - 4 5 80.0 0 2 2 4 1 0 1 3 -
p345
aVRod Strickland NYK 02/08/1990 NYK vs. GOS W 24 13 5 12 41.7 0 1 0.0 3 4 75.0 1 7 8 5 2 0 2 3 -
p346
aVGerald Wilkins NYK 02/08/1990 NYK vs. GOS W 27 12 6 11 54.5 0 1 0.0 0 0 - 1 6 7 3 2 0 4 2 -
p347
aVCharles Oakley NYK 02/08/1990 NYK vs. GOS W 28 17 5 11 45.5 0 0 - 7 10 70.0 7 5 12 3 0 0 3 2 -
p348
aVPatrick Ewing NYK 02/08/1990 NYK vs. GOS W 34 22 9 20 45.0 0 0 - 4 4 100.0 3 8 11 1 0 5 2 4 -
p349
aVKenny Walker NYK 02/08/1990 NYK vs. GOS W 20 6 3 5 60.0 0 0 - 0 0 - 0 3 3 0 0 2 0 3 -
p350
aVJohnny Newman NYK 02/08/1990 NYK vs. GOS W 32 9 3 10 30.0 1 4 25.0 2 2 100.0 1 0 1 1 1 1 1 3 -
p351
aVTrent Tucker NYK 02/08/1990 NYK vs. GOS W 21 14 6 8 75.0 2 3 66.7 0 0 - 1 3 4 2 0 1 3 1 -
p352
aVCharles Oakley NYK 02/06/1990 NYK @ ORL W 34 10 5 10 50.0 0 0 - 0 0 - 3 4 7 5 1 0 2 4 -
p353
aVGerald Wilkins NYK 02/06/1990 NYK @ ORL W 41 23 10 21 47.6 0 1 0.0 3 3 100.0 1 3 4 2 1 0 1 3 -
p354
aVMark Jackson NYK 02/06/1990 NYK @ ORL W 38 17 8 17 47.1 0 2 0.0 1 4 25.0 1 4 5 10 5 1 1 1 -
p355
aVTrent Tucker NYK 02/06/1990 NYK @ ORL W 25 13 5 7 71.4 3 3 100.0 0 0 - 0 1 1 2 0 0 1 1 -
p356
aVRod Strickland NYK 02/06/1990 NYK @ ORL W 22 7 1 4 25.0 0 0 - 5 9 55.6 2 3 5 2 1 0 3 1 -
p357
aVPete Myers NYK 02/06/1990 NYK @ ORL W 2 0 0 0 - 0 0 - 0 0 - 0 0 0 0 0 0 0 1 -
p358
aVJohnny Newman NYK 02/06/1990 NYK @ ORL W 16 7 2 6 33.3 1 2 50.0 2 2 100.0 0 0 0 0 1 1 3 2 -
p359
aVEddielee Wilkins NYK 02/06/1990 NYK @ ORL W 2 2 1 1 100.0 0 0 - 0 0 - 0 1 1 0 0 0 0 2 -
p360
aVPatrick Ewing NYK 02/06/1990 NYK @ ORL W 43 35 13 20 65.0 0 0 - 9 10 90.0 1 12 13 0 0 7 2 5 -
p361
aVKenny Walker NYK 02/06/1990 NYK @ ORL W 17 3 0 4 0.0 0 0 - 3 4 75.0 4 0 4 0 1 2 1 3 -
p362
aVGerald Wilkins NYK 02/05/1990 NYK vs. MIA W 35 18 8 14 57.1 0 0 - 2 2 100.0 0 3 3 8 1 0 3 0 -
p363
aVRod Strickland NYK 02/05/1990 NYK vs. MIA W 28 9 3 6 50.0 0 0 - 3 4 75.0 0 3 3 7 3 1 2 1 -
p364
aVKenny Walker NYK 02/05/1990 NYK vs. MIA W 12 4 2 4 50.0 0 0 - 0 0 - 2 2 4 0 0 1 1 2 -
p365
aVCharles Oakley NYK 02/05/1990 NYK vs. MIA W 36 24 11 17 64.7 0 0 - 2 3 66.7 3 8 11 2 1 0 4 4 -
p366
aVTrent Tucker NYK 02/05/1990 NYK vs. MIA W 15 7 3 6 50.0 1 1 100.0 0 0 - 0 0 0 1 2 0 1 2 -
p367
aVEddielee Wilkins NYK 02/05/1990 NYK vs. MIA W 14 5 2 4 50.0 0 0 - 1 3 33.3 0 4 4 2 0 0 2 4 -
p368
aVMark Jackson NYK 02/05/1990 NYK vs. MIA W 32 21 8 10 80.0 1 1 100.0 4 6 66.7 1 1 2 12 0 0 2 3 -
p369
aVJohnny Newman NYK 02/05/1990 NYK vs. MIA W 25 4 2 7 28.6 0 0 - 0 0 - 0 3 3 2 3 0 3 1 -
p370
aVPete Myers NYK 02/05/1990 NYK vs. MIA W 6 0 0 0 - 0 0 - 0 0 - 0 0 0 0 1 0 2 1 -
p371
aVPatrick Ewing NYK 02/05/1990 NYK vs. MIA W 37 24 11 18 61.1 0 0 - 2 3 66.7 2 9 11 3 0 9 3 4 -
p372
aVTrent Tucker NYK 02/03/1990 NYK vs. IND W 7 0 0 2 0.0 0 0 - 0 0 - 0 1 1 0 0 0 1 0 -
p373
aVJohnny Newman NYK 02/03/1990 NYK vs. IND W 36 15 5 10 50.0 1 1 100.0 4 5 80.0 2 3 5 2 1 0 4 5 -
p374
aVPatrick Ewing NYK 02/03/1990 NYK vs. IND W 42 38 11 19 57.9 0 0 - 16 20 80.0 5 7 12 3 0 3 4 5 -
p375
aVKenny Walker NYK 02/03/1990 NYK vs. IND W 10 3 0 1 0.0 0 0 - 3 3 100.0 1 2 3 1 0 1 1 2 -
p376
aVRod Strickland NYK 02/03/1990 NYK vs. IND W 19 10 5 11 45.5 0 0 - 0 2 0.0 1 2 3 3 1 0 0 1 -
p377
aVCharles Oakley NYK 02/03/1990 NYK vs. IND W 40 14 4 9 44.4 0 0 - 6 7 85.7 7 9 16 3 1 0 4 3 -
p378
aVEddielee Wilkins NYK 02/03/1990 NYK vs. IND W 4 0 0 0 - 0 0 - 0 0 - 0 0 0 1 0 0 1 1 -
p379
aVPete Myers NYK 02/03/1990 NYK vs. IND W 12 0 0 1 0.0 0 0 - 0 0 - 0 0 0 0 0 0 1 4 -
p380
aVGerald Wilkins NYK 02/03/1990 NYK vs. IND W 33 19 6 15 40.0 0 1 0.0 7 7 100.0 3 3 6 3 2 0 0 2 -
p381
aVMark Jackson NYK 02/03/1990 NYK vs. IND W 37 13 5 9 55.6 1 3 33.3 2 2 100.0 1 4 5 9 2 0 5 2 -
p382
aVTrent Tucker NYK 02/01/1990 NYK vs. SAC W 21 4 2 6 33.3 0 2 0.0 0 0 - 0 1 1 1 0 1 1 1 -
p383
aVGerald Wilkins NYK 02/01/1990 NYK vs. SAC W 27 6 3 11 27.3 0 1 0.0 0 0 - 3 2 5 1 1 1 2 2 -
p384
aVCharles Oakley NYK 02/01/1990 NYK vs. SAC W 37 16 7 9 77.8 0 0 - 2 2 100.0 3 13 16 4 3 0 4 4 -
p385
aVPatrick Ewing NYK 02/01/1990 NYK vs. SAC W 44 31 11 21 52.4 0 0 - 9 10 90.0 0 9 9 2 0 4 7 4 -
p386
aVRod Strickland NYK 02/01/1990 NYK vs. SAC W 10 2 1 3 33.3 0 0 - 0 0 - 1 0 1 4 0 1 0 1 -
p387
aVGreg Butler NYK 02/01/1990 NYK vs. SAC W 1 0 0 0 - 0 0 - 0 0 - 0 0 0 0 0 0 1 1 -
p388
aVEddielee Wilkins NYK 02/01/1990 NYK vs. SAC W 14 2 0 2 0.0 0 0 - 2 2 100.0 0 4 4 0 1 0 1 1 -
p389
aVPete Myers NYK 02/01/1990 NYK vs. SAC W 16 2 1 3 33.3 0 0 - 0 0 - 0 0 0 2 1 0 1 2 -
p390
aVJohnny Newman NYK 02/01/1990 NYK vs. SAC W 32 19 4 7 57.1 1 1 100.0 10 10 100.0 0 2 2 3 1 0 1 3 -
p391
aVMark Jackson NYK 02/01/1990 NYK vs. SAC W 38 14 6 8 75.0 0 1 0.0 2 2 100.0 1 4 5 8 1 0 2 0 -
p392
aVTrent Tucker NYK 01/31/1990 NYK @ BOS L 17 4 2 9 22.2 0 6 0.0 0 0 - 1 2 3 1 1 0 0 1 -
p393
aVMark Jackson NYK 01/31/1990 NYK @ BOS L 24 10 4 8 50.0 2 2 100.0 0 0 - 2 1 3 6 1 0 2 1 -
p394
aVPete Myers NYK 01/31/1990 NYK @ BOS L 23 9 3 8 37.5 0 1 0.0 3 4 75.0 0 3 3 5 3 1 1 4 -
p395
aVBrian Quinnett NYK 01/31/1990 NYK @ BOS L 2 0 0 0 - 0 0 - 0 0 - 0 0 0 0 0 0 0 1 -
p396
aVEddielee Wilkins NYK 01/31/1990 NYK @ BOS L 15 3 0 3 0.0 0 0 - 3 6 50.0 4 2 6 0 0 1 2 2 -
p397
aVRod Strickland NYK 01/31/1990 NYK @ BOS L 24 7 3 5 60.0 0 0 - 1 2 50.0 0 1 1 1 1 0 3 1 -
p398
aVPatrick Ewing NYK 01/31/1990 NYK @ BOS L 39 21 8 19 42.1 0 0 - 5 7 71.4 2 3 5 1 3 6 3 1 -
p399
aVCharles Oakley NYK 01/31/1990 NYK @ BOS L 42 11 3 8 37.5 0 0 - 5 6 83.3 7 8 15 0 2 0 4 5 -
p400
aVJohnny Newman NYK 01/31/1990 NYK @ BOS L 23 8 4 10 40.0 0 1 0.0 0 2 0.0 2 1 3 2 2 0 3 4 -
p401
aVGerald Wilkins NYK 01/31/1990 NYK @ BOS L 31 18 7 10 70.0 1 1 100.0 3 4 75.0 1 5 6 3 0 2 1 2 -
p402
aVBrian Quinnett NYK 01/27/1990 NYK @ DEN W 19 4 2 4 50.0 0 0 - 0 0 - 1 2 3 2 1 0 0 4 -
p403
aVJohnny Newman NYK 01/27/1990 NYK @ DEN W 28 16 6 9 66.7 2 3 66.7 2 2 100.0 1 1 2 3 0 0 2 1 -
p404
aVRod Strickland NYK 01/27/1990 NYK @ DEN W 21 8 4 9 44.4 0 0 - 0 0 - 1 3 4 1 1 0 1 1 -
p405
aVGerald Wilkins NYK 01/27/1990 NYK @ DEN W 29 7 3 8 37.5 1 3 33.3 0 0 - 2 3 5 3 2 1 3 0 -
p406
aVPatrick Ewing NYK 01/27/1990 NYK @ DEN W 35 26 11 20 55.0 0 0 - 4 4 100.0 1 7 8 2 1 6 4 4 -
p407
aVCharles Oakley NYK 01/27/1990 NYK @ DEN W 32 25 10 14 71.4 0 1 0.0 5 6 83.3 5 6 11 2 0 0 1 4 -
p408
aVTrent Tucker NYK 01/27/1990 NYK @ DEN W 26 11 5 11 45.5 1 3 33.3 0 0 - 0 3 3 1 0 0 1 4 -
p409
aVMark Jackson NYK 01/27/1990 NYK @ DEN W 27 4 2 6 33.3 0 1 0.0 0 0 - 2 5 7 11 1 0 4 2 -
p410
aVEddielee Wilkins NYK 01/27/1990 NYK @ DEN W 10 7 2 4 50.0 0 0 - 3 5 60.0 2 3 5 0 0 0 2 2 -
p411
aVPete Myers NYK 01/27/1990 NYK @ DEN W 13 2 1 2 50.0 0 0 - 0 0 - 0 2 2 3 0 0 3 4 -
p412
aVJohnny Newman NYK 01/25/1990 NYK @ UTH L 21 10 4 8 50.0 0 2 0.0 2 2 100.0 0 2 2 1 1 0 2 5 -
p413
aVCharles Oakley NYK 01/25/1990 NYK @ UTH L 32 13 4 8 50.0 0 0 - 5 5 100.0 6 5 11 0 0 0 4 5 -
p414
aVKenny Walker NYK 01/25/1990 NYK @ UTH L 22 4 2 5 40.0 0 0 - 0 0 - 1 3 4 2 0 1 0 3 -
p415
aVEddielee Wilkins NYK 01/25/1990 NYK @ UTH L 11 3 0 4 0.0 0 0 - 3 4 75.0 4 1 5 2 0 0 2 0 -
p416
aVMark Jackson NYK 01/25/1990 NYK @ UTH L 36 15 5 13 38.5 0 2 0.0 5 7 71.4 2 2 4 6 1 0 1 3 -
p417
aVGreg Butler NYK 01/25/1990 NYK @ UTH L 3 4 2 2 100.0 0 0 - 0 0 - 0 0 0 0 0 0 0 0 -
p418
aVPatrick Ewing NYK 01/25/1990 NYK @ UTH L 38 25 11 20 55.0 0 0 - 3 6 50.0 1 6 7 3 0 3 5 3 -
p419
aVPete Myers NYK 01/25/1990 NYK @ UTH L 10 2 1 3 33.3 0 0 - 0 2 0.0 2 1 3 2 0 0 1 2 -
p420
aVRod Strickland NYK 01/25/1990 NYK @ UTH L 13 2 1 4 25.0 0 0 - 0 2 0.0 0 1 1 3 0 0 4 5 -
p421
aVGerald Wilkins NYK 01/25/1990 NYK @ UTH L 37 4 2 7 28.6 0 0 - 0 2 0.0 1 2 3 6 0 1 6 3 -
p422
aVBrian Quinnett NYK 01/25/1990 NYK @ UTH L 3 0 0 2 0.0 0 0 - 0 0 - 0 1 1 0 0 0 0 0 -
p423
aVTrent Tucker NYK 01/25/1990 NYK @ UTH L 14 7 3 5 60.0 1 1 100.0 0 0 - 3 0 3 1 0 0 0 3 -
p424
aVTrent Tucker NYK 01/23/1990 NYK vs. LAL L 19 6 2 8 25.0 0 2 0.0 2 2 100.0 3 0 3 1 0 0 0 1 -
p425
aVEddielee Wilkins NYK 01/23/1990 NYK vs. LAL L 18 11 3 7 42.9 0 0 - 5 6 83.3 0 1 1 0 0 0 0 2 -
p426
aVCharles Oakley NYK 01/23/1990 NYK vs. LAL L 37 15 7 11 63.6 0 0 - 1 2 50.0 1 5 6 1 0 0 0 3 -
p427
aVPatrick Ewing NYK 01/23/1990 NYK vs. LAL L 33 12 4 16 25.0 0 0 - 4 7 57.1 3 4 7 1 0 2 0 2 -
p428
aVGreg Butler NYK 01/23/1990 NYK vs. LAL L 3 0 0 1 0.0 0 0 - 0 0 - 0 3 3 0 0 0 0 1 -
p429
aVMark Jackson NYK 01/23/1990 NYK vs. LAL L 15 0 0 5 0.0 0 1 0.0 0 0 - 2 1 3 3 1 0 1 0 -
p430
aVRod Strickland NYK 01/23/1990 NYK vs. LAL L 26 16 7 13 53.8 0 0 - 2 2 100.0 2 2 4 5 1 0 2 1 -
p431
aVPete Myers NYK 01/23/1990 NYK vs. LAL L 8 6 2 4 50.0 0 0 - 2 2 100.0 1 0 1 4 3 0 1 1 -
p432
aVBrian Quinnett NYK 01/23/1990 NYK vs. LAL L 3 2 1 2 50.0 0 0 - 0 1 0.0 0 0 0 1 0 0 0 1 -
p433
aVGerald Wilkins NYK 01/23/1990 NYK vs. LAL L 28 5 2 7 28.6 0 2 0.0 1 2 50.0 1 1 2 4 0 0 1 4 -
p434
aVKenny Walker NYK 01/23/1990 NYK vs. LAL L 29 10 5 7 71.4 0 0 - 0 0 - 3 2 5 0 0 0 0 2 -
p435
aVJohnny Newman NYK 01/23/1990 NYK vs. LAL L 21 14 6 8 75.0 0 1 0.0 2 2 100.0 0 2 2 2 1 0 3 3 -
p436
aVRod Strickland NYK 01/21/1990 NYK @ CHI L 20 7 3 9 33.3 0 1 0.0 1 2 50.0 3 0 3 6 3 1 2 3 -
p437
aVTrent Tucker NYK 01/21/1990 NYK @ CHI L 12 0 0 1 0.0 0 0 - 0 0 - 0 0 0 1 0 0 0 0 -
p438
aVJohnny Newman NYK 01/21/1990 NYK @ CHI L 26 14 3 9 33.3 0 4 0.0 8 9 88.9 0 2 2 2 2 2 3 5 -
p439
aVPete Myers NYK 01/21/1990 NYK @ CHI L 10 0 0 1 0.0 0 0 - 0 0 - 0 0 0 2 2 0 0 3 -
p440
aVCharles Oakley NYK 01/21/1990 NYK @ CHI L 33 14 4 7 57.1 0 0 - 6 10 60.0 3 6 9 4 0 0 1 5 -
p441
aVEddielee Wilkins NYK 01/21/1990 NYK @ CHI L 10 5 2 4 50.0 0 0 - 1 2 50.0 0 1 1 0 0 0 2 1 -
p442
aVMark Jackson NYK 01/21/1990 NYK @ CHI L 32 14 3 6 50.0 0 1 0.0 8 10 80.0 1 2 3 6 1 0 4 3 -
p443
aVKenny Walker NYK 01/21/1990 NYK @ CHI L 28 18 8 11 72.7 0 0 - 2 2 100.0 5 4 9 1 0 1 1 3 -
p444
aVPatrick Ewing NYK 01/21/1990 NYK @ CHI L 35 16 5 17 29.4 0 0 - 6 8 75.0 6 4 10 3 0 4 6 4 -
p445
aVGerald Wilkins NYK 01/21/1990 NYK @ CHI L 34 21 9 14 64.3 3 4 75.0 0 0 - 1 2 3 2 1 0 2 5 -
p446
aVCharles Oakley NYK 01/19/1990 NYK @ DAL L 37 10 4 7 57.1 0 0 - 2 2 100.0 2 12 14 2 0 0 4 4 -
p447
aVRod Strickland NYK 01/19/1990 NYK @ DAL L 21 10 5 6 83.3 0 0 - 0 0 - 0 1 1 3 2 0 1 1 -
p448
aVKenny Walker NYK 01/19/1990 NYK @ DAL L 17 2 1 3 33.3 0 0 - 0 0 - 0 0 0 1 2 1 0 3 -
p449
aVJohnny Newman NYK 01/19/1990 NYK @ DAL L 31 17 5 11 45.5 2 5 40.0 5 6 83.3 0 0 0 3 1 1 3 5 -
p450
aVGerald Wilkins NYK 01/19/1990 NYK @ DAL L 32 8 3 14 21.4 0 2 0.0 2 2 100.0 3 2 5 1 1 0 0 1 -
p451
aVPatrick Ewing NYK 01/19/1990 NYK @ DAL L 44 38 16 22 72.7 0 0 - 6 10 60.0 5 10 15 3 0 4 4 5 -
p452
aVTrent Tucker NYK 01/19/1990 NYK @ DAL L 16 4 1 6 16.7 0 3 0.0 2 2 100.0 1 0 1 3 0 0 0 2 -
p453
aVGreg Butler NYK 01/19/1990 NYK @ DAL L 1 0 0 0 - 0 0 - 0 0 - 0 1 1 0 0 0 0 1 -
p454
aVEddielee Wilkins NYK 01/19/1990 NYK @ DAL L 9 3 1 2 50.0 0 0 - 1 2 50.0 1 1 2 0 1 0 2 2 -
p455
aVMark Jackson NYK 01/19/1990 NYK @ DAL L 32 11 4 8 50.0 2 4 50.0 1 2 50.0 2 3 5 10 0 0 3 1 -
p456
aVCharles Oakley NYK 01/17/1990 NYK @ SAN L 38 13 4 6 66.7 0 0 - 5 8 62.5 3 7 10 0 0 1 3 5 -
p457
aVGerald Wilkins NYK 01/17/1990 NYK @ SAN L 34 16 7 12 58.3 2 4 50.0 0 0 - 2 4 6 5 1 1 3 2 -
p458
aVKenny Walker NYK 01/17/1990 NYK @ SAN L 13 2 1 1 100.0 0 0 - 0 0 - 0 0 0 0 0 0 0 1 -
p459
aVTrent Tucker NYK 01/17/1990 NYK @ SAN L 19 2 0 2 0.0 0 0 - 2 2 100.0 1 0 1 2 0 0 1 1 -
p460
aVRod Strickland NYK 01/17/1990 NYK @ SAN L 18 12 5 9 55.6 0 0 - 2 3 66.7 0 2 2 3 2 1 3 2 -
p461
aVPete Myers NYK 01/17/1990 NYK @ SAN L 5 1 0 1 0.0 0 0 - 1 2 50.0 0 1 1 0 0 1 0 0 -
p462
aVPatrick Ewing NYK 01/17/1990 NYK @ SAN L 42 27 13 26 50.0 0 0 - 1 2 50.0 3 9 12 0 1 4 4 3 -
p463
aVEddielee Wilkins NYK 01/17/1990 NYK @ SAN L 5 0 0 0 - 0 0 - 0 0 - 0 2 2 0 0 0 1 2 -
p464
aVMark Jackson NYK 01/17/1990 NYK @ SAN L 30 6 2 8 25.0 2 3 66.7 0 0 - 1 3 4 6 0 0 2 2 -
p465
aVJohnny Newman NYK 01/17/1990 NYK @ SAN L 36 18 7 13 53.8 1 2 50.0 3 3 100.0 1 4 5 1 1 1 2 6 -
p466
aVRod Strickland NYK 01/15/1990 NYK vs. CHI W 18 8 4 9 44.4 0 1 0.0 0 0 - 0 3 3 6 0 0 3 1 -
p467
aVMark Jackson NYK 01/15/1990 NYK vs. CHI W 30 7 3 6 50.0 1 2 50.0 0 0 - 0 0 0 7 0 0 3 1 -
p468
aVGerald Wilkins NYK 01/15/1990 NYK vs. CHI W 31 12 5 11 45.5 2 3 66.7 0 0 - 0 3 3 3 0 0 1 1 -
p469
aVEddielee Wilkins NYK 01/15/1990 NYK vs. CHI W 9 0 0 1 0.0 0 0 - 0 0 - 0 0 0 1 0 0 1 2 -
p470
aVKenny Walker NYK 01/15/1990 NYK vs. CHI W 18 5 2 4 50.0 0 1 0.0 1 1 100.0 2 2 4 0 0 0 0 1 -
p471
aVCharles Oakley NYK 01/15/1990 NYK vs. CHI W 39 16 7 11 63.6 0 0 - 2 3 66.7 4 8 12 1 1 0 1 3 -
p472
aVPatrick Ewing NYK 01/15/1990 NYK vs. CHI W 44 33 13 21 61.9 0 0 - 7 10 70.0 2 10 12 5 1 8 2 4 -
p473
aVTrent Tucker NYK 01/15/1990 NYK vs. CHI W 21 12 5 8 62.5 2 4 50.0 0 0 - 0 0 0 1 1 0 1 2 -
p474
aVJohnny Newman NYK 01/15/1990 NYK vs. CHI W 30 16 6 11 54.5 0 0 - 4 4 100.0 1 0 1 2 1 0 3 2 -
p475
aVEddielee Wilkins NYK 01/13/1990 NYK vs. SAN W 6 3 1 1 100.0 0 0 - 1 2 50.0 1 0 1 0 0 0 2 0 -
p476
aVPatrick Ewing NYK 01/13/1990 NYK vs. SAN W 38 18 8 14 57.1 0 0 - 2 7 28.6 2 7 9 3 1 3 3 6 -
p477
aVTrent Tucker NYK 01/13/1990 NYK vs. SAN W 21 9 4 9 44.4 1 3 33.3 0 0 - 0 2 2 1 0 0 0 2 -
p478
aVJohnny Newman NYK 01/13/1990 NYK vs. SAN W 34 19 9 17 52.9 1 2 50.0 0 0 - 2 3 5 2 1 0 1 2 -
p479
aVRod Strickland NYK 01/13/1990 NYK vs. SAN W 21 15 4 5 80.0 0 0 - 7 9 77.8 0 3 3 5 2 0 4 1 -
p480
aVMark Jackson NYK 01/13/1990 NYK vs. SAN W 31 10 4 7 57.1 2 3 66.7 0 0 - 1 0 1 2 2 0 3 2 -
p481
aVGerald Wilkins NYK 01/13/1990 NYK vs. SAN W 33 10 3 13 23.1 1 3 33.3 3 4 75.0 3 6 9 7 2 0 2 2 -
p482
aVKenny Walker NYK 01/13/1990 NYK vs. SAN W 20 5 1 3 33.3 0 0 - 3 4 75.0 1 6 7 0 0 1 0 3 -
p483
aVCharles Oakley NYK 01/13/1990 NYK vs. SAN W 36 18 6 10 60.0 0 0 - 6 7 85.7 3 4 7 3 2 0 2 4 -
p484
aVEddielee Wilkins NYK 01/12/1990 NYK @ IND W 9 3 1 3 33.3 0 0 - 1 1 100.0 1 2 3 0 0 1 2 2 -
p485
aVPatrick Ewing NYK 01/12/1990 NYK @ IND W 47 20 7 16 43.8 0 0 - 6 10 60.0 2 9 11 4 2 6 5 3 -
p486
aVCharles Oakley NYK 01/12/1990 NYK @ IND W 39 12 5 8 62.5 0 0 - 2 2 100.0 2 7 9 2 0 0 2 4 -
p487
aVTrent Tucker NYK 01/12/1990 NYK @ IND W 29 8 3 9 33.3 2 5 40.0 0 0 - 0 5 5 0 4 2 3 2 -
p488
aVJohnny Newman NYK 01/12/1990 NYK @ IND W 33 16 6 10 60.0 0 1 0.0 4 5 80.0 1 2 3 2 1 1 2 2 -
p489
aVRod Strickland NYK 01/12/1990 NYK @ IND W 18 8 4 9 44.4 0 0 - 0 4 0.0 1 2 3 2 3 1 1 1 -
p490
aVMark Jackson NYK 01/12/1990 NYK @ IND W 35 10 4 14 28.6 0 3 0.0 2 2 100.0 1 8 9 5 0 0 1 3 -
p491
aVKenny Walker NYK 01/12/1990 NYK @ IND W 23 6 2 3 66.7 0 0 - 2 2 100.0 1 3 4 1 0 0 0 2 -
p492
aVGerald Wilkins NYK 01/12/1990 NYK @ IND W 32 18 5 11 45.5 1 2 50.0 7 7 100.0 2 5 7 2 1 0 3 4 -
p493
aVCharles Oakley NYK 01/10/1990 NYK @ PHL L 40 18 7 11 63.6 0 0 - 4 4 100.0 4 8 12 2 1 1 1 4 -
p494
aVMark Jackson NYK 01/10/1990 NYK @ PHL L 35 33 14 21 66.7 2 4 50.0 3 5 60.0 1 5 6 5 2 0 3 1 -
p495
aVKenny Walker NYK 01/10/1990 NYK @ PHL L 19 3 1 3 33.3 0 0 - 1 2 50.0 0 1 1 1 1 0 0 2 -
p496
aVPatrick Ewing NYK 01/10/1990 NYK @ PHL L 38 15 5 13 38.5 0 0 - 5 7 71.4 0 5 5 5 3 3 4 3 -
p497
aVJohnny Newman NYK 01/10/1990 NYK @ PHL L 31 12 5 12 41.7 1 3 33.3 1 1 100.0 0 3 3 6 3 0 1 3 -
p498
aVTrent Tucker NYK 01/10/1990 NYK @ PHL L 19 6 2 6 33.3 2 4 50.0 0 0 - 0 2 2 0 0 0 1 2 -
p499
aVGerald Wilkins NYK 01/10/1990 NYK @ PHL L 35 14 6 14 42.9 0 1 0.0 2 2 100.0 4 5 9 7 1 0 3 2 -
p500
aVRod Strickland NYK 01/10/1990 NYK @ PHL L 13 2 0 2 0.0 0 0 - 2 2 100.0 0 0 0 4 0 0 3 1 -
p501
aVEddielee Wilkins NYK 01/10/1990 NYK @ PHL L 10 8 4 4 100.0 0 0 - 0 0 - 0 0 0 0 0 0 1 2 -
p502
aVKenny Walker NYK 01/09/1990 NYK vs. WAS W 23 5 2 4 50.0 0 0 - 1 2 50.0 3 3 6 0 0 0 2 0 -
p503
aVRod Strickland NYK 01/09/1990 NYK vs. WAS W 17 6 2 7 28.6 0 0 - 2 2 100.0 2 0 2 2 1 0 2 0 -
p504
aVJohnny Newman NYK 01/09/1990 NYK vs. WAS W 21 12 5 7 71.4 0 0 - 2 3 66.7 1 2 3 2 0 0 1 0 -
p505
aVCharles Oakley NYK 01/09/1990 NYK vs. WAS W 38 21 8 13 61.5 0 0 - 5 8 62.5 10 5 15 2 1 0 2 1 -
p506
aVTrent Tucker NYK 01/09/1990 NYK vs. WAS W 32 15 5 18 27.8 2 6 33.3 3 4 75.0 2 1 3 5 4 0 1 1 -
p507
aVGerald Wilkins NYK 01/09/1990 NYK vs. WAS W 21 6 3 7 42.9 0 0 - 0 0 - 0 2 2 4 0 0 0 1 -
p508
aVPatrick Ewing NYK 01/09/1990 NYK vs. WAS W 41 35 12 23 52.2 0 0 - 11 14 78.6 3 5 8 5 2 2 0 4 -
p509
aVEddielee Wilkins NYK 01/09/1990 NYK vs. WAS W 12 7 3 8 37.5 0 0 - 1 3 33.3 4 2 6 0 1 0 1 2 -
p510
aVPete Myers NYK 01/09/1990 NYK vs. WAS W 22 7 2 3 66.7 0 0 - 3 4 75.0 1 1 2 3 1 0 1 1 -
p511
aVMark Jackson NYK 01/09/1990 NYK vs. WAS W 38 17 8 18 44.4 0 0 - 1 2 50.0 1 3 4 6 1 0 3 2 -
p512
aVRod Strickland NYK 01/07/1990 NYK vs. LAC W 18 6 3 4 75.0 0 0 - 0 4 0.0 1 2 3 3 0 0 3 0 -
p513
aVMark Jackson NYK 01/07/1990 NYK vs. LAC W 34 12 5 9 55.6 0 0 - 2 2 100.0 2 4 6 8 0 0 3 3 -
p514
aVGerald Wilkins NYK 01/07/1990 NYK vs. LAC W 22 3 0 13 0.0 0 2 0.0 3 4 75.0 1 0 1 1 1 0 1 1 -
p515
aVJohnny Newman NYK 01/07/1990 NYK vs. LAC W 42 17 8 16 50.0 1 3 33.3 0 1 0.0 1 1 2 3 3 0 3 4 -
p516
aVEddielee Wilkins NYK 01/07/1990 NYK vs. LAC W 15 5 2 5 40.0 0 0 - 1 2 50.0 1 0 1 0 0 0 0 1 -
p517
aVCharles Oakley NYK 01/07/1990 NYK vs. LAC W 43 10 4 10 40.0 0 0 - 2 3 66.7 7 4 11 2 0 0 3 5 -
p518
aVPatrick Ewing NYK 01/07/1990 NYK vs. LAC W 48 44 18 28 64.3 0 1 0.0 8 12 66.7 7 15 22 4 2 7 5 3 -
p519
aVTrent Tucker NYK 01/07/1990 NYK vs. LAC W 33 11 4 9 44.4 3 7 42.9 0 0 - 0 5 5 3 2 0 2 2 -
p520
aVPete Myers NYK 01/07/1990 NYK vs. LAC W 10 2 1 1 100.0 0 0 - 0 0 - 0 0 0 1 0 0 0 0 -
p521
aVTrent Tucker NYK 01/06/1990 NYK @ DET L 23 7 2 5 40.0 1 2 50.0 2 2 100.0 0 3 3 2 2 0 1 3 -
p522
aVGerald Wilkins NYK 01/06/1990 NYK @ DET L 30 17 6 10 60.0 1 1 100.0 4 6 66.7 4 2 6 1 0 1 1 4 -
p523
aVPatrick Ewing NYK 01/06/1990 NYK @ DET L 44 29 9 21 42.9 0 0 - 11 12 91.7 2 6 8 4 0 4 3 4 -
p524
aVEddielee Wilkins NYK 01/06/1990 NYK @ DET L 17 8 2 3 66.7 0 0 - 4 6 66.7 4 2 6 0 0 0 0 4 -
p525
aVJohnny Newman NYK 01/06/1990 NYK @ DET L 37 18 6 12 50.0 1 1 100.0 5 8 62.5 2 0 2 3 1 0 0 5 -
p526
aVMark Jackson NYK 01/06/1990 NYK @ DET L 33 8 4 15 26.7 0 2 0.0 0 0 - 1 2 3 5 2 0 2 1 -
p527
aVGreg Butler NYK 01/06/1990 NYK @ DET L 1 0 0 1 0.0 0 0 - 0 0 - 0 0 0 0 0 0 0 0 -
p528
aVRod Strickland NYK 01/06/1990 NYK @ DET L 16 5 2 4 50.0 0 0 - 1 1 100.0 0 1 1 0 0 0 1 2 -
p529
aVPete Myers NYK 01/06/1990 NYK @ DET L 5 0 0 0 - 0 0 - 0 2 0.0 0 0 0 0 0 0 0 1 -
p530
aVCharles Oakley NYK 01/06/1990 NYK @ DET L 34 14 5 13 38.5 0 0 - 4 4 100.0 6 6 12 2 2 0 3 4 -
p531
aVMark Jackson NYK 01/04/1990 NYK vs. ATL W 40 16 8 14 57.1 0 2 0.0 0 0 - 1 3 4 15 4 0 5 1 -
p532
aVEddielee Wilkins NYK 01/04/1990 NYK vs. ATL W 15 6 3 3 100.0 0 0 - 0 0 - 1 4 5 0 0 1 2 4 -
p533
aVJohnny Newman NYK 01/04/1990 NYK vs. ATL W 37 14 6 12 50.0 0 1 0.0 2 2 100.0 0 5 5 4 0 0 3 4 -
p534
aVGreg Butler NYK 01/04/1990 NYK vs. ATL W 1 0 0 0 - 0 0 - 0 0 - 0 0 0 0 0 0 0 0 -
p535
aVGerald Wilkins NYK 01/04/1990 NYK vs. ATL W 34 23 10 20 50.0 2 3 66.7 1 2 50.0 6 4 10 3 1 0 0 2 -
p536
aVRod Strickland NYK 01/04/1990 NYK vs. ATL W 10 0 0 2 0.0 0 0 - 0 0 - 0 1 1 1 0 0 1 0 -
p537
aVTrent Tucker NYK 01/04/1990 NYK vs. ATL W 23 7 3 8 37.5 0 3 0.0 1 2 50.0 1 2 3 0 1 0 0 1 -
p538
aVPatrick Ewing NYK 01/04/1990 NYK vs. ATL W 44 19 8 18 44.4 0 0 - 3 6 50.0 3 8 11 0 0 4 5 3 -
p539
aVCharles Oakley NYK 01/04/1990 NYK vs. ATL W 36 15 6 10 60.0 0 0 - 3 6 50.0 3 9 12 3 0 0 4 4 -
p540
aVRod Strickland NYK 01/02/1990 NYK vs. PHX L 20 8 3 8 37.5 0 1 0.0 2 2 100.0 0 2 2 3 0 0 0 1 -
p541
aVKenny Walker NYK 01/02/1990 NYK vs. PHX L 35 3 1 5 20.0 0 0 - 1 4 25.0 5 3 8 0 1 1 1 2 -
p542
aVPatrick Ewing NYK 01/02/1990 NYK vs. PHX L 45 21 9 22 40.9 0 0 - 3 9 33.3 2 8 10 4 0 4 3 3 -
p543
aVEddielee Wilkins NYK 01/02/1990 NYK vs. PHX L 13 0 0 2 0.0 0 0 - 0 0 - 1 2 3 0 0 0 1 3 -
p544
aVMark Jackson NYK 01/02/1990 NYK vs. PHX L 39 18 8 15 53.3 0 3 0.0 2 2 100.0 2 2 4 7 0 0 3 1 -
p545
aVGerald Wilkins NYK 01/02/1990 NYK vs. PHX L 38 30 13 27 48.1 2 6 33.3 2 2 100.0 6 6 12 7 1 0 1 5 -
p546
aVJohnny Newman NYK 01/02/1990 NYK vs. PHX L 27 7 2 9 22.2 0 3 0.0 3 5 60.0 0 1 1 2 0 0 0 4 -
p547
aVTrent Tucker NYK 01/02/1990 NYK vs. PHX L 23 12 4 10 40.0 2 4 50.0 2 2 100.0 2 1 3 3 1 0 1 4 -
p548
aVPatrick Ewing NYK 12/30/1989 NYK vs. ORL W 45 28 12 28 42.9 0 0 - 4 7 57.1 0 4 4 1 0 2 2 3 -
p549
aVJohnny Newman NYK 12/30/1989 NYK vs. ORL W 30 17 8 13 61.5 0 0 - 1 2 50.0 2 2 4 1 1 0 1 5 -
p550
aVKenny Walker NYK 12/30/1989 NYK vs. ORL W 33 12 5 7 71.4 0 0 - 2 6 33.3 3 3 6 0 2 3 2 3 -
p551
aVEddielee Wilkins NYK 12/30/1989 NYK vs. ORL W 18 7 3 7 42.9 0 0 - 1 2 50.0 5 3 8 0 1 0 2 3 -
p552
aVGerald Wilkins NYK 12/30/1989 NYK vs. ORL W 33 8 3 6 50.0 0 0 - 2 4 50.0 1 3 4 6 2 0 2 0 -
p553
aVMark Jackson NYK 12/30/1989 NYK vs. ORL W 34 12 6 13 46.2 0 0 - 0 0 - 4 2 6 13 0 0 2 0 -
p554
aVTrent Tucker NYK 12/30/1989 NYK vs. ORL W 26 21 8 15 53.3 5 9 55.6 0 0 - 2 1 3 3 5 0 1 3 -
p555
aVRod Strickland NYK 12/30/1989 NYK vs. ORL W 21 8 4 8 50.0 0 0 - 0 1 0.0 2 1 3 5 2 0 0 3 -
p556
aVMark Jackson NYK 12/28/1989 NYK @ NJN W 33 18 8 14 57.1 0 1 0.0 2 5 40.0 3 4 7 3 1 0 3 1 -
p557
aVKenny Walker NYK 12/28/1989 NYK @ NJN W 42 10 0 7 0.0 0 0 - 10 10 100.0 4 6 10 2 5 1 2 4 -
p558
aVJohnny Newman NYK 12/28/1989 NYK @ NJN W 28 12 4 9 44.4 1 1 100.0 3 3 100.0 0 2 2 0 0 2 2 2 -
p559
aVPatrick Ewing NYK 12/28/1989 NYK @ NJN W 40 29 11 19 57.9 0 0 - 7 9 77.8 5 11 16 3 2 4 4 5 -
p560
aVGerald Wilkins NYK 12/28/1989 NYK @ NJN W 36 17 5 15 33.3 0 0 - 7 8 87.5 2 2 4 2 2 0 2 4 -
p561
aVTrent Tucker NYK 12/28/1989 NYK @ NJN W 22 5 2 8 25.0 1 4 25.0 0 0 - 1 0 1 3 0 0 1 2 -
p562
aVRod Strickland NYK 12/28/1989 NYK @ NJN W 25 9 2 6 33.3 0 0 - 5 5 100.0 0 1 1 3 1 0 2 1 -
p563
aVEddielee Wilkins NYK 12/28/1989 NYK @ NJN W 14 6 3 6 50.0 0 0 - 0 3 0.0 3 0 3 0 1 0 0 1 -
p564
aVKenny Walker NYK 12/26/1989 NYK @ MIA W 13 4 1 3 33.3 0 0 - 2 2 100.0 2 0 2 0 0 1 1 1 -
p565
aVRod Strickland NYK 12/26/1989 NYK @ MIA W 23 9 4 10 40.0 0 1 0.0 1 2 50.0 1 2 3 2 1 0 4 1 -
p566
aVMark Jackson NYK 12/26/1989 NYK @ MIA W 26 8 4 12 33.3 0 2 0.0 0 0 - 1 2 3 4 1 0 3 3 -
p567
aVEddielee Wilkins NYK 12/26/1989 NYK @ MIA W 15 4 2 3 66.7 0 0 - 0 2 0.0 1 1 2 0 1 0 0 1 -
p568
aVTrent Tucker NYK 12/26/1989 NYK @ MIA W 28 17 7 11 63.6 1 4 25.0 2 2 100.0 3 2 5 2 2 0 1 3 -
p569
aVCharles Oakley NYK 12/26/1989 NYK @ MIA W 34 19 7 13 53.8 0 0 - 5 5 100.0 8 4 12 1 0 0 3 2 -
p570
aVPatrick Ewing NYK 12/26/1989 NYK @ MIA W 36 11 4 18 22.2 0 0 - 3 4 75.0 1 10 11 0 1 6 1 5 -
p571
aVJohnny Newman NYK 12/26/1989 NYK @ MIA W 30 15 5 9 55.6 0 1 0.0 5 7 71.4 0 3 3 0 1 1 5 3 -
p572
aVGerald Wilkins NYK 12/26/1989 NYK @ MIA W 35 13 6 14 42.9 0 1 0.0 1 1 100.0 1 4 5 2 4 1 2 2 -
p573
aVPatrick Ewing NYK 12/23/1989 NYK vs. NJN W 43 22 8 21 38.1 0 1 0.0 6 8 75.0 4 7 11 1 1 2 5 4 -
p574
aVTrent Tucker NYK 12/23/1989 NYK vs. NJN W 25 12 4 10 40.0 2 4 50.0 2 2 100.0 2 3 5 0 1 0 1 2 -
p575
aVGerald Wilkins NYK 12/23/1989 NYK vs. NJN W 23 14 4 9 44.4 0 0 - 6 6 100.0 4 2 6 1 0 0 6 1 -
p576
aVKenny Walker NYK 12/23/1989 NYK vs. NJN W 20 3 0 3 0.0 0 0 - 3 4 75.0 3 2 5 1 0 1 0 0 -
p577
aVPete Myers NYK 12/23/1989 NYK vs. NJN W 15 1 0 2 0.0 0 0 - 1 2 50.0 1 5 6 1 1 0 1 2 -
p578
aVEddielee Wilkins NYK 12/23/1989 NYK vs. NJN W 5 0 0 1 0.0 0 0 - 0 0 - 0 1 1 0 0 1 2 2 -
p579
aVMark Jackson NYK 12/23/1989 NYK vs. NJN W 22 4 2 4 50.0 0 0 - 0 0 - 1 1 2 7 1 1 1 1 -
p580
aVCharles Oakley NYK 12/23/1989 NYK vs. NJN W 31 14 4 10 40.0 0 0 - 6 6 100.0 2 10 12 2 0 0 3 2 -
p581
aVRod Strickland NYK 12/23/1989 NYK vs. NJN W 26 14 6 11 54.5 0 0 - 2 4 50.0 0 2 2 6 3 0 3 1 -
p582
aVJohnny Newman NYK 12/23/1989 NYK vs. NJN W 30 10 4 10 40.0 0 1 0.0 2 2 100.0 1 1 2 1 5 0 1 3 -
p583
aVTrent Tucker NYK 12/22/1989 NYK @ WAS W 19 10 4 9 44.4 0 1 0.0 2 2 100.0 0 1 1 1 3 0 1 3 -
p584
aVGerald Wilkins NYK 12/22/1989 NYK @ WAS W 35 19 8 12 66.7 1 1 100.0 2 3 66.7 1 4 5 1 1 0 3 5 -
p585
aVRod Strickland NYK 12/22/1989 NYK @ WAS W 18 11 4 10 40.0 0 0 - 3 4 75.0 2 2 4 4 1 0 2 4 -
p586
aVKenny Walker NYK 12/22/1989 NYK @ WAS W 17 3 1 2 50.0 0 0 - 1 2 50.0 0 1 1 2 0 1 0 3 -
p587
aVJohnny Newman NYK 12/22/1989 NYK @ WAS W 36 25 9 16 56.3 0 1 0.0 7 7 100.0 1 2 3 4 2 0 3 5 -
p588
aVMark Jackson NYK 12/22/1989 NYK @ WAS W 30 2 0 5 0.0 0 1 0.0 2 2 100.0 0 2 2 8 2 0 0 1 -
p589
aVPatrick Ewing NYK 12/22/1989 NYK @ WAS W 27 22 6 14 42.9 0 0 - 10 11 90.9 0 10 10 0 0 5 3 5 -
p590
aVEddielee Wilkins NYK 12/22/1989 NYK @ WAS W 17 12 5 7 71.4 0 0 - 2 3 66.7 2 4 6 0 0 0 2 3 -
p591
aVCharles Oakley NYK 12/22/1989 NYK @ WAS W 41 18 7 12 58.3 0 0 - 4 5 80.0 1 10 11 4 2 3 4 4 -
p592
aVGerald Wilkins NYK 12/19/1989 NYK vs. UTH W 39 25 10 15 66.7 1 2 50.0 4 5 80.0 1 5 6 5 0 0 2 3 -
p593
aVPatrick Ewing NYK 12/19/1989 NYK vs. UTH W 43 41 17 27 63.0 0 0 - 7 9 77.8 7 8 15 1 0 4 2 2 -
p594
aVMark Jackson NYK 12/19/1989 NYK vs. UTH W 34 10 5 13 38.5 0 2 0.0 0 0 - 1 4 5 6 0 0 2 1 -
p595
aVKenny Walker NYK 12/19/1989 NYK vs. UTH W 35 6 3 5 60.0 0 0 - 0 0 - 2 4 6 1 2 0 3 6 -
p596
aVRod Strickland NYK 12/19/1989 NYK vs. UTH W 26 13 5 7 71.4 1 1 100.0 2 2 100.0 0 4 4 8 0 0 0 1 -
p597
aVJohnny Newman NYK 12/19/1989 NYK vs. UTH W 19 4 0 6 0.0 0 4 0.0 4 6 66.7 0 0 0 1 2 0 1 2 -
p598
aVEddielee Wilkins NYK 12/19/1989 NYK vs. UTH W 19 4 1 1 100.0 0 0 - 2 2 100.0 0 2 2 0 1 0 0 4 -
p599
aVTrent Tucker NYK 12/19/1989 NYK vs. UTH W 25 12 4 7 57.1 3 5 60.0 1 4 25.0 0 0 0 3 2 0 1 1 -
p600
aVEddielee Wilkins NYK 12/16/1989 NYK vs. SEA W 17 8 2 9 22.2 0 0 - 4 4 100.0 3 0 3 0 0 0 1 1 -
p601
aVBrian Quinnett NYK 12/16/1989 NYK vs. SEA W 1 0 0 0 - 0 0 - 0 0 - 0 0 0 0 0 0 0 0 -
p602
aVJohnny Newman NYK 12/16/1989 NYK vs. SEA W 19 5 2 4 50.0 0 1 0.0 1 1 100.0 0 2 2 2 1 0 0 1 -
p603
aVGerald Wilkins NYK 12/16/1989 NYK vs. SEA W 30 9 3 7 42.9 0 2 0.0 3 4 75.0 2 4 6 6 1 1 3 1 -
p604
aVPete Myers NYK 12/16/1989 NYK vs. SEA W 2 0 0 1 0.0 0 0 - 0 0 - 0 0 0 0 0 0 0 0 -
p605
aVTrent Tucker NYK 12/16/1989 NYK vs. SEA W 22 7 3 7 42.9 1 4 25.0 0 0 - 0 4 4 3 0 0 2 2 -
p606
aVCharles Oakley NYK 12/16/1989 NYK vs. SEA W 30 11 5 10 50.0 0 0 - 1 2 50.0 0 7 7 1 5 0 5 2 -
p607
aVPatrick Ewing NYK 12/16/1989 NYK vs. SEA W 31 30 13 19 68.4 0 0 - 4 5 80.0 2 12 14 1 1 6 4 4 -
p608
aVKenny Walker NYK 12/16/1989 NYK vs. SEA W 30 22 7 9 77.8 0 0 - 8 9 88.9 4 5 9 0 0 1 0 1 -
p609
aVRod Strickland NYK 12/16/1989 NYK vs. SEA W 23 8 4 8 50.0 0 0 - 0 0 - 0 0 0 7 4 0 2 0 -
p610
aVMark Jackson NYK 12/16/1989 NYK vs. SEA W 35 18 8 11 72.7 0 0 - 2 3 66.7 2 3 5 11 3 0 2 2 -
p611
aVJohnny Newman NYK 12/15/1989 NYK @ ATL W 24 5 2 7 28.6 0 2 0.0 1 2 50.0 0 1 1 1 0 0 1 2 -
p612
aVRod Strickland NYK 12/15/1989 NYK @ ATL W 21 8 4 11 36.4 0 0 - 0 2 0.0 3 3 6 9 0 1 0 1 -
p613
aVEddielee Wilkins NYK 12/15/1989 NYK @ ATL W 11 2 1 3 33.3 0 0 - 0 2 0.0 2 1 3 0 0 0 0 1 -
p614
aVKenny Walker NYK 12/15/1989 NYK @ ATL W 23 12 6 8 75.0 0 0 - 0 2 0.0 3 2 5 0 2 1 1 3 -
p615
aVCharles Oakley NYK 12/15/1989 NYK @ ATL W 42 23 11 17 64.7 0 0 - 1 2 50.0 8 7 15 3 2 1 3 3 -
p616
aVMark Jackson NYK 12/15/1989 NYK @ ATL W 27 4 2 8 25.0 0 1 0.0 0 0 - 1 4 5 8 1 0 0 0 -
p617
aVGerald Wilkins NYK 12/15/1989 NYK @ ATL W 39 29 13 20 65.0 0 1 0.0 3 6 50.0 1 0 1 5 1 0 3 3 -
p618
aVTrent Tucker NYK 12/15/1989 NYK @ ATL W 15 7 2 6 33.3 1 2 50.0 2 3 66.7 0 2 2 1 3 0 0 1 -
p619
aVPatrick Ewing NYK 12/15/1989 NYK @ ATL W 38 23 11 18 61.1 0 0 - 1 1 100.0 3 2 5 4 0 3 2 5 -
p620
aVPatrick Ewing NYK 12/09/1989 NYK vs. BOS W 36 26 8 14 57.1 0 0 - 10 12 83.3 1 7 8 2 2 3 1 2 -
p621
aVRod Strickland NYK 12/09/1989 NYK vs. BOS W 22 7 2 6 33.3 0 1 0.0 3 4 75.0 2 2 4 9 3 0 2 1 -
p622
aVEddielee Wilkins NYK 12/09/1989 NYK vs. BOS W 22 8 4 7 57.1 0 0 - 0 0 - 2 3 5 0 0 1 0 2 -
p623
aVKenny Walker NYK 12/09/1989 NYK vs. BOS W 20 19 7 12 58.3 1 1 100.0 4 5 80.0 6 0 6 0 0 2 1 2 -
p624
aVMark Jackson NYK 12/09/1989 NYK vs. BOS W 22 6 3 6 50.0 0 1 0.0 0 0 - 0 0 0 4 1 0 2 0 -
p625
aVBrian Quinnett NYK 12/09/1989 NYK vs. BOS W 4 0 0 2 0.0 0 1 0.0 0 0 - 0 0 0 0 0 0 0 1 -
p626
aVPete Myers NYK 12/09/1989 NYK vs. BOS W 4 0 0 2 0.0 0 0 - 0 2 0.0 2 0 2 2 0 0 0 1 -
p627
aVGerald Wilkins NYK 12/09/1989 NYK vs. BOS W 29 18 7 12 58.3 0 1 0.0 4 6 66.7 4 5 9 2 2 0 0 1 -
p628
aVJohnny Newman NYK 12/09/1989 NYK vs. BOS W 26 13 4 10 40.0 0 0 - 5 7 71.4 1 1 2 2 0 1 2 1 -
p629
aVTrent Tucker NYK 12/09/1989 NYK vs. BOS W 21 6 2 4 50.0 2 4 50.0 0 0 - 0 1 1 5 0 0 0 4 -
p630
aVCharles Oakley NYK 12/09/1989 NYK vs. BOS W 34 21 8 14 57.1 0 0 - 5 7 71.4 5 12 17 5 3 0 1 3 -
p631
aVEddielee Wilkins NYK 12/06/1989 NYK @ BOS L 6 0 0 1 0.0 0 0 - 0 0 - 0 3 3 0 2 0 0 0 -
p632
aVMark Jackson NYK 12/06/1989 NYK @ BOS L 31 7 2 6 33.3 0 2 0.0 3 6 50.0 0 3 3 6 1 0 2 0 -
p633
aVJohnny Newman NYK 12/06/1989 NYK @ BOS L 41 26 7 14 50.0 4 6 66.7 8 10 80.0 1 2 3 5 3 0 2 3 -
p634
aVTrent Tucker NYK 12/06/1989 NYK @ BOS L 22 2 1 4 25.0 0 1 0.0 0 0 - 0 3 3 4 0 0 2 2 -
p635
aVCharles Oakley NYK 12/06/1989 NYK @ BOS L 39 13 6 11 54.5 0 0 - 1 2 50.0 4 5 9 2 2 2 3 5 -
p636
aVPatrick Ewing NYK 12/06/1989 NYK @ BOS L 42 32 13 25 52.0 0 0 - 6 8 75.0 1 8 9 2 1 3 3 4 -
p637
aVKenny Walker NYK 12/06/1989 NYK @ BOS L 15 7 2 2 100.0 1 1 100.0 2 4 50.0 0 0 0 0 0 0 0 3 -
p638
aVPete Myers NYK 12/06/1989 NYK @ BOS L 2 0 0 0 - 0 0 - 0 2 0.0 0 0 0 0 0 0 0 1 -
p639
aVRod Strickland NYK 12/06/1989 NYK @ BOS L 23 11 4 7 57.1 0 0 - 3 6 50.0 0 4 4 4 2 0 1 1 -
p640
aVGerald Wilkins NYK 12/06/1989 NYK @ BOS L 18 0 0 2 0.0 0 0 - 0 0 - 1 1 2 5 1 0 2 2 -
p641
aVBrian Quinnett NYK 12/06/1989 NYK @ BOS L 1 0 0 1 0.0 0 0 - 0 0 - 0 0 0 0 0 0 0 0 -
p642
aVJohnny Newman NYK 12/05/1989 NYK vs. PHL W 35 11 5 13 38.5 0 4 0.0 1 3 33.3 2 0 2 7 0 0 0 1 -
p643
aVPatrick Ewing NYK 12/05/1989 NYK vs. PHL W 39 32 14 22 63.6 0 0 - 4 5 80.0 4 8 12 2 0 4 5 4 -
p644
aVCharles Oakley NYK 12/05/1989 NYK vs. PHL W 27 16 6 14 42.9 0 0 - 4 4 100.0 6 8 14 1 0 0 1 3 -
p645
aVTrent Tucker NYK 12/05/1989 NYK vs. PHL W 20 17 7 9 77.8 3 3 100.0 0 1 0.0 0 2 2 1 2 0 0 2 -
p646
aVEddielee Wilkins NYK 12/05/1989 NYK vs. PHL W 9 2 1 3 33.3 0 0 - 0 0 - 0 0 0 0 0 0 1 2 -
p647
aVGerald Wilkins NYK 12/05/1989 NYK vs. PHL W 32 6 3 7 42.9 0 1 0.0 0 0 - 2 3 5 8 4 0 3 4 -
p648
aVRod Strickland NYK 12/05/1989 NYK vs. PHL W 21 10 5 10 50.0 0 0 - 0 0 - 2 1 3 2 1 0 2 2 -
p649
aVKenny Walker NYK 12/05/1989 NYK vs. PHL W 21 6 3 5 60.0 0 0 - 0 0 - 0 5 5 3 0 0 2 2 -
p650
aVMark Jackson NYK 12/05/1989 NYK vs. PHL W 36 10 5 12 41.7 0 1 0.0 0 0 - 1 5 6 8 0 0 4 4 -
p651
aVTrent Tucker NYK 12/03/1989 NYK @ LAL L 18 2 1 8 12.5 0 4 0.0 0 0 - 0 2 2 6 0 0 0 4 -
p652
aVPatrick Ewing NYK 12/03/1989 NYK @ LAL L 30 29 10 17 58.8 0 0 - 9 9 100.0 4 3 7 1 1 3 5 5 -
p653
aVRod Strickland NYK 12/03/1989 NYK @ LAL L 18 7 3 6 50.0 1 1 100.0 0 0 - 0 0 0 7 1 0 0 0 -
p654
aVMark Jackson NYK 12/03/1989 NYK @ LAL L 30 8 3 14 21.4 1 4 25.0 1 1 100.0 0 2 2 11 3 0 4 1 -
p655
aVGerald Wilkins NYK 12/03/1989 NYK @ LAL L 32 11 5 13 38.5 0 2 0.0 1 2 50.0 3 3 6 3 2 1 4 2 -
p656
aVKenny Walker NYK 12/03/1989 NYK @ LAL L 24 16 5 8 62.5 0 0 - 6 6 100.0 4 7 11 0 0 1 0 3 -
p657
aVCharles Oakley NYK 12/03/1989 NYK @ LAL L 43 14 5 11 45.5 0 0 - 4 6 66.7 4 4 8 1 3 0 0 6 -
p658
aVEddielee Wilkins NYK 12/03/1989 NYK @ LAL L 14 8 4 6 66.7 0 0 - 0 2 0.0 1 1 2 0 0 1 1 1 -
p659
aVJohnny Newman NYK 12/03/1989 NYK @ LAL L 31 9 3 9 33.3 1 1 100.0 2 2 100.0 1 0 1 2 2 0 1 2 -
p660
aVRod Strickland NYK 12/02/1989 NYK @ PHX W 27 19 7 14 50.0 0 0 - 5 7 71.4 1 1 2 9 3 0 3 5 -
p661
aVPatrick Ewing NYK 12/02/1989 NYK @ PHX W 37 41 15 20 75.0 0 0 - 11 13 84.6 2 6 8 4 0 5 2 4 -
p662
aVTrent Tucker NYK 12/02/1989 NYK @ PHX W 27 18 6 9 66.7 2 4 50.0 4 5 80.0 3 2 5 2 2 0 1 0 -
p663
aVJohnny Newman NYK 12/02/1989 NYK @ PHX W 24 10 3 7 42.9 1 3 33.3 3 3 100.0 1 4 5 2 1 0 2 2 -
p664
aVGerald Wilkins NYK 12/02/1989 NYK @ PHX W 32 11 5 9 55.6 1 1 100.0 0 0 - 1 3 4 6 3 0 5 2 -
p665
aVEddielee Wilkins NYK 12/02/1989 NYK @ PHX W 12 0 0 1 0.0 0 0 - 0 0 - 1 1 2 0 0 0 0 3 -
p666
aVCharles Oakley NYK 12/02/1989 NYK @ PHX W 35 18 8 15 53.3 0 0 - 2 3 66.7 2 6 8 3 1 0 0 6 -
p667
aVMark Jackson NYK 12/02/1989 NYK @ PHX W 34 2 0 9 0.0 0 1 0.0 2 2 100.0 2 2 4 8 2 0 1 1 -
p668
aVKenny Walker NYK 12/02/1989 NYK @ PHX W 12 3 1 1 100.0 0 0 - 1 2 50.0 0 0 0 1 0 0 0 2 -
p669
aVPatrick Ewing NYK 11/30/1989 NYK @ SEA L 33 27 11 18 61.1 0 0 - 5 5 100.0 9 3 12 1 2 1 5 4 -
p670
aVTrent Tucker NYK 11/30/1989 NYK @ SEA L 23 8 2 7 28.6 2 4 50.0 2 2 100.0 1 1 2 2 0 0 1 1 -
p671
aVRod Strickland NYK 11/30/1989 NYK @ SEA L 22 4 2 8 25.0 0 0 - 0 0 - 0 2 2 5 2 0 1 1 -
p672
aVGerald Wilkins NYK 11/30/1989 NYK @ SEA L 31 7 3 8 37.5 1 2 50.0 0 0 - 1 1 2 6 0 0 3 3 -
p673
aVMark Jackson NYK 11/30/1989 NYK @ SEA L 33 13 6 12 50.0 1 5 20.0 0 0 - 1 3 4 4 1 0 1 0 -
p674
aVJohnny Newman NYK 11/30/1989 NYK @ SEA L 34 30 10 13 76.9 2 4 50.0 8 8 100.0 0 1 1 5 1 2 1 6 -
p675
aVKenny Walker NYK 11/30/1989 NYK @ SEA L 25 8 4 6 66.7 0 0 - 0 0 - 1 6 7 0 1 1 2 1 -
p676
aVEddielee Wilkins NYK 11/30/1989 NYK @ SEA L 16 13 5 7 71.4 0 0 - 3 4 75.0 2 2 4 0 0 1 0 2 -
p677
aVCharles Oakley NYK 11/30/1989 NYK @ SEA L 23 12 3 11 27.3 0 0 - 6 8 75.0 2 1 3 1 1 0 1 3 -
p678
aVCharles Oakley NYK 11/29/1989 NYK @ GOS W 30 17 5 8 62.5 0 0 - 7 8 87.5 3 5 8 1 2 1 2 5 -
p679
aVKenny Walker NYK 11/29/1989 NYK @ GOS W 18 6 2 3 66.7 0 0 - 2 2 100.0 2 2 4 0 0 0 3 4 -
p680
aVPatrick Ewing NYK 11/29/1989 NYK @ GOS W 39 44 17 27 63.0 0 0 - 10 15 66.7 10 14 24 4 1 3 4 4 -
p681
aVPete Myers NYK 11/29/1989 NYK @ GOS W 1 0 0 0 - 0 0 - 0 0 - 0 0 0 0 0 0 0 0 -
p682
aVGerald Wilkins NYK 11/29/1989 NYK @ GOS W 40 9 3 11 27.3 1 2 50.0 2 2 100.0 2 6 8 3 1 0 1 2 -
p683
aVMark Jackson NYK 11/29/1989 NYK @ GOS W 38 19 7 19 36.8 3 7 42.9 2 2 100.0 2 1 3 8 3 0 5 0 -
p684
aVJohnny Newman NYK 11/29/1989 NYK @ GOS W 11 3 1 4 25.0 1 2 50.0 0 0 - 0 0 0 0 0 0 1 4 -
p685
aVEddielee Wilkins NYK 11/29/1989 NYK @ GOS W 6 6 2 3 66.7 0 0 - 2 2 100.0 1 2 3 0 0 0 0 2 -
p686
aVRod Strickland NYK 11/29/1989 NYK @ GOS W 26 14 5 13 38.5 1 2 50.0 3 4 75.0 4 2 6 7 3 0 0 0 -
p687
aVTrent Tucker NYK 11/29/1989 NYK @ GOS W 31 11 4 11 36.4 3 5 60.0 0 0 - 0 4 4 3 1 0 0 4 -
p688
aVMark Jackson NYK 11/27/1989 NYK vs. CHH W 28 8 3 8 37.5 0 2 0.0 2 2 100.0 2 3 5 8 2 0 4 0 -
p689
aVKenny Walker NYK 11/27/1989 NYK vs. CHH W 20 10 3 3 100.0 0 0 - 4 4 100.0 1 3 4 1 0 0 1 3 -
p690
aVPete Myers NYK 11/27/1989 NYK vs. CHH W 3 1 0 0 - 0 0 - 1 2 50.0 0 0 0 1 0 0 0 0 -
p691
aVGerald Wilkins NYK 11/27/1989 NYK vs. CHH W 32 13 4 9 44.4 1 1 100.0 4 4 100.0 1 3 4 5 0 0 5 2 -
p692
aVTrent Tucker NYK 11/27/1989 NYK vs. CHH W 22 9 4 8 50.0 0 1 0.0 1 1 100.0 0 4 4 1 0 1 3 2 -
p693
aVRod Strickland NYK 11/27/1989 NYK vs. CHH W 23 10 5 7 71.4 0 0 - 0 0 - 0 0 0 5 1 0 0 1 -
p694
aVBrian Quinnett NYK 11/27/1989 NYK vs. CHH W 1 2 1 2 50.0 0 0 - 0 0 - 0 0 0 0 0 0 0 0 -
p695
aVPatrick Ewing NYK 11/27/1989 NYK vs. CHH W 30 23 10 22 45.5 0 0 - 3 4 75.0 3 8 11 1 0 4 3 4 -
p696
aVEddielee Wilkins NYK 11/27/1989 NYK vs. CHH W 14 4 2 7 28.6 0 0 - 0 0 - 3 3 6 0 0 0 1 1 -
p697
aVCharles Oakley NYK 11/27/1989 NYK vs. CHH W 32 16 6 10 60.0 0 0 - 4 5 80.0 5 10 15 4 1 0 3 5 -
p698
aVJohnny Newman NYK 11/27/1989 NYK vs. CHH W 35 23 7 13 53.8 1 1 100.0 8 9 88.9 3 1 4 3 0 0 2 3 -
p699
aVJohnny Newman NYK 11/25/1989 NYK vs. MIL W 31 17 4 7 57.1 0 0 - 9 11 81.8 1 2 3 3 2 1 2 4 -
p700
aVGreg Butler NYK 11/25/1989 NYK vs. MIL W 2 0 0 0 - 0 0 - 0 0 - 0 0 0 1 0 0 0 0 -
p701
aVKenny Walker NYK 11/25/1989 NYK vs. MIL W 25 9 3 6 50.0 0 0 - 3 3 100.0 0 8 8 1 1 3 3 3 -
p702
aVRod Strickland NYK 11/25/1989 NYK vs. MIL W 27 18 5 12 41.7 0 2 0.0 8 8 100.0 1 2 3 8 5 0 1 1 -
p703
aVGerald Wilkins NYK 11/25/1989 NYK vs. MIL W 28 23 9 14 64.3 1 2 50.0 4 4 100.0 1 3 4 4 0 0 2 2 -
p704
aVCharles Oakley NYK 11/25/1989 NYK vs. MIL W 23 16 6 7 85.7 0 0 - 4 5 80.0 3 4 7 1 1 0 2 3 -
p705
aVPete Myers NYK 11/25/1989 NYK vs. MIL W 6 1 0 3 0.0 0 0 - 1 2 50.0 2 0 2 1 0 0 3 3 -
p706
aVTrent Tucker NYK 11/25/1989 NYK vs. MIL W 18 7 2 4 50.0 1 1 100.0 2 2 100.0 0 1 1 1 0 0 1 1 -
p707
aVMark Jackson NYK 11/25/1989 NYK vs. MIL W 34 7 3 7 42.9 0 1 0.0 1 2 50.0 0 1 1 12 2 1 1 1 -
p708
aVBrian Quinnett NYK 11/25/1989 NYK vs. MIL W 2 2 1 2 50.0 0 0 - 0 0 - 0 0 0 0 0 0 0 0 -
p709
aVEddielee Wilkins NYK 11/25/1989 NYK vs. MIL W 16 7 2 6 33.3 0 0 - 3 5 60.0 2 3 5 0 0 0 3 3 -
p710
aVPatrick Ewing NYK 11/25/1989 NYK vs. MIL W 28 18 6 11 54.5 0 0 - 6 6 100.0 3 10 13 1 0 2 4 3 -
p711
aVRod Strickland NYK 11/22/1989 NYK @ CLE L 23 9 3 9 33.3 1 2 50.0 2 2 100.0 0 4 4 5 0 0 2 3 -
p712
aVBrian Quinnett NYK 11/22/1989 NYK @ CLE L 3 0 0 1 0.0 0 0 - 0 0 - 0 0 0 0 0 0 0 0 -
p713
aVTrent Tucker NYK 11/22/1989 NYK @ CLE L 23 8 3 7 42.9 1 2 50.0 1 1 100.0 0 3 3 1 0 0 1 1 -
p714
aVJohnny Newman NYK 11/22/1989 NYK @ CLE L 35 17 7 10 70.0 1 3 33.3 2 2 100.0 0 4 4 1 0 2 3 5 -
p715
aVMark Jackson NYK 11/22/1989 NYK @ CLE L 28 3 1 7 14.3 0 3 0.0 1 2 50.0 1 0 1 5 2 0 1 1 -
p716
aVEddielee Wilkins NYK 11/22/1989 NYK @ CLE L 13 2 1 3 33.3 0 0 - 0 0 - 1 1 2 0 0 0 0 6 -
p717
aVGerald Wilkins NYK 11/22/1989 NYK @ CLE L 30 14 5 13 38.5 2 2 100.0 2 4 50.0 3 2 5 5 1 0 2 2 -
p718
aVKenny Walker NYK 11/22/1989 NYK @ CLE L 18 4 2 2 100.0 0 0 - 0 0 - 1 4 5 1 0 1 1 1 -
p719
aVPatrick Ewing NYK 11/22/1989 NYK @ CLE L 35 24 11 20 55.0 0 0 - 2 4 50.0 0 3 3 0 0 1 4 4 -
p720
aVCharles Oakley NYK 11/22/1989 NYK @ CLE L 32 4 1 9 11.1 0 1 0.0 2 2 100.0 5 10 15 0 0 0 3 4 -
p721
aVRod Strickland NYK 11/21/1989 NYK vs. HOU W 27 11 3 10 30.0 0 1 0.0 5 7 71.4 1 2 3 5 4 0 3 2 -
p722
aVPatrick Ewing NYK 11/21/1989 NYK vs. HOU W 45 33 12 29 41.4 0 0 - 9 10 90.0 3 6 9 2 1 2 4 4 -
p723
aVGerald Wilkins NYK 11/21/1989 NYK vs. HOU W 32 14 6 13 46.2 0 1 0.0 2 2 100.0 2 3 5 3 0 0 1 3 -
p724
aVJohnny Newman NYK 11/21/1989 NYK vs. HOU W 38 14 5 9 55.6 0 1 0.0 4 6 66.7 1 3 4 1 0 0 3 1 -
p725
aVMark Jackson NYK 11/21/1989 NYK vs. HOU W 27 10 4 8 50.0 1 1 100.0 1 1 100.0 0 4 4 5 3 0 6 0 -
p726
aVKenny Walker NYK 11/21/1989 NYK vs. HOU W 11 5 1 3 33.3 0 0 - 3 4 75.0 0 1 1 1 1 0 1 0 -
p727
aVTrent Tucker NYK 11/21/1989 NYK vs. HOU W 24 7 2 5 40.0 1 2 50.0 2 2 100.0 2 1 3 3 0 0 0 1 -
p728
aVEddielee Wilkins NYK 11/21/1989 NYK vs. HOU W 14 5 1 2 50.0 0 0 - 3 6 50.0 3 3 6 0 1 1 0 1 -
p729
aVCharles Oakley NYK 11/21/1989 NYK vs. HOU W 47 15 4 15 26.7 0 0 - 7 7 100.0 7 9 16 5 3 0 3 3 -
p730
aVRod Strickland NYK 11/18/1989 NYK vs. MIN W 28 10 5 9 55.6 0 0 - 0 0 - 0 0 0 5 1 1 0 0 -
p731
aVEddielee Wilkins NYK 11/18/1989 NYK vs. MIN W 7 0 0 1 0.0 0 0 - 0 0 - 0 1 1 0 0 0 0 1 -
p732
aVMark Jackson NYK 11/18/1989 NYK vs. MIN W 31 2 0 3 0.0 0 1 0.0 2 4 50.0 2 3 5 9 1 0 2 2 -
p733
aVJohnny Newman NYK 11/18/1989 NYK vs. MIN W 14 4 2 2 100.0 0 0 - 0 0 - 0 0 0 2 1 0 1 5 -
p734
aVCharles Oakley NYK 11/18/1989 NYK vs. MIN W 40 21 10 14 71.4 0 0 - 1 4 25.0 2 11 13 3 1 0 4 4 -
p735
aVTrent Tucker NYK 11/18/1989 NYK vs. MIN W 20 13 5 7 71.4 3 3 100.0 0 0 - 1 1 2 4 2 0 0 3 -
p736
aVKenny Walker NYK 11/18/1989 NYK vs. MIN W 21 10 4 7 57.1 0 0 - 2 4 50.0 1 1 2 0 0 0 0 1 -
p737
aVPatrick Ewing NYK 11/18/1989 NYK vs. MIN W 41 26 7 14 50.0 0 0 - 12 12 100.0 2 10 12 6 0 6 6 4 -
p738
aVGerald Wilkins NYK 11/18/1989 NYK vs. MIN W 38 25 11 18 61.1 1 2 50.0 2 2 100.0 1 3 4 2 2 2 0 2 -
p739
aVKenny Walker NYK 11/16/1989 NYK @ SAC W 16 5 2 6 33.3 0 0 - 1 2 50.0 1 5 6 0 0 1 0 4 -
p740
aVMark Jackson NYK 11/16/1989 NYK @ SAC W 32 11 4 12 33.3 3 5 60.0 0 0 - 1 2 3 9 1 0 3 1 -
p741
aVBrian Quinnett NYK 11/16/1989 NYK @ SAC W 2 0 0 1 0.0 0 0 - 0 0 - 1 0 1 0 0 0 1 0 -
p742
aVGerald Wilkins NYK 11/16/1989 NYK @ SAC W 35 25 10 19 52.6 1 2 50.0 4 5 80.0 5 4 9 6 2 0 1 3 -
p743
aVEddielee Wilkins NYK 11/16/1989 NYK @ SAC W 12 4 2 4 50.0 0 0 - 0 0 - 1 1 2 0 1 0 3 1 -
p744
aVTrent Tucker NYK 11/16/1989 NYK @ SAC W 15 6 2 4 50.0 2 2 100.0 0 0 - 0 0 0 1 0 1 1 2 -
p745
aVRod Strickland NYK 11/16/1989 NYK @ SAC W 20 10 4 7 57.1 0 0 - 2 2 100.0 2 2 4 8 1 0 4 0 -
p746
aVPatrick Ewing NYK 11/16/1989 NYK @ SAC W 36 32 15 26 57.7 0 0 - 2 2 100.0 4 7 11 0 1 3 2 3 -
p747
aVCharles Oakley NYK 11/16/1989 NYK @ SAC W 35 14 7 10 70.0 0 0 - 0 0 - 4 13 17 2 1 0 4 3 -
p748
aVJohnny Newman NYK 11/16/1989 NYK @ SAC W 37 14 5 15 33.3 1 3 33.3 3 3 100.0 2 0 2 2 3 0 1 3 -
p749
aVEddielee Wilkins NYK 11/14/1989 NYK @ POR L 9 8 4 6 66.7 0 0 - 0 0 - 3 1 4 0 0 0 1 2 -
p750
aVTrent Tucker NYK 11/14/1989 NYK @ POR L 18 7 3 7 42.9 1 3 33.3 0 0 - 3 3 6 2 0 0 2 2 -
p751
aVCharles Oakley NYK 11/14/1989 NYK @ POR L 44 12 5 10 50.0 0 0 - 2 3 66.7 6 6 12 2 1 1 3 3 -
p752
aVKenny Walker NYK 11/14/1989 NYK @ POR L 22 12 5 9 55.6 0 0 - 2 4 50.0 0 1 1 1 0 0 0 4 -
p753
aVPatrick Ewing NYK 11/14/1989 NYK @ POR L 41 43 14 20 70.0 0 0 - 15 20 75.0 0 9 9 3 1 3 3 5 -
p754
aVMark Jackson NYK 11/14/1989 NYK @ POR L 38 12 5 10 50.0 1 2 50.0 1 2 50.0 2 4 6 7 0 0 2 2 -
p755
aVRod Strickland NYK 11/14/1989 NYK @ POR L 10 1 0 4 0.0 0 0 - 1 2 50.0 0 2 2 1 1 0 1 3 -
p756
aVJohnny Newman NYK 11/14/1989 NYK @ POR L 27 8 2 9 22.2 1 2 50.0 3 3 100.0 0 1 1 3 0 0 2 5 -
p757
aVGerald Wilkins NYK 11/14/1989 NYK @ POR L 31 14 6 11 54.5 1 3 33.3 1 2 50.0 1 3 4 4 2 1 5 1 -
p758
aVCharles Oakley NYK 11/11/1989 NYK @ LAC W 42 14 5 10 50.0 0 0 - 4 7 57.1 5 7 12 3 2 0 2 4 -
p759
aVTrent Tucker NYK 11/11/1989 NYK @ LAC W 21 8 3 6 50.0 2 4 50.0 0 2 0.0 0 0 0 1 0 0 2 3 -
p760
aVJohnny Newman NYK 11/11/1989 NYK @ LAC W 21 6 2 6 33.3 0 0 - 2 4 50.0 0 0 0 2 0 1 2 4 -
p761
aVEddielee Wilkins NYK 11/11/1989 NYK @ LAC W 16 8 3 4 75.0 0 0 - 2 5 40.0 3 2 5 0 0 0 1 3 -
p762
aVMark Jackson NYK 11/11/1989 NYK @ LAC W 28 25 8 17 47.1 3 6 50.0 6 7 85.7 4 4 8 3 3 0 8 2 -
p763
aVKenny Walker NYK 11/11/1989 NYK @ LAC W 29 6 2 2 100.0 0 0 - 2 2 100.0 2 2 4 1 1 0 1 3 -
p764
aVRod Strickland NYK 11/11/1989 NYK @ LAC W 16 8 4 7 57.1 0 0 - 0 2 0.0 1 0 1 1 0 0 4 3 -
p765
aVPatrick Ewing NYK 11/11/1989 NYK @ LAC W 34 20 8 13 61.5 0 0 - 4 5 80.0 1 10 11 1 1 8 2 6 -
p766
aVGerald Wilkins NYK 11/11/1989 NYK @ LAC W 33 17 7 14 50.0 0 1 0.0 3 4 75.0 2 2 4 8 1 0 4 4 -
p767
aVCharles Oakley NYK 11/09/1989 NYK vs. NJN W 34 22 6 9 66.7 0 0 - 10 15 66.7 7 11 18 0 3 1 4 4 -
p768
aVGerald Wilkins NYK 11/09/1989 NYK vs. NJN W 37 17 7 10 70.0 0 0 - 3 4 75.0 0 0 0 2 0 0 2 1 -
p769
aVPatrick Ewing NYK 11/09/1989 NYK vs. NJN W 34 20 8 23 34.8 0 0 - 4 5 80.0 1 4 5 1 2 5 3 3 -
p770
aVMark Jackson NYK 11/09/1989 NYK vs. NJN W 35 7 3 10 30.0 0 1 0.0 1 2 50.0 1 5 6 11 2 0 5 2 -
p771
aVJohnny Newman NYK 11/09/1989 NYK vs. NJN W 34 11 3 7 42.9 1 3 33.3 4 6 66.7 1 2 3 3 1 0 2 4 -
p772
aVRod Strickland NYK 11/09/1989 NYK vs. NJN W 13 6 2 11 18.2 0 0 - 2 2 100.0 3 2 5 5 2 0 1 1 -
p773
aVTrent Tucker NYK 11/09/1989 NYK vs. NJN W 18 8 3 6 50.0 2 3 66.7 0 0 - 2 1 3 0 0 0 1 1 -
p774
aVKenny Walker NYK 11/09/1989 NYK vs. NJN W 21 8 3 7 42.9 0 0 - 2 3 66.7 0 5 5 0 1 1 1 2 -
p775
aVEddielee Wilkins NYK 11/09/1989 NYK vs. NJN W 14 8 2 5 40.0 0 0 - 4 4 100.0 1 1 2 0 0 0 1 4 -
p776
aVGerald Wilkins NYK 11/06/1989 NYK @ ORL L 38 21 10 19 52.6 1 4 25.0 0 0 - 1 4 5 4 4 0 4 5 -
p777
aVCharles Oakley NYK 11/06/1989 NYK @ ORL L 40 16 6 13 46.2 0 0 - 4 4 100.0 6 6 12 1 1 0 1 3 -
p778
aVMark Jackson NYK 11/06/1989 NYK @ ORL L 37 17 5 15 33.3 0 2 0.0 7 9 77.8 1 4 5 8 4 0 3 5 -
p779
aVJohnny Newman NYK 11/06/1989 NYK @ ORL L 36 19 8 17 47.1 2 3 66.7 1 2 50.0 3 4 7 5 1 0 3 5 -
p780
aVRod Strickland NYK 11/06/1989 NYK @ ORL L 9 4 2 4 50.0 0 1 0.0 0 0 - 1 0 1 2 0 0 0 0 -
p781
aVKenny Walker NYK 11/06/1989 NYK @ ORL L 11 4 2 4 50.0 0 0 - 0 0 - 1 1 2 0 1 1 0 1 -
p782
aVGreg Butler NYK 11/06/1989 NYK @ ORL L 8 0 0 2 0.0 0 0 - 0 0 - 0 0 0 0 0 0 0 0 -
p783
aVPatrick Ewing NYK 11/06/1989 NYK @ ORL L 40 29 13 23 56.5 0 0 - 3 4 75.0 1 7 8 2 1 1 4 5 -
p784
aVTrent Tucker NYK 11/06/1989 NYK @ ORL L 19 0 0 7 0.0 0 3 0.0 0 0 - 0 0 0 3 1 0 0 0 -
p785
aVPete Myers NYK 11/06/1989 NYK @ ORL L 2 0 0 1 0.0 0 0 - 0 0 - 0 0 0 0 0 0 1 1 -
p786
aVPatrick Ewing NYK 11/04/1989 NYK vs. MIA W 37 35 13 24 54.2 0 0 - 9 9 100.0 3 3 6 6 3 5 2 2 -
p787
aVTrent Tucker NYK 11/04/1989 NYK vs. MIA W 26 10 4 12 33.3 2 6 33.3 0 0 - 2 2 4 3 2 0 0 3 -
p788
aVKenny Walker NYK 11/04/1989 NYK vs. MIA W 18 9 4 9 44.4 0 1 0.0 1 1 100.0 3 1 4 0 0 1 0 4 -
p789
aVJohnny Newman NYK 11/04/1989 NYK vs. MIA W 41 20 5 10 50.0 1 4 25.0 9 11 81.8 1 6 7 4 3 0 6 3 -
p790
aVGerald Wilkins NYK 11/04/1989 NYK vs. MIA W 22 9 3 5 60.0 0 0 - 3 4 75.0 1 2 3 0 2 0 4 2 -
p791
aVMark Jackson NYK 11/04/1989 NYK vs. MIA W 34 14 5 12 41.7 0 1 0.0 4 4 100.0 2 2 4 10 2 0 4 2 -
p792
aVGreg Butler NYK 11/04/1989 NYK vs. MIA W 2 0 0 0 - 0 0 - 0 0 - 1 0 1 0 0 0 2 0 -
p793
aVPete Myers NYK 11/04/1989 NYK vs. MIA W 2 2 1 1 100.0 0 0 - 0 0 - 0 0 0 1 0 0 0 0 -
p794
aVRod Strickland NYK 11/04/1989 NYK vs. MIA W 12 2 0 4 0.0 0 0 - 2 2 100.0 0 1 1 1 0 0 0 2 -
p795
aVBrian Quinnett NYK 11/04/1989 NYK vs. MIA W 2 0 0 1 0.0 0 0 - 0 0 - 0 0 0 0 0 0 0 0 -
p796
aVEddielee Wilkins NYK 11/04/1989 NYK vs. MIA W 9 0 0 1 0.0 0 0 - 0 0 - 0 0 0 0 0 0 2 1 -
p797
aVCharles Oakley NYK 11/04/1989 NYK vs. MIA W 35 18 7 9 77.8 0 0 - 4 4 100.0 5 12 17 1 0 0 6 3 -
p798
aVJohnny Newman NYK 11/03/1989 NYK @ DET L 30 16 4 11 36.4 1 3 33.3 7 10 70.0 2 3 5 3 4 0 4 5 -
p799
aVTrent Tucker NYK 11/03/1989 NYK @ DET L 25 7 3 8 37.5 0 2 0.0 1 3 33.3 1 1 2 5 1 0 2 1 -
p800
aVEddielee Wilkins NYK 11/03/1989 NYK @ DET L 19 12 6 9 66.7 0 0 - 0 1 0.0 2 1 3 0 0 0 2 2 -
p801
aVPatrick Ewing NYK 11/03/1989 NYK @ DET L 29 23 10 16 62.5 0 0 - 3 4 75.0 2 6 8 2 0 3 4 6 -
p802
aVRod Strickland NYK 11/03/1989 NYK @ DET L 14 7 3 6 50.0 1 2 50.0 0 0 - 0 0 0 1 2 0 2 1 -
p803
aVGerald Wilkins NYK 11/03/1989 NYK @ DET L 34 2 1 5 20.0 0 0 - 0 0 - 1 2 3 1 2 0 0 5 -
p804
aVCharles Oakley NYK 11/03/1989 NYK @ DET L 38 13 5 12 41.7 0 0 - 3 4 75.0 2 9 11 2 0 1 3 2 -
p805
aVMark Jackson NYK 11/03/1989 NYK @ DET L 36 21 8 13 61.5 1 3 33.3 4 4 100.0 2 2 4 9 3 0 3 2 -
p806
aVKenny Walker NYK 11/03/1989 NYK @ DET L 15 2 1 3 33.3 0 0 - 0 0 - 1 1 2 0 0 1 0 2 -
p807
a.