(lp0
VPLAYER TEAM DATE MATCHUP W/L MIN PTS FGM FGA FG% 3PM 3PA 3P% FTM FTA FT% OREB DREB REB AST STL BLK TOV PF +/-
p1
aVOrlando Woolridge LAL 05/15/1990 LAL vs. PHX L 21 7 2 4 50.0 0 0 - 3 4 75.0 0 0 0 2 1 3 0 3 -
p2
aVByron Scott LAL 05/15/1990 LAL vs. PHX L 39 17 6 13 46.2 3 8 37.5 2 2 100.0 0 2 2 3 1 0 2 4 -
p3
aVJames Worthy LAL 05/15/1990 LAL vs. PHX L 42 14 5 19 26.3 0 0 - 4 4 100.0 2 4 6 1 1 0 5 3 -
p4
aVMichael Cooper LAL 05/15/1990 LAL vs. PHX L 31 5 2 6 33.3 1 2 50.0 0 0 - 1 2 3 6 3 0 1 3 -
p5
aVVlade Divac LAL 05/15/1990 LAL vs. PHX L 30 10 5 7 71.4 0 0 - 0 0 - 2 6 8 1 3 0 1 6 -
p6
aVA.C. Green LAL 05/15/1990 LAL vs. PHX L 16 0 0 2 0.0 0 0 - 0 0 - 1 4 5 1 0 0 1 3 -
p7
aVLarry Drew LAL 05/15/1990 LAL vs. PHX L 5 2 1 1 100.0 0 0 - 0 0 - 0 0 0 0 0 0 2 0 -
p8
aVMychal Thompson LAL 05/15/1990 LAL vs. PHX L 12 5 2 4 50.0 0 0 - 1 2 50.0 3 3 6 0 0 0 0 4 -
p9
aVMagic Johnson LAL 05/15/1990 LAL vs. PHX L 44 43 15 26 57.7 0 2 0.0 13 16 81.3 2 6 8 7 0 0 6 4 -
p10
aVJay Vincent LAL 05/13/1990 LAL @ PHX L 1 0 0 1 0.0 0 0 - 0 0 - 0 0 0 0 0 0 1 0 -
p11
aVMagic Johnson LAL 05/13/1990 LAL @ PHX L 45 43 15 26 57.7 1 3 33.3 12 12 100.0 3 3 6 10 2 0 3 3 -
p12
aVA.C. Green LAL 05/13/1990 LAL @ PHX L 38 14 4 9 44.4 0 0 - 6 9 66.7 10 8 18 0 2 0 2 2 -
p13
aVMel McCants LAL 05/13/1990 LAL @ PHX L 1 0 0 0 - 0 0 - 0 0 - 0 0 0 0 0 0 0 0 -
p14
aVMark McNamara LAL 05/13/1990 LAL @ PHX L 1 0 0 0 - 0 0 - 0 0 - 0 1 1 0 0 0 0 1 -
p15
aVJames Worthy LAL 05/13/1990 LAL @ PHX L 41 16 5 21 23.8 0 0 - 6 7 85.7 3 4 7 3 0 0 1 3 -
p16
aVMychal Thompson LAL 05/13/1990 LAL @ PHX L 22 5 2 5 40.0 0 0 - 1 2 50.0 1 2 3 0 1 1 2 1 -
p17
aVOrlando Woolridge LAL 05/13/1990 LAL @ PHX L 20 7 2 6 33.3 0 0 - 3 3 100.0 2 1 3 0 0 2 1 6 -
p18
aVByron Scott LAL 05/13/1990 LAL @ PHX L 32 4 2 8 25.0 0 3 0.0 0 0 - 1 2 3 3 3 0 2 6 -
p19
aVLarry Drew LAL 05/13/1990 LAL @ PHX L 11 0 0 3 0.0 0 2 0.0 0 0 - 0 1 1 0 0 0 1 3 -
p20
aVMichael Cooper LAL 05/13/1990 LAL @ PHX L 21 10 4 5 80.0 2 3 66.7 0 0 - 0 2 2 0 0 0 2 5 -
p21
aVVlade Divac LAL 05/13/1990 LAL @ PHX L 7 2 1 2 50.0 0 0 - 0 0 - 1 2 3 0 0 0 2 1 -
p22
aVMichael Cooper LAL 05/12/1990 LAL @ PHX L 26 6 3 6 50.0 0 0 - 0 0 - 2 1 3 5 1 0 0 3 -
p23
aVOrlando Woolridge LAL 05/12/1990 LAL @ PHX L 21 12 5 10 50.0 0 0 - 2 5 40.0 1 0 1 0 1 1 1 3 -
p24
aVJames Worthy LAL 05/12/1990 LAL @ PHX L 36 27 10 18 55.6 0 1 0.0 7 9 77.8 2 3 5 3 1 0 3 4 -
p25
aVVlade Divac LAL 05/12/1990 LAL @ PHX L 17 6 3 4 75.0 0 0 - 0 0 - 3 1 4 1 0 0 3 1 -
p26
aVLarry Drew LAL 05/12/1990 LAL @ PHX L 5 4 1 2 50.0 1 2 50.0 1 2 50.0 0 0 0 0 0 0 0 1 -
p27
aVMychal Thompson LAL 05/12/1990 LAL @ PHX L 20 4 1 2 50.0 0 0 - 2 2 100.0 0 2 2 1 0 0 2 3 -
p28
aVMagic Johnson LAL 05/12/1990 LAL @ PHX L 42 22 7 18 38.9 0 3 0.0 8 8 100.0 3 4 7 16 0 0 4 3 -
p29
aVA.C. Green LAL 05/12/1990 LAL @ PHX L 38 13 5 11 45.5 0 0 - 3 3 100.0 5 5 10 3 1 0 0 1 -
p30
aVByron Scott LAL 05/12/1990 LAL @ PHX L 35 9 4 11 36.4 1 3 33.3 0 0 - 0 3 3 1 1 1 1 5 -
p31
aVByron Scott LAL 05/10/1990 LAL vs. PHX W 27 18 8 15 53.3 1 3 33.3 1 1 100.0 2 0 2 5 2 2 1 3 -
p32
aVMychal Thompson LAL 05/10/1990 LAL vs. PHX W 23 2 1 2 50.0 0 0 - 0 0 - 1 5 6 0 0 1 1 2 -
p33
aVOrlando Woolridge LAL 05/10/1990 LAL vs. PHX W 20 21 9 11 81.8 0 0 - 3 5 60.0 0 6 6 0 0 2 1 0 -
p34
aVMark McNamara LAL 05/10/1990 LAL vs. PHX W 4 2 1 4 25.0 0 0 - 0 0 - 0 0 0 0 0 0 0 0 -
p35
aVJay Vincent LAL 05/10/1990 LAL vs. PHX W 6 0 0 1 0.0 0 0 - 0 0 - 0 0 0 0 0 0 1 1 -
p36
aVVlade Divac LAL 05/10/1990 LAL vs. PHX W 21 16 6 7 85.7 0 0 - 4 4 100.0 2 5 7 2 2 4 1 4 -
p37
aVA.C. Green LAL 05/10/1990 LAL vs. PHX W 29 13 5 10 50.0 0 0 - 3 5 60.0 5 8 13 1 0 1 4 4 -
p38
aVMel McCants LAL 05/10/1990 LAL vs. PHX W 4 0 0 0 - 0 0 - 0 0 - 0 0 0 0 0 0 0 1 -
p39
aVMichael Cooper LAL 05/10/1990 LAL vs. PHX W 16 0 0 3 0.0 0 2 0.0 0 0 - 2 2 4 2 1 1 2 2 -
p40
aVJames Worthy LAL 05/10/1990 LAL vs. PHX W 37 27 12 21 57.1 0 1 0.0 3 4 75.0 0 3 3 4 2 0 1 1 -
p41
aVMagic Johnson LAL 05/10/1990 LAL vs. PHX W 34 21 8 14 57.1 1 2 50.0 4 5 80.0 0 1 1 14 2 0 2 3 -
p42
aVLarry Drew LAL 05/10/1990 LAL vs. PHX W 19 4 0 0 - 0 0 - 4 4 100.0 0 0 0 3 3 0 1 3 -
p43
aVMichael Cooper LAL 05/08/1990 LAL vs. PHX L 20 0 0 5 0.0 0 2 0.0 0 0 - 1 2 3 2 1 2 1 2 -
p44
aVJames Worthy LAL 05/08/1990 LAL vs. PHX L 39 22 9 26 34.6 0 0 - 4 4 100.0 1 1 2 1 2 0 1 0 -
p45
aVVlade Divac LAL 05/08/1990 LAL vs. PHX L 26 8 3 7 42.9 0 1 0.0 2 2 100.0 4 3 7 0 2 2 0 3 -
p46
aVByron Scott LAL 05/08/1990 LAL vs. PHX L 39 18 8 14 57.1 2 3 66.7 0 0 - 1 6 7 4 2 0 0 2 -
p47
aVA.C. Green LAL 05/08/1990 LAL vs. PHX L 27 16 7 12 58.3 0 0 - 2 3 66.7 4 9 13 0 1 0 0 2 -
p48
aVOrlando Woolridge LAL 05/08/1990 LAL vs. PHX L 26 11 4 7 57.1 0 0 - 3 4 75.0 2 3 5 1 1 0 2 3 -
p49
aVMagic Johnson LAL 05/08/1990 LAL vs. PHX L 41 22 4 14 28.6 0 3 0.0 14 15 93.3 0 7 7 14 2 0 5 5 -
p50
aVMychal Thompson LAL 05/08/1990 LAL vs. PHX L 22 5 1 2 50.0 0 0 - 3 4 75.0 1 2 3 0 0 1 2 5 -
p51
aVVlade Divac LAL 05/03/1990 LAL @ HOU W 25 18 7 8 87.5 1 1 100.0 3 5 60.0 2 4 6 0 0 2 0 4 -
p52
aVMagic Johnson LAL 05/03/1990 LAL @ HOU W 40 19 7 10 70.0 1 2 50.0 4 5 80.0 0 6 6 8 0 0 5 3 -
p53
aVLarry Drew LAL 05/03/1990 LAL @ HOU W 5 2 1 2 50.0 0 0 - 0 0 - 0 1 1 0 0 0 0 1 -
p54
aVJames Worthy LAL 05/03/1990 LAL @ HOU W 43 20 10 16 62.5 0 1 0.0 0 0 - 0 7 7 7 2 1 2 1 -
p55
aVA.C. Green LAL 05/03/1990 LAL @ HOU W 19 11 4 7 57.1 0 0 - 3 4 75.0 3 3 6 1 0 0 4 4 -
p56
aVMychal Thompson LAL 05/03/1990 LAL @ HOU W 25 12 4 8 50.0 0 0 - 4 6 66.7 0 3 3 0 0 2 0 2 -
p57
aVOrlando Woolridge LAL 05/03/1990 LAL @ HOU W 26 12 5 8 62.5 0 0 - 2 3 66.7 0 1 1 5 1 0 0 4 -
p58
aVMichael Cooper LAL 05/03/1990 LAL @ HOU W 19 0 0 3 0.0 0 2 0.0 0 0 - 0 2 2 4 0 1 1 2 -
p59
aVByron Scott LAL 05/03/1990 LAL @ HOU W 38 15 6 10 60.0 0 2 0.0 3 6 50.0 2 4 6 3 5 0 1 2 -
p60
aVMichael Cooper LAL 05/01/1990 LAL @ HOU L 14 0 0 1 0.0 0 1 0.0 0 0 - 3 0 3 2 1 0 0 1 -
p61
aVOrlando Woolridge LAL 05/01/1990 LAL @ HOU L 26 18 7 12 58.3 0 1 0.0 4 5 80.0 0 3 3 1 1 0 2 1 -
p62
aVVlade Divac LAL 05/01/1990 LAL @ HOU L 17 6 2 2 100.0 0 0 - 2 2 100.0 0 4 4 3 0 1 2 3 -
p63
aVByron Scott LAL 05/01/1990 LAL @ HOU L 39 16 6 11 54.5 2 4 50.0 2 2 100.0 0 4 4 1 1 0 4 4 -
p64
aVA.C. Green LAL 05/01/1990 LAL @ HOU L 32 16 7 10 70.0 0 0 - 2 2 100.0 2 2 4 1 0 1 1 3 -
p65
aVLarry Drew LAL 05/01/1990 LAL @ HOU L 1 0 0 0 - 0 0 - 0 0 - 0 0 0 0 0 0 0 0 -
p66
aVJames Worthy LAL 05/01/1990 LAL @ HOU L 39 26 10 18 55.6 1 2 50.0 5 7 71.4 0 4 4 4 4 0 1 2 -
p67
aVMychal Thompson LAL 05/01/1990 LAL @ HOU L 29 9 4 7 57.1 0 0 - 1 3 33.3 2 0 2 1 0 2 5 3 -
p68
aVMagic Johnson LAL 05/01/1990 LAL @ HOU L 43 17 5 14 35.7 0 4 0.0 7 9 77.8 2 6 8 18 2 0 2 4 -
p69
aVVlade Divac LAL 04/29/1990 LAL vs. HOU W 21 12 3 4 75.0 0 0 - 6 6 100.0 2 3 5 2 1 3 1 3 -
p70
aVJames Worthy LAL 04/29/1990 LAL vs. HOU W 46 32 12 20 60.0 1 3 33.3 7 8 87.5 1 4 5 1 1 0 2 3 -
p71
aVMagic Johnson LAL 04/29/1990 LAL vs. HOU W 45 17 7 16 43.8 1 3 33.3 2 3 66.7 1 6 7 14 0 1 3 2 -
p72
aVMychal Thompson LAL 04/29/1990 LAL vs. HOU W 32 4 2 7 28.6 0 0 - 0 3 0.0 4 2 6 0 0 1 3 3 -
p73
aVA.C. Green LAL 04/29/1990 LAL vs. HOU W 25 10 3 7 42.9 0 0 - 4 4 100.0 1 5 6 0 0 1 1 2 -
p74
aVOrlando Woolridge LAL 04/29/1990 LAL vs. HOU W 19 10 3 7 42.9 0 0 - 4 4 100.0 1 2 3 0 1 0 0 1 -
p75
aVByron Scott LAL 04/29/1990 LAL vs. HOU W 38 17 6 11 54.5 3 4 75.0 2 2 100.0 1 4 5 1 3 0 1 3 -
p76
aVMichael Cooper LAL 04/29/1990 LAL vs. HOU W 14 2 1 5 20.0 0 0 - 0 0 - 1 0 1 1 0 0 0 2 -
p77
aVByron Scott LAL 04/27/1990 LAL vs. HOU W 38 7 3 13 23.1 1 4 25.0 0 0 - 0 5 5 2 2 0 1 3 -
p78
aVJames Worthy LAL 04/27/1990 LAL vs. HOU W 43 34 17 22 77.3 0 0 - 0 0 - 2 9 11 3 1 2 6 1 -
p79
aVA.C. Green LAL 04/27/1990 LAL vs. HOU W 28 13 6 11 54.5 0 0 - 1 2 50.0 3 3 6 2 1 1 1 1 -
p80
aVJay Vincent LAL 04/27/1990 LAL vs. HOU W 1 0 0 0 - 0 0 - 0 0 - 0 0 0 0 0 0 0 0 -
p81
aVMychal Thompson LAL 04/27/1990 LAL vs. HOU W 40 12 4 7 57.1 0 0 - 4 4 100.0 3 5 8 0 1 5 2 3 -
p82
aVMagic Johnson LAL 04/27/1990 LAL vs. HOU W 42 23 8 17 47.1 1 3 33.3 6 6 100.0 1 6 7 14 3 0 6 1 -
p83
aVVlade Divac LAL 04/27/1990 LAL vs. HOU W 11 4 2 3 66.7 0 0 - 0 0 - 0 4 4 1 0 3 3 2 -
p84
aVOrlando Woolridge LAL 04/27/1990 LAL vs. HOU W 20 8 3 5 60.0 0 0 - 2 4 50.0 0 1 1 1 2 0 4 4 -
p85
aVMichael Cooper LAL 04/27/1990 LAL vs. HOU W 12 0 0 1 0.0 0 0 - 0 0 - 1 2 3 3 0 0 0 1 -
p86
aVLarry Drew LAL 04/27/1990 LAL vs. HOU W 5 0 0 0 - 0 0 - 0 0 - 0 0 0 1 0 0 0 1 -
p87
a.