(lp0
VPLAYER TEAM DATE MATCHUP W/L MIN PTS FGM FGA FG% 3PM 3PA 3P% FTM FTA FT% OREB DREB REB AST STL BLK TOV PF +/-
p1
aVGerald Wilkins NYK 05/15/1990 NYK @ DET L 37 18 8 16 50.0 0 2 0.0 2 2 100.0 1 2 3 3 2 0 2 4 -
p2
aVMaurice Cheeks NYK 05/15/1990 NYK @ DET L 38 15 6 11 54.5 0 0 - 3 3 100.0 1 3 4 9 2 0 3 2 -
p3
aVPatrick Ewing NYK 05/15/1990 NYK @ DET L 46 22 7 23 30.4 0 0 - 8 8 100.0 0 14 14 2 1 3 2 4 -
p4
aVTrent Tucker NYK 05/15/1990 NYK @ DET L 12 2 1 3 33.3 0 1 0.0 0 0 - 0 1 1 2 0 0 0 1 -
p5
aVMark Jackson NYK 05/15/1990 NYK @ DET L 10 6 2 4 50.0 0 0 - 2 2 100.0 1 0 1 0 0 0 0 0 -
p6
aVJohnny Newman NYK 05/15/1990 NYK @ DET L 24 8 3 5 60.0 0 1 0.0 2 3 66.7 1 0 1 0 1 0 3 4 -
p7
aVKenny Walker NYK 05/15/1990 NYK @ DET L 8 2 1 2 50.0 0 0 - 0 0 - 0 1 1 1 0 0 0 0 -
p8
aVKiki Vandeweghe NYK 05/15/1990 NYK @ DET L 25 5 2 6 33.3 1 2 50.0 0 0 - 1 0 1 1 1 1 1 0 -
p9
aVCharles Oakley NYK 05/15/1990 NYK @ DET L 40 6 3 7 42.9 0 0 - 0 2 0.0 1 7 8 5 0 0 3 1 -
p10
aVCharles Oakley NYK 05/13/1990 NYK vs. DET L 46 18 7 13 53.8 0 0 - 4 6 66.7 8 6 14 2 1 0 1 5 -
p11
aVTrent Tucker NYK 05/13/1990 NYK vs. DET L 19 2 1 5 20.0 0 0 - 0 0 - 0 2 2 1 2 0 0 4 -
p12
aVGerald Wilkins NYK 05/13/1990 NYK vs. DET L 30 7 3 7 42.9 0 0 - 1 2 50.0 1 1 2 5 0 0 0 2 -
p13
aVKiki Vandeweghe NYK 05/13/1990 NYK vs. DET L 23 7 2 5 40.0 0 1 0.0 3 4 75.0 0 0 0 0 1 0 0 1 -
p14
aVJohnny Newman NYK 05/13/1990 NYK vs. DET L 18 6 2 9 22.2 1 2 50.0 1 1 100.0 2 0 2 0 1 2 1 2 -
p15
aVPatrick Ewing NYK 05/13/1990 NYK vs. DET L 30 30 9 18 50.0 0 0 - 12 12 100.0 1 6 7 2 1 0 3 3 -
p16
aVMaurice Cheeks NYK 05/13/1990 NYK vs. DET L 32 10 5 13 38.5 0 0 - 0 0 - 2 1 3 6 0 1 1 2 -
p17
aVKenny Walker NYK 05/13/1990 NYK vs. DET L 25 2 1 4 25.0 0 0 - 0 0 - 1 1 2 0 0 0 0 2 -
p18
aVMark Jackson NYK 05/13/1990 NYK vs. DET L 16 8 3 7 42.9 0 1 0.0 2 2 100.0 0 1 1 6 0 0 3 3 -
p19
aVEddielee Wilkins NYK 05/13/1990 NYK vs. DET L 1 0 0 0 - 0 0 - 0 0 - 0 0 0 0 0 0 0 0 -
p20
aVKenny Walker NYK 05/12/1990 NYK vs. DET W 11 2 1 2 50.0 0 0 - 0 0 - 0 1 1 0 0 0 0 2 -
p21
aVJohnny Newman NYK 05/12/1990 NYK vs. DET W 14 7 1 2 50.0 0 0 - 5 6 83.3 0 0 0 1 0 0 1 5 -
p22
aVCharles Oakley NYK 05/12/1990 NYK vs. DET W 44 6 1 3 33.3 0 0 - 4 4 100.0 3 17 20 2 1 0 6 2 -
p23
aVMaurice Cheeks NYK 05/12/1990 NYK vs. DET W 42 14 7 14 50.0 0 1 0.0 0 0 - 1 6 7 12 2 1 2 4 -
p24
aVMark Jackson NYK 05/12/1990 NYK vs. DET W 6 4 2 2 100.0 0 0 - 0 0 - 0 1 1 0 0 0 1 0 -
p25
aVKiki Vandeweghe NYK 05/12/1990 NYK vs. DET W 30 16 5 9 55.6 2 4 50.0 4 4 100.0 1 0 1 3 1 0 1 3 -
p26
aVTrent Tucker NYK 05/12/1990 NYK vs. DET W 23 7 3 6 50.0 1 3 33.3 0 0 - 1 1 2 2 2 0 0 3 -
p27
aVPatrick Ewing NYK 05/12/1990 NYK vs. DET W 45 45 14 24 58.3 0 0 - 17 18 94.4 3 10 13 6 0 3 1 4 -
p28
aVGerald Wilkins NYK 05/12/1990 NYK vs. DET W 25 10 3 8 37.5 0 1 0.0 4 4 100.0 0 3 3 2 2 1 3 0 -
p29
aVTrent Tucker NYK 05/10/1990 NYK @ DET L 11 0 0 1 0.0 0 1 0.0 0 0 - 0 0 0 0 0 0 0 0 -
p30
aVGerald Wilkins NYK 05/10/1990 NYK @ DET L 37 24 12 18 66.7 0 0 - 0 0 - 0 3 3 6 3 0 1 3 -
p31
aVMaurice Cheeks NYK 05/10/1990 NYK @ DET L 42 14 4 9 44.4 0 1 0.0 6 6 100.0 1 3 4 8 2 0 3 1 -
p32
aVMark Jackson NYK 05/10/1990 NYK @ DET L 6 0 0 2 0.0 0 0 - 0 0 - 0 0 0 3 0 0 0 1 -
p33
aVJohnny Newman NYK 05/10/1990 NYK @ DET L 21 4 1 4 25.0 0 0 - 2 4 50.0 0 1 1 1 1 0 2 3 -
p34
aVPatrick Ewing NYK 05/10/1990 NYK @ DET L 35 20 9 20 45.0 0 0 - 2 2 100.0 2 8 10 0 0 2 5 4 -
p35
aVEddielee Wilkins NYK 05/10/1990 NYK @ DET L 4 2 1 2 50.0 0 0 - 0 0 - 0 2 2 0 0 0 0 2 -
p36
aVKiki Vandeweghe NYK 05/10/1990 NYK @ DET L 27 8 3 6 50.0 2 2 100.0 0 0 - 0 1 1 5 1 0 1 2 -
p37
aVCharles Oakley NYK 05/10/1990 NYK @ DET L 43 22 8 13 61.5 0 0 - 6 8 75.0 9 6 15 4 4 0 0 3 -
p38
aVKenny Walker NYK 05/10/1990 NYK @ DET L 14 3 1 3 33.3 0 0 - 1 2 50.0 0 1 1 1 0 1 0 1 -
p39
aVCharles Oakley NYK 05/08/1990 NYK @ DET L 15 4 2 6 33.3 0 0 - 0 2 0.0 1 5 6 0 0 0 3 3 -
p40
aVBrian Quinnett NYK 05/08/1990 NYK @ DET L 9 3 1 2 50.0 1 1 100.0 0 0 - 4 3 7 2 0 0 0 1 -
p41
aVStuart Gray NYK 05/08/1990 NYK @ DET L 5 2 1 3 33.3 0 0 - 0 0 - 3 0 3 0 1 0 2 1 -
p42
aVKiki Vandeweghe NYK 05/08/1990 NYK @ DET L 16 2 1 7 14.3 0 1 0.0 0 0 - 2 0 2 0 0 0 2 1 -
p43
aVKenny Walker NYK 05/08/1990 NYK @ DET L 24 6 3 4 75.0 0 0 - 0 0 - 1 4 5 1 0 2 1 3 -
p44
aVEddielee Wilkins NYK 05/08/1990 NYK @ DET L 22 14 6 12 50.0 0 0 - 2 7 28.6 5 3 8 0 1 0 1 2 -
p45
aVGerald Wilkins NYK 05/08/1990 NYK @ DET L 33 2 1 13 7.7 0 1 0.0 0 0 - 2 1 3 4 0 0 3 2 -
p46
aVJohnny Newman NYK 05/08/1990 NYK @ DET L 23 2 1 6 16.7 0 1 0.0 0 1 0.0 0 3 3 2 0 0 2 4 -
p47
aVPatrick Ewing NYK 05/08/1990 NYK @ DET L 30 19 9 18 50.0 0 1 0.0 1 2 50.0 0 4 4 1 2 3 2 4 -
p48
aVTrent Tucker NYK 05/08/1990 NYK @ DET L 26 10 3 9 33.3 2 4 50.0 2 2 100.0 1 1 2 1 0 0 2 2 -
p49
aVMark Jackson NYK 05/08/1990 NYK @ DET L 7 3 1 3 33.3 0 0 - 1 4 25.0 0 1 1 0 1 0 0 0 -
p50
aVMaurice Cheeks NYK 05/08/1990 NYK @ DET L 30 10 3 7 42.9 0 0 - 4 4 100.0 2 3 5 6 1 0 0 1 -
p51
aVStuart Gray NYK 05/06/1990 NYK @ BOS W 1 0 0 0 - 0 0 - 0 0 - 0 1 1 0 0 0 0 0 -
p52
aVJohnny Newman NYK 05/06/1990 NYK @ BOS W 33 13 4 10 40.0 1 1 100.0 4 5 80.0 1 3 4 1 0 0 2 5 -
p53
aVGerald Wilkins NYK 05/06/1990 NYK @ BOS W 27 12 6 10 60.0 0 0 - 0 0 - 1 2 3 8 1 0 1 3 -
p54
aVCharles Oakley NYK 05/06/1990 NYK @ BOS W 44 26 8 11 72.7 0 0 - 10 12 83.3 5 12 17 4 1 1 3 5 -
p55
aVTrent Tucker NYK 05/06/1990 NYK @ BOS W 22 14 4 6 66.7 2 3 66.7 4 4 100.0 0 3 3 1 1 0 0 3 -
p56
aVKiki Vandeweghe NYK 05/06/1990 NYK @ BOS W 14 4 2 4 50.0 0 0 - 0 0 - 0 0 0 0 0 1 1 1 -
p57
aVMaurice Cheeks NYK 05/06/1990 NYK @ BOS W 48 21 8 10 80.0 0 0 - 5 6 83.3 0 3 3 7 2 0 4 1 -
p58
aVPatrick Ewing NYK 05/06/1990 NYK @ BOS W 47 31 14 26 53.8 1 1 100.0 2 2 100.0 2 6 8 10 0 4 4 4 -
p59
aVKenny Walker NYK 05/06/1990 NYK @ BOS W 4 0 0 1 0.0 0 0 - 0 0 - 0 0 0 0 0 0 0 1 -
p60
aVGerald Wilkins NYK 05/04/1990 NYK vs. BOS W 27 20 9 14 64.3 1 2 50.0 1 1 100.0 1 1 2 7 2 0 3 1 -
p61
aVKiki Vandeweghe NYK 05/04/1990 NYK vs. BOS W 21 7 3 6 50.0 1 1 100.0 0 0 - 1 0 1 1 0 0 0 2 -
p62
aVKenny Walker NYK 05/04/1990 NYK vs. BOS W 17 8 2 2 100.0 0 0 - 4 4 100.0 1 4 5 2 0 0 0 4 -
p63
aVBrian Quinnett NYK 05/04/1990 NYK vs. BOS W 3 0 0 1 0.0 0 0 - 0 0 - 0 0 0 0 0 0 0 1 -
p64
aVEddielee Wilkins NYK 05/04/1990 NYK vs. BOS W 7 6 2 3 66.7 0 0 - 2 2 100.0 0 1 1 0 0 0 0 2 -
p65
aVCharles Oakley NYK 05/04/1990 NYK vs. BOS W 29 6 3 7 42.9 0 0 - 0 0 - 0 6 6 5 2 0 2 4 -
p66
aVTrent Tucker NYK 05/04/1990 NYK vs. BOS W 21 5 2 7 28.6 1 4 25.0 0 0 - 0 0 0 7 3 0 0 1 -
p67
aVMaurice Cheeks NYK 05/04/1990 NYK vs. BOS W 41 15 6 10 60.0 0 0 - 3 4 75.0 2 2 4 12 2 0 2 3 -
p68
aVJohnny Newman NYK 05/04/1990 NYK vs. BOS W 24 24 8 13 61.5 0 0 - 8 11 72.7 3 0 3 0 2 1 2 3 -
p69
aVStuart Gray NYK 05/04/1990 NYK vs. BOS W 3 0 0 1 0.0 0 0 - 0 0 - 0 1 1 0 0 0 1 2 -
p70
aVMark Jackson NYK 05/04/1990 NYK vs. BOS W 7 0 0 2 0.0 0 0 - 0 0 - 0 0 0 4 0 0 0 0 -
p71
aVPatrick Ewing NYK 05/04/1990 NYK vs. BOS W 40 44 18 24 75.0 0 0 - 8 9 88.9 2 11 13 5 7 2 3 3 -
p72
aVMark Jackson NYK 05/02/1990 NYK vs. BOS W 3 0 0 1 0.0 0 0 - 0 0 - 0 0 0 0 0 0 0 0 -
p73
aVTrent Tucker NYK 05/02/1990 NYK vs. BOS W 6 2 1 3 33.3 0 1 0.0 0 0 - 0 1 1 0 0 0 1 1 -
p74
aVKiki Vandeweghe NYK 05/02/1990 NYK vs. BOS W 20 4 2 6 33.3 0 0 - 0 0 - 0 0 0 1 0 0 0 0 -
p75
aVEddielee Wilkins NYK 05/02/1990 NYK vs. BOS W 6 2 0 0 - 0 0 - 2 2 100.0 0 0 0 0 1 0 0 1 -
p76
aVGerald Wilkins NYK 05/02/1990 NYK vs. BOS W 42 15 6 19 31.6 0 0 - 3 6 50.0 5 3 8 5 2 0 3 1 -
p77
aVJohnny Newman NYK 05/02/1990 NYK vs. BOS W 26 11 3 12 25.0 0 1 0.0 5 5 100.0 2 1 3 1 2 0 1 5 -
p78
aVMaurice Cheeks NYK 05/02/1990 NYK vs. BOS W 45 12 5 12 41.7 0 1 0.0 2 2 100.0 1 4 5 11 1 0 0 2 -
p79
aVPatrick Ewing NYK 05/02/1990 NYK vs. BOS W 40 33 14 34 41.2 0 0 - 5 10 50.0 5 14 19 1 1 0 1 5 -
p80
aVCharles Oakley NYK 05/02/1990 NYK vs. BOS W 38 14 5 9 55.6 0 0 - 4 7 57.1 6 7 13 5 0 0 0 6 -
p81
aVKenny Walker NYK 05/02/1990 NYK vs. BOS W 14 9 4 5 80.0 0 0 - 1 2 50.0 2 2 4 0 0 0 0 1 -
p82
aVGerald Wilkins NYK 04/28/1990 NYK @ BOS L 30 24 10 20 50.0 0 1 0.0 4 4 100.0 2 2 4 7 2 0 0 3 -
p83
aVBrian Quinnett NYK 04/28/1990 NYK @ BOS L 4 2 1 1 100.0 0 0 - 0 0 - 1 0 1 0 0 0 1 0 -
p84
aVKenny Walker NYK 04/28/1990 NYK @ BOS L 14 2 0 1 0.0 0 0 - 2 2 100.0 1 3 4 0 0 0 0 4 -
p85
aVPatrick Ewing NYK 04/28/1990 NYK @ BOS L 40 28 11 18 61.1 0 0 - 6 6 100.0 3 5 8 3 0 1 2 5 -
p86
aVMaurice Cheeks NYK 04/28/1990 NYK @ BOS L 37 6 2 8 25.0 0 0 - 2 2 100.0 1 0 1 5 2 0 1 2 -
p87
aVEddielee Wilkins NYK 04/28/1990 NYK @ BOS L 7 0 0 0 - 0 0 - 0 0 - 0 0 0 0 0 0 0 0 -
p88
aVJohnny Newman NYK 04/28/1990 NYK @ BOS L 27 21 8 16 50.0 1 3 33.3 4 6 66.7 1 0 1 2 1 0 2 4 -
p89
aVTrent Tucker NYK 04/28/1990 NYK @ BOS L 20 8 3 6 50.0 2 5 40.0 0 0 - 2 0 2 2 1 0 2 4 -
p90
aVCharles Oakley NYK 04/28/1990 NYK @ BOS L 21 11 4 10 40.0 0 0 - 3 6 50.0 5 4 9 0 1 0 4 2 -
p91
aVKiki Vandeweghe NYK 04/28/1990 NYK @ BOS L 26 13 6 11 54.5 0 1 0.0 1 2 50.0 1 1 2 2 1 0 1 2 -
p92
aVMark Jackson NYK 04/28/1990 NYK @ BOS L 11 11 5 8 62.5 0 1 0.0 1 1 100.0 0 0 0 4 1 0 1 1 -
p93
aVStuart Gray NYK 04/28/1990 NYK @ BOS L 3 2 1 1 100.0 0 0 - 0 0 - 0 3 3 0 0 0 0 0 -
p94
aVPatrick Ewing NYK 04/26/1990 NYK @ BOS L 42 22 9 14 64.3 0 0 - 4 10 40.0 3 6 9 1 1 2 4 5 -
p95
aVCharles Oakley NYK 04/26/1990 NYK @ BOS L 16 8 2 5 40.0 1 1 100.0 3 5 60.0 1 1 2 0 1 1 0 2 -
p96
aVEddielee Wilkins NYK 04/26/1990 NYK @ BOS L 7 0 0 1 0.0 0 0 - 0 0 - 0 0 0 0 0 0 1 0 -
p97
aVMark Jackson NYK 04/26/1990 NYK @ BOS L 15 2 0 2 0.0 0 0 - 2 2 100.0 0 1 1 4 0 0 2 0 -
p98
aVKiki Vandeweghe NYK 04/26/1990 NYK @ BOS L 34 10 5 14 35.7 0 1 0.0 0 0 - 1 3 4 1 0 0 0 2 -
p99
aVJohnny Newman NYK 04/26/1990 NYK @ BOS L 23 21 7 8 87.5 1 1 100.0 6 7 85.7 1 2 3 2 1 0 1 6 -
p100
aVKenny Walker NYK 04/26/1990 NYK @ BOS L 23 7 3 5 60.0 0 1 0.0 1 4 25.0 1 1 2 1 0 1 0 4 -
p101
aVMaurice Cheeks NYK 04/26/1990 NYK @ BOS L 33 11 4 10 40.0 0 1 0.0 3 4 75.0 1 2 3 9 3 0 3 3 -
p102
aVTrent Tucker NYK 04/26/1990 NYK @ BOS L 23 10 4 9 44.4 2 5 40.0 0 0 - 1 0 1 4 1 0 1 0 -
p103
aVGerald Wilkins NYK 04/26/1990 NYK @ BOS L 24 14 5 12 41.7 1 1 100.0 3 3 100.0 1 4 5 5 0 0 2 4 -
p104
a.