(lp0
VPLAYER TEAM DATE MATCHUP W/L MIN PTS FGM FGA FG% 3PM 3PA 3P% FTM FTA FT% OREB DREB REB AST STL BLK TOV PF +/-
p1
aVAnthony Bowie HOU 05/03/1990 HOU vs. LAL L 1 0 0 0 - 0 0 - 0 0 - 0 0 0 0 0 0 0 0 -
p2
aVHakeem Olajuwon HOU 05/03/1990 HOU vs. LAL L 41 28 12 25 48.0 0 0 - 4 8 50.0 5 9 14 2 3 4 3 5 -
p3
aVSleepy Floyd HOU 05/03/1990 HOU vs. LAL L 44 12 5 16 31.3 0 3 0.0 2 3 66.7 3 0 3 10 0 0 4 1 -
p4
aVMitchell Wiggins HOU 05/03/1990 HOU vs. LAL L 22 9 4 6 66.7 0 0 - 1 1 100.0 1 3 4 0 1 0 1 2 -
p5
aVLarry Smith HOU 05/03/1990 HOU vs. LAL L 21 2 1 3 33.3 0 0 - 0 0 - 3 3 6 1 1 0 1 2 -
p6
aVVernon Maxwell HOU 05/03/1990 HOU vs. LAL L 30 9 2 11 18.2 1 6 16.7 4 6 66.7 0 1 1 4 0 0 1 5 -
p7
aVOtis Thorpe HOU 05/03/1990 HOU vs. LAL L 41 18 5 8 62.5 0 0 - 8 14 57.1 4 5 9 3 1 0 3 2 -
p8
aVTim McCormick HOU 05/03/1990 HOU vs. LAL L 5 0 0 2 0.0 0 0 - 0 0 - 0 3 3 0 0 0 0 2 -
p9
aVBuck Johnson HOU 05/03/1990 HOU vs. LAL L 35 10 5 10 50.0 0 0 - 0 0 - 1 1 2 1 0 0 0 4 -
p10
aVOtis Thorpe HOU 05/01/1990 HOU vs. LAL W 42 27 8 13 61.5 0 0 - 11 14 78.6 3 5 8 1 2 0 3 2 -
p11
aVAdrian Caldwell HOU 05/01/1990 HOU vs. LAL W 1 0 0 0 - 0 0 - 0 0 - 0 0 0 0 0 0 0 0 -
p12
aVSleepy Floyd HOU 05/01/1990 HOU vs. LAL W 46 23 9 12 75.0 3 4 75.0 2 6 33.3 0 5 5 18 1 1 6 1 -
p13
aVTim McCormick HOU 05/01/1990 HOU vs. LAL W 12 3 1 1 100.0 0 0 - 1 2 50.0 1 4 5 0 0 0 0 3 -
p14
aVBuck Johnson HOU 05/01/1990 HOU vs. LAL W 33 12 4 9 44.4 0 0 - 4 4 100.0 3 2 5 0 2 0 1 5 -
p15
aVMitchell Wiggins HOU 05/01/1990 HOU vs. LAL W 7 1 0 1 0.0 0 0 - 1 2 50.0 1 2 3 0 0 0 0 1 -
p16
aVLarry Smith HOU 05/01/1990 HOU vs. LAL W 20 0 0 0 - 0 0 - 0 0 - 1 0 1 1 0 0 3 5 -
p17
aVVernon Maxwell HOU 05/01/1990 HOU vs. LAL W 43 26 9 25 36.0 3 8 37.5 5 8 62.5 2 2 4 5 1 0 2 2 -
p18
aVHakeem Olajuwon HOU 05/01/1990 HOU vs. LAL W 36 22 10 17 58.8 0 0 - 2 2 100.0 1 6 7 2 2 2 0 5 -
p19
aVTim McCormick HOU 04/29/1990 HOU @ LAL L 4 0 0 0 - 0 0 - 0 0 - 0 0 0 0 0 0 0 0 -
p20
aVHakeem Olajuwon HOU 04/29/1990 HOU @ LAL L 43 11 4 15 26.7 0 0 - 3 3 100.0 4 7 11 1 2 10 4 5 -
p21
aVLarry Smith HOU 04/29/1990 HOU @ LAL L 11 4 2 2 100.0 0 0 - 0 0 - 2 1 3 0 0 0 0 1 -
p22
aVSleepy Floyd HOU 04/29/1990 HOU @ LAL L 43 27 10 19 52.6 0 3 0.0 7 7 100.0 3 1 4 8 2 0 0 3 -
p23
aVVernon Maxwell HOU 04/29/1990 HOU @ LAL L 43 24 11 25 44.0 1 6 16.7 1 3 33.3 3 2 5 4 2 0 1 3 -
p24
aVOtis Thorpe HOU 04/29/1990 HOU @ LAL L 43 14 6 10 60.0 0 0 - 2 4 50.0 3 5 8 0 1 0 1 5 -
p25
aVBuck Johnson HOU 04/29/1990 HOU @ LAL L 41 16 5 15 33.3 0 1 0.0 6 6 100.0 4 2 6 6 2 1 3 5 -
p26
aVMitchell Wiggins HOU 04/29/1990 HOU @ LAL L 12 4 2 5 40.0 0 0 - 0 0 - 2 3 5 1 0 0 1 1 -
p27
aVVernon Maxwell HOU 04/27/1990 HOU @ LAL L 43 20 8 20 40.0 3 6 50.0 1 4 25.0 0 2 2 4 2 0 2 2 -
p28
aVAnthony Bowie HOU 04/27/1990 HOU @ LAL L 3 0 0 1 0.0 0 0 - 0 0 - 0 0 0 0 0 0 0 1 -
p29
aVMitchell Wiggins HOU 04/27/1990 HOU @ LAL L 10 2 1 3 33.3 0 0 - 0 0 - 0 1 1 1 0 0 2 1 -
p30
aVSleepy Floyd HOU 04/27/1990 HOU @ LAL L 39 12 6 17 35.3 0 2 0.0 0 1 0.0 1 2 3 5 2 0 5 0 -
p31
aVMike Woodson HOU 04/27/1990 HOU @ LAL L 6 2 1 3 33.3 0 1 0.0 0 0 - 0 0 0 2 0 0 0 1 -
p32
aVLarry Smith HOU 04/27/1990 HOU @ LAL L 21 6 3 3 100.0 0 0 - 0 0 - 1 2 3 3 3 0 1 3 -
p33
aVOtis Thorpe HOU 04/27/1990 HOU @ LAL L 38 21 8 14 57.1 0 0 - 5 6 83.3 4 4 8 3 1 0 2 3 -
p34
aVHakeem Olajuwon HOU 04/27/1990 HOU @ LAL L 41 13 5 13 38.5 0 0 - 3 4 75.0 5 9 14 3 3 7 4 4 -
p35
aVBuck Johnson HOU 04/27/1990 HOU @ LAL L 39 13 6 14 42.9 0 0 - 1 3 33.3 0 3 3 2 2 1 0 2 -
p36
a.