(lp0
VPLAYER TEAM DATE MATCHUP W/L MIN PTS FGM FGA FG% 3PM 3PA 3P% FTM FTA FT% OREB DREB REB AST STL BLK TOV PF +/-
p1
aVRandolph Keys CHH 04/22/1990 CHH @ DAL L 28 14 6 12 50.0 0 0 - 2 2 100.0 2 1 3 2 1 0 0 2 -
p2
aVRalph Lewis CHH 04/22/1990 CHH @ DAL L 9 4 2 4 50.0 0 0 - 0 0 - 3 0 3 0 1 0 1 1 -
p3
aVMuggsy Bogues CHH 04/22/1990 CHH @ DAL L 25 4 2 3 66.7 0 0 - 0 0 - 0 1 1 8 2 0 2 1 -
p4
aVRichard Anderson CHH 04/22/1990 CHH @ DAL L 13 2 1 5 20.0 0 2 0.0 0 0 - 0 5 5 0 0 0 0 0 -
p5
aVArmen Gilliam CHH 04/22/1990 CHH @ DAL L 34 22 10 15 66.7 0 0 - 2 4 50.0 2 3 5 0 0 0 0 2 -
p6
aVKenny Gattison CHH 04/22/1990 CHH @ DAL L 15 7 3 7 42.9 0 0 - 1 4 25.0 0 0 0 1 0 0 1 4 -
p7
aVRobert Reid CHH 04/22/1990 CHH @ DAL L 24 10 4 7 57.1 0 0 - 2 4 50.0 0 1 1 1 1 0 1 2 -
p8
aVMichael Holton CHH 04/22/1990 CHH @ DAL L 12 10 5 7 71.4 0 0 - 0 0 - 0 0 0 1 1 0 1 1 -
p9
aVJ.R. Reid CHH 04/22/1990 CHH @ DAL L 34 8 4 8 50.0 0 0 - 0 1 0.0 3 8 11 1 2 1 2 3 -
p10
aVMicheal Williams CHH 04/22/1990 CHH @ DAL L 14 2 1 4 25.0 0 0 - 0 0 - 1 2 3 7 1 0 1 1 -
p11
aVKelly Tripucka CHH 04/22/1990 CHH @ DAL L 32 24 8 12 66.7 2 2 100.0 6 6 100.0 1 3 4 2 0 0 1 3 -
p12
aVRobert Reid CHH 04/19/1990 CHH vs. DAL L 21 8 4 8 50.0 0 1 0.0 0 0 - 0 2 2 0 0 0 1 1 -
p13
aVRichard Anderson CHH 04/19/1990 CHH vs. DAL L 21 19 8 14 57.1 3 6 50.0 0 0 - 3 7 10 1 1 1 1 1 -
p14
aVMicheal Williams CHH 04/19/1990 CHH vs. DAL L 35 17 4 10 40.0 0 0 - 9 10 90.0 1 1 2 7 4 0 2 4 -
p15
aVKelly Tripucka CHH 04/19/1990 CHH vs. DAL L 32 8 0 9 0.0 0 0 - 8 8 100.0 2 1 3 0 0 0 2 1 -
p16
aVMichael Holton CHH 04/19/1990 CHH vs. DAL L 13 2 1 1 100.0 0 0 - 0 0 - 0 0 0 4 0 0 3 1 -
p17
aVRandolph Keys CHH 04/19/1990 CHH vs. DAL L 38 17 6 12 50.0 0 1 0.0 5 8 62.5 1 1 2 3 2 0 0 4 -
p18
aVArmen Gilliam CHH 04/19/1990 CHH vs. DAL L 34 20 6 13 46.2 0 0 - 8 12 66.7 3 5 8 2 2 1 4 3 -
p19
aVJ.R. Reid CHH 04/19/1990 CHH vs. DAL L 26 0 0 3 0.0 0 0 - 0 0 - 2 2 4 0 1 0 3 2 -
p20
aVRalph Lewis CHH 04/19/1990 CHH vs. DAL L 5 4 1 1 100.0 0 0 - 2 2 100.0 1 0 1 0 0 0 0 1 -
p21
aVKenny Gattison CHH 04/19/1990 CHH vs. DAL L 15 7 2 2 100.0 0 0 - 3 4 75.0 2 3 5 2 0 0 1 1 -
p22
aVMuggsy Bogues CHH 04/18/1990 CHH @ MIA W 41 18 7 17 41.2 0 1 0.0 4 6 66.7 1 3 4 15 1 0 1 0 -
p23
aVMichael Holton CHH 04/18/1990 CHH @ MIA W 4 0 0 0 - 0 0 - 0 0 - 0 0 0 1 0 0 2 1 -
p24
aVKelly Tripucka CHH 04/18/1990 CHH @ MIA W 40 26 8 14 57.1 1 4 25.0 9 11 81.8 0 1 1 0 4 0 3 4 -
p25
aVJ.R. Reid CHH 04/18/1990 CHH @ MIA W 33 3 1 5 20.0 0 0 - 1 3 33.3 0 9 9 1 1 0 3 6 -
p26
aVRalph Lewis CHH 04/18/1990 CHH @ MIA W 6 2 1 1 100.0 0 0 - 0 0 - 0 2 2 0 0 0 0 0 -
p27
aVArmen Gilliam CHH 04/18/1990 CHH @ MIA W 36 11 3 10 30.0 0 0 - 5 5 100.0 3 6 9 3 1 1 4 6 -
p28
aVRichard Anderson CHH 04/18/1990 CHH @ MIA W 24 6 2 5 40.0 2 5 40.0 0 0 - 0 5 5 1 1 0 2 2 -
p29
aVRandolph Keys CHH 04/18/1990 CHH @ MIA W 31 20 9 14 64.3 0 0 - 2 4 50.0 2 3 5 1 1 2 1 3 -
p30
aVMicheal Williams CHH 04/18/1990 CHH @ MIA W 7 4 2 4 50.0 0 0 - 0 0 - 0 0 0 1 0 0 3 1 -
p31
aVRobert Reid CHH 04/18/1990 CHH @ MIA W 18 8 4 8 50.0 0 0 - 0 0 - 1 2 3 0 1 0 1 2 -
p32
aVRobert Reid CHH 04/16/1990 CHH vs. SAN L 20 4 2 6 33.3 0 0 - 0 0 - 0 2 2 1 1 0 0 1 -
p33
aVMicheal Williams CHH 04/16/1990 CHH vs. SAN L 17 10 3 6 50.0 0 0 - 4 4 100.0 1 3 4 4 0 0 1 2 -
p34
aVRichard Anderson CHH 04/16/1990 CHH vs. SAN L 14 4 1 3 33.3 1 2 50.0 1 2 50.0 1 3 4 1 1 1 0 1 -
p35
aVMichael Holton CHH 04/16/1990 CHH vs. SAN L 7 2 1 1 100.0 0 0 - 0 0 - 0 0 0 0 0 0 0 1 -
p36
aVKenny Gattison CHH 04/16/1990 CHH vs. SAN L 40 18 8 14 57.1 0 0 - 2 4 50.0 5 6 11 1 0 2 5 3 -
p37
aVKelly Tripucka CHH 04/16/1990 CHH vs. SAN L 35 24 9 18 50.0 0 0 - 6 6 100.0 0 1 1 4 1 0 2 4 -
p38
aVJ.R. Reid CHH 04/16/1990 CHH vs. SAN L 42 16 6 9 66.7 0 0 - 4 6 66.7 0 7 7 2 2 0 3 4 -
p39
aVRandolph Keys CHH 04/16/1990 CHH vs. SAN L 34 17 8 18 44.4 1 4 25.0 0 0 - 1 0 1 3 0 0 1 4 -
p40
aVMuggsy Bogues CHH 04/16/1990 CHH vs. SAN L 31 6 3 6 50.0 0 0 - 0 0 - 0 1 1 12 1 0 2 2 -
p41
aVRandolph Keys CHH 04/14/1990 CHH vs. PHL L 29 17 7 17 41.2 1 2 50.0 2 4 50.0 4 4 8 4 0 1 1 4 -
p42
aVMichael Holton CHH 04/14/1990 CHH vs. PHL L 11 2 1 1 100.0 0 0 - 0 0 - 0 0 0 1 0 0 1 1 -
p43
aVMicheal Williams CHH 04/14/1990 CHH vs. PHL L 13 6 3 4 75.0 0 0 - 0 0 - 0 1 1 4 0 0 0 1 -
p44
aVArmen Gilliam CHH 04/14/1990 CHH vs. PHL L 31 14 7 15 46.7 0 0 - 0 0 - 2 7 9 1 0 0 2 4 -
p45
aVRichard Anderson CHH 04/14/1990 CHH vs. PHL L 12 3 1 3 33.3 1 3 33.3 0 0 - 0 1 1 1 0 0 0 3 -
p46
aVJ.R. Reid CHH 04/14/1990 CHH vs. PHL L 31 11 4 6 66.7 0 0 - 3 4 75.0 2 3 5 0 1 0 1 2 -
p47
aVRobert Reid CHH 04/14/1990 CHH vs. PHL L 16 4 2 7 28.6 0 0 - 0 0 - 0 3 3 1 0 0 0 2 -
p48
aVKenny Gattison CHH 04/14/1990 CHH vs. PHL L 22 14 7 10 70.0 0 0 - 0 0 - 0 2 2 3 0 2 1 6 -
p49
aVKelly Tripucka CHH 04/14/1990 CHH vs. PHL L 40 21 9 18 50.0 0 1 0.0 3 3 100.0 0 4 4 6 1 0 3 2 -
p50
aVMuggsy Bogues CHH 04/14/1990 CHH vs. PHL L 35 10 3 6 50.0 0 0 - 4 4 100.0 0 2 2 15 0 0 0 1 -
p51
aVDell Curry CHH 04/12/1990 CHH @ HOU L 13 10 4 10 40.0 0 0 - 2 2 100.0 0 0 0 2 2 1 1 0 -
p52
aVArmen Gilliam CHH 04/12/1990 CHH @ HOU L 34 30 13 19 68.4 0 0 - 4 4 100.0 5 1 6 2 1 1 2 4 -
p53
aVRichard Anderson CHH 04/12/1990 CHH @ HOU L 13 2 1 5 20.0 0 3 0.0 0 0 - 1 4 5 1 0 0 3 3 -
p54
aVMuggsy Bogues CHH 04/12/1990 CHH @ HOU L 34 16 8 15 53.3 0 0 - 0 0 - 1 0 1 9 3 0 2 2 -
p55
aVRandolph Keys CHH 04/12/1990 CHH @ HOU L 27 15 6 12 50.0 2 5 40.0 1 2 50.0 0 4 4 1 1 0 2 4 -
p56
aVMicheal Williams CHH 04/12/1990 CHH @ HOU L 14 7 2 3 66.7 0 0 - 3 4 75.0 0 0 0 2 1 0 1 1 -
p57
aVKelly Tripucka CHH 04/12/1990 CHH @ HOU L 37 16 5 10 50.0 0 1 0.0 6 7 85.7 0 5 5 7 1 0 3 5 -
p58
aVRobert Reid CHH 04/12/1990 CHH @ HOU L 19 0 0 8 0.0 0 0 - 0 0 - 0 3 3 1 1 0 0 2 -
p59
aVKenny Gattison CHH 04/12/1990 CHH @ HOU L 13 8 4 6 66.7 0 0 - 0 0 - 2 2 4 1 3 0 1 0 -
p60
aVJ.R. Reid CHH 04/12/1990 CHH @ HOU L 36 6 2 6 33.3 0 0 - 2 2 100.0 1 8 9 0 0 0 3 4 -
p61
aVRandolph Keys CHH 04/10/1990 CHH vs. HOU L 17 7 3 6 50.0 1 1 100.0 0 0 - 0 3 3 0 0 0 1 3 -
p62
aVMuggsy Bogues CHH 04/10/1990 CHH vs. HOU L 34 14 7 16 43.8 0 0 - 0 0 - 2 2 4 17 3 0 3 3 -
p63
aVRichard Anderson CHH 04/10/1990 CHH vs. HOU L 16 6 2 5 40.0 2 5 40.0 0 0 - 0 2 2 1 0 0 0 3 -
p64
aVKenny Gattison CHH 04/10/1990 CHH vs. HOU L 12 6 3 5 60.0 0 0 - 0 0 - 1 3 4 1 0 0 1 1 -
p65
aVJ.R. Reid CHH 04/10/1990 CHH vs. HOU L 39 16 8 14 57.1 0 0 - 0 0 - 3 11 14 2 1 1 4 4 -
p66
aVRobert Reid CHH 04/10/1990 CHH vs. HOU L 20 8 4 8 50.0 0 0 - 0 0 - 0 1 1 0 1 0 1 3 -
p67
aVMicheal Williams CHH 04/10/1990 CHH vs. HOU L 14 4 2 5 40.0 0 0 - 0 0 - 1 1 2 3 1 0 1 1 -
p68
aVKelly Tripucka CHH 04/10/1990 CHH vs. HOU L 30 18 7 12 58.3 1 1 100.0 3 3 100.0 1 3 4 3 1 0 3 4 -
p69
aVDell Curry CHH 04/10/1990 CHH vs. HOU L 29 21 9 20 45.0 2 4 50.0 1 1 100.0 0 2 2 3 1 0 1 4 -
p70
aVArmen Gilliam CHH 04/10/1990 CHH vs. HOU L 29 12 5 8 62.5 0 0 - 2 2 100.0 1 4 5 2 0 0 0 2 -
p71
aVMuggsy Bogues CHH 04/08/1990 CHH vs. GOS W 35 7 3 8 37.5 0 0 - 1 3 33.3 0 6 6 11 3 0 1 3 -
p72
aVDell Curry CHH 04/08/1990 CHH vs. GOS W 33 4 1 15 6.7 0 2 0.0 2 2 100.0 1 2 3 4 0 1 1 2 -
p73
aVRandolph Keys CHH 04/08/1990 CHH vs. GOS W 24 14 6 12 50.0 0 0 - 2 3 66.7 6 1 7 1 1 0 0 3 -
p74
aVRichard Anderson CHH 04/08/1990 CHH vs. GOS W 19 15 6 9 66.7 3 4 75.0 0 0 - 2 4 6 2 2 0 0 2 -
p75
aVArmen Gilliam CHH 04/08/1990 CHH vs. GOS W 29 19 7 18 38.9 0 0 - 5 6 83.3 8 6 14 1 0 2 5 2 -
p76
aVKenny Gattison CHH 04/08/1990 CHH vs. GOS W 17 7 3 7 42.9 0 0 - 1 4 25.0 1 3 4 0 0 0 0 3 -
p77
aVJ.R. Reid CHH 04/08/1990 CHH vs. GOS W 22 15 6 11 54.5 0 0 - 3 6 50.0 2 7 9 1 1 1 2 4 -
p78
aVMicheal Williams CHH 04/08/1990 CHH vs. GOS W 13 6 2 5 40.0 0 0 - 2 2 100.0 1 0 1 4 0 0 1 2 -
p79
aVKelly Tripucka CHH 04/08/1990 CHH vs. GOS W 31 17 4 12 33.3 1 2 50.0 8 9 88.9 1 4 5 4 0 0 4 5 -
p80
aVRobert Reid CHH 04/08/1990 CHH vs. GOS W 17 6 3 8 37.5 0 1 0.0 0 0 - 2 0 2 0 1 0 1 2 -
p81
aVArmen Gilliam CHH 04/06/1990 CHH vs. MIN W 39 19 8 12 66.7 0 0 - 3 4 75.0 6 8 14 1 0 0 2 4 -
p82
aVKenny Gattison CHH 04/06/1990 CHH vs. MIN W 13 10 4 4 100.0 0 0 - 2 2 100.0 1 0 1 2 0 1 1 2 -
p83
aVDell Curry CHH 04/06/1990 CHH vs. MIN W 37 19 9 16 56.3 1 2 50.0 0 0 - 0 2 2 3 1 0 1 2 -
p84
aVRobert Reid CHH 04/06/1990 CHH vs. MIN W 11 2 1 4 25.0 0 0 - 0 0 - 0 2 2 0 0 0 0 3 -
p85
aVMicheal Williams CHH 04/06/1990 CHH vs. MIN W 14 10 5 6 83.3 0 0 - 0 0 - 0 0 0 5 1 0 2 2 -
p86
aVMuggsy Bogues CHH 04/06/1990 CHH vs. MIN W 34 8 2 8 25.0 0 0 - 4 5 80.0 0 2 2 7 1 0 3 1 -
p87
aVJ.R. Reid CHH 04/06/1990 CHH vs. MIN W 36 14 6 9 66.7 0 0 - 2 4 50.0 1 8 9 1 2 1 1 2 -
p88
aVKelly Tripucka CHH 04/06/1990 CHH vs. MIN W 38 21 7 20 35.0 1 1 100.0 6 7 85.7 3 6 9 9 1 0 0 2 -
p89
aVRichard Anderson CHH 04/06/1990 CHH vs. MIN W 8 0 0 0 - 0 0 - 0 0 - 0 1 1 0 0 0 1 0 -
p90
aVRandolph Keys CHH 04/06/1990 CHH vs. MIN W 10 5 2 5 40.0 0 1 0.0 1 1 100.0 1 1 2 1 0 0 0 1 -
p91
aVRobert Reid CHH 04/04/1990 CHH @ DEN W 20 8 4 9 44.4 0 0 - 0 0 - 0 5 5 0 0 0 0 2 -
p92
aVMicheal Williams CHH 04/04/1990 CHH @ DEN W 15 12 6 8 75.0 0 0 - 0 0 - 2 1 3 5 2 0 4 1 -
p93
aVMuggsy Bogues CHH 04/04/1990 CHH @ DEN W 33 10 4 10 40.0 0 0 - 2 2 100.0 0 4 4 11 0 0 1 1 -
p94
aVArmen Gilliam CHH 04/04/1990 CHH @ DEN W 29 12 4 10 40.0 0 0 - 4 7 57.1 3 5 8 2 0 1 7 4 -
p95
aVDell Curry CHH 04/04/1990 CHH @ DEN W 31 18 8 18 44.4 0 1 0.0 2 2 100.0 0 4 4 0 0 0 1 3 -
p96
aVJ.R. Reid CHH 04/04/1990 CHH @ DEN W 25 8 3 8 37.5 0 0 - 2 2 100.0 0 6 6 2 1 1 1 4 -
p97
aVKelly Tripucka CHH 04/04/1990 CHH @ DEN W 29 23 9 15 60.0 2 3 66.7 3 4 75.0 1 1 2 1 2 0 1 5 -
p98
aVRichard Anderson CHH 04/04/1990 CHH @ DEN W 19 13 4 5 80.0 1 2 50.0 4 4 100.0 2 2 4 3 1 0 0 0 -
p99
aVKenny Gattison CHH 04/04/1990 CHH @ DEN W 19 4 2 6 33.3 0 0 - 0 0 - 3 4 7 2 0 2 2 1 -
p100
aVRandolph Keys CHH 04/04/1990 CHH @ DEN W 20 8 4 10 40.0 0 0 - 0 0 - 5 1 6 1 0 0 1 4 -
p101
aVMicheal Williams CHH 04/03/1990 CHH @ UTH L 18 9 3 7 42.9 0 1 0.0 3 4 75.0 0 0 0 6 2 0 2 2 -
p102
aVMuggsy Bogues CHH 04/03/1990 CHH @ UTH L 30 8 4 8 50.0 0 0 - 0 0 - 0 0 0 8 0 0 3 1 -
p103
aVRobert Reid CHH 04/03/1990 CHH @ UTH L 20 6 3 7 42.9 0 1 0.0 0 0 - 1 3 4 0 1 0 0 2 -
p104
aVJ.R. Reid CHH 04/03/1990 CHH @ UTH L 24 6 2 5 40.0 0 0 - 2 4 50.0 1 1 2 0 1 2 1 6 -
p105
aVRichard Anderson CHH 04/03/1990 CHH @ UTH L 15 5 2 3 66.7 0 1 0.0 1 1 100.0 2 1 3 0 0 0 0 1 -
p106
aVKenny Gattison CHH 04/03/1990 CHH @ UTH L 20 6 2 4 50.0 0 0 - 2 3 66.7 1 3 4 0 2 2 3 5 -
p107
aVRandolph Keys CHH 04/03/1990 CHH @ UTH L 18 12 6 11 54.5 0 0 - 0 0 - 1 1 2 0 1 0 1 2 -
p108
aVKelly Tripucka CHH 04/03/1990 CHH @ UTH L 33 18 5 14 35.7 0 0 - 8 8 100.0 1 5 6 4 1 0 3 5 -
p109
aVArmen Gilliam CHH 04/03/1990 CHH @ UTH L 34 16 6 13 46.2 0 0 - 4 6 66.7 3 5 8 2 3 0 1 2 -
p110
aVDell Curry CHH 04/03/1990 CHH @ UTH L 28 18 7 13 53.8 0 1 0.0 4 4 100.0 2 1 3 3 1 0 2 3 -
p111
aVRandolph Keys CHH 03/31/1990 CHH @ SAC W 16 2 1 5 20.0 0 0 - 0 0 - 0 3 3 0 1 0 0 0 -
p112
aVRichard Anderson CHH 03/31/1990 CHH @ SAC W 5 4 2 3 66.7 0 1 0.0 0 0 - 1 1 2 1 0 0 0 0 -
p113
aVJ.R. Reid CHH 03/31/1990 CHH @ SAC W 40 21 9 19 47.4 0 0 - 3 7 42.9 4 8 12 1 0 2 2 4 -
p114
aVMicheal Williams CHH 03/31/1990 CHH @ SAC W 11 8 4 6 66.7 0 0 - 0 0 - 0 0 0 0 0 0 0 1 -
p115
aVDell Curry CHH 03/31/1990 CHH @ SAC W 33 20 7 11 63.6 0 0 - 6 6 100.0 1 2 3 3 3 0 1 2 -
p116
aVKenny Gattison CHH 03/31/1990 CHH @ SAC W 12 4 0 2 0.0 0 0 - 4 4 100.0 2 1 3 1 1 0 0 1 -
p117
aVArmen Gilliam CHH 03/31/1990 CHH @ SAC W 39 27 10 15 66.7 0 0 - 7 8 87.5 1 3 4 0 5 0 2 4 -
p118
aVKelly Tripucka CHH 03/31/1990 CHH @ SAC W 32 11 3 10 30.0 0 0 - 5 5 100.0 2 2 4 6 1 0 5 3 -
p119
aVMuggsy Bogues CHH 03/31/1990 CHH @ SAC W 37 10 4 6 66.7 0 0 - 2 2 100.0 3 0 3 15 1 0 2 2 -
p120
aVRobert Reid CHH 03/31/1990 CHH @ SAC W 15 8 4 5 80.0 0 1 0.0 0 0 - 1 0 1 0 1 0 0 2 -
p121
aVMuggsy Bogues CHH 03/29/1990 CHH vs. PHX L 35 10 5 10 50.0 0 0 - 0 0 - 0 3 3 9 3 0 1 1 -
p122
aVJ.R. Reid CHH 03/29/1990 CHH vs. PHX L 35 9 3 11 27.3 0 0 - 3 6 50.0 8 3 11 0 3 0 2 4 -
p123
aVBrian Rowsom CHH 03/29/1990 CHH vs. PHX L 2 0 0 1 0.0 0 0 - 0 0 - 0 0 0 0 1 0 0 0 -
p124
aVKenny Gattison CHH 03/29/1990 CHH vs. PHX L 19 14 6 7 85.7 0 0 - 2 2 100.0 1 1 2 0 1 0 1 1 -
p125
aVDell Curry CHH 03/29/1990 CHH vs. PHX L 28 12 6 15 40.0 0 2 0.0 0 0 - 1 2 3 3 1 0 1 4 -
p126
aVArmen Gilliam CHH 03/29/1990 CHH vs. PHX L 38 21 8 13 61.5 0 0 - 5 8 62.5 2 6 8 1 3 0 5 1 -
p127
aVRandolph Keys CHH 03/29/1990 CHH vs. PHX L 20 3 1 8 12.5 1 3 33.3 0 0 - 1 1 2 1 0 0 3 4 -
p128
aVKelly Tripucka CHH 03/29/1990 CHH vs. PHX L 28 17 6 14 42.9 0 1 0.0 5 5 100.0 1 0 1 4 0 1 2 4 -
p129
aVMicheal Williams CHH 03/29/1990 CHH vs. PHX L 13 2 1 4 25.0 0 0 - 0 0 - 1 3 4 3 0 0 0 2 -
p130
aVRobert Reid CHH 03/29/1990 CHH vs. PHX L 22 4 1 5 20.0 0 0 - 2 2 100.0 0 4 4 0 1 0 1 5 -
p131
aVMuggsy Bogues CHH 03/28/1990 CHH @ DET L 33 15 7 11 63.6 0 0 - 1 2 50.0 1 2 3 6 3 0 1 0 -
p132
aVJ.R. Reid CHH 03/28/1990 CHH @ DET L 15 2 1 4 25.0 0 0 - 0 0 - 2 3 5 0 2 0 1 2 -
p133
aVDell Curry CHH 03/28/1990 CHH @ DET L 33 15 7 14 50.0 0 0 - 1 1 100.0 0 3 3 4 1 0 1 1 -
p134
aVMicheal Williams CHH 03/28/1990 CHH @ DET L 15 9 3 5 60.0 0 0 - 3 4 75.0 0 0 0 2 1 0 1 1 -
p135
aVRichard Anderson CHH 03/28/1990 CHH @ DET L 22 11 5 10 50.0 1 2 50.0 0 0 - 0 2 2 4 1 0 0 2 -
p136
aVRandolph Keys CHH 03/28/1990 CHH @ DET L 22 7 2 6 33.3 0 0 - 3 4 75.0 2 4 6 0 2 0 2 5 -
p137
aVArmen Gilliam CHH 03/28/1990 CHH @ DET L 30 10 1 9 11.1 0 1 0.0 8 10 80.0 2 3 5 0 0 0 5 4 -
p138
aVBrian Rowsom CHH 03/28/1990 CHH @ DET L 12 8 4 5 80.0 0 0 - 0 1 0.0 1 2 3 1 0 1 0 1 -
p139
aVKelly Tripucka CHH 03/28/1990 CHH @ DET L 20 12 5 8 62.5 0 0 - 2 2 100.0 0 0 0 1 2 0 6 5 -
p140
aVKenny Gattison CHH 03/28/1990 CHH @ DET L 17 4 2 5 40.0 0 0 - 0 0 - 2 2 4 1 0 0 1 5 -
p141
aVRobert Reid CHH 03/28/1990 CHH @ DET L 21 4 1 5 20.0 1 1 100.0 1 2 50.0 1 3 4 1 1 0 1 4 -
p142
aVMichael Holton CHH 03/26/1990 CHH vs. NJN W 4 0 0 0 - 0 0 - 0 0 - 0 0 0 1 0 0 0 2 -
p143
aVMuggsy Bogues CHH 03/26/1990 CHH vs. NJN W 28 13 5 6 83.3 0 0 - 3 4 75.0 0 5 5 7 1 0 3 4 -
p144
aVRandolph Keys CHH 03/26/1990 CHH vs. NJN W 18 6 2 9 22.2 0 0 - 2 2 100.0 3 2 5 1 1 0 2 3 -
p145
aVRobert Reid CHH 03/26/1990 CHH vs. NJN W 14 3 1 6 16.7 0 0 - 1 2 50.0 1 0 1 0 0 0 1 1 -
p146
aVJ.R. Reid CHH 03/26/1990 CHH vs. NJN W 34 7 3 10 30.0 0 1 0.0 1 2 50.0 0 3 3 2 1 1 0 2 -
p147
aVKelly Tripucka CHH 03/26/1990 CHH vs. NJN W 29 8 3 9 33.3 0 0 - 2 2 100.0 2 3 5 2 2 0 3 1 -
p148
aVArmen Gilliam CHH 03/26/1990 CHH vs. NJN W 40 28 10 19 52.6 0 0 - 8 10 80.0 4 7 11 3 3 1 3 3 -
p149
aVKenny Gattison CHH 03/26/1990 CHH vs. NJN W 22 4 2 4 50.0 0 0 - 0 0 - 0 1 1 1 0 0 1 3 -
p150
aVMicheal Williams CHH 03/26/1990 CHH vs. NJN W 16 12 4 4 100.0 0 0 - 4 8 50.0 0 2 2 3 3 0 0 2 -
p151
aVDell Curry CHH 03/26/1990 CHH vs. NJN W 35 16 7 16 43.8 2 5 40.0 0 0 - 0 3 3 3 1 0 1 2 -
p152
aVRandolph Keys CHH 03/24/1990 CHH @ ATL L 20 6 3 7 42.9 0 1 0.0 0 0 - 0 0 0 5 1 0 0 2 -
p153
aVJ.R. Reid CHH 03/24/1990 CHH @ ATL L 33 16 7 8 87.5 0 0 - 2 2 100.0 2 3 5 2 0 0 2 4 -
p154
aVRichard Anderson CHH 03/24/1990 CHH @ ATL L 4 2 1 2 50.0 0 1 0.0 0 0 - 0 1 1 0 0 0 0 2 -
p155
aVKenny Gattison CHH 03/24/1990 CHH @ ATL L 17 5 2 4 50.0 0 0 - 1 2 50.0 1 2 3 0 1 0 2 2 -
p156
aVDell Curry CHH 03/24/1990 CHH @ ATL L 33 11 5 13 38.5 1 3 33.3 0 0 - 0 2 2 3 2 0 1 3 -
p157
aVRobert Reid CHH 03/24/1990 CHH @ ATL L 15 4 2 3 66.7 0 0 - 0 0 - 0 1 1 0 0 1 3 4 -
p158
aVMuggsy Bogues CHH 03/24/1990 CHH @ ATL L 40 18 7 13 53.8 0 0 - 4 4 100.0 0 2 2 12 2 0 0 3 -
p159
aVKelly Tripucka CHH 03/24/1990 CHH @ ATL L 30 19 7 10 70.0 2 2 100.0 3 6 50.0 2 4 6 4 1 0 3 4 -
p160
aVArmen Gilliam CHH 03/24/1990 CHH @ ATL L 36 24 11 16 68.8 0 0 - 2 3 66.7 2 6 8 0 1 1 2 4 -
p161
aVBrian Rowsom CHH 03/24/1990 CHH @ ATL L 4 2 1 3 33.3 0 0 - 0 0 - 1 0 1 1 0 2 0 1 -
p162
aVMicheal Williams CHH 03/24/1990 CHH @ ATL L 8 2 1 3 33.3 0 0 - 0 0 - 1 0 1 1 0 0 0 1 -
p163
aVJ.R. Reid CHH 03/23/1990 CHH vs. NYK W 35 12 5 11 45.5 0 0 - 2 2 100.0 1 6 7 0 1 1 2 6 -
p164
aVArmen Gilliam CHH 03/23/1990 CHH vs. NYK W 43 26 11 21 52.4 0 0 - 4 6 66.7 5 7 12 5 1 1 2 2 -
p165
aVKenny Gattison CHH 03/23/1990 CHH vs. NYK W 16 11 4 7 57.1 0 0 - 3 4 75.0 3 1 4 0 1 0 1 5 -
p166
aVKelly Tripucka CHH 03/23/1990 CHH vs. NYK W 29 13 4 10 40.0 1 1 100.0 4 4 100.0 0 5 5 2 0 0 3 3 -
p167
aVRandolph Keys CHH 03/23/1990 CHH vs. NYK W 21 4 2 7 28.6 0 0 - 0 0 - 2 3 5 1 0 0 1 1 -
p168
aVMuggsy Bogues CHH 03/23/1990 CHH vs. NYK W 40 14 4 9 44.4 0 0 - 6 6 100.0 1 0 1 15 3 0 2 4 -
p169
aVMicheal Williams CHH 03/23/1990 CHH vs. NYK W 8 0 0 3 0.0 0 0 - 0 0 - 0 3 3 4 1 0 1 1 -
p170
aVRobert Reid CHH 03/23/1990 CHH vs. NYK W 12 2 1 2 50.0 0 0 - 0 0 - 0 0 0 2 1 0 1 2 -
p171
aVDell Curry CHH 03/23/1990 CHH vs. NYK W 36 24 10 14 71.4 3 4 75.0 1 1 100.0 0 2 2 1 1 0 3 2 -
p172
aVMicheal Williams CHH 03/21/1990 CHH @ PHX W 12 2 0 4 0.0 0 2 0.0 2 2 100.0 1 1 2 4 2 0 2 3 -
p173
aVArmen Gilliam CHH 03/21/1990 CHH @ PHX W 45 22 10 14 71.4 0 0 - 2 7 28.6 3 7 10 5 2 3 5 6 -
p174
aVRandolph Keys CHH 03/21/1990 CHH @ PHX W 17 4 2 4 50.0 0 0 - 0 0 - 1 3 4 1 0 0 0 2 -
p175
aVJ.R. Reid CHH 03/21/1990 CHH @ PHX W 36 6 3 9 33.3 0 0 - 0 0 - 1 10 11 0 1 1 3 4 -
p176
aVKenny Gattison CHH 03/21/1990 CHH @ PHX W 25 11 3 4 75.0 0 0 - 5 6 83.3 1 1 2 1 0 1 1 3 -
p177
aVRobert Reid CHH 03/21/1990 CHH @ PHX W 15 6 3 6 50.0 0 0 - 0 0 - 0 3 3 0 0 1 0 1 -
p178
aVDell Curry CHH 03/21/1990 CHH @ PHX W 38 28 11 21 52.4 3 8 37.5 3 3 100.0 0 2 2 2 1 0 3 3 -
p179
aVMuggsy Bogues CHH 03/21/1990 CHH @ PHX W 41 17 8 13 61.5 0 0 - 1 2 50.0 0 5 5 17 3 0 1 4 -
p180
aVKelly Tripucka CHH 03/21/1990 CHH @ PHX W 36 19 6 12 50.0 0 1 0.0 7 9 77.8 0 1 1 7 0 0 1 4 -
p181
aVArmen Gilliam CHH 03/20/1990 CHH @ LAL L 33 25 12 17 70.6 0 0 - 1 1 100.0 2 4 6 1 0 1 1 1 -
p182
aVKelly Tripucka CHH 03/20/1990 CHH @ LAL L 26 6 1 11 9.1 0 0 - 4 4 100.0 1 2 3 2 0 0 1 1 -
p183
aVJ.R. Reid CHH 03/20/1990 CHH @ LAL L 27 9 4 8 50.0 0 0 - 1 2 50.0 3 6 9 1 1 0 0 4 -
p184
aVBrian Rowsom CHH 03/20/1990 CHH @ LAL L 7 6 2 4 50.0 0 0 - 2 2 100.0 0 2 2 0 1 0 0 1 -
p185
aVRichard Anderson CHH 03/20/1990 CHH @ LAL L 16 6 3 7 42.9 0 2 0.0 0 0 - 2 2 4 2 1 0 1 2 -
p186
aVMichael Holton CHH 03/20/1990 CHH @ LAL L 5 2 1 2 50.0 0 0 - 0 0 - 1 0 1 0 0 0 1 0 -
p187
aVRobert Reid CHH 03/20/1990 CHH @ LAL L 20 4 2 9 22.2 0 0 - 0 1 0.0 0 4 4 1 0 0 2 3 -
p188
aVKenny Gattison CHH 03/20/1990 CHH @ LAL L 13 2 1 4 25.0 0 0 - 0 0 - 2 1 3 1 0 0 1 3 -
p189
aVRandolph Keys CHH 03/20/1990 CHH @ LAL L 27 8 4 10 40.0 0 0 - 0 0 - 3 4 7 2 3 1 3 4 -
p190
aVMuggsy Bogues CHH 03/20/1990 CHH @ LAL L 31 4 2 8 25.0 0 0 - 0 0 - 0 2 2 9 2 0 0 1 -
p191
aVMicheal Williams CHH 03/20/1990 CHH @ LAL L 17 14 5 7 71.4 0 0 - 4 4 100.0 0 1 1 6 1 1 4 4 -
p192
aVDell Curry CHH 03/20/1990 CHH @ LAL L 18 11 5 10 50.0 1 1 100.0 0 0 - 0 0 0 1 1 0 1 3 -
p193
aVKelly Tripucka CHH 03/18/1990 CHH @ LAC W 45 30 13 22 59.1 0 0 - 4 4 100.0 2 6 8 2 4 0 3 2 -
p194
aVRandolph Keys CHH 03/18/1990 CHH @ LAC W 27 17 8 12 66.7 1 1 100.0 0 0 - 1 3 4 1 1 0 2 3 -
p195
aVMuggsy Bogues CHH 03/18/1990 CHH @ LAC W 34 13 3 6 50.0 0 0 - 7 8 87.5 1 1 2 14 4 0 3 1 -
p196
aVMicheal Williams CHH 03/18/1990 CHH @ LAC W 14 6 3 4 75.0 0 0 - 0 0 - 0 1 1 1 1 0 0 4 -
p197
aVKenny Gattison CHH 03/18/1990 CHH @ LAC W 22 11 5 8 62.5 0 0 - 1 3 33.3 1 6 7 0 1 1 1 2 -
p198
aVJ.R. Reid CHH 03/18/1990 CHH @ LAC W 35 7 3 11 27.3 0 0 - 1 1 100.0 1 6 7 1 1 1 2 6 -
p199
aVRobert Reid CHH 03/18/1990 CHH @ LAC W 24 2 1 5 20.0 0 0 - 0 0 - 0 3 3 4 1 0 0 1 -
p200
aVArmen Gilliam CHH 03/18/1990 CHH @ LAC W 39 22 8 16 50.0 0 0 - 6 8 75.0 6 5 11 1 2 0 1 4 -
p201
aVKelly Tripucka CHH 03/16/1990 CHH @ POR L 39 17 5 16 31.3 0 1 0.0 7 7 100.0 0 2 2 5 2 0 2 4 -
p202
aVKenny Gattison CHH 03/16/1990 CHH @ POR L 15 5 2 3 66.7 0 0 - 1 2 50.0 0 1 1 0 0 0 3 1 -
p203
aVJ.R. Reid CHH 03/16/1990 CHH @ POR L 35 10 3 14 21.4 0 0 - 4 4 100.0 3 4 7 1 1 0 1 4 -
p204
aVRandolph Keys CHH 03/16/1990 CHH @ POR L 22 10 4 7 57.1 1 1 100.0 1 2 50.0 1 1 2 1 1 0 2 6 -
p205
aVRichard Anderson CHH 03/16/1990 CHH @ POR L 18 12 4 6 66.7 4 6 66.7 0 0 - 1 3 4 3 2 1 1 2 -
p206
aVRobert Reid CHH 03/16/1990 CHH @ POR L 30 18 7 12 58.3 1 2 50.0 3 5 60.0 1 2 3 1 2 0 1 5 -
p207
aVMuggsy Bogues CHH 03/16/1990 CHH @ POR L 36 20 10 13 76.9 0 1 0.0 0 0 - 1 2 3 7 0 0 3 1 -
p208
aVMicheal Williams CHH 03/16/1990 CHH @ POR L 12 9 4 7 57.1 0 0 - 1 2 50.0 1 0 1 5 1 0 1 2 -
p209
aVArmen Gilliam CHH 03/16/1990 CHH @ POR L 33 8 3 13 23.1 0 0 - 2 2 100.0 0 5 5 1 1 0 2 3 -
p210
aVKelly Tripucka CHH 03/14/1990 CHH @ SEA L 34 27 10 16 62.5 0 0 - 7 8 87.5 0 5 5 6 1 0 3 1 -
p211
aVRobert Reid CHH 03/14/1990 CHH @ SEA L 13 2 1 5 20.0 0 0 - 0 0 - 0 1 1 2 0 0 0 3 -
p212
aVMichael Holton CHH 03/14/1990 CHH @ SEA L 4 0 0 0 - 0 0 - 0 0 - 0 0 0 0 0 0 0 1 -
p213
aVRandolph Keys CHH 03/14/1990 CHH @ SEA L 14 4 2 8 25.0 0 0 - 0 0 - 2 0 2 0 1 0 0 4 -
p214
aVMuggsy Bogues CHH 03/14/1990 CHH @ SEA L 41 13 5 9 55.6 0 0 - 3 4 75.0 0 1 1 11 4 0 4 2 -
p215
aVKenny Gattison CHH 03/14/1990 CHH @ SEA L 17 16 7 9 77.8 0 0 - 2 4 50.0 3 4 7 0 1 0 3 4 -
p216
aVDell Curry CHH 03/14/1990 CHH @ SEA L 37 16 6 18 33.3 1 4 25.0 3 4 75.0 0 1 1 2 2 0 1 2 -
p217
aVArmen Gilliam CHH 03/14/1990 CHH @ SEA L 40 17 7 10 70.0 0 0 - 3 4 75.0 2 6 8 1 2 0 3 2 -
p218
aVRichard Anderson CHH 03/14/1990 CHH @ SEA L 6 0 0 1 0.0 0 0 - 0 0 - 0 1 1 0 0 0 1 2 -
p219
aVMicheal Williams CHH 03/14/1990 CHH @ SEA L 3 0 0 0 - 0 0 - 0 0 - 0 0 0 0 0 0 1 0 -
p220
aVJ.R. Reid CHH 03/14/1990 CHH @ SEA L 31 5 2 5 40.0 0 0 - 1 2 50.0 2 7 9 0 0 0 3 5 -
p221
aVRobert Reid CHH 03/12/1990 CHH vs. LAL L 39 15 7 15 46.7 1 2 50.0 0 0 - 1 5 6 5 4 0 0 5 -
p222
aVKenny Gattison CHH 03/12/1990 CHH vs. LAL L 9 4 1 1 100.0 0 0 - 2 2 100.0 1 2 3 0 0 0 2 2 -
p223
aVRichard Anderson CHH 03/12/1990 CHH vs. LAL L 14 0 0 3 0.0 0 2 0.0 0 0 - 0 3 3 3 0 0 0 2 -
p224
aVKelly Tripucka CHH 03/12/1990 CHH vs. LAL L 36 31 13 20 65.0 1 3 33.3 4 5 80.0 4 6 10 3 0 0 0 5 -
p225
aVMichael Holton CHH 03/12/1990 CHH vs. LAL L 5 0 0 1 0.0 0 0 - 0 0 - 0 0 0 0 0 0 0 0 -
p226
aVMuggsy Bogues CHH 03/12/1990 CHH vs. LAL L 43 21 10 15 66.7 0 0 - 1 2 50.0 1 2 3 7 2 0 4 2 -
p227
aVRandolph Keys CHH 03/12/1990 CHH vs. LAL L 22 16 6 13 46.2 1 3 33.3 3 4 75.0 1 0 1 2 0 1 2 5 -
p228
aVJ.R. Reid CHH 03/12/1990 CHH vs. LAL L 34 8 2 6 33.3 0 0 - 4 4 100.0 0 9 9 0 0 0 0 4 -
p229
aVArmen Gilliam CHH 03/12/1990 CHH vs. LAL L 38 7 3 12 25.0 0 0 - 1 2 50.0 0 2 2 3 1 0 4 0 -
p230
aVJ.R. Reid CHH 03/11/1990 CHH vs. DET L 31 10 5 13 38.5 0 0 - 0 0 - 5 5 10 0 0 0 4 5 -
p231
aVRex Chapman CHH 03/11/1990 CHH vs. DET L 12 4 2 6 33.3 0 1 0.0 0 0 - 1 1 2 3 0 0 1 1 -
p232
aVKenny Gattison CHH 03/11/1990 CHH vs. DET L 18 2 1 6 16.7 0 0 - 0 0 - 3 1 4 0 0 1 0 1 -
p233
aVArmen Gilliam CHH 03/11/1990 CHH vs. DET L 42 20 8 12 66.7 0 0 - 4 6 66.7 0 7 7 1 0 1 2 1 -
p234
aVDell Curry CHH 03/11/1990 CHH vs. DET L 34 21 10 17 58.8 1 1 100.0 0 0 - 0 1 1 3 3 0 3 5 -
p235
aVRandolph Keys CHH 03/11/1990 CHH vs. DET L 14 6 2 4 50.0 0 0 - 2 2 100.0 0 2 2 0 0 0 1 3 -
p236
aVKelly Tripucka CHH 03/11/1990 CHH vs. DET L 34 8 3 9 33.3 0 0 - 2 2 100.0 1 6 7 3 2 0 1 2 -
p237
aVRobert Reid CHH 03/11/1990 CHH vs. DET L 24 6 3 6 50.0 0 0 - 0 0 - 1 2 3 2 0 0 0 2 -
p238
aVMuggsy Bogues CHH 03/11/1990 CHH vs. DET L 31 11 4 11 36.4 0 1 0.0 3 3 100.0 1 2 3 9 6 0 0 2 -
p239
aVRex Chapman CHH 03/08/1990 CHH @ SAC L 38 38 12 22 54.5 1 3 33.3 13 13 100.0 1 2 3 2 1 0 3 3 -
p240
aVJ.R. Reid CHH 03/08/1990 CHH @ SAC L 31 7 2 7 28.6 0 0 - 3 4 75.0 2 6 8 1 0 1 3 5 -
p241
aVRichard Anderson CHH 03/08/1990 CHH @ SAC L 8 3 1 2 50.0 1 2 50.0 0 0 - 0 1 1 0 1 0 0 2 -
p242
aVRobert Reid CHH 03/08/1990 CHH @ SAC L 8 0 0 0 - 0 0 - 0 0 - 1 0 1 3 1 0 0 1 -
p243
aVDell Curry CHH 03/08/1990 CHH @ SAC L 22 12 5 12 41.7 0 1 0.0 2 2 100.0 1 2 3 1 1 0 1 2 -
p244
aVArmen Gilliam CHH 03/08/1990 CHH @ SAC L 26 4 1 9 11.1 0 0 - 2 3 66.7 2 2 4 2 0 0 5 4 -
p245
aVMuggsy Bogues CHH 03/08/1990 CHH @ SAC L 36 10 5 6 83.3 0 1 0.0 0 0 - 0 3 3 13 2 0 0 6 -
p246
aVRandolph Keys CHH 03/08/1990 CHH @ SAC L 17 2 1 5 20.0 0 0 - 0 0 - 0 1 1 0 0 0 0 2 -
p247
aVKelly Tripucka CHH 03/08/1990 CHH @ SAC L 32 19 8 11 72.7 0 1 0.0 3 4 75.0 0 4 4 2 1 0 3 2 -
p248
aVKenny Gattison CHH 03/08/1990 CHH @ SAC L 22 7 3 5 60.0 0 0 - 1 1 100.0 3 3 6 1 1 1 0 5 -
p249
aVRandolph Keys CHH 03/06/1990 CHH @ DEN L 29 14 5 14 35.7 0 1 0.0 4 4 100.0 0 2 2 2 4 1 0 4 -
p250
aVKenny Gattison CHH 03/06/1990 CHH @ DEN L 23 8 3 5 60.0 0 0 - 2 3 66.7 0 1 1 2 0 2 3 4 -
p251
aVMichael Holton CHH 03/06/1990 CHH @ DEN L 9 2 1 2 50.0 0 0 - 0 0 - 0 1 1 1 0 0 2 4 -
p252
aVRex Chapman CHH 03/06/1990 CHH @ DEN L 33 22 7 18 38.9 1 2 50.0 7 9 77.8 2 7 9 4 1 0 4 0 -
p253
aVArmen Gilliam CHH 03/06/1990 CHH @ DEN L 21 6 3 6 50.0 0 0 - 0 0 - 2 5 7 2 0 0 2 6 -
p254
aVRichard Anderson CHH 03/06/1990 CHH @ DEN L 18 15 5 7 71.4 1 2 50.0 4 5 80.0 2 5 7 2 1 1 1 1 -
p255
aVKelly Tripucka CHH 03/06/1990 CHH @ DEN L 24 6 2 5 40.0 0 0 - 2 2 100.0 0 2 2 0 1 0 4 0 -
p256
aVBrian Rowsom CHH 03/06/1990 CHH @ DEN L 6 0 0 2 0.0 0 0 - 0 0 - 0 1 1 0 0 0 0 0 -
p257
aVJ.R. Reid CHH 03/06/1990 CHH @ DEN L 27 10 5 7 71.4 0 0 - 0 0 - 1 3 4 0 1 1 3 2 -
p258
aVRobert Reid CHH 03/06/1990 CHH @ DEN L 21 11 5 9 55.6 0 0 - 1 2 50.0 1 3 4 3 0 0 4 3 -
p259
aVMuggsy Bogues CHH 03/06/1990 CHH @ DEN L 29 2 1 9 11.1 0 1 0.0 0 0 - 0 1 1 2 0 1 0 2 -
p260
aVRichard Anderson CHH 03/05/1990 CHH @ GOS L 9 6 2 3 66.7 2 3 66.7 0 0 - 0 1 1 2 1 0 0 2 -
p261
aVDell Curry CHH 03/05/1990 CHH @ GOS L 23 15 7 13 53.8 1 2 50.0 0 0 - 2 1 3 1 0 0 1 1 -
p262
aVArmen Gilliam CHH 03/05/1990 CHH @ GOS L 28 7 1 6 16.7 0 0 - 5 6 83.3 2 7 9 3 1 1 3 4 -
p263
aVRobert Reid CHH 03/05/1990 CHH @ GOS L 19 8 3 4 75.0 0 0 - 2 2 100.0 1 1 2 1 0 0 1 2 -
p264
aVJ.R. Reid CHH 03/05/1990 CHH @ GOS L 10 3 1 5 20.0 0 0 - 1 2 50.0 2 0 2 0 1 0 2 2 -
p265
aVRandolph Keys CHH 03/05/1990 CHH @ GOS L 28 17 7 17 41.2 0 3 0.0 3 3 100.0 1 4 5 2 0 0 2 5 -
p266
aVRex Chapman CHH 03/05/1990 CHH @ GOS L 26 17 7 10 70.0 0 1 0.0 3 7 42.9 1 3 4 4 2 0 3 3 -
p267
aVMuggsy Bogues CHH 03/05/1990 CHH @ GOS L 35 12 6 10 60.0 0 1 0.0 0 0 - 1 0 1 10 3 0 3 4 -
p268
aVBrian Rowsom CHH 03/05/1990 CHH @ GOS L 4 2 0 0 - 0 0 - 2 4 50.0 0 0 0 2 0 0 0 0 -
p269
aVMichael Holton CHH 03/05/1990 CHH @ GOS L 7 2 1 3 33.3 0 0 - 0 0 - 0 0 0 1 0 0 2 3 -
p270
aVKelly Tripucka CHH 03/05/1990 CHH @ GOS L 25 13 6 10 60.0 0 0 - 1 1 100.0 1 3 4 4 1 0 2 5 -
p271
aVKenny Gattison CHH 03/05/1990 CHH @ GOS L 26 15 4 7 57.1 0 0 - 7 8 87.5 2 4 6 2 3 1 3 3 -
p272
aVRichard Anderson CHH 03/03/1990 CHH vs. SAC L 11 5 2 6 33.3 1 1 100.0 0 0 - 1 3 4 1 0 0 0 1 -
p273
aVKenny Gattison CHH 03/03/1990 CHH vs. SAC L 36 15 6 10 60.0 0 0 - 3 3 100.0 2 5 7 3 2 2 0 4 -
p274
aVRandolph Keys CHH 03/03/1990 CHH vs. SAC L 25 15 6 10 60.0 0 1 0.0 3 6 50.0 1 2 3 0 2 0 2 4 -
p275
aVMichael Holton CHH 03/03/1990 CHH vs. SAC L 5 0 0 1 0.0 0 0 - 0 0 - 0 0 0 2 0 0 0 0 -
p276
aVDell Curry CHH 03/03/1990 CHH vs. SAC L 21 10 5 10 50.0 0 0 - 0 0 - 1 1 2 1 0 0 2 1 -
p277
aVMuggsy Bogues CHH 03/03/1990 CHH vs. SAC L 43 22 10 14 71.4 0 0 - 2 2 100.0 0 3 3 14 4 0 1 2 -
p278
aVRex Chapman CHH 03/03/1990 CHH vs. SAC L 27 16 6 15 40.0 0 0 - 4 6 66.7 1 1 2 1 0 0 2 3 -
p279
aVKelly Tripucka CHH 03/03/1990 CHH vs. SAC L 23 6 2 10 20.0 0 0 - 2 2 100.0 1 5 6 2 2 0 0 2 -
p280
aVJ.R. Reid CHH 03/03/1990 CHH vs. SAC L 39 12 5 12 41.7 0 0 - 2 2 100.0 7 7 14 1 1 1 2 3 -
p281
aVBrian Rowsom CHH 03/03/1990 CHH vs. SAC L 10 2 1 6 16.7 0 0 - 0 0 - 1 2 3 1 0 0 0 0 -
p282
aVJ.R. Reid CHH 03/01/1990 CHH vs. LAC W 38 14 5 8 62.5 0 0 - 4 8 50.0 2 8 10 0 4 3 0 5 -
p283
aVRex Chapman CHH 03/01/1990 CHH vs. LAC W 33 21 8 16 50.0 1 2 50.0 4 6 66.7 3 1 4 3 0 0 0 0 -
p284
aVKenny Gattison CHH 03/01/1990 CHH vs. LAC W 24 8 3 4 75.0 0 0 - 2 2 100.0 1 2 3 2 2 1 2 3 -
p285
aVKelly Tripucka CHH 03/01/1990 CHH vs. LAC W 24 10 5 10 50.0 0 1 0.0 0 0 - 1 2 3 2 1 0 0 3 -
p286
aVMichael Holton CHH 03/01/1990 CHH vs. LAC W 4 0 0 2 0.0 0 0 - 0 0 - 0 0 0 0 0 0 0 0 -
p287
aVArmen Gilliam CHH 03/01/1990 CHH vs. LAC W 44 21 8 14 57.1 0 0 - 5 8 62.5 3 8 11 2 1 1 2 5 -
p288
aVRandolph Keys CHH 03/01/1990 CHH vs. LAC W 29 16 8 17 47.1 0 1 0.0 0 0 - 1 3 4 5 5 0 2 4 -
p289
aVDell Curry CHH 03/01/1990 CHH vs. LAC W 22 16 7 13 53.8 0 0 - 2 2 100.0 0 2 2 1 2 2 3 2 -
p290
aVMuggsy Bogues CHH 03/01/1990 CHH vs. LAC W 47 12 4 5 80.0 0 0 - 4 5 80.0 2 3 5 17 2 0 4 3 -
p291
aVJ.R. Reid CHH 02/27/1990 CHH @ ORL L 39 23 9 14 64.3 0 0 - 5 6 83.3 3 6 9 3 0 2 2 4 -
p292
aVRex Chapman CHH 02/27/1990 CHH @ ORL L 31 11 4 16 25.0 1 5 20.0 2 4 50.0 0 2 2 1 0 0 3 2 -
p293
aVMuggsy Bogues CHH 02/27/1990 CHH @ ORL L 41 13 5 9 55.6 0 0 - 3 4 75.0 0 1 1 12 5 0 2 0 -
p294
aVMichael Holton CHH 02/27/1990 CHH @ ORL L 7 6 3 3 100.0 0 0 - 0 0 - 0 0 0 1 0 0 0 1 -
p295
aVRandolph Keys CHH 02/27/1990 CHH @ ORL L 20 12 4 7 57.1 2 2 100.0 2 2 100.0 0 2 2 5 0 0 0 4 -
p296
aVKelly Tripucka CHH 02/27/1990 CHH @ ORL L 28 9 4 10 40.0 1 1 100.0 0 0 - 1 5 6 2 0 0 3 3 -
p297
aVArmen Gilliam CHH 02/27/1990 CHH @ ORL L 39 16 6 18 33.3 0 0 - 4 4 100.0 6 7 13 1 2 0 4 2 -
p298
aVDell Curry CHH 02/27/1990 CHH @ ORL L 17 13 6 14 42.9 1 1 100.0 0 0 - 1 0 1 1 1 0 0 1 -
p299
aVKenny Gattison CHH 02/27/1990 CHH @ ORL L 18 6 3 4 75.0 0 0 - 0 2 0.0 1 5 6 1 1 0 1 1 -
p300
aVRex Chapman CHH 02/25/1990 CHH @ CLE L 27 15 6 15 40.0 0 0 - 3 5 60.0 3 5 8 4 0 0 0 1 -
p301
aVBrian Rowsom CHH 02/25/1990 CHH @ CLE L 2 4 2 2 100.0 0 0 - 0 0 - 0 0 0 0 0 0 0 0 -
p302
aVRandolph Keys CHH 02/25/1990 CHH @ CLE L 14 5 2 8 25.0 0 0 - 1 2 50.0 1 4 5 1 1 0 2 3 -
p303
aVKelly Tripucka CHH 02/25/1990 CHH @ CLE L 23 9 3 12 25.0 0 0 - 3 3 100.0 1 3 4 3 0 2 0 2 -
p304
aVJ.R. Reid CHH 02/25/1990 CHH @ CLE L 31 6 3 7 42.9 0 0 - 0 0 - 3 4 7 1 1 2 3 6 -
p305
aVDell Curry CHH 02/25/1990 CHH @ CLE L 21 7 3 13 23.1 1 3 33.3 0 0 - 0 4 4 3 1 1 2 3 -
p306
aVRichard Anderson CHH 02/25/1990 CHH @ CLE L 3 2 1 2 50.0 0 1 0.0 0 0 - 0 1 1 0 0 1 0 0 -
p307
aVMuggsy Bogues CHH 02/25/1990 CHH @ CLE L 43 6 3 6 50.0 0 0 - 0 0 - 0 0 0 11 1 0 2 2 -
p308
aVKenny Gattison CHH 02/25/1990 CHH @ CLE L 21 1 0 2 0.0 0 0 - 1 2 50.0 2 3 5 0 1 0 5 4 -
p309
aVRobert Reid CHH 02/25/1990 CHH @ CLE L 11 3 1 4 25.0 0 1 0.0 1 2 50.0 2 0 2 2 1 0 0 2 -
p310
aVMichael Holton CHH 02/25/1990 CHH @ CLE L 5 0 0 0 - 0 0 - 0 0 - 0 0 0 0 0 0 1 0 -
p311
aVArmen Gilliam CHH 02/25/1990 CHH @ CLE L 39 28 11 15 73.3 0 0 - 6 7 85.7 7 7 14 2 0 1 6 1 -
p312
aVKenny Gattison CHH 02/23/1990 CHH vs. MIL L 17 11 3 4 75.0 0 0 - 5 6 83.3 2 2 4 0 0 0 4 4 -
p313
aVRex Chapman CHH 02/23/1990 CHH vs. MIL L 29 12 4 9 44.4 2 4 50.0 2 4 50.0 0 2 2 2 0 0 1 4 -
p314
aVMuggsy Bogues CHH 02/23/1990 CHH vs. MIL L 38 8 4 7 57.1 0 0 - 0 0 - 0 2 2 9 0 0 2 5 -
p315
aVArmen Gilliam CHH 02/23/1990 CHH vs. MIL L 44 23 7 14 50.0 0 0 - 9 11 81.8 3 9 12 3 1 1 3 5 -
p316
aVDell Curry CHH 02/23/1990 CHH vs. MIL L 22 9 4 11 36.4 0 0 - 1 1 100.0 0 2 2 5 1 1 1 1 -
p317
aVMichael Holton CHH 02/23/1990 CHH vs. MIL L 7 1 0 2 0.0 0 0 - 1 2 50.0 0 0 0 3 0 0 0 3 -
p318
aVJ.R. Reid CHH 02/23/1990 CHH vs. MIL L 33 12 4 9 44.4 0 0 - 4 6 66.7 3 4 7 2 0 2 0 4 -
p319
aVKelly Tripucka CHH 02/23/1990 CHH vs. MIL L 19 8 3 8 37.5 0 1 0.0 2 2 100.0 1 2 3 2 0 0 0 0 -
p320
aVRobert Reid CHH 02/23/1990 CHH vs. MIL L 6 0 0 2 0.0 0 0 - 0 0 - 0 0 0 0 1 0 0 0 -
p321
aVRandolph Keys CHH 02/23/1990 CHH vs. MIL L 25 16 7 12 58.3 1 2 50.0 1 3 33.3 4 4 8 2 0 0 3 5 -
p322
aVJ.R. Reid CHH 02/20/1990 CHH vs. POR L 42 12 3 7 42.9 0 0 - 6 8 75.0 2 5 7 2 1 1 4 3 -
p323
aVMuggsy Bogues CHH 02/20/1990 CHH vs. POR L 33 10 5 9 55.6 0 1 0.0 0 0 - 0 2 2 14 3 0 0 4 -
p324
aVRex Chapman CHH 02/20/1990 CHH vs. POR L 35 24 9 16 56.3 0 0 - 6 6 100.0 1 5 6 1 2 0 5 5 -
p325
aVKenny Gattison CHH 02/20/1990 CHH vs. POR L 13 2 1 2 50.0 0 0 - 0 0 - 0 1 1 0 0 0 0 2 -
p326
aVRobert Reid CHH 02/20/1990 CHH vs. POR L 12 4 2 8 25.0 0 0 - 0 0 - 1 0 1 0 0 0 0 2 -
p327
aVArmen Gilliam CHH 02/20/1990 CHH vs. POR L 41 15 4 10 40.0 0 0 - 7 8 87.5 1 6 7 1 2 0 3 5 -
p328
aVDell Curry CHH 02/20/1990 CHH vs. POR L 28 15 6 13 46.2 0 3 0.0 3 3 100.0 1 4 5 8 3 1 2 3 -
p329
aVKelly Tripucka CHH 02/20/1990 CHH vs. POR L 36 12 6 14 42.9 0 2 0.0 0 2 0.0 1 7 8 3 0 0 0 4 -
p330
aVJerry Sichting CHH 02/18/1990 CHH vs. SEA L 9 0 0 2 0.0 0 0 - 0 0 - 0 0 0 1 0 0 0 0 -
p331
aVRex Chapman CHH 02/18/1990 CHH vs. SEA L 26 7 2 8 25.0 0 0 - 3 3 100.0 1 5 6 0 1 0 4 0 -
p332
aVMuggsy Bogues CHH 02/18/1990 CHH vs. SEA L 38 14 5 7 71.4 0 0 - 4 4 100.0 1 1 2 6 1 0 4 0 -
p333
aVBrian Rowsom CHH 02/18/1990 CHH vs. SEA L 5 7 3 5 60.0 0 0 - 1 1 100.0 1 3 4 0 1 1 0 0 -
p334
aVArmen Gilliam CHH 02/18/1990 CHH vs. SEA L 39 22 8 13 61.5 0 0 - 6 9 66.7 3 5 8 0 1 2 4 3 -
p335
aVRichard Anderson CHH 02/18/1990 CHH vs. SEA L 5 0 0 1 0.0 0 0 - 0 0 - 0 0 0 0 0 0 1 2 -
p336
aVKelly Tripucka CHH 02/18/1990 CHH vs. SEA L 24 2 1 7 14.3 0 0 - 0 0 - 3 3 6 6 1 1 1 1 -
p337
aVDell Curry CHH 02/18/1990 CHH vs. SEA L 31 2 1 12 8.3 0 2 0.0 0 0 - 0 1 1 1 0 0 1 1 -
p338
aVRobert Reid CHH 02/18/1990 CHH vs. SEA L 16 3 0 6 0.0 0 1 0.0 3 4 75.0 0 2 2 0 0 0 0 3 -
p339
aVKenny Gattison CHH 02/18/1990 CHH vs. SEA L 20 6 2 2 100.0 0 0 - 2 2 100.0 0 4 4 0 1 0 3 3 -
p340
aVJ.R. Reid CHH 02/18/1990 CHH vs. SEA L 27 7 3 7 42.9 0 0 - 1 2 50.0 1 5 6 0 0 0 2 0 -
p341
aVRobert Reid CHH 02/16/1990 CHH vs. DEN W 26 19 9 11 81.8 0 0 - 1 1 100.0 0 3 3 2 0 0 1 4 -
p342
aVDell Curry CHH 02/16/1990 CHH vs. DEN W 20 8 4 7 57.1 0 1 0.0 0 0 - 0 0 0 3 1 0 2 2 -
p343
aVKenny Gattison CHH 02/16/1990 CHH vs. DEN W 25 14 5 9 55.6 0 0 - 4 6 66.7 3 3 6 1 1 3 0 5 -
p344
aVMuggsy Bogues CHH 02/16/1990 CHH vs. DEN W 39 12 4 8 50.0 0 0 - 4 4 100.0 2 3 5 11 1 0 1 1 -
p345
aVArmen Gilliam CHH 02/16/1990 CHH vs. DEN W 32 19 7 10 70.0 0 0 - 5 8 62.5 3 4 7 2 3 0 3 6 -
p346
aVKelly Tripucka CHH 02/16/1990 CHH vs. DEN W 22 10 3 10 30.0 0 0 - 4 4 100.0 0 3 3 0 0 0 4 2 -
p347
aVRichard Anderson CHH 02/16/1990 CHH vs. DEN W 5 2 0 1 0.0 0 0 - 2 2 100.0 1 0 1 0 0 1 0 0 -
p348
aVRex Chapman CHH 02/16/1990 CHH vs. DEN W 35 13 5 16 31.3 0 0 - 3 4 75.0 0 7 7 4 0 0 2 1 -
p349
aVJ.R. Reid CHH 02/16/1990 CHH vs. DEN W 36 16 6 10 60.0 0 0 - 4 5 80.0 1 7 8 1 1 1 3 4 -
p350
aVRichard Anderson CHH 02/14/1990 CHH @ MIN L 6 0 0 1 0.0 0 1 0.0 0 0 - 2 0 2 1 0 0 0 0 -
p351
aVKelly Tripucka CHH 02/14/1990 CHH @ MIN L 31 15 6 12 50.0 0 0 - 3 3 100.0 1 5 6 4 1 0 4 4 -
p352
aVRex Chapman CHH 02/14/1990 CHH @ MIN L 32 8 3 13 23.1 0 0 - 2 2 100.0 0 1 1 2 1 0 2 2 -
p353
aVRobert Reid CHH 02/14/1990 CHH @ MIN L 21 6 2 8 25.0 0 0 - 2 2 100.0 2 2 4 3 1 0 1 2 -
p354
aVKenny Gattison CHH 02/14/1990 CHH @ MIN L 4 0 0 3 0.0 0 0 - 0 0 - 0 0 0 0 0 0 0 1 -
p355
aVDell Curry CHH 02/14/1990 CHH @ MIN L 25 19 8 18 44.4 2 3 66.7 1 1 100.0 0 4 4 1 1 1 2 3 -
p356
aVJ.R. Reid CHH 02/14/1990 CHH @ MIN L 40 16 6 13 46.2 0 0 - 4 5 80.0 4 6 10 0 1 3 1 3 -
p357
aVMuggsy Bogues CHH 02/14/1990 CHH @ MIN L 39 4 2 5 40.0 0 1 0.0 0 0 - 0 2 2 7 1 1 2 2 -
p358
aVArmen Gilliam CHH 02/14/1990 CHH @ MIN L 42 18 6 10 60.0 0 1 0.0 6 8 75.0 5 6 11 2 0 0 2 5 -
p359
aVMuggsy Bogues CHH 02/13/1990 CHH @ IND L 36 13 6 11 54.5 1 2 50.0 0 0 - 0 2 2 10 2 0 2 3 -
p360
aVDell Curry CHH 02/13/1990 CHH @ IND L 25 12 5 14 35.7 2 5 40.0 0 0 - 0 2 2 3 2 0 1 1 -
p361
aVBrian Rowsom CHH 02/13/1990 CHH @ IND L 3 0 0 1 0.0 0 0 - 0 0 - 0 0 0 0 0 0 0 1 -
p362
aVRichard Anderson CHH 02/13/1990 CHH @ IND L 10 4 1 1 100.0 1 1 100.0 1 2 50.0 0 1 1 0 0 0 0 2 -
p363
aVJerry Sichting CHH 02/13/1990 CHH @ IND L 4 2 1 1 100.0 0 0 - 0 0 - 0 0 0 1 1 0 0 1 -
p364
aVRex Chapman CHH 02/13/1990 CHH @ IND L 36 20 9 17 52.9 2 3 66.7 0 0 - 0 1 1 1 1 1 3 3 -
p365
aVArmen Gilliam CHH 02/13/1990 CHH @ IND L 36 15 5 12 41.7 0 0 - 5 10 50.0 4 3 7 1 1 0 2 4 -
p366
aVRobert Reid CHH 02/13/1990 CHH @ IND L 15 9 4 4 100.0 0 0 - 1 2 50.0 0 1 1 6 0 0 1 1 -
p367
aVStuart Gray CHH 02/13/1990 CHH @ IND L 4 2 1 1 100.0 0 0 - 0 0 - 0 1 1 1 0 0 0 2 -
p368
aVJ.R. Reid CHH 02/13/1990 CHH @ IND L 26 8 3 7 42.9 0 0 - 2 4 50.0 2 4 6 0 4 0 1 5 -
p369
aVKenny Gattison CHH 02/13/1990 CHH @ IND L 17 9 4 7 57.1 0 0 - 1 2 50.0 0 2 2 0 2 1 1 3 -
p370
aVKelly Tripucka CHH 02/13/1990 CHH @ IND L 28 11 3 9 33.3 1 1 100.0 4 5 80.0 1 0 1 1 0 0 1 1 -
p371
aVJ.R. Reid CHH 02/08/1990 CHH vs. UTH L 33 5 2 9 22.2 0 0 - 1 3 33.3 3 6 9 0 2 1 0 4 -
p372
aVArmen Gilliam CHH 02/08/1990 CHH vs. UTH L 37 15 6 13 46.2 0 0 - 3 4 75.0 2 7 9 2 4 2 2 1 -
p373
aVMuggsy Bogues CHH 02/08/1990 CHH vs. UTH L 35 6 2 10 20.0 0 1 0.0 2 2 100.0 3 1 4 5 2 0 1 3 -
p374
aVRex Chapman CHH 02/08/1990 CHH vs. UTH L 27 10 4 16 25.0 0 3 0.0 2 2 100.0 0 2 2 3 0 0 1 3 -
p375
aVKelly Tripucka CHH 02/08/1990 CHH vs. UTH L 34 12 6 17 35.3 0 1 0.0 0 0 - 1 6 7 3 0 1 0 1 -
p376
aVJerry Sichting CHH 02/08/1990 CHH vs. UTH L 13 2 1 2 50.0 0 0 - 0 0 - 0 0 0 1 0 0 0 0 -
p377
aVRobert Reid CHH 02/08/1990 CHH vs. UTH L 13 4 2 6 33.3 0 0 - 0 0 - 2 2 4 1 1 0 2 3 -
p378
aVDell Curry CHH 02/08/1990 CHH vs. UTH L 30 18 7 16 43.8 2 4 50.0 2 2 100.0 1 3 4 1 1 0 0 0 -
p379
aVKenny Gattison CHH 02/08/1990 CHH vs. UTH L 15 0 0 3 0.0 0 0 - 0 0 - 2 1 3 1 1 1 2 3 -
p380
aVRichard Anderson CHH 02/08/1990 CHH vs. UTH L 3 2 1 2 50.0 0 0 - 0 0 - 1 0 1 1 0 1 0 0 -
p381
aVRobert Reid CHH 02/07/1990 CHH @ BOS L 16 10 3 6 50.0 1 1 100.0 3 4 75.0 1 1 2 1 0 0 0 1 -
p382
aVArmen Gilliam CHH 02/07/1990 CHH @ BOS L 38 26 9 15 60.0 0 0 - 8 11 72.7 2 5 7 3 2 1 2 4 -
p383
aVMuggsy Bogues CHH 02/07/1990 CHH @ BOS L 33 6 3 5 60.0 0 0 - 0 0 - 0 2 2 18 2 0 2 2 -
p384
aVJerry Sichting CHH 02/07/1990 CHH @ BOS L 9 6 2 3 66.7 0 0 - 2 2 100.0 0 1 1 3 1 0 1 1 -
p385
aVKenny Gattison CHH 02/07/1990 CHH @ BOS L 8 2 1 3 33.3 0 0 - 0 0 - 1 0 1 0 1 0 1 2 -
p386
aVBrian Rowsom CHH 02/07/1990 CHH @ BOS L 3 3 0 1 0.0 0 0 - 3 4 75.0 1 0 1 0 0 0 0 0 -
p387
aVJ.R. Reid CHH 02/07/1990 CHH @ BOS L 36 16 8 12 66.7 0 0 - 0 2 0.0 1 4 5 1 2 0 0 3 -
p388
aVKelly Tripucka CHH 02/07/1990 CHH @ BOS L 31 24 11 18 61.1 2 3 66.7 0 0 - 3 2 5 1 0 0 2 3 -
p389
aVDell Curry CHH 02/07/1990 CHH @ BOS L 26 17 7 14 50.0 0 2 0.0 3 3 100.0 0 2 2 4 3 0 2 3 -
p390
aVStuart Gray CHH 02/07/1990 CHH @ BOS L 8 2 1 5 20.0 0 0 - 0 0 - 1 2 3 0 0 1 0 0 -
p391
aVRichard Anderson CHH 02/07/1990 CHH @ BOS L 3 0 0 2 0.0 0 0 - 0 0 - 0 0 0 0 0 0 0 0 -
p392
aVRex Chapman CHH 02/07/1990 CHH @ BOS L 29 13 5 12 41.7 0 0 - 3 4 75.0 2 2 4 3 1 1 1 4 -
p393
aVArmen Gilliam CHH 02/05/1990 CHH vs. SEA L 39 22 9 14 64.3 0 0 - 4 7 57.1 3 5 8 0 1 0 3 4 -
p394
aVRobert Reid CHH 02/05/1990 CHH vs. SEA L 14 5 2 4 50.0 0 0 - 1 2 50.0 1 1 2 3 0 0 1 2 -
p395
aVMuggsy Bogues CHH 02/05/1990 CHH vs. SEA L 39 9 2 6 33.3 0 0 - 5 6 83.3 1 3 4 12 2 0 5 1 -
p396
aVJ.R. Reid CHH 02/05/1990 CHH vs. SEA L 36 16 7 10 70.0 0 0 - 2 3 66.7 2 7 9 2 0 1 0 3 -
p397
aVKenny Gattison CHH 02/05/1990 CHH vs. SEA L 14 9 4 5 80.0 1 1 100.0 0 0 - 0 2 2 0 0 1 1 5 -
p398
aVRex Chapman CHH 02/05/1990 CHH vs. SEA L 26 8 4 9 44.4 0 2 0.0 0 0 - 0 0 0 3 0 0 2 3 -
p399
aVDell Curry CHH 02/05/1990 CHH vs. SEA L 31 17 5 12 41.7 2 6 33.3 5 5 100.0 0 1 1 2 4 0 0 0 -
p400
aVKelly Tripucka CHH 02/05/1990 CHH vs. SEA L 34 14 6 15 40.0 0 1 0.0 2 2 100.0 1 2 3 3 2 0 3 2 -
p401
aVRichard Anderson CHH 02/05/1990 CHH vs. SEA L 7 0 0 1 0.0 0 0 - 0 0 - 0 0 0 1 0 0 1 0 -
p402
aVArmen Gilliam CHH 02/02/1990 CHH vs. SAN L 36 20 7 12 58.3 0 0 - 6 9 66.7 5 10 15 2 0 1 2 2 -
p403
aVRobert Reid CHH 02/02/1990 CHH vs. SAN L 16 0 0 4 0.0 0 0 - 0 0 - 0 1 1 1 0 1 0 0 -
p404
aVDell Curry CHH 02/02/1990 CHH vs. SAN L 24 22 10 19 52.6 1 3 33.3 1 1 100.0 1 2 3 4 2 0 2 0 -
p405
aVKelly Tripucka CHH 02/02/1990 CHH vs. SAN L 25 21 9 18 50.0 1 3 33.3 2 2 100.0 2 6 8 2 1 1 0 4 -
p406
aVRex Chapman CHH 02/02/1990 CHH vs. SAN L 42 19 8 21 38.1 0 5 0.0 3 3 100.0 1 4 5 3 2 0 0 0 -
p407
aVRichard Anderson CHH 02/02/1990 CHH vs. SAN L 13 3 1 5 20.0 1 4 25.0 0 0 - 0 1 1 2 1 0 1 3 -
p408
aVJ.R. Reid CHH 02/02/1990 CHH vs. SAN L 35 8 4 13 30.8 0 0 - 0 0 - 3 3 6 2 0 0 1 4 -
p409
aVMuggsy Bogues CHH 02/02/1990 CHH vs. SAN L 37 8 4 10 40.0 0 0 - 0 0 - 1 2 3 12 2 0 2 3 -
p410
aVKenny Gattison CHH 02/02/1990 CHH vs. SAN L 12 6 3 5 60.0 0 0 - 0 0 - 1 1 2 1 1 0 0 3 -
p411
aVRichard Anderson CHH 01/31/1990 CHH @ SAN L 12 5 2 6 33.3 1 3 33.3 0 0 - 3 4 7 1 1 1 1 4 -
p412
aVJ.R. Reid CHH 01/31/1990 CHH @ SAN L 36 11 4 12 33.3 0 0 - 3 4 75.0 5 3 8 0 0 0 3 2 -
p413
aVArmen Gilliam CHH 01/31/1990 CHH @ SAN L 35 19 7 14 50.0 0 0 - 5 8 62.5 3 6 9 1 1 3 1 4 -
p414
aVKelly Tripucka CHH 01/31/1990 CHH @ SAN L 28 15 5 15 33.3 1 2 50.0 4 6 66.7 0 1 1 2 0 0 4 3 -
p415
aVKenny Gattison CHH 01/31/1990 CHH @ SAN L 13 6 2 7 28.6 0 0 - 2 2 100.0 2 3 5 1 0 0 0 4 -
p416
aVMuggsy Bogues CHH 01/31/1990 CHH @ SAN L 36 8 3 5 60.0 0 0 - 2 2 100.0 2 3 5 13 2 0 5 2 -
p417
aVDell Curry CHH 01/31/1990 CHH @ SAN L 25 8 4 13 30.8 0 4 0.0 0 0 - 1 5 6 4 2 1 2 1 -
p418
aVRobert Reid CHH 01/31/1990 CHH @ SAN L 20 6 3 9 33.3 0 1 0.0 0 0 - 2 3 5 1 2 0 1 1 -
p419
aVRex Chapman CHH 01/31/1990 CHH @ SAN L 35 17 7 17 41.2 1 2 50.0 2 3 66.7 0 1 1 1 1 0 3 2 -
p420
aVRobert Reid CHH 01/27/1990 CHH vs. SAC L 16 4 2 5 40.0 0 0 - 0 0 - 1 2 3 0 4 1 0 1 -
p421
aVKenny Gattison CHH 01/27/1990 CHH vs. SAC L 6 0 0 0 - 0 0 - 0 0 - 1 0 1 0 0 0 0 2 -
p422
aVJ.R. Reid CHH 01/27/1990 CHH vs. SAC L 40 9 4 12 33.3 0 0 - 1 2 50.0 4 11 15 0 1 0 3 4 -
p423
aVJerry Sichting CHH 01/27/1990 CHH vs. SAC L 12 0 0 4 0.0 0 0 - 0 0 - 0 0 0 4 0 0 0 1 -
p424
aVKelly Tripucka CHH 01/27/1990 CHH vs. SAC L 34 10 4 9 44.4 0 0 - 2 2 100.0 0 3 3 0 2 1 1 1 -
p425
aVRex Chapman CHH 01/27/1990 CHH vs. SAC L 25 14 4 13 30.8 1 1 100.0 5 6 83.3 0 1 1 2 1 0 2 2 -
p426
aVArmen Gilliam CHH 01/27/1990 CHH vs. SAC L 42 19 8 18 44.4 0 0 - 3 4 75.0 3 5 8 2 1 0 2 0 -
p427
aVMuggsy Bogues CHH 01/27/1990 CHH vs. SAC L 36 8 3 7 42.9 0 0 - 2 2 100.0 1 5 6 16 2 1 1 3 -
p428
aVStuart Gray CHH 01/27/1990 CHH vs. SAC L 3 0 0 0 - 0 0 - 0 0 - 0 1 1 0 0 0 0 0 -
p429
aVDell Curry CHH 01/27/1990 CHH vs. SAC L 26 21 10 17 58.8 1 3 33.3 0 0 - 1 1 2 1 1 1 2 1 -
p430
aVStuart Gray CHH 01/25/1990 CHH vs. PHX L 7 5 2 2 100.0 0 0 - 1 2 50.0 0 2 2 1 0 2 1 0 -
p431
aVJ.R. Reid CHH 01/25/1990 CHH vs. PHX L 39 15 5 11 45.5 0 0 - 5 7 71.4 4 9 13 3 0 0 2 2 -
p432
aVArmen Gilliam CHH 01/25/1990 CHH vs. PHX L 34 17 7 15 46.7 0 0 - 3 5 60.0 4 9 13 2 0 2 4 2 -
p433
aVMuggsy Bogues CHH 01/25/1990 CHH vs. PHX L 20 7 2 8 25.0 0 1 0.0 3 3 100.0 1 3 4 8 2 0 2 4 -
p434
aVKelly Tripucka CHH 01/25/1990 CHH vs. PHX L 29 21 8 17 47.1 1 4 25.0 4 4 100.0 1 0 1 2 1 0 2 4 -
p435
aVRichard Anderson CHH 01/25/1990 CHH vs. PHX L 5 1 0 2 0.0 0 2 0.0 1 2 50.0 0 1 1 0 0 0 1 0 -
p436
aVDell Curry CHH 01/25/1990 CHH vs. PHX L 27 7 3 7 42.9 0 0 - 1 1 100.0 0 1 1 2 0 0 2 5 -
p437
aVBrian Rowsom CHH 01/25/1990 CHH vs. PHX L 5 2 0 1 0.0 0 0 - 2 2 100.0 0 2 2 1 0 0 0 0 -
p438
aVKenny Gattison CHH 01/25/1990 CHH vs. PHX L 10 2 1 3 33.3 0 0 - 0 3 0.0 2 2 4 0 0 0 1 1 -
p439
aVJerry Sichting CHH 01/25/1990 CHH vs. PHX L 28 2 1 5 20.0 0 0 - 0 0 - 1 1 2 6 0 0 2 4 -
p440
aVRobert Reid CHH 01/25/1990 CHH vs. PHX L 15 6 3 5 60.0 0 1 0.0 0 0 - 0 0 0 0 0 0 1 2 -
p441
aVRex Chapman CHH 01/25/1990 CHH vs. PHX L 21 12 6 15 40.0 0 2 0.0 0 0 - 0 0 0 0 1 0 0 1 -
p442
aVStuart Gray CHH 01/23/1990 CHH vs. ATL L 9 2 1 1 100.0 0 0 - 0 0 - 0 1 1 0 0 0 0 0 -
p443
aVBrian Rowsom CHH 01/23/1990 CHH vs. ATL L 6 0 0 0 - 0 0 - 0 0 - 1 0 1 1 1 0 0 0 -
p444
aVJerry Sichting CHH 01/23/1990 CHH vs. ATL L 23 4 1 6 16.7 0 0 - 2 2 100.0 0 4 4 7 1 1 0 1 -
p445
aVDell Curry CHH 01/23/1990 CHH vs. ATL L 28 20 9 20 45.0 2 4 50.0 0 0 - 0 3 3 1 2 0 2 4 -
p446
aVJ.R. Reid CHH 01/23/1990 CHH vs. ATL L 35 9 3 11 27.3 0 0 - 3 4 75.0 6 8 14 0 1 0 1 5 -
p447
aVKenny Gattison CHH 01/23/1990 CHH vs. ATL L 11 7 3 3 100.0 0 0 - 1 1 100.0 0 0 0 1 0 0 1 2 -
p448
aVKelly Tripucka CHH 01/23/1990 CHH vs. ATL L 37 13 5 14 35.7 0 2 0.0 3 3 100.0 2 3 5 5 0 1 3 5 -
p449
aVRobert Reid CHH 01/23/1990 CHH vs. ATL L 25 13 5 13 38.5 0 1 0.0 3 5 60.0 0 1 1 0 0 2 1 3 -
p450
aVArmen Gilliam CHH 01/23/1990 CHH vs. ATL L 41 29 10 19 52.6 0 0 - 9 14 64.3 3 9 12 1 0 2 1 3 -
p451
aVMuggsy Bogues CHH 01/23/1990 CHH vs. ATL L 25 4 2 7 28.6 0 0 - 0 0 - 3 2 5 10 1 0 1 5 -
p452
aVStuart Gray CHH 01/21/1990 CHH @ POR L 7 0 0 0 - 0 0 - 0 0 - 0 1 1 0 0 0 0 2 -
p453
aVDell Curry CHH 01/21/1990 CHH @ POR L 26 17 7 17 41.2 0 1 0.0 3 3 100.0 1 2 3 3 4 1 3 2 -
p454
aVRichard Anderson CHH 01/21/1990 CHH @ POR L 7 5 2 5 40.0 1 1 100.0 0 0 - 0 0 0 0 0 0 1 1 -
p455
aVMuggsy Bogues CHH 01/21/1990 CHH @ POR L 25 2 1 8 12.5 0 0 - 0 0 - 0 1 1 7 0 0 1 3 -
p456
aVRobert Reid CHH 01/21/1990 CHH @ POR L 25 13 6 12 50.0 0 1 0.0 1 2 50.0 1 1 2 0 1 1 0 1 -
p457
aVKelly Tripucka CHH 01/21/1990 CHH @ POR L 29 16 4 11 36.4 0 0 - 8 8 100.0 1 5 6 6 0 1 3 2 -
p458
aVArmen Gilliam CHH 01/21/1990 CHH @ POR L 32 12 6 12 50.0 0 0 - 0 0 - 2 7 9 1 1 1 2 2 -
p459
aVKenny Gattison CHH 01/21/1990 CHH @ POR L 10 7 3 4 75.0 0 0 - 1 3 33.3 1 2 3 0 0 0 0 1 -
p460
aVBrian Rowsom CHH 01/21/1990 CHH @ POR L 15 8 3 4 75.0 0 0 - 2 2 100.0 1 1 2 0 0 0 1 3 -
p461
aVJ.R. Reid CHH 01/21/1990 CHH @ POR L 41 18 7 16 43.8 0 1 0.0 4 5 80.0 2 10 12 2 2 0 1 5 -
p462
aVJerry Sichting CHH 01/21/1990 CHH @ POR L 23 2 1 6 16.7 0 0 - 0 0 - 0 1 1 7 0 0 0 0 -
p463
aVKenny Gattison CHH 01/19/1990 CHH @ UTH L 11 0 0 2 0.0 0 0 - 0 0 - 0 2 2 1 1 1 1 1 -
p464
aVKelly Tripucka CHH 01/19/1990 CHH @ UTH L 27 16 7 14 50.0 1 3 33.3 1 1 100.0 0 2 2 2 1 1 2 2 -
p465
aVDell Curry CHH 01/19/1990 CHH @ UTH L 28 23 10 19 52.6 1 2 50.0 2 2 100.0 2 2 4 1 2 0 4 5 -
p466
aVRobert Reid CHH 01/19/1990 CHH @ UTH L 27 7 3 10 30.0 1 1 100.0 0 0 - 0 2 2 4 1 0 1 4 -
p467
aVArmen Gilliam CHH 01/19/1990 CHH @ UTH L 30 20 8 16 50.0 0 0 - 4 5 80.0 4 6 10 1 1 0 4 4 -
p468
aVRichard Anderson CHH 01/19/1990 CHH @ UTH L 16 6 2 7 28.6 2 4 50.0 0 0 - 0 2 2 2 1 0 0 0 -
p469
aVJerry Sichting CHH 01/19/1990 CHH @ UTH L 19 8 4 5 80.0 0 0 - 0 0 - 0 0 0 7 0 0 2 1 -
p470
aVBrian Rowsom CHH 01/19/1990 CHH @ UTH L 16 9 3 7 42.9 0 0 - 3 4 75.0 4 4 8 1 0 0 1 1 -
p471
aVMuggsy Bogues CHH 01/19/1990 CHH @ UTH L 22 4 2 6 33.3 0 0 - 0 0 - 0 0 0 6 1 0 3 0 -
p472
aVJ.R. Reid CHH 01/19/1990 CHH @ UTH L 26 0 0 4 0.0 0 0 - 0 0 - 0 2 2 1 0 0 5 4 -
p473
aVStuart Gray CHH 01/19/1990 CHH @ UTH L 18 0 0 3 0.0 0 0 - 0 0 - 3 8 11 1 0 0 0 1 -
p474
aVJ.R. Reid CHH 01/18/1990 CHH @ DEN W 34 12 5 10 50.0 0 0 - 2 5 40.0 0 8 8 2 1 0 2 4 -
p475
aVStuart Gray CHH 01/18/1990 CHH @ DEN W 7 2 1 2 50.0 0 0 - 0 0 - 1 1 2 0 0 0 0 0 -
p476
aVBrian Rowsom CHH 01/18/1990 CHH @ DEN W 12 2 0 1 0.0 0 0 - 2 2 100.0 1 1 2 1 2 0 3 3 -
p477
aVRichard Anderson CHH 01/18/1990 CHH @ DEN W 12 0 0 3 0.0 0 2 0.0 0 0 - 1 3 4 2 0 0 1 0 -
p478
aVJerry Sichting CHH 01/18/1990 CHH @ DEN W 16 4 1 3 33.3 0 0 - 2 2 100.0 0 2 2 4 0 0 0 1 -
p479
aVKenny Gattison CHH 01/18/1990 CHH @ DEN W 8 2 1 1 100.0 0 0 - 0 0 - 0 0 0 0 0 1 0 1 -
p480
aVRobert Reid CHH 01/18/1990 CHH @ DEN W 24 9 3 7 42.9 1 1 100.0 2 4 50.0 2 3 5 1 0 1 2 2 -
p481
aVArmen Gilliam CHH 01/18/1990 CHH @ DEN W 36 22 8 11 72.7 0 0 - 6 9 66.7 0 10 10 1 0 1 5 3 -
p482
aVDell Curry CHH 01/18/1990 CHH @ DEN W 26 20 8 17 47.1 0 3 0.0 4 4 100.0 0 2 2 1 1 2 0 2 -
p483
aVKelly Tripucka CHH 01/18/1990 CHH @ DEN W 33 28 10 20 50.0 1 4 25.0 7 8 87.5 0 5 5 5 1 0 0 5 -
p484
aVMuggsy Bogues CHH 01/18/1990 CHH @ DEN W 32 9 4 7 57.1 1 1 100.0 0 0 - 0 4 4 10 1 0 1 0 -
p485
aVDell Curry CHH 01/16/1990 CHH @ LAC L 27 21 10 19 52.6 0 3 0.0 1 1 100.0 1 1 2 3 2 0 1 2 -
p486
aVRobert Reid CHH 01/16/1990 CHH @ LAC L 4 0 0 5 0.0 0 0 - 0 0 - 0 1 1 0 0 0 0 1 -
p487
aVBrian Rowsom CHH 01/16/1990 CHH @ LAC L 16 10 5 6 83.3 0 0 - 0 0 - 2 6 8 0 0 1 0 0 -
p488
aVJ.R. Reid CHH 01/16/1990 CHH @ LAC L 37 19 7 19 36.8 0 0 - 5 6 83.3 3 7 10 3 3 0 3 6 -
p489
aVKenny Gattison CHH 01/16/1990 CHH @ LAC L 9 0 0 1 0.0 0 0 - 0 0 - 1 2 3 0 0 1 1 2 -
p490
aVRex Chapman CHH 01/16/1990 CHH @ LAC L 25 11 5 15 33.3 1 4 25.0 0 0 - 0 0 0 3 2 0 2 4 -
p491
aVKelly Tripucka CHH 01/16/1990 CHH @ LAC L 41 30 13 28 46.4 1 3 33.3 3 3 100.0 0 5 5 1 3 0 2 5 -
p492
aVMuggsy Bogues CHH 01/16/1990 CHH @ LAC L 31 4 2 4 50.0 0 1 0.0 0 0 - 0 0 0 13 3 0 1 1 -
p493
aVJerry Sichting CHH 01/16/1990 CHH @ LAC L 17 0 0 3 0.0 0 0 - 0 0 - 1 0 1 5 0 0 0 0 -
p494
aVStuart Gray CHH 01/16/1990 CHH @ LAC L 33 3 1 5 20.0 0 0 - 1 2 50.0 2 7 9 1 0 0 2 4 -
p495
aVRex Chapman CHH 01/15/1990 CHH @ PHX L 36 23 10 17 58.8 1 3 33.3 2 2 100.0 1 2 3 3 0 0 1 3 -
p496
aVRobert Reid CHH 01/15/1990 CHH @ PHX L 22 10 5 12 41.7 0 0 - 0 0 - 0 0 0 1 2 0 0 3 -
p497
aVJ.R. Reid CHH 01/15/1990 CHH @ PHX L 42 6 3 10 30.0 0 0 - 0 0 - 0 8 8 4 1 2 2 6 -
p498
aVDell Curry CHH 01/15/1990 CHH @ PHX L 32 30 14 26 53.8 1 3 33.3 1 1 100.0 3 4 7 2 0 0 0 1 -
p499
aVArmen Gilliam CHH 01/15/1990 CHH @ PHX L 49 20 9 17 52.9 0 0 - 2 2 100.0 5 11 16 2 0 2 4 2 -
p500
aVKelly Tripucka CHH 01/15/1990 CHH @ PHX L 20 6 2 9 22.2 0 1 0.0 2 2 100.0 3 4 7 1 0 0 1 3 -
p501
aVMuggsy Bogues CHH 01/15/1990 CHH @ PHX L 36 5 2 10 20.0 1 1 100.0 0 0 - 0 1 1 16 1 0 3 2 -
p502
aVStuart Gray CHH 01/15/1990 CHH @ PHX L 8 0 0 0 - 0 0 - 0 0 - 0 1 1 0 0 0 0 1 -
p503
aVKenny Gattison CHH 01/15/1990 CHH @ PHX L 7 2 1 1 100.0 0 0 - 0 0 - 0 0 0 0 1 1 0 4 -
p504
aVJerry Sichting CHH 01/15/1990 CHH @ PHX L 13 6 3 3 100.0 0 0 - 0 0 - 0 0 0 2 1 0 4 2 -
p505
aVJ.R. Reid CHH 01/12/1990 CHH vs. CHI L 36 8 4 9 44.4 0 0 - 0 0 - 6 6 12 1 0 1 3 4 -
p506
aVMuggsy Bogues CHH 01/12/1990 CHH vs. CHI L 31 6 2 7 28.6 0 0 - 2 4 50.0 1 3 4 12 4 0 3 0 -
p507
aVRobert Reid CHH 01/12/1990 CHH vs. CHI L 12 6 2 7 28.6 0 0 - 2 2 100.0 0 1 1 0 0 0 1 1 -
p508
aVKenny Gattison CHH 01/12/1990 CHH vs. CHI L 4 2 1 2 50.0 0 0 - 0 0 - 0 3 3 0 0 0 0 0 -
p509
aVStuart Gray CHH 01/12/1990 CHH vs. CHI L 13 2 1 1 100.0 0 0 - 0 0 - 2 1 3 0 0 0 0 3 -
p510
aVKelly Tripucka CHH 01/12/1990 CHH vs. CHI L 27 8 4 14 28.6 0 0 - 0 0 - 2 1 3 8 0 0 3 2 -
p511
aVArmen Gilliam CHH 01/12/1990 CHH vs. CHI L 43 26 10 14 71.4 0 0 - 6 8 75.0 6 4 10 1 1 1 3 2 -
p512
aVDell Curry CHH 01/12/1990 CHH vs. CHI L 35 13 6 13 46.2 1 3 33.3 0 1 0.0 0 3 3 4 2 0 4 2 -
p513
aVRex Chapman CHH 01/12/1990 CHH vs. CHI L 39 24 10 22 45.5 3 7 42.9 1 4 25.0 1 2 3 3 1 1 1 1 -
p514
aVKenny Gattison CHH 01/11/1990 CHH @ NJN L 6 2 1 1 100.0 0 0 - 0 0 - 0 2 2 0 0 0 0 2 -
p515
aVKelly Tripucka CHH 01/11/1990 CHH @ NJN L 40 22 8 14 57.1 2 5 40.0 4 5 80.0 0 6 6 1 1 0 4 2 -
p516
aVRobert Reid CHH 01/11/1990 CHH @ NJN L 14 2 1 6 16.7 0 1 0.0 0 0 - 1 1 2 0 0 0 1 2 -
p517
aVDell Curry CHH 01/11/1990 CHH @ NJN L 35 21 8 16 50.0 0 2 0.0 5 8 62.5 0 4 4 2 0 1 2 3 -
p518
aVArmen Gilliam CHH 01/11/1990 CHH @ NJN L 33 15 7 13 53.8 0 0 - 1 2 50.0 2 7 9 1 1 0 2 5 -
p519
aVMuggsy Bogues CHH 01/11/1990 CHH @ NJN L 31 11 4 9 44.4 0 0 - 3 4 75.0 1 1 2 10 1 0 0 1 -
p520
aVRex Chapman CHH 01/11/1990 CHH @ NJN L 24 10 4 11 36.4 1 2 50.0 1 1 100.0 0 1 1 2 1 0 5 0 -
p521
aVJ.R. Reid CHH 01/11/1990 CHH @ NJN L 36 13 5 10 50.0 0 0 - 3 5 60.0 2 4 6 1 0 0 0 4 -
p522
aVStuart Gray CHH 01/11/1990 CHH @ NJN L 18 3 1 2 50.0 0 0 - 1 1 100.0 1 7 8 0 2 1 0 4 -
p523
aVBrian Rowsom CHH 01/11/1990 CHH @ NJN L 3 2 1 2 50.0 0 0 - 0 0 - 1 2 3 0 0 0 0 0 -
p524
aVBrian Rowsom CHH 01/09/1990 CHH vs. LAC L 11 5 1 4 25.0 0 0 - 3 4 75.0 1 3 4 0 0 1 0 2 -
p525
aVRobert Reid CHH 01/09/1990 CHH vs. LAC L 11 2 1 5 20.0 0 0 - 0 0 - 0 1 1 1 0 0 0 3 -
p526
aVDell Curry CHH 01/09/1990 CHH vs. LAC L 40 23 11 24 45.8 0 1 0.0 1 1 100.0 1 2 3 4 0 1 0 2 -
p527
aVMuggsy Bogues CHH 01/09/1990 CHH vs. LAC L 34 13 6 8 75.0 0 0 - 1 2 50.0 1 1 2 9 1 0 2 3 -
p528
aVArmen Gilliam CHH 01/09/1990 CHH vs. LAC L 37 22 8 20 40.0 0 0 - 6 6 100.0 4 5 9 2 0 1 4 3 -
p529
aVKenny Gattison CHH 01/09/1990 CHH vs. LAC L 12 2 1 3 33.3 0 0 - 0 0 - 0 5 5 0 2 2 1 0 -
p530
aVJ.R. Reid CHH 01/09/1990 CHH vs. LAC L 36 9 3 10 30.0 0 0 - 3 4 75.0 2 8 10 1 2 0 0 2 -
p531
aVRex Chapman CHH 01/09/1990 CHH vs. LAC L 33 14 5 17 29.4 0 1 0.0 4 4 100.0 3 2 5 3 1 1 0 2 -
p532
aVKelly Tripucka CHH 01/09/1990 CHH vs. LAC L 26 8 3 10 30.0 0 1 0.0 2 2 100.0 1 2 3 1 1 0 1 1 -
p533
aVJerry Sichting CHH 01/08/1990 CHH @ MIL L 13 4 2 4 50.0 0 1 0.0 0 0 - 0 0 0 4 0 0 1 2 -
p534
aVRex Chapman CHH 01/08/1990 CHH @ MIL L 33 13 6 12 50.0 1 1 100.0 0 0 - 1 1 2 3 0 0 1 2 -
p535
aVBrian Rowsom CHH 01/08/1990 CHH @ MIL L 12 4 2 8 25.0 0 0 - 0 0 - 3 2 5 0 1 0 0 0 -
p536
aVRobert Reid CHH 01/08/1990 CHH @ MIL L 13 5 2 6 33.3 0 0 - 1 2 50.0 0 3 3 5 0 0 2 3 -
p537
aVKenny Gattison CHH 01/08/1990 CHH @ MIL L 5 0 0 2 0.0 0 0 - 0 0 - 0 0 0 0 0 0 0 1 -
p538
aVArmen Gilliam CHH 01/08/1990 CHH @ MIL L 33 25 8 14 57.1 0 0 - 9 11 81.8 4 0 4 2 0 1 5 0 -
p539
aVDell Curry CHH 01/08/1990 CHH @ MIL L 34 16 8 14 57.1 0 3 0.0 0 0 - 1 2 3 2 2 0 0 0 -
p540
aVJ.R. Reid CHH 01/08/1990 CHH @ MIL L 39 21 10 18 55.6 0 0 - 1 3 33.3 8 10 18 2 3 1 4 0 -
p541
aVStuart Gray CHH 01/08/1990 CHH @ MIL L 7 4 2 5 40.0 0 1 0.0 0 0 - 1 2 3 0 1 2 0 1 -
p542
aVKelly Tripucka CHH 01/08/1990 CHH @ MIL L 23 16 5 10 50.0 1 1 100.0 5 6 83.3 0 2 2 2 0 0 1 1 -
p543
aVRichard Anderson CHH 01/08/1990 CHH @ MIL L 7 3 1 1 100.0 0 0 - 1 2 50.0 0 0 0 2 1 0 0 0 -
p544
aVMuggsy Bogues CHH 01/08/1990 CHH @ MIL L 21 2 1 3 33.3 0 0 - 0 0 - 1 1 2 9 3 0 2 1 -
p545
aVArmen Gilliam CHH 01/06/1990 CHH vs. IND W 41 28 11 21 52.4 0 0 - 6 9 66.7 6 6 12 1 2 3 1 4 -
p546
aVKelly Tripucka CHH 01/06/1990 CHH vs. IND W 21 8 4 11 36.4 0 2 0.0 0 0 - 2 2 4 5 1 0 2 0 -
p547
aVBrian Rowsom CHH 01/06/1990 CHH vs. IND W 4 2 0 1 0.0 0 0 - 2 2 100.0 0 0 0 0 0 0 0 1 -
p548
aVKenny Gattison CHH 01/06/1990 CHH vs. IND W 7 2 1 2 50.0 0 0 - 0 0 - 0 1 1 0 0 0 1 2 -
p549
aVRobert Reid CHH 01/06/1990 CHH vs. IND W 21 11 5 8 62.5 0 1 0.0 1 4 25.0 0 6 6 5 1 1 1 1 -
p550
aVMuggsy Bogues CHH 01/06/1990 CHH vs. IND W 26 8 3 8 37.5 0 0 - 2 4 50.0 1 4 5 12 2 0 1 1 -
p551
aVStuart Gray CHH 01/06/1990 CHH vs. IND W 13 2 1 1 100.0 0 0 - 0 0 - 2 3 5 3 0 2 0 1 -
p552
aVJ.R. Reid CHH 01/06/1990 CHH vs. IND W 31 8 4 6 66.7 0 0 - 0 1 0.0 0 5 5 3 5 1 0 5 -
p553
aVDell Curry CHH 01/06/1990 CHH vs. IND W 34 21 10 16 62.5 1 2 50.0 0 0 - 1 2 3 1 2 0 0 2 -
p554
aVRex Chapman CHH 01/06/1990 CHH vs. IND W 42 27 12 27 44.4 2 4 50.0 1 3 33.3 3 1 4 3 1 0 1 3 -
p555
aVKelly Tripucka CHH 01/04/1990 CHH @ MIN L 32 16 6 11 54.5 1 3 33.3 3 5 60.0 2 3 5 4 1 0 4 6 -
p556
aVRex Chapman CHH 01/04/1990 CHH @ MIN L 33 12 5 18 27.8 0 2 0.0 2 2 100.0 0 2 2 0 1 0 2 2 -
p557
aVStuart Gray CHH 01/04/1990 CHH @ MIN L 2 0 0 0 - 0 0 - 0 0 - 0 0 0 0 0 0 0 2 -
p558
aVMuggsy Bogues CHH 01/04/1990 CHH @ MIN L 29 4 2 6 33.3 0 0 - 0 0 - 0 4 4 9 0 0 0 3 -
p559
aVRichard Anderson CHH 01/04/1990 CHH @ MIN L 4 0 0 0 - 0 0 - 0 0 - 0 0 0 1 0 1 0 1 -
p560
aVKenny Gattison CHH 01/04/1990 CHH @ MIN L 11 6 3 5 60.0 0 0 - 0 0 - 1 2 3 0 0 0 0 2 -
p561
aVArmen Gilliam CHH 01/04/1990 CHH @ MIN L 40 26 9 14 64.3 0 0 - 8 9 88.9 1 4 5 0 0 0 1 5 -
p562
aVJ.R. Reid CHH 01/04/1990 CHH @ MIN L 35 15 6 14 42.9 0 0 - 3 7 42.9 5 9 14 2 1 1 4 3 -
p563
aVJerry Sichting CHH 01/04/1990 CHH @ MIN L 5 2 1 1 100.0 0 0 - 0 0 - 0 0 0 2 0 0 0 0 -
p564
aVRobert Reid CHH 01/04/1990 CHH @ MIN L 18 0 0 2 0.0 0 0 - 0 0 - 0 0 0 3 0 0 1 1 -
p565
aVDell Curry CHH 01/04/1990 CHH @ MIN L 31 17 8 15 53.3 1 3 33.3 0 0 - 0 4 4 1 1 0 1 4 -
p566
aVDell Curry CHH 12/30/1989 CHH vs. HOU W 35 16 7 14 50.0 0 0 - 2 2 100.0 0 3 3 2 7 1 3 2 -
p567
aVStuart Gray CHH 12/30/1989 CHH vs. HOU W 7 2 1 2 50.0 0 0 - 0 0 - 1 0 1 0 0 0 1 1 -
p568
aVKenny Gattison CHH 12/30/1989 CHH vs. HOU W 22 10 3 4 75.0 0 0 - 4 5 80.0 2 1 3 1 1 0 2 3 -
p569
aVKelly Tripucka CHH 12/30/1989 CHH vs. HOU W 29 18 5 11 45.5 1 1 100.0 7 7 100.0 0 1 1 2 3 1 1 3 -
p570
aVMuggsy Bogues CHH 12/30/1989 CHH vs. HOU W 29 10 4 6 66.7 0 0 - 2 2 100.0 0 2 2 12 2 0 3 0 -
p571
aVRobert Reid CHH 12/30/1989 CHH vs. HOU W 19 10 3 4 75.0 0 1 0.0 4 6 66.7 0 1 1 4 0 1 2 2 -
p572
aVJ.R. Reid CHH 12/30/1989 CHH vs. HOU W 23 7 3 9 33.3 0 0 - 1 2 50.0 0 2 2 2 0 0 0 5 -
p573
aVArmen Gilliam CHH 12/30/1989 CHH vs. HOU W 44 24 10 15 66.7 0 0 - 4 4 100.0 2 13 15 2 2 1 0 1 -
p574
aVRex Chapman CHH 12/30/1989 CHH vs. HOU W 32 14 7 13 53.8 0 1 0.0 0 0 - 0 4 4 1 1 0 3 1 -
p575
aVJ.R. Reid CHH 12/28/1989 CHH vs. CLE W 36 13 5 10 50.0 0 0 - 3 4 75.0 3 6 9 2 1 0 2 2 -
p576
aVRex Chapman CHH 12/28/1989 CHH vs. CLE W 34 9 4 14 28.6 1 2 50.0 0 0 - 0 4 4 2 0 0 0 0 -
p577
aVKenny Gattison CHH 12/28/1989 CHH vs. CLE W 18 4 1 4 25.0 0 0 - 2 2 100.0 0 3 3 2 1 0 0 2 -
p578
aVArmen Gilliam CHH 12/28/1989 CHH vs. CLE W 30 19 8 16 50.0 0 0 - 3 4 75.0 5 7 12 0 3 1 1 4 -
p579
aVKelly Tripucka CHH 12/28/1989 CHH vs. CLE W 23 25 11 17 64.7 0 0 - 3 3 100.0 3 2 5 1 0 0 3 4 -
p580
aVRobert Reid CHH 12/28/1989 CHH vs. CLE W 18 2 1 4 25.0 0 0 - 0 2 0.0 0 1 1 2 0 1 0 2 -
p581
aVDell Curry CHH 12/28/1989 CHH vs. CLE W 38 16 6 16 37.5 0 1 0.0 4 4 100.0 1 4 5 3 3 3 2 2 -
p582
aVStuart Gray CHH 12/28/1989 CHH vs. CLE W 12 2 1 3 33.3 0 0 - 0 0 - 0 0 0 0 0 1 1 2 -
p583
aVMuggsy Bogues CHH 12/28/1989 CHH vs. CLE W 31 4 2 5 40.0 0 0 - 0 0 - 1 3 4 17 1 0 2 1 -
p584
aVMuggsy Bogues CHH 12/26/1989 CHH vs. SAN L 27 4 2 2 100.0 0 0 - 0 0 - 1 1 2 9 1 0 3 2 -
p585
aVRobert Reid CHH 12/26/1989 CHH vs. SAN L 25 14 5 11 45.5 1 3 33.3 3 4 75.0 2 3 5 2 0 1 1 1 -
p586
aVRex Chapman CHH 12/26/1989 CHH vs. SAN L 29 14 5 16 31.3 3 5 60.0 1 2 50.0 1 2 3 4 2 0 2 3 -
p587
aVKelly Tripucka CHH 12/26/1989 CHH vs. SAN L 21 6 1 11 9.1 0 2 0.0 4 4 100.0 1 1 2 0 0 0 0 0 -
p588
aVArmen Gilliam CHH 12/26/1989 CHH vs. SAN L 26 6 3 7 42.9 0 0 - 0 0 - 0 3 3 1 0 1 5 4 -
p589
aVJerry Sichting CHH 12/26/1989 CHH vs. SAN L 11 4 1 5 20.0 0 0 - 2 2 100.0 0 0 0 2 0 0 1 0 -
p590
aVDell Curry CHH 12/26/1989 CHH vs. SAN L 31 17 6 12 50.0 0 1 0.0 5 6 83.3 1 1 2 1 1 0 4 3 -
p591
aVBrian Rowsom CHH 12/26/1989 CHH vs. SAN L 16 0 0 2 0.0 0 0 - 0 0 - 0 2 2 0 0 0 2 2 -
p592
aVJ.R. Reid CHH 12/26/1989 CHH vs. SAN L 26 4 1 5 20.0 0 0 - 2 2 100.0 2 3 5 2 4 2 0 0 -
p593
aVKenny Gattison CHH 12/26/1989 CHH vs. SAN L 6 7 2 2 100.0 0 0 - 3 3 100.0 1 1 2 0 0 0 0 0 -
p594
aVStuart Gray CHH 12/26/1989 CHH vs. SAN L 22 6 2 5 40.0 0 1 0.0 2 4 50.0 3 7 10 0 1 0 2 3 -
p595
aVKelly Tripucka CHH 12/22/1989 CHH vs. UTH L 20 9 3 9 33.3 1 2 50.0 2 2 100.0 0 5 5 0 0 0 0 1 -
p596
aVRobert Reid CHH 12/22/1989 CHH vs. UTH L 27 7 2 7 28.6 0 1 0.0 3 3 100.0 1 2 3 2 1 0 2 4 -
p597
aVRex Chapman CHH 12/22/1989 CHH vs. UTH L 43 28 11 25 44.0 2 5 40.0 4 5 80.0 1 2 3 6 0 1 2 1 -
p598
aVMuggsy Bogues CHH 12/22/1989 CHH vs. UTH L 24 7 2 6 33.3 0 0 - 3 4 75.0 0 2 2 6 2 0 1 3 -
p599
aVArmen Gilliam CHH 12/22/1989 CHH vs. UTH L 35 18 7 18 38.9 0 0 - 4 6 66.7 4 4 8 0 0 1 3 4 -
p600
aVDell Curry CHH 12/22/1989 CHH vs. UTH L 24 17 7 12 58.3 1 2 50.0 2 2 100.0 0 3 3 4 1 0 0 1 -
p601
aVJ.R. Reid CHH 12/22/1989 CHH vs. UTH L 40 5 2 8 25.0 0 0 - 1 2 50.0 3 4 7 2 2 1 1 4 -
p602
aVJerry Sichting CHH 12/22/1989 CHH vs. UTH L 6 2 0 0 - 0 0 - 2 2 100.0 0 0 0 0 0 0 2 1 -
p603
aVBrian Rowsom CHH 12/22/1989 CHH vs. UTH L 8 4 0 0 - 0 0 - 4 4 100.0 0 2 2 0 0 0 0 1 -
p604
aVStuart Gray CHH 12/22/1989 CHH vs. UTH L 13 3 1 2 50.0 0 0 - 1 2 50.0 2 2 4 2 1 0 0 1 -
p605
aVJerry Sichting CHH 12/19/1989 CHH vs. DAL W 9 3 1 3 33.3 1 1 100.0 0 0 - 0 1 1 1 0 0 0 2 -
p606
aVRex Chapman CHH 12/19/1989 CHH vs. DAL W 39 27 10 19 52.6 2 4 50.0 5 6 83.3 0 3 3 4 2 0 1 2 -
p607
aVStuart Gray CHH 12/19/1989 CHH vs. DAL W 2 0 0 0 - 0 0 - 0 0 - 0 1 1 0 0 0 0 1 -
p608
aVRobert Reid CHH 12/19/1989 CHH vs. DAL W 17 2 1 6 16.7 0 0 - 0 0 - 0 0 0 1 0 1 0 4 -
p609
aVDell Curry CHH 12/19/1989 CHH vs. DAL W 22 16 8 17 47.1 0 0 - 0 0 - 0 1 1 1 2 0 1 0 -
p610
aVBrian Rowsom CHH 12/19/1989 CHH vs. DAL W 7 2 0 1 0.0 0 0 - 2 2 100.0 0 0 0 0 0 1 0 0 -
p611
aVJ.R. Reid CHH 12/19/1989 CHH vs. DAL W 46 9 2 6 33.3 0 0 - 5 8 62.5 3 7 10 1 1 1 2 4 -
p612
aVKelly Tripucka CHH 12/19/1989 CHH vs. DAL W 22 16 6 9 66.7 1 1 100.0 3 3 100.0 1 1 2 0 0 0 2 4 -
p613
aVMuggsy Bogues CHH 12/19/1989 CHH vs. DAL W 35 4 2 4 50.0 0 0 - 0 0 - 0 3 3 18 1 0 0 3 -
p614
aVArmen Gilliam CHH 12/19/1989 CHH vs. DAL W 41 23 9 16 56.3 0 0 - 5 6 83.3 5 7 12 2 1 1 2 0 -
p615
aVArmen Gilliam CHH 12/16/1989 CHH @ CHI L 33 20 7 12 58.3 0 0 - 6 9 66.7 4 4 8 2 1 0 2 2 -
p616
aVJerry Sichting CHH 12/16/1989 CHH @ CHI L 13 4 2 3 66.7 0 0 - 0 0 - 0 0 0 2 0 0 0 1 -
p617
aVRichard Anderson CHH 12/16/1989 CHH @ CHI L 7 3 1 3 33.3 1 3 33.3 0 0 - 1 0 1 3 0 0 1 0 -
p618
aVStuart Gray CHH 12/16/1989 CHH @ CHI L 12 2 1 1 100.0 0 0 - 0 0 - 1 1 2 1 1 0 0 1 -
p619
aVMuggsy Bogues CHH 12/16/1989 CHH @ CHI L 38 8 4 7 57.1 0 2 0.0 0 0 - 1 2 3 12 0 0 1 1 -
p620
aVRobert Reid CHH 12/16/1989 CHH @ CHI L 31 10 4 14 28.6 1 2 50.0 1 2 50.0 0 5 5 1 0 1 1 4 -
p621
aVBrian Rowsom CHH 12/16/1989 CHH @ CHI L 15 8 3 5 60.0 0 0 - 2 2 100.0 0 5 5 2 0 0 0 1 -
p622
aVDell Curry CHH 12/16/1989 CHH @ CHI L 17 10 5 10 50.0 0 1 0.0 0 0 - 0 0 0 1 0 1 0 2 -
p623
aVRex Chapman CHH 12/16/1989 CHH @ CHI L 38 23 10 22 45.5 1 3 33.3 2 3 66.7 1 7 8 3 0 0 3 2 -
p624
aVJ.R. Reid CHH 12/16/1989 CHH @ CHI L 36 16 6 11 54.5 0 0 - 4 4 100.0 2 5 7 3 2 0 3 3 -
p625
aVArmen Gilliam CHH 12/14/1989 CHH @ WAS L 18 9 3 6 50.0 0 0 - 3 4 75.0 0 3 3 0 1 0 2 1 -
p626
aVRichard Anderson CHH 12/14/1989 CHH @ WAS L 15 2 1 6 16.7 0 2 0.0 0 0 - 0 5 5 2 0 0 1 1 -
p627
aVDell Curry CHH 12/14/1989 CHH @ WAS L 31 18 8 18 44.4 2 4 50.0 0 0 - 1 3 4 6 0 2 1 4 -
p628
aVRobert Reid CHH 12/14/1989 CHH @ WAS L 29 20 7 16 43.8 1 2 50.0 5 5 100.0 1 4 5 1 1 0 0 4 -
p629
aVBrian Rowsom CHH 12/14/1989 CHH @ WAS L 21 8 3 4 75.0 0 0 - 2 3 66.7 0 2 2 2 0 0 1 2 -
p630
aVKenny Gattison CHH 12/14/1989 CHH @ WAS L 12 5 2 3 66.7 0 0 - 1 2 50.0 2 3 5 0 0 0 0 4 -
p631
aVJerry Sichting CHH 12/14/1989 CHH @ WAS L 7 0 0 1 0.0 0 0 - 0 0 - 0 1 1 1 0 0 0 0 -
p632
aVJ.R. Reid CHH 12/14/1989 CHH @ WAS L 40 10 4 10 40.0 0 0 - 2 2 100.0 2 11 13 4 0 0 3 2 -
p633
aVRex Chapman CHH 12/14/1989 CHH @ WAS L 36 23 9 23 39.1 0 3 0.0 5 7 71.4 3 3 6 3 2 0 2 2 -
p634
aVMuggsy Bogues CHH 12/14/1989 CHH @ WAS L 31 6 2 5 40.0 0 0 - 2 2 100.0 1 2 3 7 2 0 2 3 -
p635
aVKurt Rambis CHH 12/12/1989 CHH vs. LAL L 36 9 3 9 33.3 0 0 - 3 4 75.0 8 7 15 1 3 2 2 5 -
p636
aVKenny Gattison CHH 12/12/1989 CHH vs. LAL L 15 5 2 7 28.6 0 0 - 1 2 50.0 3 0 3 0 1 0 0 1 -
p637
aVJerry Sichting CHH 12/12/1989 CHH vs. LAL L 12 2 1 3 33.3 0 0 - 0 0 - 0 0 0 0 0 0 0 2 -
p638
aVJ.R. Reid CHH 12/12/1989 CHH vs. LAL L 37 14 6 9 66.7 0 0 - 2 2 100.0 3 4 7 0 1 0 2 3 -
p639
aVStuart Gray CHH 12/12/1989 CHH vs. LAL L 2 0 0 0 - 0 0 - 0 0 - 0 0 0 0 0 0 0 1 -
p640
aVMuggsy Bogues CHH 12/12/1989 CHH vs. LAL L 38 8 3 7 42.9 1 1 100.0 1 2 50.0 0 2 2 13 2 0 1 1 -
p641
aVDell Curry CHH 12/12/1989 CHH vs. LAL L 30 23 9 18 50.0 2 5 40.0 3 3 100.0 0 2 2 3 1 0 1 2 -
p642
aVKelly Tripucka CHH 12/12/1989 CHH vs. LAL L 34 16 7 16 43.8 0 1 0.0 2 2 100.0 1 2 3 4 0 0 1 1 -
p643
aVRichard Anderson CHH 12/12/1989 CHH vs. LAL L 6 6 2 3 66.7 2 3 66.7 0 0 - 0 1 1 0 0 0 0 0 -
p644
aVRex Chapman CHH 12/12/1989 CHH vs. LAL L 30 6 3 20 15.0 0 2 0.0 0 2 0.0 0 1 1 1 0 0 1 3 -
p645
aVDell Curry CHH 12/09/1989 CHH vs. DEN L 36 15 6 18 33.3 1 2 50.0 2 2 100.0 0 3 3 3 0 0 0 1 -
p646
aVJ.R. Reid CHH 12/09/1989 CHH vs. DEN L 41 15 5 14 35.7 0 0 - 5 6 83.3 1 8 9 3 1 0 1 4 -
p647
aVRichard Anderson CHH 12/09/1989 CHH vs. DEN L 19 6 3 6 50.0 0 2 0.0 0 0 - 1 3 4 2 0 0 0 1 -
p648
aVBrian Rowsom CHH 12/09/1989 CHH vs. DEN L 12 6 2 6 33.3 0 1 0.0 2 2 100.0 0 0 0 1 0 0 0 0 -
p649
aVMuggsy Bogues CHH 12/09/1989 CHH vs. DEN L 39 12 6 11 54.5 0 0 - 0 0 - 1 2 3 8 1 0 2 3 -
p650
aVKurt Rambis CHH 12/09/1989 CHH vs. DEN L 32 12 3 7 42.9 0 0 - 6 11 54.5 6 7 13 0 2 1 1 3 -
p651
aVKelly Tripucka CHH 12/09/1989 CHH vs. DEN L 40 23 7 15 46.7 1 3 33.3 8 11 72.7 1 3 4 3 1 0 3 3 -
p652
aVJerry Sichting CHH 12/09/1989 CHH vs. DEN L 9 4 1 4 25.0 0 1 0.0 2 2 100.0 1 0 1 1 1 0 0 0 -
p653
aVKenny Gattison CHH 12/09/1989 CHH vs. DEN L 3 0 0 0 - 0 0 - 0 0 - 0 0 0 0 0 0 0 0 -
p654
aVAndre Turner CHH 12/09/1989 CHH vs. DEN L 9 0 0 1 0.0 0 0 - 0 0 - 0 0 0 0 0 0 3 0 -
p655
aVStuart Gray CHH 12/07/1989 CHH vs. POR L 14 0 0 0 - 0 0 - 0 0 - 0 2 2 0 0 1 1 0 -
p656
aVRichard Anderson CHH 12/07/1989 CHH vs. POR L 10 6 3 5 60.0 0 0 - 0 0 - 1 0 1 0 0 0 1 0 -
p657
aVMuggsy Bogues CHH 12/07/1989 CHH vs. POR L 43 16 7 13 53.8 0 1 0.0 2 2 100.0 1 1 2 11 4 0 2 0 -
p658
aVJ.R. Reid CHH 12/07/1989 CHH vs. POR L 36 12 3 13 23.1 0 2 0.0 6 10 60.0 4 10 14 2 0 1 6 3 -
p659
aVKelly Tripucka CHH 12/07/1989 CHH vs. POR L 32 8 3 8 37.5 0 0 - 2 2 100.0 0 4 4 3 2 0 2 1 -
p660
aVBrian Rowsom CHH 12/07/1989 CHH vs. POR L 15 3 1 3 33.3 0 0 - 1 2 50.0 2 0 2 1 0 1 0 0 -
p661
aVDell Curry CHH 12/07/1989 CHH vs. POR L 22 17 7 12 58.3 3 3 100.0 0 0 - 0 0 0 2 0 0 2 1 -
p662
aVKurt Rambis CHH 12/07/1989 CHH vs. POR L 27 0 0 3 0.0 0 0 - 0 0 - 0 3 3 2 2 1 0 1 -
p663
aVRex Chapman CHH 12/07/1989 CHH vs. POR L 36 24 10 24 41.7 2 9 22.2 2 2 100.0 2 3 5 3 1 0 6 3 -
p664
aVJerry Sichting CHH 12/07/1989 CHH vs. POR L 5 0 0 0 - 0 0 - 0 0 - 0 0 0 1 0 0 0 1 -
p665
aVKurt Rambis CHH 12/05/1989 CHH vs. BOS L 28 12 6 9 66.7 0 0 - 0 0 - 3 3 6 1 2 0 1 2 -
p666
aVMuggsy Bogues CHH 12/05/1989 CHH vs. BOS L 36 20 10 15 66.7 0 1 0.0 0 0 - 0 2 2 11 2 0 0 2 -
p667
aVRichard Anderson CHH 12/05/1989 CHH vs. BOS L 13 4 2 4 50.0 0 0 - 0 0 - 0 2 2 0 0 0 0 2 -
p668
aVJ.R. Reid CHH 12/05/1989 CHH vs. BOS L 46 20 10 22 45.5 0 0 - 0 0 - 5 8 13 2 2 0 3 5 -
p669
aVAndre Turner CHH 12/05/1989 CHH vs. BOS L 5 0 0 1 0.0 0 0 - 0 0 - 0 0 0 1 1 0 1 1 -
p670
aVKenny Gattison CHH 12/05/1989 CHH vs. BOS L 9 2 1 2 50.0 0 0 - 0 0 - 2 1 3 1 0 0 0 0 -
p671
aVRex Chapman CHH 12/05/1989 CHH vs. BOS L 39 20 9 21 42.9 0 5 0.0 2 2 100.0 2 0 2 6 0 0 0 2 -
p672
aVJerry Sichting CHH 12/05/1989 CHH vs. BOS L 17 6 3 4 75.0 0 1 0.0 0 0 - 0 1 1 5 1 0 0 0 -
p673
aVStuart Gray CHH 12/05/1989 CHH vs. BOS L 2 2 0 1 0.0 0 0 - 2 2 100.0 0 0 0 0 0 0 0 1 -
p674
aVKelly Tripucka CHH 12/05/1989 CHH vs. BOS L 25 5 1 11 9.1 1 2 50.0 2 2 100.0 0 1 1 2 0 0 3 1 -
p675
aVBrian Rowsom CHH 12/05/1989 CHH vs. BOS L 20 10 3 6 50.0 0 0 - 4 4 100.0 0 3 3 1 1 0 0 1 -
p676
aVKelly Tripucka CHH 12/02/1989 CHH @ SAN L 41 23 9 21 42.9 1 2 50.0 4 4 100.0 1 3 4 2 1 0 4 1 -
p677
aVAndre Turner CHH 12/02/1989 CHH @ SAN L 2 2 1 1 100.0 0 0 - 0 0 - 0 1 1 0 0 0 0 0 -
p678
aVJ.R. Reid CHH 12/02/1989 CHH @ SAN L 33 17 6 11 54.5 0 0 - 5 6 83.3 0 6 6 1 1 2 5 5 -
p679
aVKurt Rambis CHH 12/02/1989 CHH @ SAN L 22 2 1 2 50.0 0 0 - 0 0 - 2 1 3 2 0 1 1 3 -
p680
aVRichard Anderson CHH 12/02/1989 CHH @ SAN L 6 0 0 1 0.0 0 0 - 0 0 - 0 0 0 0 0 0 0 1 -
p681
aVStuart Gray CHH 12/02/1989 CHH @ SAN L 14 2 1 1 100.0 0 0 - 0 0 - 0 2 2 0 0 0 1 3 -
p682
aVJerry Sichting CHH 12/02/1989 CHH @ SAN L 9 5 2 3 66.7 1 1 100.0 0 0 - 0 1 1 0 1 0 2 2 -
p683
aVBrian Rowsom CHH 12/02/1989 CHH @ SAN L 26 20 7 13 53.8 0 0 - 6 6 100.0 3 2 5 1 2 0 1 2 -
p684
aVRex Chapman CHH 12/02/1989 CHH @ SAN L 39 25 8 23 34.8 1 3 33.3 8 9 88.9 2 4 6 0 2 0 0 0 -
p685
aVKenny Gattison CHH 12/02/1989 CHH @ SAN L 3 0 0 1 0.0 0 0 - 0 0 - 1 0 1 0 0 0 0 1 -
p686
aVMuggsy Bogues CHH 12/02/1989 CHH @ SAN L 45 14 6 8 75.0 0 2 0.0 2 2 100.0 0 1 1 12 4 0 4 3 -
p687
aVMuggsy Bogues CHH 11/30/1989 CHH @ HOU L 35 16 6 14 42.9 0 0 - 4 4 100.0 0 1 1 7 5 0 0 2 -
p688
aVRex Chapman CHH 11/30/1989 CHH @ HOU L 23 11 5 12 41.7 0 1 0.0 1 2 50.0 1 0 1 0 0 0 0 1 -
p689
aVJ.R. Reid CHH 11/30/1989 CHH @ HOU L 25 14 6 10 60.0 0 0 - 2 4 50.0 2 5 7 2 1 0 3 2 -
p690
aVKelly Tripucka CHH 11/30/1989 CHH @ HOU L 31 22 5 16 31.3 2 3 66.7 10 12 83.3 1 1 2 2 3 0 3 2 -
p691
aVAndre Turner CHH 11/30/1989 CHH @ HOU L 19 8 3 8 37.5 0 0 - 2 2 100.0 1 1 2 4 4 0 2 0 -
p692
aVKurt Rambis CHH 11/30/1989 CHH @ HOU L 29 2 1 4 25.0 0 0 - 0 2 0.0 2 2 4 3 7 0 4 4 -
p693
aVStuart Gray CHH 11/30/1989 CHH @ HOU L 23 9 3 6 50.0 0 0 - 3 4 75.0 3 3 6 1 2 0 0 5 -
p694
aVRichard Anderson CHH 11/30/1989 CHH @ HOU L 22 14 5 10 50.0 1 4 25.0 3 3 100.0 1 3 4 0 0 0 0 2 -
p695
aVBrian Rowsom CHH 11/30/1989 CHH @ HOU L 20 5 1 2 50.0 0 0 - 3 4 75.0 1 3 4 1 1 0 1 1 -
p696
aVJerry Sichting CHH 11/30/1989 CHH @ HOU L 13 0 0 3 0.0 0 0 - 0 0 - 0 0 0 1 1 0 1 3 -
p697
aVAndre Turner CHH 11/29/1989 CHH @ DAL L 8 0 0 0 - 0 0 - 0 0 - 0 0 0 2 1 0 0 1 -
p698
aVJ.R. Reid CHH 11/29/1989 CHH @ DAL L 24 10 4 7 57.1 0 0 - 2 2 100.0 1 3 4 1 0 1 3 4 -
p699
aVDave Hoppen CHH 11/29/1989 CHH @ DAL L 19 7 3 7 42.9 0 0 - 1 3 33.3 5 3 8 0 0 0 0 2 -
p700
aVRex Chapman CHH 11/29/1989 CHH @ DAL L 37 15 6 22 27.3 0 2 0.0 3 3 100.0 2 3 5 2 0 0 0 3 -
p701
aVMuggsy Bogues CHH 11/29/1989 CHH @ DAL L 27 0 0 6 0.0 0 2 0.0 0 0 - 0 3 3 8 0 0 2 3 -
p702
aVJerry Sichting CHH 11/29/1989 CHH @ DAL L 22 9 4 11 36.4 0 3 0.0 1 1 100.0 0 2 2 2 2 1 0 3 -
p703
aVKurt Rambis CHH 11/29/1989 CHH @ DAL L 31 9 4 14 28.6 0 0 - 1 2 50.0 4 6 10 1 0 3 0 2 -
p704
aVRichard Anderson CHH 11/29/1989 CHH @ DAL L 12 2 1 4 25.0 0 2 0.0 0 0 - 0 1 1 3 1 0 0 1 -
p705
aVStuart Gray CHH 11/29/1989 CHH @ DAL L 8 6 2 2 100.0 0 0 - 2 2 100.0 0 6 6 0 0 0 0 2 -
p706
aVKelly Tripucka CHH 11/29/1989 CHH @ DAL L 34 19 5 19 26.3 0 3 0.0 9 10 90.0 3 3 6 5 0 0 2 5 -
p707
aVBrian Rowsom CHH 11/29/1989 CHH @ DAL L 18 6 3 9 33.3 0 0 - 0 0 - 2 5 7 0 0 0 2 2 -
p708
aVAndre Turner CHH 11/27/1989 CHH @ NYK L 5 0 0 2 0.0 0 0 - 0 0 - 0 0 0 2 0 0 0 0 -
p709
aVMuggsy Bogues CHH 11/27/1989 CHH @ NYK L 34 8 4 7 57.1 0 0 - 0 0 - 1 2 3 13 3 0 2 2 -
p710
aVRex Chapman CHH 11/27/1989 CHH @ NYK L 41 38 17 32 53.1 3 8 37.5 1 2 50.0 0 2 2 2 4 0 1 1 -
p711
aVJ.R. Reid CHH 11/27/1989 CHH @ NYK L 36 15 6 10 60.0 0 0 - 3 4 75.0 0 5 5 0 3 2 4 2 -
p712
aVDave Hoppen CHH 11/27/1989 CHH @ NYK L 10 7 2 5 40.0 0 0 - 3 3 100.0 5 1 6 2 1 1 0 3 -
p713
aVBrian Rowsom CHH 11/27/1989 CHH @ NYK L 23 6 3 7 42.9 0 0 - 0 0 - 0 2 2 3 0 0 1 4 -
p714
aVKelly Tripucka CHH 11/27/1989 CHH @ NYK L 24 8 3 12 25.0 0 1 0.0 2 4 50.0 1 3 4 2 1 1 1 4 -
p715
aVStuart Gray CHH 11/27/1989 CHH @ NYK L 18 7 1 3 33.3 0 0 - 5 6 83.3 1 1 2 0 1 4 0 2 -
p716
aVKurt Rambis CHH 11/27/1989 CHH @ NYK L 21 13 5 7 71.4 0 0 - 3 4 75.0 3 1 4 1 1 0 1 3 -
p717
aVRichard Anderson CHH 11/27/1989 CHH @ NYK L 12 4 2 6 33.3 0 2 0.0 0 0 - 1 0 1 1 1 0 0 2 -
p718
aVJerry Sichting CHH 11/27/1989 CHH @ NYK L 16 2 1 4 25.0 0 0 - 0 0 - 0 0 0 4 0 0 1 1 -
p719
aVStuart Gray CHH 11/25/1989 CHH vs. MIN W 7 0 0 0 - 0 0 - 0 2 0.0 1 4 5 0 0 0 0 2 -
p720
aVRichard Anderson CHH 11/25/1989 CHH vs. MIN W 8 0 0 1 0.0 0 0 - 0 0 - 1 1 2 0 0 0 1 0 -
p721
aVJ.R. Reid CHH 11/25/1989 CHH vs. MIN W 42 19 8 15 53.3 0 0 - 3 5 60.0 5 13 18 2 1 1 3 2 -
p722
aVBrian Rowsom CHH 11/25/1989 CHH vs. MIN W 32 10 3 11 27.3 0 0 - 4 5 80.0 4 3 7 0 1 0 1 1 -
p723
aVJerry Sichting CHH 11/25/1989 CHH vs. MIN W 12 2 1 2 50.0 0 0 - 0 0 - 0 0 0 0 0 0 0 1 -
p724
aVAndre Turner CHH 11/25/1989 CHH vs. MIN W 16 4 2 5 40.0 0 1 0.0 0 0 - 0 0 0 4 0 0 1 0 -
p725
aVRex Chapman CHH 11/25/1989 CHH vs. MIN W 36 21 7 12 58.3 1 1 100.0 6 7 85.7 0 4 4 1 2 1 2 4 -
p726
aVDave Hoppen CHH 11/25/1989 CHH vs. MIN W 15 4 2 2 100.0 0 0 - 0 0 - 0 3 3 0 0 0 1 1 -
p727
aVKelly Tripucka CHH 11/25/1989 CHH vs. MIN W 40 16 6 21 28.6 0 2 0.0 4 5 80.0 1 2 3 3 2 0 5 3 -
p728
aVMuggsy Bogues CHH 11/25/1989 CHH vs. MIN W 32 5 2 5 40.0 0 0 - 1 2 50.0 0 3 3 9 2 0 0 1 -
p729
aVDave Hoppen CHH 11/24/1989 CHH vs. HOU L 26 6 3 7 42.9 0 0 - 0 0 - 1 4 5 2 0 0 2 5 -
p730
aVAndre Turner CHH 11/24/1989 CHH vs. HOU L 20 8 3 7 42.9 0 0 - 2 2 100.0 0 0 0 7 1 0 1 3 -
p731
aVStuart Gray CHH 11/24/1989 CHH vs. HOU L 21 2 1 4 25.0 0 0 - 0 0 - 4 2 6 0 0 0 3 2 -
p732
aVRex Chapman CHH 11/24/1989 CHH vs. HOU L 37 7 2 19 10.5 2 4 50.0 1 2 50.0 1 2 3 3 0 0 0 1 -
p733
aVBrian Rowsom CHH 11/24/1989 CHH vs. HOU L 24 5 2 5 40.0 0 0 - 1 1 100.0 1 5 6 0 0 0 0 3 -
p734
aVRichard Anderson CHH 11/24/1989 CHH vs. HOU L 24 9 3 7 42.9 3 6 50.0 0 0 - 1 2 3 0 0 0 2 4 -
p735
aVDell Curry CHH 11/24/1989 CHH vs. HOU L 18 16 8 12 66.7 0 0 - 0 0 - 0 3 3 2 1 0 1 3 -
p736
aVMuggsy Bogues CHH 11/24/1989 CHH vs. HOU L 31 14 7 9 77.8 0 0 - 0 0 - 1 3 4 8 2 0 1 1 -
p737
aVJ.R. Reid CHH 11/24/1989 CHH vs. HOU L 39 14 6 10 60.0 0 0 - 2 4 50.0 2 3 5 3 2 0 4 1 -
p738
aVRichard Anderson CHH 11/21/1989 CHH vs. MIA L 5 0 0 3 0.0 0 0 - 0 0 - 0 1 1 0 0 0 0 1 -
p739
aVJ.R. Reid CHH 11/21/1989 CHH vs. MIA L 40 8 3 8 37.5 0 0 - 2 4 50.0 3 10 13 1 1 0 2 5 -
p740
aVKelly Tripucka CHH 11/21/1989 CHH vs. MIA L 28 16 6 13 46.2 2 2 100.0 2 2 100.0 0 4 4 0 0 1 4 5 -
p741
aVBrian Rowsom CHH 11/21/1989 CHH vs. MIA L 18 4 2 4 50.0 0 0 - 0 0 - 2 2 4 0 1 0 1 3 -
p742
aVDell Curry CHH 11/21/1989 CHH vs. MIA L 23 11 3 10 30.0 0 1 0.0 5 6 83.3 0 1 1 3 1 1 1 4 -
p743
aVRex Chapman CHH 11/21/1989 CHH vs. MIA L 39 28 12 26 46.2 0 1 0.0 4 6 66.7 2 0 2 1 1 0 2 0 -
p744
aVKurt Rambis CHH 11/21/1989 CHH vs. MIA L 30 12 4 10 40.0 0 1 0.0 4 7 57.1 4 6 10 2 5 1 2 4 -
p745
aVTerry Dozier CHH 11/21/1989 CHH vs. MIA L 9 2 1 3 33.3 0 0 - 0 0 - 1 1 2 1 2 1 1 1 -
p746
aVStuart Gray CHH 11/21/1989 CHH vs. MIA L 7 0 0 1 0.0 0 0 - 0 0 - 0 0 0 0 0 0 0 1 -
p747
aVMuggsy Bogues CHH 11/21/1989 CHH vs. MIA L 41 6 3 6 50.0 0 0 - 0 2 0.0 1 1 2 11 3 0 3 3 -
p748
aVKelly Tripucka CHH 11/17/1989 CHH vs. GOS W 33 8 2 13 15.4 0 0 - 4 4 100.0 3 3 6 5 2 0 3 0 -
p749
aVBrian Rowsom CHH 11/17/1989 CHH vs. GOS W 14 2 1 3 33.3 0 0 - 0 0 - 2 1 3 0 0 0 0 5 -
p750
aVMuggsy Bogues CHH 11/17/1989 CHH vs. GOS W 44 13 6 13 46.2 0 0 - 1 3 33.3 2 2 4 17 7 0 2 3 -
p751
aVTerry Dozier CHH 11/17/1989 CHH vs. GOS W 4 2 1 1 100.0 0 0 - 0 0 - 0 0 0 0 1 0 1 3 -
p752
aVDell Curry CHH 11/17/1989 CHH vs. GOS W 27 16 7 14 50.0 2 3 66.7 0 0 - 0 3 3 3 2 0 2 5 -
p753
aVStuart Gray CHH 11/17/1989 CHH vs. GOS W 8 0 0 0 - 0 0 - 0 0 - 0 1 1 0 0 0 0 2 -
p754
aVKurt Rambis CHH 11/17/1989 CHH vs. GOS W 31 21 9 11 81.8 0 0 - 3 6 50.0 2 4 6 0 1 0 0 4 -
p755
aVDave Hoppen CHH 11/17/1989 CHH vs. GOS W 2 0 0 1 0.0 0 0 - 0 0 - 1 0 1 0 0 0 0 1 -
p756
aVJ.R. Reid CHH 11/17/1989 CHH vs. GOS W 41 19 7 15 46.7 0 0 - 5 7 71.4 4 5 9 0 1 1 3 4 -
p757
aVRex Chapman CHH 11/17/1989 CHH vs. GOS W 36 18 8 20 40.0 2 4 50.0 0 0 - 1 6 7 3 1 0 2 5 -
p758
aVStuart Gray CHH 11/15/1989 CHH @ PHL L 19 4 2 5 40.0 0 0 - 0 0 - 2 5 7 0 0 0 0 2 -
p759
aVTerry Dozier CHH 11/15/1989 CHH @ PHL L 12 0 0 0 - 0 0 - 0 0 - 0 1 1 0 0 0 0 0 -
p760
aVBrian Rowsom CHH 11/15/1989 CHH @ PHL L 16 5 2 4 50.0 0 0 - 1 2 50.0 1 2 3 0 0 0 1 2 -
p761
aVDell Curry CHH 11/15/1989 CHH @ PHL L 24 13 5 14 35.7 1 2 50.0 2 2 100.0 0 2 2 0 1 0 2 2 -
p762
aVJ.R. Reid CHH 11/15/1989 CHH @ PHL L 34 13 5 12 41.7 0 0 - 3 4 75.0 1 5 6 1 1 0 2 4 -
p763
aVRex Chapman CHH 11/15/1989 CHH @ PHL L 34 22 9 20 45.0 2 5 40.0 2 2 100.0 2 2 4 4 2 0 1 2 -
p764
aVMuggsy Bogues CHH 11/15/1989 CHH @ PHL L 40 8 4 10 40.0 0 0 - 0 0 - 0 2 2 15 1 0 3 3 -
p765
aVDave Hoppen CHH 11/15/1989 CHH @ PHL L 13 6 2 5 40.0 0 0 - 2 2 100.0 1 2 3 1 0 0 1 3 -
p766
aVKelly Tripucka CHH 11/15/1989 CHH @ PHL L 36 22 7 15 46.7 1 3 33.3 7 11 63.6 4 6 10 4 2 0 2 3 -
p767
aVRichard Anderson CHH 11/15/1989 CHH @ PHL L 12 3 1 2 50.0 1 1 100.0 0 0 - 0 1 1 1 0 0 2 1 -
p768
aVKurt Rambis CHH 11/14/1989 CHH vs. ORL W 24 9 4 7 57.1 0 0 - 1 2 50.0 3 5 8 4 1 0 3 2 -
p769
aVBrian Rowsom CHH 11/14/1989 CHH vs. ORL W 24 12 4 8 50.0 0 0 - 4 5 80.0 2 3 5 0 0 0 0 2 -
p770
aVJ.R. Reid CHH 11/14/1989 CHH vs. ORL W 37 25 8 16 50.0 0 0 - 9 12 75.0 9 11 20 1 1 0 0 2 -
p771
aVTerry Dozier CHH 11/14/1989 CHH vs. ORL W 13 3 0 0 - 0 0 - 3 6 50.0 2 3 5 0 0 0 1 0 -
p772
aVMuggsy Bogues CHH 11/14/1989 CHH vs. ORL W 33 12 6 9 66.7 0 0 - 0 0 - 0 2 2 14 4 0 0 2 -
p773
aVJerry Sichting CHH 11/14/1989 CHH vs. ORL W 8 2 1 1 100.0 0 0 - 0 0 - 0 0 0 2 0 0 0 1 -
p774
aVStuart Gray CHH 11/14/1989 CHH vs. ORL W 11 2 1 3 33.3 0 0 - 0 0 - 2 2 4 1 0 2 0 1 -
p775
aVDell Curry CHH 11/14/1989 CHH vs. ORL W 25 18 9 17 52.9 0 1 0.0 0 0 - 0 3 3 2 4 1 2 2 -
p776
aVRex Chapman CHH 11/14/1989 CHH vs. ORL W 38 23 10 24 41.7 0 3 0.0 3 3 100.0 0 1 1 2 0 0 6 3 -
p777
aVKelly Tripucka CHH 11/14/1989 CHH vs. ORL W 27 24 9 15 60.0 0 0 - 6 7 85.7 0 1 1 0 1 2 0 4 -
p778
aVJ.R. Reid CHH 11/11/1989 CHH @ GOS L 32 11 3 7 42.9 0 1 0.0 5 8 62.5 1 4 5 2 1 1 0 4 -
p779
aVDell Curry CHH 11/11/1989 CHH @ GOS L 22 21 8 13 61.5 3 3 100.0 2 2 100.0 1 1 2 2 2 1 2 5 -
p780
aVMuggsy Bogues CHH 11/11/1989 CHH @ GOS L 26 7 3 6 50.0 1 2 50.0 0 0 - 1 1 2 5 3 0 3 2 -
p781
aVJerry Sichting CHH 11/11/1989 CHH @ GOS L 18 8 4 5 80.0 0 0 - 0 0 - 0 0 0 3 1 0 1 1 -
p782
aVKelly Tripucka CHH 11/11/1989 CHH @ GOS L 34 12 3 12 25.0 0 4 0.0 6 6 100.0 0 1 1 3 2 0 1 3 -
p783
aVRex Chapman CHH 11/11/1989 CHH @ GOS L 36 23 9 14 64.3 2 3 66.7 3 5 60.0 0 5 5 6 2 0 1 1 -
p784
aVBrian Rowsom CHH 11/11/1989 CHH @ GOS L 10 4 2 5 40.0 0 0 - 0 0 - 1 2 3 0 0 0 3 3 -
p785
aVTerry Dozier CHH 11/11/1989 CHH @ GOS L 8 2 1 4 25.0 0 1 0.0 0 0 - 0 1 1 1 1 0 1 1 -
p786
aVKurt Rambis CHH 11/11/1989 CHH @ GOS L 25 12 4 7 57.1 0 0 - 4 9 44.4 3 2 5 3 0 0 5 0 -
p787
aVDave Hoppen CHH 11/11/1989 CHH @ GOS L 10 0 0 2 0.0 0 0 - 0 0 - 0 1 1 0 0 0 1 2 -
p788
aVStuart Gray CHH 11/11/1989 CHH @ GOS L 19 4 1 2 50.0 0 0 - 2 4 50.0 1 2 3 1 0 2 2 3 -
p789
aVTerry Dozier CHH 11/10/1989 CHH @ LAL L 16 6 3 6 50.0 0 0 - 0 0 - 0 1 1 0 0 0 1 1 -
p790
aVStuart Gray CHH 11/10/1989 CHH @ LAL L 15 2 1 3 33.3 0 0 - 0 0 - 1 6 7 2 0 2 1 0 -
p791
aVBrian Rowsom CHH 11/10/1989 CHH @ LAL L 11 2 1 3 33.3 0 0 - 0 0 - 1 2 3 0 1 0 1 1 -
p792
aVJerry Sichting CHH 11/10/1989 CHH @ LAL L 28 6 3 8 37.5 0 2 0.0 0 0 - 0 0 0 5 1 0 0 3 -
p793
aVDell Curry CHH 11/10/1989 CHH @ LAL L 18 9 4 15 26.7 1 1 100.0 0 0 - 1 0 1 2 1 1 1 2 -
p794
aVJ.R. Reid CHH 11/10/1989 CHH @ LAL L 38 13 5 14 35.7 0 0 - 3 4 75.0 4 8 12 2 1 2 2 4 -
p795
aVMuggsy Bogues CHH 11/10/1989 CHH @ LAL L 20 2 1 5 20.0 0 0 - 0 0 - 0 0 0 6 5 0 0 3 -
p796
aVRichard Anderson CHH 11/10/1989 CHH @ LAL L 1 0 0 0 - 0 0 - 0 0 - 0 0 0 0 0 0 0 0 -
p797
aVKurt Rambis CHH 11/10/1989 CHH @ LAL L 31 15 6 9 66.7 0 0 - 3 4 75.0 4 5 9 3 4 0 3 3 -
p798
aVRex Chapman CHH 11/10/1989 CHH @ LAL L 32 27 9 18 50.0 3 4 75.0 6 7 85.7 1 1 2 4 1 0 1 4 -
p799
aVKelly Tripucka CHH 11/10/1989 CHH @ LAL L 30 18 5 9 55.6 0 1 0.0 8 8 100.0 1 2 3 4 1 0 7 2 -
p800
aVDave Hoppen CHH 11/08/1989 CHH @ UTH L 1 0 0 2 0.0 0 0 - 0 0 - 0 0 0 0 0 0 0 1 -
p801
aVBrian Rowsom CHH 11/08/1989 CHH @ UTH L 17 5 2 5 40.0 0 0 - 1 2 50.0 1 3 4 0 0 1 2 2 -
p802
aVJ.R. Reid CHH 11/08/1989 CHH @ UTH L 22 8 4 7 57.1 0 0 - 0 2 0.0 2 3 5 0 0 0 5 3 -
p803
aVKelly Tripucka CHH 11/08/1989 CHH @ UTH L 35 24 9 15 60.0 0 0 - 6 7 85.7 0 4 4 4 2 1 3 4 -
p804
aVMuggsy Bogues CHH 11/08/1989 CHH @ UTH L 34 8 4 9 44.4 0 0 - 0 0 - 0 2 2 10 2 0 3 2 -
p805
aVKurt Rambis CHH 11/08/1989 CHH @ UTH L 31 3 1 3 33.3 0 0 - 1 2 50.0 1 11 12 3 2 1 4 2 -
p806
aVJerry Sichting CHH 11/08/1989 CHH @ UTH L 23 12 5 7 71.4 1 2 50.0 1 1 100.0 0 0 0 4 2 0 0 1 -
p807
aVTerry Dozier CHH 11/08/1989 CHH @ UTH L 5 1 0 2 0.0 0 0 - 1 2 50.0 2 1 3 0 0 0 0 1 -
p808
aVStuart Gray CHH 11/08/1989 CHH @ UTH L 25 6 2 3 66.7 0 0 - 2 2 100.0 1 4 5 1 2 2 2 4 -
p809
aVRex Chapman CHH 11/08/1989 CHH @ UTH L 28 9 4 14 28.6 0 1 0.0 1 2 50.0 1 0 1 0 0 0 4 3 -
p810
aVDell Curry CHH 11/08/1989 CHH @ UTH L 19 10 4 9 44.4 1 2 50.0 1 1 100.0 0 2 2 0 2 0 2 0 -
p811
aVDave Hoppen CHH 11/07/1989 CHH @ SEA L 20 2 1 7 14.3 0 0 - 0 0 - 4 1 5 1 1 0 1 5 -
p812
aVJerry Sichting CHH 11/07/1989 CHH @ SEA L 11 3 1 2 50.0 0 0 - 1 4 25.0 0 0 0 2 1 0 1 1 -
p813
aVStuart Gray CHH 11/07/1989 CHH @ SEA L 19 8 3 4 75.0 0 0 - 2 2 100.0 1 2 3 1 1 1 2 2 -
p814
aVTerry Dozier CHH 11/07/1989 CHH @ SEA L 15 2 1 8 12.5 0 0 - 0 0 - 2 0 2 0 1 1 1 2 -
p815
aVRex Chapman CHH 11/07/1989 CHH @ SEA L 29 19 7 14 50.0 1 1 100.0 4 6 66.7 2 0 2 2 1 0 2 3 -
p816
aVBrian Rowsom CHH 11/07/1989 CHH @ SEA L 14 13 3 4 75.0 1 1 100.0 6 7 85.7 1 3 4 0 1 0 1 3 -
p817
aVRichard Anderson CHH 11/07/1989 CHH @ SEA L 9 0 0 3 0.0 0 1 0.0 0 0 - 0 3 3 1 1 0 0 1 -
p818
aVMuggsy Bogues CHH 11/07/1989 CHH @ SEA L 28 2 1 3 33.3 0 0 - 0 0 - 0 1 1 7 2 0 5 1 -
p819
aVDell Curry CHH 11/07/1989 CHH @ SEA L 26 17 7 19 36.8 0 4 0.0 3 3 100.0 1 1 2 5 0 0 3 2 -
p820
aVJ.R. Reid CHH 11/07/1989 CHH @ SEA L 10 0 0 4 0.0 0 0 - 0 0 - 0 1 1 0 0 0 0 1 -
p821
aVKurt Rambis CHH 11/07/1989 CHH @ SEA L 28 9 4 8 50.0 0 0 - 1 2 50.0 2 5 7 1 2 0 1 3 -
p822
aVKelly Tripucka CHH 11/07/1989 CHH @ SEA L 31 13 4 9 44.4 1 1 100.0 4 4 100.0 2 3 5 2 1 0 5 3 -
p823
aVJ.R. Reid CHH 11/03/1989 CHH vs. WAS L 26 8 2 9 22.2 0 0 - 4 4 100.0 1 6 7 3 1 1 3 3 -
p824
aVDave Hoppen CHH 11/03/1989 CHH vs. WAS L 19 8 3 3 100.0 0 0 - 2 2 100.0 2 2 4 0 0 0 2 3 -
p825
aVKelly Tripucka CHH 11/03/1989 CHH vs. WAS L 30 13 3 8 37.5 0 0 - 7 9 77.8 0 4 4 1 1 0 3 3 -
p826
aVStuart Gray CHH 11/03/1989 CHH vs. WAS L 9 5 2 3 66.7 0 0 - 1 4 25.0 1 2 3 0 0 1 0 1 -
p827
aVTerry Dozier CHH 11/03/1989 CHH vs. WAS L 9 4 2 3 66.7 0 0 - 0 0 - 0 0 0 1 1 0 1 1 -
p828
aVDell Curry CHH 11/03/1989 CHH vs. WAS L 34 20 9 15 60.0 0 0 - 2 3 66.7 0 3 3 2 4 0 2 4 -
p829
aVMuggsy Bogues CHH 11/03/1989 CHH vs. WAS L 24 7 2 6 33.3 0 0 - 3 4 75.0 0 1 1 7 0 0 0 4 -
p830
aVBrian Rowsom CHH 11/03/1989 CHH vs. WAS L 20 7 2 5 40.0 0 0 - 3 4 75.0 1 4 5 1 3 2 2 3 -
p831
aVKurt Rambis CHH 11/03/1989 CHH vs. WAS L 22 6 3 6 50.0 0 0 - 0 0 - 1 4 5 1 0 0 1 4 -
p832
aVRex Chapman CHH 11/03/1989 CHH vs. WAS L 31 16 7 18 38.9 0 2 0.0 2 4 50.0 1 4 5 2 0 0 3 3 -
p833
aVJerry Sichting CHH 11/03/1989 CHH vs. WAS L 16 2 1 2 50.0 0 0 - 0 0 - 0 1 1 2 1 0 3 1 -
p834
a.