(lp0
VPLAYER TEAM DATE MATCHUP W/L MIN PTS FGM FGA FG% 3PM 3PA 3P% FTM FTA FT% OREB DREB REB AST STL BLK TOV PF +/-
p1
aVTony Brown MIL 05/03/1990 MIL vs. CHI L 4 3 1 3 33.3 1 1 100.0 0 0 - 0 0 0 0 1 0 0 2 -
p2
aVRicky Pierce MIL 05/03/1990 MIL vs. CHI L 31 19 3 12 25.0 2 6 33.3 11 12 91.7 2 0 2 0 2 0 1 4 -
p3
aVJay Humphries MIL 05/03/1990 MIL vs. CHI L 24 14 4 7 57.1 1 2 50.0 5 8 62.5 0 0 0 3 0 0 1 3 -
p4
aVBrad Lohaus MIL 05/03/1990 MIL vs. CHI L 36 11 5 14 35.7 1 6 16.7 0 0 - 3 5 8 1 3 2 3 3 -
p5
aVJack Sikma MIL 05/03/1990 MIL vs. CHI L 29 1 0 5 0.0 0 1 0.0 1 1 100.0 0 4 4 1 1 1 1 5 -
p6
aVTito Horford MIL 05/03/1990 MIL vs. CHI L 1 2 1 1 100.0 0 0 - 0 0 - 0 0 0 0 0 0 0 0 -
p7
aVFred Roberts MIL 05/03/1990 MIL vs. CHI L 18 6 2 3 66.7 0 0 - 2 4 50.0 1 0 1 0 0 0 2 5 -
p8
aVJeff Grayer MIL 05/03/1990 MIL vs. CHI L 9 0 0 0 - 0 0 - 0 0 - 0 2 2 1 0 0 1 1 -
p9
aVAlvin Robertson MIL 05/03/1990 MIL vs. CHI L 40 20 7 20 35.0 0 0 - 6 11 54.5 2 1 3 4 2 0 4 5 -
p10
aVGreg Anderson MIL 05/03/1990 MIL vs. CHI L 18 3 1 1 100.0 0 0 - 1 4 25.0 2 6 8 0 0 2 1 6 -
p11
aVFrank Kornet MIL 05/03/1990 MIL vs. CHI L 3 0 0 1 0.0 0 1 0.0 0 0 - 0 1 1 0 0 0 1 1 -
p12
aVPaul Pressey MIL 05/03/1990 MIL vs. CHI L 27 7 3 10 30.0 0 1 0.0 1 2 50.0 5 2 7 2 0 1 1 4 -
p13
aVPaul Pressey MIL 05/01/1990 MIL vs. CHI W 47 19 4 15 26.7 0 1 0.0 11 13 84.6 2 4 6 12 4 0 1 5 -
p14
aVJeff Grayer MIL 05/01/1990 MIL vs. CHI W 1 0 0 0 - 0 0 - 0 0 - 0 0 0 0 0 0 0 0 -
p15
aVJack Sikma MIL 05/01/1990 MIL vs. CHI W 25 8 2 3 66.7 2 3 66.7 2 3 66.7 0 3 3 2 0 0 2 5 -
p16
aVGreg Anderson MIL 05/01/1990 MIL vs. CHI W 25 3 1 6 16.7 0 0 - 1 2 50.0 0 2 2 0 0 0 0 4 -
p17
aVRicky Pierce MIL 05/01/1990 MIL vs. CHI W 25 19 6 11 54.5 1 1 100.0 6 6 100.0 0 1 1 1 1 0 0 2 -
p18
aVFred Roberts MIL 05/01/1990 MIL vs. CHI W 35 23 8 11 72.7 0 0 - 7 8 87.5 3 2 5 2 0 1 1 2 -
p19
aVAlvin Robertson MIL 05/01/1990 MIL vs. CHI W 44 38 14 21 66.7 0 0 - 10 11 90.9 5 3 8 7 0 0 3 3 -
p20
aVBrad Lohaus MIL 05/01/1990 MIL vs. CHI W 38 9 4 11 36.4 1 3 33.3 0 0 - 0 7 7 2 4 2 2 3 -
p21
aVJeff Grayer MIL 04/29/1990 MIL @ CHI L 1 0 0 0 - 0 0 - 0 0 - 0 0 0 0 0 0 0 0 -
p22
aVGreg Anderson MIL 04/29/1990 MIL @ CHI L 34 14 6 7 85.7 0 0 - 2 4 50.0 4 6 10 0 1 1 1 6 -
p23
aVAlvin Robertson MIL 04/29/1990 MIL @ CHI L 37 14 6 14 42.9 0 1 0.0 2 4 50.0 2 5 7 6 4 0 5 4 -
p24
aVJack Sikma MIL 04/29/1990 MIL @ CHI L 30 5 1 7 14.3 0 1 0.0 3 4 75.0 0 2 2 2 1 2 6 5 -
p25
aVRicky Pierce MIL 04/29/1990 MIL @ CHI L 34 23 8 16 50.0 2 2 100.0 5 5 100.0 2 0 2 4 1 0 2 5 -
p26
aVFred Roberts MIL 04/29/1990 MIL @ CHI L 7 4 2 3 66.7 0 1 0.0 0 0 - 0 0 0 1 0 0 0 0 -
p27
aVBrad Lohaus MIL 04/29/1990 MIL @ CHI L 41 15 6 8 75.0 3 4 75.0 0 0 - 1 4 5 1 1 3 1 5 -
p28
aVJay Humphries MIL 04/29/1990 MIL @ CHI L 20 2 1 2 50.0 0 0 - 0 0 - 0 1 1 4 1 0 2 2 -
p29
aVPaul Pressey MIL 04/29/1990 MIL @ CHI L 36 25 9 15 60.0 0 1 0.0 7 8 87.5 1 6 7 12 2 0 3 4 -
p30
aVFrank Kornet MIL 04/27/1990 MIL @ CHI L 1 0 0 0 - 0 0 - 0 0 - 0 0 0 0 0 0 0 0 -
p31
aVJay Humphries MIL 04/27/1990 MIL @ CHI L 35 11 3 6 50.0 0 1 0.0 5 5 100.0 1 3 4 12 2 0 5 1 -
p32
aVPaul Pressey MIL 04/27/1990 MIL @ CHI L 19 8 3 4 75.0 0 0 - 2 3 66.7 0 1 1 4 0 0 2 1 -
p33
aVJeff Grayer MIL 04/27/1990 MIL @ CHI L 1 0 0 0 - 0 0 - 0 0 - 0 0 0 0 0 0 0 0 -
p34
aVTito Horford MIL 04/27/1990 MIL @ CHI L 1 0 0 0 - 0 0 - 0 0 - 0 0 0 0 0 0 0 0 -
p35
aVBrad Lohaus MIL 04/27/1990 MIL @ CHI L 32 3 1 7 14.3 1 3 33.3 0 0 - 0 7 7 1 0 2 3 6 -
p36
aVFred Roberts MIL 04/27/1990 MIL @ CHI L 19 6 1 3 33.3 0 0 - 4 4 100.0 1 1 2 0 0 0 2 2 -
p37
aVRicky Pierce MIL 04/27/1990 MIL @ CHI L 32 28 11 21 52.4 0 1 0.0 6 8 75.0 2 2 4 1 1 0 0 3 -
p38
aVTony Brown MIL 04/27/1990 MIL @ CHI L 9 0 0 0 - 0 0 - 0 0 - 0 0 0 0 1 0 0 1 -
p39
aVJack Sikma MIL 04/27/1990 MIL @ CHI L 33 6 3 8 37.5 0 2 0.0 0 0 - 0 5 5 2 0 1 3 4 -
p40
aVGreg Anderson MIL 04/27/1990 MIL @ CHI L 24 13 5 5 100.0 0 0 - 3 4 75.0 0 4 4 0 0 1 2 3 -
p41
aVAlvin Robertson MIL 04/27/1990 MIL @ CHI L 34 22 8 12 66.7 0 0 - 6 8 75.0 1 4 5 2 3 0 3 4 -
p42
a.