(lp0
VPLAYER TEAM DATE MATCHUP W/L MIN PTS FGM FGA FG% 3PM 3PA 3P% FTM FTA FT% OREB DREB REB AST STL BLK TOV PF +/-
p1
aVDennis Rodman DET 06/14/1990 DET @ POR W 30 2 1 3 33.3 0 0 - 0 2 0.0 2 3 5 1 1 2 1 3 -
p2
aVJohn Salley DET 06/14/1990 DET @ POR W 25 8 4 8 50.0 0 0 - 0 0 - 4 2 6 0 1 1 1 4 -
p3
aVDavid Greenwood DET 06/14/1990 DET @ POR W 4 0 0 0 - 0 0 - 0 0 - 0 0 0 0 0 0 0 1 -
p4
aVJoe Dumars DET 06/14/1990 DET @ POR W 37 8 2 13 15.4 0 1 0.0 4 6 66.7 3 1 4 7 2 0 2 2 -
p5
aVBill Laimbeer DET 06/14/1990 DET @ POR W 33 6 3 5 60.0 0 0 - 0 0 - 1 16 17 2 1 1 0 5 -
p6
aVMark Aguirre DET 06/14/1990 DET @ POR W 18 10 3 8 37.5 1 1 100.0 3 3 100.0 2 2 4 0 0 0 2 3 -
p7
aVVinnie Johnson DET 06/14/1990 DET @ POR W 24 16 6 11 54.5 0 0 - 4 5 80.0 1 1 2 0 1 1 2 3 -
p8
aVJames Edwards DET 06/14/1990 DET @ POR W 34 13 5 13 38.5 0 1 0.0 3 5 60.0 1 2 3 0 1 1 3 5 -
p9
aVIsiah Thomas DET 06/14/1990 DET @ POR W 35 29 13 20 65.0 3 3 100.0 0 2 0.0 2 1 3 5 2 0 7 3 -
p10
aVVinnie Johnson DET 06/12/1990 DET @ POR W 31 20 9 12 75.0 0 0 - 2 4 50.0 3 1 4 3 0 0 1 4 -
p11
aVGerald Henderson DET 06/12/1990 DET @ POR W 1 2 1 1 100.0 0 0 - 0 0 - 0 0 0 0 0 0 0 0 -
p12
aVBill Laimbeer DET 06/12/1990 DET @ POR W 37 12 4 10 40.0 2 7 28.6 2 2 100.0 3 9 12 3 2 1 1 6 -
p13
aVJoe Dumars DET 06/12/1990 DET @ POR W 43 26 9 21 42.9 0 2 0.0 8 8 100.0 0 2 2 4 1 0 3 0 -
p14
aVIsiah Thomas DET 06/12/1990 DET @ POR W 34 32 11 20 55.0 4 5 80.0 6 6 100.0 1 3 4 5 3 0 3 3 -
p15
aVDavid Greenwood DET 06/12/1990 DET @ POR W 16 0 0 2 0.0 0 0 - 0 0 - 1 3 4 0 1 0 1 3 -
p16
aVJames Edwards DET 06/12/1990 DET @ POR W 19 13 5 10 50.0 0 0 - 3 4 75.0 2 5 7 2 0 0 1 5 -
p17
aVJohn Salley DET 06/12/1990 DET @ POR W 31 4 2 8 25.0 0 0 - 0 0 - 1 3 4 0 0 2 1 6 -
p18
aVMark Aguirre DET 06/12/1990 DET @ POR W 26 3 1 7 14.3 1 2 50.0 0 0 - 1 1 2 2 1 0 1 3 -
p19
aVScott Hastings DET 06/12/1990 DET @ POR W 1 0 0 0 - 0 0 - 0 0 - 0 0 0 0 0 0 0 0 -
p20
aVDennis Rodman DET 06/12/1990 DET @ POR W 1 0 0 0 - 0 0 - 0 0 - 0 0 0 0 0 0 0 0 -
p21
aVIsiah Thomas DET 06/10/1990 DET @ POR W 41 21 6 8 75.0 0 1 0.0 9 11 81.8 1 4 5 8 1 0 6 4 -
p22
aVGerald Henderson DET 06/10/1990 DET @ POR W 1 0 0 0 - 0 0 - 0 0 - 0 0 0 0 0 0 0 0 -
p23
aVJoe Dumars DET 06/10/1990 DET @ POR W 43 33 11 22 50.0 2 3 66.7 9 9 100.0 1 0 1 5 0 0 4 3 -
p24
aVMark Aguirre DET 06/10/1990 DET @ POR W 28 11 4 7 57.1 1 2 50.0 2 4 50.0 1 2 3 1 1 0 0 2 -
p25
aVScott Hastings DET 06/10/1990 DET @ POR W 3 0 0 1 0.0 0 1 0.0 0 0 - 0 0 0 0 0 0 0 1 -
p26
aVJohn Salley DET 06/10/1990 DET @ POR W 21 10 3 7 42.9 0 0 - 4 4 100.0 3 4 7 1 0 2 0 3 -
p27
aVBill Laimbeer DET 06/10/1990 DET @ POR W 40 11 4 12 33.3 0 3 0.0 3 3 100.0 1 11 12 2 1 1 0 6 -
p28
aVJames Edwards DET 06/10/1990 DET @ POR W 25 11 5 10 50.0 0 0 - 1 5 20.0 1 1 2 2 0 0 0 2 -
p29
aVDavid Greenwood DET 06/10/1990 DET @ POR W 13 3 1 1 100.0 0 0 - 1 2 50.0 1 4 5 0 0 0 1 4 -
p30
aVVinnie Johnson DET 06/10/1990 DET @ POR W 25 21 9 13 69.2 0 0 - 3 3 100.0 1 0 1 0 0 1 3 1 -
p31
aVIsiah Thomas DET 06/07/1990 DET vs. POR L 44 23 9 21 42.9 2 4 50.0 3 6 50.0 3 4 7 11 1 2 7 6 -
p32
aVDennis Rodman DET 06/07/1990 DET vs. POR L 25 1 0 1 0.0 0 0 - 1 2 50.0 2 6 8 1 0 0 2 4 -
p33
aVVinnie Johnson DET 06/07/1990 DET vs. POR L 16 2 1 4 25.0 0 0 - 0 0 - 1 0 1 0 0 1 2 3 -
p34
aVJames Edwards DET 06/07/1990 DET vs. POR L 38 26 12 23 52.2 0 0 - 2 3 66.7 2 2 4 0 0 1 1 5 -
p35
aVBill Laimbeer DET 06/07/1990 DET vs. POR L 44 26 10 18 55.6 6 9 66.7 0 0 - 4 7 11 4 1 0 0 4 -
p36
aVJoe Dumars DET 06/07/1990 DET vs. POR L 46 16 6 11 54.5 0 0 - 4 5 80.0 1 5 6 8 0 0 3 3 -
p37
aVJohn Salley DET 06/07/1990 DET vs. POR L 32 5 1 3 33.3 0 0 - 3 5 60.0 2 4 6 0 0 3 1 1 -
p38
aVMark Aguirre DET 06/07/1990 DET vs. POR L 20 6 2 9 22.2 0 1 0.0 2 2 100.0 0 1 1 1 0 0 2 2 -
p39
aVVinnie Johnson DET 06/05/1990 DET vs. POR W 17 2 0 6 0.0 0 1 0.0 2 2 100.0 1 1 2 3 0 0 0 0 -
p40
aVMark Aguirre DET 06/05/1990 DET vs. POR W 28 18 5 14 35.7 1 2 50.0 7 12 58.3 2 6 8 0 0 0 1 2 -
p41
aVJohn Salley DET 06/05/1990 DET vs. POR W 34 6 2 6 33.3 0 0 - 2 4 50.0 8 1 9 1 0 4 1 4 -
p42
aVJames Edwards DET 06/05/1990 DET vs. POR W 22 9 2 9 22.2 0 0 - 5 8 62.5 2 1 3 0 1 1 0 3 -
p43
aVBill Laimbeer DET 06/05/1990 DET vs. POR W 37 11 3 9 33.3 0 3 0.0 5 5 100.0 3 12 15 1 2 0 0 4 -
p44
aVJoe Dumars DET 06/05/1990 DET vs. POR W 41 20 6 15 40.0 0 1 0.0 8 9 88.9 0 1 1 4 1 0 6 3 -
p45
aVDennis Rodman DET 06/05/1990 DET vs. POR W 23 6 3 5 60.0 0 0 - 0 0 - 2 7 9 1 1 0 3 6 -
p46
aVIsiah Thomas DET 06/05/1990 DET vs. POR W 38 33 13 27 48.1 2 3 66.7 5 6 83.3 1 6 7 6 1 0 2 3 -
p47
aVJoe Dumars DET 06/03/1990 DET vs. CHI W 33 7 2 9 22.2 0 0 - 3 3 100.0 2 0 2 4 1 0 2 1 -
p48
aVMark Aguirre DET 06/03/1990 DET vs. CHI W 25 15 7 10 70.0 0 0 - 1 1 100.0 2 8 10 2 0 0 2 3 -
p49
aVWilliam Bedford DET 06/03/1990 DET vs. CHI W 3 0 0 0 - 0 0 - 0 0 - 0 0 0 0 0 0 0 1 -
p50
aVBill Laimbeer DET 06/03/1990 DET vs. CHI W 27 13 4 7 57.1 0 1 0.0 5 5 100.0 0 7 7 0 2 0 0 3 -
p51
aVGerald Henderson DET 06/03/1990 DET vs. CHI W 1 0 0 0 - 0 0 - 0 0 - 0 0 0 0 0 0 0 0 -
p52
aVJohn Salley DET 06/03/1990 DET vs. CHI W 32 14 6 8 75.0 0 0 - 2 3 66.7 0 3 3 1 1 5 2 3 -
p53
aVDennis Rodman DET 06/03/1990 DET vs. CHI W 39 13 6 7 85.7 0 0 - 1 2 50.0 2 7 9 1 2 1 1 4 -
p54
aVVinnie Johnson DET 06/03/1990 DET vs. CHI W 18 4 2 5 40.0 0 0 - 0 0 - 1 2 3 2 0 0 1 0 -
p55
aVJames Edwards DET 06/03/1990 DET vs. CHI W 17 6 3 8 37.5 0 0 - 0 0 - 2 2 4 0 0 0 2 4 -
p56
aVScott Hastings DET 06/03/1990 DET vs. CHI W 1 0 0 1 0.0 0 1 0.0 0 0 - 0 0 0 0 0 0 0 0 -
p57
aVIsiah Thomas DET 06/03/1990 DET vs. CHI W 44 21 7 17 41.2 1 3 33.3 6 8 75.0 0 8 8 11 2 1 2 3 -
p58
aVJohn Salley DET 06/01/1990 DET @ CHI L 31 11 2 6 33.3 0 0 - 7 8 87.5 1 4 5 2 0 0 2 4 -
p59
aVIsiah Thomas DET 06/01/1990 DET @ CHI L 42 15 5 17 29.4 0 4 0.0 5 6 83.3 2 2 4 10 3 1 2 3 -
p60
aVJames Edwards DET 06/01/1990 DET @ CHI L 23 12 3 8 37.5 0 0 - 6 8 75.0 1 3 4 2 0 1 3 5 -
p61
aVMark Aguirre DET 06/01/1990 DET @ CHI L 19 8 4 8 50.0 0 2 0.0 0 0 - 3 2 5 0 0 1 3 5 -
p62
aVVinnie Johnson DET 06/01/1990 DET @ CHI L 25 2 0 10 0.0 0 2 0.0 2 2 100.0 4 1 5 4 1 0 2 3 -
p63
aVJoe Dumars DET 06/01/1990 DET @ CHI L 37 23 9 16 56.3 0 1 0.0 5 6 83.3 0 2 2 5 1 0 2 2 -
p64
aVWilliam Bedford DET 06/01/1990 DET @ CHI L 2 0 0 1 0.0 0 0 - 0 0 - 0 0 0 0 0 0 0 0 -
p65
aVBill Laimbeer DET 06/01/1990 DET @ CHI L 28 11 5 10 50.0 0 1 0.0 1 1 100.0 1 7 8 0 3 1 0 4 -
p66
aVDennis Rodman DET 06/01/1990 DET @ CHI L 31 9 4 6 66.7 0 0 - 1 3 33.3 4 4 8 1 0 0 1 4 -
p67
aVGerald Henderson DET 06/01/1990 DET @ CHI L 2 0 0 3 0.0 0 3 0.0 0 0 - 1 0 1 0 1 0 0 1 -
p68
aVMark Aguirre DET 05/30/1990 DET vs. CHI W 21 19 8 10 80.0 1 2 50.0 2 3 66.7 2 3 5 2 0 0 1 4 -
p69
aVJohn Salley DET 05/30/1990 DET vs. CHI W 35 8 1 3 33.3 0 0 - 6 6 100.0 2 8 10 4 2 1 0 4 -
p70
aVJames Edwards DET 05/30/1990 DET vs. CHI W 32 13 6 7 85.7 0 0 - 1 3 33.3 1 5 6 2 0 0 1 1 -
p71
aVDennis Rodman DET 05/30/1990 DET vs. CHI W 27 6 2 3 66.7 0 0 - 2 2 100.0 1 5 6 0 1 0 2 2 -
p72
aVVinnie Johnson DET 05/30/1990 DET vs. CHI W 29 8 4 8 50.0 0 0 - 0 0 - 1 2 3 8 1 0 3 2 -
p73
aVIsiah Thomas DET 05/30/1990 DET vs. CHI W 29 7 3 10 30.0 1 3 33.3 0 0 - 0 6 6 10 1 0 4 4 -
p74
aVBill Laimbeer DET 05/30/1990 DET vs. CHI W 29 16 7 13 53.8 0 0 - 2 4 50.0 1 6 7 1 0 0 2 4 -
p75
aVJoe Dumars DET 05/30/1990 DET vs. CHI W 38 20 7 14 50.0 0 1 0.0 6 9 66.7 1 1 2 2 0 0 2 3 -
p76
aVIsiah Thomas DET 05/28/1990 DET @ CHI L 40 26 7 15 46.7 0 2 0.0 12 12 100.0 2 6 8 8 3 0 5 4 -
p77
aVDennis Rodman DET 05/28/1990 DET @ CHI L 43 20 7 15 46.7 0 0 - 6 8 75.0 10 10 20 0 0 1 3 5 -
p78
aVJoe Dumars DET 05/28/1990 DET @ CHI L 39 24 6 14 42.9 2 3 66.7 10 11 90.9 0 2 2 5 3 0 7 4 -
p79
aVJohn Salley DET 05/28/1990 DET @ CHI L 23 7 2 4 50.0 0 0 - 3 4 75.0 3 1 4 0 1 1 1 6 -
p80
aVBill Laimbeer DET 05/28/1990 DET @ CHI L 31 4 1 7 14.3 0 0 - 2 2 100.0 3 3 6 1 1 2 0 3 -
p81
aVGerald Henderson DET 05/28/1990 DET @ CHI L 1 0 0 0 - 0 0 - 0 0 - 0 0 0 0 0 0 0 0 -
p82
aVMark Aguirre DET 05/28/1990 DET @ CHI L 9 2 0 3 0.0 0 0 - 2 2 100.0 2 1 3 0 0 0 3 1 -
p83
aVJames Edwards DET 05/28/1990 DET @ CHI L 22 9 3 10 30.0 0 0 - 3 8 37.5 2 4 6 0 0 0 0 3 -
p84
aVWilliam Bedford DET 05/28/1990 DET @ CHI L 6 2 0 1 0.0 0 0 - 2 2 100.0 0 0 0 0 0 1 0 2 -
p85
aVVinnie Johnson DET 05/28/1990 DET @ CHI L 26 7 3 9 33.3 1 2 50.0 0 0 - 1 2 3 1 2 0 2 4 -
p86
aVIsiah Thomas DET 05/26/1990 DET @ CHI L 43 36 13 21 61.9 4 6 66.7 6 8 75.0 1 4 5 8 4 0 2 4 -
p87
aVJoe Dumars DET 05/26/1990 DET @ CHI L 37 8 4 11 36.4 0 3 0.0 0 0 - 0 0 0 4 1 0 1 2 -
p88
aVDennis Rodman DET 05/26/1990 DET @ CHI L 25 2 0 2 0.0 0 0 - 2 2 100.0 2 5 7 0 1 1 4 5 -
p89
aVBill Laimbeer DET 05/26/1990 DET @ CHI L 34 0 0 6 0.0 0 1 0.0 0 0 - 2 6 8 1 1 2 0 6 -
p90
aVJohn Salley DET 05/26/1990 DET @ CHI L 16 9 1 3 33.3 0 0 - 7 8 87.5 4 0 4 0 1 0 1 5 -
p91
aVGerald Henderson DET 05/26/1990 DET @ CHI L 1 0 0 0 - 0 0 - 0 0 - 0 0 0 0 0 0 0 0 -
p92
aVVinnie Johnson DET 05/26/1990 DET @ CHI L 20 9 3 6 50.0 0 0 - 3 4 75.0 0 2 2 3 0 0 1 3 -
p93
aVJames Edwards DET 05/26/1990 DET @ CHI L 34 16 8 13 61.5 0 0 - 0 3 0.0 0 3 3 2 0 0 5 3 -
p94
aVMark Aguirre DET 05/26/1990 DET @ CHI L 30 22 9 14 64.3 2 3 66.7 2 2 100.0 3 4 7 2 2 0 3 2 -
p95
aVJoe Dumars DET 05/22/1990 DET vs. CHI W 38 31 12 19 63.2 1 1 100.0 6 7 85.7 1 2 3 3 1 0 3 1 -
p96
aVScott Hastings DET 05/22/1990 DET vs. CHI W 6 0 0 1 0.0 0 1 0.0 0 0 - 0 0 0 0 1 0 0 2 -
p97
aVVinnie Johnson DET 05/22/1990 DET vs. CHI W 29 18 4 12 33.3 0 1 0.0 10 13 76.9 1 7 8 7 1 0 4 2 -
p98
aVMark Aguirre DET 05/22/1990 DET vs. CHI W 25 12 5 10 50.0 0 0 - 2 2 100.0 0 7 7 2 1 0 3 4 -
p99
aVBill Laimbeer DET 05/22/1990 DET vs. CHI W 29 10 5 11 45.5 0 0 - 0 0 - 3 5 8 0 0 1 1 4 -
p100
aVIsiah Thomas DET 05/22/1990 DET vs. CHI W 34 10 2 9 22.2 0 2 0.0 6 8 75.0 2 4 6 7 4 0 3 2 -
p101
aVJames Edwards DET 05/22/1990 DET vs. CHI W 25 4 1 5 20.0 0 0 - 2 2 100.0 0 1 1 0 0 0 1 3 -
p102
aVJohn Salley DET 05/22/1990 DET vs. CHI W 31 9 2 3 66.7 0 0 - 5 8 62.5 3 3 6 0 0 3 2 1 -
p103
aVDennis Rodman DET 05/22/1990 DET vs. CHI W 23 8 3 3 100.0 0 0 - 2 3 66.7 1 4 5 1 0 1 2 4 -
p104
aVVinnie Johnson DET 05/20/1990 DET vs. CHI W 20 10 4 8 50.0 0 0 - 2 2 100.0 0 1 1 3 0 0 3 1 -
p105
aVIsiah Thomas DET 05/20/1990 DET vs. CHI W 37 8 3 12 25.0 2 4 50.0 0 0 - 0 6 6 6 3 1 5 3 -
p106
aVJoe Dumars DET 05/20/1990 DET vs. CHI W 39 27 12 21 57.1 0 1 0.0 3 3 100.0 2 1 3 2 1 0 1 1 -
p107
aVJames Edwards DET 05/20/1990 DET vs. CHI W 31 9 4 11 36.4 0 0 - 1 6 16.7 1 6 7 0 0 3 2 3 -
p108
aVDennis Rodman DET 05/20/1990 DET vs. CHI W 38 6 3 6 50.0 0 0 - 0 0 - 3 10 13 1 0 1 0 2 -
p109
aVJohn Salley DET 05/20/1990 DET vs. CHI W 28 11 3 5 60.0 0 0 - 5 6 83.3 3 1 4 1 1 0 2 3 -
p110
aVBill Laimbeer DET 05/20/1990 DET vs. CHI W 27 9 3 8 37.5 1 2 50.0 2 4 50.0 1 5 6 1 1 1 1 4 -
p111
aVMark Aguirre DET 05/20/1990 DET vs. CHI W 20 6 1 7 14.3 0 1 0.0 4 4 100.0 2 6 8 3 1 1 2 2 -
p112
aVJohn Salley DET 05/15/1990 DET vs. NYK W 27 5 1 5 20.0 0 0 - 3 4 75.0 1 6 7 2 1 2 1 4 -
p113
aVMark Aguirre DET 05/15/1990 DET vs. NYK W 21 25 11 15 73.3 1 3 33.3 2 2 100.0 3 5 8 1 1 0 3 3 -
p114
aVJames Edwards DET 05/15/1990 DET vs. NYK W 31 15 6 9 66.7 0 0 - 3 3 100.0 0 2 2 0 0 1 3 5 -
p115
aVJoe Dumars DET 05/15/1990 DET vs. NYK W 38 14 5 12 41.7 0 0 - 4 4 100.0 1 1 2 4 1 0 1 1 -
p116
aVDennis Rodman DET 05/15/1990 DET vs. NYK W 35 4 2 4 50.0 0 0 - 0 0 - 3 8 11 1 0 0 0 4 -
p117
aVBill Laimbeer DET 05/15/1990 DET vs. NYK W 30 2 1 7 14.3 0 1 0.0 0 0 - 2 8 10 1 1 2 1 1 -
p118
aVIsiah Thomas DET 05/15/1990 DET vs. NYK W 33 16 5 18 27.8 1 5 20.0 5 6 83.3 0 0 0 6 3 0 1 2 -
p119
aVVinnie Johnson DET 05/15/1990 DET vs. NYK W 25 14 7 12 58.3 0 0 - 0 0 - 1 3 4 3 0 0 3 2 -
p120
aVBill Laimbeer DET 05/13/1990 DET @ NYK W 32 15 7 11 63.6 1 2 50.0 0 0 - 1 8 9 1 0 0 2 4 -
p121
aVJohn Salley DET 05/13/1990 DET @ NYK W 27 8 4 7 57.1 0 0 - 0 0 - 3 3 6 1 0 3 3 5 -
p122
aVIsiah Thomas DET 05/13/1990 DET @ NYK W 42 12 6 13 46.2 0 3 0.0 0 0 - 0 8 8 11 1 0 5 3 -
p123
aVJames Edwards DET 05/13/1990 DET @ NYK W 28 19 9 17 52.9 0 0 - 1 2 50.0 0 1 1 0 1 0 1 5 -
p124
aVVinnie Johnson DET 05/13/1990 DET @ NYK W 28 15 7 9 77.8 0 0 - 1 2 50.0 2 2 4 4 0 0 1 1 -
p125
aVMark Aguirre DET 05/13/1990 DET @ NYK W 11 2 1 3 33.3 0 1 0.0 0 0 - 0 0 0 0 0 1 0 1 -
p126
aVJoe Dumars DET 05/13/1990 DET @ NYK W 32 17 5 8 62.5 0 0 - 7 7 100.0 0 0 0 6 0 0 2 2 -
p127
aVDennis Rodman DET 05/13/1990 DET @ NYK W 40 14 6 10 60.0 0 0 - 2 4 50.0 6 8 14 2 2 2 0 4 -
p128
aVGerald Henderson DET 05/12/1990 DET @ NYK L 1 0 0 0 - 0 0 - 0 0 - 1 0 1 0 0 0 0 0 -
p129
aVDavid Greenwood DET 05/12/1990 DET @ NYK L 5 0 0 0 - 0 0 - 0 0 - 0 0 0 0 0 0 0 3 -
p130
aVBill Laimbeer DET 05/12/1990 DET @ NYK L 33 18 7 10 70.0 3 5 60.0 1 1 100.0 1 4 5 0 2 0 1 4 -
p131
aVJames Edwards DET 05/12/1990 DET @ NYK L 28 13 4 11 36.4 0 0 - 5 10 50.0 3 0 3 2 2 0 2 4 -
p132
aVIsiah Thomas DET 05/12/1990 DET @ NYK L 44 20 8 21 38.1 1 4 25.0 3 5 60.0 2 4 6 6 1 0 3 2 -
p133
aVJoe Dumars DET 05/12/1990 DET @ NYK L 37 19 7 18 38.9 0 0 - 5 7 71.4 4 2 6 5 4 0 1 3 -
p134
aVVinnie Johnson DET 05/12/1990 DET @ NYK L 15 4 2 6 33.3 0 0 - 0 0 - 1 0 1 3 0 0 1 0 -
p135
aVMark Aguirre DET 05/12/1990 DET @ NYK L 18 12 5 11 45.5 0 2 0.0 2 5 40.0 0 3 3 2 1 0 0 2 -
p136
aVDennis Rodman DET 05/12/1990 DET @ NYK L 32 6 3 6 50.0 0 0 - 0 0 - 3 5 8 2 0 1 3 1 -
p137
aVJohn Salley DET 05/12/1990 DET @ NYK L 27 11 3 6 50.0 0 0 - 5 7 71.4 3 4 7 3 0 1 0 5 -
p138
aVMark Aguirre DET 05/10/1990 DET vs. NYK W 20 10 5 8 62.5 0 0 - 0 0 - 1 2 3 2 0 0 2 2 -
p139
aVDennis Rodman DET 05/10/1990 DET vs. NYK W 33 4 2 3 66.7 0 0 - 0 2 0.0 3 6 9 0 0 0 2 1 -
p140
aVBill Laimbeer DET 05/10/1990 DET vs. NYK W 35 8 4 11 36.4 0 0 - 0 0 - 3 10 13 0 0 2 2 3 -
p141
aVVinnie Johnson DET 05/10/1990 DET vs. NYK W 21 9 4 8 50.0 1 1 100.0 0 0 - 2 0 2 1 0 0 0 1 -
p142
aVJohn Salley DET 05/10/1990 DET vs. NYK W 18 4 0 4 0.0 0 0 - 4 6 66.7 2 3 5 0 0 1 1 3 -
p143
aVIsiah Thomas DET 05/10/1990 DET vs. NYK W 34 23 8 16 50.0 5 7 71.4 2 2 100.0 1 3 4 12 3 0 5 3 -
p144
aVJames Edwards DET 05/10/1990 DET vs. NYK W 38 32 13 19 68.4 0 0 - 6 6 100.0 0 2 2 0 0 0 1 5 -
p145
aVJoe Dumars DET 05/10/1990 DET vs. NYK W 41 14 5 11 45.5 0 1 0.0 4 4 100.0 2 2 4 10 1 0 3 2 -
p146
aVGerald Henderson DET 05/08/1990 DET vs. NYK W 11 0 0 1 0.0 0 0 - 0 0 - 0 1 1 4 1 0 1 2 -
p147
aVDennis Rodman DET 05/08/1990 DET vs. NYK W 30 10 5 8 62.5 0 0 - 0 0 - 3 8 11 0 1 1 2 2 -
p148
aVIsiah Thomas DET 05/08/1990 DET vs. NYK W 28 21 8 12 66.7 2 4 50.0 3 4 75.0 0 4 4 7 0 0 2 2 -
p149
aVVinnie Johnson DET 05/08/1990 DET vs. NYK W 25 14 7 16 43.8 0 0 - 0 0 - 1 2 3 4 0 1 1 0 -
p150
aVWilliam Bedford DET 05/08/1990 DET vs. NYK W 7 2 1 4 25.0 0 0 - 0 0 - 0 2 2 0 0 0 0 1 -
p151
aVJames Edwards DET 05/08/1990 DET vs. NYK W 20 18 8 12 66.7 0 0 - 2 3 66.7 2 3 5 1 0 0 2 3 -
p152
aVBill Laimbeer DET 05/08/1990 DET vs. NYK W 29 7 3 8 37.5 1 3 33.3 0 0 - 3 10 13 3 1 1 2 2 -
p153
aVScott Hastings DET 05/08/1990 DET vs. NYK W 5 2 1 1 100.0 0 0 - 0 0 - 0 0 0 0 0 0 0 1 -
p154
aVMark Aguirre DET 05/08/1990 DET vs. NYK W 24 13 6 13 46.2 0 0 - 1 3 33.3 3 4 7 2 2 0 0 3 -
p155
aVDavid Greenwood DET 05/08/1990 DET vs. NYK W 9 2 1 1 100.0 0 0 - 0 2 0.0 0 0 0 0 1 0 0 0 -
p156
aVJohn Salley DET 05/08/1990 DET vs. NYK W 20 12 3 6 50.0 0 0 - 6 9 66.7 3 2 5 1 1 3 0 1 -
p157
aVJoe Dumars DET 05/08/1990 DET vs. NYK W 32 11 5 10 50.0 0 0 - 1 1 100.0 0 2 2 4 1 0 2 0 -
p158
aVJoe Dumars DET 05/01/1990 DET @ IND W 35 15 6 11 54.5 0 0 - 3 4 75.0 0 0 0 6 1 0 4 3 -
p159
aVBill Laimbeer DET 05/01/1990 DET @ IND W 37 12 6 12 50.0 0 1 0.0 0 0 - 3 16 19 3 2 0 1 2 -
p160
aVIsiah Thomas DET 05/01/1990 DET @ IND W 37 23 10 18 55.6 2 3 66.7 1 2 50.0 0 5 5 9 4 0 1 4 -
p161
aVDennis Rodman DET 05/01/1990 DET @ IND W 22 10 5 6 83.3 0 0 - 0 2 0.0 1 2 3 1 0 1 1 4 -
p162
aVVinnie Johnson DET 05/01/1990 DET @ IND W 24 8 4 11 36.4 0 0 - 0 0 - 3 0 3 3 0 0 0 3 -
p163
aVMark Aguirre DET 05/01/1990 DET @ IND W 36 10 3 8 37.5 0 1 0.0 4 4 100.0 2 3 5 3 0 0 0 3 -
p164
aVJames Edwards DET 05/01/1990 DET @ IND W 23 13 4 12 33.3 0 0 - 5 5 100.0 1 3 4 0 0 1 0 1 -
p165
aVJohn Salley DET 05/01/1990 DET @ IND W 26 17 6 9 66.7 0 0 - 5 7 71.4 3 1 4 0 0 0 0 5 -
p166
aVJoe Dumars DET 04/28/1990 DET vs. IND W 36 19 7 17 41.2 0 1 0.0 5 6 83.3 0 2 2 2 1 0 2 1 -
p167
aVVinnie Johnson DET 04/28/1990 DET vs. IND W 19 9 3 6 50.0 0 0 - 3 4 75.0 1 1 2 1 0 0 0 1 -
p168
aVDennis Rodman DET 04/28/1990 DET vs. IND W 36 1 0 2 0.0 0 0 - 1 2 50.0 3 6 9 2 0 1 0 4 -
p169
aVJames Edwards DET 04/28/1990 DET vs. IND W 22 14 5 12 41.7 0 0 - 4 6 66.7 1 0 1 0 0 0 1 5 -
p170
aVIsiah Thomas DET 04/28/1990 DET vs. IND W 41 13 3 10 30.0 1 1 100.0 6 6 100.0 0 5 5 12 3 0 3 3 -
p171
aVMark Aguirre DET 04/28/1990 DET vs. IND W 18 11 4 8 50.0 0 1 0.0 3 3 100.0 0 0 0 2 0 0 1 1 -
p172
aVJohn Salley DET 04/28/1990 DET vs. IND W 28 11 3 5 60.0 0 0 - 5 6 83.3 1 3 4 2 0 1 2 4 -
p173
aVBill Laimbeer DET 04/28/1990 DET vs. IND W 40 22 10 15 66.7 0 2 0.0 2 2 100.0 4 7 11 2 2 2 1 3 -
p174
aVJohn Salley DET 04/26/1990 DET vs. IND W 35 20 9 16 56.3 0 0 - 2 3 66.7 7 4 11 1 0 0 1 5 -
p175
aVDennis Rodman DET 04/26/1990 DET vs. IND W 27 4 2 5 40.0 0 0 - 0 1 0.0 4 2 6 2 0 0 4 3 -
p176
aVJames Edwards DET 04/26/1990 DET vs. IND W 24 21 8 12 66.7 0 0 - 5 6 83.3 2 1 3 0 0 2 2 4 -
p177
aVBill Laimbeer DET 04/26/1990 DET vs. IND W 35 9 4 9 44.4 1 2 50.0 0 0 - 1 13 14 2 0 1 1 5 -
p178
aVVinnie Johnson DET 04/26/1990 DET vs. IND W 26 14 6 12 50.0 0 0 - 2 2 100.0 2 0 2 1 2 0 1 4 -
p179
aVIsiah Thomas DET 04/26/1990 DET vs. IND W 38 20 8 15 53.3 1 1 100.0 3 4 75.0 3 5 8 5 0 2 4 4 -
p180
aVWilliam Bedford DET 04/26/1990 DET vs. IND W 1 0 0 0 - 0 0 - 0 0 - 0 0 0 0 0 0 0 0 -
p181
aVMark Aguirre DET 04/26/1990 DET vs. IND W 22 4 2 11 18.2 0 0 - 0 0 - 2 0 2 0 0 0 1 3 -
p182
aVJoe Dumars DET 04/26/1990 DET vs. IND W 32 12 4 11 36.4 0 0 - 4 4 100.0 0 0 0 5 1 0 3 0 -
p183
a.