(lp0
VPLAYER TEAM DATE MATCHUP W/L MIN PTS FGM FGA FG% 3PM 3PA 3P% FTM FTA FT% OREB DREB REB AST STL BLK TOV PF +/-
p1
aVClyde Drexler POR 06/14/1990 POR vs. DET L 40 20 6 13 46.2 0 1 0.0 8 11 72.7 1 5 6 4 1 0 4 6 -
p2
aVJerome Kersey POR 06/14/1990 POR vs. DET L 45 11 4 12 33.3 0 1 0.0 3 4 75.0 4 5 9 3 1 0 3 4 -
p3
aVClifford Robinson POR 06/14/1990 POR vs. DET L 18 0 0 4 0.0 0 0 - 0 0 - 4 2 6 0 0 1 0 3 -
p4
aVDanny Young POR 06/14/1990 POR vs. DET L 16 5 2 2 100.0 1 1 100.0 0 0 - 1 1 2 2 1 1 2 1 -
p5
aVTerry Porter POR 06/14/1990 POR vs. DET L 40 21 5 12 41.7 4 9 44.4 7 10 70.0 1 0 1 9 3 1 5 2 -
p6
aVKevin Duckworth POR 06/14/1990 POR vs. DET L 37 21 10 21 47.6 0 0 - 1 3 33.3 0 5 5 0 1 0 1 3 -
p7
aVBuck Williams POR 06/14/1990 POR vs. DET L 33 10 5 11 45.5 0 0 - 0 0 - 2 6 8 2 0 1 2 4 -
p8
aVWayne Cooper POR 06/14/1990 POR vs. DET L 11 2 1 3 33.3 0 0 - 0 2 0.0 1 2 3 0 1 0 0 2 -
p9
aVDanny Young POR 06/12/1990 POR vs. DET L 17 0 0 2 0.0 0 1 0.0 0 0 - 0 1 1 1 0 0 0 3 -
p10
aVDrazen Petrovic POR 06/12/1990 POR vs. DET L 4 0 0 1 0.0 0 0 - 0 0 - 0 1 1 0 0 0 1 1 -
p11
aVJerome Kersey POR 06/12/1990 POR vs. DET L 44 33 11 17 64.7 0 0 - 11 14 78.6 1 7 8 2 2 1 4 3 -
p12
aVKevin Duckworth POR 06/12/1990 POR vs. DET L 21 8 3 7 42.9 0 0 - 2 2 100.0 0 3 3 0 0 1 3 4 -
p13
aVBuck Williams POR 06/12/1990 POR vs. DET L 45 9 3 8 37.5 0 0 - 3 4 75.0 1 6 7 2 0 0 0 2 -
p14
aVTerry Porter POR 06/12/1990 POR vs. DET L 42 17 5 10 50.0 0 3 0.0 7 9 77.8 0 5 5 6 0 0 5 5 -
p15
aVWayne Cooper POR 06/12/1990 POR vs. DET L 12 0 0 1 0.0 0 0 - 0 0 - 2 0 2 1 0 2 1 2 -
p16
aVClifford Robinson POR 06/12/1990 POR vs. DET L 14 8 4 8 50.0 0 0 - 0 1 0.0 1 0 1 0 1 1 1 3 -
p17
aVClyde Drexler POR 06/12/1990 POR vs. DET L 41 34 14 19 73.7 0 1 0.0 6 9 66.7 3 5 8 10 2 0 3 2 -
p18
aVClifford Robinson POR 06/10/1990 POR vs. DET L 14 2 1 7 14.3 0 1 0.0 0 0 - 0 1 1 1 1 0 0 5 -
p19
aVDrazen Petrovic POR 06/10/1990 POR vs. DET L 8 0 0 5 0.0 0 1 0.0 0 0 - 0 0 0 2 0 0 1 3 -
p20
aVJerome Kersey POR 06/10/1990 POR vs. DET L 38 27 10 21 47.6 0 0 - 7 7 100.0 3 4 7 0 0 0 1 5 -
p21
aVClyde Drexler POR 06/10/1990 POR vs. DET L 43 24 9 23 39.1 1 6 16.7 5 6 83.3 6 7 13 8 3 1 5 4 -
p22
aVDanny Young POR 06/10/1990 POR vs. DET L 18 5 2 5 40.0 0 1 0.0 1 3 33.3 0 2 2 1 1 0 0 2 -
p23
aVWayne Cooper POR 06/10/1990 POR vs. DET L 16 4 2 3 66.7 0 0 - 0 0 - 2 3 5 0 0 0 1 1 -
p24
aVKevin Duckworth POR 06/10/1990 POR vs. DET L 27 18 8 13 61.5 0 0 - 2 2 100.0 2 2 4 0 0 0 5 5 -
p25
aVBuck Williams POR 06/10/1990 POR vs. DET L 27 5 1 3 33.3 0 0 - 3 4 75.0 3 3 6 1 0 0 2 6 -
p26
aVTerry Porter POR 06/10/1990 POR vs. DET L 42 20 6 13 46.2 1 4 25.0 7 7 100.0 2 1 3 9 2 0 4 4 -
p27
aVMark Bryant POR 06/10/1990 POR vs. DET L 7 1 0 0 - 0 0 - 1 2 50.0 0 1 1 0 0 0 1 3 -
p28
aVKevin Duckworth POR 06/07/1990 POR @ DET W 28 14 6 10 60.0 0 0 - 2 3 66.7 1 7 8 0 0 0 3 6 -
p29
aVTerry Porter POR 06/07/1990 POR @ DET W 42 21 3 11 27.3 0 4 0.0 15 15 100.0 1 3 4 10 3 0 1 0 -
p30
aVMark Bryant POR 06/07/1990 POR @ DET W 2 0 0 0 - 0 0 - 0 0 - 1 0 1 0 0 0 0 0 -
p31
aVClyde Drexler POR 06/07/1990 POR @ DET W 43 33 13 20 65.0 1 2 50.0 6 8 75.0 0 3 3 3 2 0 4 3 -
p32
aVDrazen Petrovic POR 06/07/1990 POR @ DET W 13 8 4 5 80.0 0 0 - 0 0 - 0 0 0 0 1 0 0 2 -
p33
aVBuck Williams POR 06/07/1990 POR @ DET W 46 12 3 9 33.3 0 0 - 6 8 75.0 4 8 12 1 1 0 3 2 -
p34
aVWayne Cooper POR 06/07/1990 POR @ DET W 21 3 1 4 25.0 0 0 - 1 2 50.0 2 3 5 0 1 0 0 5 -
p35
aVJerome Kersey POR 06/07/1990 POR @ DET W 38 6 3 11 27.3 0 0 - 0 0 - 0 3 3 0 0 1 0 6 -
p36
aVDanny Young POR 06/07/1990 POR @ DET W 11 2 1 3 33.3 0 0 - 0 0 - 0 1 1 1 0 0 0 2 -
p37
aVClifford Robinson POR 06/07/1990 POR @ DET W 21 7 2 8 25.0 0 0 - 3 5 60.0 0 1 1 2 1 2 0 0 -
p38
aVDrazen Petrovic POR 06/05/1990 POR @ DET L 4 2 1 3 33.3 0 0 - 0 0 - 0 0 0 0 0 0 1 3 -
p39
aVWayne Cooper POR 06/05/1990 POR @ DET L 10 0 0 1 0.0 0 0 - 0 0 - 0 5 5 0 0 2 0 3 -
p40
aVKevin Duckworth POR 06/05/1990 POR @ DET L 36 17 7 14 50.0 0 0 - 3 5 60.0 1 7 8 0 0 1 3 3 -
p41
aVBuck Williams POR 06/05/1990 POR @ DET L 41 20 8 12 66.7 0 0 - 4 9 44.4 2 10 12 3 2 0 1 3 -
p42
aVJerome Kersey POR 06/05/1990 POR @ DET L 41 18 7 13 53.8 0 1 0.0 4 7 57.1 2 6 8 1 0 1 0 5 -
p43
aVClifford Robinson POR 06/05/1990 POR @ DET L 15 2 1 5 20.0 0 0 - 0 0 - 0 3 3 1 1 0 1 4 -
p44
aVDanny Young POR 06/05/1990 POR @ DET L 16 3 1 3 33.3 1 3 33.3 0 0 - 0 1 1 3 1 0 2 3 -
p45
aVClyde Drexler POR 06/05/1990 POR @ DET L 37 21 9 19 47.4 0 2 0.0 3 3 100.0 3 6 9 6 1 0 1 5 -
p46
aVTerry Porter POR 06/05/1990 POR @ DET L 40 16 5 15 33.3 2 5 40.0 4 4 100.0 0 0 0 8 2 0 7 6 -
p47
aVKevin Duckworth POR 05/31/1990 POR @ PHX W 39 18 9 18 50.0 0 0 - 0 0 - 5 3 8 3 2 1 2 4 -
p48
aVJerome Kersey POR 05/31/1990 POR @ PHX W 27 15 7 16 43.8 0 0 - 1 2 50.0 4 6 10 0 2 1 2 5 -
p49
aVMark Bryant POR 05/31/1990 POR @ PHX W 3 0 0 0 - 0 0 - 0 0 - 0 0 0 0 0 0 1 0 -
p50
aVDrazen Petrovic POR 05/31/1990 POR @ PHX W 9 11 5 7 71.4 1 3 33.3 0 0 - 0 3 3 0 0 0 1 2 -
p51
aVClyde Drexler POR 05/31/1990 POR @ PHX W 41 23 6 20 30.0 0 3 0.0 11 15 73.3 6 4 10 7 2 0 5 4 -
p52
aVDanny Young POR 05/31/1990 POR @ PHX W 14 0 0 5 0.0 0 1 0.0 0 0 - 1 1 2 1 0 0 0 4 -
p53
aVTerry Porter POR 05/31/1990 POR @ PHX W 37 23 8 13 61.5 4 7 57.1 3 3 100.0 0 1 1 7 1 0 3 4 -
p54
aVBuck Williams POR 05/31/1990 POR @ PHX W 39 12 2 7 28.6 0 0 - 8 8 100.0 3 8 11 4 3 2 2 5 -
p55
aVClifford Robinson POR 05/31/1990 POR @ PHX W 21 6 3 9 33.3 0 0 - 0 0 - 0 7 7 3 0 3 1 5 -
p56
aVWayne Cooper POR 05/31/1990 POR @ PHX W 10 4 1 1 100.0 0 0 - 2 2 100.0 1 0 1 0 1 2 0 0 -
p57
aVClifford Robinson POR 05/29/1990 POR vs. PHX W 13 8 4 8 50.0 0 0 - 0 2 0.0 3 3 6 1 1 0 0 3 -
p58
aVBuck Williams POR 05/29/1990 POR vs. PHX W 40 15 6 14 42.9 0 0 - 3 4 75.0 4 6 10 1 1 1 2 2 -
p59
aVDrazen Petrovic POR 05/29/1990 POR vs. PHX W 7 1 0 2 0.0 0 0 - 1 2 50.0 0 1 1 1 0 0 1 2 -
p60
aVWayne Cooper POR 05/29/1990 POR vs. PHX W 12 4 2 2 100.0 0 0 - 0 0 - 0 0 0 0 0 2 0 2 -
p61
aVTerry Porter POR 05/29/1990 POR vs. PHX W 39 19 7 14 50.0 3 6 50.0 2 2 100.0 0 3 3 12 1 1 1 1 -
p62
aVClyde Drexler POR 05/29/1990 POR vs. PHX W 46 32 13 24 54.2 1 2 50.0 5 7 71.4 4 6 10 4 3 1 2 3 -
p63
aVDanny Young POR 05/29/1990 POR vs. PHX W 16 5 2 3 66.7 0 0 - 1 2 50.0 1 0 1 3 0 0 2 0 -
p64
aVKevin Duckworth POR 05/29/1990 POR vs. PHX W 31 15 3 9 33.3 0 0 - 9 11 81.8 3 3 6 1 0 1 1 5 -
p65
aVJerome Kersey POR 05/29/1990 POR vs. PHX W 36 21 9 19 47.4 0 0 - 3 4 75.0 3 8 11 2 0 0 2 4 -
p66
aVJerome Kersey POR 05/27/1990 POR @ PHX L 41 29 14 20 70.0 0 0 - 1 1 100.0 0 5 5 3 2 1 1 4 -
p67
aVWayne Cooper POR 05/27/1990 POR @ PHX L 11 2 1 4 25.0 0 0 - 0 0 - 3 3 6 0 0 2 0 1 -
p68
aVKevin Duckworth POR 05/27/1990 POR @ PHX L 37 19 7 17 41.2 0 0 - 5 6 83.3 4 2 6 1 0 0 2 5 -
p69
aVDrazen Petrovic POR 05/27/1990 POR @ PHX L 3 0 0 2 0.0 0 0 - 0 0 - 0 0 0 0 0 0 0 0 -
p70
aVBuck Williams POR 05/27/1990 POR @ PHX L 38 13 6 11 54.5 0 0 - 1 3 33.3 1 7 8 2 0 0 2 1 -
p71
aVTerry Porter POR 05/27/1990 POR @ PHX L 42 21 7 14 50.0 1 4 25.0 6 9 66.7 0 3 3 12 1 0 2 3 -
p72
aVClyde Drexler POR 05/27/1990 POR @ PHX L 38 15 6 13 46.2 1 1 100.0 2 4 50.0 1 2 3 11 1 0 4 5 -
p73
aVClifford Robinson POR 05/27/1990 POR @ PHX L 17 8 3 5 60.0 0 0 - 2 4 50.0 2 2 4 1 0 1 0 4 -
p74
aVDanny Young POR 05/27/1990 POR @ PHX L 13 0 0 8 0.0 0 6 0.0 0 0 - 0 1 1 1 2 0 0 0 -
p75
aVMark Bryant POR 05/25/1990 POR @ PHX L 16 4 2 4 50.0 0 0 - 0 0 - 5 2 7 0 2 2 2 0 -
p76
aVWayne Cooper POR 05/25/1990 POR @ PHX L 16 3 1 3 33.3 0 0 - 1 2 50.0 1 1 2 0 0 3 0 3 -
p77
aVBuck Williams POR 05/25/1990 POR @ PHX L 22 8 3 7 42.9 0 0 - 2 4 50.0 4 0 4 1 0 0 0 4 -
p78
aVDrazen Petrovic POR 05/25/1990 POR @ PHX L 15 6 3 6 50.0 0 0 - 0 4 0.0 2 1 3 3 0 0 1 0 -
p79
aVDanny Young POR 05/25/1990 POR @ PHX L 14 7 3 6 50.0 1 2 50.0 0 1 0.0 0 3 3 1 0 0 0 2 -
p80
aVKevin Duckworth POR 05/25/1990 POR @ PHX L 22 6 2 11 18.2 0 0 - 2 2 100.0 1 3 4 3 1 1 0 2 -
p81
aVNate Johnston POR 05/25/1990 POR @ PHX L 11 6 3 7 42.9 0 0 - 0 0 - 2 3 5 1 1 1 0 3 -
p82
aVByron Irvin POR 05/25/1990 POR @ PHX L 22 10 3 11 27.3 0 0 - 4 4 100.0 1 1 2 3 1 0 3 2 -
p83
aVClyde Drexler POR 05/25/1990 POR @ PHX L 29 11 5 14 35.7 0 1 0.0 1 3 33.3 1 1 2 6 0 0 1 1 -
p84
aVTerry Porter POR 05/25/1990 POR @ PHX L 27 6 2 8 25.0 1 3 33.3 1 2 50.0 0 1 1 5 0 1 1 1 -
p85
aVClifford Robinson POR 05/25/1990 POR @ PHX L 18 6 3 9 33.3 0 1 0.0 0 1 0.0 2 4 6 1 1 0 2 4 -
p86
aVJerome Kersey POR 05/25/1990 POR @ PHX L 28 16 7 16 43.8 0 0 - 2 3 66.7 4 1 5 1 3 0 3 3 -
p87
aVClyde Drexler POR 05/23/1990 POR vs. PHX W 45 20 8 21 38.1 0 1 0.0 4 5 80.0 6 3 9 6 6 2 4 2 -
p88
aVDrazen Petrovic POR 05/23/1990 POR vs. PHX W 20 6 3 10 30.0 0 2 0.0 0 0 - 0 1 1 2 1 0 1 2 -
p89
aVDanny Young POR 05/23/1990 POR vs. PHX W 15 4 1 2 50.0 1 2 50.0 1 2 50.0 0 2 2 2 0 0 1 4 -
p90
aVTerry Porter POR 05/23/1990 POR vs. PHX W 41 28 8 17 47.1 4 7 57.1 8 9 88.9 0 4 4 5 2 0 1 3 -
p91
aVClifford Robinson POR 05/23/1990 POR vs. PHX W 10 4 2 4 50.0 0 0 - 0 0 - 3 3 6 0 0 1 2 5 -
p92
aVKevin Duckworth POR 05/23/1990 POR vs. PHX W 30 11 4 11 36.4 0 0 - 3 4 75.0 2 5 7 1 0 0 4 3 -
p93
aVJerome Kersey POR 05/23/1990 POR vs. PHX W 44 29 10 20 50.0 0 0 - 9 13 69.2 4 7 11 2 3 1 3 5 -
p94
aVBuck Williams POR 05/23/1990 POR vs. PHX W 32 6 3 8 37.5 0 0 - 0 0 - 2 3 5 0 1 0 2 5 -
p95
aVWayne Cooper POR 05/23/1990 POR vs. PHX W 3 0 0 1 0.0 0 0 - 0 0 - 1 1 2 0 0 0 0 2 -
p96
aVBuck Williams POR 05/21/1990 POR vs. PHX W 40 16 6 8 75.0 0 0 - 4 5 80.0 2 6 8 4 1 0 1 2 -
p97
aVClyde Drexler POR 05/21/1990 POR vs. PHX W 34 20 10 18 55.6 0 1 0.0 0 0 - 3 7 10 4 2 3 2 0 -
p98
aVMark Bryant POR 05/21/1990 POR vs. PHX W 5 0 0 3 0.0 0 0 - 0 0 - 1 0 1 0 0 0 1 1 -
p99
aVJerome Kersey POR 05/21/1990 POR vs. PHX W 34 19 8 18 44.4 0 0 - 3 3 100.0 5 6 11 2 1 0 0 4 -
p100
aVClifford Robinson POR 05/21/1990 POR vs. PHX W 17 6 2 7 28.6 0 0 - 2 2 100.0 0 2 2 1 1 0 2 2 -
p101
aVWayne Cooper POR 05/21/1990 POR vs. PHX W 15 2 1 1 100.0 0 0 - 0 0 - 0 4 4 0 0 0 0 2 -
p102
aVTerry Porter POR 05/21/1990 POR vs. PHX W 38 14 6 14 42.9 2 4 50.0 0 0 - 0 1 1 9 1 0 1 1 -
p103
aVKevin Duckworth POR 05/21/1990 POR vs. PHX W 28 12 6 14 42.9 0 0 - 0 0 - 1 5 6 1 0 1 4 3 -
p104
aVDanny Young POR 05/21/1990 POR vs. PHX W 10 0 0 2 0.0 0 1 0.0 0 0 - 1 1 2 1 1 1 1 1 -
p105
aVDrazen Petrovic POR 05/21/1990 POR vs. PHX W 19 11 5 11 45.5 1 1 100.0 0 2 0.0 1 3 4 2 1 0 1 3 -
p106
aVKevin Duckworth POR 05/19/1990 POR vs. SAN W 35 6 3 11 27.3 0 0 - 0 0 - 2 3 5 4 0 0 2 4 -
p107
aVClyde Drexler POR 05/19/1990 POR vs. SAN W 46 22 8 22 36.4 1 3 33.3 5 6 83.3 3 10 13 8 2 0 0 4 -
p108
aVBuck Williams POR 05/19/1990 POR vs. SAN W 49 12 4 10 40.0 0 0 - 4 5 80.0 5 10 15 3 1 0 0 5 -
p109
aVDanny Young POR 05/19/1990 POR vs. SAN W 8 1 0 0 - 0 0 - 1 2 50.0 1 0 1 1 0 0 1 1 -
p110
aVJerome Kersey POR 05/19/1990 POR vs. SAN W 48 21 9 23 39.1 0 0 - 3 5 60.0 7 8 15 3 6 4 3 6 -
p111
aVDrazen Petrovic POR 05/19/1990 POR vs. SAN W 7 5 2 6 33.3 0 2 0.0 1 2 50.0 1 0 1 0 0 0 0 2 -
p112
aVTerry Porter POR 05/19/1990 POR vs. SAN W 46 36 9 18 50.0 4 9 44.4 14 16 87.5 0 4 4 9 2 0 4 3 -
p113
aVWayne Cooper POR 05/19/1990 POR vs. SAN W 13 4 1 6 16.7 0 0 - 2 2 100.0 2 3 5 1 0 3 0 3 -
p114
aVClifford Robinson POR 05/19/1990 POR vs. SAN W 13 1 0 1 0.0 0 0 - 1 2 50.0 0 1 1 0 0 0 1 1 -
p115
aVTerry Porter POR 05/17/1990 POR @ SAN L 35 14 4 13 30.8 1 4 25.0 5 5 100.0 0 2 2 3 1 0 0 0 -
p116
aVNate Johnston POR 05/17/1990 POR @ SAN L 4 4 2 3 66.7 0 0 - 0 0 - 0 0 0 0 0 0 0 1 -
p117
aVClifford Robinson POR 05/17/1990 POR @ SAN L 28 20 8 13 61.5 0 0 - 4 6 66.7 2 6 8 2 0 2 1 5 -
p118
aVDrazen Petrovic POR 05/17/1990 POR @ SAN L 22 8 2 4 50.0 0 0 - 4 6 66.7 1 0 1 2 0 0 3 4 -
p119
aVMark Bryant POR 05/17/1990 POR @ SAN L 17 6 3 6 50.0 0 0 - 0 0 - 1 4 5 0 1 0 1 2 -
p120
aVDanny Young POR 05/17/1990 POR @ SAN L 13 5 2 3 66.7 1 1 100.0 0 0 - 0 1 1 2 1 0 0 1 -
p121
aVJerome Kersey POR 05/17/1990 POR @ SAN L 39 22 7 18 38.9 0 1 0.0 8 10 80.0 4 1 5 2 0 4 3 2 -
p122
aVBuck Williams POR 05/17/1990 POR @ SAN L 35 12 4 6 66.7 0 0 - 4 4 100.0 3 7 10 1 0 0 5 5 -
p123
aVByron Irvin POR 05/17/1990 POR @ SAN L 19 2 1 6 16.7 0 0 - 0 0 - 3 3 6 1 0 0 0 5 -
p124
aVClyde Drexler POR 05/17/1990 POR @ SAN L 28 4 1 10 10.0 0 2 0.0 2 2 100.0 4 2 6 7 2 0 3 5 -
p125
aVDanny Young POR 05/15/1990 POR vs. SAN W 12 4 1 1 100.0 0 0 - 2 2 100.0 1 0 1 0 0 0 0 0 -
p126
aVClifford Robinson POR 05/15/1990 POR vs. SAN W 35 11 4 8 50.0 0 1 0.0 3 4 75.0 4 3 7 1 2 0 3 6 -
p127
aVDrazen Petrovic POR 05/15/1990 POR vs. SAN W 29 11 3 8 37.5 1 2 50.0 4 6 66.7 1 4 5 1 0 0 2 5 -
p128
aVTerry Porter POR 05/15/1990 POR vs. SAN W 54 38 13 19 68.4 5 9 55.6 7 9 77.8 0 5 5 5 0 0 6 1 -
p129
aVClyde Drexler POR 05/15/1990 POR vs. SAN W 48 35 13 24 54.2 3 5 60.0 6 8 75.0 5 3 8 9 2 1 4 6 -
p130
aVJerome Kersey POR 05/15/1990 POR vs. SAN W 54 23 7 19 36.8 0 0 - 9 12 75.0 2 8 10 2 3 2 1 4 -
p131
aVBuck Williams POR 05/15/1990 POR vs. SAN W 51 15 7 14 50.0 0 0 - 1 2 50.0 2 8 10 4 0 0 5 5 -
p132
aVMark Bryant POR 05/15/1990 POR vs. SAN W 7 1 0 0 - 0 0 - 1 2 50.0 0 1 1 0 0 0 0 2 -
p133
aVClifford Robinson POR 05/12/1990 POR @ SAN L 26 7 2 10 20.0 0 0 - 3 3 100.0 2 2 4 1 1 5 3 3 -
p134
aVJerome Kersey POR 05/12/1990 POR @ SAN L 42 23 6 18 33.3 0 0 - 11 15 73.3 4 4 8 3 2 1 4 4 -
p135
aVClyde Drexler POR 05/12/1990 POR @ SAN L 44 27 11 19 57.9 1 2 50.0 4 6 66.7 1 2 3 7 2 3 2 3 -
p136
aVDanny Young POR 05/12/1990 POR @ SAN L 13 2 0 3 0.0 0 0 - 2 2 100.0 0 0 0 1 1 0 0 1 -
p137
aVBuck Williams POR 05/12/1990 POR @ SAN L 36 13 5 11 45.5 0 0 - 3 4 75.0 5 5 10 1 0 0 3 5 -
p138
aVDrazen Petrovic POR 05/12/1990 POR @ SAN L 20 9 4 7 57.1 0 1 0.0 1 2 50.0 0 3 3 0 0 0 1 3 -
p139
aVTerry Porter POR 05/12/1990 POR @ SAN L 37 18 7 14 50.0 3 6 50.0 1 2 50.0 1 4 5 5 0 0 5 3 -
p140
aVMark Bryant POR 05/12/1990 POR @ SAN L 21 6 3 4 75.0 0 0 - 0 0 - 1 5 6 0 0 0 1 3 -
p141
aVDrazen Petrovic POR 05/10/1990 POR @ SAN L 18 13 5 6 83.3 0 0 - 3 4 75.0 1 1 2 0 0 0 0 1 -
p142
aVDanny Young POR 05/10/1990 POR @ SAN L 15 2 1 5 20.0 0 1 0.0 0 1 0.0 1 2 3 1 2 0 1 2 -
p143
aVMark Bryant POR 05/10/1990 POR @ SAN L 17 0 0 1 0.0 0 0 - 0 0 - 0 1 1 0 0 0 2 6 -
p144
aVWayne Cooper POR 05/10/1990 POR @ SAN L 9 0 0 0 - 0 0 - 0 0 - 1 2 3 2 0 0 0 2 -
p145
aVByron Irvin POR 05/10/1990 POR @ SAN L 5 3 1 5 20.0 0 0 - 1 2 50.0 0 0 0 1 1 0 0 0 -
p146
aVNate Johnston POR 05/10/1990 POR @ SAN L 4 3 1 1 100.0 0 0 - 1 1 100.0 0 1 1 0 0 0 0 1 -
p147
aVTerry Porter POR 05/10/1990 POR @ SAN L 35 18 6 10 60.0 1 2 50.0 5 5 100.0 1 3 4 8 0 0 2 0 -
p148
aVClifford Robinson POR 05/10/1990 POR @ SAN L 31 10 4 13 30.8 0 1 0.0 2 9 22.2 4 4 8 0 3 3 3 3 -
p149
aVClyde Drexler POR 05/10/1990 POR @ SAN L 42 15 5 15 33.3 0 2 0.0 5 5 100.0 0 5 5 9 2 1 8 3 -
p150
aVBuck Williams POR 05/10/1990 POR @ SAN L 33 18 7 12 58.3 0 0 - 4 6 66.7 1 3 4 1 0 0 3 5 -
p151
aVJerome Kersey POR 05/10/1990 POR @ SAN L 31 16 6 12 50.0 0 0 - 4 5 80.0 0 4 4 3 2 1 4 4 -
p152
aVDanny Young POR 05/08/1990 POR vs. SAN W 13 11 3 4 75.0 1 1 100.0 4 4 100.0 0 0 0 1 0 0 0 0 -
p153
aVClifford Robinson POR 05/08/1990 POR vs. SAN W 15 6 1 7 14.3 0 0 - 4 4 100.0 1 3 4 3 3 1 0 4 -
p154
aVBuck Williams POR 05/08/1990 POR vs. SAN W 41 16 5 9 55.6 0 0 - 6 10 60.0 3 5 8 0 0 1 2 4 -
p155
aVMark Bryant POR 05/08/1990 POR vs. SAN W 16 6 3 5 60.0 0 0 - 0 0 - 0 3 3 1 0 0 1 3 -
p156
aVClyde Drexler POR 05/08/1990 POR vs. SAN W 43 22 6 14 42.9 0 1 0.0 10 12 83.3 4 3 7 8 3 0 5 3 -
p157
aVJerome Kersey POR 05/08/1990 POR vs. SAN W 37 20 7 15 46.7 0 0 - 6 6 100.0 2 3 5 3 2 1 2 4 -
p158
aVDrazen Petrovic POR 05/08/1990 POR vs. SAN W 19 10 5 9 55.6 0 1 0.0 0 0 - 2 0 2 1 1 0 4 1 -
p159
aVTerry Porter POR 05/08/1990 POR vs. SAN W 37 27 7 13 53.8 2 4 50.0 11 13 84.6 0 1 1 7 5 0 3 1 -
p160
aVWayne Cooper POR 05/08/1990 POR vs. SAN W 19 4 1 4 25.0 0 0 - 2 2 100.0 1 5 6 0 1 4 2 2 -
p161
aVDrazen Petrovic POR 05/05/1990 POR vs. SAN W 8 0 0 3 0.0 0 1 0.0 0 0 - 1 0 1 0 0 0 0 0 -
p162
aVTerry Porter POR 05/05/1990 POR vs. SAN W 33 13 3 6 50.0 0 1 0.0 7 11 63.6 0 2 2 9 1 0 0 4 -
p163
aVBuck Williams POR 05/05/1990 POR vs. SAN W 36 17 6 11 54.5 0 0 - 5 8 62.5 2 4 6 2 2 0 0 3 -
p164
aVDanny Young POR 05/05/1990 POR vs. SAN W 20 10 2 5 40.0 2 4 50.0 4 4 100.0 1 1 2 3 3 0 4 0 -
p165
aVClifford Robinson POR 05/05/1990 POR vs. SAN W 26 9 3 9 33.3 0 0 - 3 4 75.0 3 1 4 1 2 1 4 2 -
p166
aVMark Bryant POR 05/05/1990 POR vs. SAN W 16 6 3 4 75.0 0 0 - 0 0 - 0 0 0 1 0 0 1 1 -
p167
aVClyde Drexler POR 05/05/1990 POR vs. SAN W 43 23 8 25 32.0 0 1 0.0 7 8 87.5 5 4 9 11 4 2 4 3 -
p168
aVWayne Cooper POR 05/05/1990 POR vs. SAN W 16 4 2 5 40.0 0 0 - 0 2 0.0 4 4 8 0 1 3 0 4 -
p169
aVJerome Kersey POR 05/05/1990 POR vs. SAN W 42 25 11 22 50.0 0 0 - 3 8 37.5 7 9 16 4 0 0 2 3 -
p170
aVDanny Young POR 05/01/1990 POR @ DAL W 11 4 1 2 50.0 0 0 - 2 2 100.0 1 0 1 0 1 0 2 0 -
p171
aVDrazen Petrovic POR 05/01/1990 POR @ DAL W 10 6 1 3 33.3 0 0 - 4 4 100.0 0 1 1 1 0 0 0 0 -
p172
aVBuck Williams POR 05/01/1990 POR @ DAL W 11 7 2 3 66.7 0 0 - 3 4 75.0 4 6 10 1 0 0 2 0 -
p173
aVWayne Cooper POR 05/01/1990 POR @ DAL W 26 4 2 4 50.0 0 0 - 0 2 0.0 1 7 8 1 0 3 1 3 -
p174
aVClyde Drexler POR 05/01/1990 POR @ DAL W 43 20 9 17 52.9 0 2 0.0 2 2 100.0 0 4 4 10 5 2 2 5 -
p175
aVJerome Kersey POR 05/01/1990 POR @ DAL W 41 29 12 22 54.5 0 0 - 5 8 62.5 2 7 9 2 2 1 3 4 -
p176
aVTerry Porter POR 05/01/1990 POR @ DAL W 39 20 7 13 53.8 0 2 0.0 6 10 60.0 1 3 4 9 1 0 5 2 -
p177
aVClifford Robinson POR 05/01/1990 POR @ DAL W 14 4 2 4 50.0 0 0 - 0 2 0.0 1 5 6 1 1 2 0 4 -
p178
aVKevin Duckworth POR 05/01/1990 POR @ DAL W 17 4 2 7 28.6 0 0 - 0 0 - 1 2 3 1 0 1 2 4 -
p179
aVMark Bryant POR 05/01/1990 POR @ DAL W 28 8 2 3 66.7 0 0 - 4 4 100.0 0 2 2 0 0 0 1 4 -
p180
aVDanny Young POR 04/28/1990 POR vs. DAL W 18 12 5 7 71.4 2 3 66.7 0 0 - 1 1 2 4 0 0 0 2 -
p181
aVWayne Cooper POR 04/28/1990 POR vs. DAL W 11 4 1 1 100.0 0 0 - 2 3 66.7 1 2 3 0 0 1 0 2 -
p182
aVBuck Williams POR 04/28/1990 POR vs. DAL W 38 16 6 9 66.7 0 0 - 4 9 44.4 7 6 13 3 0 0 0 4 -
p183
aVKevin Duckworth POR 04/28/1990 POR vs. DAL W 34 18 8 13 61.5 0 0 - 2 2 100.0 1 6 7 0 0 1 0 6 -
p184
aVClifford Robinson POR 04/28/1990 POR vs. DAL W 15 5 2 6 33.3 0 0 - 1 2 50.0 0 1 1 1 0 1 1 2 -
p185
aVClyde Drexler POR 04/28/1990 POR vs. DAL W 37 14 5 21 23.8 0 1 0.0 4 4 100.0 5 5 10 7 4 2 2 1 -
p186
aVJerome Kersey POR 04/28/1990 POR vs. DAL W 43 16 6 14 42.9 0 0 - 4 8 50.0 6 2 8 5 2 0 2 5 -
p187
aVTerry Porter POR 04/28/1990 POR vs. DAL W 32 15 3 15 20.0 1 6 16.7 8 8 100.0 0 1 1 3 2 0 3 3 -
p188
aVDrazen Petrovic POR 04/28/1990 POR vs. DAL W 12 14 5 10 50.0 2 2 100.0 2 2 100.0 0 1 1 2 1 0 1 2 -
p189
aVDrazen Petrovic POR 04/26/1990 POR vs. DAL W 6 1 0 1 0.0 0 0 - 1 2 50.0 0 2 2 3 1 0 1 1 -
p190
aVKevin Duckworth POR 04/26/1990 POR vs. DAL W 31 10 4 11 36.4 0 0 - 2 6 33.3 4 3 7 1 1 1 1 3 -
p191
aVTerry Porter POR 04/26/1990 POR vs. DAL W 37 28 6 12 50.0 1 3 33.3 15 16 93.8 2 5 7 5 0 0 3 4 -
p192
aVJerome Kersey POR 04/26/1990 POR vs. DAL W 38 16 5 15 33.3 0 0 - 6 9 66.7 2 4 6 2 1 0 2 3 -
p193
aVWayne Cooper POR 04/26/1990 POR vs. DAL W 17 4 2 3 66.7 0 0 - 0 0 - 2 1 3 0 0 2 0 1 -
p194
aVBuck Williams POR 04/26/1990 POR vs. DAL W 43 21 9 16 56.3 0 0 - 3 4 75.0 7 9 16 2 1 1 4 2 -
p195
aVMark Bryant POR 04/26/1990 POR vs. DAL W 5 4 2 3 66.7 0 0 - 0 0 - 0 1 1 1 0 0 0 2 -
p196
aVClifford Robinson POR 04/26/1990 POR vs. DAL W 10 7 3 6 50.0 0 0 - 1 1 100.0 0 1 1 2 0 0 0 3 -
p197
aVClyde Drexler POR 04/26/1990 POR vs. DAL W 42 14 7 19 36.8 0 1 0.0 0 0 - 2 1 3 5 4 0 2 4 -
p198
aVDanny Young POR 04/26/1990 POR vs. DAL W 11 4 1 1 100.0 1 1 100.0 1 2 50.0 1 0 1 2 0 0 1 0 -
p199
a.