(lp0
VPLAYER TEAM DATE MATCHUP W/L MIN PTS FGM FGA FG% 3PM 3PA 3P% FTM FTA FT% OREB DREB REB AST STL BLK TOV PF +/-
p1
aVJeff Sanders CHI 06/03/1990 CHI @ DET L 1 0 0 0 - 0 0 - 0 0 - 0 0 0 0 0 0 0 0 -
p2
aVScottie Pippen CHI 06/03/1990 CHI @ DET L 42 2 1 10 10.0 0 2 0.0 0 0 - 1 3 4 2 1 0 1 2 -
p3
aVBill Cartwright CHI 06/03/1990 CHI @ DET L 23 6 3 9 33.3 0 0 - 0 0 - 2 3 5 1 0 0 0 2 -
p4
aVCharlie Davis CHI 06/03/1990 CHI @ DET L 2 2 1 1 100.0 0 0 - 0 0 - 1 0 1 0 0 0 0 0 -
p5
aVHorace Grant CHI 06/03/1990 CHI @ DET L 45 10 3 17 17.6 0 2 0.0 4 4 100.0 8 6 14 1 1 2 2 3 -
p6
aVB.J. Armstrong CHI 06/03/1990 CHI @ DET L 19 2 1 8 12.5 0 1 0.0 0 0 - 1 0 1 0 0 0 0 3 -
p7
aVWill Perdue CHI 06/03/1990 CHI @ DET L 2 2 0 0 - 0 0 - 2 2 100.0 1 0 1 0 0 0 0 0 -
p8
aVStacey King CHI 06/03/1990 CHI @ DET L 13 5 1 2 50.0 0 0 - 3 4 75.0 0 2 2 0 0 0 1 0 -
p9
aVCraig Hodges CHI 06/03/1990 CHI @ DET L 30 8 3 13 23.1 2 12 16.7 0 0 - 1 2 3 2 0 0 2 5 -
p10
aVEd Nealy CHI 06/03/1990 CHI @ DET L 18 6 2 3 66.7 0 0 - 2 2 100.0 4 2 6 0 1 0 0 4 -
p11
aVMichael Jordan CHI 06/03/1990 CHI @ DET L 45 31 13 27 48.1 0 2 0.0 5 5 100.0 2 6 8 9 1 0 4 2 -
p12
aVEd Nealy CHI 06/01/1990 CHI vs. DET W 1 0 0 0 - 0 0 - 0 0 - 0 0 0 0 0 0 0 0 -
p13
aVB.J. Armstrong CHI 06/01/1990 CHI vs. DET W 16 8 0 5 0.0 0 0 - 8 8 100.0 0 1 1 3 0 0 1 2 -
p14
aVMichael Jordan CHI 06/01/1990 CHI vs. DET W 39 29 11 20 55.0 1 4 25.0 6 6 100.0 1 9 10 2 1 0 3 4 -
p15
aVScottie Pippen CHI 06/01/1990 CHI vs. DET W 45 19 7 13 53.8 1 1 100.0 4 6 66.7 1 1 2 5 3 1 3 5 -
p16
aVJohn Paxson CHI 06/01/1990 CHI vs. DET W 22 7 3 5 60.0 1 1 100.0 0 0 - 0 2 2 0 0 0 1 1 -
p17
aVHorace Grant CHI 06/01/1990 CHI vs. DET W 42 10 4 9 44.4 0 0 - 2 2 100.0 4 10 14 5 1 2 4 3 -
p18
aVCraig Hodges CHI 06/01/1990 CHI vs. DET W 26 19 7 9 77.8 4 4 100.0 1 2 50.0 1 2 3 3 0 0 1 3 -
p19
aVStacey King CHI 06/01/1990 CHI vs. DET W 17 6 1 3 33.3 0 0 - 4 4 100.0 0 2 2 1 0 3 0 0 -
p20
aVWill Perdue CHI 06/01/1990 CHI vs. DET W 12 4 1 3 33.3 0 0 - 2 2 100.0 0 3 3 1 0 0 1 3 -
p21
aVBill Cartwright CHI 06/01/1990 CHI vs. DET W 20 7 2 8 25.0 0 0 - 3 4 75.0 2 2 4 2 0 0 3 5 -
p22
aVBill Cartwright CHI 05/30/1990 CHI @ DET L 31 9 4 9 44.4 0 0 - 1 2 50.0 2 2 4 1 2 0 1 4 -
p23
aVB.J. Armstrong CHI 05/30/1990 CHI @ DET L 12 4 2 6 33.3 0 1 0.0 0 0 - 0 2 2 1 0 0 0 1 -
p24
aVHorace Grant CHI 05/30/1990 CHI @ DET L 39 15 5 12 41.7 0 0 - 5 7 71.4 8 4 12 0 0 1 1 3 -
p25
aVCraig Hodges CHI 05/30/1990 CHI @ DET L 14 3 1 4 25.0 1 3 33.3 0 0 - 0 0 0 2 0 0 0 2 -
p26
aVWill Perdue CHI 05/30/1990 CHI @ DET L 6 2 1 3 33.3 0 0 - 0 0 - 0 1 1 0 0 0 0 1 -
p27
aVMichael Jordan CHI 05/30/1990 CHI @ DET L 39 22 7 19 36.8 1 4 25.0 7 9 77.8 1 3 4 8 1 0 1 1 -
p28
aVJohn Paxson CHI 05/30/1990 CHI @ DET L 27 5 2 7 28.6 1 1 100.0 0 0 - 0 0 0 1 1 0 0 4 -
p29
aVEd Nealy CHI 05/30/1990 CHI @ DET L 14 0 0 2 0.0 0 0 - 0 0 - 0 3 3 0 0 0 1 2 -
p30
aVStacey King CHI 05/30/1990 CHI @ DET L 13 4 1 2 50.0 0 0 - 2 2 100.0 0 1 1 0 0 1 1 4 -
p31
aVScottie Pippen CHI 05/30/1990 CHI @ DET L 45 19 5 20 25.0 2 8 25.0 7 7 100.0 4 5 9 5 3 1 4 4 -
p32
aVScottie Pippen CHI 05/28/1990 CHI vs. DET W 33 14 5 8 62.5 0 1 0.0 4 8 50.0 2 4 6 4 3 1 4 5 -
p33
aVB.J. Armstrong CHI 05/28/1990 CHI vs. DET W 15 4 2 5 40.0 0 0 - 0 0 - 0 4 4 4 0 0 0 3 -
p34
aVMichael Jordan CHI 05/28/1990 CHI vs. DET W 43 42 13 26 50.0 0 1 0.0 16 19 84.2 0 4 4 9 4 3 4 5 -
p35
aVBill Cartwright CHI 05/28/1990 CHI vs. DET W 33 11 5 6 83.3 0 0 - 1 1 100.0 0 4 4 3 1 1 3 5 -
p36
aVHorace Grant CHI 05/28/1990 CHI vs. DET W 39 11 3 8 37.5 0 0 - 5 6 83.3 5 8 13 2 1 3 1 4 -
p37
aVStacey King CHI 05/28/1990 CHI vs. DET W 6 2 1 3 33.3 0 0 - 0 0 - 1 0 1 0 0 0 0 1 -
p38
aVCraig Hodges CHI 05/28/1990 CHI vs. DET W 12 0 0 3 0.0 0 2 0.0 0 0 - 1 0 1 0 0 0 2 0 -
p39
aVJohn Paxson CHI 05/28/1990 CHI vs. DET W 32 17 7 16 43.8 1 3 33.3 2 2 100.0 0 2 2 7 0 0 2 4 -
p40
aVWill Perdue CHI 05/28/1990 CHI vs. DET W 7 5 2 2 100.0 0 0 - 1 2 50.0 1 0 1 0 0 0 0 1 -
p41
aVEd Nealy CHI 05/28/1990 CHI vs. DET W 20 2 1 4 25.0 0 0 - 0 0 - 1 0 1 1 2 0 2 5 -
p42
aVJohn Paxson CHI 05/26/1990 CHI vs. DET W 19 4 2 6 33.3 0 0 - 0 0 - 0 0 0 2 0 0 1 3 -
p43
aVCraig Hodges CHI 05/26/1990 CHI vs. DET W 23 2 1 5 20.0 0 3 0.0 0 0 - 0 0 0 0 0 0 2 1 -
p44
aVScottie Pippen CHI 05/26/1990 CHI vs. DET W 45 29 9 16 56.3 0 1 0.0 11 13 84.6 6 5 11 5 2 0 4 3 -
p45
aVMichael Jordan CHI 05/26/1990 CHI vs. DET W 43 47 17 32 53.1 2 2 100.0 11 13 84.6 3 7 10 4 1 0 4 3 -
p46
aVBill Cartwright CHI 05/26/1990 CHI vs. DET W 29 2 1 4 25.0 0 0 - 0 0 - 1 4 5 0 0 0 1 2 -
p47
aVStacey King CHI 05/26/1990 CHI vs. DET W 14 2 1 4 25.0 0 0 - 0 0 - 2 1 3 2 0 0 2 2 -
p48
aVWill Perdue CHI 05/26/1990 CHI vs. DET W 5 0 0 0 - 0 0 - 0 0 - 0 1 1 1 0 3 0 2 -
p49
aVEd Nealy CHI 05/26/1990 CHI vs. DET W 22 8 2 4 50.0 0 0 - 4 6 66.7 2 2 4 1 1 1 1 2 -
p50
aVHorace Grant CHI 05/26/1990 CHI vs. DET W 27 10 5 8 62.5 0 0 - 0 0 - 6 5 11 3 0 0 1 6 -
p51
aVB.J. Armstrong CHI 05/26/1990 CHI vs. DET W 13 3 1 3 33.3 0 0 - 1 2 50.0 1 0 1 0 1 0 2 2 -
p52
aVStacey King CHI 05/22/1990 CHI @ DET L 24 10 2 8 25.0 0 0 - 6 6 100.0 0 3 3 0 0 0 1 1 -
p53
aVJohn Paxson CHI 05/22/1990 CHI @ DET L 26 7 3 6 50.0 1 2 50.0 0 0 - 0 2 2 4 0 0 4 6 -
p54
aVB.J. Armstrong CHI 05/22/1990 CHI @ DET L 4 6 2 6 33.3 0 1 0.0 2 2 100.0 0 0 0 0 1 0 0 1 -
p55
aVWill Perdue CHI 05/22/1990 CHI @ DET L 4 0 0 2 0.0 0 0 - 0 0 - 0 0 0 0 0 0 1 1 -
p56
aVScottie Pippen CHI 05/22/1990 CHI @ DET L 31 17 6 13 46.2 1 3 33.3 4 6 66.7 1 6 7 1 0 2 3 5 -
p57
aVMichael Jordan CHI 05/22/1990 CHI @ DET L 45 20 5 16 31.3 0 2 0.0 10 12 83.3 1 6 7 7 4 1 3 5 -
p58
aVEd Nealy CHI 05/22/1990 CHI @ DET L 21 3 1 2 50.0 0 0 - 1 1 100.0 2 3 5 0 1 0 0 2 -
p59
aVCraig Hodges CHI 05/22/1990 CHI @ DET L 21 5 2 4 50.0 1 2 50.0 0 0 - 0 0 0 1 0 0 1 6 -
p60
aVBill Cartwright CHI 05/22/1990 CHI @ DET L 23 8 3 8 37.5 0 0 - 2 3 66.7 1 1 2 1 0 0 3 4 -
p61
aVHorace Grant CHI 05/22/1990 CHI @ DET L 41 17 7 11 63.6 0 0 - 3 5 60.0 3 6 9 4 1 3 3 3 -
p62
aVB.J. Armstrong CHI 05/20/1990 CHI @ DET L 29 4 2 5 40.0 0 0 - 0 0 - 0 2 2 2 2 0 5 2 -
p63
aVJohn Paxson CHI 05/20/1990 CHI @ DET L 16 0 0 5 0.0 0 0 - 0 0 - 0 2 2 2 0 0 0 1 -
p64
aVHorace Grant CHI 05/20/1990 CHI @ DET L 34 8 4 11 36.4 0 0 - 0 0 - 3 6 9 2 0 1 5 3 -
p65
aVStacey King CHI 05/20/1990 CHI @ DET L 21 6 2 6 33.3 0 0 - 2 4 50.0 0 0 0 0 1 0 0 0 -
p66
aVMichael Jordan CHI 05/20/1990 CHI @ DET L 42 34 12 27 44.4 2 6 33.3 8 8 100.0 1 6 7 5 3 0 1 3 -
p67
aVWill Perdue CHI 05/20/1990 CHI @ DET L 1 0 0 0 - 0 0 - 0 0 - 0 1 1 0 0 0 0 0 -
p68
aVScottie Pippen CHI 05/20/1990 CHI @ DET L 45 16 7 14 50.0 2 4 50.0 0 0 - 0 5 5 4 2 1 2 5 -
p69
aVEd Nealy CHI 05/20/1990 CHI @ DET L 15 2 1 3 33.3 0 0 - 0 2 0.0 1 2 3 0 0 0 1 3 -
p70
aVBill Cartwright CHI 05/20/1990 CHI @ DET L 28 7 3 8 37.5 0 0 - 1 2 50.0 2 4 6 0 0 0 1 4 -
p71
aVCraig Hodges CHI 05/20/1990 CHI @ DET L 9 0 0 3 0.0 0 2 0.0 0 0 - 0 1 1 1 0 0 0 1 -
p72
aVMichael Jordan CHI 05/16/1990 CHI vs. PHL W 42 37 17 26 65.4 1 3 33.3 2 4 50.0 2 7 9 8 6 1 4 2 -
p73
aVB.J. Armstrong CHI 05/16/1990 CHI vs. PHL W 22 6 2 4 50.0 0 0 - 2 2 100.0 0 2 2 5 0 0 2 1 -
p74
aVScottie Pippen CHI 05/16/1990 CHI vs. PHL W 37 29 13 17 76.5 1 1 100.0 2 3 66.7 2 4 6 3 1 2 2 2 -
p75
aVJohn Paxson CHI 05/16/1990 CHI vs. PHL W 24 0 0 3 0.0 0 0 - 0 0 - 0 0 0 9 2 0 0 3 -
p76
aVHorace Grant CHI 05/16/1990 CHI vs. PHL W 34 18 8 11 72.7 0 0 - 2 4 50.0 4 3 7 4 1 0 1 4 -
p77
aVEd Nealy CHI 05/16/1990 CHI vs. PHL W 11 0 0 0 - 0 0 - 0 0 - 0 2 2 0 0 0 0 5 -
p78
aVCraig Hodges CHI 05/16/1990 CHI vs. PHL W 10 2 1 2 50.0 0 1 0.0 0 0 - 0 0 0 0 0 0 0 1 -
p79
aVBill Cartwright CHI 05/16/1990 CHI vs. PHL W 31 12 4 6 66.7 0 0 - 4 4 100.0 1 7 8 1 0 0 3 2 -
p80
aVWill Perdue CHI 05/16/1990 CHI vs. PHL W 3 0 0 2 0.0 0 1 0.0 0 0 - 1 0 1 0 0 0 0 0 -
p81
aVStacey King CHI 05/16/1990 CHI vs. PHL W 26 13 3 11 27.3 0 0 - 7 8 87.5 3 0 3 1 1 0 0 3 -
p82
aVJohn Paxson CHI 05/13/1990 CHI @ PHL W 22 8 3 7 42.9 0 0 - 2 2 100.0 0 2 2 3 1 0 1 6 -
p83
aVCraig Hodges CHI 05/13/1990 CHI @ PHL W 15 2 1 3 33.3 0 2 0.0 0 0 - 1 1 2 3 1 0 2 1 -
p84
aVStacey King CHI 05/13/1990 CHI @ PHL W 28 21 9 15 60.0 0 0 - 3 5 60.0 3 4 7 1 2 0 3 2 -
p85
aVWill Perdue CHI 05/13/1990 CHI @ PHL W 12 10 4 8 50.0 0 0 - 2 3 66.7 1 2 3 0 0 0 1 2 -
p86
aVHorace Grant CHI 05/13/1990 CHI @ PHL W 42 10 4 5 80.0 0 0 - 2 4 50.0 6 3 9 3 1 0 2 3 -
p87
aVBill Cartwright CHI 05/13/1990 CHI @ PHL W 31 4 2 7 28.6 0 0 - 0 0 - 1 2 3 0 0 0 1 4 -
p88
aVEd Nealy CHI 05/13/1990 CHI @ PHL W 22 9 4 4 100.0 0 0 - 1 1 100.0 3 6 9 1 1 0 0 3 -
p89
aVB.J. Armstrong CHI 05/13/1990 CHI @ PHL W 26 2 1 5 20.0 0 0 - 0 0 - 0 2 2 2 2 0 0 2 -
p90
aVMichael Jordan CHI 05/13/1990 CHI @ PHL W 42 45 16 31 51.6 1 2 50.0 12 13 92.3 1 5 6 11 2 2 3 3 -
p91
aVMichael Jordan CHI 05/11/1990 CHI @ PHL L 42 49 19 34 55.9 4 11 36.4 7 9 77.8 2 3 5 5 4 1 5 4 -
p92
aVHorace Grant CHI 05/11/1990 CHI @ PHL L 29 8 4 8 50.0 0 0 - 0 0 - 2 0 2 2 1 0 1 4 -
p93
aVJohn Paxson CHI 05/11/1990 CHI @ PHL L 25 4 2 3 66.7 0 0 - 0 0 - 0 3 3 4 0 0 0 2 -
p94
aVB.J. Armstrong CHI 05/11/1990 CHI @ PHL L 23 11 2 5 40.0 0 0 - 7 8 87.5 0 2 2 7 4 0 1 2 -
p95
aVCraig Hodges CHI 05/11/1990 CHI @ PHL L 19 3 1 2 50.0 1 2 50.0 0 0 - 1 1 2 0 1 0 0 2 -
p96
aVWill Perdue CHI 05/11/1990 CHI @ PHL L 2 0 0 0 - 0 0 - 0 0 - 0 0 0 0 0 0 0 0 -
p97
aVScottie Pippen CHI 05/11/1990 CHI @ PHL L 33 20 5 12 41.7 0 1 0.0 10 12 83.3 1 3 4 5 3 1 6 5 -
p98
aVEd Nealy CHI 05/11/1990 CHI @ PHL L 15 6 3 7 42.9 0 1 0.0 0 0 - 0 7 7 1 0 0 0 4 -
p99
aVBill Cartwright CHI 05/11/1990 CHI @ PHL L 27 0 0 2 0.0 0 0 - 0 0 - 2 1 3 0 0 0 2 3 -
p100
aVStacey King CHI 05/11/1990 CHI @ PHL L 25 11 4 7 57.1 0 1 0.0 3 4 75.0 2 2 4 1 0 1 2 5 -
p101
aVHorace Grant CHI 05/09/1990 CHI vs. PHL W 43 8 4 8 50.0 0 0 - 0 1 0.0 2 7 9 2 2 1 0 2 -
p102
aVEd Nealy CHI 05/09/1990 CHI vs. PHL W 9 0 0 1 0.0 0 0 - 0 0 - 0 1 1 0 1 0 1 2 -
p103
aVScottie Pippen CHI 05/09/1990 CHI vs. PHL W 42 16 7 16 43.8 0 3 0.0 2 4 50.0 2 7 9 5 1 1 2 5 -
p104
aVStacey King CHI 05/09/1990 CHI vs. PHL W 9 6 3 5 60.0 0 0 - 0 0 - 0 1 1 0 0 0 0 1 -
p105
aVBill Cartwright CHI 05/09/1990 CHI vs. PHL W 39 11 4 8 50.0 0 0 - 3 6 50.0 2 4 6 3 0 1 3 2 -
p106
aVB.J. Armstrong CHI 05/09/1990 CHI vs. PHL W 7 4 2 2 100.0 0 0 - 0 0 - 0 2 2 1 0 0 0 1 -
p107
aVCraig Hodges CHI 05/09/1990 CHI vs. PHL W 13 5 2 4 50.0 1 2 50.0 0 0 - 1 0 1 1 0 0 1 1 -
p108
aVWill Perdue CHI 05/09/1990 CHI vs. PHL W 2 2 1 1 100.0 0 0 - 0 0 - 1 0 1 0 0 0 0 0 -
p109
aVMichael Jordan CHI 05/09/1990 CHI vs. PHL W 43 45 18 36 50.0 1 3 33.3 8 8 100.0 4 4 8 7 3 0 2 3 -
p110
aVJohn Paxson CHI 05/09/1990 CHI vs. PHL W 33 4 2 4 50.0 0 1 0.0 0 0 - 0 1 1 6 2 0 0 0 -
p111
aVScottie Pippen CHI 05/07/1990 CHI vs. PHL W 46 18 7 15 46.7 0 1 0.0 4 7 57.1 3 5 8 12 1 3 3 3 -
p112
aVBill Cartwright CHI 05/07/1990 CHI vs. PHL W 35 13 6 13 46.2 0 0 - 1 1 100.0 4 7 11 1 1 0 0 2 -
p113
aVHorace Grant CHI 05/07/1990 CHI vs. PHL W 39 10 5 7 71.4 0 0 - 0 3 0.0 2 10 12 1 2 3 0 1 -
p114
aVB.J. Armstrong CHI 05/07/1990 CHI vs. PHL W 13 4 2 4 50.0 0 1 0.0 0 0 - 0 0 0 2 0 0 1 0 -
p115
aVWill Perdue CHI 05/07/1990 CHI vs. PHL W 6 0 0 1 0.0 0 0 - 0 0 - 0 1 1 0 0 0 0 1 -
p116
aVCharlie Davis CHI 05/07/1990 CHI vs. PHL W 2 0 0 1 0.0 0 0 - 0 0 - 0 0 0 0 0 0 0 1 -
p117
aVJohn Paxson CHI 05/07/1990 CHI vs. PHL W 28 4 2 4 50.0 0 0 - 0 0 - 1 1 2 4 0 0 0 4 -
p118
aVMichael Jordan CHI 05/07/1990 CHI vs. PHL W 43 39 16 30 53.3 2 4 50.0 5 6 83.3 1 4 5 6 5 2 4 3 -
p119
aVStacey King CHI 05/07/1990 CHI vs. PHL W 16 3 1 5 20.0 0 0 - 1 2 50.0 1 5 6 0 1 2 1 2 -
p120
aVCraig Hodges CHI 05/07/1990 CHI vs. PHL W 12 5 2 8 25.0 1 3 33.3 0 0 - 0 1 1 0 0 0 0 3 -
p121
aVScottie Pippen CHI 05/03/1990 CHI @ MIL W 40 20 6 13 46.2 2 2 100.0 6 11 54.5 3 8 11 2 4 1 5 4 -
p122
aVJohn Paxson CHI 05/03/1990 CHI @ MIL W 34 9 2 5 40.0 0 1 0.0 5 5 100.0 0 2 2 4 1 0 3 2 -
p123
aVWill Perdue CHI 05/03/1990 CHI @ MIL W 16 15 4 6 66.7 1 1 100.0 6 9 66.7 2 3 5 0 0 2 1 2 -
p124
aVB.J. Armstrong CHI 05/03/1990 CHI @ MIL W 5 4 1 2 50.0 0 0 - 2 2 100.0 1 0 1 2 0 0 0 0 -
p125
aVEd Nealy CHI 05/03/1990 CHI @ MIL W 25 5 1 4 25.0 0 0 - 3 6 50.0 2 5 7 0 0 0 1 6 -
p126
aVMichael Jordan CHI 05/03/1990 CHI @ MIL W 32 25 8 19 42.1 0 0 - 9 13 69.2 1 5 6 5 2 0 1 3 -
p127
aVCharlie Davis CHI 05/03/1990 CHI @ MIL W 3 0 0 1 0.0 0 1 0.0 0 0 - 0 0 0 0 0 0 0 0 -
p128
aVCraig Hodges CHI 05/03/1990 CHI @ MIL W 17 6 2 4 50.0 0 0 - 2 2 100.0 0 2 2 1 1 0 1 2 -
p129
aVHorace Grant CHI 05/03/1990 CHI @ MIL W 37 15 7 13 53.8 0 0 - 1 2 50.0 7 7 14 1 2 1 2 4 -
p130
aVBill Cartwright CHI 05/03/1990 CHI @ MIL W 17 5 1 5 20.0 0 0 - 3 4 75.0 0 3 3 1 0 0 1 4 -
p131
aVStacey King CHI 05/03/1990 CHI @ MIL W 13 4 2 3 66.7 0 0 - 0 0 - 2 4 6 1 0 1 2 2 -
p132
aVJeff Sanders CHI 05/03/1990 CHI @ MIL W 1 2 1 1 100.0 0 0 - 0 0 - 0 0 0 0 0 0 0 0 -
p133
aVBill Cartwright CHI 05/01/1990 CHI @ MIL L 32 7 2 5 40.0 0 0 - 3 4 75.0 2 4 6 2 0 0 1 3 -
p134
aVScottie Pippen CHI 05/01/1990 CHI @ MIL L 44 21 7 13 53.8 0 2 0.0 7 8 87.5 2 7 9 9 0 1 3 5 -
p135
aVHorace Grant CHI 05/01/1990 CHI @ MIL L 43 11 3 6 50.0 0 0 - 5 8 62.5 5 6 11 2 0 0 0 2 -
p136
aVB.J. Armstrong CHI 05/01/1990 CHI @ MIL L 9 0 0 1 0.0 0 0 - 0 0 - 0 0 0 0 0 0 0 2 -
p137
aVStacey King CHI 05/01/1990 CHI @ MIL L 18 6 3 6 50.0 0 0 - 0 1 0.0 1 2 3 2 0 0 2 3 -
p138
aVCharlie Davis CHI 05/01/1990 CHI @ MIL L 2 0 0 1 0.0 0 0 - 0 0 - 1 0 1 0 0 0 0 2 -
p139
aVCraig Hodges CHI 05/01/1990 CHI @ MIL L 6 2 1 3 33.3 0 2 0.0 0 0 - 0 0 0 0 0 0 0 2 -
p140
aVEd Nealy CHI 05/01/1990 CHI @ MIL L 8 2 1 1 100.0 0 0 - 0 0 - 0 0 0 0 2 0 0 0 -
p141
aVMichael Jordan CHI 05/01/1990 CHI @ MIL L 46 48 20 35 57.1 1 5 20.0 7 9 77.8 2 7 9 5 1 2 5 4 -
p142
aVJohn Paxson CHI 05/01/1990 CHI @ MIL L 32 15 6 9 66.7 0 0 - 3 3 100.0 0 0 0 4 0 0 2 6 -
p143
aVEd Nealy CHI 04/29/1990 CHI vs. MIL W 18 1 0 0 - 0 0 - 1 2 50.0 0 3 3 0 0 0 0 3 -
p144
aVCharlie Davis CHI 04/29/1990 CHI vs. MIL W 5 0 0 1 0.0 0 0 - 0 0 - 0 0 0 0 0 0 0 0 -
p145
aVScottie Pippen CHI 04/29/1990 CHI vs. MIL W 42 32 12 18 66.7 1 1 100.0 7 11 63.6 3 4 7 8 4 1 5 5 -
p146
aVStacey King CHI 04/29/1990 CHI vs. MIL W 16 2 1 5 20.0 0 0 - 0 0 - 0 0 0 0 0 0 2 4 -
p147
aVHorace Grant CHI 04/29/1990 CHI vs. MIL W 41 15 7 11 63.6 0 0 - 1 2 50.0 2 2 4 4 3 1 2 2 -
p148
aVCraig Hodges CHI 04/29/1990 CHI vs. MIL W 7 5 2 4 50.0 1 1 100.0 0 0 - 0 2 2 0 0 0 1 0 -
p149
aVB.J. Armstrong CHI 04/29/1990 CHI vs. MIL W 2 0 0 0 - 0 0 - 0 0 - 0 0 0 0 0 0 0 0 -
p150
aVJohn Paxson CHI 04/29/1990 CHI vs. MIL W 29 4 2 5 40.0 0 0 - 0 0 - 0 1 1 2 1 0 1 0 -
p151
aVMichael Jordan CHI 04/29/1990 CHI vs. MIL W 44 36 12 21 57.1 0 0 - 12 14 85.7 1 8 9 11 5 1 5 5 -
p152
aVBill Cartwright CHI 04/29/1990 CHI vs. MIL W 36 14 5 10 50.0 0 0 - 4 8 50.0 3 2 5 0 1 2 1 3 -
p153
aVScottie Pippen CHI 04/27/1990 CHI vs. MIL W 42 17 7 12 58.3 0 0 - 3 4 75.0 2 8 10 13 3 3 2 4 -
p154
aVStacey King CHI 04/27/1990 CHI vs. MIL W 22 9 2 6 33.3 0 0 - 5 7 71.4 2 7 9 0 1 0 0 2 -
p155
aVEd Nealy CHI 04/27/1990 CHI vs. MIL W 9 3 1 1 100.0 0 0 - 1 1 100.0 1 0 1 1 1 0 0 4 -
p156
aVBill Cartwright CHI 04/27/1990 CHI vs. MIL W 26 13 5 13 38.5 0 0 - 3 4 75.0 0 0 0 0 0 0 1 3 -
p157
aVMichael Jordan CHI 04/27/1990 CHI vs. MIL W 44 38 15 27 55.6 0 1 0.0 8 11 72.7 1 7 8 7 2 1 7 4 -
p158
aVJohn Paxson CHI 04/27/1990 CHI vs. MIL W 27 4 1 2 50.0 0 0 - 2 2 100.0 1 2 3 2 1 0 0 0 -
p159
aVCraig Hodges CHI 04/27/1990 CHI vs. MIL W 20 4 2 3 66.7 0 0 - 0 0 - 0 0 0 3 1 0 1 1 -
p160
aVB.J. Armstrong CHI 04/27/1990 CHI vs. MIL W 2 2 1 1 100.0 0 0 - 0 0 - 0 0 0 0 0 0 0 0 -
p161
aVJeff Sanders CHI 04/27/1990 CHI vs. MIL W 1 0 0 0 - 0 0 - 0 0 - 0 0 0 0 0 0 0 0 -
p162
aVHorace Grant CHI 04/27/1990 CHI vs. MIL W 41 19 8 14 57.1 0 0 - 3 5 60.0 6 3 9 4 2 0 1 4 -
p163
aVCharlie Davis CHI 04/27/1990 CHI vs. MIL W 6 2 1 2 50.0 0 0 - 0 0 - 1 0 1 1 0 0 1 2 -
p164
a.