(lp0
VPLAYER TEAM DATE MATCHUP W/L MIN PTS FGM FGA FG% 3PM 3PA 3P% FTM FTA FT% OREB DREB REB AST STL BLK TOV PF +/-
p1
aVKenny Payne PHL 05/16/1990 PHL @ CHI L 1 2 0 1 0.0 0 1 0.0 2 2 100.0 1 0 1 0 0 0 0 1 -
p2
aVJohnny Dawkins PHL 05/16/1990 PHL @ CHI L 43 18 6 12 50.0 0 0 - 6 7 85.7 0 1 1 15 1 0 5 3 -
p3
aVScott Brooks PHL 05/16/1990 PHL @ CHI L 5 1 0 2 0.0 0 1 0.0 1 2 50.0 0 0 0 1 0 0 0 1 -
p4
aVBob Thornton PHL 05/16/1990 PHL @ CHI L 10 2 0 1 0.0 0 0 - 2 2 100.0 1 0 1 0 0 1 1 3 -
p5
aVRick Mahorn PHL 05/16/1990 PHL @ CHI L 33 10 5 12 41.7 0 1 0.0 0 0 - 4 3 7 3 0 2 1 6 -
p6
aVRon Anderson PHL 05/16/1990 PHL @ CHI L 34 20 8 12 66.7 0 0 - 4 4 100.0 0 2 2 0 0 0 1 1 -
p7
aVLanard Copeland PHL 05/16/1990 PHL @ CHI L 1 0 0 1 0.0 0 0 - 0 0 - 0 0 0 0 0 0 0 0 -
p8
aVKurt Nimphius PHL 05/16/1990 PHL @ CHI L 1 0 0 1 0.0 0 0 - 0 0 - 1 0 1 0 0 0 0 0 -
p9
aVMike Gminski PHL 05/16/1990 PHL @ CHI L 33 18 9 14 64.3 0 0 - 0 0 - 0 5 5 1 1 3 0 1 -
p10
aVHersey Hawkins PHL 05/16/1990 PHL @ CHI L 38 11 4 10 40.0 1 4 25.0 2 2 100.0 1 3 4 3 0 0 3 0 -
p11
aVCharles Barkley PHL 05/16/1990 PHL @ CHI L 41 17 6 10 60.0 0 0 - 5 10 50.0 6 7 13 5 0 0 4 5 -
p12
aVMike Gminski PHL 05/13/1990 PHL vs. CHI L 35 24 12 19 63.2 0 2 0.0 0 0 - 0 5 5 1 0 0 1 3 -
p13
aVScott Brooks PHL 05/13/1990 PHL vs. CHI L 11 3 1 1 100.0 1 1 100.0 0 0 - 0 1 1 2 0 0 0 1 -
p14
aVCharles Barkley PHL 05/13/1990 PHL vs. CHI L 46 22 8 17 47.1 0 1 0.0 6 15 40.0 7 6 13 5 0 2 2 4 -
p15
aVJohnny Dawkins PHL 05/13/1990 PHL vs. CHI L 37 17 5 9 55.6 0 1 0.0 7 10 70.0 2 1 3 4 2 1 2 0 -
p16
aVHersey Hawkins PHL 05/13/1990 PHL vs. CHI L 44 26 8 14 57.1 3 5 60.0 7 7 100.0 2 3 5 6 2 0 8 4 -
p17
aVBob Thornton PHL 05/13/1990 PHL vs. CHI L 9 2 1 2 50.0 0 0 - 0 0 - 0 0 0 0 0 0 0 3 -
p18
aVRick Mahorn PHL 05/13/1990 PHL vs. CHI L 31 2 0 4 0.0 0 0 - 2 2 100.0 2 2 4 2 0 1 1 5 -
p19
aVRon Anderson PHL 05/13/1990 PHL vs. CHI L 27 5 2 10 20.0 1 2 50.0 0 0 - 1 4 5 3 2 0 4 2 -
p20
aVMike Gminski PHL 05/11/1990 PHL vs. CHI W 38 10 5 11 45.5 0 0 - 0 0 - 3 6 9 5 2 1 3 4 -
p21
aVCharles Barkley PHL 05/11/1990 PHL vs. CHI W 41 34 10 18 55.6 0 1 0.0 14 21 66.7 10 10 20 8 1 0 6 4 -
p22
aVBob Thornton PHL 05/11/1990 PHL vs. CHI W 12 0 0 3 0.0 0 0 - 0 2 0.0 0 0 0 0 0 0 0 3 -
p23
aVJohnny Dawkins PHL 05/11/1990 PHL vs. CHI W 39 16 5 8 62.5 0 0 - 6 8 75.0 0 3 3 6 3 0 6 2 -
p24
aVRon Anderson PHL 05/11/1990 PHL vs. CHI W 29 17 7 12 58.3 0 0 - 3 4 75.0 1 5 6 1 0 0 1 1 -
p25
aVScott Brooks PHL 05/11/1990 PHL vs. CHI W 9 4 1 3 33.3 0 0 - 2 2 100.0 1 1 2 3 1 0 1 2 -
p26
aVHersey Hawkins PHL 05/11/1990 PHL vs. CHI W 44 27 9 14 64.3 2 3 66.7 7 7 100.0 0 0 0 3 1 2 4 4 -
p27
aVRick Mahorn PHL 05/11/1990 PHL vs. CHI W 28 10 4 9 44.4 0 0 - 2 2 100.0 1 2 3 0 0 1 0 4 -
p28
aVRon Anderson PHL 05/09/1990 PHL @ CHI L 28 9 3 9 33.3 1 1 100.0 2 2 100.0 0 1 1 1 0 0 0 4 -
p29
aVMike Gminski PHL 05/09/1990 PHL @ CHI L 37 16 8 11 72.7 0 1 0.0 0 0 - 0 3 3 1 0 2 3 2 -
p30
aVRick Mahorn PHL 05/09/1990 PHL @ CHI L 32 14 5 8 62.5 0 0 - 4 4 100.0 0 2 2 0 0 0 3 5 -
p31
aVCharles Barkley PHL 05/09/1990 PHL @ CHI L 45 16 7 11 63.6 1 3 33.3 1 1 100.0 3 16 19 3 1 0 4 4 -
p32
aVBob Thornton PHL 05/09/1990 PHL @ CHI L 7 0 0 0 - 0 0 - 0 0 - 0 1 1 1 0 0 0 3 -
p33
aVJohnny Dawkins PHL 05/09/1990 PHL @ CHI L 48 18 9 17 52.9 0 1 0.0 0 0 - 1 4 5 13 1 0 3 1 -
p34
aVHersey Hawkins PHL 05/09/1990 PHL @ CHI L 43 23 7 14 50.0 1 4 25.0 8 9 88.9 0 2 2 8 0 0 3 2 -
p35
aVHersey Hawkins PHL 05/07/1990 PHL @ CHI L 42 12 3 13 23.1 0 4 0.0 6 7 85.7 1 4 5 3 0 1 3 4 -
p36
aVCharles Barkley PHL 05/07/1990 PHL @ CHI L 45 30 10 21 47.6 0 2 0.0 10 11 90.9 9 11 20 4 2 2 3 3 -
p37
aVRon Anderson PHL 05/07/1990 PHL @ CHI L 26 10 5 13 38.5 0 0 - 0 0 - 0 4 4 1 0 0 4 3 -
p38
aVBob Thornton PHL 05/07/1990 PHL @ CHI L 6 2 1 1 100.0 0 0 - 0 0 - 1 2 3 0 0 0 0 0 -
p39
aVRick Mahorn PHL 05/07/1990 PHL @ CHI L 37 4 2 6 33.3 0 0 - 0 1 0.0 0 8 8 4 2 0 0 4 -
p40
aVMike Gminski PHL 05/07/1990 PHL @ CHI L 36 14 5 10 50.0 0 0 - 4 4 100.0 0 4 4 0 1 2 2 3 -
p41
aVScott Brooks PHL 05/07/1990 PHL @ CHI L 6 2 1 2 50.0 0 0 - 0 0 - 0 1 1 0 0 0 0 0 -
p42
aVJohnny Dawkins PHL 05/07/1990 PHL @ CHI L 42 11 3 13 23.1 0 2 0.0 5 6 83.3 0 1 1 4 2 0 1 0 -
p43
aVHersey Hawkins PHL 05/05/1990 PHL vs. CLE W 41 39 14 26 53.8 4 6 66.7 7 8 87.5 1 3 4 2 4 0 2 3 -
p44
aVLanard Copeland PHL 05/05/1990 PHL vs. CLE W 2 2 1 3 33.3 0 0 - 0 0 - 0 0 0 0 0 0 0 0 -
p45
aVJohnny Dawkins PHL 05/05/1990 PHL vs. CLE W 31 10 3 9 33.3 0 0 - 4 4 100.0 0 3 3 14 2 0 1 4 -
p46
aVKenny Payne PHL 05/05/1990 PHL vs. CLE W 1 0 0 0 - 0 0 - 0 0 - 0 0 0 0 0 0 0 0 -
p47
aVRick Mahorn PHL 05/05/1990 PHL vs. CLE W 38 12 5 13 38.5 0 0 - 2 2 100.0 1 7 8 0 1 2 2 2 -
p48
aVScott Brooks PHL 05/05/1990 PHL vs. CLE W 17 1 0 3 0.0 0 1 0.0 1 3 33.3 1 0 1 2 0 0 1 2 -
p49
aVKurt Nimphius PHL 05/05/1990 PHL vs. CLE W 3 0 0 0 - 0 0 - 0 0 - 0 0 0 0 0 0 0 0 -
p50
aVCharles Barkley PHL 05/05/1990 PHL vs. CLE W 36 18 7 15 46.7 0 3 0.0 4 7 57.1 8 11 19 2 1 0 0 4 -
p51
aVBob Thornton PHL 05/05/1990 PHL vs. CLE W 13 3 1 4 25.0 0 0 - 1 2 50.0 5 0 5 2 1 0 1 5 -
p52
aVMike Gminski PHL 05/05/1990 PHL vs. CLE W 32 12 4 11 36.4 0 0 - 4 4 100.0 3 3 6 0 0 2 1 3 -
p53
aVRon Anderson PHL 05/05/1990 PHL vs. CLE W 26 16 4 9 44.4 0 0 - 8 8 100.0 3 4 7 2 0 0 1 3 -
p54
aVScott Brooks PHL 05/03/1990 PHL @ CLE L 6 0 0 1 0.0 0 0 - 0 0 - 0 0 0 1 0 0 2 1 -
p55
aVHersey Hawkins PHL 05/03/1990 PHL @ CLE L 44 22 10 18 55.6 1 3 33.3 1 2 50.0 2 4 6 4 0 2 2 2 -
p56
aVRick Mahorn PHL 05/03/1990 PHL @ CLE L 38 15 5 9 55.6 0 0 - 5 6 83.3 2 9 11 1 1 0 2 5 -
p57
aVMike Gminski PHL 05/03/1990 PHL @ CLE L 33 6 2 13 15.4 0 1 0.0 2 2 100.0 1 8 9 0 3 3 3 3 -
p58
aVJohnny Dawkins PHL 05/03/1990 PHL @ CLE L 42 16 7 12 58.3 0 0 - 2 2 100.0 0 1 1 10 1 0 3 4 -
p59
aVRon Anderson PHL 05/03/1990 PHL @ CLE L 21 8 2 6 33.3 0 1 0.0 4 4 100.0 0 1 1 1 0 0 0 2 -
p60
aVKurt Nimphius PHL 05/03/1990 PHL @ CLE L 1 0 0 0 - 0 0 - 0 0 - 0 0 0 0 0 0 0 0 -
p61
aVLanard Copeland PHL 05/03/1990 PHL @ CLE L 1 0 0 0 - 0 0 - 0 0 - 0 0 0 0 0 0 0 0 -
p62
aVBob Thornton PHL 05/03/1990 PHL @ CLE L 12 6 3 4 75.0 0 0 - 0 0 - 1 0 1 0 0 0 0 2 -
p63
aVCharles Barkley PHL 05/03/1990 PHL @ CLE L 42 23 7 16 43.8 1 1 100.0 8 13 61.5 6 5 11 4 0 1 4 4 -
p64
aVRick Mahorn PHL 05/01/1990 PHL @ CLE L 30 9 3 7 42.9 0 0 - 3 6 50.0 3 7 10 0 0 0 1 3 -
p65
aVRon Anderson PHL 05/01/1990 PHL @ CLE L 19 7 2 6 33.3 1 1 100.0 2 2 100.0 1 0 1 1 0 0 1 2 -
p66
aVHersey Hawkins PHL 05/01/1990 PHL @ CLE L 31 19 7 15 46.7 0 2 0.0 5 5 100.0 0 1 1 1 0 1 3 1 -
p67
aVCharles Barkley PHL 05/01/1990 PHL @ CLE L 31 17 5 10 50.0 2 4 50.0 5 8 62.5 2 9 11 3 0 0 1 3 -
p68
aVScott Brooks PHL 05/01/1990 PHL @ CLE L 18 10 3 4 75.0 2 3 66.7 2 2 100.0 0 1 1 2 1 0 3 1 -
p69
aVLanard Copeland PHL 05/01/1990 PHL @ CLE L 5 2 1 2 50.0 0 0 - 0 0 - 0 1 1 0 0 0 1 1 -
p70
aVBob Thornton PHL 05/01/1990 PHL @ CLE L 15 4 1 3 33.3 0 0 - 2 4 50.0 3 1 4 1 1 0 0 3 -
p71
aVJohnny Dawkins PHL 05/01/1990 PHL @ CLE L 30 8 3 9 33.3 0 1 0.0 2 2 100.0 0 1 1 7 0 0 3 1 -
p72
aVKenny Payne PHL 05/01/1990 PHL @ CLE L 8 4 2 4 50.0 0 1 0.0 0 0 - 0 1 1 0 0 0 1 2 -
p73
aVDerek Smith PHL 05/01/1990 PHL @ CLE L 15 11 5 8 62.5 0 1 0.0 1 2 50.0 0 0 0 1 1 0 1 3 -
p74
aVKurt Nimphius PHL 05/01/1990 PHL @ CLE L 13 2 1 6 16.7 0 0 - 0 0 - 2 1 3 0 1 1 0 1 -
p75
aVMike Gminski PHL 05/01/1990 PHL @ CLE L 25 2 1 6 16.7 0 1 0.0 0 0 - 0 3 3 2 0 0 2 3 -
p76
aVRon Anderson PHL 04/29/1990 PHL vs. CLE W 22 10 4 9 44.4 0 0 - 2 2 100.0 0 5 5 1 0 0 1 1 -
p77
aVBob Thornton PHL 04/29/1990 PHL vs. CLE W 5 0 0 0 - 0 0 - 0 0 - 0 0 0 0 0 0 0 0 -
p78
aVJohnny Dawkins PHL 04/29/1990 PHL vs. CLE W 32 18 8 14 57.1 0 1 0.0 2 2 100.0 0 1 1 11 1 0 3 5 -
p79
aVRick Mahorn PHL 04/29/1990 PHL vs. CLE W 39 8 3 6 50.0 0 0 - 2 3 66.7 2 7 9 0 2 1 1 5 -
p80
aVCharles Barkley PHL 04/29/1990 PHL vs. CLE W 45 32 13 19 68.4 1 1 100.0 5 11 45.5 4 4 8 6 2 1 2 2 -
p81
aVScott Brooks PHL 04/29/1990 PHL vs. CLE W 16 0 0 2 0.0 0 0 - 0 0 - 0 1 1 3 0 0 0 3 -
p82
aVMike Gminski PHL 04/29/1990 PHL vs. CLE W 36 18 8 13 61.5 0 0 - 2 2 100.0 0 5 5 0 1 3 0 2 -
p83
aVHersey Hawkins PHL 04/29/1990 PHL vs. CLE W 45 21 8 18 44.4 0 1 0.0 5 5 100.0 0 3 3 4 3 0 1 2 -
p84
aVHersey Hawkins PHL 04/26/1990 PHL vs. CLE W 43 35 11 21 52.4 2 4 50.0 11 11 100.0 1 0 1 2 2 1 2 3 -
p85
aVRon Anderson PHL 04/26/1990 PHL vs. CLE W 24 10 3 7 42.9 0 0 - 4 4 100.0 0 5 5 3 2 0 2 3 -
p86
aVCharles Barkley PHL 04/26/1990 PHL vs. CLE W 47 38 15 25 60.0 1 2 50.0 7 11 63.6 11 10 21 3 1 1 4 3 -
p87
aVRick Mahorn PHL 04/26/1990 PHL vs. CLE W 36 10 5 12 41.7 0 0 - 0 0 - 3 5 8 0 1 1 2 2 -
p88
aVMike Gminski PHL 04/26/1990 PHL vs. CLE W 37 8 3 9 33.3 0 0 - 2 3 66.7 1 4 5 1 0 7 2 3 -
p89
aVScott Brooks PHL 04/26/1990 PHL vs. CLE W 11 0 0 1 0.0 0 1 0.0 0 0 - 0 1 1 2 1 0 0 2 -
p90
aVJohnny Dawkins PHL 04/26/1990 PHL vs. CLE W 42 10 4 12 33.3 0 1 0.0 2 2 100.0 2 1 3 9 4 1 2 2 -
p91
a.