(lp0
VPLAYER TEAM DATE MATCHUP W/L MIN PTS FGM FGA FG% 3PM 3PA 3P% FTM FTA FT% OREB DREB REB AST STL BLK TOV PF +/-
p1
aVDelaney Rudd UTH 05/06/1990 UTH vs. PHX L 12 4 2 5 40.0 0 2 0.0 0 0 - 0 1 1 5 0 0 0 3 -
p2
aVKarl Malone UTH 05/06/1990 UTH vs. PHX L 38 26 10 19 52.6 0 0 - 6 12 50.0 1 7 8 2 3 0 3 5 -
p3
aVMark Eaton UTH 05/06/1990 UTH vs. PHX L 36 6 3 3 100.0 0 0 - 0 2 0.0 2 7 9 0 1 0 0 4 -
p4
aVRaymond Brown UTH 05/06/1990 UTH vs. PHX L 1 0 0 0 - 0 0 - 0 0 - 0 0 0 0 0 0 0 0 -
p5
aVThurl Bailey UTH 05/06/1990 UTH vs. PHX L 41 26 11 29 37.9 0 0 - 4 6 66.7 5 2 7 1 1 1 1 3 -
p6
aVMike Brown UTH 05/06/1990 UTH vs. PHX L 8 0 0 2 0.0 0 0 - 0 0 - 1 1 2 0 0 1 0 0 -
p7
aVDarrell Griffith UTH 05/06/1990 UTH vs. PHX L 20 15 6 9 66.7 1 2 50.0 2 2 100.0 1 2 3 2 1 0 1 1 -
p8
aVBlue Edwards UTH 05/06/1990 UTH vs. PHX L 20 8 4 8 50.0 0 0 - 0 0 - 3 2 5 2 1 0 1 4 -
p9
aVBob Hansen UTH 05/06/1990 UTH vs. PHX L 28 8 3 6 50.0 2 4 50.0 0 0 - 1 1 2 0 1 0 0 3 -
p10
aVJohn Stockton UTH 05/06/1990 UTH vs. PHX L 36 9 3 11 27.3 0 3 0.0 3 4 75.0 0 6 6 17 0 0 1 3 -
p11
aVMike Brown UTH 05/04/1990 UTH @ PHX W 7 5 2 5 40.0 0 0 - 1 2 50.0 1 0 1 0 0 0 0 1 -
p12
aVBob Hansen UTH 05/04/1990 UTH @ PHX W 37 11 5 12 41.7 1 3 33.3 0 0 - 5 1 6 1 2 0 1 3 -
p13
aVBlue Edwards UTH 05/04/1990 UTH @ PHX W 14 2 0 0 - 0 0 - 2 2 100.0 0 3 3 1 1 0 0 2 -
p14
aVDarrell Griffith UTH 05/04/1990 UTH @ PHX W 11 11 3 8 37.5 3 4 75.0 2 2 100.0 1 5 6 0 1 0 1 0 -
p15
aVKarl Malone UTH 05/04/1990 UTH @ PHX W 45 33 13 24 54.2 0 0 - 7 9 77.8 3 8 11 2 5 1 2 4 -
p16
aVThurl Bailey UTH 05/04/1990 UTH @ PHX W 42 18 9 18 50.0 0 0 - 0 0 - 1 6 7 2 1 1 0 4 -
p17
aVJohn Stockton UTH 05/04/1990 UTH @ PHX W 36 16 6 12 50.0 0 1 0.0 4 4 100.0 1 1 2 14 0 0 4 4 -
p18
aVMark Eaton UTH 05/04/1990 UTH @ PHX W 36 5 2 3 66.7 0 0 - 1 2 50.0 1 6 7 0 1 4 2 4 -
p19
aVDelaney Rudd UTH 05/04/1990 UTH @ PHX W 12 4 2 7 28.6 0 2 0.0 0 0 - 1 0 1 6 1 0 1 2 -
p20
aVBlue Edwards UTH 05/02/1990 UTH @ PHX L 22 12 5 6 83.3 0 0 - 2 3 66.7 2 3 5 1 1 0 4 4 -
p21
aVDarrell Griffith UTH 05/02/1990 UTH @ PHX L 29 4 2 7 28.6 0 1 0.0 0 0 - 1 2 3 0 2 1 0 2 -
p22
aVThurl Bailey UTH 05/02/1990 UTH @ PHX L 38 30 11 15 73.3 0 0 - 8 10 80.0 1 3 4 2 0 1 3 6 -
p23
aVKarl Malone UTH 05/02/1990 UTH @ PHX L 42 26 8 21 38.1 0 1 0.0 10 11 90.9 5 6 11 3 0 2 2 4 -
p24
aVMark Eaton UTH 05/02/1990 UTH @ PHX L 22 2 1 3 33.3 0 0 - 0 0 - 1 4 5 0 0 4 0 2 -
p25
aVMike Brown UTH 05/02/1990 UTH @ PHX L 12 2 0 0 - 0 0 - 2 2 100.0 1 0 1 1 1 0 4 4 -
p26
aVJohn Stockton UTH 05/02/1990 UTH @ PHX L 41 22 8 18 44.4 1 5 20.0 5 6 83.3 1 2 3 19 3 0 3 5 -
p27
aVDelaney Rudd UTH 05/02/1990 UTH @ PHX L 7 0 0 3 0.0 0 1 0.0 0 0 - 0 0 0 1 0 0 1 2 -
p28
aVEric Leckner UTH 05/02/1990 UTH @ PHX L 4 3 1 1 100.0 0 0 - 1 4 25.0 0 1 1 0 0 0 0 0 -
p29
aVBob Hansen UTH 05/02/1990 UTH @ PHX L 23 4 2 5 40.0 0 0 - 0 0 - 1 0 1 0 0 0 1 3 -
p30
aVThurl Bailey UTH 04/29/1990 UTH vs. PHX L 38 15 5 14 35.7 0 0 - 5 6 83.3 1 8 9 1 1 1 1 2 -
p31
aVEric Leckner UTH 04/29/1990 UTH vs. PHX L 13 7 3 7 42.9 0 0 - 1 2 50.0 2 4 6 2 0 0 1 5 -
p32
aVMark Eaton UTH 04/29/1990 UTH vs. PHX L 24 2 1 6 16.7 0 0 - 0 0 - 3 3 6 0 1 3 1 3 -
p33
aVDarrell Griffith UTH 04/29/1990 UTH vs. PHX L 19 7 3 8 37.5 1 2 50.0 0 1 0.0 3 1 4 0 1 0 1 0 -
p34
aVKarl Malone UTH 04/29/1990 UTH vs. PHX L 39 20 7 21 33.3 0 0 - 6 7 85.7 5 5 10 2 2 1 3 6 -
p35
aVJohn Stockton UTH 04/29/1990 UTH vs. PHX L 39 12 5 12 41.7 0 3 0.0 2 4 50.0 1 2 3 8 0 0 2 4 -
p36
aVDelaney Rudd UTH 04/29/1990 UTH vs. PHX L 8 6 2 5 40.0 1 2 50.0 1 2 50.0 0 0 0 1 0 0 0 2 -
p37
aVBlue Edwards UTH 04/29/1990 UTH vs. PHX L 14 3 1 4 25.0 0 1 0.0 1 1 100.0 1 1 2 2 0 0 3 1 -
p38
aVMike Brown UTH 04/29/1990 UTH vs. PHX L 13 4 2 3 66.7 0 0 - 0 0 - 0 0 0 0 0 0 0 2 -
p39
aVRaymond Brown UTH 04/29/1990 UTH vs. PHX L 3 0 0 0 - 0 0 - 0 0 - 0 0 0 0 0 0 0 0 -
p40
aVEric Johnson UTH 04/29/1990 UTH vs. PHX L 3 0 0 0 - 0 0 - 0 0 - 0 0 0 0 0 0 0 0 -
p41
aVBob Hansen UTH 04/29/1990 UTH vs. PHX L 27 11 5 9 55.6 1 2 50.0 0 2 0.0 0 1 1 3 0 0 0 2 -
p42
aVKarl Malone UTH 04/27/1990 UTH vs. PHX W 39 21 8 20 40.0 0 0 - 5 6 83.3 2 9 11 2 1 1 2 3 -
p43
aVRaymond Brown UTH 04/27/1990 UTH vs. PHX W 2 0 0 0 - 0 0 - 0 0 - 0 0 0 0 0 0 0 2 -
p44
aVDelaney Rudd UTH 04/27/1990 UTH vs. PHX W 6 4 2 3 66.7 0 0 - 0 0 - 0 1 1 0 0 0 1 1 -
p45
aVBob Hansen UTH 04/27/1990 UTH vs. PHX W 30 16 6 11 54.5 3 5 60.0 1 2 50.0 0 4 4 1 0 0 2 3 -
p46
aVMark Eaton UTH 04/27/1990 UTH vs. PHX W 10 4 2 2 100.0 0 0 - 0 1 0.0 1 2 3 0 0 3 1 4 -
p47
aVBlue Edwards UTH 04/27/1990 UTH vs. PHX W 24 11 4 8 50.0 1 2 50.0 2 2 100.0 2 1 3 2 4 2 4 5 -
p48
aVMike Brown UTH 04/27/1990 UTH vs. PHX W 27 7 3 5 60.0 0 0 - 1 1 100.0 2 4 6 2 0 0 1 4 -
p49
aVThurl Bailey UTH 04/27/1990 UTH vs. PHX W 31 16 7 12 58.3 0 0 - 2 2 100.0 0 5 5 1 2 2 0 4 -
p50
aVEric Leckner UTH 04/27/1990 UTH vs. PHX W 11 8 2 2 100.0 1 1 100.0 3 3 100.0 0 1 1 0 0 0 0 3 -
p51
aVDarrell Griffith UTH 04/27/1990 UTH vs. PHX W 18 10 5 10 50.0 0 0 - 0 0 - 0 5 5 1 1 0 0 0 -
p52
aVJohn Stockton UTH 04/27/1990 UTH vs. PHX W 42 16 7 16 43.8 0 1 0.0 2 2 100.0 1 1 2 17 3 0 4 4 -
p53
a.