(lp0
VPLAYER TEAM DATE MATCHUP W/L MIN PTS FGM FGA FG% 3PM 3PA 3P% FTM FTA FT% OREB DREB REB AST STL BLK TOV PF +/-
p1
aVTerry Teagle LAL 06/12/1991 LAL vs. CHI L 18 9 4 8 50.0 0 0 - 1 2 50.0 0 0 0 0 0 0 3 4 -
p2
aVA.C. Green LAL 06/12/1991 LAL vs. CHI L 43 13 6 12 50.0 0 0 - 1 2 50.0 1 6 7 1 2 0 2 3 -
p3
aVVlade Divac LAL 06/12/1991 LAL vs. CHI L 37 8 4 12 33.3 0 1 0.0 0 0 - 3 4 7 3 0 4 5 2 -
p4
aVTony Smith LAL 06/12/1991 LAL vs. CHI L 30 12 5 6 83.3 0 0 - 2 3 66.7 0 0 0 2 1 0 4 6 -
p5
aVMagic Johnson LAL 06/12/1991 LAL vs. CHI L 48 16 4 12 33.3 2 6 33.3 6 6 100.0 4 7 11 20 1 0 6 0 -
p6
aVSam Perkins LAL 06/12/1991 LAL vs. CHI L 37 22 5 12 41.7 1 4 25.0 11 13 84.6 3 6 9 3 0 2 1 4 -
p7
aVElden Campbell LAL 06/12/1991 LAL vs. CHI L 27 21 9 12 75.0 0 0 - 3 4 75.0 1 1 2 0 2 1 1 3 -
p8
aVA.C. Green LAL 06/09/1991 LAL vs. CHI L 17 5 1 5 20.0 0 0 - 3 4 75.0 4 3 7 0 0 0 2 1 -
p9
aVVlade Divac LAL 06/09/1991 LAL vs. CHI L 45 27 12 20 60.0 0 0 - 3 3 100.0 6 5 11 1 1 3 2 4 -
p10
aVTerry Teagle LAL 06/09/1991 LAL vs. CHI L 18 6 1 6 16.7 0 0 - 4 4 100.0 0 0 0 0 2 0 0 1 -
p11
aVLarry Drew LAL 06/09/1991 LAL vs. CHI L 6 3 1 2 50.0 0 0 - 1 2 50.0 0 0 0 0 0 0 0 1 -
p12
aVTony Smith LAL 06/09/1991 LAL vs. CHI L 2 0 0 1 0.0 0 0 - 0 0 - 1 0 1 0 0 0 1 0 -
p13
aVJames Worthy LAL 06/09/1991 LAL vs. CHI L 31 12 6 16 37.5 0 0 - 0 1 0.0 1 2 3 2 0 0 0 2 -
p14
aVSam Perkins LAL 06/09/1991 LAL vs. CHI L 43 3 1 15 6.7 0 3 0.0 1 2 50.0 5 5 10 0 0 0 0 5 -
p15
aVByron Scott LAL 06/09/1991 LAL vs. CHI L 34 4 2 4 50.0 0 0 - 0 0 - 0 4 4 0 1 0 2 5 -
p16
aVMagic Johnson LAL 06/09/1991 LAL vs. CHI L 44 22 6 13 46.2 0 2 0.0 10 10 100.0 1 5 6 11 0 0 2 4 -
p17
aVSam Perkins LAL 06/07/1991 LAL vs. CHI L 51 25 10 17 58.8 0 0 - 5 6 83.3 4 5 9 2 1 5 3 3 -
p18
aVByron Scott LAL 06/07/1991 LAL vs. CHI L 43 0 0 8 0.0 0 3 0.0 0 2 0.0 0 1 1 3 0 0 2 3 -
p19
aVVlade Divac LAL 06/07/1991 LAL vs. CHI L 41 24 11 15 73.3 0 0 - 2 2 100.0 1 6 7 0 2 1 2 6 -
p20
aVJames Worthy LAL 06/07/1991 LAL vs. CHI L 48 19 9 16 56.3 0 2 0.0 1 2 50.0 0 1 1 4 3 0 1 1 -
p21
aVLarry Drew LAL 06/07/1991 LAL vs. CHI L 4 0 0 1 0.0 0 1 0.0 0 0 - 0 1 1 0 0 0 0 0 -
p22
aVA.C. Green LAL 06/07/1991 LAL vs. CHI L 15 2 1 3 33.3 0 0 - 0 2 0.0 3 1 4 0 0 0 1 2 -
p23
aVElden Campbell LAL 06/07/1991 LAL vs. CHI L 2 2 1 2 50.0 0 0 - 0 0 - 0 0 0 0 0 0 0 1 -
p24
aVMagic Johnson LAL 06/07/1991 LAL vs. CHI L 50 22 7 15 46.7 0 2 0.0 8 9 88.9 1 5 6 10 2 0 5 2 -
p25
aVTerry Teagle LAL 06/07/1991 LAL vs. CHI L 11 2 1 2 50.0 0 0 - 0 2 0.0 0 0 0 0 1 1 0 2 -
p26
aVByron Scott LAL 06/05/1991 LAL @ CHI L 26 5 2 2 100.0 1 1 100.0 0 0 - 0 0 0 2 1 0 0 4 -
p27
aVA.C. Green LAL 06/05/1991 LAL @ CHI L 22 6 2 11 18.2 2 3 66.7 0 0 - 3 4 7 0 1 0 0 2 -
p28
aVVlade Divac LAL 06/05/1991 LAL @ CHI L 41 16 7 11 63.6 0 1 0.0 2 2 100.0 4 1 5 5 3 1 2 2 -
p29
aVMychal Thompson LAL 06/05/1991 LAL @ CHI L 10 0 0 3 0.0 0 0 - 0 0 - 0 0 0 0 0 0 1 1 -
p30
aVJames Worthy LAL 06/05/1991 LAL @ CHI L 40 24 9 17 52.9 1 2 50.0 5 6 83.3 3 2 5 1 0 0 4 1 -
p31
aVMagic Johnson LAL 06/05/1991 LAL @ CHI L 43 14 4 13 30.8 0 2 0.0 6 6 100.0 2 5 7 10 2 0 4 2 -
p32
aVSam Perkins LAL 06/05/1991 LAL @ CHI L 35 11 4 8 50.0 1 2 50.0 2 2 100.0 1 5 6 0 0 0 3 2 -
p33
aVElden Campbell LAL 06/05/1991 LAL @ CHI L 4 0 0 2 0.0 0 0 - 0 0 - 0 2 2 0 1 1 1 0 -
p34
aVTerry Teagle LAL 06/05/1991 LAL @ CHI L 14 6 0 2 0.0 0 0 - 6 6 100.0 1 0 1 1 0 0 2 1 -
p35
aVLarry Drew LAL 06/05/1991 LAL @ CHI L 5 4 2 4 50.0 0 1 0.0 0 0 - 0 1 1 0 0 0 0 0 -
p36
aVSam Perkins LAL 06/02/1991 LAL @ CHI W 40 22 8 17 47.1 3 4 75.0 3 6 50.0 1 3 4 0 1 0 1 1 -
p37
aVByron Scott LAL 06/02/1991 LAL @ CHI W 37 9 1 4 25.0 0 1 0.0 7 8 87.5 0 2 2 2 1 0 0 4 -
p38
aVMagic Johnson LAL 06/02/1991 LAL @ CHI W 43 19 4 5 80.0 2 2 100.0 9 10 90.0 0 10 10 11 1 0 5 2 -
p39
aVA.C. Green LAL 06/02/1991 LAL @ CHI W 16 3 0 1 0.0 0 0 - 3 4 75.0 2 1 3 0 0 0 0 0 -
p40
aVLarry Drew LAL 06/02/1991 LAL @ CHI W 5 0 0 1 0.0 0 1 0.0 0 0 - 0 0 0 0 0 0 0 2 -
p41
aVJames Worthy LAL 06/02/1991 LAL @ CHI W 45 22 11 24 45.8 0 2 0.0 0 0 - 0 3 3 1 1 0 2 2 -
p42
aVTerry Teagle LAL 06/02/1991 LAL @ CHI W 10 2 1 3 33.3 0 0 - 0 0 - 0 1 1 0 0 0 1 1 -
p43
aVVlade Divac LAL 06/02/1991 LAL @ CHI W 44 16 5 11 45.5 0 0 - 6 6 100.0 3 11 14 1 3 3 4 4 -
p44
aVLarry Drew LAL 05/30/1991 LAL vs. POR W 1 0 0 0 - 0 0 - 0 0 - 0 0 0 1 0 0 0 0 -
p45
aVMychal Thompson LAL 05/30/1991 LAL vs. POR W 5 0 0 1 0.0 0 0 - 0 0 - 1 1 2 0 0 0 0 1 -
p46
aVVlade Divac LAL 05/30/1991 LAL vs. POR W 36 8 3 7 42.9 0 0 - 2 4 50.0 5 3 8 1 1 2 3 4 -
p47
aVMagic Johnson LAL 05/30/1991 LAL vs. POR W 47 25 8 16 50.0 1 4 25.0 8 10 80.0 2 9 11 8 2 0 6 2 -
p48
aVJames Worthy LAL 05/30/1991 LAL vs. POR W 38 8 3 12 25.0 0 1 0.0 2 2 100.0 0 3 3 4 1 0 2 1 -
p49
aVTerry Teagle LAL 05/30/1991 LAL vs. POR W 10 0 0 2 0.0 0 0 - 0 0 - 0 1 1 0 0 0 0 1 -
p50
aVA.C. Green LAL 05/30/1991 LAL vs. POR W 23 15 5 12 41.7 1 1 100.0 4 6 66.7 0 4 4 0 2 0 0 1 -
p51
aVByron Scott LAL 05/30/1991 LAL vs. POR W 38 9 4 8 50.0 1 2 50.0 0 0 - 1 1 2 3 1 0 1 4 -
p52
aVSam Perkins LAL 05/30/1991 LAL vs. POR W 42 26 10 14 71.4 1 2 50.0 5 8 62.5 1 5 6 3 1 2 2 4 -
p53
aVLarry Drew LAL 05/28/1991 LAL @ POR L 3 0 0 0 - 0 0 - 0 0 - 0 0 0 1 0 0 0 0 -
p54
aVSam Perkins LAL 05/28/1991 LAL @ POR L 38 12 4 8 50.0 0 1 0.0 4 4 100.0 1 4 5 3 1 2 5 4 -
p55
aVVlade Divac LAL 05/28/1991 LAL @ POR L 41 14 5 7 71.4 0 0 - 4 4 100.0 2 3 5 0 0 3 1 5 -
p56
aVIrving Thomas LAL 05/28/1991 LAL @ POR L 1 0 0 0 - 0 0 - 0 0 - 0 0 0 0 0 0 0 0 -
p57
aVJames Worthy LAL 05/28/1991 LAL @ POR L 24 12 5 11 45.5 0 1 0.0 2 2 100.0 0 1 1 2 1 0 2 4 -
p58
aVMychal Thompson LAL 05/28/1991 LAL @ POR L 2 2 1 1 100.0 0 0 - 0 0 - 1 0 1 0 0 0 0 1 -
p59
aVMagic Johnson LAL 05/28/1991 LAL @ POR L 45 29 8 19 42.1 4 8 50.0 9 12 75.0 0 8 8 7 0 0 5 1 -
p60
aVTony Smith LAL 05/28/1991 LAL @ POR L 1 0 0 0 - 0 0 - 0 0 - 0 0 0 0 0 0 1 0 -
p61
aVA.C. Green LAL 05/28/1991 LAL @ POR L 31 3 1 5 20.0 0 1 0.0 1 1 100.0 3 6 9 1 0 0 0 3 -
p62
aVTerry Teagle LAL 05/28/1991 LAL @ POR L 10 2 1 8 12.5 0 0 - 0 0 - 1 0 1 1 0 0 0 0 -
p63
aVElden Campbell LAL 05/28/1991 LAL @ POR L 4 0 0 0 - 0 0 - 0 0 - 0 0 0 0 0 0 0 0 -
p64
aVByron Scott LAL 05/28/1991 LAL @ POR L 40 10 4 11 36.4 2 4 50.0 0 0 - 1 2 3 2 1 0 3 4 -
p65
aVTony Smith LAL 05/26/1991 LAL vs. POR W 2 2 1 3 33.3 0 0 - 0 0 - 1 0 1 0 0 0 0 0 -
p66
aVLarry Drew LAL 05/26/1991 LAL vs. POR W 10 4 2 4 50.0 0 0 - 0 0 - 0 1 1 3 0 0 2 1 -
p67
aVJames Worthy LAL 05/26/1991 LAL vs. POR W 39 18 9 18 50.0 0 2 0.0 0 0 - 3 2 5 6 3 0 3 3 -
p68
aVMychal Thompson LAL 05/26/1991 LAL vs. POR W 5 0 0 0 - 0 0 - 0 0 - 0 0 0 0 0 1 0 0 -
p69
aVVlade Divac LAL 05/26/1991 LAL vs. POR W 30 20 7 12 58.3 0 0 - 6 7 85.7 2 2 4 0 3 3 2 4 -
p70
aVElden Campbell LAL 05/26/1991 LAL vs. POR W 8 0 0 0 - 0 0 - 0 0 - 0 1 1 0 1 0 1 2 -
p71
aVSam Perkins LAL 05/26/1991 LAL vs. POR W 31 12 5 7 71.4 1 1 100.0 1 2 50.0 0 4 4 1 0 3 0 3 -
p72
aVA.C. Green LAL 05/26/1991 LAL vs. POR W 28 16 5 11 45.5 0 0 - 6 6 100.0 5 2 7 1 0 1 2 2 -
p73
aVByron Scott LAL 05/26/1991 LAL vs. POR W 30 13 6 8 75.0 0 2 0.0 1 2 50.0 1 4 5 1 2 0 1 2 -
p74
aVTerry Teagle LAL 05/26/1991 LAL vs. POR W 19 9 3 12 25.0 0 0 - 3 3 100.0 0 3 3 2 1 0 1 1 -
p75
aVMagic Johnson LAL 05/26/1991 LAL vs. POR W 38 22 8 15 53.3 2 6 33.3 4 5 80.0 1 8 9 9 2 0 2 1 -
p76
aVIrving Thomas LAL 05/24/1991 LAL vs. POR W 1 0 0 0 - 0 0 - 0 0 - 0 0 0 0 0 0 0 0 -
p77
aVByron Scott LAL 05/24/1991 LAL vs. POR W 35 14 6 11 54.5 0 1 0.0 2 2 100.0 1 0 1 1 1 2 1 1 -
p78
aVLarry Drew LAL 05/24/1991 LAL vs. POR W 4 0 0 1 0.0 0 1 0.0 0 0 - 0 0 0 0 0 0 0 0 -
p79
aVMagic Johnson LAL 05/24/1991 LAL vs. POR W 44 14 3 8 37.5 1 5 20.0 7 7 100.0 0 7 7 19 1 0 4 2 -
p80
aVA.C. Green LAL 05/24/1991 LAL vs. POR W 26 9 3 8 37.5 0 1 0.0 3 4 75.0 5 4 9 1 1 0 0 2 -
p81
aVMychal Thompson LAL 05/24/1991 LAL vs. POR W 2 0 0 0 - 0 0 - 0 0 - 0 0 0 0 0 0 0 0 -
p82
aVSam Perkins LAL 05/24/1991 LAL vs. POR W 37 18 5 9 55.6 0 0 - 8 8 100.0 2 7 9 3 1 2 5 5 -
p83
aVTerry Teagle LAL 05/24/1991 LAL vs. POR W 18 8 4 10 40.0 0 0 - 0 0 - 1 0 1 1 0 0 0 2 -
p84
aVTony Smith LAL 05/24/1991 LAL vs. POR W 1 0 0 1 0.0 0 0 - 0 0 - 0 0 0 0 0 0 0 0 -
p85
aVVlade Divac LAL 05/24/1991 LAL vs. POR W 27 16 8 13 61.5 0 0 - 0 0 - 2 5 7 0 3 3 1 3 -
p86
aVJames Worthy LAL 05/24/1991 LAL vs. POR W 44 25 9 17 52.9 0 0 - 7 8 87.5 1 6 7 3 1 0 4 3 -
p87
aVElden Campbell LAL 05/24/1991 LAL vs. POR W 1 2 1 1 100.0 0 0 - 0 0 - 0 0 0 0 0 0 0 0 -
p88
aVSam Perkins LAL 05/21/1991 LAL @ POR L 43 19 9 20 45.0 0 2 0.0 1 3 33.3 3 7 10 2 0 1 0 4 -
p89
aVJames Worthy LAL 05/21/1991 LAL @ POR L 42 21 10 22 45.5 0 1 0.0 1 3 33.3 1 2 3 5 0 0 2 2 -
p90
aVVlade Divac LAL 05/21/1991 LAL @ POR L 30 9 3 4 75.0 0 0 - 3 6 50.0 1 1 2 3 3 3 1 6 -
p91
aVElden Campbell LAL 05/21/1991 LAL @ POR L 4 0 0 0 - 0 0 - 0 0 - 0 0 0 0 0 0 0 0 -
p92
aVA.C. Green LAL 05/21/1991 LAL @ POR L 3 2 0 0 - 0 0 - 2 2 100.0 0 0 0 0 0 0 0 0 -
p93
aVLarry Drew LAL 05/21/1991 LAL @ POR L 2 0 0 0 - 0 0 - 0 0 - 0 0 0 0 0 0 1 0 -
p94
aVByron Scott LAL 05/21/1991 LAL @ POR L 47 20 8 12 66.7 4 4 100.0 0 0 - 1 3 4 3 3 0 0 3 -
p95
aVTerry Teagle LAL 05/21/1991 LAL @ POR L 15 6 3 8 37.5 0 0 - 0 0 - 0 0 0 0 0 0 1 0 -
p96
aVMagic Johnson LAL 05/21/1991 LAL @ POR L 46 19 6 14 42.9 3 8 37.5 4 5 80.0 1 6 7 12 2 0 8 3 -
p97
aVIrving Thomas LAL 05/21/1991 LAL @ POR L 8 2 1 1 100.0 - - - 0 0 - - - - 0 - - - 3 -
p98
aVSam Perkins LAL 05/18/1991 LAL @ POR W 42 18 6 9 66.7 0 1 0.0 6 6 100.0 3 12 15 0 1 1 5 5 -
p99
aVA.C. Green LAL 05/18/1991 LAL @ POR W 10 2 1 2 50.0 0 0 - 0 0 - 2 1 3 0 0 0 0 1 -
p100
aVLarry Drew LAL 05/18/1991 LAL @ POR W 5 0 0 1 0.0 0 0 - 0 0 - 0 0 0 2 0 0 0 2 -
p101
aVJames Worthy LAL 05/18/1991 LAL @ POR W 41 28 12 24 50.0 0 2 0.0 4 5 80.0 0 1 1 4 1 0 0 0 -
p102
aVElden Campbell LAL 05/18/1991 LAL @ POR W 14 3 1 3 33.3 0 0 - 1 1 100.0 1 2 3 0 0 1 0 1 -
p103
aVTerry Teagle LAL 05/18/1991 LAL @ POR W 17 14 7 15 46.7 0 0 - 0 0 - 1 0 1 0 0 0 0 2 -
p104
aVMagic Johnson LAL 05/18/1991 LAL @ POR W 43 15 2 8 25.0 0 3 0.0 11 13 84.6 2 4 6 21 2 0 2 2 -
p105
aVMychal Thompson LAL 05/18/1991 LAL @ POR W 3 0 0 1 0.0 0 0 - 0 0 - 0 1 1 0 0 0 0 0 -
p106
aVByron Scott LAL 05/18/1991 LAL @ POR W 36 19 9 12 75.0 1 2 50.0 0 0 - 0 3 3 1 0 0 0 2 -
p107
aVVlade Divac LAL 05/18/1991 LAL @ POR W 29 12 6 9 66.7 0 0 - 0 0 - 0 2 2 1 2 3 2 3 -
p108
aVJames Worthy LAL 05/14/1991 LAL vs. GOS W 49 25 11 22 50.0 0 0 - 3 4 75.0 5 5 10 5 0 1 2 0 -
p109
aVTerry Teagle LAL 05/14/1991 LAL vs. GOS W 25 17 7 13 53.8 0 0 - 3 4 75.0 0 4 4 2 1 2 2 4 -
p110
aVVlade Divac LAL 05/14/1991 LAL vs. GOS W 10 6 2 5 40.0 0 0 - 2 2 100.0 2 1 3 0 0 0 0 1 -
p111
aVMagic Johnson LAL 05/14/1991 LAL vs. GOS W 47 28 8 22 36.4 2 4 50.0 10 11 90.9 3 11 14 12 0 0 2 2 -
p112
aVSam Perkins LAL 05/14/1991 LAL vs. GOS W 51 19 7 12 58.3 0 0 - 5 5 100.0 3 12 15 3 1 0 3 5 -
p113
aVElden Campbell LAL 05/14/1991 LAL vs. GOS W 20 11 5 6 83.3 0 0 - 1 6 16.7 5 4 9 0 0 1 0 6 -
p114
aVTony Smith LAL 05/14/1991 LAL vs. GOS W 1 0 0 0 - 0 0 - 0 0 - 0 0 0 0 0 0 0 0 -
p115
aVLarry Drew LAL 05/14/1991 LAL vs. GOS W 5 1 0 1 0.0 0 1 0.0 1 2 50.0 0 2 2 2 0 0 1 3 -
p116
aVByron Scott LAL 05/14/1991 LAL vs. GOS W 39 13 4 15 26.7 1 1 100.0 4 5 80.0 1 3 4 1 0 0 1 2 -
p117
aVA.C. Green LAL 05/14/1991 LAL vs. GOS W 18 4 1 1 100.0 0 0 - 2 4 50.0 2 2 4 1 2 0 2 1 -
p118
aVLarry Drew LAL 05/12/1991 LAL @ GOS W 8 5 2 3 66.7 1 1 100.0 0 0 - 0 0 0 1 0 0 2 4 -
p119
aVTerry Teagle LAL 05/12/1991 LAL @ GOS W 11 5 2 5 40.0 0 0 - 1 2 50.0 0 2 2 0 0 0 1 2 -
p120
aVMychal Thompson LAL 05/12/1991 LAL @ GOS W 3 2 1 1 100.0 0 0 - 0 0 - - - - 0 - - - 0 -
p121
aVJames Worthy LAL 05/12/1991 LAL @ GOS W 43 16 6 18 33.3 1 3 33.3 3 4 75.0 3 2 5 6 3 0 2 2 -
p122
aVElden Campbell LAL 05/12/1991 LAL @ GOS W 21 8 4 8 50.0 0 0 - 0 0 - 0 1 1 1 1 0 1 3 -
p123
aVSam Perkins LAL 05/12/1991 LAL @ GOS W 36 27 10 13 76.9 0 0 - 7 11 63.6 2 7 9 2 0 0 1 3 -
p124
aVTony Smith LAL 05/12/1991 LAL @ GOS W 3 0 0 2 0.0 0 0 - 0 0 - 1 0 1 0 0 0 0 0 -
p125
aVVlade Divac LAL 05/12/1991 LAL @ GOS W 13 4 0 1 0.0 0 0 - 4 4 100.0 0 4 4 0 0 0 1 3 -
p126
aVByron Scott LAL 05/12/1991 LAL @ GOS W 41 21 8 13 61.5 1 1 100.0 4 4 100.0 4 7 11 1 2 1 1 2 -
p127
aVA.C. Green LAL 05/12/1991 LAL @ GOS W 21 14 3 5 60.0 0 0 - 8 11 72.7 4 3 7 2 2 0 1 2 -
p128
aVMagic Johnson LAL 05/12/1991 LAL @ GOS W 40 21 5 14 35.7 2 6 33.3 9 11 81.8 0 7 7 11 0 0 3 3 -
p129
aVElden Campbell LAL 05/10/1991 LAL @ GOS W 6 1 0 0 - 0 0 - 1 2 50.0 0 1 1 0 0 0 0 1 -
p130
aVJames Worthy LAL 05/10/1991 LAL @ GOS W 42 36 17 26 65.4 0 0 - 2 3 66.7 0 5 5 5 1 0 1 5 -
p131
aVSam Perkins LAL 05/10/1991 LAL @ GOS W 38 15 5 10 50.0 0 1 0.0 5 7 71.4 2 5 7 2 1 3 3 5 -
p132
aVByron Scott LAL 05/10/1991 LAL @ GOS W 39 23 9 16 56.3 1 2 50.0 4 4 100.0 0 5 5 2 7 0 1 4 -
p133
aVLarry Drew LAL 05/10/1991 LAL @ GOS W 3 0 0 1 0.0 0 1 0.0 0 0 - 0 0 0 1 0 0 0 0 -
p134
aVTerry Teagle LAL 05/10/1991 LAL @ GOS W 16 12 5 9 55.6 0 0 - 2 2 100.0 2 1 3 1 0 0 1 1 -
p135
aVVlade Divac LAL 05/10/1991 LAL @ GOS W 20 7 1 2 50.0 0 0 - 5 7 71.4 2 3 5 1 0 0 6 4 -
p136
aVA.C. Green LAL 05/10/1991 LAL @ GOS W 31 6 3 4 75.0 0 0 - 0 0 - 2 5 7 1 1 1 3 5 -
p137
aVMagic Johnson LAL 05/10/1991 LAL @ GOS W 45 15 2 8 25.0 1 2 50.0 10 10 100.0 0 7 7 15 1 0 6 2 -
p138
aVVlade Divac LAL 05/08/1991 LAL vs. GOS L 14 4 2 3 66.7 0 0 - 0 0 - 1 2 3 1 1 0 0 3 -
p139
aVSam Perkins LAL 05/08/1991 LAL vs. GOS L 35 24 9 12 75.0 1 2 50.0 5 7 71.4 2 2 4 0 0 1 1 4 -
p140
aVMagic Johnson LAL 05/08/1991 LAL vs. GOS L 44 44 12 23 52.2 0 3 0.0 20 22 90.9 1 11 12 9 0 0 5 5 -
p141
aVTerry Teagle LAL 05/08/1991 LAL vs. GOS L 19 7 3 7 42.9 0 0 - 1 1 100.0 0 4 4 2 2 0 1 3 -
p142
aVElden Campbell LAL 05/08/1991 LAL vs. GOS L 14 6 3 3 100.0 0 0 - 0 1 0.0 1 5 6 0 0 2 1 4 -
p143
aVLarry Drew LAL 05/08/1991 LAL vs. GOS L 4 0 0 0 - 0 0 - 0 0 - 0 1 1 1 0 0 1 0 -
p144
aVA.C. Green LAL 05/08/1991 LAL vs. GOS L 25 11 3 5 60.0 1 2 50.0 4 6 66.7 3 5 8 0 0 0 1 3 -
p145
aVJames Worthy LAL 05/08/1991 LAL vs. GOS L 41 23 8 18 44.4 0 2 0.0 7 12 58.3 4 4 8 5 0 0 5 2 -
p146
aVByron Scott LAL 05/08/1991 LAL vs. GOS L 44 5 2 8 25.0 0 1 0.0 1 2 50.0 1 2 3 0 0 0 0 4 -
p147
aVElden Campbell LAL 05/05/1991 LAL vs. GOS W 12 3 1 1 100.0 0 0 - 1 1 100.0 0 4 4 1 1 2 1 2 -
p148
aVVlade Divac LAL 05/05/1991 LAL vs. GOS W 25 13 6 9 66.7 0 0 - 1 2 50.0 4 5 9 0 0 2 2 3 -
p149
aVJames Worthy LAL 05/05/1991 LAL vs. GOS W 39 25 12 25 48.0 0 0 - 1 2 50.0 2 1 3 2 0 0 3 2 -
p150
aVMagic Johnson LAL 05/05/1991 LAL vs. GOS W 31 21 7 15 46.7 0 1 0.0 7 9 77.8 2 8 10 17 3 0 0 2 -
p151
aVSam Perkins LAL 05/05/1991 LAL vs. GOS W 36 18 5 9 55.6 0 0 - 8 9 88.9 3 4 7 4 2 0 2 4 -
p152
aVLarry Drew LAL 05/05/1991 LAL vs. GOS W 20 4 2 6 33.3 0 1 0.0 0 0 - 0 0 0 4 0 0 0 0 -
p153
aVA.C. Green LAL 05/05/1991 LAL vs. GOS W 15 2 1 2 50.0 0 0 - 0 0 - 1 4 5 1 0 1 1 2 -
p154
aVTerry Teagle LAL 05/05/1991 LAL vs. GOS W 25 13 5 10 50.0 0 0 - 3 4 75.0 2 2 4 0 1 1 1 3 -
p155
aVByron Scott LAL 05/05/1991 LAL vs. GOS W 37 27 10 15 66.7 5 5 100.0 2 3 66.7 1 1 2 4 0 0 0 0 -
p156
aVA.C. Green LAL 04/30/1991 LAL @ HOU W 16 4 2 4 50.0 0 0 - 0 0 - 4 1 5 0 1 0 1 1 -
p157
aVByron Scott LAL 04/30/1991 LAL @ HOU W 34 8 4 10 40.0 0 1 0.0 0 0 - 0 3 3 1 1 1 1 2 -
p158
aVVlade Divac LAL 04/30/1991 LAL @ HOU W 44 8 2 5 40.0 0 0 - 4 6 66.7 3 7 10 1 3 2 3 2 -
p159
aVLarry Drew LAL 04/30/1991 LAL @ HOU W 7 0 0 1 0.0 0 0 - 0 0 - 0 0 0 1 0 0 1 2 -
p160
aVTerry Teagle LAL 04/30/1991 LAL @ HOU W 14 0 0 4 0.0 0 0 - 0 0 - 0 2 2 1 0 0 2 2 -
p161
aVMagic Johnson LAL 04/30/1991 LAL @ HOU W 41 38 14 20 70.0 1 2 50.0 9 9 100.0 0 6 6 7 1 0 6 3 -
p162
aVSam Perkins LAL 04/30/1991 LAL @ HOU W 39 14 6 9 66.7 0 2 0.0 2 2 100.0 1 12 13 0 2 0 2 2 -
p163
aVJames Worthy LAL 04/30/1991 LAL @ HOU W 45 22 10 23 43.5 1 2 50.0 1 2 50.0 0 3 3 3 1 1 4 2 -
p164
aVVlade Divac LAL 04/27/1991 LAL vs. HOU W 39 23 8 13 61.5 1 2 50.0 6 8 75.0 3 7 10 1 1 3 4 3 -
p165
aVSam Perkins LAL 04/27/1991 LAL vs. HOU W 36 14 6 10 60.0 2 2 100.0 0 2 0.0 3 4 7 2 0 3 0 3 -
p166
aVByron Scott LAL 04/27/1991 LAL vs. HOU W 39 17 8 13 61.5 1 3 33.3 0 0 - 1 1 2 2 1 0 3 3 -
p167
aVMychal Thompson LAL 04/27/1991 LAL vs. HOU W 7 0 0 0 - 0 0 - 0 0 - 0 3 3 0 0 2 0 4 -
p168
aVElden Campbell LAL 04/27/1991 LAL vs. HOU W 1 0 0 0 - 0 0 - 0 0 - 0 0 0 1 0 0 0 0 -
p169
aVMagic Johnson LAL 04/27/1991 LAL vs. HOU W 45 13 5 13 38.5 0 3 0.0 3 4 75.0 1 6 7 21 1 0 3 1 -
p170
aVA.C. Green LAL 04/27/1991 LAL vs. HOU W 19 7 3 5 60.0 0 0 - 1 2 50.0 2 1 3 0 0 0 0 2 -
p171
aVJames Worthy LAL 04/27/1991 LAL vs. HOU W 42 29 10 24 41.7 1 3 33.3 8 8 100.0 2 3 5 6 1 0 2 0 -
p172
aVLarry Drew LAL 04/27/1991 LAL vs. HOU W 12 6 2 2 100.0 2 2 100.0 0 0 - 0 2 2 2 0 0 0 1 -
p173
aVMagic Johnson LAL 04/25/1991 LAL vs. HOU W 39 17 5 15 33.3 0 2 0.0 7 9 77.8 2 1 3 10 2 0 3 4 -
p174
aVVlade Divac LAL 04/25/1991 LAL vs. HOU W 43 17 5 13 38.5 0 2 0.0 7 8 87.5 5 6 11 2 1 5 0 3 -
p175
aVSam Perkins LAL 04/25/1991 LAL vs. HOU W 42 17 6 10 60.0 1 3 33.3 4 6 66.7 1 7 8 3 3 2 0 3 -
p176
aVByron Scott LAL 04/25/1991 LAL vs. HOU W 39 20 8 16 50.0 2 4 50.0 2 2 100.0 0 2 2 0 1 0 0 5 -
p177
aVA.C. Green LAL 04/25/1991 LAL vs. HOU W 21 0 0 1 0.0 0 0 - 0 0 - 0 3 3 0 0 0 3 3 -
p178
aVTerry Teagle LAL 04/25/1991 LAL vs. HOU W 4 1 0 1 0.0 0 0 - 1 2 50.0 0 0 0 0 0 0 0 1 -
p179
aVJames Worthy LAL 04/25/1991 LAL vs. HOU W 40 14 4 13 30.8 0 1 0.0 6 8 75.0 0 2 2 6 2 0 1 2 -
p180
aVLarry Drew LAL 04/25/1991 LAL vs. HOU W 12 8 3 5 60.0 0 1 0.0 2 2 100.0 0 0 0 2 0 0 1 1 -
p181
a.