(lp0
VPLAYER TEAM DATE MATCHUP W/L MIN PTS FGM FGA FG% 3PM 3PA 3P% FTM FTA FT% OREB DREB REB AST STL BLK TOV PF +/-
p1
aVTerry Porter POR 05/30/1991 POR @ LAL L 45 24 10 18 55.6 3 4 75.0 1 2 50.0 0 4 4 5 1 1 0 0 -
p2
aVDanny Ainge POR 05/30/1991 POR @ LAL L 7 0 0 1 0.0 0 1 0.0 0 0 - 0 0 0 0 0 1 2 0 -
p3
aVClifford Robinson POR 05/30/1991 POR @ LAL L 34 11 5 10 50.0 0 0 - 1 2 50.0 1 3 4 3 1 1 1 3 -
p4
aVKevin Duckworth POR 05/30/1991 POR @ LAL L 24 8 4 12 33.3 0 0 - 0 0 - 2 5 7 0 1 1 4 6 -
p5
aVClyde Drexler POR 05/30/1991 POR @ LAL L 44 23 9 17 52.9 0 1 0.0 5 7 71.4 1 7 8 6 3 1 5 5 -
p6
aVBuck Williams POR 05/30/1991 POR @ LAL L 48 14 5 7 71.4 0 0 - 4 8 50.0 3 3 6 0 1 1 1 4 -
p7
aVJerome Kersey POR 05/30/1991 POR @ LAL L 38 10 5 10 50.0 0 0 - 0 0 - 2 3 5 2 2 1 1 5 -
p8
aVClifford Robinson POR 05/28/1991 POR vs. LAL W 25 13 5 9 55.6 0 0 - 3 6 50.0 3 4 7 0 0 1 1 5 -
p9
aVTerry Porter POR 05/28/1991 POR vs. LAL W 39 17 6 17 35.3 1 4 25.0 4 6 66.7 3 2 5 5 2 0 2 1 -
p10
aVJerome Kersey POR 05/28/1991 POR vs. LAL W 42 20 8 16 50.0 0 0 - 4 5 80.0 5 4 9 4 3 1 1 4 -
p11
aVClyde Drexler POR 05/28/1991 POR vs. LAL W 43 19 7 18 38.9 1 4 25.0 4 4 100.0 4 1 5 7 3 0 1 4 -
p12
aVDanny Ainge POR 05/28/1991 POR vs. LAL W 16 4 2 5 40.0 0 2 0.0 0 0 - 0 2 2 2 1 0 1 1 -
p13
aVBuck Williams POR 05/28/1991 POR vs. LAL W 46 13 5 13 38.5 0 0 - 3 4 75.0 6 10 16 1 3 0 0 2 -
p14
aVKevin Duckworth POR 05/28/1991 POR vs. LAL W 29 9 3 11 27.3 0 0 - 3 6 50.0 5 3 8 1 0 0 4 3 -
p15
aVTerry Porter POR 05/26/1991 POR @ LAL L 33 10 4 10 40.0 0 2 0.0 2 2 100.0 0 2 2 10 1 0 2 1 -
p16
aVWayne Cooper POR 05/26/1991 POR @ LAL L 6 2 1 2 50.0 0 0 - 0 0 - 1 2 3 1 0 0 1 0 -
p17
aVJerome Kersey POR 05/26/1991 POR @ LAL L 32 25 10 17 58.8 0 0 - 5 5 100.0 1 3 4 1 1 1 0 4 -
p18
aVMark Bryant POR 05/26/1991 POR @ LAL L 12 7 3 5 60.0 0 0 - 1 2 50.0 2 2 4 0 0 1 0 1 -
p19
aVKevin Duckworth POR 05/26/1991 POR @ LAL L 25 7 2 4 50.0 0 0 - 3 4 75.0 3 1 4 2 0 0 3 4 -
p20
aVDanny Young POR 05/26/1991 POR @ LAL L 5 2 1 3 33.3 0 0 - 0 0 - 0 0 0 3 0 0 0 0 -
p21
aVDanny Ainge POR 05/26/1991 POR @ LAL L 13 0 0 2 0.0 0 0 - 0 0 - 0 2 2 1 0 1 2 1 -
p22
aVAlaa Abdelnaby POR 05/26/1991 POR @ LAL L 4 2 1 3 33.3 0 0 - 0 0 - 0 1 1 0 0 0 0 0 -
p23
aVWalter Davis POR 05/26/1991 POR @ LAL L 22 14 7 14 50.0 0 1 0.0 0 0 - 1 1 2 1 2 0 0 0 -
p24
aVClyde Drexler POR 05/26/1991 POR @ LAL L 38 14 6 16 37.5 0 1 0.0 2 2 100.0 3 5 8 7 2 1 5 3 -
p25
aVBuck Williams POR 05/26/1991 POR @ LAL L 27 10 4 7 57.1 0 0 - 2 3 66.7 3 5 8 0 0 0 3 3 -
p26
aVClifford Robinson POR 05/26/1991 POR @ LAL L 23 2 1 7 14.3 0 1 0.0 0 0 - 1 2 3 3 0 0 3 4 -
p27
aVClifford Robinson POR 05/24/1991 POR @ LAL L 19 13 5 9 55.6 1 1 100.0 2 2 100.0 3 1 4 1 0 0 0 6 -
p28
aVAlaa Abdelnaby POR 05/24/1991 POR @ LAL L 1 0 0 0 - 0 0 - 0 0 - 0 0 0 0 0 0 0 0 -
p29
aVBuck Williams POR 05/24/1991 POR @ LAL L 32 4 1 4 25.0 0 0 - 2 2 100.0 6 5 11 1 0 0 1 2 -
p30
aVMark Bryant POR 05/24/1991 POR @ LAL L 12 2 1 1 100.0 0 0 - 0 0 - 1 2 3 0 0 0 0 0 -
p31
aVDanny Ainge POR 05/24/1991 POR @ LAL L 19 13 4 11 36.4 1 2 50.0 4 4 100.0 0 1 1 2 0 0 3 1 -
p32
aVWalter Davis POR 05/24/1991 POR @ LAL L 4 2 0 1 0.0 0 0 - 2 2 100.0 1 0 1 0 0 0 0 0 -
p33
aVTerry Porter POR 05/24/1991 POR @ LAL L 39 16 7 14 50.0 0 3 0.0 2 3 66.7 0 2 2 7 4 0 1 2 -
p34
aVDanny Young POR 05/24/1991 POR @ LAL L 4 0 0 0 - 0 0 - 0 0 - 0 0 0 1 0 0 0 0 -
p35
aVJerome Kersey POR 05/24/1991 POR @ LAL L 37 19 7 18 38.9 0 0 - 5 6 83.3 7 2 9 2 3 0 1 4 -
p36
aVClyde Drexler POR 05/24/1991 POR @ LAL L 40 18 7 20 35.0 1 5 20.0 3 3 100.0 2 6 8 6 2 0 4 4 -
p37
aVWayne Cooper POR 05/24/1991 POR @ LAL L 4 0 0 0 - 0 0 - 0 0 - 0 1 1 0 0 0 0 0 -
p38
aVKevin Duckworth POR 05/24/1991 POR @ LAL L 29 5 2 14 14.3 0 0 - 1 2 50.0 3 5 8 0 1 0 5 5 -
p39
aVClyde Drexler POR 05/21/1991 POR vs. LAL W 43 21 8 14 57.1 0 3 0.0 5 6 83.3 1 9 10 5 2 1 5 4 -
p40
aVClifford Robinson POR 05/21/1991 POR vs. LAL W 27 11 5 12 41.7 0 0 - 1 2 50.0 3 4 7 1 2 0 0 3 -
p41
aVJerome Kersey POR 05/21/1991 POR vs. LAL W 40 18 5 15 33.3 0 0 - 8 10 80.0 6 3 9 4 0 0 1 3 -
p42
aVDanny Ainge POR 05/21/1991 POR vs. LAL W 20 8 3 7 42.9 0 2 0.0 2 2 100.0 0 5 5 2 0 0 0 1 -
p43
aVKevin Duckworth POR 05/21/1991 POR vs. LAL W 39 17 7 14 50.0 0 0 - 3 3 100.0 3 4 7 1 1 0 3 0 -
p44
aVMark Bryant POR 05/21/1991 POR vs. LAL W 2 0 0 2 0.0 0 0 - 0 0 - 2 0 2 0 0 0 0 2 -
p45
aVBuck Williams POR 05/21/1991 POR vs. LAL W 28 8 3 5 60.0 0 0 - 2 4 50.0 3 8 11 1 0 0 2 5 -
p46
aVTerry Porter POR 05/21/1991 POR vs. LAL W 41 26 12 15 80.0 2 2 100.0 0 0 - 0 0 0 8 2 0 3 2 -
p47
aVWalter Davis POR 05/18/1991 POR vs. LAL L 3 0 0 1 0.0 0 0 - 0 0 - 0 0 0 0 0 0 0 0 -
p48
aVDanny Ainge POR 05/18/1991 POR vs. LAL L 27 12 5 10 50.0 2 3 66.7 0 0 - 0 3 3 3 1 1 2 1 -
p49
aVClifford Robinson POR 05/18/1991 POR vs. LAL L 18 14 5 7 71.4 0 0 - 4 4 100.0 0 0 0 1 1 3 2 1 -
p50
aVClyde Drexler POR 05/18/1991 POR vs. LAL L 40 28 10 19 52.6 2 4 50.0 6 8 75.0 1 7 8 12 0 0 2 5 -
p51
aVBuck Williams POR 05/18/1991 POR vs. LAL L 41 6 2 5 40.0 0 0 - 2 4 50.0 3 7 10 0 0 0 0 3 -
p52
aVMark Bryant POR 05/18/1991 POR vs. LAL L 10 2 0 1 0.0 0 0 - 2 2 100.0 2 0 2 0 0 0 0 1 -
p53
aVTerry Porter POR 05/18/1991 POR vs. LAL L 26 9 3 8 37.5 1 5 20.0 2 2 100.0 0 1 1 6 0 0 2 4 -
p54
aVJerome Kersey POR 05/18/1991 POR vs. LAL L 41 21 10 17 58.8 0 0 - 1 1 100.0 3 5 8 2 1 1 0 4 -
p55
aVKevin Duckworth POR 05/18/1991 POR vs. LAL L 34 14 7 13 53.8 0 0 - 0 0 - 1 4 5 0 1 0 8 4 -
p56
aVWalter Davis POR 05/14/1991 POR vs. UTH W 4 0 0 2 0.0 0 0 - 0 0 - 0 1 1 0 0 0 0 0 -
p57
aVTerry Porter POR 05/14/1991 POR vs. UTH W 38 22 7 16 43.8 1 3 33.3 7 7 100.0 2 3 5 7 2 0 2 3 -
p58
aVDanny Ainge POR 05/14/1991 POR vs. UTH W 15 9 3 5 60.0 1 1 100.0 2 2 100.0 0 3 3 3 0 1 1 3 -
p59
aVMark Bryant POR 05/14/1991 POR vs. UTH W 11 0 0 1 0.0 0 0 - 0 0 - 2 1 3 0 1 0 0 2 -
p60
aVClyde Drexler POR 05/14/1991 POR vs. UTH W 40 22 8 17 47.1 1 3 33.3 5 7 71.4 3 6 9 8 1 0 7 5 -
p61
aVKevin Duckworth POR 05/14/1991 POR vs. UTH W 37 11 5 12 41.7 0 0 - 1 2 50.0 0 3 3 1 1 0 1 1 -
p62
aVClifford Robinson POR 05/14/1991 POR vs. UTH W 18 10 3 8 37.5 0 0 - 4 6 66.7 1 0 1 0 0 0 1 3 -
p63
aVBuck Williams POR 05/14/1991 POR vs. UTH W 41 14 6 7 85.7 0 0 - 2 3 66.7 5 7 12 2 0 0 2 5 -
p64
aVJerome Kersey POR 05/14/1991 POR vs. UTH W 36 15 4 11 36.4 0 0 - 7 12 58.3 4 2 6 1 2 1 2 4 -
p65
aVBuck Williams POR 05/12/1991 POR @ UTH W 42 9 3 11 27.3 0 0 - 3 4 75.0 3 4 7 0 1 1 1 4 -
p66
aVTerry Porter POR 05/12/1991 POR @ UTH W 43 20 6 10 60.0 0 1 0.0 8 8 100.0 1 2 3 6 3 0 2 4 -
p67
aVWalter Davis POR 05/12/1991 POR @ UTH W 5 0 0 0 - 0 0 - 0 0 - 0 0 0 1 0 0 0 0 -
p68
aVJerome Kersey POR 05/12/1991 POR @ UTH W 41 10 3 9 33.3 0 0 - 4 4 100.0 0 6 6 2 2 0 2 4 -
p69
aVDanny Ainge POR 05/12/1991 POR @ UTH W 10 4 2 4 50.0 0 1 0.0 0 0 - 0 0 0 0 0 0 0 2 -
p70
aVClyde Drexler POR 05/12/1991 POR @ UTH W 40 15 7 15 46.7 0 3 0.0 1 4 25.0 4 7 11 10 1 0 3 2 -
p71
aVClifford Robinson POR 05/12/1991 POR @ UTH W 13 12 5 6 83.3 0 0 - 2 4 50.0 0 0 0 0 0 0 3 4 -
p72
aVKevin Duckworth POR 05/12/1991 POR @ UTH W 41 30 12 22 54.5 0 0 - 6 7 85.7 4 7 11 0 0 1 1 4 -
p73
aVMark Bryant POR 05/12/1991 POR @ UTH W 5 4 1 1 100.0 0 0 - 2 2 100.0 0 1 1 0 0 0 0 3 -
p74
aVTerry Porter POR 05/11/1991 POR @ UTH L 36 28 10 16 62.5 2 5 40.0 6 6 100.0 0 4 4 4 0 0 2 2 -
p75
aVMark Bryant POR 05/11/1991 POR @ UTH L 8 0 0 0 - 0 0 - 0 0 - 0 3 3 0 0 0 1 1 -
p76
aVClifford Robinson POR 05/11/1991 POR @ UTH L 26 3 1 6 16.7 0 1 0.0 1 4 25.0 1 4 5 1 1 2 1 2 -
p77
aVKevin Duckworth POR 05/11/1991 POR @ UTH L 34 11 4 14 28.6 0 0 - 3 3 100.0 2 3 5 0 0 2 1 3 -
p78
aVDanny Ainge POR 05/11/1991 POR @ UTH L 21 17 6 13 46.2 2 6 33.3 3 4 75.0 0 1 1 0 1 0 1 5 -
p79
aVClyde Drexler POR 05/11/1991 POR @ UTH L 38 19 5 17 29.4 0 2 0.0 9 12 75.0 6 4 10 7 1 3 4 3 -
p80
aVJerome Kersey POR 05/11/1991 POR @ UTH L 33 15 4 15 26.7 0 0 - 7 8 87.5 5 5 10 5 3 0 2 6 -
p81
aVWalter Davis POR 05/11/1991 POR @ UTH L 11 2 1 3 33.3 0 0 - 0 0 - 0 2 2 0 0 0 0 0 -
p82
aVBuck Williams POR 05/11/1991 POR @ UTH L 33 6 3 6 50.0 0 0 - 0 0 - 2 4 6 1 1 0 2 1 -
p83
aVClyde Drexler POR 05/09/1991 POR vs. UTH W 39 23 8 18 44.4 3 5 60.0 4 6 66.7 1 4 5 15 3 4 2 3 -
p84
aVBuck Williams POR 05/09/1991 POR vs. UTH W 22 6 3 6 50.0 0 0 - 0 0 - 2 2 4 2 0 0 1 6 -
p85
aVJerome Kersey POR 05/09/1991 POR vs. UTH W 34 34 11 16 68.8 0 0 - 12 15 80.0 3 3 6 2 3 0 0 6 -
p86
aVDanny Ainge POR 05/09/1991 POR vs. UTH W 19 8 2 6 33.3 0 2 0.0 4 6 66.7 0 2 2 2 1 0 2 4 -
p87
aVClifford Robinson POR 05/09/1991 POR vs. UTH W 30 11 3 6 50.0 0 0 - 5 8 62.5 1 3 4 1 0 1 1 3 -
p88
aVWalter Davis POR 05/09/1991 POR vs. UTH W 12 4 2 2 100.0 0 0 - 0 0 - 0 0 0 0 0 0 1 1 -
p89
aVKevin Duckworth POR 05/09/1991 POR vs. UTH W 29 8 4 11 36.4 0 0 - 0 0 - 0 2 2 1 0 0 0 4 -
p90
aVMark Bryant POR 05/09/1991 POR vs. UTH W 19 2 0 0 - 0 0 - 2 2 100.0 0 3 3 1 1 0 0 4 -
p91
aVTerry Porter POR 05/09/1991 POR vs. UTH W 36 22 7 13 53.8 2 4 50.0 6 8 75.0 0 2 2 8 0 0 2 1 -
p92
aVAlaa Abdelnaby POR 05/07/1991 POR vs. UTH W 2 2 1 2 50.0 0 0 - 0 0 - 0 0 0 0 0 0 0 0 -
p93
aVTerry Porter POR 05/07/1991 POR vs. UTH W 39 19 6 17 35.3 0 2 0.0 7 8 87.5 1 2 3 9 4 0 3 2 -
p94
aVMark Bryant POR 05/07/1991 POR vs. UTH W 14 4 1 3 33.3 0 0 - 2 2 100.0 1 0 1 0 0 0 0 1 -
p95
aVKevin Duckworth POR 05/07/1991 POR vs. UTH W 34 11 5 10 50.0 0 0 - 1 1 100.0 1 6 7 1 0 2 1 3 -
p96
aVClifford Robinson POR 05/07/1991 POR vs. UTH W 15 7 3 5 60.0 0 0 - 1 1 100.0 1 4 5 1 0 0 0 1 -
p97
aVWalter Davis POR 05/07/1991 POR vs. UTH W 13 12 6 9 66.7 0 0 - 0 0 - 1 3 4 1 0 0 1 0 -
p98
aVClyde Drexler POR 05/07/1991 POR vs. UTH W 37 20 6 14 42.9 3 3 100.0 5 6 83.3 4 11 15 8 2 1 3 2 -
p99
aVDanny Young POR 05/07/1991 POR vs. UTH W 2 2 1 2 50.0 0 0 - 0 0 - 0 0 0 1 0 0 0 0 -
p100
aVBuck Williams POR 05/07/1991 POR vs. UTH W 34 14 7 11 63.6 0 0 - 0 2 0.0 2 3 5 1 0 0 0 4 -
p101
aVDanny Ainge POR 05/07/1991 POR vs. UTH W 16 9 3 3 100.0 1 1 100.0 2 2 100.0 0 2 2 5 2 0 2 3 -
p102
aVJerome Kersey POR 05/07/1991 POR vs. UTH W 34 17 5 12 41.7 0 0 - 7 12 58.3 5 8 13 2 0 0 2 3 -
p103
aVClifford Robinson POR 05/04/1991 POR vs. SEA W 22 20 8 9 88.9 0 0 - 4 7 57.1 4 0 4 2 0 0 1 2 -
p104
aVJerome Kersey POR 05/04/1991 POR vs. SEA W 28 6 3 9 33.3 0 0 - 0 0 - 2 4 6 5 3 0 0 4 -
p105
aVBuck Williams POR 05/04/1991 POR vs. SEA W 30 12 5 11 45.5 0 0 - 2 4 50.0 5 7 12 0 2 0 0 2 -
p106
aVDanny Young POR 05/04/1991 POR vs. SEA W 5 2 1 1 100.0 0 0 - 0 0 - 0 0 0 1 0 0 2 0 -
p107
aVMark Bryant POR 05/04/1991 POR vs. SEA W 12 6 2 3 66.7 0 0 - 2 2 100.0 3 2 5 0 0 0 1 4 -
p108
aVClyde Drexler POR 05/04/1991 POR vs. SEA W 34 22 8 16 50.0 0 3 0.0 6 6 100.0 5 3 8 5 2 1 6 5 -
p109
aVTerry Porter POR 05/04/1991 POR vs. SEA W 37 23 7 13 53.8 1 2 50.0 8 9 88.9 1 3 4 11 2 0 2 2 -
p110
aVWalter Davis POR 05/04/1991 POR vs. SEA W 7 0 0 4 0.0 0 0 - 0 0 - 0 1 1 2 0 0 2 1 -
p111
aVAlaa Abdelnaby POR 05/04/1991 POR vs. SEA W 4 0 0 1 0.0 0 0 - 0 0 - 0 1 1 0 0 0 0 0 -
p112
aVDanny Ainge POR 05/04/1991 POR vs. SEA W 26 15 7 14 50.0 1 5 20.0 0 0 - 0 2 2 3 1 0 1 2 -
p113
aVKevin Duckworth POR 05/04/1991 POR vs. SEA W 35 13 4 13 30.8 0 0 - 5 6 83.3 2 4 6 1 2 1 2 1 -
p114
aVMark Bryant POR 05/02/1991 POR @ SEA L 7 0 0 0 - 0 0 - 0 0 - 1 0 1 0 0 0 1 0 -
p115
aVKevin Duckworth POR 05/02/1991 POR @ SEA L 26 5 1 9 11.1 0 0 - 3 8 37.5 3 4 7 2 1 0 1 5 -
p116
aVWalter Davis POR 05/02/1991 POR @ SEA L 2 0 0 3 0.0 0 0 - 0 0 - 1 0 1 0 0 0 1 0 -
p117
aVTerry Porter POR 05/02/1991 POR @ SEA L 34 17 6 9 66.7 2 3 66.7 3 3 100.0 0 3 3 3 0 0 3 1 -
p118
aVBuck Williams POR 05/02/1991 POR @ SEA L 37 8 1 3 33.3 0 0 - 6 10 60.0 2 7 9 0 1 1 3 4 -
p119
aVClyde Drexler POR 05/02/1991 POR @ SEA L 37 19 8 15 53.3 1 4 25.0 2 4 50.0 1 3 4 3 4 1 5 2 -
p120
aVClifford Robinson POR 05/02/1991 POR @ SEA L 25 13 6 8 75.0 0 0 - 1 7 14.3 1 8 9 3 1 3 3 2 -
p121
aVDanny Young POR 05/02/1991 POR @ SEA L 12 6 3 3 100.0 0 0 - 0 0 - 0 0 0 1 0 0 0 0 -
p122
aVDanny Ainge POR 05/02/1991 POR @ SEA L 19 1 0 4 0.0 0 2 0.0 1 1 100.0 1 2 3 0 3 0 1 3 -
p123
aVJerome Kersey POR 05/02/1991 POR @ SEA L 41 20 8 19 42.1 0 0 - 4 6 66.7 4 4 8 5 1 1 2 4 -
p124
aVBuck Williams POR 04/30/1991 POR @ SEA L 39 16 8 16 50.0 0 0 - 0 0 - 5 6 11 0 0 0 3 3 -
p125
aVTerry Porter POR 04/30/1991 POR @ SEA L 38 14 6 12 50.0 1 3 33.3 1 1 100.0 0 1 1 6 1 0 1 3 -
p126
aVClyde Drexler POR 04/30/1991 POR @ SEA L 41 23 9 17 52.9 0 5 0.0 5 7 71.4 0 5 5 11 2 1 2 2 -
p127
aVMark Bryant POR 04/30/1991 POR @ SEA L 10 5 2 2 100.0 0 0 - 1 2 50.0 0 1 1 0 0 0 0 3 -
p128
aVWayne Cooper POR 04/30/1991 POR @ SEA L 3 0 0 0 - 0 0 - 0 0 - 0 1 1 0 0 0 0 2 -
p129
aVJerome Kersey POR 04/30/1991 POR @ SEA L 33 11 5 10 50.0 0 0 - 1 3 33.3 1 2 3 3 1 0 1 5 -
p130
aVWalter Davis POR 04/30/1991 POR @ SEA L 12 3 1 2 50.0 0 0 - 1 2 50.0 0 0 0 0 2 0 0 2 -
p131
aVClifford Robinson POR 04/30/1991 POR @ SEA L 24 10 3 6 50.0 0 0 - 4 8 50.0 2 3 5 0 0 3 3 0 -
p132
aVDanny Ainge POR 04/30/1991 POR @ SEA L 11 4 2 4 50.0 0 2 0.0 0 0 - 0 0 0 2 0 0 3 2 -
p133
aVKevin Duckworth POR 04/30/1991 POR @ SEA L 29 13 4 5 80.0 0 0 - 5 5 100.0 1 3 4 0 0 1 1 4 -
p134
aVDanny Young POR 04/28/1991 POR vs. SEA W 4 0 0 1 0.0 0 1 0.0 0 0 - 0 0 0 0 0 0 0 0 -
p135
aVDanny Ainge POR 04/28/1991 POR vs. SEA W 20 18 6 9 66.7 3 3 100.0 3 4 75.0 0 1 1 2 1 0 2 1 -
p136
aVMark Bryant POR 04/28/1991 POR vs. SEA W 11 2 0 1 0.0 0 0 - 2 2 100.0 0 1 1 0 0 0 1 2 -
p137
aVWalter Davis POR 04/28/1991 POR vs. SEA W 10 4 1 4 25.0 0 0 - 2 2 100.0 3 0 3 1 0 0 2 1 -
p138
aVClifford Robinson POR 04/28/1991 POR vs. SEA W 25 12 4 8 50.0 0 0 - 4 5 80.0 2 3 5 1 1 2 3 5 -
p139
aVJerome Kersey POR 04/28/1991 POR vs. SEA W 40 14 6 13 46.2 0 0 - 2 4 50.0 0 2 2 4 2 1 2 4 -
p140
aVClyde Drexler POR 04/28/1991 POR vs. SEA W 37 22 8 14 57.1 1 4 25.0 5 6 83.3 1 7 8 10 3 2 3 3 -
p141
aVBuck Williams POR 04/28/1991 POR vs. SEA W 29 15 5 10 50.0 0 0 - 5 5 100.0 1 8 9 2 0 0 3 4 -
p142
aVKevin Duckworth POR 04/28/1991 POR vs. SEA W 27 13 5 12 41.7 0 0 - 3 3 100.0 5 5 10 3 0 0 2 4 -
p143
aVAlaa Abdelnaby POR 04/28/1991 POR vs. SEA W 2 0 0 0 - 0 0 - 0 0 - 1 0 1 0 0 0 0 0 -
p144
aVTerry Porter POR 04/28/1991 POR vs. SEA W 35 15 4 9 44.4 1 4 25.0 6 7 85.7 0 1 1 6 0 0 2 0 -
p145
aVBuck Williams POR 04/26/1991 POR vs. SEA W 43 10 4 8 50.0 0 0 - 2 5 40.0 2 4 6 3 1 1 2 3 -
p146
aVJerome Kersey POR 04/26/1991 POR vs. SEA W 38 31 11 19 57.9 0 0 - 9 10 90.0 4 3 7 5 1 0 0 4 -
p147
aVClyde Drexler POR 04/26/1991 POR vs. SEA W 42 39 14 22 63.6 2 6 33.3 9 10 90.0 3 4 7 9 3 0 4 4 -
p148
aVMark Bryant POR 04/26/1991 POR vs. SEA W 4 0 0 2 0.0 0 0 - 0 0 - 0 2 2 1 0 0 0 1 -
p149
aVDanny Young POR 04/26/1991 POR vs. SEA W 4 0 0 1 0.0 0 0 - 0 0 - 0 0 0 0 0 0 0 0 -
p150
aVDanny Ainge POR 04/26/1991 POR vs. SEA W 18 6 2 7 28.6 0 3 0.0 2 3 66.7 0 1 1 4 1 0 1 3 -
p151
aVTerry Porter POR 04/26/1991 POR vs. SEA W 36 7 1 7 14.3 0 0 - 5 7 71.4 0 4 4 4 2 0 3 4 -
p152
aVWalter Davis POR 04/26/1991 POR vs. SEA W 6 2 1 3 33.3 0 0 - 0 0 - 0 0 0 0 0 0 0 0 -
p153
aVKevin Duckworth POR 04/26/1991 POR vs. SEA W 39 12 4 6 66.7 0 0 - 4 6 66.7 5 8 13 1 0 0 2 2 -
p154
aVClifford Robinson POR 04/26/1991 POR vs. SEA W 10 3 1 1 100.0 0 0 - 1 3 33.3 0 0 0 0 0 0 2 3 -
p155
a.