(lp0
VPLAYER TEAM DATE MATCHUP W/L MIN PTS FGM FGA FG% 3PM 3PA 3P% FTM FTA FT% OREB DREB REB AST STL BLK TOV PF +/-
p1
aVJim Petersen GOS 05/14/1991 GOS @ LAL L 28 9 3 6 50.0 0 0 - 3 4 75.0 1 4 5 0 0 0 0 6 -
p2
aVMario Elie GOS 05/14/1991 GOS @ LAL L 10 0 0 2 0.0 0 0 - 0 0 - 1 2 3 0 0 0 1 2 -
p3
aVTim Hardaway GOS 05/14/1991 GOS @ LAL L 51 27 11 22 50.0 1 5 20.0 4 6 66.7 0 1 1 20 5 2 1 3 -
p4
aVTom Tolbert GOS 05/14/1991 GOS @ LAL L 5 2 1 1 100.0 0 0 - 0 0 - 0 1 1 0 0 0 0 1 -
p5
aVChris Mullin GOS 05/14/1991 GOS @ LAL L 51 26 10 16 62.5 1 3 33.3 5 7 71.4 1 7 8 1 3 3 2 5 -
p6
aVTyrone Hill GOS 05/14/1991 GOS @ LAL L 3 4 1 1 100.0 0 0 - 2 2 100.0 2 1 3 0 0 0 0 2 -
p7
aVAlton Lister GOS 05/14/1991 GOS @ LAL L 18 4 2 5 40.0 0 0 - 0 2 0.0 0 8 8 0 0 2 1 4 -
p8
aVRod Higgins GOS 05/14/1991 GOS @ LAL L 39 17 4 9 44.4 1 5 20.0 8 10 80.0 2 5 7 2 0 2 1 5 -
p9
aVSarunas Marciulionis GOS 05/14/1991 GOS @ LAL L 11 4 0 5 0.0 0 0 - 4 4 100.0 2 0 2 0 1 0 1 2 -
p10
aVMitch Richmond GOS 05/14/1991 GOS @ LAL L 49 26 13 29 44.8 0 4 0.0 0 0 - 1 3 4 2 1 0 1 3 -
p11
aVVincent Askew GOS 05/12/1991 GOS vs. LAL L 5 3 1 2 50.0 0 0 - 1 2 50.0 0 1 1 1 0 0 0 0 -
p12
aVTyrone Hill GOS 05/12/1991 GOS vs. LAL L 7 2 1 2 50.0 0 0 - 0 0 - 2 0 2 1 0 1 0 0 -
p13
aVRod Higgins GOS 05/12/1991 GOS vs. LAL L 15 2 1 2 50.0 0 0 - 0 0 - 0 1 1 2 0 1 2 4 -
p14
aVMario Elie GOS 05/12/1991 GOS vs. LAL L 23 13 5 10 50.0 1 1 100.0 2 4 50.0 0 2 2 2 0 0 2 4 -
p15
aVSarunas Marciulionis GOS 05/12/1991 GOS vs. LAL L 18 20 7 10 70.0 0 0 - 6 6 100.0 1 0 1 1 1 0 0 6 -
p16
aVAlton Lister GOS 05/12/1991 GOS vs. LAL L 11 4 2 5 40.0 0 0 - 0 0 - 4 1 5 1 0 2 3 1 -
p17
aVJim Petersen GOS 05/12/1991 GOS vs. LAL L 16 2 1 1 100.0 0 0 - 0 0 - 0 2 2 0 0 0 0 4 -
p18
aVChris Mullin GOS 05/12/1991 GOS vs. LAL L 43 9 4 13 30.8 0 0 - 1 1 100.0 0 6 6 0 1 2 2 2 -
p19
aVTim Hardaway GOS 05/12/1991 GOS vs. LAL L 43 22 7 17 41.2 1 4 25.0 7 8 87.5 0 5 5 9 3 2 3 4 -
p20
aVMitch Richmond GOS 05/12/1991 GOS vs. LAL L 45 26 11 18 61.1 1 2 50.0 3 3 100.0 1 5 6 3 0 0 2 3 -
p21
aVPaul Mokeski GOS 05/12/1991 GOS vs. LAL L 3 2 1 1 100.0 0 0 - 0 0 - 0 2 2 0 1 0 0 2 -
p22
aVTom Tolbert GOS 05/12/1991 GOS vs. LAL L 11 2 1 4 25.0 0 0 - 0 0 - 0 4 4 1 0 0 0 4 -
p23
aVPaul Mokeski GOS 05/10/1991 GOS vs. LAL L 1 0 0 0 - 0 0 - 0 0 - 0 0 0 0 0 0 0 0 -
p24
aVTyrone Hill GOS 05/10/1991 GOS vs. LAL L 2 2 1 1 100.0 0 0 - 0 0 - 0 0 0 0 0 0 1 2 -
p25
aVAlton Lister GOS 05/10/1991 GOS vs. LAL L 14 3 1 3 33.3 0 0 - 1 1 100.0 0 4 4 0 0 1 1 3 -
p26
aVTom Tolbert GOS 05/10/1991 GOS vs. LAL L 15 5 2 3 66.7 0 0 - 1 3 33.3 0 2 2 0 0 0 0 2 -
p27
aVTim Hardaway GOS 05/10/1991 GOS vs. LAL L 42 24 10 23 43.5 1 6 16.7 3 3 100.0 2 1 3 12 2 0 2 3 -
p28
aVJim Petersen GOS 05/10/1991 GOS vs. LAL L 6 8 4 4 100.0 0 0 - 0 0 - 0 1 1 0 0 0 1 5 -
p29
aVMario Elie GOS 05/10/1991 GOS vs. LAL L 18 8 2 5 40.0 0 0 - 4 6 66.7 2 0 2 0 1 0 0 2 -
p30
aVSarunas Marciulionis GOS 05/10/1991 GOS vs. LAL L 26 13 5 11 45.5 0 0 - 3 3 100.0 2 2 4 3 1 0 2 3 -
p31
aVRod Higgins GOS 05/10/1991 GOS vs. LAL L 24 12 3 5 60.0 2 3 66.7 4 4 100.0 1 2 3 1 1 0 1 2 -
p32
aVMitch Richmond GOS 05/10/1991 GOS vs. LAL L 46 24 10 22 45.5 2 4 50.0 2 2 100.0 2 3 5 4 1 0 1 2 -
p33
aVChris Mullin GOS 05/10/1991 GOS vs. LAL L 46 13 4 14 28.6 1 2 50.0 4 5 80.0 3 8 11 3 2 1 5 2 -
p34
aVTom Tolbert GOS 05/08/1991 GOS @ LAL W 12 0 0 5 0.0 0 1 0.0 0 0 - 0 3 3 1 0 1 0 5 -
p35
aVMario Elie GOS 05/08/1991 GOS @ LAL W 29 9 2 5 40.0 0 0 - 5 6 83.3 1 1 2 1 1 0 0 4 -
p36
aVSarunas Marciulionis GOS 05/08/1991 GOS @ LAL W 15 5 2 7 28.6 0 0 - 1 2 50.0 0 1 1 3 1 1 2 2 -
p37
aVAlton Lister GOS 05/08/1991 GOS @ LAL W 9 4 2 3 66.7 0 0 - 0 0 - 1 2 3 0 0 1 1 2 -
p38
aVTyrone Hill GOS 05/08/1991 GOS @ LAL W 7 3 1 1 100.0 0 0 - 1 2 50.0 0 0 0 0 0 1 0 2 -
p39
aVTim Hardaway GOS 05/08/1991 GOS @ LAL W 44 28 10 20 50.0 3 4 75.0 5 8 62.5 1 2 3 14 8 0 3 2 -
p40
aVMitch Richmond GOS 05/08/1991 GOS @ LAL W 37 22 9 16 56.3 0 1 0.0 4 4 100.0 0 2 2 3 0 1 1 6 -
p41
aVJim Petersen GOS 05/08/1991 GOS @ LAL W 14 2 1 3 33.3 0 0 - 0 0 - 1 6 7 0 0 1 0 4 -
p42
aVRod Higgins GOS 05/08/1991 GOS @ LAL W 25 11 3 5 60.0 0 2 0.0 5 8 62.5 1 2 3 1 0 0 0 4 -
p43
aVChris Mullin GOS 05/08/1991 GOS @ LAL W 47 41 16 21 76.2 4 4 100.0 5 6 83.3 1 3 4 5 2 1 1 5 -
p44
aVVincent Askew GOS 05/08/1991 GOS @ LAL W 1 0 0 0 - 0 0 - 0 0 - 0 0 0 0 0 0 0 0 -
p45
aVTyrone Hill GOS 05/05/1991 GOS @ LAL L 6 2 1 1 100.0 0 0 - 0 0 - 1 1 2 0 1 1 0 2 -
p46
aVTim Hardaway GOS 05/05/1991 GOS @ LAL L 46 33 15 25 60.0 2 6 33.3 1 1 100.0 0 2 2 9 1 1 1 1 -
p47
aVAlton Lister GOS 05/05/1991 GOS @ LAL L 15 11 5 7 71.4 0 0 - 1 2 50.0 2 6 8 1 0 1 2 2 -
p48
aVMario Elie GOS 05/05/1991 GOS @ LAL L 25 21 9 10 90.0 0 0 - 3 3 100.0 4 1 5 2 0 0 2 4 -
p49
aVTom Tolbert GOS 05/05/1991 GOS @ LAL L 13 7 2 3 66.7 1 1 100.0 2 4 50.0 0 3 3 0 0 0 0 5 -
p50
aVJim Petersen GOS 05/05/1991 GOS @ LAL L 8 0 0 0 - 0 0 - 0 0 - 1 3 4 1 0 0 0 2 -
p51
aVPaul Mokeski GOS 05/05/1991 GOS @ LAL L 4 0 0 0 - 0 0 - 0 0 - 0 0 0 1 0 0 1 2 -
p52
aVMitch Richmond GOS 05/05/1991 GOS @ LAL L 40 14 7 20 35.0 0 3 0.0 0 0 - 1 5 6 4 0 0 1 2 -
p53
aVVincent Askew GOS 05/05/1991 GOS @ LAL L 20 8 3 8 37.5 0 0 - 2 4 50.0 2 2 4 1 1 0 0 2 -
p54
aVSarunas Marciulionis GOS 05/05/1991 GOS @ LAL L 33 8 4 10 40.0 0 0 - 0 0 - 0 2 2 9 1 0 4 1 -
p55
aVRod Higgins GOS 05/05/1991 GOS @ LAL L 30 12 3 7 42.9 2 4 50.0 4 4 100.0 0 3 3 4 0 2 1 3 -
p56
aVSarunas Marciulionis GOS 05/03/1991 GOS vs. SAN W 25 14 6 9 66.7 0 0 - 2 2 100.0 1 2 3 3 1 0 3 1 -
p57
aVMitch Richmond GOS 05/03/1991 GOS vs. SAN W 44 17 5 11 45.5 0 2 0.0 7 8 87.5 1 10 11 2 1 1 5 2 -
p58
aVJim Petersen GOS 05/03/1991 GOS vs. SAN W 7 2 1 1 100.0 0 0 - 0 0 - 1 0 1 0 2 1 0 5 -
p59
aVTom Tolbert GOS 05/03/1991 GOS vs. SAN W 20 4 2 4 50.0 0 1 0.0 0 2 0.0 0 0 0 3 2 1 2 4 -
p60
aVMario Elie GOS 05/03/1991 GOS vs. SAN W 11 4 0 3 0.0 0 0 - 4 4 100.0 1 1 2 0 1 0 0 3 -
p61
aVRod Higgins GOS 05/03/1991 GOS vs. SAN W 28 14 6 14 42.9 2 4 50.0 0 0 - 4 2 6 2 0 0 0 2 -
p62
aVTim Hardaway GOS 05/03/1991 GOS vs. SAN W 42 32 14 27 51.9 3 10 30.0 1 1 100.0 0 3 3 9 2 0 4 1 -
p63
aVTyrone Hill GOS 05/03/1991 GOS vs. SAN W 19 0 0 1 0.0 0 0 - 0 0 - 0 4 4 0 1 1 0 6 -
p64
aVChris Mullin GOS 05/03/1991 GOS vs. SAN W 44 23 9 15 60.0 0 0 - 5 6 83.3 1 6 7 4 1 1 2 2 -
p65
aVRod Higgins GOS 05/01/1991 GOS vs. SAN W 13 2 1 2 50.0 0 1 0.0 0 0 - 1 1 2 1 1 0 1 2 -
p66
aVMitch Richmond GOS 05/01/1991 GOS vs. SAN W 36 27 12 17 70.6 2 2 100.0 1 1 100.0 0 2 2 3 0 1 2 3 -
p67
aVMario Elie GOS 05/01/1991 GOS vs. SAN W 31 8 3 8 37.5 0 0 - 2 2 100.0 2 1 3 5 2 0 1 4 -
p68
aVChris Mullin GOS 05/01/1991 GOS vs. SAN W 44 22 9 14 64.3 0 1 0.0 4 5 80.0 1 6 7 2 2 1 6 1 -
p69
aVTim Hardaway GOS 05/01/1991 GOS vs. SAN W 40 22 8 15 53.3 3 4 75.0 3 4 75.0 1 7 8 11 1 0 5 2 -
p70
aVTom Tolbert GOS 05/01/1991 GOS vs. SAN W 18 6 3 5 60.0 0 0 - 0 0 - 0 4 4 2 1 0 1 2 -
p71
aVTyrone Hill GOS 05/01/1991 GOS vs. SAN W 13 0 0 2 0.0 0 1 0.0 0 0 - 0 3 3 0 0 0 1 3 -
p72
aVSarunas Marciulionis GOS 05/01/1991 GOS vs. SAN W 29 21 8 14 57.1 0 0 - 5 7 71.4 1 3 4 1 1 0 2 5 -
p73
aVJim Petersen GOS 05/01/1991 GOS vs. SAN W 15 1 0 0 - 0 0 - 1 2 50.0 0 3 3 2 0 1 1 3 -
p74
aVVincent Askew GOS 05/01/1991 GOS vs. SAN W 1 0 0 0 - 0 0 - 0 0 - 0 0 0 0 0 0 0 0 -
p75
aVMitch Richmond GOS 04/27/1991 GOS @ SAN W 35 16 7 20 35.0 0 2 0.0 2 2 100.0 3 3 6 0 1 2 2 4 -
p76
aVTom Tolbert GOS 04/27/1991 GOS @ SAN W 9 6 3 4 75.0 0 0 - 0 0 - 0 0 0 0 0 2 1 1 -
p77
aVJim Petersen GOS 04/27/1991 GOS @ SAN W 13 5 2 2 100.0 0 0 - 1 2 50.0 0 1 1 0 0 0 0 4 -
p78
aVSarunas Marciulionis GOS 04/27/1991 GOS @ SAN W 19 16 6 9 66.7 0 0 - 4 4 100.0 0 3 3 0 1 0 0 0 -
p79
aVChris Mullin GOS 04/27/1991 GOS @ SAN W 48 27 6 16 37.5 1 1 100.0 14 15 93.3 1 6 7 6 2 1 2 3 -
p80
aVRod Higgins GOS 04/27/1991 GOS @ SAN W 17 6 2 5 40.0 0 0 - 2 2 100.0 0 2 2 1 0 0 1 1 -
p81
aVMario Elie GOS 04/27/1991 GOS @ SAN W 31 6 2 4 50.0 0 0 - 2 2 100.0 2 4 6 2 0 0 2 5 -
p82
aVVincent Askew GOS 04/27/1991 GOS @ SAN W 2 0 0 2 0.0 0 0 - 0 0 - 1 1 2 0 0 0 0 1 -
p83
aVTim Hardaway GOS 04/27/1991 GOS @ SAN W 48 20 7 16 43.8 2 4 50.0 4 4 100.0 1 5 6 9 4 2 2 2 -
p84
aVTyrone Hill GOS 04/27/1991 GOS @ SAN W 18 9 4 4 100.0 0 0 - 1 2 50.0 2 4 6 1 1 0 0 6 -
p85
aVSarunas Marciulionis GOS 04/25/1991 GOS @ SAN L 30 18 4 9 44.4 0 1 0.0 10 11 90.9 1 2 3 7 3 0 0 1 -
p86
aVJim Petersen GOS 04/25/1991 GOS @ SAN L 10 0 0 0 - 0 0 - 0 0 - 0 3 3 0 0 1 0 2 -
p87
aVRod Higgins GOS 04/25/1991 GOS @ SAN L 23 7 3 12 25.0 1 7 14.3 0 0 - 0 2 2 4 0 3 0 5 -
p88
aVMario Elie GOS 04/25/1991 GOS @ SAN L 19 15 5 9 55.6 0 0 - 5 5 100.0 4 3 7 1 0 1 2 4 -
p89
aVMitch Richmond GOS 04/25/1991 GOS @ SAN L 40 29 11 16 68.8 3 4 75.0 4 4 100.0 1 4 5 1 1 1 2 3 -
p90
aVChris Mullin GOS 04/25/1991 GOS @ SAN L 43 29 11 22 50.0 2 2 100.0 5 5 100.0 1 7 8 2 2 2 5 3 -
p91
aVVincent Askew GOS 04/25/1991 GOS @ SAN L 12 4 2 3 66.7 0 0 - 0 0 - 2 2 4 0 1 0 0 3 -
p92
aVTom Tolbert GOS 04/25/1991 GOS @ SAN L 13 0 0 4 0.0 0 0 - 0 2 0.0 0 1 1 1 0 0 0 5 -
p93
aVTyrone Hill GOS 04/25/1991 GOS @ SAN L 5 0 0 1 0.0 0 0 - 0 0 - 0 3 3 0 0 0 0 2 -
p94
aVAlton Lister GOS 04/25/1991 GOS @ SAN L 5 0 0 2 0.0 0 0 - 0 0 - 0 0 0 0 0 0 0 3 -
p95
aVTim Hardaway GOS 04/25/1991 GOS @ SAN L 40 19 8 20 40.0 1 5 20.0 2 3 66.7 0 2 2 8 2 0 4 4 -
p96
a.