(lp0
VPLAYER TEAM DATE MATCHUP W/L MIN PTS FGM FGA FG% 3PM 3PA 3P% FTM FTA FT% OREB DREB REB AST STL BLK TOV PF +/-
p1
aVBenoit Benjamin SEA 05/04/1991 SEA @ POR L 26 9 2 4 50.0 0 0 - 5 7 71.4 0 6 6 0 0 1 2 2 -
p2
aVEddie Johnson SEA 05/04/1991 SEA @ POR L 28 17 7 12 58.3 0 2 0.0 3 3 100.0 2 1 3 1 2 0 1 2 -
p3
aVDana Barros SEA 05/04/1991 SEA @ POR L 11 12 4 7 57.1 1 3 33.3 3 4 75.0 0 2 2 4 3 0 1 0 -
p4
aVSedale Threatt SEA 05/04/1991 SEA @ POR L 22 8 2 4 50.0 0 1 0.0 4 4 100.0 0 1 1 2 1 0 3 2 -
p5
aVShawn Kemp SEA 05/04/1991 SEA @ POR L 29 17 6 9 66.7 0 0 - 5 6 83.3 2 2 4 0 1 0 2 5 -
p6
aVDave Corzine SEA 05/04/1991 SEA @ POR L 8 5 2 3 66.7 0 0 - 1 1 100.0 0 1 1 0 0 0 0 1 -
p7
aVDerrick McKey SEA 05/04/1991 SEA @ POR L 24 4 2 4 50.0 0 1 0.0 0 0 - 0 3 3 3 0 0 3 2 -
p8
aVRicky Pierce SEA 05/04/1991 SEA @ POR L 24 14 6 14 42.9 2 3 66.7 0 0 - 1 3 4 1 1 1 2 2 -
p9
aVMichael Cage SEA 05/04/1991 SEA @ POR L 18 13 4 5 80.0 0 0 - 5 6 83.3 1 2 3 0 0 1 0 1 -
p10
aVGary Payton SEA 05/04/1991 SEA @ POR L 28 4 2 5 40.0 0 0 - 0 0 - 0 3 3 7 4 0 4 3 -
p11
aVScott Meents SEA 05/04/1991 SEA @ POR L 4 0 0 0 - 0 0 - 0 0 - 0 0 0 0 0 0 0 0 -
p12
aVNate McMillan SEA 05/04/1991 SEA @ POR L 18 4 2 8 25.0 0 0 - 0 0 - 0 1 1 5 0 0 1 3 -
p13
aVGary Payton SEA 05/02/1991 SEA vs. POR W 27 6 3 8 37.5 0 0 - 0 0 - 0 1 1 7 2 0 1 2 -
p14
aVNate McMillan SEA 05/02/1991 SEA vs. POR W 21 2 1 4 25.0 0 0 - 0 0 - 3 4 7 3 3 0 0 1 -
p15
aVMichael Cage SEA 05/02/1991 SEA vs. POR W 10 1 0 1 0.0 0 0 - 1 2 50.0 1 3 4 0 2 0 1 2 -
p16
aVShawn Kemp SEA 05/02/1991 SEA vs. POR W 26 12 5 11 45.5 0 0 - 2 2 100.0 2 4 6 1 0 1 3 3 -
p17
aVDerrick McKey SEA 05/02/1991 SEA vs. POR W 36 15 5 9 55.6 0 0 - 5 9 55.6 4 5 9 2 1 0 2 4 -
p18
aVBenoit Benjamin SEA 05/02/1991 SEA vs. POR W 38 14 5 10 50.0 0 0 - 4 4 100.0 1 8 9 1 2 6 2 6 -
p19
aVSedale Threatt SEA 05/02/1991 SEA vs. POR W 31 15 7 14 50.0 1 3 33.3 0 0 - 0 2 2 3 2 0 2 1 -
p20
aVRicky Pierce SEA 05/02/1991 SEA vs. POR W 17 2 1 7 14.3 0 1 0.0 0 0 - 1 0 1 1 0 0 2 3 -
p21
aVEddie Johnson SEA 05/02/1991 SEA vs. POR W 34 34 13 27 48.1 1 2 50.0 7 7 100.0 5 2 7 2 1 0 0 2 -
p22
aVDerrick McKey SEA 04/30/1991 SEA vs. POR W 33 13 6 9 66.7 0 0 - 1 2 50.0 1 6 7 1 2 0 1 4 -
p23
aVRicky Pierce SEA 04/30/1991 SEA vs. POR W 17 11 3 9 33.3 1 3 33.3 4 4 100.0 1 3 4 0 0 0 1 0 -
p24
aVMichael Cage SEA 04/30/1991 SEA vs. POR W 10 0 0 1 0.0 0 0 - 0 0 - 1 0 1 0 0 1 1 3 -
p25
aVNate McMillan SEA 04/30/1991 SEA vs. POR W 20 5 2 7 28.6 0 1 0.0 1 2 50.0 2 5 7 6 2 1 0 4 -
p26
aVShawn Kemp SEA 04/30/1991 SEA vs. POR W 31 8 2 9 22.2 0 0 - 4 6 66.7 3 6 9 1 0 0 3 6 -
p27
aVEddie Johnson SEA 04/30/1991 SEA vs. POR W 31 8 3 11 27.3 0 2 0.0 2 4 50.0 2 3 5 2 2 0 2 0 -
p28
aVSedale Threatt SEA 04/30/1991 SEA vs. POR W 32 29 12 20 60.0 3 5 60.0 2 2 100.0 0 1 1 3 2 0 1 2 -
p29
aVBenoit Benjamin SEA 04/30/1991 SEA vs. POR W 38 26 6 13 46.2 0 0 - 14 14 100.0 2 3 5 0 0 2 0 2 -
p30
aVGary Payton SEA 04/30/1991 SEA vs. POR W 28 2 1 4 25.0 0 1 0.0 0 0 - 4 0 4 5 1 0 2 5 -
p31
aVRicky Pierce SEA 04/28/1991 SEA @ POR L 28 13 3 12 25.0 0 1 0.0 7 8 87.5 0 0 0 1 2 0 1 1 -
p32
aVEddie Johnson SEA 04/28/1991 SEA @ POR L 38 28 12 19 63.2 2 4 50.0 2 5 40.0 1 0 1 1 2 1 1 4 -
p33
aVDave Corzine SEA 04/28/1991 SEA @ POR L 4 0 0 0 - 0 0 - 0 0 - 0 0 0 0 0 0 0 0 -
p34
aVDana Barros SEA 04/28/1991 SEA @ POR L 11 11 5 5 100.0 1 1 100.0 0 0 - 1 0 1 1 0 0 2 1 -
p35
aVBenoit Benjamin SEA 04/28/1991 SEA @ POR L 29 8 4 8 50.0 0 0 - 0 0 - 0 4 4 0 1 3 6 3 -
p36
aVGary Payton SEA 04/28/1991 SEA @ POR L 21 6 3 7 42.9 0 0 - 0 0 - 1 1 2 6 0 0 1 4 -
p37
aVScott Meents SEA 04/28/1991 SEA @ POR L 4 4 2 4 50.0 0 0 - 0 1 0.0 0 1 1 0 1 0 0 1 -
p38
aVMichael Cage SEA 04/28/1991 SEA @ POR L 27 9 2 6 33.3 0 0 - 5 7 71.4 5 6 11 2 0 0 1 3 -
p39
aVSedale Threatt SEA 04/28/1991 SEA @ POR L 21 6 3 8 37.5 0 0 - 0 0 - 1 1 2 3 0 0 1 5 -
p40
aVShawn Kemp SEA 04/28/1991 SEA @ POR L 31 19 5 15 33.3 0 0 - 9 10 90.0 4 7 11 2 2 2 5 3 -
p41
aVNate McMillan SEA 04/28/1991 SEA @ POR L 26 2 1 3 33.3 0 0 - 0 0 - 1 2 3 6 1 0 1 5 -
p42
aVRicky Pierce SEA 04/26/1991 SEA @ POR L 26 17 6 15 40.0 0 2 0.0 5 5 100.0 3 2 5 1 1 0 5 6 -
p43
aVGary Payton SEA 04/26/1991 SEA @ POR L 31 6 2 3 66.7 0 0 - 2 2 100.0 0 3 3 8 1 1 1 2 -
p44
aVDerrick McKey SEA 04/26/1991 SEA @ POR L 21 6 3 6 50.0 0 0 - 0 0 - 2 2 4 2 0 0 0 3 -
p45
aVBenoit Benjamin SEA 04/26/1991 SEA @ POR L 32 12 3 6 50.0 0 0 - 6 7 85.7 4 5 9 0 0 1 1 4 -
p46
aVSedale Threatt SEA 04/26/1991 SEA @ POR L 30 15 6 10 60.0 0 2 0.0 3 4 75.0 0 2 2 5 0 0 1 4 -
p47
aVMichael Cage SEA 04/26/1991 SEA @ POR L 15 2 0 1 0.0 0 0 - 2 2 100.0 1 1 2 0 1 0 0 3 -
p48
aVEddie Johnson SEA 04/26/1991 SEA @ POR L 40 33 11 20 55.0 1 5 20.0 10 10 100.0 2 3 5 1 0 0 4 5 -
p49
aVDana Barros SEA 04/26/1991 SEA @ POR L 3 0 0 1 0.0 0 1 0.0 0 0 - 0 1 1 0 0 0 0 0 -
p50
aVNate McMillan SEA 04/26/1991 SEA @ POR L 10 1 0 1 0.0 0 1 0.0 1 2 50.0 0 0 0 2 0 0 1 2 -
p51
aVShawn Kemp SEA 04/26/1991 SEA @ POR L 32 10 4 13 30.8 0 1 0.0 2 3 66.7 2 4 6 2 0 1 3 3 -
p52
a.