(lp0
VPLAYER TEAM DATE MATCHUP W/L MIN PTS FGM FGA FG% 3PM 3PA 3P% FTM FTA FT% OREB DREB REB AST STL BLK TOV PF +/-
p1
aVJames Edwards DET 05/27/1991 DET vs. CHI L 30 14 5 11 45.5 0 0 - 4 4 100.0 0 1 1 0 0 0 2 3 -
p2
aVWilliam Bedford DET 05/27/1991 DET vs. CHI L 13 4 0 5 0.0 0 2 0.0 4 4 100.0 3 3 6 2 0 0 3 4 -
p3
aVGerald Henderson DET 05/27/1991 DET vs. CHI L 5 2 1 3 33.3 0 0 - 0 0 - 0 0 0 2 0 0 0 0 -
p4
aVJoe Dumars DET 05/27/1991 DET vs. CHI L 31 6 3 10 30.0 0 1 0.0 0 0 - 4 0 4 2 1 0 2 5 -
p5
aVBill Laimbeer DET 05/27/1991 DET vs. CHI L 25 11 5 8 62.5 0 1 0.0 1 1 100.0 2 4 6 0 1 0 1 3 -
p6
aVIsiah Thomas DET 05/27/1991 DET vs. CHI L 39 16 6 14 42.9 0 0 - 4 6 66.7 1 6 7 5 2 0 4 2 -
p7
aVMark Aguirre DET 05/27/1991 DET vs. CHI L 28 9 3 8 37.5 1 1 100.0 2 2 100.0 0 2 2 2 0 0 2 4 -
p8
aVScott Hastings DET 05/27/1991 DET vs. CHI L 5 5 2 3 66.7 1 2 50.0 0 0 - 2 1 3 0 0 0 0 1 -
p9
aVTree Rollins DET 05/27/1991 DET vs. CHI L 5 0 0 0 - 0 0 - 0 0 - 0 0 0 0 0 0 0 0 -
p10
aVVinnie Johnson DET 05/27/1991 DET vs. CHI L 23 9 4 9 44.4 0 0 - 1 2 50.0 3 4 7 2 1 0 0 0 -
p11
aVDennis Rodman DET 05/27/1991 DET vs. CHI L 15 6 3 5 60.0 0 2 0.0 0 0 - 1 2 3 0 0 1 0 3 -
p12
aVJohn Salley DET 05/27/1991 DET vs. CHI L 21 12 3 6 50.0 0 0 - 6 8 75.0 1 3 4 1 1 0 0 5 -
p13
aVJames Edwards DET 05/25/1991 DET vs. CHI L 9 2 1 2 50.0 0 0 - 0 0 - 0 0 0 0 0 0 3 3 -
p14
aVBill Laimbeer DET 05/25/1991 DET vs. CHI L 19 10 5 7 71.4 0 0 - 0 0 - 4 3 7 0 0 0 1 2 -
p15
aVGerald Henderson DET 05/25/1991 DET vs. CHI L 1 0 0 1 0.0 0 1 0.0 0 0 - 0 0 0 1 0 0 0 0 -
p16
aVJohn Salley DET 05/25/1991 DET vs. CHI L 22 13 4 6 66.7 0 0 - 5 7 71.4 1 3 4 0 1 0 0 6 -
p17
aVJoe Dumars DET 05/25/1991 DET vs. CHI L 47 11 3 10 30.0 0 2 0.0 5 7 71.4 2 1 3 1 1 1 0 5 -
p18
aVVinnie Johnson DET 05/25/1991 DET vs. CHI L 36 25 11 17 64.7 0 0 - 3 5 60.0 4 3 7 5 1 0 3 4 -
p19
aVTree Rollins DET 05/25/1991 DET vs. CHI L 1 0 0 0 - 0 0 - 0 0 - 0 0 0 0 0 0 0 0 -
p20
aVIsiah Thomas DET 05/25/1991 DET vs. CHI L 47 29 9 22 40.9 0 1 0.0 11 15 73.3 5 2 7 6 1 0 4 3 -
p21
aVMark Aguirre DET 05/25/1991 DET vs. CHI L 37 17 7 17 41.2 1 3 33.3 2 2 100.0 0 4 4 0 3 0 2 5 -
p22
aVDennis Rodman DET 05/25/1991 DET vs. CHI L 21 0 0 3 0.0 0 0 - 0 0 - 5 2 7 0 1 1 2 5 -
p23
aVJohn Salley DET 05/21/1991 DET @ CHI L 9 2 1 2 50.0 0 0 - 0 0 - 1 0 1 0 0 1 0 2 -
p24
aVTree Rollins DET 05/21/1991 DET @ CHI L 21 4 2 2 100.0 0 0 - 0 0 - 1 1 2 0 1 1 2 5 -
p25
aVMark Aguirre DET 05/21/1991 DET @ CHI L 27 16 5 12 41.7 0 1 0.0 6 9 66.7 0 3 3 0 1 0 2 4 -
p26
aVIsiah Thomas DET 05/21/1991 DET @ CHI L 27 10 4 9 44.4 0 0 - 2 2 100.0 0 2 2 5 0 0 2 3 -
p27
aVBill Laimbeer DET 05/21/1991 DET @ CHI L 25 2 1 2 50.0 0 0 - 0 0 - 2 4 6 2 1 2 3 5 -
p28
aVJoe Dumars DET 05/21/1991 DET @ CHI L 44 24 8 19 42.1 2 5 40.0 6 7 85.7 0 0 0 5 3 0 2 6 -
p29
aVJames Edwards DET 05/21/1991 DET @ CHI L 11 1 0 2 0.0 0 0 - 1 2 50.0 1 0 1 0 0 0 1 2 -
p30
aVGerald Henderson DET 05/21/1991 DET @ CHI L 1 2 1 1 100.0 0 0 - 0 0 - 0 0 0 0 0 0 0 1 -
p31
aVDennis Rodman DET 05/21/1991 DET @ CHI L 45 7 3 6 50.0 1 3 33.3 0 0 - 1 10 11 1 4 2 2 4 -
p32
aVVinnie Johnson DET 05/21/1991 DET @ CHI L 30 29 12 18 66.7 0 1 0.0 5 5 100.0 1 4 5 4 2 0 2 3 -
p33
aVJoe Dumars DET 05/19/1991 DET @ CHI L 36 9 3 10 30.0 1 3 33.3 2 2 100.0 1 0 1 2 1 0 1 1 -
p34
aVMark Aguirre DET 05/19/1991 DET @ CHI L 34 25 9 16 56.3 3 4 75.0 4 4 100.0 0 2 2 3 2 0 2 1 -
p35
aVJames Edwards DET 05/19/1991 DET @ CHI L 25 8 4 10 40.0 0 0 - 0 0 - 0 3 3 2 1 1 1 4 -
p36
aVWilliam Bedford DET 05/19/1991 DET @ CHI L 3 0 0 0 - 0 0 - 0 0 - 0 1 1 0 0 0 0 1 -
p37
aVIsiah Thomas DET 05/19/1991 DET @ CHI L 38 11 3 9 33.3 1 3 33.3 4 6 66.7 1 2 3 8 1 0 3 3 -
p38
aVJohn Salley DET 05/19/1991 DET @ CHI L 16 0 0 1 0.0 0 0 - 0 0 - 1 0 1 1 0 0 3 4 -
p39
aVDennis Rodman DET 05/19/1991 DET @ CHI L 37 5 2 4 50.0 1 2 50.0 0 0 - 3 6 9 1 0 1 1 4 -
p40
aVScott Hastings DET 05/19/1991 DET @ CHI L 5 0 0 0 - 0 0 - 0 0 - 0 0 0 0 0 0 1 1 -
p41
aVVinnie Johnson DET 05/19/1991 DET @ CHI L 27 21 10 19 52.6 0 0 - 1 1 100.0 2 1 3 1 1 1 1 4 -
p42
aVBill Laimbeer DET 05/19/1991 DET @ CHI L 19 4 1 7 14.3 0 1 0.0 2 2 100.0 2 1 3 1 0 0 2 5 -
p43
aVVinnie Johnson DET 05/17/1991 DET vs. BOS W 31 10 5 15 33.3 0 0 - 0 0 - 2 3 5 4 0 0 1 1 -
p44
aVJames Edwards DET 05/17/1991 DET vs. BOS W 24 17 4 11 36.4 0 0 - 9 10 90.0 1 4 5 2 0 0 2 4 -
p45
aVMark Aguirre DET 05/17/1991 DET vs. BOS W 26 10 5 10 50.0 0 3 0.0 0 0 - 0 1 1 3 0 0 1 2 -
p46
aVDennis Rodman DET 05/17/1991 DET vs. BOS W 39 4 2 5 40.0 0 0 - 0 0 - 6 7 13 2 1 1 2 4 -
p47
aVIsiah Thomas DET 05/17/1991 DET vs. BOS W 31 17 7 14 50.0 2 5 40.0 1 2 50.0 1 2 3 6 1 0 1 3 -
p48
aVJoe Dumars DET 05/17/1991 DET vs. BOS W 45 32 14 25 56.0 3 5 60.0 1 3 33.3 1 2 3 10 0 0 1 2 -
p49
aVJohn Salley DET 05/17/1991 DET vs. BOS W 29 12 5 7 71.4 0 0 - 2 4 50.0 3 5 8 0 0 1 1 5 -
p50
aVBill Laimbeer DET 05/17/1991 DET vs. BOS W 39 15 7 11 63.6 0 0 - 1 3 33.3 5 9 14 2 0 0 1 5 -
p51
aVScott Hastings DET 05/17/1991 DET vs. BOS W 1 0 0 0 - 0 0 - 0 0 - 0 1 1 2 0 0 0 2 -
p52
aVJoe Dumars DET 05/15/1991 DET @ BOS W 44 32 9 17 52.9 1 1 100.0 13 13 100.0 0 6 6 8 1 0 1 0 -
p53
aVJames Edwards DET 05/15/1991 DET @ BOS W 24 8 4 10 40.0 0 0 - 0 0 - 0 1 1 0 0 0 0 2 -
p54
aVJohn Salley DET 05/15/1991 DET @ BOS W 20 10 4 6 66.7 0 0 - 2 4 50.0 0 0 0 1 0 3 0 3 -
p55
aVBill Laimbeer DET 05/15/1991 DET @ BOS W 35 24 8 14 57.1 0 0 - 8 8 100.0 4 2 6 2 0 0 2 3 -
p56
aVDennis Rodman DET 05/15/1991 DET @ BOS W 37 0 0 2 0.0 0 0 - 0 0 - 3 7 10 1 0 1 0 4 -
p57
aVMark Aguirre DET 05/15/1991 DET @ BOS W 30 18 7 15 46.7 0 2 0.0 4 4 100.0 1 2 3 3 2 1 2 1 -
p58
aVIsiah Thomas DET 05/15/1991 DET @ BOS W 15 0 0 2 0.0 0 0 - 0 0 - 0 2 2 6 0 0 0 4 -
p59
aVVinnie Johnson DET 05/15/1991 DET @ BOS W 35 24 11 19 57.9 0 1 0.0 2 4 50.0 3 2 5 3 1 0 2 4 -
p60
aVBill Laimbeer DET 05/13/1991 DET vs. BOS W 18 8 1 5 20.0 0 1 0.0 6 6 100.0 1 3 4 1 1 0 1 2 -
p61
aVJohn Salley DET 05/13/1991 DET vs. BOS W 18 3 0 1 0.0 0 0 - 3 6 50.0 0 3 3 1 0 3 1 3 -
p62
aVDennis Rodman DET 05/13/1991 DET vs. BOS W 47 5 1 1 100.0 0 0 - 3 8 37.5 5 13 18 0 0 1 2 4 -
p63
aVJoe Dumars DET 05/13/1991 DET vs. BOS W 48 24 8 18 44.4 0 2 0.0 8 10 80.0 3 4 7 8 1 0 2 0 -
p64
aVMark Aguirre DET 05/13/1991 DET vs. BOS W 29 34 11 16 68.8 2 3 66.7 10 13 76.9 2 4 6 1 0 0 1 4 -
p65
aVJames Edwards DET 05/13/1991 DET vs. BOS W 31 18 6 15 40.0 0 0 - 6 6 100.0 2 1 3 1 0 0 2 4 -
p66
aVScott Hastings DET 05/13/1991 DET vs. BOS W 11 0 0 0 - 0 0 - 0 0 - 0 1 1 0 0 0 0 1 -
p67
aVVinnie Johnson DET 05/13/1991 DET vs. BOS W 38 12 5 16 31.3 0 0 - 2 2 100.0 2 6 8 1 0 1 0 2 -
p68
aVJames Edwards DET 05/11/1991 DET vs. BOS L 22 13 5 14 35.7 0 0 - 3 8 37.5 4 0 4 1 0 1 0 3 -
p69
aVWilliam Bedford DET 05/11/1991 DET vs. BOS L 13 2 0 3 0.0 0 0 - 2 4 50.0 0 3 3 0 0 2 0 2 -
p70
aVJoe Dumars DET 05/11/1991 DET vs. BOS L 31 6 2 10 20.0 0 2 0.0 2 2 100.0 0 2 2 2 1 0 1 2 -
p71
aVJohn Salley DET 05/11/1991 DET vs. BOS L 23 12 5 13 38.5 0 0 - 2 5 40.0 5 1 6 1 1 0 0 3 -
p72
aVMark Aguirre DET 05/11/1991 DET vs. BOS L 25 10 3 9 33.3 0 1 0.0 4 5 80.0 0 7 7 2 1 0 2 3 -
p73
aVIsiah Thomas DET 05/11/1991 DET vs. BOS L 26 7 3 13 23.1 0 1 0.0 1 4 25.0 1 1 2 4 0 0 1 1 -
p74
aVScott Hastings DET 05/11/1991 DET vs. BOS L 5 0 0 1 0.0 0 0 - 0 0 - 0 0 0 0 0 0 0 0 -
p75
aVGerald Henderson DET 05/11/1991 DET vs. BOS L 8 2 1 2 50.0 0 0 - 0 0 - 0 0 0 1 0 0 0 1 -
p76
aVVinnie Johnson DET 05/11/1991 DET vs. BOS L 31 11 5 15 33.3 0 1 0.0 1 2 50.0 0 2 2 5 1 0 0 2 -
p77
aVDennis Rodman DET 05/11/1991 DET vs. BOS L 26 8 3 5 60.0 0 0 - 2 6 33.3 8 4 12 0 1 0 1 2 -
p78
aVBill Laimbeer DET 05/11/1991 DET vs. BOS L 30 12 6 14 42.9 0 2 0.0 0 0 - 4 8 12 1 1 1 1 3 -
p79
aVScott Hastings DET 05/09/1991 DET @ BOS L 1 0 0 0 - 0 0 - 0 0 - 0 0 0 0 0 0 0 0 -
p80
aVDennis Rodman DET 05/09/1991 DET @ BOS L 29 3 1 4 25.0 0 0 - 1 2 50.0 0 6 6 1 1 0 0 6 -
p81
aVVinnie Johnson DET 05/09/1991 DET @ BOS L 35 18 7 17 41.2 0 0 - 4 4 100.0 5 4 9 2 0 1 0 1 -
p82
aVJoe Dumars DET 05/09/1991 DET @ BOS L 45 29 11 26 42.3 1 4 25.0 6 7 85.7 1 3 4 6 3 0 1 3 -
p83
aVJames Edwards DET 05/09/1991 DET @ BOS L 20 8 3 9 33.3 0 0 - 2 2 100.0 0 0 0 0 0 1 2 2 -
p84
aVMark Aguirre DET 05/09/1991 DET @ BOS L 38 24 11 22 50.0 2 4 50.0 0 0 - 5 3 8 4 0 0 0 5 -
p85
aVJohn Salley DET 05/09/1991 DET @ BOS L 18 2 0 0 - 0 0 - 2 2 100.0 1 3 4 1 1 0 0 3 -
p86
aVGerald Henderson DET 05/09/1991 DET @ BOS L 16 2 1 5 20.0 0 0 - 0 0 - 1 0 1 2 0 0 0 2 -
p87
aVBill Laimbeer DET 05/09/1991 DET @ BOS L 38 17 6 17 35.3 0 3 0.0 5 5 100.0 4 11 15 3 0 2 1 4 -
p88
aVBill Laimbeer DET 05/07/1991 DET @ BOS W 37 10 3 11 27.3 0 1 0.0 4 4 100.0 5 7 12 0 0 2 0 4 -
p89
aVIsiah Thomas DET 05/07/1991 DET @ BOS W 32 10 4 11 36.4 0 1 0.0 2 2 100.0 1 2 3 13 2 1 1 2 -
p90
aVJoe Dumars DET 05/07/1991 DET @ BOS W 36 17 6 19 31.6 0 1 0.0 5 9 55.6 2 3 5 1 1 0 3 1 -
p91
aVVinnie Johnson DET 05/07/1991 DET @ BOS W 28 3 1 9 11.1 0 2 0.0 1 2 50.0 3 5 8 4 2 1 2 0 -
p92
aVMark Aguirre DET 05/07/1991 DET @ BOS W 11 6 2 3 66.7 0 1 0.0 2 2 100.0 1 2 3 0 0 0 0 3 -
p93
aVDennis Rodman DET 05/07/1991 DET @ BOS W 40 12 6 12 50.0 0 0 - 0 0 - 3 13 16 1 0 0 2 1 -
p94
aVJames Edwards DET 05/07/1991 DET @ BOS W 30 18 8 16 50.0 0 0 - 2 2 100.0 1 2 3 0 0 0 2 4 -
p95
aVJohn Salley DET 05/07/1991 DET @ BOS W 26 10 3 5 60.0 0 0 - 4 6 66.7 1 4 5 0 0 1 0 1 -
p96
aVScott Hastings DET 05/05/1991 DET vs. ATL W 4 3 1 2 50.0 1 2 50.0 0 0 - 0 1 1 1 0 1 0 0 -
p97
aVJohn Salley DET 05/05/1991 DET vs. ATL W 18 6 2 4 50.0 0 0 - 2 4 50.0 1 6 7 1 0 1 3 5 -
p98
aVJoe Dumars DET 05/05/1991 DET vs. ATL W 37 22 6 14 42.9 3 5 60.0 7 8 87.5 0 3 3 5 2 0 0 1 -
p99
aVBill Laimbeer DET 05/05/1991 DET vs. ATL W 29 12 6 11 54.5 0 0 - 0 0 - 1 6 7 1 0 3 1 2 -
p100
aVDennis Rodman DET 05/05/1991 DET vs. ATL W 31 12 6 11 54.5 0 0 - 0 0 - 7 13 20 2 0 0 1 4 -
p101
aVWilliam Bedford DET 05/05/1991 DET vs. ATL W 4 2 1 2 50.0 0 0 - 0 0 - 0 0 0 1 1 0 0 2 -
p102
aVJames Edwards DET 05/05/1991 DET vs. ATL W 26 10 4 8 50.0 0 0 - 2 5 40.0 0 2 2 0 0 0 2 4 -
p103
aVIsiah Thomas DET 05/05/1991 DET vs. ATL W 33 26 9 15 60.0 1 3 33.3 7 9 77.8 2 3 5 11 1 0 6 3 -
p104
aVMark Aguirre DET 05/05/1991 DET vs. ATL W 29 10 4 10 40.0 0 2 0.0 2 2 100.0 2 4 6 7 0 0 1 2 -
p105
aVGerald Henderson DET 05/05/1991 DET vs. ATL W 5 0 0 2 0.0 0 0 - 0 0 - 0 0 0 0 0 0 0 0 -
p106
aVTree Rollins DET 05/05/1991 DET vs. ATL W 1 0 0 0 - 0 0 - 0 0 - 0 1 1 0 0 0 0 0 -
p107
aVVinnie Johnson DET 05/05/1991 DET vs. ATL W 23 10 5 11 45.5 0 2 0.0 0 0 - 2 0 2 3 0 0 0 3 -
p108
aVMark Aguirre DET 05/02/1991 DET @ ATL L 27 18 9 15 60.0 0 2 0.0 0 1 0.0 4 0 4 2 2 0 3 3 -
p109
aVJohn Salley DET 05/02/1991 DET @ ATL L 20 7 3 5 60.0 0 0 - 1 3 33.3 1 3 4 1 1 3 0 4 -
p110
aVVinnie Johnson DET 05/02/1991 DET @ ATL L 31 26 12 20 60.0 1 3 33.3 1 2 50.0 3 0 3 0 0 0 2 2 -
p111
aVScott Hastings DET 05/02/1991 DET @ ATL L 1 0 0 0 - 0 0 - 0 0 - 0 0 0 0 0 0 0 1 -
p112
aVJames Edwards DET 05/02/1991 DET @ ATL L 31 19 7 14 50.0 0 0 - 5 8 62.5 2 0 2 2 0 0 1 2 -
p113
aVGerald Henderson DET 05/02/1991 DET @ ATL L 1 0 0 1 0.0 0 1 0.0 0 0 - 0 0 0 0 1 0 0 0 -
p114
aVWilliam Bedford DET 05/02/1991 DET @ ATL L 2 2 1 2 50.0 0 0 - 0 0 - 0 1 1 0 0 0 0 0 -
p115
aVDennis Rodman DET 05/02/1991 DET @ ATL L 22 0 0 3 0.0 0 0 - 0 1 0.0 4 8 12 3 3 0 0 5 -
p116
aVTree Rollins DET 05/02/1991 DET @ ATL L 3 0 0 0 - 0 0 - 0 0 - 0 0 0 0 0 0 0 1 -
p117
aVJoe Dumars DET 05/02/1991 DET @ ATL L 32 19 6 16 37.5 2 4 50.0 5 5 100.0 2 2 4 6 0 0 0 4 -
p118
aVBill Laimbeer DET 05/02/1991 DET @ ATL L 34 15 7 14 50.0 1 1 100.0 0 0 - 3 5 8 1 1 0 1 5 -
p119
aVIsiah Thomas DET 05/02/1991 DET @ ATL L 36 5 1 6 16.7 1 2 50.0 2 2 100.0 1 3 4 12 1 1 6 4 -
p120
aVJohn Salley DET 04/30/1991 DET @ ATL W 17 4 1 3 33.3 0 0 - 2 2 100.0 0 3 3 2 0 1 0 5 -
p121
aVMark Aguirre DET 04/30/1991 DET @ ATL W 14 5 2 4 50.0 1 1 100.0 0 0 - 0 4 4 1 0 0 1 1 -
p122
aVBill Laimbeer DET 04/30/1991 DET @ ATL W 39 10 4 10 40.0 2 4 50.0 0 0 - 0 6 6 5 0 2 1 4 -
p123
aVVinnie Johnson DET 04/30/1991 DET @ ATL W 21 17 8 15 53.3 1 2 50.0 0 0 - 3 0 3 2 0 0 0 1 -
p124
aVJames Edwards DET 04/30/1991 DET @ ATL W 24 9 4 8 50.0 0 0 - 1 3 33.3 1 4 5 1 0 0 5 3 -
p125
aVDennis Rodman DET 04/30/1991 DET @ ATL W 44 9 4 8 50.0 0 0 - 1 1 100.0 6 7 13 2 0 1 0 4 -
p126
aVTree Rollins DET 04/30/1991 DET @ ATL W 1 0 0 0 - 0 0 - 0 0 - 0 0 0 0 0 0 0 0 -
p127
aVScott Hastings DET 04/30/1991 DET @ ATL W 1 0 0 0 - 0 0 - 0 0 - 0 0 0 0 0 0 0 0 -
p128
aVGerald Henderson DET 04/30/1991 DET @ ATL W 1 0 0 0 - 0 0 - 0 0 - 0 0 0 0 0 0 0 0 -
p129
aVWilliam Bedford DET 04/30/1991 DET @ ATL W 4 0 0 2 0.0 0 0 - 0 0 - 0 0 0 0 0 1 0 1 -
p130
aVIsiah Thomas DET 04/30/1991 DET @ ATL W 43 19 6 15 40.0 1 4 25.0 6 7 85.7 0 8 8 13 1 0 4 3 -
p131
aVJoe Dumars DET 04/30/1991 DET @ ATL W 31 30 9 15 60.0 3 3 100.0 9 10 90.0 2 3 5 2 0 0 1 0 -
p132
aVVinnie Johnson DET 04/28/1991 DET vs. ATL W 26 9 4 11 36.4 0 1 0.0 1 2 50.0 2 4 6 6 2 0 2 3 -
p133
aVWilliam Bedford DET 04/28/1991 DET vs. ATL W 10 2 0 1 0.0 0 0 - 2 4 50.0 1 1 2 1 0 0 1 2 -
p134
aVJoe Dumars DET 04/28/1991 DET vs. ATL W 40 28 10 17 58.8 0 1 0.0 8 9 88.9 1 0 1 3 1 0 2 2 -
p135
aVJames Edwards DET 04/28/1991 DET vs. ATL W 26 13 5 14 35.7 0 0 - 3 5 60.0 3 3 6 0 0 0 1 3 -
p136
aVIsiah Thomas DET 04/28/1991 DET vs. ATL W 29 15 5 10 50.0 0 0 - 5 6 83.3 0 5 5 8 1 0 5 4 -
p137
aVJohn Salley DET 04/28/1991 DET vs. ATL W 29 6 2 4 50.0 0 0 - 2 3 66.7 2 5 7 1 1 4 4 5 -
p138
aVScott Hastings DET 04/28/1991 DET vs. ATL W 1 0 0 0 - 0 0 - 0 0 - 0 0 0 0 0 0 0 0 -
p139
aVBill Laimbeer DET 04/28/1991 DET vs. ATL W 29 7 3 5 60.0 1 2 50.0 0 1 0.0 0 5 5 0 0 0 0 4 -
p140
aVGerald Henderson DET 04/28/1991 DET vs. ATL W 1 0 0 0 - 0 0 - 0 0 - 0 0 0 0 0 0 0 0 -
p141
aVMark Aguirre DET 04/28/1991 DET vs. ATL W 16 13 6 9 66.7 1 2 50.0 0 0 - 0 2 2 1 1 0 0 1 -
p142
aVDennis Rodman DET 04/28/1991 DET vs. ATL W 33 8 3 10 30.0 0 1 0.0 2 4 50.0 8 8 16 0 0 0 0 2 -
p143
aVBill Laimbeer DET 04/26/1991 DET vs. ATL L 30 7 3 12 25.0 1 1 100.0 0 1 0.0 5 6 11 0 0 0 1 3 -
p144
aVGerald Henderson DET 04/26/1991 DET vs. ATL L 1 0 0 1 0.0 0 1 0.0 0 0 - 0 0 0 0 0 0 0 0 -
p145
aVJohn Salley DET 04/26/1991 DET vs. ATL L 22 13 5 7 71.4 0 0 - 3 6 50.0 2 3 5 0 0 2 1 4 -
p146
aVIsiah Thomas DET 04/26/1991 DET vs. ATL L 40 11 3 9 33.3 0 2 0.0 5 8 62.5 0 3 3 14 2 0 4 6 -
p147
aVVinnie Johnson DET 04/26/1991 DET vs. ATL L 23 4 2 9 22.2 0 0 - 0 0 - 2 1 3 1 0 0 2 3 -
p148
aVWilliam Bedford DET 04/26/1991 DET vs. ATL L 16 7 3 9 33.3 0 0 - 1 2 50.0 5 4 9 0 1 1 0 2 -
p149
aVJoe Dumars DET 04/26/1991 DET vs. ATL L 41 20 7 19 36.8 1 3 33.3 5 5 100.0 2 0 2 1 0 0 0 1 -
p150
aVJames Edwards DET 04/26/1991 DET vs. ATL L 12 2 1 6 16.7 0 0 - 0 0 - 0 1 1 0 1 0 0 0 -
p151
aVMark Aguirre DET 04/26/1991 DET vs. ATL L 26 19 6 12 50.0 1 3 33.3 6 7 85.7 2 4 6 0 0 0 1 2 -
p152
aVDennis Rodman DET 04/26/1991 DET vs. ATL L 29 15 7 12 58.3 0 1 0.0 1 2 50.0 7 4 11 0 0 1 0 3 -
p153
a.