(lp0
VPLAYER TEAM DATE MATCHUP W/L MIN PTS FGM FGA FG% 3PM 3PA 3P% FTM FTA FT% OREB DREB REB AST STL BLK TOV PF +/-
p1
aVMichael Jordan CHI 06/12/1991 CHI @ LAL W 48 30 12 23 52.2 0 0 - 6 8 75.0 0 4 4 10 5 2 6 1 -
p2
aVWill Perdue CHI 06/12/1991 CHI @ LAL W 7 0 0 0 - 0 0 - 0 0 - 0 0 0 0 0 0 0 3 -
p3
aVJohn Paxson CHI 06/12/1991 CHI @ LAL W 33 20 9 12 75.0 0 0 - 2 2 100.0 0 3 3 4 1 0 1 3 -
p4
aVBill Cartwright CHI 06/12/1991 CHI @ LAL W 33 8 4 11 36.4 0 0 - 0 0 - 3 5 8 7 1 0 0 5 -
p5
aVScott Williams CHI 06/12/1991 CHI @ LAL W 8 0 0 0 - 0 0 - 0 0 - 0 1 1 0 0 1 1 2 -
p6
aVCliff Levingston CHI 06/12/1991 CHI @ LAL W 8 0 0 1 0.0 0 0 - 0 0 - 1 1 2 0 0 0 0 4 -
p7
aVCraig Hodges CHI 06/12/1991 CHI @ LAL W 7 5 2 2 100.0 1 1 100.0 0 0 - 0 0 0 0 0 0 0 0 -
p8
aVHorace Grant CHI 06/12/1991 CHI @ LAL W 40 11 4 5 80.0 0 0 - 3 6 50.0 2 4 6 0 1 2 2 2 -
p9
aVScottie Pippen CHI 06/12/1991 CHI @ LAL W 48 32 10 22 45.5 1 2 50.0 11 12 91.7 4 9 13 7 5 1 7 3 -
p10
aVB.J. Armstrong CHI 06/12/1991 CHI @ LAL W 8 2 1 2 50.0 0 0 - 0 0 - 0 0 0 0 1 0 1 0 -
p11
aVMichael Jordan CHI 06/09/1991 CHI @ LAL W 44 28 11 20 55.0 0 1 0.0 6 6 100.0 1 4 5 13 0 2 1 3 -
p12
aVScott Williams CHI 06/09/1991 CHI @ LAL W 11 2 1 2 50.0 0 0 - 0 0 - 0 3 3 1 0 0 0 4 -
p13
aVHorace Grant CHI 06/09/1991 CHI @ LAL W 36 14 6 14 42.9 0 0 - 2 2 100.0 1 6 7 3 2 1 0 3 -
p14
aVScottie Pippen CHI 06/09/1991 CHI @ LAL W 40 14 6 12 50.0 0 0 - 2 2 100.0 4 5 9 6 1 2 2 4 -
p15
aVBill Cartwright CHI 06/09/1991 CHI @ LAL W 36 12 5 10 50.0 0 0 - 2 4 50.0 1 4 5 1 0 2 0 1 -
p16
aVJohn Paxson CHI 06/09/1991 CHI @ LAL W 35 15 7 11 63.6 1 2 50.0 0 0 - 1 2 3 2 1 0 1 1 -
p17
aVCraig Hodges CHI 06/09/1991 CHI @ LAL W 14 6 3 7 42.9 0 0 - 0 0 - 0 1 1 1 0 0 1 3 -
p18
aVB.J. Armstrong CHI 06/09/1991 CHI @ LAL W 3 2 1 1 100.0 0 0 - 0 0 - 0 0 0 0 0 0 0 0 -
p19
aVWill Perdue CHI 06/09/1991 CHI @ LAL W 1 0 0 0 - 0 0 - 0 0 - 0 0 0 0 0 0 0 0 -
p20
aVCliff Levingston CHI 06/09/1991 CHI @ LAL W 20 4 2 3 66.7 0 0 - 0 0 - 1 4 5 0 0 1 0 3 -
p21
aVScott Williams CHI 06/07/1991 CHI @ LAL W 11 4 0 1 0.0 0 0 - 4 6 66.7 1 1 2 2 0 0 0 1 -
p22
aVJohn Paxson CHI 06/07/1991 CHI @ LAL W 36 10 5 11 45.5 0 1 0.0 0 0 - 0 0 0 3 0 0 0 1 -
p23
aVCliff Levingston CHI 06/07/1991 CHI @ LAL W 20 10 5 5 100.0 0 0 - 0 0 - 2 2 4 0 1 3 0 1 -
p24
aVBill Cartwright CHI 06/07/1991 CHI @ LAL W 33 6 2 8 25.0 0 0 - 2 2 100.0 0 3 3 1 0 0 4 3 -
p25
aVHorace Grant CHI 06/07/1991 CHI @ LAL W 42 22 9 11 81.8 0 0 - 4 4 100.0 5 6 11 3 1 0 5 2 -
p26
aVMichael Jordan CHI 06/07/1991 CHI @ LAL W 52 29 11 28 39.3 1 1 100.0 6 6 100.0 4 5 9 9 4 2 3 5 -
p27
aVCraig Hodges CHI 06/07/1991 CHI @ LAL W 8 2 1 3 33.3 0 0 - 0 0 - 0 1 1 0 0 0 0 0 -
p28
aVWill Perdue CHI 06/07/1991 CHI @ LAL W 6 0 0 0 - 0 0 - 0 0 - 0 1 1 0 0 0 1 1 -
p29
aVScottie Pippen CHI 06/07/1991 CHI @ LAL W 45 19 8 17 47.1 0 1 0.0 3 4 75.0 4 9 13 5 4 0 3 6 -
p30
aVStacey King CHI 06/07/1991 CHI @ LAL W 3 2 0 0 - 0 0 - 2 2 100.0 0 0 0 0 0 0 0 1 -
p31
aVB.J. Armstrong CHI 06/07/1991 CHI @ LAL W 9 0 0 1 0.0 0 0 - 0 0 - 0 2 2 0 0 0 0 0 -
p32
aVMichael Jordan CHI 06/05/1991 CHI vs. LAL W 36 33 15 18 83.3 0 1 0.0 3 4 75.0 1 6 7 13 2 1 4 4 -
p33
aVB.J. Armstrong CHI 06/05/1991 CHI vs. LAL W 7 0 0 2 0.0 0 0 - 0 0 - 1 0 1 1 0 0 0 0 -
p34
aVDennis Hopson CHI 06/05/1991 CHI vs. LAL W 2 0 0 0 - 0 0 - 0 0 - 0 0 0 0 0 0 0 0 -
p35
aVScott Williams CHI 06/05/1991 CHI vs. LAL W 15 2 1 1 100.0 0 0 - 0 0 - 1 2 3 0 0 0 0 2 -
p36
aVStacey King CHI 06/05/1991 CHI vs. LAL W 3 0 0 3 0.0 0 1 0.0 0 0 - 0 1 1 0 0 0 1 1 -
p37
aVHorace Grant CHI 06/05/1991 CHI vs. LAL W 40 20 10 13 76.9 0 0 - 0 0 - 3 2 5 1 2 0 1 1 -
p38
aVCraig Hodges CHI 06/05/1991 CHI vs. LAL W 11 2 1 6 16.7 0 3 0.0 0 0 - 0 1 1 0 0 0 0 1 -
p39
aVJohn Paxson CHI 06/05/1991 CHI vs. LAL W 25 16 8 8 100.0 0 0 - 0 0 - 0 0 0 6 1 0 0 2 -
p40
aVWill Perdue CHI 06/05/1991 CHI vs. LAL W 11 2 1 3 33.3 0 0 - 0 0 - 3 4 7 1 0 0 1 0 -
p41
aVCliff Levingston CHI 06/05/1991 CHI vs. LAL W 22 0 0 2 0.0 0 0 - 0 0 - 0 1 1 2 2 0 0 4 -
p42
aVScottie Pippen CHI 06/05/1991 CHI vs. LAL W 44 20 8 16 50.0 0 0 - 4 4 100.0 1 4 5 10 1 0 5 4 -
p43
aVBill Cartwright CHI 06/05/1991 CHI vs. LAL W 24 12 6 9 66.7 0 0 - 0 0 - 1 4 5 1 2 0 2 1 -
p44
aVMichael Jordan CHI 06/02/1991 CHI vs. LAL L 40 36 14 24 58.3 1 1 100.0 7 9 77.8 2 6 8 12 3 0 4 5 -
p45
aVWill Perdue CHI 06/02/1991 CHI vs. LAL L 12 6 2 2 100.0 0 0 - 2 2 100.0 0 4 4 0 0 1 0 2 -
p46
aVCliff Levingston CHI 06/02/1991 CHI vs. LAL L 20 2 1 2 50.0 0 0 - 0 0 - 1 1 2 1 2 1 1 0 -
p47
aVScottie Pippen CHI 06/02/1991 CHI vs. LAL L 41 19 7 19 36.8 0 2 0.0 5 7 71.4 2 5 7 5 1 2 3 5 -
p48
aVCraig Hodges CHI 06/02/1991 CHI vs. LAL L 13 4 2 5 40.0 0 2 0.0 0 0 - 0 0 0 0 0 0 1 0 -
p49
aVHorace Grant CHI 06/02/1991 CHI vs. LAL L 40 6 3 8 37.5 0 0 - 0 0 - 3 7 10 1 2 0 1 1 -
p50
aVB.J. Armstrong CHI 06/02/1991 CHI vs. LAL L 10 6 3 5 60.0 0 1 0.0 0 0 - 0 0 0 3 1 0 0 2 -
p51
aVBill Cartwright CHI 06/02/1991 CHI vs. LAL L 34 6 3 8 37.5 0 0 - 0 0 - 0 4 4 2 0 1 0 4 -
p52
aVJohn Paxson CHI 06/02/1991 CHI vs. LAL L 30 6 3 7 42.9 0 1 0.0 0 0 - 1 3 4 2 2 0 0 2 -
p53
aVCliff Levingston CHI 05/27/1991 CHI @ DET W 22 10 4 9 44.4 0 0 - 2 4 50.0 5 3 8 1 2 2 0 3 -
p54
aVStacey King CHI 05/27/1991 CHI @ DET W 3 4 2 5 40.0 0 0 - 0 0 - 2 0 2 0 0 0 0 0 -
p55
aVScottie Pippen CHI 05/27/1991 CHI @ DET W 39 23 7 18 38.9 0 1 0.0 9 12 75.0 1 5 6 10 3 0 2 1 -
p56
aVScott Williams CHI 05/27/1991 CHI @ DET W 7 5 2 3 66.7 0 1 0.0 1 2 50.0 1 2 3 0 0 0 1 3 -
p57
aVBill Cartwright CHI 05/27/1991 CHI @ DET W 21 6 3 5 60.0 0 0 - 0 0 - 0 0 0 2 0 0 2 4 -
p58
aVDennis Hopson CHI 05/27/1991 CHI @ DET W 3 1 0 1 0.0 0 0 - 1 2 50.0 0 1 1 0 0 0 0 0 -
p59
aVB.J. Armstrong CHI 05/27/1991 CHI @ DET W 21 4 2 4 50.0 0 0 - 0 0 - 1 2 3 4 2 0 0 0 -
p60
aVMichael Jordan CHI 05/27/1991 CHI @ DET W 37 29 11 17 64.7 1 2 50.0 6 9 66.7 0 8 8 8 1 2 2 2 -
p61
aVJohn Paxson CHI 05/27/1991 CHI @ DET W 29 12 4 7 57.1 0 1 0.0 4 4 100.0 0 2 2 1 0 0 0 2 -
p62
aVWill Perdue CHI 05/27/1991 CHI @ DET W 15 1 0 1 0.0 0 0 - 1 2 50.0 2 2 4 0 0 0 1 6 -
p63
aVCraig Hodges CHI 05/27/1991 CHI @ DET W 9 4 1 5 20.0 1 2 50.0 1 1 100.0 0 0 0 0 0 0 0 0 -
p64
aVHorace Grant CHI 05/27/1991 CHI @ DET W 34 16 6 9 66.7 0 0 - 4 7 57.1 6 3 9 2 0 0 0 4 -
p65
aVCraig Hodges CHI 05/25/1991 CHI @ DET W 16 6 2 3 66.7 0 1 0.0 2 2 100.0 0 0 0 1 2 0 1 5 -
p66
aVCliff Levingston CHI 05/25/1991 CHI @ DET W 4 0 0 2 0.0 0 0 - 0 0 - 2 0 2 0 0 0 0 1 -
p67
aVJohn Paxson CHI 05/25/1991 CHI @ DET W 26 6 2 5 40.0 0 1 0.0 2 2 100.0 0 1 1 3 0 0 0 5 -
p68
aVScottie Pippen CHI 05/25/1991 CHI @ DET W 38 26 10 16 62.5 0 1 0.0 6 6 100.0 5 5 10 4 0 1 6 4 -
p69
aVBill Cartwright CHI 05/25/1991 CHI @ DET W 40 13 6 10 60.0 0 0 - 1 2 50.0 0 4 4 1 1 3 1 4 -
p70
aVHorace Grant CHI 05/25/1991 CHI @ DET W 44 17 8 13 61.5 0 0 - 1 3 33.3 2 6 8 3 2 0 1 4 -
p71
aVB.J. Armstrong CHI 05/25/1991 CHI @ DET W 18 7 2 4 50.0 1 1 100.0 2 2 100.0 0 1 1 2 1 0 2 0 -
p72
aVScott Williams CHI 05/25/1991 CHI @ DET W 2 3 0 0 - 0 0 - 3 4 75.0 0 1 1 0 0 0 0 1 -
p73
aVWill Perdue CHI 05/25/1991 CHI @ DET W 6 2 1 1 100.0 0 0 - 0 2 0.0 3 2 5 0 0 0 2 2 -
p74
aVMichael Jordan CHI 05/25/1991 CHI @ DET W 46 33 11 19 57.9 0 0 - 11 12 91.7 0 7 7 7 3 5 1 4 -
p75
aVCraig Hodges CHI 05/21/1991 CHI vs. DET W 12 2 1 2 50.0 0 1 0.0 0 0 - 0 0 0 0 1 0 0 3 -
p76
aVJohn Paxson CHI 05/21/1991 CHI vs. DET W 31 8 4 8 50.0 0 2 0.0 0 0 - 0 1 1 5 1 0 0 2 -
p77
aVBill Cartwright CHI 05/21/1991 CHI vs. DET W 28 7 3 7 42.9 0 0 - 1 2 50.0 3 5 8 1 1 1 1 1 -
p78
aVB.J. Armstrong CHI 05/21/1991 CHI vs. DET W 18 8 3 5 60.0 1 1 100.0 1 2 50.0 0 2 2 3 1 1 1 1 -
p79
aVScott Williams CHI 05/21/1991 CHI vs. DET W 3 2 0 0 - 0 0 - 2 4 50.0 0 1 1 0 0 0 1 0 -
p80
aVScottie Pippen CHI 05/21/1991 CHI vs. DET W 43 21 6 14 42.9 0 1 0.0 9 14 64.3 2 8 10 5 3 2 4 1 -
p81
aVMichael Jordan CHI 05/21/1991 CHI vs. DET W 39 35 10 20 50.0 2 2 100.0 13 14 92.9 2 1 3 7 2 0 3 2 -
p82
aVHorace Grant CHI 05/21/1991 CHI vs. DET W 31 13 4 5 80.0 0 0 - 5 5 100.0 2 2 4 3 0 0 2 2 -
p83
aVWill Perdue CHI 05/21/1991 CHI vs. DET W 16 4 1 4 25.0 0 0 - 2 2 100.0 3 1 4 1 0 1 2 4 -
p84
aVCliff Levingston CHI 05/21/1991 CHI vs. DET W 19 5 2 5 40.0 0 0 - 1 2 50.0 3 0 3 1 0 0 1 4 -
p85
aVMichael Jordan CHI 05/19/1991 CHI vs. DET W 38 22 6 15 40.0 0 1 0.0 10 13 76.9 0 3 3 6 3 0 6 4 -
p86
aVBill Cartwright CHI 05/19/1991 CHI vs. DET W 34 16 7 10 70.0 0 0 - 2 4 50.0 2 7 9 1 0 0 2 3 -
p87
aVHorace Grant CHI 05/19/1991 CHI vs. DET W 42 8 2 2 100.0 0 0 - 4 5 80.0 3 7 10 0 0 1 1 3 -
p88
aVCraig Hodges CHI 05/19/1991 CHI vs. DET W 11 7 3 6 50.0 1 2 50.0 0 0 - 0 0 0 2 0 0 0 1 -
p89
aVCliff Levingston CHI 05/19/1991 CHI vs. DET W 16 8 4 6 66.7 0 0 - 0 0 - 3 1 4 0 0 0 0 2 -
p90
aVB.J. Armstrong CHI 05/19/1991 CHI vs. DET W 22 9 2 4 50.0 0 0 - 5 6 83.3 0 4 4 6 1 0 1 0 -
p91
aVJohn Paxson CHI 05/19/1991 CHI vs. DET W 26 0 0 5 0.0 0 1 0.0 0 0 - 0 1 1 6 1 0 1 3 -
p92
aVWill Perdue CHI 05/19/1991 CHI vs. DET W 13 6 3 5 60.0 0 0 - 0 0 - 2 4 6 0 0 2 1 4 -
p93
aVScott Williams CHI 05/19/1991 CHI vs. DET W 3 0 0 0 - 0 0 - 0 2 0.0 0 1 1 0 0 1 0 1 -
p94
aVScottie Pippen CHI 05/19/1991 CHI vs. DET W 35 18 6 13 46.2 0 1 0.0 6 7 85.7 2 3 5 2 6 5 2 4 -
p95
aVMichael Jordan CHI 05/14/1991 CHI vs. PHL W 42 38 14 31 45.2 0 2 0.0 10 11 90.9 4 15 19 7 0 1 4 3 -
p96
aVCliff Levingston CHI 05/14/1991 CHI vs. PHL W 3 2 1 1 100.0 0 0 - 0 0 - 1 0 1 0 0 0 0 0 -
p97
aVScottie Pippen CHI 05/14/1991 CHI vs. PHL W 39 28 13 18 72.2 1 1 100.0 1 2 50.0 1 7 8 6 0 0 2 4 -
p98
aVJohn Paxson CHI 05/14/1991 CHI vs. PHL W 31 5 2 3 66.7 1 2 50.0 0 0 - 0 0 0 2 0 0 1 4 -
p99
aVStacey King CHI 05/14/1991 CHI vs. PHL W 9 0 0 4 0.0 0 0 - 0 0 - 1 1 2 1 0 0 0 0 -
p100
aVCraig Hodges CHI 05/14/1991 CHI vs. PHL W 12 0 0 2 0.0 0 1 0.0 0 0 - 0 0 0 1 0 0 0 1 -
p101
aVWill Perdue CHI 05/14/1991 CHI vs. PHL W 7 8 4 5 80.0 0 0 - 0 0 - 1 2 3 0 0 0 0 1 -
p102
aVBill Cartwright CHI 05/14/1991 CHI vs. PHL W 35 8 3 9 33.3 0 0 - 2 2 100.0 3 3 6 3 1 0 0 4 -
p103
aVHorace Grant CHI 05/14/1991 CHI vs. PHL W 45 9 3 7 42.9 0 0 - 3 4 75.0 4 7 11 1 0 0 1 3 -
p104
aVB.J. Armstrong CHI 05/14/1991 CHI vs. PHL W 17 2 1 5 20.0 0 0 - 0 0 - 1 1 2 1 1 0 1 0 -
p105
aVCliff Levingston CHI 05/12/1991 CHI @ PHL W 11 0 0 0 - 0 0 - 0 0 - 1 3 4 0 0 0 0 2 -
p106
aVScottie Pippen CHI 05/12/1991 CHI @ PHL W 44 20 9 18 50.0 0 1 0.0 2 2 100.0 4 5 9 5 2 1 3 1 -
p107
aVJohn Paxson CHI 05/12/1991 CHI @ PHL W 26 6 2 4 50.0 0 0 - 2 2 100.0 0 1 1 1 3 0 1 1 -
p108
aVBill Cartwright CHI 05/12/1991 CHI @ PHL W 23 7 3 6 50.0 0 0 - 1 2 50.0 2 3 5 3 1 0 2 4 -
p109
aVMichael Jordan CHI 05/12/1991 CHI @ PHL W 41 25 11 27 40.7 2 3 66.7 1 2 50.0 0 4 4 12 4 0 1 4 -
p110
aVB.J. Armstrong CHI 05/12/1991 CHI @ PHL W 16 8 4 9 44.4 0 0 - 0 1 0.0 0 2 2 2 1 0 1 1 -
p111
aVCraig Hodges CHI 05/12/1991 CHI @ PHL W 13 5 2 6 33.3 1 3 33.3 0 0 - 0 0 0 1 1 0 3 1 -
p112
aVScott Williams CHI 05/12/1991 CHI @ PHL W 2 0 0 1 0.0 0 0 - 0 0 - 0 1 1 0 0 0 0 0 -
p113
aVDennis Hopson CHI 05/12/1991 CHI @ PHL W 2 2 1 2 50.0 0 0 - 0 1 0.0 1 0 1 0 0 1 0 0 -
p114
aVHorace Grant CHI 05/12/1991 CHI @ PHL W 37 22 9 14 64.3 0 0 - 4 4 100.0 7 4 11 4 2 0 0 3 -
p115
aVStacey King CHI 05/12/1991 CHI @ PHL W 9 2 1 2 50.0 0 0 - 0 0 - 0 1 1 0 0 0 1 1 -
p116
aVWill Perdue CHI 05/12/1991 CHI @ PHL W 16 4 2 3 66.7 0 0 - 0 0 - 2 3 5 0 0 0 0 2 -
p117
aVWill Perdue CHI 05/10/1991 CHI @ PHL L 13 3 1 3 33.3 0 0 - 1 2 50.0 1 2 3 0 1 1 2 3 -
p118
aVHorace Grant CHI 05/10/1991 CHI @ PHL L 42 10 5 9 55.6 0 0 - 0 2 0.0 1 4 5 5 0 0 2 4 -
p119
aVStacey King CHI 05/10/1991 CHI @ PHL L 5 0 0 0 - 0 0 - 0 0 - 0 1 1 0 0 0 0 1 -
p120
aVCraig Hodges CHI 05/10/1991 CHI @ PHL L 16 5 2 6 33.3 1 2 50.0 0 0 - 0 0 0 2 0 0 1 3 -
p121
aVScottie Pippen CHI 05/10/1991 CHI @ PHL L 43 22 9 23 39.1 0 2 0.0 4 4 100.0 3 10 13 6 3 0 1 5 -
p122
aVB.J. Armstrong CHI 05/10/1991 CHI @ PHL L 18 0 0 2 0.0 0 1 0.0 0 0 - 1 0 1 4 3 0 1 0 -
p123
aVBill Cartwright CHI 05/10/1991 CHI @ PHL L 33 9 4 6 66.7 0 0 - 1 2 50.0 4 5 9 1 0 0 0 5 -
p124
aVMichael Jordan CHI 05/10/1991 CHI @ PHL L 42 46 20 34 58.8 0 0 - 6 9 66.7 0 4 4 6 1 4 2 3 -
p125
aVJohn Paxson CHI 05/10/1991 CHI @ PHL L 25 2 1 3 33.3 0 0 - 0 0 - 0 0 0 1 0 0 1 3 -
p126
aVCliff Levingston CHI 05/10/1991 CHI @ PHL L 3 0 0 0 - 0 0 - 0 0 - 0 0 0 0 0 0 0 0 -
p127
aVB.J. Armstrong CHI 05/06/1991 CHI vs. PHL W 16 8 4 5 80.0 0 0 - 0 0 - 0 1 1 1 0 0 0 1 -
p128
aVHorace Grant CHI 05/06/1991 CHI vs. PHL W 43 11 5 10 50.0 0 0 - 1 2 50.0 7 3 10 2 0 0 0 4 -
p129
aVScottie Pippen CHI 05/06/1991 CHI vs. PHL W 45 23 9 14 64.3 0 1 0.0 5 6 83.3 0 11 11 6 2 0 5 3 -
p130
aVJohn Paxson CHI 05/06/1991 CHI vs. PHL W 32 10 5 7 71.4 0 1 0.0 0 0 - 0 1 1 4 0 0 0 1 -
p131
aVStacey King CHI 05/06/1991 CHI vs. PHL W 5 2 1 1 100.0 0 0 - 0 0 - 0 0 0 0 0 0 0 3 -
p132
aVCraig Hodges CHI 05/06/1991 CHI vs. PHL W 11 6 2 2 100.0 2 2 100.0 0 0 - 0 0 0 2 2 0 0 2 -
p133
aVWill Perdue CHI 05/06/1991 CHI vs. PHL W 14 8 4 7 57.1 0 0 - 0 2 0.0 5 0 5 1 0 1 0 2 -
p134
aVCliff Levingston CHI 05/06/1991 CHI vs. PHL W 1 0 0 0 - 0 0 - 0 0 - 0 0 0 0 0 0 0 0 -
p135
aVMichael Jordan CHI 05/06/1991 CHI vs. PHL W 40 29 12 26 46.2 0 5 0.0 5 7 71.4 1 7 8 9 1 1 1 4 -
p136
aVScott Williams CHI 05/06/1991 CHI vs. PHL W 1 2 1 1 100.0 0 0 - 0 0 - 0 1 1 0 0 1 1 1 -
p137
aVBill Cartwright CHI 05/06/1991 CHI vs. PHL W 32 13 5 11 45.5 0 0 - 3 5 60.0 3 2 5 5 0 0 2 2 -
p138
aVDennis Hopson CHI 05/04/1991 CHI vs. PHL W 4 3 0 0 - 0 0 - 3 4 75.0 1 0 1 0 0 0 0 1 -
p139
aVCraig Hodges CHI 05/04/1991 CHI vs. PHL W 15 5 2 7 28.6 1 3 33.3 0 0 - 0 0 0 0 1 0 2 1 -
p140
aVCliff Levingston CHI 05/04/1991 CHI vs. PHL W 6 0 0 2 0.0 0 0 - 0 0 - 0 0 0 0 1 0 0 2 -
p141
aVWill Perdue CHI 05/04/1991 CHI vs. PHL W 19 4 2 4 50.0 0 0 - 0 0 - 2 4 6 1 0 0 2 4 -
p142
aVHorace Grant CHI 05/04/1991 CHI vs. PHL W 33 12 5 10 50.0 0 0 - 2 2 100.0 3 6 9 2 1 1 1 3 -
p143
aVStacey King CHI 05/04/1991 CHI vs. PHL W 15 3 1 2 50.0 0 0 - 1 2 50.0 1 2 3 1 0 1 0 2 -
p144
aVJohn Paxson CHI 05/04/1991 CHI vs. PHL W 23 2 1 2 50.0 0 0 - 0 0 - 0 2 2 5 0 0 0 2 -
p145
aVScottie Pippen CHI 05/04/1991 CHI vs. PHL W 40 24 11 16 68.8 1 1 100.0 1 2 50.0 0 6 6 7 1 1 0 4 -
p146
aVB.J. Armstrong CHI 05/04/1991 CHI vs. PHL W 25 9 3 5 60.0 0 0 - 3 4 75.0 0 2 2 3 1 0 2 3 -
p147
aVScott Williams CHI 05/04/1991 CHI vs. PHL W 4 0 0 2 0.0 0 0 - 0 0 - 0 0 0 0 0 0 0 0 -
p148
aVBill Cartwright CHI 05/04/1991 CHI vs. PHL W 25 14 7 9 77.8 0 0 - 0 0 - 1 1 2 1 1 0 0 2 -
p149
aVMichael Jordan CHI 05/04/1991 CHI vs. PHL W 31 29 8 15 53.3 0 1 0.0 13 15 86.7 0 5 5 5 3 1 1 2 -
p150
aVCraig Hodges CHI 04/30/1991 CHI @ NYK W 13 2 1 4 25.0 0 1 0.0 0 0 - 0 1 1 0 0 0 0 0 -
p151
aVMichael Jordan CHI 04/30/1991 CHI @ NYK W 39 33 14 28 50.0 0 2 0.0 5 5 100.0 1 2 3 7 6 1 1 3 -
p152
aVCliff Levingston CHI 04/30/1991 CHI @ NYK W 2 0 0 1 0.0 0 0 - 0 0 - 0 0 0 0 1 0 0 1 -
p153
aVB.J. Armstrong CHI 04/30/1991 CHI @ NYK W 18 2 1 3 33.3 0 0 - 0 0 - 0 2 2 2 1 0 1 3 -
p154
aVHorace Grant CHI 04/30/1991 CHI @ NYK W 44 9 4 10 40.0 0 0 - 1 1 100.0 4 4 8 3 0 0 1 1 -
p155
aVStacey King CHI 04/30/1991 CHI @ NYK W 7 2 0 3 0.0 0 0 - 2 2 100.0 3 2 5 0 1 0 1 0 -
p156
aVWill Perdue CHI 04/30/1991 CHI @ NYK W 20 16 6 10 60.0 0 0 - 4 6 66.7 6 4 10 0 0 0 0 4 -
p157
aVScottie Pippen CHI 04/30/1991 CHI @ NYK W 42 21 10 16 62.5 0 0 - 1 3 33.3 1 10 11 5 4 3 5 4 -
p158
aVBill Cartwright CHI 04/30/1991 CHI @ NYK W 24 4 1 3 33.3 0 0 - 2 2 100.0 0 2 2 1 0 0 1 4 -
p159
aVJohn Paxson CHI 04/30/1991 CHI @ NYK W 31 14 6 10 60.0 0 0 - 2 2 100.0 0 0 0 4 0 0 0 0 -
p160
aVWill Perdue CHI 04/28/1991 CHI vs. NYK W 10 4 1 3 33.3 0 0 - 2 2 100.0 1 0 1 0 0 2 1 1 -
p161
aVHorace Grant CHI 04/28/1991 CHI vs. NYK W 40 13 4 7 57.1 0 0 - 5 6 83.3 0 6 6 4 1 1 2 4 -
p162
aVCliff Levingston CHI 04/28/1991 CHI vs. NYK W 2 2 1 1 100.0 0 0 - 0 0 - 0 0 0 0 0 0 0 0 -
p163
aVB.J. Armstrong CHI 04/28/1991 CHI vs. NYK W 20 8 2 5 40.0 0 0 - 4 4 100.0 0 0 0 1 3 0 0 0 -
p164
aVStacey King CHI 04/28/1991 CHI vs. NYK W 11 4 1 3 33.3 0 0 - 2 5 40.0 1 4 5 0 0 0 3 2 -
p165
aVJohn Paxson CHI 04/28/1991 CHI vs. NYK W 27 4 1 6 16.7 0 0 - 2 2 100.0 0 3 3 2 1 0 0 0 -
p166
aVBill Cartwright CHI 04/28/1991 CHI vs. NYK W 36 12 5 7 71.4 0 0 - 2 2 100.0 0 2 2 0 1 0 1 5 -
p167
aVCraig Hodges CHI 04/28/1991 CHI vs. NYK W 10 3 1 2 50.0 1 1 100.0 0 0 - 0 0 0 0 1 0 0 0 -
p168
aVMichael Jordan CHI 04/28/1991 CHI vs. NYK W 42 26 9 16 56.3 0 0 - 8 9 88.9 1 4 5 5 0 1 2 2 -
p169
aVScottie Pippen CHI 04/28/1991 CHI vs. NYK W 42 13 5 14 35.7 1 2 50.0 2 4 50.0 0 8 8 7 2 1 3 1 -
p170
aVCraig Hodges CHI 04/25/1991 CHI vs. NYK W 18 16 7 10 70.0 2 3 66.7 0 1 0.0 0 0 0 0 3 0 2 0 -
p171
aVMichael Jordan CHI 04/25/1991 CHI vs. NYK W 32 28 8 15 53.3 3 4 75.0 9 9 100.0 1 5 6 6 2 0 1 2 -
p172
aVDennis Hopson CHI 04/25/1991 CHI vs. NYK W 7 2 1 3 33.3 0 0 - 0 2 0.0 0 1 1 1 0 0 1 1 -
p173
aVBill Cartwright CHI 04/25/1991 CHI vs. NYK W 20 9 3 6 50.0 0 0 - 3 3 100.0 2 1 3 1 0 0 3 3 -
p174
aVJohn Paxson CHI 04/25/1991 CHI vs. NYK W 21 4 2 8 25.0 0 2 0.0 0 0 - 0 1 1 2 0 0 0 0 -
p175
aVCliff Levingston CHI 04/25/1991 CHI vs. NYK W 13 2 1 1 100.0 0 0 - 0 0 - 2 3 5 2 1 0 0 1 -
p176
aVStacey King CHI 04/25/1991 CHI vs. NYK W 16 4 2 4 50.0 0 0 - 0 0 - 1 1 2 0 0 0 3 4 -
p177
aVWill Perdue CHI 04/25/1991 CHI vs. NYK W 12 2 1 2 50.0 0 0 - 0 2 0.0 1 0 1 0 1 0 1 2 -
p178
aVScottie Pippen CHI 04/25/1991 CHI vs. NYK W 36 25 8 16 50.0 0 0 - 9 10 90.0 3 4 7 3 4 0 2 4 -
p179
aVScott Williams CHI 04/25/1991 CHI vs. NYK W 5 3 1 2 50.0 0 0 - 1 2 50.0 1 2 3 0 1 0 0 0 -
p180
aVB.J. Armstrong CHI 04/25/1991 CHI vs. NYK W 27 18 6 8 75.0 1 1 100.0 5 6 83.3 1 3 4 10 2 0 2 2 -
p181
aVHorace Grant CHI 04/25/1991 CHI vs. NYK W 33 13 4 9 44.4 0 0 - 5 7 71.4 3 5 8 1 1 0 0 1 -
p182
a.