(lp0
VPLAYER TEAM DATE MATCHUP W/L MIN PTS FGM FGA FG% 3PM 3PA 3P% FTM FTA FT% OREB DREB REB AST STL BLK TOV PF +/-
p1
aVGary Leonard ATL 05/05/1991 ATL @ DET L 4 2 1 1 100.0 0 0 - 0 0 - 0 2 2 0 0 0 0 0 -
p2
aVTim McCormick ATL 05/05/1991 ATL @ DET L 7 6 2 6 33.3 0 0 - 2 3 66.7 1 0 1 0 0 0 0 0 -
p3
aVSidney Moncrief ATL 05/05/1991 ATL @ DET L 26 2 0 4 0.0 0 2 0.0 2 4 50.0 2 4 6 0 1 0 0 4 -
p4
aVDominique Wilkins ATL 05/05/1991 ATL @ DET L 30 10 4 18 22.2 0 3 0.0 2 2 100.0 0 3 3 0 2 1 2 2 -
p5
aVDuane Ferrell ATL 05/05/1991 ATL @ DET L 17 9 4 6 66.7 0 0 - 1 2 50.0 2 2 4 2 0 0 0 1 -
p6
aVKevin Willis ATL 05/05/1991 ATL @ DET L 33 13 6 20 30.0 0 0 - 1 2 50.0 7 6 13 1 1 0 1 5 -
p7
aVRumeal Robinson ATL 05/05/1991 ATL @ DET L 12 2 1 4 25.0 0 0 - 0 0 - 0 1 1 1 1 0 4 1 -
p8
aVDoc Rivers ATL 05/05/1991 ATL @ DET L 37 12 3 9 33.3 0 2 0.0 6 7 85.7 0 3 3 2 0 0 1 2 -
p9
aVMoses Malone ATL 05/05/1991 ATL @ DET L 8 0 0 2 0.0 0 0 - 0 0 - 1 1 2 1 0 0 1 2 -
p10
aVJon Koncak ATL 05/05/1991 ATL @ DET L 24 4 1 4 25.0 0 0 - 2 2 100.0 2 4 6 4 0 1 1 3 -
p11
aVSpud Webb ATL 05/05/1991 ATL @ DET L 26 12 3 10 30.0 1 3 33.3 5 6 83.3 3 3 6 3 2 0 1 3 -
p12
aVJohn Battle ATL 05/05/1991 ATL @ DET L 16 9 2 7 28.6 1 2 50.0 4 4 100.0 1 2 3 0 0 0 2 3 -
p13
aVGary Leonard ATL 05/02/1991 ATL vs. DET W 1 2 1 1 100.0 0 0 - 0 0 - 0 0 0 0 0 0 0 0 -
p14
aVSidney Moncrief ATL 05/02/1991 ATL vs. DET W 22 23 8 11 72.7 1 2 50.0 6 6 100.0 2 2 4 1 2 0 2 4 -
p15
aVDoc Rivers ATL 05/02/1991 ATL vs. DET W 42 34 14 19 73.7 0 1 0.0 6 7 85.7 3 6 9 4 0 0 1 2 -
p16
aVJohn Battle ATL 05/02/1991 ATL vs. DET W 24 11 1 10 10.0 0 0 - 9 10 90.0 1 1 2 4 0 0 0 1 -
p17
aVSpud Webb ATL 05/02/1991 ATL vs. DET W 32 8 3 12 25.0 0 0 - 2 4 50.0 2 3 5 7 2 0 2 1 -
p18
aVDominique Wilkins ATL 05/02/1991 ATL vs. DET W 40 24 7 15 46.7 0 2 0.0 10 10 100.0 3 8 11 2 1 0 7 2 -
p19
aVRumeal Robinson ATL 05/02/1991 ATL vs. DET W 1 0 0 0 - 0 0 - 0 0 - 0 0 0 0 0 0 0 0 -
p20
aVJon Koncak ATL 05/02/1991 ATL vs. DET W 18 0 0 0 - 0 0 - 0 0 - 0 4 4 2 1 2 0 4 -
p21
aVKevin Willis ATL 05/02/1991 ATL vs. DET W 30 13 4 8 50.0 0 0 - 5 6 83.3 2 3 5 1 1 0 1 5 -
p22
aVMoses Malone ATL 05/02/1991 ATL vs. DET W 27 8 1 5 20.0 0 0 - 6 6 100.0 6 5 11 1 1 1 0 1 -
p23
aVDuane Ferrell ATL 05/02/1991 ATL vs. DET W 3 0 0 0 - 0 0 - 0 2 0.0 0 0 0 0 0 0 0 0 -
p24
aVSidney Moncrief ATL 04/30/1991 ATL vs. DET L 9 2 1 1 100.0 0 0 - 0 0 - 0 1 1 0 0 0 0 2 -
p25
aVKevin Willis ATL 04/30/1991 ATL vs. DET L 39 24 9 19 47.4 0 1 0.0 6 11 54.5 4 6 10 1 1 1 0 3 -
p26
aVMoses Malone ATL 04/30/1991 ATL vs. DET L 14 3 1 4 25.0 0 0 - 1 2 50.0 3 4 7 0 1 0 0 0 -
p27
aVDominique Wilkins ATL 04/30/1991 ATL vs. DET L 41 18 8 23 34.8 0 3 0.0 2 2 100.0 1 6 7 4 3 0 0 1 -
p28
aVSpud Webb ATL 04/30/1991 ATL vs. DET L 38 16 7 13 53.8 2 5 40.0 0 0 - 1 4 5 9 0 0 1 2 -
p29
aVDuane Ferrell ATL 04/30/1991 ATL vs. DET L 17 5 1 3 33.3 0 0 - 3 4 75.0 1 1 2 0 0 0 0 1 -
p30
aVDoc Rivers ATL 04/30/1991 ATL vs. DET L 35 12 4 12 33.3 1 3 33.3 3 3 100.0 2 2 4 5 0 1 1 5 -
p31
aVJohn Battle ATL 04/30/1991 ATL vs. DET L 14 9 3 8 37.5 0 1 0.0 3 3 100.0 0 1 1 3 0 0 2 3 -
p32
aVJon Koncak ATL 04/30/1991 ATL vs. DET L 33 2 1 3 33.3 0 0 - 0 0 - 1 4 5 0 0 1 1 3 -
p33
aVMoses Malone ATL 04/28/1991 ATL @ DET L 20 6 1 6 16.7 0 0 - 4 4 100.0 3 2 5 0 0 0 1 0 -
p34
aVJon Koncak ATL 04/28/1991 ATL @ DET L 25 4 2 6 33.3 0 0 - 0 0 - 1 3 4 0 0 0 1 4 -
p35
aVDuane Ferrell ATL 04/28/1991 ATL @ DET L 21 6 1 6 16.7 0 0 - 4 4 100.0 3 5 8 1 0 0 1 5 -
p36
aVTim McCormick ATL 04/28/1991 ATL @ DET L 6 0 0 1 0.0 0 0 - 0 0 - 0 1 1 0 0 0 0 1 -
p37
aVDoc Rivers ATL 04/28/1991 ATL @ DET L 23 6 3 12 25.0 0 4 0.0 0 0 - 1 0 1 2 2 0 1 3 -
p38
aVSpud Webb ATL 04/28/1991 ATL @ DET L 32 12 6 13 46.2 0 2 0.0 0 1 0.0 1 1 2 2 1 1 5 3 -
p39
aVKevin Willis ATL 04/28/1991 ATL @ DET L 26 15 5 10 50.0 2 2 100.0 3 5 60.0 2 7 9 2 0 0 0 5 -
p40
aVSidney Moncrief ATL 04/28/1991 ATL @ DET L 19 6 2 5 40.0 0 2 0.0 2 2 100.0 1 1 2 1 0 0 1 2 -
p41
aVJohn Battle ATL 04/28/1991 ATL @ DET L 26 13 4 8 50.0 1 2 50.0 4 4 100.0 2 1 3 1 1 0 2 2 -
p42
aVDominique Wilkins ATL 04/28/1991 ATL @ DET L 42 20 5 14 35.7 0 2 0.0 10 12 83.3 1 3 4 5 2 3 1 2 -
p43
aVMoses Malone ATL 04/26/1991 ATL @ DET W 15 4 1 3 33.3 0 0 - 2 2 100.0 3 3 6 1 0 0 0 1 -
p44
aVDuane Ferrell ATL 04/26/1991 ATL @ DET W 15 4 2 3 66.7 0 0 - 0 0 - 0 3 3 0 0 0 1 3 -
p45
aVJohn Battle ATL 04/26/1991 ATL @ DET W 27 16 6 11 54.5 0 0 - 4 4 100.0 0 1 1 3 0 0 3 2 -
p46
aVSidney Moncrief ATL 04/26/1991 ATL @ DET W 15 3 0 1 0.0 0 0 - 3 4 75.0 1 2 3 0 0 0 0 4 -
p47
aVDominique Wilkins ATL 04/26/1991 ATL @ DET W 42 32 11 24 45.8 2 5 40.0 8 9 88.9 1 6 7 2 1 1 1 1 -
p48
aVKevin Willis ATL 04/26/1991 ATL @ DET W 31 12 3 10 30.0 0 0 - 6 6 100.0 3 5 8 0 0 0 0 4 -
p49
aVJon Koncak ATL 04/26/1991 ATL @ DET W 33 0 0 1 0.0 0 0 - 0 0 - 0 4 4 1 1 0 0 3 -
p50
aVSpud Webb ATL 04/26/1991 ATL @ DET W 26 18 6 9 66.7 2 2 100.0 4 5 80.0 1 3 4 3 2 0 4 4 -
p51
aVDoc Rivers ATL 04/26/1991 ATL @ DET W 36 14 6 12 50.0 0 1 0.0 2 2 100.0 0 3 3 2 3 1 0 2 -
p52
a.