(lp0
VPLAYER TEAM DATE MATCHUP W/L MIN PTS FGM FGA FG% 3PM 3PA 3P% FTM FTA FT% OREB DREB REB AST STL BLK TOV PF +/-
p1
aVBill Laimbeer DET 04/21/1991 DET @ CHI L 14 6 3 9 33.3 0 1 0.0 0 0 - 1 2 3 1 0 1 1 2 -
p2
aVWilliam Bedford DET 04/21/1991 DET @ CHI L 33 11 5 11 45.5 0 0 - 1 1 100.0 2 8 10 3 0 0 2 3 -
p3
aVDennis Rodman DET 04/21/1991 DET @ CHI L 38 15 7 10 70.0 1 2 50.0 0 0 - 5 7 12 2 3 0 0 5 -
p4
aVLance Blanks DET 04/21/1991 DET @ CHI L 4 2 1 1 100.0 0 1 0.0 0 0 - 0 1 1 2 0 0 0 1 -
p5
aVTree Rollins DET 04/21/1991 DET @ CHI L 9 2 1 2 50.0 0 0 - 0 0 - 0 1 1 0 0 1 2 0 -
p6
aVJoe Dumars DET 04/21/1991 DET @ CHI L 39 22 9 21 42.9 0 3 0.0 4 4 100.0 1 0 1 8 1 0 4 2 -
p7
aVIsiah Thomas DET 04/21/1991 DET @ CHI L 31 7 1 8 12.5 1 3 33.3 4 4 100.0 0 1 1 8 1 0 4 0 -
p8
aVJohn Salley DET 04/21/1991 DET @ CHI L 28 20 6 10 60.0 0 0 - 8 12 66.7 2 3 5 1 0 2 1 6 -
p9
aVScott Hastings DET 04/21/1991 DET @ CHI L 22 7 2 4 50.0 1 1 100.0 2 2 100.0 3 3 6 1 0 0 2 5 -
p10
aVVinnie Johnson DET 04/21/1991 DET @ CHI L 22 8 4 15 26.7 0 1 0.0 0 2 0.0 1 3 4 2 1 0 0 3 -
p11
aVWilliam Bedford DET 04/19/1991 DET @ ATL W 19 5 2 7 28.6 0 0 - 1 4 25.0 1 3 4 0 0 1 2 3 -
p12
aVBill Laimbeer DET 04/19/1991 DET @ ATL W 36 10 5 9 55.6 0 0 - 0 0 - 1 12 13 0 0 0 1 5 -
p13
aVTree Rollins DET 04/19/1991 DET @ ATL W 7 3 0 0 - 0 0 - 3 4 75.0 0 2 2 0 1 0 1 0 -
p14
aVJoe Dumars DET 04/19/1991 DET @ ATL W 38 42 16 23 69.6 2 2 100.0 8 10 80.0 1 0 1 3 2 0 2 1 -
p15
aVJohn Salley DET 04/19/1991 DET @ ATL W 28 9 2 4 50.0 0 0 - 5 6 83.3 1 3 4 2 1 3 2 5 -
p16
aVDennis Rodman DET 04/19/1991 DET @ ATL W 29 13 4 6 66.7 0 0 - 5 6 83.3 4 4 8 1 0 1 1 6 -
p17
aVMark Aguirre DET 04/19/1991 DET @ ATL W 25 17 6 13 46.2 2 4 50.0 3 4 75.0 0 1 1 2 0 0 1 2 -
p18
aVVinnie Johnson DET 04/19/1991 DET @ ATL W 16 7 2 5 40.0 0 0 - 3 6 50.0 1 3 4 1 0 0 2 4 -
p19
aVIsiah Thomas DET 04/19/1991 DET @ ATL W 42 20 7 11 63.6 2 2 100.0 4 6 66.7 0 5 5 15 1 0 4 5 -
p20
aVTree Rollins DET 04/16/1991 DET vs. BOS W 8 0 0 0 - 0 0 - 0 0 - 0 0 0 1 0 0 1 1 -
p21
aVJohn Salley DET 04/16/1991 DET vs. BOS W 28 16 3 7 42.9 0 0 - 10 12 83.3 0 3 3 4 1 1 1 3 -
p22
aVGerald Henderson DET 04/16/1991 DET vs. BOS W 5 3 1 1 100.0 1 1 100.0 0 0 - 0 0 0 0 0 0 1 1 -
p23
aVDennis Rodman DET 04/16/1991 DET vs. BOS W 37 12 6 10 60.0 0 1 0.0 0 0 - 6 12 18 0 2 2 1 2 -
p24
aVIsiah Thomas DET 04/16/1991 DET vs. BOS W 34 25 10 19 52.6 1 2 50.0 4 6 66.7 0 0 0 7 2 0 4 0 -
p25
aVWilliam Bedford DET 04/16/1991 DET vs. BOS W 31 8 2 10 20.0 0 0 - 4 4 100.0 5 4 9 3 0 2 0 1 -
p26
aVScott Hastings DET 04/16/1991 DET vs. BOS W 3 2 1 1 100.0 0 0 - 0 0 - 0 1 1 0 0 0 0 1 -
p27
aVVinnie Johnson DET 04/16/1991 DET vs. BOS W 29 19 7 13 53.8 0 1 0.0 5 6 83.3 2 2 4 5 4 0 1 4 -
p28
aVBill Laimbeer DET 04/16/1991 DET vs. BOS W 36 11 3 9 33.3 0 0 - 5 6 83.3 2 2 4 0 0 2 2 3 -
p29
aVJoe Dumars DET 04/16/1991 DET vs. BOS W 29 22 9 17 52.9 0 1 0.0 4 5 80.0 2 3 5 3 3 0 2 1 -
p30
aVJohn Salley DET 04/14/1991 DET @ IND L 24 13 6 11 54.5 0 0 - 1 2 50.0 3 4 7 2 0 1 0 3 -
p31
aVBill Laimbeer DET 04/14/1991 DET @ IND L 36 19 8 12 66.7 0 0 - 3 4 75.0 4 10 14 0 0 2 4 4 -
p32
aVScott Hastings DET 04/14/1991 DET @ IND L 6 2 1 3 33.3 0 1 0.0 0 0 - 2 0 2 1 0 0 0 3 -
p33
aVDennis Rodman DET 04/14/1991 DET @ IND L 43 12 5 9 55.6 0 1 0.0 2 2 100.0 5 7 12 1 0 0 0 5 -
p34
aVVinnie Johnson DET 04/14/1991 DET @ IND L 30 24 11 19 57.9 2 2 100.0 0 0 - 4 1 5 3 1 0 3 4 -
p35
aVWilliam Bedford DET 04/14/1991 DET @ IND L 27 14 6 11 54.5 0 0 - 2 4 50.0 1 3 4 3 0 0 4 4 -
p36
aVGerald Henderson DET 04/14/1991 DET @ IND L 2 0 0 0 - 0 0 - 0 0 - 0 0 0 1 0 0 1 0 -
p37
aVIsiah Thomas DET 04/14/1991 DET @ IND L 33 11 5 18 27.8 1 1 100.0 0 2 0.0 0 2 2 9 2 0 5 6 -
p38
aVJoe Dumars DET 04/14/1991 DET @ IND L 39 12 6 16 37.5 0 0 - 0 0 - 2 1 3 2 1 0 0 2 -
p39
aVVinnie Johnson DET 04/12/1991 DET vs. CHI W 14 2 0 2 0.0 0 0 - 2 2 100.0 0 1 1 1 0 0 0 0 -
p40
aVTree Rollins DET 04/12/1991 DET vs. CHI W 12 4 1 3 33.3 0 0 - 2 2 100.0 0 1 1 0 1 0 0 1 -
p41
aVBill Laimbeer DET 04/12/1991 DET vs. CHI W 36 22 9 13 69.2 0 0 - 4 4 100.0 1 8 9 0 0 0 1 2 -
p42
aVJoe Dumars DET 04/12/1991 DET vs. CHI W 43 20 8 16 50.0 0 1 0.0 4 4 100.0 1 3 4 2 0 0 1 3 -
p43
aVIsiah Thomas DET 04/12/1991 DET vs. CHI W 39 26 9 23 39.1 2 4 50.0 6 7 85.7 1 3 4 16 0 0 3 3 -
p44
aVMark Aguirre DET 04/12/1991 DET vs. CHI W 31 7 3 11 27.3 0 0 - 1 2 50.0 1 2 3 4 0 0 2 3 -
p45
aVJohn Salley DET 04/12/1991 DET vs. CHI W 35 12 4 5 80.0 0 0 - 4 4 100.0 0 4 4 0 0 2 5 2 -
p46
aVDennis Rodman DET 04/12/1991 DET vs. CHI W 30 2 1 6 16.7 0 0 - 0 0 - 7 5 12 0 1 0 0 6 -
p47
aVJames Edwards DET 04/10/1991 DET vs. CLE L 9 4 2 4 50.0 0 0 - 0 0 - 0 1 1 0 0 0 1 1 -
p48
aVJohn Salley DET 04/10/1991 DET vs. CLE L 26 12 3 7 42.9 0 0 - 6 6 100.0 2 2 4 1 0 1 0 3 -
p49
aVVinnie Johnson DET 04/10/1991 DET vs. CLE L 23 3 1 6 16.7 0 0 - 1 2 50.0 1 1 2 3 1 0 2 1 -
p50
aVIsiah Thomas DET 04/10/1991 DET vs. CLE L 34 20 6 15 40.0 0 2 0.0 8 10 80.0 0 3 3 7 0 0 5 6 -
p51
aVBill Laimbeer DET 04/10/1991 DET vs. CLE L 42 16 7 14 50.0 1 1 100.0 1 1 100.0 3 16 19 1 2 0 1 3 -
p52
aVDennis Rodman DET 04/10/1991 DET vs. CLE L 35 2 1 5 20.0 0 0 - 0 0 - 4 10 14 0 0 1 2 4 -
p53
aVWilliam Bedford DET 04/10/1991 DET vs. CLE L 2 0 0 0 - 0 0 - 0 0 - 0 0 0 0 0 0 0 1 -
p54
aVJoe Dumars DET 04/10/1991 DET vs. CLE L 39 16 7 16 43.8 1 1 100.0 1 2 50.0 1 0 1 5 1 0 2 1 -
p55
aVMark Aguirre DET 04/10/1991 DET vs. CLE L 30 17 7 14 50.0 0 1 0.0 3 4 75.0 3 2 5 0 0 0 4 4 -
p56
aVVinnie Johnson DET 04/09/1991 DET @ MIL L 27 11 4 14 28.6 0 0 - 3 4 75.0 1 1 2 5 0 1 0 2 -
p57
aVDennis Rodman DET 04/09/1991 DET @ MIL L 34 4 2 4 50.0 0 1 0.0 0 0 - 3 9 12 1 0 1 4 5 -
p58
aVJoe Dumars DET 04/09/1991 DET @ MIL L 39 42 19 24 79.2 1 1 100.0 3 3 100.0 0 2 2 1 0 0 3 2 -
p59
aVWilliam Bedford DET 04/09/1991 DET @ MIL L 5 2 0 1 0.0 0 1 0.0 2 2 100.0 0 1 1 0 0 1 0 0 -
p60
aVJames Edwards DET 04/09/1991 DET @ MIL L 20 7 3 7 42.9 0 0 - 1 3 33.3 0 1 1 0 1 0 3 5 -
p61
aVIsiah Thomas DET 04/09/1991 DET @ MIL L 35 12 4 13 30.8 0 2 0.0 4 6 66.7 1 1 2 11 3 0 4 3 -
p62
aVJohn Salley DET 04/09/1991 DET @ MIL L 20 4 1 3 33.3 0 0 - 2 2 100.0 1 4 5 0 1 2 2 5 -
p63
aVMark Aguirre DET 04/09/1991 DET @ MIL L 20 5 2 6 33.3 0 1 0.0 1 2 50.0 0 5 5 1 0 0 0 3 -
p64
aVBill Laimbeer DET 04/09/1991 DET @ MIL L 38 8 4 7 57.1 0 0 - 0 0 - 3 5 8 4 0 1 2 1 -
p65
aVScott Hastings DET 04/09/1991 DET @ MIL L 1 0 0 0 - 0 0 - 0 0 - 0 0 0 0 0 0 0 0 -
p66
aVGerald Henderson DET 04/09/1991 DET @ MIL L 1 0 0 0 - 0 0 - 0 0 - 0 0 0 0 0 0 0 0 -
p67
aVScott Hastings DET 04/06/1991 DET @ NYK L 3 2 1 2 50.0 0 0 - 0 0 - 2 0 2 0 0 0 0 0 -
p68
aVJohn Salley DET 04/06/1991 DET @ NYK L 17 2 1 5 20.0 0 0 - 0 0 - 3 4 7 0 0 0 1 3 -
p69
aVGerald Henderson DET 04/06/1991 DET @ NYK L 4 4 2 5 40.0 0 1 0.0 0 0 - 1 0 1 0 0 0 0 0 -
p70
aVTree Rollins DET 04/06/1991 DET @ NYK L 10 0 0 0 - 0 0 - 0 0 - 0 1 1 0 0 4 0 4 -
p71
aVWilliam Bedford DET 04/06/1991 DET @ NYK L 8 2 1 3 33.3 0 0 - 0 0 - 0 0 0 0 0 0 0 2 -
p72
aVMark Aguirre DET 04/06/1991 DET @ NYK L 38 12 4 13 30.8 0 2 0.0 4 7 57.1 3 3 6 2 0 1 2 1 -
p73
aVIsiah Thomas DET 04/06/1991 DET @ NYK L 32 16 5 14 35.7 0 1 0.0 6 7 85.7 1 2 3 5 1 0 6 3 -
p74
aVJoe Dumars DET 04/06/1991 DET @ NYK L 40 30 14 19 73.7 0 0 - 2 2 100.0 0 3 3 3 0 0 2 3 -
p75
aVVinnie Johnson DET 04/06/1991 DET @ NYK L 26 10 5 15 33.3 0 2 0.0 0 0 - 3 0 3 2 1 0 1 2 -
p76
aVBill Laimbeer DET 04/06/1991 DET @ NYK L 24 6 3 10 30.0 0 0 - 0 0 - 4 5 9 1 1 2 1 5 -
p77
aVDennis Rodman DET 04/06/1991 DET @ NYK L 38 4 2 6 33.3 0 0 - 0 0 - 5 6 11 0 0 0 3 4 -
p78
aVGerald Henderson DET 04/05/1991 DET vs. MIN W 3 0 0 0 - 0 0 - 0 0 - 0 1 1 2 0 0 0 0 -
p79
aVScott Hastings DET 04/05/1991 DET vs. MIN W 1 2 0 0 - 0 0 - 2 2 100.0 0 0 0 0 0 0 0 0 -
p80
aVJohn Salley DET 04/05/1991 DET vs. MIN W 25 19 7 9 77.8 0 0 - 5 7 71.4 3 0 3 2 0 0 1 4 -
p81
aVJoe Dumars DET 04/05/1991 DET vs. MIN W 32 15 6 11 54.5 0 0 - 3 4 75.0 0 2 2 8 0 0 3 0 -
p82
aVDennis Rodman DET 04/05/1991 DET vs. MIN W 35 4 2 6 33.3 0 1 0.0 0 0 - 3 10 13 1 1 2 1 3 -
p83
aVBill Laimbeer DET 04/05/1991 DET vs. MIN W 36 14 6 11 54.5 0 0 - 2 2 100.0 2 13 15 1 0 0 2 2 -
p84
aVTree Rollins DET 04/05/1991 DET vs. MIN W 1 2 1 1 100.0 0 0 - 0 0 - 0 0 0 0 0 0 0 0 -
p85
aVWilliam Bedford DET 04/05/1991 DET vs. MIN W 9 6 2 5 40.0 0 0 - 2 2 100.0 0 1 1 0 0 1 0 1 -
p86
aVIsiah Thomas DET 04/05/1991 DET vs. MIN W 33 15 4 7 57.1 0 1 0.0 7 8 87.5 0 2 2 11 2 0 2 1 -
p87
aVMark Aguirre DET 04/05/1991 DET vs. MIN W 37 20 9 17 52.9 0 2 0.0 2 2 100.0 4 5 9 4 0 1 2 2 -
p88
aVVinnie Johnson DET 04/05/1991 DET vs. MIN W 28 4 2 7 28.6 0 0 - 0 0 - 0 1 1 1 0 0 3 2 -
p89
aVDennis Rodman DET 04/02/1991 DET @ CHH W 42 4 2 4 50.0 0 0 - 0 0 - 3 9 12 1 0 2 0 3 -
p90
aVWilliam Bedford DET 04/02/1991 DET @ CHH W 7 4 1 2 50.0 0 0 - 2 4 50.0 0 1 1 0 0 2 0 0 -
p91
aVJoe Dumars DET 04/02/1991 DET @ CHH W 41 24 9 20 45.0 1 1 100.0 5 5 100.0 2 1 3 3 0 1 1 3 -
p92
aVVinnie Johnson DET 04/02/1991 DET @ CHH W 35 11 5 15 33.3 0 0 - 1 2 50.0 2 1 3 3 0 1 5 2 -
p93
aVBill Laimbeer DET 04/02/1991 DET @ CHH W 32 12 6 9 66.7 0 0 - 0 1 0.0 3 6 9 1 0 0 1 5 -
p94
aVGerald Henderson DET 04/02/1991 DET @ CHH W 20 2 1 4 25.0 0 1 0.0 0 0 - 0 1 1 1 0 0 1 0 -
p95
aVMark Aguirre DET 04/02/1991 DET @ CHH W 38 23 8 17 47.1 1 2 50.0 6 6 100.0 1 5 6 5 1 0 5 3 -
p96
aVJohn Salley DET 04/02/1991 DET @ CHH W 25 3 0 2 0.0 0 0 - 3 4 75.0 1 6 7 1 1 2 2 4 -
p97
aVMark Aguirre DET 03/29/1991 DET vs. GOS W 38 29 10 18 55.6 0 2 0.0 9 10 90.0 6 5 11 3 0 0 4 5 -
p98
aVDennis Rodman DET 03/29/1991 DET vs. GOS W 31 4 1 3 33.3 0 0 - 2 4 50.0 7 12 19 0 0 0 5 4 -
p99
aVBill Laimbeer DET 03/29/1991 DET vs. GOS W 43 24 9 15 60.0 0 0 - 6 7 85.7 5 8 13 1 1 1 1 6 -
p100
aVJoe Dumars DET 03/29/1991 DET vs. GOS W 41 21 6 13 46.2 0 0 - 9 9 100.0 0 2 2 8 0 0 2 2 -
p101
aVWilliam Bedford DET 03/29/1991 DET vs. GOS W 3 2 1 1 100.0 0 0 - 0 0 - 0 1 1 0 0 0 0 0 -
p102
aVGerald Henderson DET 03/29/1991 DET vs. GOS W 18 2 1 6 16.7 0 0 - 0 0 - 0 1 1 4 2 0 1 4 -
p103
aVJohn Salley DET 03/29/1991 DET vs. GOS W 15 5 1 2 50.0 0 0 - 3 4 75.0 0 1 1 0 0 0 2 5 -
p104
aVJohn Long DET 03/29/1991 DET vs. GOS W 14 2 1 6 16.7 0 0 - 0 0 - 0 1 1 3 0 1 0 1 -
p105
aVVinnie Johnson DET 03/29/1991 DET vs. GOS W 37 22 9 18 50.0 0 1 0.0 4 5 80.0 2 2 4 3 0 0 1 3 -
p106
aVJohn Long DET 03/27/1991 DET vs. IND W 2 2 1 1 100.0 0 0 - 0 0 - 0 0 0 0 0 0 1 0 -
p107
aVJoe Dumars DET 03/27/1991 DET vs. IND W 34 23 10 19 52.6 0 0 - 3 3 100.0 0 0 0 6 2 0 6 3 -
p108
aVJohn Salley DET 03/27/1991 DET vs. IND W 7 1 0 1 0.0 0 0 - 1 2 50.0 0 1 1 0 0 2 2 3 -
p109
aVDennis Rodman DET 03/27/1991 DET vs. IND W 44 19 8 12 66.7 0 0 - 3 4 75.0 9 10 19 1 1 2 3 3 -
p110
aVBill Laimbeer DET 03/27/1991 DET vs. IND W 36 10 4 8 50.0 0 0 - 2 2 100.0 4 4 8 6 0 1 0 4 -
p111
aVVinnie Johnson DET 03/27/1991 DET vs. IND W 35 10 4 11 36.4 0 0 - 2 4 50.0 2 5 7 2 1 1 1 4 -
p112
aVJames Edwards DET 03/27/1991 DET vs. IND W 23 13 6 12 50.0 0 0 - 1 4 25.0 2 3 5 1 0 0 1 1 -
p113
aVWilliam Bedford DET 03/27/1991 DET vs. IND W 3 0 0 1 0.0 0 0 - 0 0 - 1 0 1 0 0 0 0 0 -
p114
aVMark Aguirre DET 03/27/1991 DET vs. IND W 29 17 7 11 63.6 0 1 0.0 3 6 50.0 1 2 3 2 1 0 1 3 -
p115
aVGerald Henderson DET 03/27/1991 DET vs. IND W 27 7 3 8 37.5 1 2 50.0 0 0 - 0 2 2 2 0 0 2 2 -
p116
aVJohn Long DET 03/25/1991 DET @ DEN W 5 4 2 3 66.7 0 0 - 0 0 - 0 0 0 0 0 0 1 0 -
p117
aVJoe Dumars DET 03/25/1991 DET @ DEN W 39 18 6 12 50.0 0 0 - 6 6 100.0 0 4 4 10 0 0 3 2 -
p118
aVVinnie Johnson DET 03/25/1991 DET @ DEN W 32 27 11 15 73.3 0 0 - 5 6 83.3 0 1 1 4 1 0 4 1 -
p119
aVMark Aguirre DET 03/25/1991 DET @ DEN W 18 7 1 2 50.0 0 0 - 5 6 83.3 0 6 6 0 0 0 0 1 -
p120
aVDennis Rodman DET 03/25/1991 DET @ DEN W 28 4 1 6 16.7 0 0 - 2 4 50.0 2 15 17 0 1 0 1 5 -
p121
aVWilliam Bedford DET 03/25/1991 DET @ DEN W 12 10 5 7 71.4 0 0 - 0 0 - 2 1 3 0 0 0 0 1 -
p122
aVGerald Henderson DET 03/25/1991 DET @ DEN W 20 6 3 5 60.0 0 0 - 0 0 - 0 1 1 3 0 0 3 5 -
p123
aVScott Hastings DET 03/25/1991 DET @ DEN W 2 0 0 1 0.0 0 0 - 0 0 - 0 1 1 0 0 0 0 0 -
p124
aVJames Edwards DET 03/25/1991 DET @ DEN W 36 32 12 18 66.7 0 0 - 8 10 80.0 2 7 9 2 1 2 3 2 -
p125
aVBill Laimbeer DET 03/25/1991 DET @ DEN W 14 2 1 4 25.0 0 0 - 0 0 - 2 2 4 0 0 0 0 4 -
p126
aVJohn Salley DET 03/25/1991 DET @ DEN W 34 8 3 5 60.0 0 0 - 2 4 50.0 1 4 5 0 2 2 1 4 -
p127
aVJohn Salley DET 03/24/1991 DET @ SAN L 28 8 3 6 50.0 0 0 - 2 4 50.0 1 6 7 2 1 4 1 5 -
p128
aVMark Aguirre DET 03/24/1991 DET @ SAN L 20 10 5 12 41.7 0 0 - 0 0 - 2 1 3 1 0 0 2 4 -
p129
aVJames Edwards DET 03/24/1991 DET @ SAN L 33 19 9 20 45.0 0 0 - 1 1 100.0 2 2 4 1 0 0 3 3 -
p130
aVDennis Rodman DET 03/24/1991 DET @ SAN L 29 2 1 8 12.5 0 1 0.0 0 0 - 4 13 17 2 0 0 3 2 -
p131
aVBill Laimbeer DET 03/24/1991 DET @ SAN L 34 6 3 10 30.0 0 1 0.0 0 0 - 5 10 15 2 1 2 1 4 -
p132
aVJoe Dumars DET 03/24/1991 DET @ SAN L 41 22 7 23 30.4 0 0 - 8 8 100.0 1 0 1 3 1 0 2 4 -
p133
aVVinnie Johnson DET 03/24/1991 DET @ SAN L 29 6 3 10 30.0 0 0 - 0 0 - 3 3 6 1 1 0 4 3 -
p134
aVGerald Henderson DET 03/24/1991 DET @ SAN L 26 5 2 9 22.2 1 2 50.0 0 0 - 2 2 4 5 2 0 1 2 -
p135
aVGerald Henderson DET 03/22/1991 DET vs. NJN W 25 5 2 6 33.3 0 1 0.0 1 2 50.0 0 5 5 3 1 0 2 0 -
p136
aVScott Hastings DET 03/22/1991 DET vs. NJN W 2 0 0 0 - 0 0 - 0 0 - 0 0 0 0 0 0 0 0 -
p137
aVBill Laimbeer DET 03/22/1991 DET vs. NJN W 35 12 6 13 46.2 0 0 - 0 0 - 2 10 12 2 2 1 1 3 -
p138
aVJoe Dumars DET 03/22/1991 DET vs. NJN W 37 18 9 18 50.0 0 0 - 0 0 - 0 1 1 12 1 0 2 1 -
p139
aVJohn Salley DET 03/22/1991 DET vs. NJN W 24 13 3 5 60.0 0 0 - 7 11 63.6 4 4 8 1 0 3 1 4 -
p140
aVWilliam Bedford DET 03/22/1991 DET vs. NJN W 8 2 1 4 25.0 0 0 - 0 0 - 2 4 6 0 0 0 0 3 -
p141
aVJames Edwards DET 03/22/1991 DET vs. NJN W 25 18 7 13 53.8 0 0 - 4 4 100.0 0 1 1 1 0 0 1 2 -
p142
aVVinnie Johnson DET 03/22/1991 DET vs. NJN W 29 20 8 13 61.5 0 0 - 4 6 66.7 2 2 4 4 1 1 0 3 -
p143
aVJohn Long DET 03/22/1991 DET vs. NJN W 6 2 1 2 50.0 0 0 - 0 0 - 0 1 1 0 1 0 1 1 -
p144
aVMark Aguirre DET 03/22/1991 DET vs. NJN W 20 17 6 11 54.5 0 0 - 5 7 71.4 0 1 1 2 1 0 4 4 -
p145
aVDennis Rodman DET 03/22/1991 DET vs. NJN W 29 2 1 4 25.0 0 0 - 0 0 - 5 9 14 1 1 0 0 1 -
p146
aVJohn Long DET 03/20/1991 DET @ PHL L 3 0 0 0 - 0 0 - 0 0 - 0 0 0 1 0 0 1 1 -
p147
aVJames Edwards DET 03/20/1991 DET @ PHL L 18 16 4 8 50.0 0 0 - 8 9 88.9 1 2 3 0 0 0 1 6 -
p148
aVWilliam Bedford DET 03/20/1991 DET @ PHL L 12 7 3 7 42.9 0 1 0.0 1 2 50.0 3 0 3 1 0 0 0 2 -
p149
aVJohn Salley DET 03/20/1991 DET @ PHL L 35 13 5 10 50.0 0 1 0.0 3 3 100.0 1 3 4 4 1 2 2 6 -
p150
aVGerald Henderson DET 03/20/1991 DET @ PHL L 24 7 3 7 42.9 0 2 0.0 1 1 100.0 0 1 1 4 1 0 1 1 -
p151
aVJoe Dumars DET 03/20/1991 DET @ PHL L 46 18 8 17 47.1 0 1 0.0 2 2 100.0 0 2 2 8 1 0 5 2 -
p152
aVBill Laimbeer DET 03/20/1991 DET @ PHL L 34 15 7 12 58.3 0 1 0.0 1 1 100.0 2 6 8 2 0 0 1 3 -
p153
aVDennis Rodman DET 03/20/1991 DET @ PHL L 28 16 8 11 72.7 0 1 0.0 0 0 - 5 6 11 1 2 0 0 5 -
p154
aVVinnie Johnson DET 03/20/1991 DET @ PHL L 36 11 5 16 31.3 1 2 50.0 0 0 - 2 4 6 8 2 0 1 2 -
p155
aVTree Rollins DET 03/20/1991 DET @ PHL L 4 0 0 1 0.0 0 0 - 0 0 - 0 1 1 0 0 0 0 0 -
p156
aVJames Edwards DET 03/16/1991 DET vs. ORL W 22 4 2 10 20.0 0 0 - 0 0 - 1 2 3 0 1 0 3 3 -
p157
aVDennis Rodman DET 03/16/1991 DET vs. ORL W 37 7 3 10 30.0 1 3 33.3 0 0 - 4 9 13 0 1 2 1 4 -
p158
aVMark Aguirre DET 03/16/1991 DET vs. ORL W 26 17 5 10 50.0 1 1 100.0 6 8 75.0 0 5 5 3 1 0 1 5 -
p159
aVVinnie Johnson DET 03/16/1991 DET vs. ORL W 27 21 10 18 55.6 0 0 - 1 1 100.0 1 2 3 2 1 0 1 3 -
p160
aVJohn Salley DET 03/16/1991 DET vs. ORL W 33 10 3 8 37.5 0 0 - 4 6 66.7 3 1 4 0 1 5 0 3 -
p161
aVGerald Henderson DET 03/16/1991 DET vs. ORL W 25 2 1 1 100.0 0 0 - 0 0 - 1 2 3 9 0 0 1 3 -
p162
aVBill Laimbeer DET 03/16/1991 DET vs. ORL W 31 20 9 13 69.2 0 2 0.0 2 2 100.0 2 8 10 4 0 0 0 4 -
p163
aVJohn Long DET 03/16/1991 DET vs. ORL W 1 4 0 0 - 0 0 - 4 4 100.0 0 0 0 0 0 0 0 0 -
p164
aVJoe Dumars DET 03/16/1991 DET vs. ORL W 38 21 8 15 53.3 0 0 - 5 5 100.0 1 0 1 8 2 0 4 2 -
p165
aVJohn Salley DET 03/14/1991 DET @ NJN L 26 3 1 6 16.7 0 0 - 1 1 100.0 3 5 8 0 0 3 2 2 -
p166
aVMark Aguirre DET 03/14/1991 DET @ NJN L 26 10 3 11 27.3 0 3 0.0 4 4 100.0 3 7 10 3 0 0 3 3 -
p167
aVVinnie Johnson DET 03/14/1991 DET @ NJN L 36 20 6 14 42.9 1 1 100.0 7 7 100.0 1 0 1 2 1 0 3 5 -
p168
aVDennis Rodman DET 03/14/1991 DET @ NJN L 26 8 4 8 50.0 0 2 0.0 0 0 - 3 5 8 0 0 0 1 4 -
p169
aVScott Hastings DET 03/14/1991 DET @ NJN L 6 2 1 1 100.0 0 0 - 0 0 - 1 1 2 0 0 0 1 4 -
p170
aVJoe Dumars DET 03/14/1991 DET @ NJN L 36 21 8 16 50.0 0 1 0.0 5 5 100.0 0 0 0 4 1 0 4 3 -
p171
aVBill Laimbeer DET 03/14/1991 DET @ NJN L 22 10 5 8 62.5 0 0 - 0 0 - 1 2 3 1 0 0 0 3 -
p172
aVGerald Henderson DET 03/14/1991 DET @ NJN L 25 15 5 10 50.0 1 2 50.0 4 7 57.1 3 1 4 7 2 1 0 3 -
p173
aVJames Edwards DET 03/14/1991 DET @ NJN L 36 21 9 15 60.0 0 0 - 3 4 75.0 3 2 5 1 2 1 5 6 -
p174
aVWilliam Bedford DET 03/14/1991 DET @ NJN L 1 0 0 0 - 0 0 - 0 0 - 0 0 0 0 0 0 0 0 -
p175
aVBill Laimbeer DET 03/13/1991 DET vs. CHH W 18 2 1 5 20.0 0 0 - 0 0 - 4 3 7 0 0 0 1 4 -
p176
aVMark Aguirre DET 03/13/1991 DET vs. CHH W 21 8 4 6 66.7 0 0 - 0 0 - 1 1 2 4 0 0 0 4 -
p177
aVJoe Dumars DET 03/13/1991 DET vs. CHH W 45 26 9 23 39.1 1 2 50.0 7 7 100.0 3 2 5 6 1 0 3 1 -
p178
aVVinnie Johnson DET 03/13/1991 DET vs. CHH W 26 4 2 10 20.0 0 0 - 0 1 0.0 0 2 2 2 0 0 2 1 -
p179
aVJames Edwards DET 03/13/1991 DET vs. CHH W 33 14 7 13 53.8 0 0 - 0 0 - 1 4 5 2 1 0 2 4 -
p180
aVDennis Rodman DET 03/13/1991 DET vs. CHH W 38 6 2 6 33.3 0 1 0.0 2 2 100.0 4 13 17 3 2 0 3 3 -
p181
aVWilliam Bedford DET 03/13/1991 DET vs. CHH W 3 2 0 2 0.0 0 0 - 2 2 100.0 0 1 1 0 0 0 0 2 -
p182
aVGerald Henderson DET 03/13/1991 DET vs. CHH W 25 19 8 8 100.0 1 1 100.0 2 2 100.0 0 1 1 2 0 0 2 2 -
p183
aVJohn Salley DET 03/13/1991 DET vs. CHH W 31 13 5 10 50.0 0 0 - 3 5 60.0 5 5 10 0 1 3 1 3 -
p184
aVGerald Henderson DET 03/11/1991 DET vs. MIL L 14 2 1 3 33.3 0 0 - 0 0 - 0 3 3 5 2 0 1 2 -
p185
aVJohn Salley DET 03/11/1991 DET vs. MIL L 33 8 4 8 50.0 0 0 - 0 0 - 3 4 7 3 0 3 2 4 -
p186
aVBill Laimbeer DET 03/11/1991 DET vs. MIL L 26 8 4 9 44.4 0 1 0.0 0 0 - 1 6 7 3 0 2 4 3 -
p187
aVScott Hastings DET 03/11/1991 DET vs. MIL L 3 2 1 1 100.0 0 0 - 0 0 - 0 0 0 1 0 0 0 0 -
p188
aVJoe Dumars DET 03/11/1991 DET vs. MIL L 41 17 7 15 46.7 0 1 0.0 3 3 100.0 0 0 0 5 3 0 4 2 -
p189
aVMark Aguirre DET 03/11/1991 DET vs. MIL L 22 10 3 9 33.3 0 1 0.0 4 4 100.0 2 1 3 2 0 0 2 2 -
p190
aVJohn Long DET 03/11/1991 DET vs. MIL L 3 2 1 1 100.0 0 0 - 0 0 - 0 1 1 0 0 0 0 1 -
p191
aVDennis Rodman DET 03/11/1991 DET vs. MIL L 37 10 4 6 66.7 0 0 - 2 4 50.0 3 7 10 0 1 0 0 3 -
p192
aVJames Edwards DET 03/11/1991 DET vs. MIL L 16 8 4 8 50.0 0 0 - 0 0 - 0 2 2 1 0 0 2 4 -
p193
aVVinnie Johnson DET 03/11/1991 DET vs. MIL L 38 16 6 17 35.3 0 0 - 4 4 100.0 2 6 8 1 0 0 0 2 -
p194
aVWilliam Bedford DET 03/11/1991 DET vs. MIL L 7 2 1 4 25.0 0 1 0.0 0 0 - 0 0 0 2 0 0 0 1 -
p195
aVBill Laimbeer DET 03/09/1991 DET @ IND W 29 11 3 11 27.3 1 4 25.0 4 4 100.0 1 5 6 2 0 0 1 2 -
p196
aVJohn Salley DET 03/09/1991 DET @ IND W 17 7 3 6 50.0 0 0 - 1 1 100.0 4 1 5 2 0 1 0 6 -
p197
aVMark Aguirre DET 03/09/1991 DET @ IND W 25 13 4 8 50.0 0 0 - 5 8 62.5 3 3 6 2 0 0 2 2 -
p198
aVGerald Henderson DET 03/09/1991 DET @ IND W 22 6 3 7 42.9 0 2 0.0 0 0 - 0 2 2 3 0 0 2 5 -
p199
aVJames Edwards DET 03/09/1991 DET @ IND W 29 19 7 12 58.3 0 0 - 5 7 71.4 3 0 3 1 0 0 1 3 -
p200
aVJoe Dumars DET 03/09/1991 DET @ IND W 40 23 8 17 47.1 0 0 - 7 9 77.8 1 3 4 10 2 0 1 3 -
p201
aVJohn Long DET 03/09/1991 DET @ IND W 3 0 0 2 0.0 0 0 - 0 0 - 0 0 0 0 0 0 0 0 -
p202
aVDennis Rodman DET 03/09/1991 DET @ IND W 42 10 3 8 37.5 0 0 - 4 8 50.0 9 10 19 1 1 1 1 3 -
p203
aVVinnie Johnson DET 03/09/1991 DET @ IND W 33 25 11 23 47.8 0 0 - 3 4 75.0 4 1 5 3 1 0 0 5 -
p204
aVDennis Rodman DET 03/06/1991 DET vs. NYK L 36 6 3 5 60.0 0 0 - 0 0 - 3 8 11 2 0 1 0 3 -
p205
aVJames Edwards DET 03/06/1991 DET vs. NYK L 30 27 13 16 81.3 0 0 - 1 2 50.0 2 1 3 2 0 0 2 5 -
p206
aVJoe Dumars DET 03/06/1991 DET vs. NYK L 45 26 11 22 50.0 1 3 33.3 3 3 100.0 1 2 3 9 0 0 3 1 -
p207
aVTree Rollins DET 03/06/1991 DET vs. NYK L 9 0 0 0 - 0 0 - 0 2 0.0 0 2 2 0 0 1 0 3 -
p208
aVGerald Henderson DET 03/06/1991 DET vs. NYK L 15 6 2 5 40.0 1 2 50.0 1 1 100.0 1 1 2 2 0 0 0 2 -
p209
aVJohn Salley DET 03/06/1991 DET vs. NYK L 13 2 0 2 0.0 0 0 - 2 2 100.0 0 2 2 2 1 0 1 3 -
p210
aVBill Laimbeer DET 03/06/1991 DET vs. NYK L 35 8 4 8 50.0 0 0 - 0 0 - 3 7 10 4 0 0 2 4 -
p211
aVVinnie Johnson DET 03/06/1991 DET vs. NYK L 29 4 1 8 12.5 0 0 - 2 2 100.0 0 0 0 1 0 0 1 0 -
p212
aVMark Aguirre DET 03/06/1991 DET vs. NYK L 28 20 6 14 42.9 1 3 33.3 7 10 70.0 2 5 7 3 1 0 2 3 -
p213
aVWilliam Bedford DET 03/03/1991 DET vs. LAC W 14 2 1 4 25.0 0 0 - 0 0 - 1 2 3 0 0 2 1 0 -
p214
aVJames Edwards DET 03/03/1991 DET vs. LAC W 40 20 8 17 47.1 0 0 - 4 8 50.0 1 5 6 2 0 2 5 4 -
p215
aVGerald Henderson DET 03/03/1991 DET vs. LAC W 14 0 0 3 0.0 0 0 - 0 0 - 0 1 1 1 0 0 0 0 -
p216
aVDennis Rodman DET 03/03/1991 DET vs. LAC W 31 4 2 6 33.3 0 0 - 0 1 0.0 4 6 10 1 1 1 2 5 -
p217
aVBill Laimbeer DET 03/03/1991 DET vs. LAC W 27 13 6 8 75.0 1 1 100.0 0 0 - 3 17 20 4 0 0 2 4 -
p218
aVJoe Dumars DET 03/03/1991 DET vs. LAC W 42 26 8 15 53.3 1 1 100.0 9 10 90.0 1 0 1 8 1 1 2 1 -
p219
aVMark Aguirre DET 03/03/1991 DET vs. LAC W 32 22 8 14 57.1 2 3 66.7 4 5 80.0 3 1 4 1 0 0 1 2 -
p220
aVVinnie Johnson DET 03/03/1991 DET vs. LAC W 40 20 9 19 47.4 0 1 0.0 2 4 50.0 3 3 6 6 1 0 2 3 -
p221
aVMark Aguirre DET 03/01/1991 DET vs. UTH L 35 18 6 18 33.3 2 2 100.0 4 4 100.0 3 2 5 0 0 0 1 2 -
p222
aVVinnie Johnson DET 03/01/1991 DET vs. UTH L 42 20 9 22 40.9 0 1 0.0 2 3 66.7 1 4 5 3 2 0 1 1 -
p223
aVBill Laimbeer DET 03/01/1991 DET vs. UTH L 24 8 4 5 80.0 0 1 0.0 0 0 - 4 7 11 0 1 0 1 5 -
p224
aVDennis Rodman DET 03/01/1991 DET vs. UTH L 39 7 3 8 37.5 0 0 - 1 4 25.0 7 8 15 2 0 0 2 4 -
p225
aVJames Edwards DET 03/01/1991 DET vs. UTH L 18 12 4 9 44.4 0 0 - 4 6 66.7 1 1 2 0 0 0 1 4 -
p226
aVTree Rollins DET 03/01/1991 DET vs. UTH L 20 0 0 6 0.0 0 0 - 0 0 - 3 3 6 0 0 4 0 1 -
p227
aVScott Hastings DET 03/01/1991 DET vs. UTH L 8 2 1 1 100.0 0 0 - 0 0 - 1 0 1 1 0 0 0 2 -
p228
aVGerald Henderson DET 03/01/1991 DET vs. UTH L 14 4 2 5 40.0 0 0 - 0 0 - 0 1 1 1 0 0 1 3 -
p229
aVJoe Dumars DET 03/01/1991 DET vs. UTH L 40 21 8 13 61.5 0 0 - 5 6 83.3 0 2 2 6 0 0 3 1 -
p230
aVBill Laimbeer DET 02/28/1991 DET @ MIA L 41 14 4 9 44.4 0 0 - 6 7 85.7 6 6 12 1 2 2 0 4 -
p231
aVMark Aguirre DET 02/28/1991 DET @ MIA L 28 1 0 8 0.0 0 0 - 1 2 50.0 1 3 4 0 1 0 1 4 -
p232
aVVinnie Johnson DET 02/28/1991 DET @ MIA L 35 32 13 22 59.1 0 0 - 6 6 100.0 1 4 5 0 2 0 0 2 -
p233
aVJames Edwards DET 02/28/1991 DET @ MIA L 17 3 1 9 11.1 0 0 - 1 2 50.0 0 1 1 2 0 0 0 1 -
p234
aVJohn Long DET 02/28/1991 DET @ MIA L 6 3 1 3 33.3 0 0 - 1 2 50.0 1 0 1 0 0 0 0 1 -
p235
aVWilliam Bedford DET 02/28/1991 DET @ MIA L 7 2 1 5 20.0 0 1 0.0 0 0 - 1 1 2 0 0 1 0 2 -
p236
aVDennis Rodman DET 02/28/1991 DET @ MIA L 44 13 5 9 55.6 0 0 - 3 7 42.9 9 11 20 2 0 1 1 3 -
p237
aVGerald Henderson DET 02/28/1991 DET @ MIA L 19 0 0 5 0.0 0 1 0.0 0 0 - 0 1 1 0 0 1 4 2 -
p238
aVJoe Dumars DET 02/28/1991 DET @ MIA L 43 30 13 26 50.0 0 1 0.0 4 4 100.0 2 2 4 9 1 0 4 3 -
p239
aVLance Blanks DET 02/26/1991 DET @ CLE L 6 2 1 2 50.0 0 1 0.0 0 0 - 0 0 0 0 0 0 1 0 -
p240
aVVinnie Johnson DET 02/26/1991 DET @ CLE L 40 21 10 15 66.7 0 1 0.0 1 1 100.0 1 1 2 4 3 0 5 3 -
p241
aVJames Edwards DET 02/26/1991 DET @ CLE L 25 4 2 6 33.3 0 0 - 0 0 - 0 5 5 0 0 0 2 6 -
p242
aVDennis Rodman DET 02/26/1991 DET @ CLE L 43 15 5 10 50.0 3 4 75.0 2 2 100.0 4 11 15 4 0 0 0 5 -
p243
aVMark Aguirre DET 02/26/1991 DET @ CLE L 38 21 9 18 50.0 0 2 0.0 3 4 75.0 2 3 5 2 0 1 3 5 -
p244
aVWilliam Bedford DET 02/26/1991 DET @ CLE L 5 0 0 2 0.0 0 0 - 0 0 - 0 1 1 0 0 0 0 0 -
p245
aVJohn Long DET 02/26/1991 DET @ CLE L 6 4 2 3 66.7 0 0 - 0 0 - 0 0 0 1 0 0 0 0 -
p246
aVBill Laimbeer DET 02/26/1991 DET @ CLE L 32 12 5 9 55.6 0 1 0.0 2 2 100.0 4 6 10 1 0 0 1 3 -
p247
aVTree Rollins DET 02/26/1991 DET @ CLE L 5 0 0 0 - 0 0 - 0 0 - 0 0 0 1 0 0 1 1 -
p248
aVGerald Henderson DET 02/26/1991 DET @ CLE L 40 24 8 17 47.1 1 3 33.3 7 8 87.5 0 2 2 6 2 0 3 3 -
p249
aVDennis Rodman DET 02/24/1991 DET vs. LAL L 47 15 7 11 63.6 0 0 - 1 2 50.0 7 10 17 1 3 2 2 6 -
p250
aVJoe Dumars DET 02/24/1991 DET vs. LAL L 34 8 3 14 21.4 0 0 - 2 2 100.0 0 1 1 7 0 0 1 5 -
p251
aVLance Blanks DET 02/24/1991 DET vs. LAL L 1 0 0 0 - 0 0 - 0 0 - 0 0 0 0 0 0 0 0 -
p252
aVVinnie Johnson DET 02/24/1991 DET vs. LAL L 49 12 5 15 33.3 0 0 - 2 5 40.0 1 2 3 6 2 0 2 1 -
p253
aVBill Laimbeer DET 02/24/1991 DET vs. LAL L 42 11 5 12 41.7 1 3 33.3 0 1 0.0 4 9 13 2 0 0 2 3 -
p254
aVJohn Long DET 02/24/1991 DET vs. LAL L 4 0 0 1 0.0 0 1 0.0 0 0 - 0 0 0 0 0 0 0 0 -
p255
aVJames Edwards DET 02/24/1991 DET vs. LAL L 42 22 8 13 61.5 0 0 - 6 9 66.7 1 7 8 1 0 0 3 5 -
p256
aVWilliam Bedford DET 02/24/1991 DET vs. LAL L 6 4 1 2 50.0 0 0 - 2 2 100.0 1 0 1 0 0 0 0 0 -
p257
aVMark Aguirre DET 02/24/1991 DET vs. LAL L 35 20 7 18 38.9 0 5 0.0 6 6 100.0 2 3 5 0 1 0 2 5 -
p258
aVTree Rollins DET 02/24/1991 DET vs. LAL L 1 0 0 0 - 0 0 - 0 0 - 0 0 0 0 0 0 0 0 -
p259
aVGerald Henderson DET 02/24/1991 DET vs. LAL L 4 4 2 2 100.0 0 0 - 0 0 - 0 0 0 1 0 0 1 3 -
p260
aVMark Aguirre DET 02/22/1991 DET @ CHH L 25 17 8 15 53.3 0 2 0.0 1 3 33.3 2 2 4 1 0 0 1 1 -
p261
aVJoe Dumars DET 02/22/1991 DET @ CHH L 48 35 14 25 56.0 0 1 0.0 7 7 100.0 1 1 2 9 1 0 2 2 -
p262
aVDennis Rodman DET 02/22/1991 DET @ CHH L 38 15 6 10 60.0 0 0 - 3 3 100.0 8 10 18 1 0 3 2 3 -
p263
aVVinnie Johnson DET 02/22/1991 DET @ CHH L 35 13 5 12 41.7 0 0 - 3 4 75.0 2 1 3 9 0 0 1 3 -
p264
aVJohn Salley DET 02/22/1991 DET @ CHH L 2 0 0 2 0.0 0 0 - 0 0 - 0 0 0 0 0 0 0 1 -
p265
aVWilliam Bedford DET 02/22/1991 DET @ CHH L 17 2 1 3 33.3 0 0 - 0 0 - 1 6 7 1 0 0 0 2 -
p266
aVTree Rollins DET 02/22/1991 DET @ CHH L 5 0 0 0 - 0 0 - 0 0 - 0 2 2 0 0 0 0 2 -
p267
aVBill Laimbeer DET 02/22/1991 DET @ CHH L 29 13 6 10 60.0 0 1 0.0 1 1 100.0 1 3 4 3 0 1 0 6 -
p268
aVJohn Long DET 02/22/1991 DET @ CHH L 13 4 2 5 40.0 0 0 - 0 0 - 0 0 0 3 0 0 0 0 -
p269
aVJames Edwards DET 02/22/1991 DET @ CHH L 28 15 5 10 50.0 0 0 - 5 6 83.3 1 2 3 2 0 2 2 3 -
p270
aVJoe Dumars DET 02/20/1991 DET vs. ATL W 37 25 6 14 42.9 0 0 - 13 16 81.3 0 3 3 6 3 1 5 2 -
p271
aVWilliam Bedford DET 02/20/1991 DET vs. ATL W 20 8 4 9 44.4 0 0 - 0 0 - 1 2 3 1 0 1 2 4 -
p272
aVBill Laimbeer DET 02/20/1991 DET vs. ATL W 43 19 8 15 53.3 1 3 33.3 2 4 50.0 5 9 14 1 0 0 1 4 -
p273
aVJohn Long DET 02/20/1991 DET vs. ATL W 14 5 1 2 50.0 0 0 - 3 3 100.0 1 1 2 0 0 0 1 2 -
p274
aVDennis Rodman DET 02/20/1991 DET vs. ATL W 28 11 5 8 62.5 0 0 - 1 4 25.0 2 9 11 0 0 0 1 6 -
p275
aVVinnie Johnson DET 02/20/1991 DET vs. ATL W 45 14 6 11 54.5 0 0 - 2 6 33.3 2 4 6 5 0 0 3 2 -
p276
aVMark Aguirre DET 02/20/1991 DET vs. ATL W 36 11 4 12 33.3 0 0 - 3 4 75.0 3 5 8 5 2 0 2 3 -
p277
aVJames Edwards DET 02/20/1991 DET vs. ATL W 17 4 2 7 28.6 0 0 - 0 0 - 0 2 2 0 0 0 0 4 -
p278
aVJoe Dumars DET 02/18/1991 DET vs. SEA W 43 15 7 16 43.8 0 2 0.0 1 2 50.0 2 3 5 7 1 0 5 1 -
p279
aVBill Laimbeer DET 02/18/1991 DET vs. SEA W 31 6 2 4 50.0 0 0 - 2 2 100.0 0 2 2 2 1 1 2 2 -
p280
aVMark Aguirre DET 02/18/1991 DET vs. SEA W 27 13 6 12 50.0 0 1 0.0 1 2 50.0 1 1 2 1 0 2 2 4 -
p281
aVJohn Long DET 02/18/1991 DET vs. SEA W 16 7 3 5 60.0 1 1 100.0 0 0 - 1 1 2 1 1 1 0 0 -
p282
aVWilliam Bedford DET 02/18/1991 DET vs. SEA W 5 0 0 0 - 0 0 - 0 0 - 0 0 0 1 0 1 0 0 -
p283
aVDennis Rodman DET 02/18/1991 DET vs. SEA W 48 19 6 11 54.5 0 0 - 7 10 70.0 7 8 15 3 3 1 2 4 -
p284
aVTree Rollins DET 02/18/1991 DET vs. SEA W 1 0 0 0 - 0 0 - 0 0 - 0 0 0 0 0 0 0 0 -
p285
aVJames Edwards DET 02/18/1991 DET vs. SEA W 25 11 5 8 62.5 0 0 - 1 4 25.0 1 2 3 0 0 1 3 5 -
p286
aVVinnie Johnson DET 02/18/1991 DET vs. SEA W 44 14 6 13 46.2 0 0 - 2 3 66.7 3 5 8 3 0 1 4 2 -
p287
aVJoe Dumars DET 02/17/1991 DET @ NYK L 34 7 3 12 25.0 0 0 - 1 2 50.0 0 1 1 4 1 0 1 0 -
p288
aVDennis Rodman DET 02/17/1991 DET @ NYK L 22 5 2 4 50.0 0 0 - 1 2 50.0 2 6 8 1 0 0 1 1 -
p289
aVBill Laimbeer DET 02/17/1991 DET @ NYK L 34 5 2 5 40.0 1 2 50.0 0 0 - 0 7 7 3 0 1 1 1 -
p290
aVTree Rollins DET 02/17/1991 DET @ NYK L 8 4 2 4 50.0 0 0 - 0 0 - 4 1 5 0 0 1 2 4 -
p291
aVJohn Long DET 02/17/1991 DET @ NYK L 14 4 2 7 28.6 0 0 - 0 0 - 1 1 2 0 0 0 0 1 -
p292
aVVinnie Johnson DET 02/17/1991 DET @ NYK L 36 23 11 16 68.8 0 0 - 1 3 33.3 2 2 4 6 1 0 2 2 -
p293
aVMark Aguirre DET 02/17/1991 DET @ NYK L 20 6 3 9 33.3 0 0 - 0 0 - 0 1 1 2 0 0 3 2 -
p294
aVScott Hastings DET 02/17/1991 DET @ NYK L 12 4 1 2 50.0 1 1 100.0 1 1 100.0 1 3 4 1 0 0 2 3 -
p295
aVJames Edwards DET 02/17/1991 DET @ NYK L 31 10 5 8 62.5 0 0 - 0 0 - 0 4 4 2 0 1 4 4 -
p296
aVLance Blanks DET 02/17/1991 DET @ NYK L 12 5 2 4 50.0 0 1 0.0 1 1 100.0 0 1 1 1 0 0 0 0 -
p297
aVWilliam Bedford DET 02/17/1991 DET @ NYK L 17 15 6 8 75.0 1 1 100.0 2 2 100.0 2 2 4 0 0 1 2 2 -
p298
aVJohn Salley DET 02/14/1991 DET @ MIL W 24 14 5 8 62.5 0 0 - 4 6 66.7 5 4 9 2 0 4 1 6 -
p299
aVDennis Rodman DET 02/14/1991 DET @ MIL W 41 4 2 5 40.0 0 0 - 0 0 - 8 8 16 2 2 1 1 5 -
p300
aVBill Laimbeer DET 02/14/1991 DET @ MIL W 27 4 2 8 25.0 0 0 - 0 1 0.0 2 5 7 4 0 0 0 4 -
p301
aVJoe Dumars DET 02/14/1991 DET @ MIL W 44 31 13 24 54.2 0 2 0.0 5 6 83.3 1 1 2 10 2 0 2 2 -
p302
aVJames Edwards DET 02/14/1991 DET @ MIL W 29 16 7 14 50.0 0 0 - 2 2 100.0 3 2 5 1 0 1 2 5 -
p303
aVMark Aguirre DET 02/14/1991 DET @ MIL W 24 19 9 15 60.0 0 0 - 1 2 50.0 2 1 3 3 0 0 3 0 -
p304
aVVinnie Johnson DET 02/14/1991 DET @ MIL W 37 10 5 17 29.4 0 1 0.0 0 0 - 3 2 5 3 1 1 1 2 -
p305
aVJohn Long DET 02/14/1991 DET @ MIL W 14 4 1 5 20.0 0 1 0.0 2 2 100.0 0 1 1 1 0 0 0 0 -
p306
aVBill Laimbeer DET 02/13/1991 DET vs. IND L 33 17 8 15 53.3 1 2 50.0 0 0 - 1 5 6 0 0 0 1 3 -
p307
aVJohn Salley DET 02/13/1991 DET vs. IND L 13 0 0 4 0.0 0 0 - 0 2 0.0 1 2 3 0 0 0 1 1 -
p308
aVJoe Dumars DET 02/13/1991 DET vs. IND L 45 28 9 26 34.6 2 5 40.0 8 8 100.0 2 1 3 6 1 0 2 4 -
p309
aVMark Aguirre DET 02/13/1991 DET vs. IND L 17 9 3 8 37.5 0 0 - 3 4 75.0 0 0 0 0 1 0 1 5 -
p310
aVDennis Rodman DET 02/13/1991 DET vs. IND L 45 12 4 12 33.3 0 1 0.0 4 7 57.1 10 14 24 2 1 2 3 2 -
p311
aVWilliam Bedford DET 02/13/1991 DET vs. IND L 4 2 1 1 100.0 0 0 - 0 0 - 1 0 1 0 0 0 2 1 -
p312
aVJames Edwards DET 02/13/1991 DET vs. IND L 32 19 8 15 53.3 0 0 - 3 5 60.0 5 2 7 3 0 0 4 5 -
p313
aVVinnie Johnson DET 02/13/1991 DET vs. IND L 39 14 7 13 53.8 0 0 - 0 1 0.0 1 5 6 9 0 0 0 3 -
p314
aVJohn Long DET 02/13/1991 DET vs. IND L 6 0 0 0 - 0 0 - 0 0 - 0 0 0 1 0 0 1 0 -
p315
aVLance Blanks DET 02/13/1991 DET vs. IND L 6 0 0 0 - 0 0 - 0 0 - 0 0 0 0 0 0 2 2 -
p316
aVJohn Long DET 02/07/1991 DET vs. CHI L 10 2 1 5 20.0 0 0 - 0 0 - 0 1 1 0 1 0 2 3 -
p317
aVJohn Salley DET 02/07/1991 DET vs. CHI L 25 6 2 4 50.0 0 0 - 2 2 100.0 3 3 6 1 0 0 2 4 -
p318
aVJames Edwards DET 02/07/1991 DET vs. CHI L 17 7 3 6 50.0 0 0 - 1 5 20.0 1 0 1 0 0 0 1 5 -
p319
aVBill Laimbeer DET 02/07/1991 DET vs. CHI L 44 25 9 19 47.4 1 7 14.3 6 7 85.7 5 5 10 1 0 1 2 1 -
p320
aVVinnie Johnson DET 02/07/1991 DET vs. CHI L 41 12 5 13 38.5 0 0 - 2 2 100.0 3 2 5 9 1 2 2 2 -
p321
aVMark Aguirre DET 02/07/1991 DET vs. CHI L 29 19 6 16 37.5 0 2 0.0 7 8 87.5 1 5 6 1 0 0 2 6 -
p322
aVJoe Dumars DET 02/07/1991 DET vs. CHI L 45 11 5 14 35.7 0 0 - 1 1 100.0 2 3 5 8 2 0 1 3 -
p323
aVDennis Rodman DET 02/07/1991 DET vs. CHI L 29 11 4 8 50.0 0 0 - 3 4 75.0 5 9 14 0 0 0 2 4 -
p324
aVJames Edwards DET 02/05/1991 DET vs. PHL W 24 16 6 11 54.5 0 0 - 4 6 66.7 2 1 3 3 0 0 0 4 -
p325
aVJohn Salley DET 02/05/1991 DET vs. PHL W 19 3 1 4 25.0 0 0 - 1 2 50.0 2 2 4 1 0 3 1 2 -
p326
aVJoe Dumars DET 02/05/1991 DET vs. PHL W 42 19 8 18 44.4 1 1 100.0 2 4 50.0 1 2 3 11 0 0 2 0 -
p327
aVMark Aguirre DET 02/05/1991 DET vs. PHL W 27 21 9 13 69.2 0 2 0.0 3 5 60.0 4 2 6 0 2 1 0 2 -
p328
aVBill Laimbeer DET 02/05/1991 DET vs. PHL W 36 15 6 12 50.0 3 4 75.0 0 0 - 3 9 12 5 0 2 1 4 -
p329
aVVinnie Johnson DET 02/05/1991 DET vs. PHL W 42 21 9 18 50.0 0 1 0.0 3 3 100.0 2 2 4 2 1 0 3 2 -
p330
aVDennis Rodman DET 02/05/1991 DET vs. PHL W 38 9 4 8 50.0 0 0 - 1 2 50.0 6 6 12 1 1 0 1 5 -
p331
aVJohn Long DET 02/05/1991 DET vs. PHL W 12 3 1 4 25.0 1 1 100.0 0 0 - 0 1 1 1 0 0 0 0 -
p332
aVJohn Salley DET 02/03/1991 DET vs. PHX L 11 7 2 3 66.7 0 0 - 3 4 75.0 0 1 1 1 1 0 1 2 -
p333
aVLance Blanks DET 02/03/1991 DET vs. PHX L 6 0 0 1 0.0 0 1 0.0 0 0 - 0 1 1 0 0 0 0 2 -
p334
aVJoe Dumars DET 02/03/1991 DET vs. PHX L 39 20 9 20 45.0 1 2 50.0 1 1 100.0 2 3 5 6 1 0 4 2 -
p335
aVJames Edwards DET 02/03/1991 DET vs. PHX L 33 18 5 10 50.0 0 0 - 8 8 100.0 0 5 5 2 0 2 3 4 -
p336
aVJohn Long DET 02/03/1991 DET vs. PHX L 13 4 2 3 66.7 0 1 0.0 0 0 - 0 0 0 0 1 0 1 2 -
p337
aVWilliam Bedford DET 02/03/1991 DET vs. PHX L 19 13 2 6 33.3 0 0 - 9 9 100.0 2 2 4 0 0 1 2 5 -
p338
aVMark Aguirre DET 02/03/1991 DET vs. PHX L 27 16 6 14 42.9 0 1 0.0 4 9 44.4 6 2 8 3 1 2 2 2 -
p339
aVScott Hastings DET 02/03/1991 DET vs. PHX L 4 4 0 2 0.0 0 0 - 4 4 100.0 2 3 5 0 0 0 0 0 -
p340
aVDennis Rodman DET 02/03/1991 DET vs. PHX L 30 10 5 10 50.0 0 0 - 0 0 - 4 8 12 0 0 1 1 3 -
p341
aVVinnie Johnson DET 02/03/1991 DET vs. PHX L 36 4 2 9 22.2 0 0 - 0 0 - 2 6 8 1 0 0 3 1 -
p342
aVBill Laimbeer DET 02/03/1991 DET vs. PHX L 22 1 0 6 0.0 0 0 - 1 2 50.0 4 2 6 1 0 1 1 3 -
p343
aVMark Aguirre DET 02/01/1991 DET @ WAS W 27 18 7 15 46.7 0 0 - 4 5 80.0 2 6 8 2 0 2 2 3 -
p344
aVJohn Long DET 02/01/1991 DET @ WAS W 25 14 6 10 60.0 0 0 - 2 2 100.0 2 2 4 2 2 0 3 1 -
p345
aVJohn Salley DET 02/01/1991 DET @ WAS W 25 6 3 6 50.0 0 0 - 0 0 - 1 3 4 2 2 2 4 5 -
p346
aVVinnie Johnson DET 02/01/1991 DET @ WAS W 23 6 3 14 21.4 0 0 - 0 0 - 2 1 3 0 3 0 1 3 -
p347
aVJames Edwards DET 02/01/1991 DET @ WAS W 20 4 2 7 28.6 0 0 - 0 0 - 2 3 5 0 0 0 1 2 -
p348
aVBill Laimbeer DET 02/01/1991 DET @ WAS W 31 6 3 6 50.0 0 1 0.0 0 0 - 2 11 13 0 0 2 2 0 -
p349
aVDennis Rodman DET 02/01/1991 DET @ WAS W 30 3 0 8 0.0 0 0 - 3 4 75.0 4 4 8 1 0 1 0 5 -
p350
aVJoe Dumars DET 02/01/1991 DET @ WAS W 39 22 9 20 45.0 0 0 - 4 6 66.7 0 7 7 3 2 0 3 1 -
p351
aVWilliam Bedford DET 02/01/1991 DET @ WAS W 11 1 0 2 0.0 0 0 - 1 2 50.0 2 1 3 0 0 1 0 2 -
p352
aVLance Blanks DET 02/01/1991 DET @ WAS W 9 0 0 1 0.0 0 0 - 0 0 - 0 1 1 3 0 0 0 0 -
p353
aVLance Blanks DET 01/30/1991 DET vs. CLE W 6 0 0 1 0.0 0 1 0.0 0 0 - 0 1 1 0 0 0 1 1 -
p354
aVJoe Dumars DET 01/30/1991 DET vs. CLE W 42 27 11 22 50.0 0 1 0.0 5 6 83.3 2 5 7 7 0 0 3 2 -
p355
aVMark Aguirre DET 01/30/1991 DET vs. CLE W 27 10 4 7 57.1 0 0 - 2 2 100.0 1 4 5 4 0 0 4 1 -
p356
aVWilliam Bedford DET 01/30/1991 DET vs. CLE W 8 2 1 3 33.3 0 0 - 0 0 - 0 0 0 1 0 1 0 1 -
p357
aVJohn Salley DET 01/30/1991 DET vs. CLE W 17 8 2 2 100.0 0 0 - 4 7 57.1 1 1 2 0 1 0 2 3 -
p358
aVDennis Rodman DET 01/30/1991 DET vs. CLE W 36 8 4 8 50.0 0 0 - 0 1 0.0 4 12 16 0 1 0 0 2 -
p359
aVTree Rollins DET 01/30/1991 DET vs. CLE W 5 0 0 0 - 0 0 - 0 0 - 0 1 1 0 0 0 1 2 -
p360
aVBill Laimbeer DET 01/30/1991 DET vs. CLE W 26 10 4 10 40.0 0 2 0.0 2 2 100.0 1 4 5 0 4 0 0 3 -
p361
aVJames Edwards DET 01/30/1991 DET vs. CLE W 25 4 2 5 40.0 0 0 - 0 0 - 0 1 1 1 0 0 2 3 -
p362
aVJohn Long DET 01/30/1991 DET vs. CLE W 20 12 2 6 33.3 0 0 - 8 8 100.0 2 1 3 1 1 0 0 0 -
p363
aVVinnie Johnson DET 01/30/1991 DET vs. CLE W 28 12 6 8 75.0 0 0 - 0 0 - 0 1 1 4 0 0 3 1 -
p364
aVVinnie Johnson DET 01/28/1991 DET vs. WAS W 25 6 2 9 22.2 0 0 - 2 2 100.0 1 1 2 2 0 0 3 1 -
p365
aVBill Laimbeer DET 01/28/1991 DET vs. WAS W 30 9 4 8 50.0 1 4 25.0 0 0 - 1 6 7 1 0 0 1 1 -
p366
aVWilliam Bedford DET 01/28/1991 DET vs. WAS W 10 5 2 4 50.0 0 0 - 1 2 50.0 0 1 1 0 1 0 0 2 -
p367
aVDennis Rodman DET 01/28/1991 DET vs. WAS W 40 18 8 12 66.7 0 1 0.0 2 4 50.0 5 5 10 1 0 3 1 3 -
p368
aVJames Edwards DET 01/28/1991 DET vs. WAS W 20 6 2 7 28.6 0 0 - 2 2 100.0 1 1 2 1 0 0 1 2 -
p369
aVJohn Long DET 01/28/1991 DET vs. WAS W 29 10 3 6 50.0 0 1 0.0 4 4 100.0 1 7 8 2 1 0 2 1 -
p370
aVJohn Salley DET 01/28/1991 DET vs. WAS W 29 5 2 6 33.3 0 0 - 1 2 50.0 3 1 4 1 0 2 0 2 -
p371
aVMark Aguirre DET 01/28/1991 DET vs. WAS W 15 1 0 6 0.0 0 0 - 1 2 50.0 2 4 6 1 0 0 1 1 -
p372
aVJoe Dumars DET 01/28/1991 DET vs. WAS W 42 27 9 18 50.0 0 1 0.0 9 9 100.0 1 2 3 3 0 0 3 2 -
p373
aVJoe Dumars DET 01/26/1991 DET @ ORL W 29 21 9 16 56.3 1 1 100.0 2 3 66.7 1 1 2 8 0 0 3 1 -
p374
aVWilliam Bedford DET 01/26/1991 DET @ ORL W 19 7 3 5 60.0 0 0 - 1 3 33.3 1 2 3 3 0 5 0 2 -
p375
aVVinnie Johnson DET 01/26/1991 DET @ ORL W 35 13 6 14 42.9 0 0 - 1 2 50.0 1 4 5 4 3 1 1 2 -
p376
aVBill Laimbeer DET 01/26/1991 DET @ ORL W 25 8 2 6 33.3 0 0 - 4 4 100.0 4 8 12 3 0 0 2 3 -
p377
aVMark Aguirre DET 01/26/1991 DET @ ORL W 22 16 5 8 62.5 0 1 0.0 6 7 85.7 1 3 4 1 0 0 4 2 -
p378
aVTree Rollins DET 01/26/1991 DET @ ORL W 5 3 1 1 100.0 0 0 - 1 2 50.0 0 0 0 0 0 0 2 3 -
p379
aVJohn Long DET 01/26/1991 DET @ ORL W 14 4 2 5 40.0 0 0 - 0 0 - 0 4 4 1 1 0 0 1 -
p380
aVDennis Rodman DET 01/26/1991 DET @ ORL W 26 12 3 4 75.0 0 0 - 6 6 100.0 4 9 13 3 1 2 0 2 -
p381
aVJames Edwards DET 01/26/1991 DET @ ORL W 24 23 10 14 71.4 0 0 - 3 3 100.0 2 3 5 1 0 0 0 2 -
p382
aVScott Hastings DET 01/26/1991 DET @ ORL W 5 2 1 1 100.0 0 0 - 0 0 - 0 0 0 0 0 0 0 0 -
p383
aVLance Blanks DET 01/26/1991 DET @ ORL W 20 4 2 4 50.0 0 1 0.0 0 0 - 1 0 1 1 3 0 4 4 -
p384
aVJohn Salley DET 01/26/1991 DET @ ORL W 16 8 3 5 60.0 0 0 - 2 2 100.0 0 5 5 0 0 6 1 3 -
p385
aVBill Laimbeer DET 01/25/1991 DET vs. DAL W 23 6 3 8 37.5 0 3 0.0 0 0 - 0 6 6 4 0 1 0 4 -
p386
aVJames Edwards DET 01/25/1991 DET vs. DAL W 33 12 5 9 55.6 0 0 - 2 2 100.0 0 4 4 1 0 1 3 2 -
p387
aVJoe Dumars DET 01/25/1991 DET vs. DAL W 42 20 5 12 41.7 0 0 - 10 11 90.9 0 2 2 9 0 0 3 2 -
p388
aVDennis Rodman DET 01/25/1991 DET vs. DAL W 40 6 2 7 28.6 0 0 - 2 2 100.0 2 15 17 0 0 0 0 0 -
p389
aVVinnie Johnson DET 01/25/1991 DET vs. DAL W 37 21 9 14 64.3 0 0 - 3 3 100.0 0 0 0 5 1 0 2 3 -
p390
aVJohn Long DET 01/25/1991 DET vs. DAL W 3 0 0 0 - 0 0 - 0 0 - 0 0 0 0 0 0 0 1 -
p391
aVMark Aguirre DET 01/25/1991 DET vs. DAL W 24 11 5 8 62.5 1 1 100.0 0 0 - 2 2 4 2 1 0 1 2 -
p392
aVLance Blanks DET 01/25/1991 DET vs. DAL W 14 4 2 6 33.3 0 0 - 0 0 - 1 4 5 1 1 0 1 2 -
p393
aVJohn Salley DET 01/25/1991 DET vs. DAL W 23 4 1 5 20.0 0 0 - 2 2 100.0 2 0 2 0 1 2 1 1 -
p394
aVTree Rollins DET 01/25/1991 DET vs. DAL W 1 0 0 0 - 0 0 - 0 0 - 0 0 0 0 0 0 0 0 -
p395
aVLance Blanks DET 01/23/1991 DET @ BOS L 1 2 1 2 50.0 0 0 - 0 0 - 0 0 0 0 0 0 0 0 -
p396
aVJames Edwards DET 01/23/1991 DET @ BOS L 31 23 8 21 38.1 0 0 - 7 8 87.5 3 4 7 0 0 1 1 2 -
p397
aVVinnie Johnson DET 01/23/1991 DET @ BOS L 37 22 11 18 61.1 0 0 - 0 0 - 2 3 5 5 2 0 2 1 -
p398
aVMark Aguirre DET 01/23/1991 DET @ BOS L 15 6 2 11 18.2 0 1 0.0 2 2 100.0 1 1 2 0 0 0 1 2 -
p399
aVJohn Salley DET 01/23/1991 DET @ BOS L 26 4 0 4 0.0 0 0 - 4 4 100.0 2 2 4 2 2 3 0 6 -
p400
aVBill Laimbeer DET 01/23/1991 DET @ BOS L 35 10 4 10 40.0 1 1 100.0 1 2 50.0 2 6 8 1 0 2 1 4 -
p401
aVJoe Dumars DET 01/23/1991 DET @ BOS L 38 16 6 12 50.0 0 0 - 4 5 80.0 1 0 1 8 1 0 3 0 -
p402
aVIsiah Thomas DET 01/23/1991 DET @ BOS L 22 3 1 4 25.0 0 0 - 1 2 50.0 2 2 4 2 0 1 1 2 -
p403
aVDennis Rodman DET 01/23/1991 DET @ BOS L 35 8 4 10 40.0 0 1 0.0 0 0 - 4 6 10 0 2 1 1 2 -
p404
aVWilliam Bedford DET 01/21/1991 DET vs. BOS W 4 0 0 4 0.0 0 0 - 0 0 - 0 1 1 0 0 1 0 0 -
p405
aVJoe Dumars DET 01/21/1991 DET vs. BOS W 46 26 10 18 55.6 0 0 - 6 6 100.0 1 1 2 7 2 0 2 1 -
p406
aVVinnie Johnson DET 01/21/1991 DET vs. BOS W 31 21 8 9 88.9 0 0 - 5 6 83.3 2 3 5 8 3 0 1 3 -
p407
aVMark Aguirre DET 01/21/1991 DET vs. BOS W 19 10 4 11 36.4 0 0 - 2 2 100.0 2 3 5 2 1 0 0 1 -
p408
aVJohn Salley DET 01/21/1991 DET vs. BOS W 36 6 2 8 25.0 0 0 - 2 4 50.0 6 3 9 1 1 3 5 3 -
p409
aVLance Blanks DET 01/21/1991 DET vs. BOS W 19 3 1 2 50.0 1 1 100.0 0 0 - 0 2 2 3 1 0 0 1 -
p410
aVJames Edwards DET 01/21/1991 DET vs. BOS W 17 13 6 9 66.7 0 0 - 1 2 50.0 0 3 3 1 0 0 1 4 -
p411
aVDennis Rodman DET 01/21/1991 DET vs. BOS W 38 11 4 11 36.4 0 2 0.0 3 3 100.0 3 5 8 1 1 0 0 0 -
p412
aVBill Laimbeer DET 01/21/1991 DET vs. BOS W 30 11 5 10 50.0 1 2 50.0 0 0 - 2 3 5 3 0 0 2 3 -
p413
aVWilliam Bedford DET 01/18/1991 DET @ PHX L 4 4 2 2 100.0 0 0 - 0 0 - 0 0 0 0 0 0 0 3 -
p414
aVJames Edwards DET 01/18/1991 DET @ PHX L 26 16 7 12 58.3 0 0 - 2 3 66.7 2 1 3 2 0 0 1 3 -
p415
aVMark Aguirre DET 01/18/1991 DET @ PHX L 24 19 6 11 54.5 0 2 0.0 7 8 87.5 1 5 6 3 1 1 0 2 -
p416
aVBill Laimbeer DET 01/18/1991 DET @ PHX L 33 10 4 12 33.3 2 8 25.0 0 0 - 0 5 5 4 1 1 2 2 -
p417
aVJohn Salley DET 01/18/1991 DET @ PHX L 18 3 1 1 100.0 0 0 - 1 2 50.0 3 1 4 0 0 1 0 2 -
p418
aVVinnie Johnson DET 01/18/1991 DET @ PHX L 44 18 9 15 60.0 0 0 - 0 0 - 1 2 3 11 2 0 0 5 -
p419
aVLance Blanks DET 01/18/1991 DET @ PHX L 14 6 3 4 75.0 0 0 - 0 0 - 0 0 0 4 0 0 3 3 -
p420
aVDennis Rodman DET 01/18/1991 DET @ PHX L 39 3 1 5 20.0 0 0 - 1 2 50.0 1 10 11 1 1 0 3 2 -
p421
aVJoe Dumars DET 01/18/1991 DET @ PHX L 38 23 10 16 62.5 0 0 - 3 5 60.0 0 0 0 7 0 0 5 2 -
p422
aVWilliam Bedford DET 01/17/1991 DET @ HOU W 4 2 1 2 50.0 0 0 - 0 0 - 0 1 1 0 0 0 2 0 -
p423
aVJoe Dumars DET 01/17/1991 DET @ HOU W 45 14 3 13 23.1 0 1 0.0 8 9 88.9 0 4 4 8 1 0 2 0 -
p424
aVJohn Salley DET 01/17/1991 DET @ HOU W 19 2 1 2 50.0 0 0 - 0 0 - 1 1 2 0 0 1 1 2 -
p425
aVVinnie Johnson DET 01/17/1991 DET @ HOU W 34 18 8 16 50.0 0 0 - 2 4 50.0 2 3 5 2 4 0 1 1 -
p426
aVIsiah Thomas DET 01/17/1991 DET @ HOU W 28 13 6 16 37.5 0 1 0.0 1 1 100.0 2 0 2 4 0 0 2 3 -
p427
aVBill Laimbeer DET 01/17/1991 DET @ HOU W 41 7 3 5 60.0 1 1 100.0 0 0 - 2 8 10 1 2 2 4 3 -
p428
aVMark Aguirre DET 01/17/1991 DET @ HOU W 16 8 3 9 33.3 0 1 0.0 2 3 66.7 1 2 3 1 0 0 1 5 -
p429
aVDennis Rodman DET 01/17/1991 DET @ HOU W 48 16 8 15 53.3 0 0 - 0 4 0.0 10 8 18 0 0 1 1 3 -
p430
aVJames Edwards DET 01/17/1991 DET @ HOU W 30 17 5 10 50.0 0 0 - 7 9 77.8 2 2 4 0 0 0 3 6 -
p431
aVJoe Dumars DET 01/14/1991 DET @ DAL W 43 17 8 17 47.1 0 0 - 1 2 50.0 0 2 2 4 1 0 0 1 -
p432
aVJames Edwards DET 01/14/1991 DET @ DAL W 28 11 4 13 30.8 0 1 0.0 3 3 100.0 1 3 4 0 0 0 0 4 -
p433
aVWilliam Bedford DET 01/14/1991 DET @ DAL W 3 0 0 1 0.0 0 0 - 0 0 - 0 2 2 1 0 2 1 0 -
p434
aVJohn Salley DET 01/14/1991 DET @ DAL W 13 4 1 1 100.0 0 0 - 2 2 100.0 1 2 3 0 0 0 2 4 -
p435
aVBill Laimbeer DET 01/14/1991 DET @ DAL W 30 8 3 10 30.0 0 2 0.0 2 4 50.0 2 7 9 1 0 3 0 2 -
p436
aVDennis Rodman DET 01/14/1991 DET @ DAL W 40 8 3 5 60.0 0 0 - 2 4 50.0 5 10 15 2 2 3 0 3 -
p437
aVIsiah Thomas DET 01/14/1991 DET @ DAL W 31 15 4 10 40.0 1 2 50.0 6 7 85.7 1 2 3 8 0 0 3 1 -
p438
aVVinnie Johnson DET 01/14/1991 DET @ DAL W 23 19 8 16 50.0 0 1 0.0 3 3 100.0 5 1 6 1 0 0 2 1 -
p439
aVMark Aguirre DET 01/14/1991 DET @ DAL W 29 7 3 14 21.4 0 2 0.0 1 1 100.0 2 5 7 0 0 1 1 2 -
p440
aVMark Aguirre DET 01/12/1991 DET vs. MIA W 27 11 4 11 36.4 0 2 0.0 3 8 37.5 1 3 4 2 1 0 0 3 -
p441
aVJames Edwards DET 01/12/1991 DET vs. MIA W 19 7 3 6 50.0 0 0 - 1 2 50.0 0 1 1 0 0 0 1 2 -
p442
aVIsiah Thomas DET 01/12/1991 DET vs. MIA W 44 25 11 20 55.0 0 0 - 3 4 75.0 0 7 7 9 2 0 9 2 -
p443
aVJohn Salley DET 01/12/1991 DET vs. MIA W 31 12 3 6 50.0 0 0 - 6 8 75.0 4 0 4 2 1 3 1 2 -
p444
aVDennis Rodman DET 01/12/1991 DET vs. MIA W 45 18 6 12 50.0 0 0 - 6 6 100.0 7 11 18 0 1 0 0 3 -
p445
aVLance Blanks DET 01/12/1991 DET vs. MIA W 7 2 1 2 50.0 0 1 0.0 0 0 - 0 1 1 0 0 0 0 1 -
p446
aVBill Laimbeer DET 01/12/1991 DET vs. MIA W 28 13 4 9 44.4 1 2 50.0 4 4 100.0 2 11 13 3 0 0 1 4 -
p447
aVVinnie Johnson DET 01/12/1991 DET vs. MIA W 49 16 6 16 37.5 0 1 0.0 4 5 80.0 2 0 2 6 2 1 3 4 -
p448
aVWilliam Bedford DET 01/12/1991 DET vs. MIA W 15 5 1 5 20.0 0 1 0.0 3 4 75.0 1 5 6 1 0 0 2 2 -
p449
aVIsiah Thomas DET 01/11/1991 DET vs. POR W 45 24 10 19 52.6 1 1 100.0 3 4 75.0 2 6 8 11 2 0 5 3 -
p450
aVVinnie Johnson DET 01/11/1991 DET vs. POR W 15 3 0 5 0.0 0 0 - 3 4 75.0 1 0 1 2 1 0 0 1 -
p451
aVBill Laimbeer DET 01/11/1991 DET vs. POR W 43 12 3 13 23.1 0 6 0.0 6 7 85.7 5 6 11 5 0 0 0 1 -
p452
aVJames Edwards DET 01/11/1991 DET vs. POR W 33 18 6 13 46.2 0 0 - 6 8 75.0 1 2 3 1 1 0 3 5 -
p453
aVDennis Rodman DET 01/11/1991 DET vs. POR W 48 13 6 9 66.7 0 0 - 1 2 50.0 3 12 15 0 1 0 0 3 -
p454
aVMark Aguirre DET 01/11/1991 DET vs. POR W 16 9 3 9 33.3 0 1 0.0 3 4 75.0 1 1 2 2 0 0 0 2 -
p455
aVJohn Salley DET 01/11/1991 DET vs. POR W 19 6 3 4 75.0 0 0 - 0 0 - 0 1 1 0 1 1 2 2 -
p456
aVJoe Dumars DET 01/11/1991 DET vs. POR W 46 15 7 17 41.2 0 1 0.0 1 1 100.0 1 5 6 3 1 0 1 4 -
p457
aVDennis Rodman DET 01/08/1991 DET @ CHH W 35 10 5 7 71.4 0 1 0.0 0 0 - 2 10 12 0 0 0 1 5 -
p458
aVIsiah Thomas DET 01/08/1991 DET @ CHH W 45 27 10 17 58.8 0 0 - 7 11 63.6 2 3 5 10 1 2 6 1 -
p459
aVJoe Dumars DET 01/08/1991 DET @ CHH W 17 9 2 4 50.0 0 0 - 5 6 83.3 1 0 1 4 1 0 1 0 -
p460
aVBill Laimbeer DET 01/08/1991 DET @ CHH W 39 19 7 16 43.8 2 4 50.0 3 4 75.0 2 8 10 2 0 1 2 3 -
p461
aVMark Aguirre DET 01/08/1991 DET @ CHH W 29 14 4 9 44.4 0 0 - 6 8 75.0 0 4 4 4 1 0 3 4 -
p462
aVJames Edwards DET 01/08/1991 DET @ CHH W 33 14 6 9 66.7 0 0 - 2 4 50.0 0 1 1 0 0 0 0 3 -
p463
aVLance Blanks DET 01/08/1991 DET @ CHH W 2 0 0 0 - 0 0 - 0 0 - 0 0 0 0 0 0 0 0 -
p464
aVVinnie Johnson DET 01/08/1991 DET @ CHH W 19 4 2 8 25.0 0 0 - 0 0 - 0 5 5 5 0 0 1 2 -
p465
aVJohn Salley DET 01/08/1991 DET @ CHH W 18 4 2 3 66.7 0 0 - 0 0 - 1 2 3 0 1 1 0 6 -
p466
aVWilliam Bedford DET 01/08/1991 DET @ CHH W 3 0 0 1 0.0 0 0 - 0 0 - 0 0 0 0 0 0 1 1 -
p467
aVJoe Dumars DET 01/05/1991 DET vs. NJN W 43 22 5 15 33.3 0 0 - 12 12 100.0 0 2 2 8 1 0 2 2 -
p468
aVMark Aguirre DET 01/05/1991 DET vs. NJN W 37 25 11 20 55.0 2 2 100.0 1 2 50.0 1 6 7 3 0 2 3 4 -
p469
aVBill Laimbeer DET 01/05/1991 DET vs. NJN W 21 7 3 6 50.0 1 3 33.3 0 0 - 0 4 4 0 0 1 0 2 -
p470
aVIsiah Thomas DET 01/05/1991 DET vs. NJN W 23 8 3 9 33.3 0 0 - 2 2 100.0 2 2 4 5 0 0 1 0 -
p471
aVJames Edwards DET 01/05/1991 DET vs. NJN W 20 10 5 10 50.0 0 0 - 0 0 - 1 3 4 1 0 0 0 3 -
p472
aVVinnie Johnson DET 01/05/1991 DET vs. NJN W 18 0 0 3 0.0 0 0 - 0 2 0.0 2 1 3 2 0 0 1 1 -
p473
aVWilliam Bedford DET 01/05/1991 DET vs. NJN W 21 15 5 10 50.0 0 0 - 5 7 71.4 6 4 10 0 0 2 0 0 -
p474
aVLance Blanks DET 01/05/1991 DET vs. NJN W 7 2 1 1 100.0 0 0 - 0 1 0.0 0 1 1 0 1 0 0 0 -
p475
aVDennis Rodman DET 01/05/1991 DET vs. NJN W 29 5 1 4 25.0 0 0 - 3 4 75.0 6 10 16 0 0 0 1 3 -
p476
aVJohn Salley DET 01/05/1991 DET vs. NJN W 21 5 2 7 28.6 0 0 - 1 2 50.0 1 0 1 0 0 1 1 3 -
p477
aVVinnie Johnson DET 01/04/1991 DET @ CLE W 25 8 2 10 20.0 0 0 - 4 6 66.7 3 2 5 2 1 1 0 1 -
p478
aVJames Edwards DET 01/04/1991 DET @ CLE W 30 13 5 10 50.0 0 0 - 3 4 75.0 0 1 1 1 0 0 1 4 -
p479
aVIsiah Thomas DET 01/04/1991 DET @ CLE W 28 10 5 11 45.5 0 1 0.0 0 0 - 0 7 7 5 2 0 5 1 -
p480
aVDennis Rodman DET 01/04/1991 DET @ CLE W 33 5 2 4 50.0 0 0 - 1 2 50.0 1 8 9 1 1 1 0 4 -
p481
aVWilliam Bedford DET 01/04/1991 DET @ CLE W 3 0 0 0 - 0 0 - 0 0 - 0 0 0 0 0 1 0 0 -
p482
aVBill Laimbeer DET 01/04/1991 DET @ CLE W 36 8 3 8 37.5 0 1 0.0 2 2 100.0 2 6 8 3 0 0 0 4 -
p483
aVJohn Salley DET 01/04/1991 DET @ CLE W 13 3 1 1 100.0 0 0 - 1 1 100.0 3 1 4 0 0 0 2 1 -
p484
aVTree Rollins DET 01/04/1991 DET @ CLE W 3 0 0 0 - 0 0 - 0 0 - 0 1 1 0 0 0 0 3 -
p485
aVMark Aguirre DET 01/04/1991 DET @ CLE W 26 26 10 17 58.8 0 0 - 6 8 75.0 2 3 5 2 1 1 1 1 -
p486
aVJoe Dumars DET 01/04/1991 DET @ CLE W 43 25 7 14 50.0 0 0 - 11 12 91.7 3 3 6 5 1 0 4 0 -
p487
aVVinnie Johnson DET 01/02/1991 DET vs. DEN W 32 10 4 12 33.3 0 0 - 2 7 28.6 3 2 5 3 2 0 2 1 -
p488
aVDennis Rodman DET 01/02/1991 DET vs. DEN W 44 34 15 21 71.4 0 0 - 4 5 80.0 7 16 23 0 2 0 0 1 -
p489
aVMark Aguirre DET 01/02/1991 DET vs. DEN W 20 15 4 7 57.1 0 0 - 7 9 77.8 4 3 7 6 0 0 6 5 -
p490
aVBill Laimbeer DET 01/02/1991 DET vs. DEN W 30 10 5 11 45.5 0 1 0.0 0 0 - 2 11 13 7 0 0 3 2 -
p491
aVLance Blanks DET 01/02/1991 DET vs. DEN W 5 2 1 2 50.0 0 0 - 0 0 - 0 0 0 0 0 0 0 2 -
p492
aVJames Edwards DET 01/02/1991 DET vs. DEN W 16 6 2 8 25.0 0 0 - 2 4 50.0 1 1 2 1 1 1 0 0 -
p493
aVJoe Dumars DET 01/02/1991 DET vs. DEN W 45 10 4 13 30.8 0 0 - 2 2 100.0 1 1 2 13 0 0 0 1 -
p494
aVJohn Salley DET 01/02/1991 DET vs. DEN W 18 7 3 7 42.9 0 0 - 1 2 50.0 2 5 7 1 0 1 2 1 -
p495
aVWilliam Bedford DET 01/02/1991 DET vs. DEN W 21 20 8 14 57.1 0 0 - 4 6 66.7 0 2 2 2 0 1 1 4 -
p496
aVIsiah Thomas DET 01/02/1991 DET vs. DEN W 9 4 1 2 50.0 0 0 - 2 2 100.0 1 1 2 3 0 0 0 1 -
p497
aVJohn Salley DET 12/29/1990 DET vs. HOU W 24 13 3 8 37.5 0 0 - 7 7 100.0 5 4 9 1 3 1 0 5 -
p498
aVJames Edwards DET 12/29/1990 DET vs. HOU W 34 14 5 15 33.3 0 0 - 4 5 80.0 1 6 7 1 0 1 3 4 -
p499
aVWilliam Bedford DET 12/29/1990 DET vs. HOU W 7 4 2 3 66.7 0 0 - 0 0 - 0 2 2 0 0 0 1 2 -
p500
aVIsiah Thomas DET 12/29/1990 DET vs. HOU W 35 13 5 12 41.7 0 0 - 3 3 100.0 1 1 2 14 0 0 3 2 -
p501
aVJoe Dumars DET 12/29/1990 DET vs. HOU W 40 30 11 20 55.0 1 1 100.0 7 7 100.0 2 3 5 4 0 0 1 1 -
p502
aVVinnie Johnson DET 12/29/1990 DET vs. HOU W 20 0 0 4 0.0 0 0 - 0 0 - 0 1 1 1 0 0 2 0 -
p503
aVMark Aguirre DET 12/29/1990 DET vs. HOU W 18 8 3 7 42.9 0 0 - 2 4 50.0 0 1 1 1 1 0 1 3 -
p504
aVDennis Rodman DET 12/29/1990 DET vs. HOU W 30 8 3 5 60.0 0 1 0.0 2 2 100.0 2 15 17 0 1 0 4 4 -
p505
aVBill Laimbeer DET 12/29/1990 DET vs. HOU W 30 9 4 9 44.4 1 2 50.0 0 0 - 0 8 8 2 1 0 0 4 -
p506
aVLance Blanks DET 12/29/1990 DET vs. HOU W 1 0 0 0 - 0 0 - 0 0 - 1 0 1 0 0 0 0 0 -
p507
aVScott Hastings DET 12/29/1990 DET vs. HOU W 1 0 0 1 0.0 0 0 - 0 0 - 0 1 1 0 0 0 0 0 -
p508
aVJames Edwards DET 12/28/1990 DET @ MIN W 32 13 6 14 42.9 0 0 - 1 2 50.0 1 3 4 1 0 1 4 2 -
p509
aVDennis Rodman DET 12/28/1990 DET @ MIN W 31 9 4 6 66.7 0 0 - 1 1 100.0 1 5 6 2 2 2 0 4 -
p510
aVMark Aguirre DET 12/28/1990 DET @ MIN W 18 3 1 5 20.0 0 0 - 1 2 50.0 0 1 1 1 0 0 0 0 -
p511
aVVinnie Johnson DET 12/28/1990 DET @ MIN W 14 8 3 6 50.0 0 0 - 2 2 100.0 0 0 0 1 0 0 2 1 -
p512
aVScott Hastings DET 12/28/1990 DET @ MIN W 1 0 0 0 - 0 0 - 0 0 - 0 0 0 0 0 0 0 0 -
p513
aVJoe Dumars DET 12/28/1990 DET @ MIN W 36 21 7 16 43.8 0 0 - 7 7 100.0 0 2 2 3 1 1 1 0 -
p514
aVJohn Salley DET 12/28/1990 DET @ MIN W 16 6 2 3 66.7 0 0 - 2 2 100.0 0 0 0 2 1 1 0 1 -
p515
aVIsiah Thomas DET 12/28/1990 DET @ MIN W 40 16 7 13 53.8 0 0 - 2 2 100.0 0 0 0 13 4 0 5 1 -
p516
aVBill Laimbeer DET 12/28/1990 DET @ MIN W 39 17 7 9 77.8 0 0 - 3 3 100.0 1 8 9 2 0 1 0 3 -
p517
aVLance Blanks DET 12/28/1990 DET @ MIN W 6 2 1 1 100.0 0 0 - 0 0 - 0 1 1 0 1 1 0 1 -
p518
aVTree Rollins DET 12/28/1990 DET @ MIN W 1 0 0 0 - 0 0 - 0 0 - 0 0 0 0 0 0 0 0 -
p519
aVWilliam Bedford DET 12/28/1990 DET @ MIN W 6 2 1 2 50.0 0 0 - 0 0 - 0 0 0 0 0 0 0 0 -
p520
aVDennis Rodman DET 12/26/1990 DET vs. CHH W 29 10 4 6 66.7 0 0 - 2 3 66.7 4 6 10 2 1 1 1 4 -
p521
aVMark Aguirre DET 12/26/1990 DET vs. CHH W 17 11 5 12 41.7 0 0 - 1 2 50.0 2 1 3 2 3 0 0 5 -
p522
aVJames Edwards DET 12/26/1990 DET vs. CHH W 16 10 2 6 33.3 0 0 - 6 8 75.0 0 1 1 1 0 0 1 4 -
p523
aVIsiah Thomas DET 12/26/1990 DET vs. CHH W 43 14 3 9 33.3 0 0 - 8 8 100.0 0 0 0 11 1 0 6 4 -
p524
aVVinnie Johnson DET 12/26/1990 DET vs. CHH W 17 7 3 6 50.0 0 0 - 1 2 50.0 0 1 1 3 0 0 0 0 -
p525
aVWilliam Bedford DET 12/26/1990 DET vs. CHH W 23 16 7 10 70.0 0 0 - 2 2 100.0 1 3 4 2 0 2 1 5 -
p526
aVJoe Dumars DET 12/26/1990 DET vs. CHH W 36 19 8 15 53.3 0 0 - 3 4 75.0 0 3 3 4 2 0 4 1 -
p527
aVJohn Salley DET 12/26/1990 DET vs. CHH W 28 9 3 4 75.0 0 0 - 3 5 60.0 4 6 10 1 1 2 1 3 -
p528
aVBill Laimbeer DET 12/26/1990 DET vs. CHH W 31 6 3 6 50.0 0 1 0.0 0 0 - 1 4 5 2 0 0 3 2 -
p529
aVTree Rollins DET 12/25/1990 DET @ CHI L 6 2 1 1 100.0 0 0 - 0 0 - 0 1 1 0 0 0 1 1 -
p530
aVJames Edwards DET 12/25/1990 DET @ CHI L 33 10 2 9 22.2 0 0 - 6 8 75.0 2 3 5 0 0 0 2 3 -
p531
aVDennis Rodman DET 12/25/1990 DET @ CHI L 21 1 0 3 0.0 0 0 - 1 2 50.0 6 4 10 1 0 0 2 3 -
p532
aVBill Laimbeer DET 12/25/1990 DET @ CHI L 35 8 4 8 50.0 0 2 0.0 0 0 - 1 6 7 1 1 0 2 3 -
p533
aVWilliam Bedford DET 12/25/1990 DET @ CHI L 4 4 1 1 100.0 0 0 - 2 2 100.0 0 0 0 0 0 0 0 0 -
p534
aVIsiah Thomas DET 12/25/1990 DET @ CHI L 39 23 10 20 50.0 0 1 0.0 3 4 75.0 3 2 5 10 3 0 1 4 -
p535
aVVinnie Johnson DET 12/25/1990 DET @ CHI L 20 2 1 4 25.0 0 1 0.0 0 0 - 1 2 3 2 0 0 1 1 -
p536
aVJohn Salley DET 12/25/1990 DET @ CHI L 18 3 1 2 50.0 0 0 - 1 2 50.0 0 1 1 0 1 0 1 1 -
p537
aVMark Aguirre DET 12/25/1990 DET @ CHI L 27 9 3 9 33.3 0 1 0.0 3 4 75.0 0 5 5 3 0 0 0 3 -
p538
aVJoe Dumars DET 12/25/1990 DET @ CHI L 37 24 7 14 50.0 0 0 - 10 10 100.0 1 0 1 2 1 0 6 3 -
p539
aVJoe Dumars DET 12/22/1990 DET @ PHL L 36 19 7 14 50.0 0 0 - 5 5 100.0 0 1 1 3 2 0 0 2 -
p540
aVVinnie Johnson DET 12/22/1990 DET @ PHL L 22 7 2 7 28.6 0 0 - 3 4 75.0 1 1 2 1 2 0 3 1 -
p541
aVIsiah Thomas DET 12/22/1990 DET @ PHL L 38 30 12 26 46.2 0 1 0.0 6 6 100.0 0 3 3 7 1 1 2 4 -
p542
aVBill Laimbeer DET 12/22/1990 DET @ PHL L 34 5 2 5 40.0 0 0 - 1 2 50.0 2 5 7 2 0 1 1 3 -
p543
aVDennis Rodman DET 12/22/1990 DET @ PHL L 31 8 4 7 57.1 0 1 0.0 0 0 - 5 6 11 1 2 0 1 5 -
p544
aVJohn Salley DET 12/22/1990 DET @ PHL L 25 2 0 3 0.0 0 0 - 2 2 100.0 2 7 9 3 1 0 1 4 -
p545
aVMark Aguirre DET 12/22/1990 DET @ PHL L 25 16 6 13 46.2 1 1 100.0 3 4 75.0 2 4 6 1 1 0 0 2 -
p546
aVJames Edwards DET 12/22/1990 DET @ PHL L 28 12 5 13 38.5 0 0 - 2 3 66.7 2 3 5 1 0 0 1 5 -
p547
aVLance Blanks DET 12/22/1990 DET @ PHL L 1 0 0 0 - 0 0 - 0 0 - 0 0 0 0 0 0 0 1 -
p548
aVScott Hastings DET 12/21/1990 DET vs. ATL W 3 2 1 1 100.0 0 0 - 0 0 - 0 0 0 1 0 0 1 0 -
p549
aVTree Rollins DET 12/21/1990 DET vs. ATL W 4 2 1 1 100.0 0 0 - 0 0 - 1 1 2 0 0 0 1 0 -
p550
aVMark Aguirre DET 12/21/1990 DET vs. ATL W 24 13 6 11 54.5 0 0 - 1 2 50.0 1 3 4 7 2 0 1 2 -
p551
aVJames Edwards DET 12/21/1990 DET vs. ATL W 26 24 9 15 60.0 1 1 100.0 5 5 100.0 0 5 5 0 0 0 0 3 -
p552
aVBill Laimbeer DET 12/21/1990 DET vs. ATL W 35 6 2 5 40.0 0 0 - 2 2 100.0 1 4 5 2 1 1 1 2 -
p553
aVJoe Dumars DET 12/21/1990 DET vs. ATL W 33 24 9 17 52.9 0 0 - 6 6 100.0 0 1 1 4 1 0 0 4 -
p554
aVDennis Rodman DET 12/21/1990 DET vs. ATL W 24 8 4 6 66.7 0 0 - 0 0 - 4 7 11 3 1 0 1 2 -
p555
aVVinnie Johnson DET 12/21/1990 DET vs. ATL W 24 11 5 8 62.5 0 0 - 1 2 50.0 0 2 2 4 0 0 1 3 -
p556
aVIsiah Thomas DET 12/21/1990 DET vs. ATL W 36 7 3 6 50.0 0 0 - 1 2 50.0 0 4 4 13 2 1 7 2 -
p557
aVLance Blanks DET 12/21/1990 DET vs. ATL W 3 0 0 0 - 0 0 - 0 0 - 0 0 0 0 0 0 1 1 -
p558
aVWilliam Bedford DET 12/21/1990 DET vs. ATL W 7 6 3 6 50.0 0 0 - 0 0 - 1 2 3 1 0 0 0 0 -
p559
aVJohn Salley DET 12/21/1990 DET vs. ATL W 21 10 4 6 66.7 0 0 - 2 2 100.0 1 4 5 1 0 3 1 2 -
p560
aVLance Blanks DET 12/19/1990 DET vs. CHI W 3 2 0 2 0.0 0 2 0.0 2 2 100.0 0 0 0 0 0 0 0 1 -
p561
aVJames Edwards DET 12/19/1990 DET vs. CHI W 19 11 4 6 66.7 0 0 - 3 7 42.9 0 3 3 0 0 0 2 4 -
p562
aVDennis Rodman DET 12/19/1990 DET vs. CHI W 30 8 3 6 50.0 0 0 - 2 3 66.7 2 9 11 2 1 1 2 3 -
p563
aVJoe Dumars DET 12/19/1990 DET vs. CHI W 33 19 9 14 64.3 0 1 0.0 1 1 100.0 0 0 0 5 0 0 2 2 -
p564
aVIsiah Thomas DET 12/19/1990 DET vs. CHI W 31 19 6 15 40.0 0 0 - 7 7 100.0 0 3 3 10 2 0 6 2 -
p565
aVMark Aguirre DET 12/19/1990 DET vs. CHI W 24 15 6 7 85.7 1 1 100.0 2 2 100.0 1 6 7 2 0 1 0 2 -
p566
aVWilliam Bedford DET 12/19/1990 DET vs. CHI W 5 4 2 5 40.0 0 0 - 0 2 0.0 0 0 0 0 0 0 0 0 -
p567
aVScott Hastings DET 12/19/1990 DET vs. CHI W 2 0 0 1 0.0 0 0 - 0 0 - 0 0 0 1 0 0 0 0 -
p568
aVTree Rollins DET 12/19/1990 DET vs. CHI W 2 0 0 0 - 0 0 - 0 0 - 0 1 1 0 0 0 0 0 -
p569
aVVinnie Johnson DET 12/19/1990 DET vs. CHI W 29 4 2 6 33.3 0 0 - 0 0 - 1 1 2 4 1 1 0 1 -
p570
aVBill Laimbeer DET 12/19/1990 DET vs. CHI W 38 16 8 14 57.1 0 0 - 0 0 - 4 10 14 1 1 0 1 2 -
p571
aVJohn Salley DET 12/19/1990 DET vs. CHI W 24 7 2 6 33.3 0 0 - 3 5 60.0 3 4 7 2 1 5 0 3 -
p572
aVVinnie Johnson DET 12/18/1990 DET @ MIL L 20 8 4 9 44.4 0 0 - 0 0 - 2 2 4 3 0 0 0 1 -
p573
aVIsiah Thomas DET 12/18/1990 DET @ MIL L 42 16 6 12 50.0 0 0 - 4 6 66.7 1 4 5 14 1 0 5 2 -
p574
aVJames Edwards DET 12/18/1990 DET @ MIL L 34 18 9 17 52.9 0 0 - 0 4 0.0 4 0 4 2 0 0 0 2 -
p575
aVWilliam Bedford DET 12/18/1990 DET @ MIL L 5 0 0 1 0.0 0 0 - 0 0 - 1 0 1 0 0 1 1 3 -
p576
aVBill Laimbeer DET 12/18/1990 DET @ MIL L 37 12 3 10 30.0 0 1 0.0 6 6 100.0 4 9 13 0 1 0 0 6 -
p577
aVTree Rollins DET 12/18/1990 DET @ MIL L 1 0 0 0 - 0 0 - 0 0 - 0 0 0 0 0 0 0 0 -
p578
aVMark Aguirre DET 12/18/1990 DET @ MIL L 16 10 4 10 40.0 1 1 100.0 1 1 100.0 3 1 4 1 1 0 1 3 -
p579
aVJohn Salley DET 12/18/1990 DET @ MIL L 19 11 3 11 27.3 0 0 - 5 9 55.6 4 1 5 1 0 0 1 2 -
p580
aVJoe Dumars DET 12/18/1990 DET @ MIL L 41 19 8 18 44.4 0 0 - 3 3 100.0 0 3 3 4 2 0 0 3 -
p581
aVDennis Rodman DET 12/18/1990 DET @ MIL L 25 7 3 10 30.0 0 0 - 1 2 50.0 7 4 11 1 1 0 2 3 -
p582
aVMark Aguirre DET 12/14/1990 DET @ BOS L 24 13 6 13 46.2 0 0 - 1 1 100.0 1 1 2 0 0 0 2 2 -
p583
aVJoe Dumars DET 12/14/1990 DET @ BOS L 28 18 6 11 54.5 0 1 0.0 6 6 100.0 0 0 0 2 1 1 1 2 -
p584
aVLance Blanks DET 12/14/1990 DET @ BOS L 1 0 0 1 0.0 0 0 - 0 0 - 0 0 0 0 0 0 0 0 -
p585
aVBill Laimbeer DET 12/14/1990 DET @ BOS L 31 4 0 2 0.0 0 1 0.0 4 4 100.0 0 2 2 0 0 1 2 3 -
p586
aVJohn Salley DET 12/14/1990 DET @ BOS L 29 10 4 9 44.4 0 0 - 2 6 33.3 2 6 8 0 2 2 2 2 -
p587
aVDennis Rodman DET 12/14/1990 DET @ BOS L 43 6 1 2 50.0 0 1 0.0 4 4 100.0 3 12 15 1 0 0 2 2 -
p588
aVTree Rollins DET 12/14/1990 DET @ BOS L 5 0 0 0 - 0 0 - 0 0 - 0 2 2 0 0 0 0 0 -
p589
aVVinnie Johnson DET 12/14/1990 DET @ BOS L 25 11 5 13 38.5 0 1 0.0 1 3 33.3 1 2 3 3 0 1 0 1 -
p590
aVIsiah Thomas DET 12/14/1990 DET @ BOS L 42 26 12 26 46.2 0 2 0.0 2 2 100.0 0 4 4 11 5 0 5 4 -
p591
aVWilliam Bedford DET 12/14/1990 DET @ BOS L 12 12 6 9 66.7 0 0 - 0 0 - 4 0 4 2 0 2 0 1 -
p592
aVJoe Dumars DET 12/11/1990 DET vs. SAN L 41 19 6 14 42.9 0 0 - 7 9 77.8 1 1 2 6 3 0 3 2 -
p593
aVLance Blanks DET 12/11/1990 DET vs. SAN L 1 0 0 0 - 0 0 - 0 0 - 0 0 0 0 0 0 0 0 -
p594
aVVinnie Johnson DET 12/11/1990 DET vs. SAN L 19 3 0 3 0.0 0 0 - 3 6 50.0 2 2 4 1 1 0 3 1 -
p595
aVDennis Rodman DET 12/11/1990 DET vs. SAN L 27 3 1 5 20.0 0 0 - 1 2 50.0 2 7 9 0 0 0 1 3 -
p596
aVMark Aguirre DET 12/11/1990 DET vs. SAN L 29 8 4 14 28.6 0 1 0.0 0 0 - 1 3 4 3 1 1 1 1 -
p597
aVJames Edwards DET 12/11/1990 DET vs. SAN L 23 11 4 11 36.4 0 0 - 3 4 75.0 2 1 3 0 0 0 2 3 -
p598
aVIsiah Thomas DET 12/11/1990 DET vs. SAN L 35 16 4 12 33.3 1 2 50.0 7 10 70.0 0 1 1 7 0 0 5 6 -
p599
aVJohn Salley DET 12/11/1990 DET vs. SAN L 26 15 6 7 85.7 0 0 - 3 4 75.0 3 5 8 0 4 5 2 4 -
p600
aVBill Laimbeer DET 12/11/1990 DET vs. SAN L 39 11 4 6 66.7 3 3 100.0 0 0 - 1 5 6 2 0 1 1 2 -
p601
aVBill Laimbeer DET 12/08/1990 DET @ SAC W 34 10 4 5 80.0 1 2 50.0 1 1 100.0 0 9 9 0 0 0 2 2 -
p602
aVVinnie Johnson DET 12/08/1990 DET @ SAC W 25 9 4 6 66.7 0 0 - 1 2 50.0 0 1 1 2 0 0 0 2 -
p603
aVMark Aguirre DET 12/08/1990 DET @ SAC W 17 12 5 10 50.0 0 0 - 2 2 100.0 1 4 5 0 0 0 1 6 -
p604
aVJoe Dumars DET 12/08/1990 DET @ SAC W 33 17 5 11 45.5 0 0 - 7 8 87.5 0 0 0 5 1 0 1 1 -
p605
aVIsiah Thomas DET 12/08/1990 DET @ SAC W 38 15 6 11 54.5 0 1 0.0 3 5 60.0 1 3 4 17 2 0 4 1 -
p606
aVDennis Rodman DET 12/08/1990 DET @ SAC W 33 12 6 9 66.7 0 0 - 0 0 - 3 8 11 1 0 1 0 3 -
p607
aVJohn Salley DET 12/08/1990 DET @ SAC W 29 13 3 5 60.0 0 0 - 7 9 77.8 0 2 2 2 0 3 0 5 -
p608
aVJames Edwards DET 12/08/1990 DET @ SAC W 28 16 6 12 50.0 0 0 - 4 5 80.0 0 2 2 0 0 0 2 3 -
p609
aVTree Rollins DET 12/08/1990 DET @ SAC W 3 0 0 0 - 0 0 - 0 0 - 0 0 0 0 0 1 1 0 -
p610
aVBill Laimbeer DET 12/07/1990 DET @ GOS L 30 14 5 10 50.0 0 0 - 4 4 100.0 3 6 9 3 1 1 1 2 -
p611
aVTree Rollins DET 12/07/1990 DET @ GOS L 5 2 1 1 100.0 0 0 - 0 0 - 1 1 2 0 0 2 0 0 -
p612
aVLance Blanks DET 12/07/1990 DET @ GOS L 1 0 0 0 - 0 0 - 0 0 - 0 0 0 0 0 0 0 0 -
p613
aVJohn Salley DET 12/07/1990 DET @ GOS L 11 0 0 1 0.0 0 0 - 0 0 - 0 0 0 0 0 0 0 3 -
p614
aVJoe Dumars DET 12/07/1990 DET @ GOS L 44 29 13 21 61.9 0 0 - 3 4 75.0 3 2 5 5 1 1 2 1 -
p615
aVVinnie Johnson DET 12/07/1990 DET @ GOS L 22 3 1 8 12.5 0 0 - 1 2 50.0 2 1 3 3 1 0 0 4 -
p616
aVDennis Rodman DET 12/07/1990 DET @ GOS L 38 2 1 9 11.1 0 1 0.0 0 0 - 3 7 10 1 1 0 1 4 -
p617
aVJames Edwards DET 12/07/1990 DET @ GOS L 17 8 4 9 44.4 0 0 - 0 0 - 1 0 1 1 0 0 1 4 -
p618
aVIsiah Thomas DET 12/07/1990 DET @ GOS L 39 23 10 19 52.6 0 1 0.0 3 4 75.0 3 2 5 7 2 0 3 4 -
p619
aVMark Aguirre DET 12/07/1990 DET @ GOS L 33 29 12 20 60.0 0 0 - 5 6 83.3 4 3 7 1 3 0 6 1 -
p620
aVLance Blanks DET 12/05/1990 DET @ UTH L 4 4 2 4 50.0 0 1 0.0 0 0 - 0 0 0 0 1 0 1 1 -
p621
aVTree Rollins DET 12/05/1990 DET @ UTH L 23 6 2 2 100.0 0 0 - 2 4 50.0 1 2 3 0 0 2 0 2 -
p622
aVIsiah Thomas DET 12/05/1990 DET @ UTH L 39 21 9 20 45.0 0 4 0.0 3 3 100.0 0 4 4 7 1 0 3 5 -
p623
aVScott Hastings DET 12/05/1990 DET @ UTH L 4 0 0 0 - 0 0 - 0 0 - 0 0 0 0 0 0 0 0 -
p624
aVDennis Rodman DET 12/05/1990 DET @ UTH L 36 9 4 6 66.7 0 1 0.0 1 2 50.0 5 7 12 1 0 1 2 2 -
p625
aVWilliam Bedford DET 12/05/1990 DET @ UTH L 4 3 1 1 100.0 0 0 - 1 2 50.0 0 1 1 0 0 0 1 0 -
p626
aVMark Aguirre DET 12/05/1990 DET @ UTH L 17 6 3 6 50.0 0 0 - 0 0 - 1 2 3 1 1 0 2 4 -
p627
aVVinnie Johnson DET 12/05/1990 DET @ UTH L 22 11 4 9 44.4 0 0 - 3 4 75.0 0 1 1 2 0 0 0 0 -
p628
aVJohn Salley DET 12/05/1990 DET @ UTH L 25 7 2 3 66.7 0 0 - 3 4 75.0 1 2 3 0 1 0 3 4 -
p629
aVJames Edwards DET 12/05/1990 DET @ UTH L 19 5 2 5 40.0 0 0 - 1 2 50.0 1 2 3 1 0 0 4 5 -
p630
aVJoe Dumars DET 12/05/1990 DET @ UTH L 31 11 4 14 28.6 0 0 - 3 3 100.0 1 0 1 4 3 0 2 1 -
p631
aVBill Laimbeer DET 12/05/1990 DET @ UTH L 16 2 1 4 25.0 0 2 0.0 0 0 - 0 0 0 0 0 0 1 4 -
p632
aVWilliam Bedford DET 12/04/1990 DET @ LAL L 10 3 1 6 16.7 1 4 25.0 0 0 - 2 1 3 1 0 0 1 1 -
p633
aVJohn Salley DET 12/04/1990 DET @ LAL L 23 7 3 6 50.0 0 0 - 1 1 100.0 0 3 3 1 0 1 0 4 -
p634
aVLance Blanks DET 12/04/1990 DET @ LAL L 7 3 1 3 33.3 0 1 0.0 1 2 50.0 0 0 0 1 0 0 0 3 -
p635
aVVinnie Johnson DET 12/04/1990 DET @ LAL L 28 4 1 3 33.3 0 0 - 2 2 100.0 0 1 1 3 0 0 2 4 -
p636
aVDennis Rodman DET 12/04/1990 DET @ LAL L 25 4 2 3 66.7 0 0 - 0 0 - 0 5 5 0 0 0 0 2 -
p637
aVIsiah Thomas DET 12/04/1990 DET @ LAL L 29 17 7 16 43.8 0 1 0.0 3 7 42.9 1 2 3 11 2 1 3 2 -
p638
aVJoe Dumars DET 12/04/1990 DET @ LAL L 28 7 3 8 37.5 0 0 - 1 2 50.0 1 0 1 1 0 0 3 1 -
p639
aVMark Aguirre DET 12/04/1990 DET @ LAL L 22 9 4 12 33.3 0 1 0.0 1 1 100.0 3 2 5 2 2 0 1 1 -
p640
aVBill Laimbeer DET 12/04/1990 DET @ LAL L 31 13 4 8 50.0 2 2 100.0 3 3 100.0 3 3 6 0 0 0 0 1 -
p641
aVScott Hastings DET 12/04/1990 DET @ LAL L 5 4 0 0 - 0 0 - 4 4 100.0 0 0 0 0 0 0 1 1 -
p642
aVJames Edwards DET 12/04/1990 DET @ LAL L 32 19 8 16 50.0 0 0 - 3 4 75.0 0 6 6 0 0 0 1 3 -
p643
aVLance Blanks DET 12/01/1990 DET @ WAS L 2 0 0 1 0.0 0 0 - 0 0 - 1 0 1 0 0 0 0 0 -
p644
aVDennis Rodman DET 12/01/1990 DET @ WAS L 28 8 4 7 57.1 0 0 - 0 0 - 5 5 10 2 1 2 0 6 -
p645
aVWilliam Bedford DET 12/01/1990 DET @ WAS L 5 0 0 2 0.0 0 0 - 0 2 0.0 1 0 1 0 0 0 0 3 -
p646
aVBill Laimbeer DET 12/01/1990 DET @ WAS L 34 8 3 9 33.3 0 2 0.0 2 4 50.0 1 12 13 2 1 1 1 2 -
p647
aVIsiah Thomas DET 12/01/1990 DET @ WAS L 32 16 5 12 41.7 0 3 0.0 6 8 75.0 1 1 2 2 3 0 8 6 -
p648
aVJoe Dumars DET 12/01/1990 DET @ WAS L 40 16 6 15 40.0 0 0 - 4 4 100.0 0 1 1 2 3 0 2 1 -
p649
aVJohn Salley DET 12/01/1990 DET @ WAS L 30 6 3 6 50.0 0 0 - 0 0 - 2 1 3 0 1 2 1 3 -
p650
aVMark Aguirre DET 12/01/1990 DET @ WAS L 21 10 4 9 44.4 0 0 - 2 4 50.0 1 1 2 1 0 0 1 3 -
p651
aVJames Edwards DET 12/01/1990 DET @ WAS L 21 7 1 6 16.7 0 0 - 5 10 50.0 2 3 5 2 1 2 0 2 -
p652
aVVinnie Johnson DET 12/01/1990 DET @ WAS L 27 12 5 16 31.3 0 1 0.0 2 4 50.0 1 2 3 5 1 0 2 1 -
p653
aVJames Edwards DET 11/30/1990 DET vs. PHL W 34 18 8 18 44.4 0 0 - 2 2 100.0 3 1 4 1 0 2 0 4 -
p654
aVWilliam Bedford DET 11/30/1990 DET vs. PHL W 9 6 3 5 60.0 0 0 - 0 0 - 3 0 3 0 0 1 0 1 -
p655
aVTree Rollins DET 11/30/1990 DET vs. PHL W 1 0 0 0 - 0 0 - 0 0 - 0 0 0 0 0 0 0 0 -
p656
aVBill Laimbeer DET 11/30/1990 DET vs. PHL W 36 11 5 12 41.7 0 0 - 1 2 50.0 0 11 11 1 1 1 0 2 -
p657
aVJoe Dumars DET 11/30/1990 DET vs. PHL W 39 24 10 18 55.6 0 0 - 4 7 57.1 0 2 2 4 2 0 1 1 -
p658
aVIsiah Thomas DET 11/30/1990 DET vs. PHL W 28 11 4 14 28.6 0 1 0.0 3 5 60.0 1 1 2 6 2 1 1 2 -
p659
aVMark Aguirre DET 11/30/1990 DET vs. PHL W 26 13 6 9 66.7 1 1 100.0 0 0 - 2 4 6 2 1 0 1 1 -
p660
aVJohn Salley DET 11/30/1990 DET vs. PHL W 7 0 0 0 - 0 0 - 0 0 - 0 0 0 0 0 0 0 2 -
p661
aVDennis Rodman DET 11/30/1990 DET vs. PHL W 31 7 2 2 100.0 0 0 - 3 4 75.0 1 5 6 0 0 1 2 5 -
p662
aVVinnie Johnson DET 11/30/1990 DET vs. PHL W 29 6 2 6 33.3 0 0 - 2 4 50.0 2 7 9 8 1 0 0 1 -
p663
aVJoe Dumars DET 11/28/1990 DET vs. NYK W 41 18 8 16 50.0 0 0 - 2 2 100.0 0 1 1 8 3 0 2 1 -
p664
aVTree Rollins DET 11/28/1990 DET vs. NYK W 4 2 1 3 33.3 0 0 - 0 0 - 3 0 3 0 0 0 0 1 -
p665
aVMark Aguirre DET 11/28/1990 DET vs. NYK W 20 14 5 8 62.5 0 0 - 4 4 100.0 1 5 6 1 0 0 1 2 -
p666
aVJohn Salley DET 11/28/1990 DET vs. NYK W 17 3 0 0 - 0 0 - 3 4 75.0 1 3 4 0 0 1 0 3 -
p667
aVVinnie Johnson DET 11/28/1990 DET vs. NYK W 22 4 2 4 50.0 0 1 0.0 0 0 - 1 1 2 0 2 0 2 1 -
p668
aVDennis Rodman DET 11/28/1990 DET vs. NYK W 30 5 2 4 50.0 0 0 - 1 2 50.0 4 2 6 0 2 0 0 2 -
p669
aVJames Edwards DET 11/28/1990 DET vs. NYK W 31 22 9 15 60.0 0 0 - 4 5 80.0 4 3 7 1 1 0 0 2 -
p670
aVBill Laimbeer DET 11/28/1990 DET vs. NYK W 42 18 7 16 43.8 1 4 25.0 3 4 75.0 1 1 2 0 0 1 1 0 -
p671
aVIsiah Thomas DET 11/28/1990 DET vs. NYK W 33 4 2 12 16.7 0 0 - 0 0 - 1 3 4 9 4 0 1 2 -
p672
aVIsiah Thomas DET 11/27/1990 DET @ ATL W 30 15 7 12 58.3 0 1 0.0 1 2 50.0 1 3 4 15 1 1 0 2 -
p673
aVMark Aguirre DET 11/27/1990 DET @ ATL W 31 24 10 13 76.9 1 1 100.0 3 3 100.0 4 4 8 2 2 0 1 1 -
p674
aVJohn Salley DET 11/27/1990 DET @ ATL W 19 2 1 2 50.0 0 0 - 0 0 - 1 1 2 1 2 0 0 4 -
p675
aVScott Hastings DET 11/27/1990 DET @ ATL W 1 5 2 2 100.0 1 1 100.0 0 0 - 1 0 1 0 0 0 0 0 -
p676
aVJames Edwards DET 11/27/1990 DET @ ATL W 23 14 6 12 50.0 0 0 - 2 2 100.0 0 2 2 0 0 0 2 0 -
p677
aVDennis Rodman DET 11/27/1990 DET @ ATL W 24 6 3 3 100.0 0 0 - 0 0 - 4 10 14 3 1 0 2 3 -
p678
aVJoe Dumars DET 11/27/1990 DET @ ATL W 34 15 7 14 50.0 0 0 - 1 2 50.0 1 1 2 4 1 0 2 0 -
p679
aVLance Blanks DET 11/27/1990 DET @ ATL W 7 3 1 1 100.0 0 0 - 1 2 50.0 0 0 0 2 0 0 1 1 -
p680
aVWilliam Bedford DET 11/27/1990 DET @ ATL W 6 3 1 3 33.3 0 0 - 1 2 50.0 0 1 1 0 0 1 0 1 -
p681
aVVinnie Johnson DET 11/27/1990 DET @ ATL W 20 8 4 11 36.4 0 0 - 0 0 - 0 5 5 2 1 0 4 1 -
p682
aVTree Rollins DET 11/27/1990 DET @ ATL W 10 0 0 0 - 0 0 - 0 0 - 0 1 1 1 0 1 1 3 -
p683
aVBill Laimbeer DET 11/27/1990 DET @ ATL W 35 25 11 18 61.1 3 5 60.0 0 0 - 0 6 6 5 0 0 0 2 -
p684
aVDennis Rodman DET 11/25/1990 DET vs. SAC W 29 0 0 0 - 0 0 - 0 0 - 2 11 13 0 0 0 0 3 -
p685
aVMark Aguirre DET 11/25/1990 DET vs. SAC W 21 17 5 8 62.5 2 2 100.0 5 8 62.5 2 3 5 1 0 0 2 3 -
p686
aVLance Blanks DET 11/25/1990 DET vs. SAC W 6 0 0 1 0.0 0 0 - 0 0 - 0 1 1 0 0 0 0 1 -
p687
aVVinnie Johnson DET 11/25/1990 DET vs. SAC W 29 16 8 11 72.7 0 1 0.0 0 0 - 0 2 2 3 0 0 0 3 -
p688
aVJoe Dumars DET 11/25/1990 DET vs. SAC W 30 12 3 8 37.5 0 0 - 6 6 100.0 1 1 2 7 0 0 1 0 -
p689
aVScott Hastings DET 11/25/1990 DET vs. SAC W 3 2 1 1 100.0 0 0 - 0 0 - 0 0 0 0 0 0 0 0 -
p690
aVJames Edwards DET 11/25/1990 DET vs. SAC W 28 26 8 13 61.5 0 0 - 10 11 90.9 2 1 3 1 0 0 1 3 -
p691
aVTree Rollins DET 11/25/1990 DET vs. SAC W 6 2 1 3 33.3 0 0 - 0 0 - 0 0 0 0 0 0 1 1 -
p692
aVIsiah Thomas DET 11/25/1990 DET vs. SAC W 31 13 4 12 33.3 0 0 - 5 8 62.5 0 1 1 9 2 0 5 1 -
p693
aVJohn Salley DET 11/25/1990 DET vs. SAC W 20 7 2 5 40.0 0 0 - 3 3 100.0 1 1 2 1 1 1 1 2 -
p694
aVWilliam Bedford DET 11/25/1990 DET vs. SAC W 3 0 0 2 0.0 0 0 - 0 0 - 0 0 0 0 0 0 0 0 -
p695
aVBill Laimbeer DET 11/25/1990 DET vs. SAC W 34 10 5 9 55.6 0 1 0.0 0 0 - 0 12 12 5 1 0 0 3 -
p696
aVDennis Rodman DET 11/23/1990 DET vs. WAS W 26 6 3 8 37.5 0 0 - 0 2 0.0 6 9 15 1 0 2 2 2 -
p697
aVJoe Dumars DET 11/23/1990 DET vs. WAS W 34 19 9 16 56.3 0 1 0.0 1 1 100.0 1 2 3 6 3 0 4 2 -
p698
aVIsiah Thomas DET 11/23/1990 DET vs. WAS W 38 18 7 12 58.3 2 2 100.0 2 2 100.0 0 1 1 8 1 0 2 0 -
p699
aVJames Edwards DET 11/23/1990 DET vs. WAS W 32 14 4 9 44.4 0 0 - 6 8 75.0 0 4 4 1 0 2 1 2 -
p700
aVMark Aguirre DET 11/23/1990 DET vs. WAS W 27 20 8 13 61.5 1 1 100.0 3 4 75.0 2 7 9 0 0 1 2 2 -
p701
aVVinnie Johnson DET 11/23/1990 DET vs. WAS W 24 8 3 13 23.1 0 1 0.0 2 3 66.7 0 3 3 3 0 0 0 2 -
p702
aVJohn Salley DET 11/23/1990 DET vs. WAS W 28 8 2 9 22.2 0 0 - 4 5 80.0 3 8 11 3 1 2 1 6 -
p703
aVBill Laimbeer DET 11/23/1990 DET vs. WAS W 31 4 2 7 28.6 0 1 0.0 0 0 - 2 10 12 6 0 2 3 0 -
p704
aVDennis Rodman DET 11/21/1990 DET @ IND W 34 4 2 5 40.0 0 0 - 0 0 - 5 9 14 1 0 0 1 6 -
p705
aVJoe Dumars DET 11/21/1990 DET @ IND W 32 15 6 15 40.0 0 0 - 3 4 75.0 0 1 1 3 0 1 3 4 -
p706
aVIsiah Thomas DET 11/21/1990 DET @ IND W 47 32 11 27 40.7 3 5 60.0 7 8 87.5 0 5 5 11 1 0 3 3 -
p707
aVVinnie Johnson DET 11/21/1990 DET @ IND W 24 8 4 7 57.1 0 1 0.0 0 1 0.0 0 1 1 6 1 0 1 4 -
p708
aVJohn Salley DET 11/21/1990 DET @ IND W 31 8 4 7 57.1 0 0 - 0 0 - 3 5 8 1 1 2 0 2 -
p709
aVLance Blanks DET 11/21/1990 DET @ IND W 3 0 0 1 0.0 0 0 - 0 0 - 0 0 0 1 0 0 0 0 -
p710
aVJames Edwards DET 11/21/1990 DET @ IND W 27 17 7 10 70.0 0 0 - 3 4 75.0 1 2 3 0 0 1 3 4 -
p711
aVMark Aguirre DET 11/21/1990 DET @ IND W 25 13 5 12 41.7 0 0 - 3 3 100.0 1 5 6 4 1 0 0 1 -
p712
aVBill Laimbeer DET 11/21/1990 DET @ IND W 42 11 5 11 45.5 0 1 0.0 1 2 50.0 4 8 12 3 2 1 1 3 -
p713
aVTree Rollins DET 11/20/1990 DET @ MIA W 2 2 1 1 100.0 0 0 - 0 0 - 0 0 0 0 0 0 0 0 -
p714
aVJames Edwards DET 11/20/1990 DET @ MIA W 27 14 6 8 75.0 0 0 - 2 2 100.0 2 4 6 2 1 2 3 5 -
p715
aVBill Laimbeer DET 11/20/1990 DET @ MIA W 33 4 1 7 14.3 0 0 - 2 2 100.0 1 8 9 1 2 2 2 3 -
p716
aVMark Aguirre DET 11/20/1990 DET @ MIA W 31 22 8 15 53.3 0 2 0.0 6 6 100.0 3 1 4 1 3 0 2 3 -
p717
aVLance Blanks DET 11/20/1990 DET @ MIA W 4 2 0 1 0.0 0 0 - 2 2 100.0 0 0 0 1 0 0 2 0 -
p718
aVJohn Salley DET 11/20/1990 DET @ MIA W 29 24 8 10 80.0 0 0 - 8 9 88.9 3 4 7 0 1 1 0 3 -
p719
aVDennis Rodman DET 11/20/1990 DET @ MIA W 15 0 0 0 - 0 0 - 0 0 - 0 3 3 0 0 0 1 2 -
p720
aVIsiah Thomas DET 11/20/1990 DET @ MIA W 36 13 5 13 38.5 0 1 0.0 3 4 75.0 0 2 2 14 1 0 4 2 -
p721
aVJoe Dumars DET 11/20/1990 DET @ MIA W 31 17 6 13 46.2 0 0 - 5 5 100.0 0 2 2 3 0 0 3 1 -
p722
aVScott Hastings DET 11/20/1990 DET @ MIA W 2 0 0 0 - 0 0 - 0 0 - 0 0 0 0 0 0 0 1 -
p723
aVVinnie Johnson DET 11/20/1990 DET @ MIA W 25 4 2 9 22.2 0 0 - 0 0 - 0 2 2 3 0 0 1 1 -
p724
aVWilliam Bedford DET 11/20/1990 DET @ MIA W 5 4 2 4 50.0 0 0 - 0 0 - 3 1 4 1 1 0 0 1 -
p725
aVBill Laimbeer DET 11/17/1990 DET vs. ATL W 39 16 8 14 57.1 0 2 0.0 0 0 - 2 6 8 0 1 0 3 2 -
p726
aVMark Aguirre DET 11/17/1990 DET vs. ATL W 30 20 6 16 37.5 0 1 0.0 8 9 88.9 2 3 5 0 1 0 2 1 -
p727
aVTree Rollins DET 11/17/1990 DET vs. ATL W 5 0 0 0 - 0 0 - 0 0 - 0 1 1 0 0 2 0 1 -
p728
aVJohn Salley DET 11/17/1990 DET vs. ATL W 28 6 2 3 66.7 0 0 - 2 4 50.0 2 4 6 1 0 2 4 2 -
p729
aVJames Edwards DET 11/17/1990 DET vs. ATL W 18 10 3 10 30.0 0 0 - 4 4 100.0 2 2 4 0 0 0 2 3 -
p730
aVDennis Rodman DET 11/17/1990 DET vs. ATL W 24 4 1 5 20.0 1 1 100.0 1 2 50.0 3 5 8 3 0 2 0 2 -
p731
aVVinnie Johnson DET 11/17/1990 DET vs. ATL W 33 11 5 11 45.5 0 1 0.0 1 4 25.0 2 2 4 3 4 0 0 3 -
p732
aVJoe Dumars DET 11/17/1990 DET vs. ATL W 33 18 8 16 50.0 0 0 - 2 2 100.0 2 0 2 3 3 0 2 4 -
p733
aVIsiah Thomas DET 11/17/1990 DET vs. ATL W 30 6 3 11 27.3 0 1 0.0 0 0 - 2 4 6 7 0 1 2 0 -
p734
aVVinnie Johnson DET 11/16/1990 DET @ NJN W 23 8 3 8 37.5 0 1 0.0 2 4 50.0 0 1 1 2 1 0 2 1 -
p735
aVLance Blanks DET 11/16/1990 DET @ NJN W 1 0 0 0 - 0 0 - 0 0 - 0 0 0 0 0 0 0 0 -
p736
aVJohn Salley DET 11/16/1990 DET @ NJN W 22 8 3 9 33.3 0 0 - 2 2 100.0 4 0 4 1 3 0 2 2 -
p737
aVJames Edwards DET 11/16/1990 DET @ NJN W 33 14 5 10 50.0 0 0 - 4 4 100.0 0 3 3 0 0 2 1 4 -
p738
aVJoe Dumars DET 11/16/1990 DET @ NJN W 35 20 6 11 54.5 0 0 - 8 9 88.9 1 1 2 3 0 0 1 0 -
p739
aVBill Laimbeer DET 11/16/1990 DET @ NJN W 37 15 5 12 41.7 1 5 20.0 4 4 100.0 0 13 13 1 2 3 1 1 -
p740
aVTree Rollins DET 11/16/1990 DET @ NJN W 1 0 0 0 - 0 0 - 0 0 - 0 0 0 0 0 0 0 0 -
p741
aVMark Aguirre DET 11/16/1990 DET @ NJN W 22 14 7 13 53.8 0 0 - 0 0 - 1 4 5 0 0 1 3 5 -
p742
aVIsiah Thomas DET 11/16/1990 DET @ NJN W 37 18 5 11 45.5 0 1 0.0 8 11 72.7 0 5 5 14 1 1 5 2 -
p743
aVDennis Rodman DET 11/16/1990 DET @ NJN W 29 8 3 5 60.0 0 0 - 2 3 66.7 2 6 8 0 3 1 1 5 -
p744
aVJoe Dumars DET 11/13/1990 DET vs. MIA W 27 13 4 12 33.3 0 0 - 5 6 83.3 1 2 3 4 3 0 1 0 -
p745
aVTree Rollins DET 11/13/1990 DET vs. MIA W 3 0 0 0 - 0 0 - 0 0 - 0 1 1 1 0 0 0 0 -
p746
aVMark Aguirre DET 11/13/1990 DET vs. MIA W 24 20 7 12 58.3 1 2 50.0 5 6 83.3 1 3 4 0 1 0 3 3 -
p747
aVScott Hastings DET 11/13/1990 DET vs. MIA W 3 2 1 1 100.0 0 0 - 0 0 - 0 1 1 0 0 0 0 0 -
p748
aVDennis Rodman DET 11/13/1990 DET vs. MIA W 29 5 2 5 40.0 0 0 - 1 2 50.0 5 4 9 5 3 0 2 2 -
p749
aVBill Laimbeer DET 11/13/1990 DET vs. MIA W 22 11 5 9 55.6 1 2 50.0 0 0 - 0 8 8 3 1 0 2 3 -
p750
aVJames Edwards DET 11/13/1990 DET vs. MIA W 31 13 5 11 45.5 0 0 - 3 4 75.0 2 4 6 2 0 0 0 4 -
p751
aVIsiah Thomas DET 11/13/1990 DET vs. MIA W 35 23 9 15 60.0 1 1 100.0 4 4 100.0 0 3 3 13 4 0 3 1 -
p752
aVLance Blanks DET 11/13/1990 DET vs. MIA W 6 4 1 3 33.3 0 0 - 2 2 100.0 0 0 0 0 0 0 0 2 -
p753
aVVinnie Johnson DET 11/13/1990 DET vs. MIA W 28 10 4 11 36.4 0 0 - 2 4 50.0 1 2 3 4 0 0 0 2 -
p754
aVWilliam Bedford DET 11/13/1990 DET vs. MIA W 7 2 1 4 25.0 0 0 - 0 0 - 1 1 2 2 0 0 1 0 -
p755
aVJohn Salley DET 11/13/1990 DET vs. MIA W 25 15 6 7 85.7 0 0 - 3 4 75.0 1 2 3 2 1 1 2 3 -
p756
aVJames Edwards DET 11/09/1990 DET @ POR L 23 8 4 14 28.6 0 0 - 0 0 - 1 2 3 0 1 0 4 4 -
p757
aVVinnie Johnson DET 11/09/1990 DET @ POR L 28 21 8 14 57.1 5 6 83.3 0 0 - 1 2 3 2 0 0 1 1 -
p758
aVDennis Rodman DET 11/09/1990 DET @ POR L 27 5 2 3 66.7 0 0 - 1 3 33.3 6 6 12 2 1 1 1 4 -
p759
aVBill Laimbeer DET 11/09/1990 DET @ POR L 26 10 4 7 57.1 1 2 50.0 1 1 100.0 3 5 8 1 0 0 0 4 -
p760
aVWilliam Bedford DET 11/09/1990 DET @ POR L 1 0 0 1 0.0 0 0 - 0 0 - 0 0 0 0 0 0 1 0 -
p761
aVJoe Dumars DET 11/09/1990 DET @ POR L 36 11 5 14 35.7 0 1 0.0 1 2 50.0 1 1 2 2 2 0 1 4 -
p762
aVJohn Salley DET 11/09/1990 DET @ POR L 15 3 1 2 50.0 0 0 - 1 2 50.0 0 0 0 0 1 0 1 1 -
p763
aVIsiah Thomas DET 11/09/1990 DET @ POR L 27 6 2 8 25.0 0 1 0.0 2 2 100.0 0 2 2 9 4 0 3 1 -
p764
aVLance Blanks DET 11/09/1990 DET @ POR L 12 7 3 5 60.0 1 2 50.0 0 0 - 0 0 0 3 0 0 1 2 -
p765
aVMark Aguirre DET 11/09/1990 DET @ POR L 45 30 11 25 44.0 0 3 0.0 8 9 88.9 2 2 4 1 3 0 1 4 -
p766
aVDennis Rodman DET 11/07/1990 DET @ LAC W 28 7 3 3 100.0 0 0 - 1 2 50.0 5 6 11 1 1 1 0 3 -
p767
aVIsiah Thomas DET 11/07/1990 DET @ LAC W 31 13 5 11 45.5 1 3 33.3 2 3 66.7 0 4 4 10 3 0 7 2 -
p768
aVJames Edwards DET 11/07/1990 DET @ LAC W 30 14 3 11 27.3 0 0 - 8 8 100.0 3 8 11 1 0 1 1 3 -
p769
aVJoe Dumars DET 11/07/1990 DET @ LAC W 34 25 9 17 52.9 0 0 - 7 8 87.5 0 0 0 7 0 0 1 1 -
p770
aVJohn Salley DET 11/07/1990 DET @ LAC W 12 4 1 3 33.3 0 0 - 2 2 100.0 4 0 4 0 2 0 2 4 -
p771
aVTree Rollins DET 11/07/1990 DET @ LAC W 4 0 0 2 0.0 0 0 - 0 0 - 0 1 1 0 0 1 0 1 -
p772
aVBill Laimbeer DET 11/07/1990 DET @ LAC W 25 9 4 8 50.0 0 1 0.0 1 2 50.0 1 4 5 0 1 0 0 4 -
p773
aVLance Blanks DET 11/07/1990 DET @ LAC W 4 2 1 2 50.0 0 0 - 0 0 - 0 1 1 0 1 1 0 1 -
p774
aVMark Aguirre DET 11/07/1990 DET @ LAC W 27 12 6 12 50.0 0 0 - 0 2 0.0 2 7 9 0 0 0 2 0 -
p775
aVWilliam Bedford DET 11/07/1990 DET @ LAC W 11 8 2 5 40.0 0 0 - 4 4 100.0 1 0 1 0 0 1 1 1 -
p776
aVScott Hastings DET 11/07/1990 DET @ LAC W 7 2 1 2 50.0 0 0 - 0 0 - 1 0 1 0 0 0 0 2 -
p777
aVVinnie Johnson DET 11/07/1990 DET @ LAC W 27 14 5 9 55.6 0 0 - 4 6 66.7 1 2 3 3 0 1 1 3 -
p778
aVWilliam Bedford DET 11/06/1990 DET @ SEA L 1 9 3 3 100.0 3 3 100.0 0 0 - 0 1 1 0 0 0 0 0 -
p779
aVIsiah Thomas DET 11/06/1990 DET @ SEA L 36 10 3 13 23.1 0 4 0.0 4 4 100.0 1 1 2 5 2 0 5 3 -
p780
aVLance Blanks DET 11/06/1990 DET @ SEA L 1 1 0 2 0.0 0 2 0.0 1 2 50.0 0 0 0 3 0 0 0 1 -
p781
aVJames Edwards DET 11/06/1990 DET @ SEA L 35 16 5 10 50.0 0 0 - 6 8 75.0 3 6 9 1 0 0 5 5 -
p782
aVDennis Rodman DET 11/06/1990 DET @ SEA L 21 4 1 3 33.3 0 0 - 2 2 100.0 2 1 3 0 1 0 0 6 -
p783
aVBill Laimbeer DET 11/06/1990 DET @ SEA L 41 14 5 11 45.5 1 3 33.3 3 3 100.0 2 7 9 2 0 0 2 5 -
p784
aVVinnie Johnson DET 11/06/1990 DET @ SEA L 20 6 3 7 42.9 0 0 - 0 1 0.0 0 0 0 1 1 1 0 1 -
p785
aVScott Hastings DET 11/06/1990 DET @ SEA L 2 0 0 0 - 0 0 - 0 0 - 0 0 0 0 0 0 0 1 -
p786
aVJoe Dumars DET 11/06/1990 DET @ SEA L 39 23 8 15 53.3 0 0 - 7 7 100.0 1 1 2 5 1 0 4 1 -
p787
aVMark Aguirre DET 11/06/1990 DET @ SEA L 29 9 2 8 25.0 1 1 100.0 4 4 100.0 1 4 5 2 1 0 1 3 -
p788
aVJohn Salley DET 11/06/1990 DET @ SEA L 15 0 0 1 0.0 0 0 - 0 0 - 1 1 2 0 0 1 3 3 -
p789
aVJohn Salley DET 11/03/1990 DET vs. CLE W 18 6 2 5 40.0 0 0 - 2 3 66.7 2 4 6 0 0 0 2 4 -
p790
aVTree Rollins DET 11/03/1990 DET vs. CLE W 2 0 0 1 0.0 0 0 - 0 0 - 0 1 1 0 0 0 0 0 -
p791
aVVinnie Johnson DET 11/03/1990 DET vs. CLE W 30 11 5 10 50.0 1 1 100.0 0 0 - 2 4 6 4 2 0 3 4 -
p792
aVMark Aguirre DET 11/03/1990 DET vs. CLE W 31 14 5 11 45.5 0 0 - 4 5 80.0 2 3 5 2 0 0 1 1 -
p793
aVIsiah Thomas DET 11/03/1990 DET vs. CLE W 33 24 10 17 58.8 2 3 66.7 2 2 100.0 2 2 4 10 0 0 4 4 -
p794
aVDennis Rodman DET 11/03/1990 DET vs. CLE W 27 4 2 4 50.0 0 0 - 0 0 - 5 4 9 0 1 0 2 4 -
p795
aVBill Laimbeer DET 11/03/1990 DET vs. CLE W 42 18 8 12 66.7 1 1 100.0 1 2 50.0 3 14 17 4 2 2 2 3 -
p796
aVJoe Dumars DET 11/03/1990 DET vs. CLE W 33 19 7 17 41.2 0 2 0.0 5 5 100.0 1 2 3 3 0 0 4 1 -
p797
aVJames Edwards DET 11/03/1990 DET vs. CLE W 24 10 5 11 45.5 0 0 - 0 0 - 1 4 5 3 0 0 3 4 -
p798
aVJoe Dumars DET 11/02/1990 DET vs. MIL W 35 19 6 11 54.5 0 0 - 7 9 77.8 0 2 2 6 3 0 3 1 -
p799
aVJohn Salley DET 11/02/1990 DET vs. MIL W 27 13 4 9 44.4 0 0 - 5 8 62.5 1 1 2 5 1 0 0 5 -
p800
aVBill Laimbeer DET 11/02/1990 DET vs. MIL W 36 18 6 11 54.5 0 2 0.0 6 6 100.0 5 8 13 4 0 0 2 2 -
p801
aVVinnie Johnson DET 11/02/1990 DET vs. MIL W 21 11 5 11 45.5 1 1 100.0 0 0 - 1 2 3 2 1 0 0 1 -
p802
aVWilliam Bedford DET 11/02/1990 DET vs. MIL W 1 0 0 0 - 0 0 - 0 0 - 0 0 0 0 0 0 0 0 -
p803
aVMark Aguirre DET 11/02/1990 DET vs. MIL W 20 12 5 10 50.0 2 2 100.0 0 0 - 1 1 2 0 0 1 0 4 -
p804
aVDennis Rodman DET 11/02/1990 DET vs. MIL W 27 7 3 5 60.0 0 0 - 1 2 50.0 5 6 11 3 0 0 2 2 -
p805
aVLance Blanks DET 11/02/1990 DET vs. MIL W 1 0 0 0 - 0 0 - 0 0 - 0 0 0 0 0 0 0 0 -
p806
aVScott Hastings DET 11/02/1990 DET vs. MIL W 1 0 0 0 - 0 0 - 0 0 - 0 0 0 0 0 0 0 0 -
p807
aVIsiah Thomas DET 11/02/1990 DET vs. MIL W 39 17 5 12 41.7 0 2 0.0 7 8 87.5 1 5 6 6 1 0 5 3 -
p808
aVJames Edwards DET 11/02/1990 DET vs. MIL W 32 18 6 14 42.9 0 0 - 6 7 85.7 2 1 3 1 0 1 1 4 -
p809
a.