(lp0
VPLAYER TEAM DATE MATCHUP W/L MIN PTS FGM FGA FG% 3PM 3PA 3P% FTM FTA FT% OREB DREB REB AST STL BLK TOV PF +/-
p1
aVPatrick Ewing NYK 04/30/1991 NYK vs. CHI L 40 20 7 16 43.8 0 0 - 6 8 75.0 1 13 14 3 0 2 4 2 -
p2
aVBrian Quinnett NYK 04/30/1991 NYK vs. CHI L 5 0 0 2 0.0 0 0 - 0 0 - 0 0 0 1 0 0 0 0 -
p3
aVKiki Vandeweghe NYK 04/30/1991 NYK vs. CHI L 37 20 4 9 44.4 1 1 100.0 11 13 84.6 1 2 3 2 1 0 6 3 -
p4
aVCharles Oakley NYK 04/30/1991 NYK vs. CHI L 35 8 3 4 75.0 0 0 - 2 4 50.0 3 7 10 1 2 0 3 3 -
p5
aVMaurice Cheeks NYK 04/30/1991 NYK vs. CHI L 37 11 5 8 62.5 0 1 0.0 1 2 50.0 0 3 3 7 0 0 2 3 -
p6
aVTrent Tucker NYK 04/30/1991 NYK vs. CHI L 18 12 5 8 62.5 2 2 100.0 0 0 - 0 1 1 2 1 0 0 2 -
p7
aVKenny Walker NYK 04/30/1991 NYK vs. CHI L 8 0 0 1 0.0 0 0 - 0 0 - 1 2 3 0 1 0 0 1 -
p8
aVJerrod Mustaf NYK 04/30/1991 NYK vs. CHI L 8 8 2 2 100.0 0 0 - 4 5 80.0 2 0 2 0 0 1 0 0 -
p9
aVMark Jackson NYK 04/30/1991 NYK vs. CHI L 12 0 0 0 - 0 0 - 0 0 - 0 0 0 4 0 1 2 0 -
p10
aVJohn Starks NYK 04/30/1991 NYK vs. CHI L 6 0 0 0 - 0 0 - 0 0 - 0 1 1 1 0 0 2 1 -
p11
aVGerald Wilkins NYK 04/30/1991 NYK vs. CHI L 34 15 7 15 46.7 1 4 25.0 0 0 - 0 0 0 2 1 1 4 4 -
p12
aVBrian Quinnett NYK 04/28/1991 NYK @ CHI L 12 2 1 1 100.0 0 0 - 0 0 - 0 1 1 2 1 0 0 1 -
p13
aVMark Jackson NYK 04/28/1991 NYK @ CHI L 5 0 0 0 - 0 0 - 0 0 - 0 0 0 2 0 0 1 0 -
p14
aVKenny Walker NYK 04/28/1991 NYK @ CHI L 14 8 4 4 100.0 0 0 - 0 0 - 1 3 4 2 0 1 1 4 -
p15
aVJohn Starks NYK 04/28/1991 NYK @ CHI L 4 0 0 0 - 0 0 - 0 0 - 0 0 0 2 0 0 0 1 -
p16
aVJerrod Mustaf NYK 04/28/1991 NYK @ CHI L 5 2 1 2 50.0 0 0 - 0 0 - 0 1 1 0 0 0 0 1 -
p17
aVGerald Wilkins NYK 04/28/1991 NYK @ CHI L 22 8 4 13 30.8 0 2 0.0 0 0 - 2 3 5 2 3 0 2 3 -
p18
aVTrent Tucker NYK 04/28/1991 NYK @ CHI L 24 5 2 9 22.2 1 4 25.0 0 0 - 2 3 5 3 0 0 0 2 -
p19
aVCharles Oakley NYK 04/28/1991 NYK @ CHI L 32 3 1 7 14.3 0 0 - 1 2 50.0 7 3 10 2 0 0 2 5 -
p20
aVKiki Vandeweghe NYK 04/28/1991 NYK @ CHI L 36 12 4 11 36.4 0 2 0.0 4 4 100.0 0 3 3 1 0 0 4 3 -
p21
aVMaurice Cheeks NYK 04/28/1991 NYK @ CHI L 43 15 7 10 70.0 1 2 50.0 0 0 - 1 2 3 2 2 1 4 3 -
p22
aVPatrick Ewing NYK 04/28/1991 NYK @ CHI L 43 24 8 22 36.4 0 0 - 8 10 80.0 1 9 10 2 0 2 2 5 -
p23
aVJohn Starks NYK 04/25/1991 NYK @ CHI L 18 6 2 5 40.0 0 0 - 2 2 100.0 1 1 2 3 0 0 4 2 -
p24
aVJerrod Mustaf NYK 04/25/1991 NYK @ CHI L 9 2 1 1 100.0 0 0 - 0 0 - 1 1 2 0 0 0 1 1 -
p25
aVMaurice Cheeks NYK 04/25/1991 NYK @ CHI L 21 4 2 5 40.0 0 0 - 0 0 - 2 1 3 7 1 0 2 3 -
p26
aVKenny Walker NYK 04/25/1991 NYK @ CHI L 9 2 0 3 0.0 0 0 - 2 2 100.0 0 0 0 0 0 0 2 3 -
p27
aVEddielee Wilkins NYK 04/25/1991 NYK @ CHI L 13 9 4 6 66.7 0 0 - 1 2 50.0 2 0 2 0 0 0 2 4 -
p28
aVMark Jackson NYK 04/25/1991 NYK @ CHI L 19 2 1 3 33.3 0 0 - 0 0 - 0 0 0 2 1 0 2 1 -
p29
aVGerald Wilkins NYK 04/25/1991 NYK @ CHI L 22 9 3 10 30.0 1 1 100.0 2 2 100.0 0 3 3 1 1 0 2 4 -
p30
aVCharles Oakley NYK 04/25/1991 NYK @ CHI L 33 12 6 10 60.0 0 0 - 0 0 - 5 6 11 0 0 1 2 5 -
p31
aVTrent Tucker NYK 04/25/1991 NYK @ CHI L 24 7 2 8 25.0 1 4 25.0 2 2 100.0 1 5 6 4 0 0 1 3 -
p32
aVBrian Quinnett NYK 04/25/1991 NYK @ CHI L 19 7 3 5 60.0 1 3 33.3 0 0 - 0 0 0 0 0 0 2 1 -
p33
aVPatrick Ewing NYK 04/25/1991 NYK @ CHI L 27 6 3 7 42.9 0 0 - 0 0 - 0 6 6 1 1 1 5 5 -
p34
aVKiki Vandeweghe NYK 04/25/1991 NYK @ CHI L 26 19 5 12 41.7 2 2 100.0 7 8 87.5 0 2 2 1 0 0 2 2 -
p35
a.