(lp0
VPLAYER TEAM DATE MATCHUP W/L MIN PTS FGM FGA FG% 3PM 3PA 3P% FTM FTA FT% OREB DREB REB AST STL BLK TOV PF +/-
p1
aVRod Strickland SAN 05/03/1991 SAN @ GOS L 42 21 9 19 47.4 0 1 0.0 3 3 100.0 3 5 8 8 2 0 3 4 -
p2
aVWillie Anderson SAN 05/03/1991 SAN @ GOS L 35 8 4 16 25.0 0 1 0.0 0 0 - 1 1 2 3 1 0 2 4 -
p3
aVDavid Robinson SAN 05/03/1991 SAN @ GOS L 45 18 7 11 63.6 0 0 - 4 6 66.7 1 13 14 4 2 2 6 2 -
p4
aVPaul Pressey SAN 05/03/1991 SAN @ GOS L 23 6 3 8 37.5 0 2 0.0 0 0 - 0 0 0 1 0 0 0 3 -
p5
aVSean Elliott SAN 05/03/1991 SAN @ GOS L 41 23 8 14 57.1 0 0 - 7 9 77.8 3 5 8 4 1 0 3 2 -
p6
aVDavid Wingate SAN 05/03/1991 SAN @ GOS L 25 10 4 8 50.0 0 0 - 2 3 66.7 1 2 3 1 1 0 1 6 -
p7
aVTerry Cummings SAN 05/03/1991 SAN @ GOS L 26 11 5 7 71.4 0 0 - 1 2 50.0 2 2 4 0 2 0 2 4 -
p8
aVSean Higgins SAN 05/03/1991 SAN @ GOS L 3 0 0 0 - 0 0 - 0 0 - 0 0 0 1 0 0 0 0 -
p9
aVSean Elliott SAN 05/01/1991 SAN @ GOS L 43 24 6 12 50.0 0 2 0.0 12 14 85.7 2 3 5 5 2 0 4 1 -
p10
aVAvery Johnson SAN 05/01/1991 SAN @ GOS L 2 2 0 0 - 0 0 - 2 2 100.0 0 0 0 0 0 0 0 0 -
p11
aVDavid Wingate SAN 05/01/1991 SAN @ GOS L 12 4 2 4 50.0 0 0 - 0 0 - 0 0 0 0 0 0 0 2 -
p12
aVTerry Cummings SAN 05/01/1991 SAN @ GOS L 36 13 6 12 50.0 0 1 0.0 1 2 50.0 3 6 9 2 1 0 3 3 -
p13
aVPaul Pressey SAN 05/01/1991 SAN @ GOS L 25 7 1 3 33.3 1 1 100.0 4 6 66.7 1 0 1 4 2 0 0 3 -
p14
aVDavid Robinson SAN 05/01/1991 SAN @ GOS L 45 27 10 17 58.8 0 1 0.0 7 7 100.0 2 10 12 1 4 2 2 1 -
p15
aVRod Strickland SAN 05/01/1991 SAN @ GOS L 42 16 5 16 31.3 0 5 0.0 6 6 100.0 0 3 3 7 1 0 3 2 -
p16
aVSidney Green SAN 05/01/1991 SAN @ GOS L 3 2 1 2 50.0 0 0 - 0 0 - 0 2 2 0 0 0 0 1 -
p17
aVWillie Anderson SAN 05/01/1991 SAN @ GOS L 32 11 5 13 38.5 0 1 0.0 1 1 100.0 1 2 3 5 1 0 1 4 -
p18
aVSean Elliott SAN 04/27/1991 SAN vs. GOS L 15 1 0 3 0.0 0 0 - 1 2 50.0 1 3 4 2 0 1 1 1 -
p19
aVDavid Wingate SAN 04/27/1991 SAN vs. GOS L 1 0 0 0 - 0 0 - 0 0 - 0 0 0 0 0 0 0 0 -
p20
aVRod Strickland SAN 04/27/1991 SAN vs. GOS L 42 8 3 12 25.0 0 0 - 2 2 100.0 0 1 1 7 2 0 3 3 -
p21
aVWillie Anderson SAN 04/27/1991 SAN vs. GOS L 45 19 6 14 42.9 2 5 40.0 5 9 55.6 0 7 7 4 1 2 4 5 -
p22
aVAvery Johnson SAN 04/27/1991 SAN vs. GOS L 10 0 0 4 0.0 0 1 0.0 0 0 - 0 0 0 1 0 0 0 2 -
p23
aVPaul Pressey SAN 04/27/1991 SAN vs. GOS L 39 12 6 11 54.5 0 1 0.0 0 1 0.0 0 2 2 5 4 3 4 4 -
p24
aVTerry Cummings SAN 04/27/1991 SAN vs. GOS L 36 26 11 20 55.0 0 0 - 4 7 57.1 6 6 12 0 0 1 2 4 -
p25
aVDavid Robinson SAN 04/27/1991 SAN vs. GOS L 43 28 9 13 69.2 0 0 - 10 10 100.0 4 11 15 2 0 3 5 4 -
p26
aVSidney Green SAN 04/27/1991 SAN vs. GOS L 5 4 1 2 50.0 0 0 - 2 2 100.0 1 1 2 0 0 0 0 1 -
p27
aVSean Higgins SAN 04/27/1991 SAN vs. GOS L 4 0 0 1 0.0 0 0 - 0 0 - 0 0 0 0 0 0 0 1 -
p28
aVRod Strickland SAN 04/25/1991 SAN vs. GOS W 42 30 12 20 60.0 0 0 - 6 10 60.0 2 7 9 13 4 0 4 5 -
p29
aVTerry Cummings SAN 04/25/1991 SAN vs. GOS W 26 9 3 10 30.0 0 0 - 3 7 42.9 3 9 12 2 0 1 2 2 -
p30
aVSean Elliott SAN 04/25/1991 SAN vs. GOS W 33 11 3 11 27.3 0 1 0.0 5 7 71.4 2 3 5 5 1 0 1 5 -
p31
aVDavid Robinson SAN 04/25/1991 SAN vs. GOS W 33 30 9 10 90.0 0 0 - 12 15 80.0 4 9 13 1 0 8 2 4 -
p32
aVWillie Anderson SAN 04/25/1991 SAN vs. GOS W 47 38 18 25 72.0 0 3 0.0 2 3 66.7 0 7 7 7 3 0 6 3 -
p33
aVDavid Greenwood SAN 04/25/1991 SAN vs. GOS W 5 2 1 1 100.0 0 0 - 0 0 - 1 1 2 2 0 0 1 0 -
p34
aVSean Higgins SAN 04/25/1991 SAN vs. GOS W 6 0 0 1 0.0 0 0 - 0 0 - 0 0 0 0 0 0 0 0 -
p35
aVTony Massenburg SAN 04/25/1991 SAN vs. GOS W 1 0 0 0 - 0 0 - 0 0 - 0 0 0 0 0 0 0 0 -
p36
aVPaul Pressey SAN 04/25/1991 SAN vs. GOS W 37 8 3 10 30.0 0 0 - 2 2 100.0 4 4 8 6 2 0 2 5 -
p37
aVSidney Green SAN 04/25/1991 SAN vs. GOS W 3 2 1 2 50.0 0 0 - 0 0 - 0 0 0 0 0 0 1 1 -
p38
aVAvery Johnson SAN 04/25/1991 SAN vs. GOS W 7 0 0 1 0.0 0 0 - 0 0 - 0 0 0 3 1 0 0 1 -
p39
a.