(lp0
VPLAYER TEAM DATE MATCHUP W/L MIN PTS FGM FGA FG% 3PM 3PA 3P% FTM FTA FT% OREB DREB REB AST STL BLK TOV PF +/-
p1
aVLaSalle Thompson IND 05/05/1991 IND @ BOS L 32 8 4 11 36.4 0 0 - 0 0 - 1 8 9 0 0 3 3 3 -
p2
aVReggie Miller IND 05/05/1991 IND @ BOS L 42 22 7 17 41.2 2 7 28.6 6 6 100.0 1 3 4 2 2 2 3 5 -
p3
aVMicheal Williams IND 05/05/1991 IND @ BOS L 40 23 7 14 50.0 0 0 - 9 9 100.0 0 2 2 10 2 0 3 6 -
p4
aVRik Smits IND 05/05/1991 IND @ BOS L 12 6 2 4 50.0 0 0 - 2 2 100.0 0 0 0 0 0 0 1 2 -
p5
aVVern Fleming IND 05/05/1991 IND @ BOS L 18 6 2 5 40.0 0 0 - 2 3 66.7 3 0 3 6 1 1 1 3 -
p6
aVChuck Person IND 05/05/1991 IND @ BOS L 43 32 10 20 50.0 5 9 55.6 7 9 77.8 0 4 4 4 2 0 3 3 -
p7
aVDetlef Schrempf IND 05/05/1991 IND @ BOS L 38 20 7 12 58.3 0 1 0.0 6 8 75.0 2 4 6 1 0 0 1 3 -
p8
aVMike Sanders IND 05/05/1991 IND @ BOS L 8 4 1 1 100.0 0 0 - 2 2 100.0 0 0 0 1 2 0 1 2 -
p9
aVGreg Dreiling IND 05/05/1991 IND @ BOS L 7 0 0 3 0.0 0 0 - 0 0 - 1 2 3 0 0 0 0 3 -
p10
aVRik Smits IND 05/03/1991 IND vs. BOS W 15 2 1 3 33.3 0 0 - 0 0 - 2 4 6 1 0 0 0 5 -
p11
aVGreg Dreiling IND 05/03/1991 IND vs. BOS W 15 1 0 1 0.0 0 0 - 1 2 50.0 1 0 1 0 0 0 1 3 -
p12
aVReggie Miller IND 05/03/1991 IND vs. BOS W 33 27 11 19 57.9 0 1 0.0 5 5 100.0 1 2 3 0 0 0 0 4 -
p13
aVVern Fleming IND 05/03/1991 IND vs. BOS W 24 10 4 9 44.4 0 0 - 2 2 100.0 3 2 5 4 0 0 2 1 -
p14
aVDetlef Schrempf IND 05/03/1991 IND vs. BOS W 40 11 3 9 33.3 0 0 - 5 5 100.0 0 3 3 5 1 0 2 3 -
p15
aVLaSalle Thompson IND 05/03/1991 IND vs. BOS W 25 10 4 7 57.1 0 0 - 2 2 100.0 1 6 7 3 1 2 0 4 -
p16
aVChuck Person IND 05/03/1991 IND vs. BOS W 41 30 10 19 52.6 2 4 50.0 8 8 100.0 0 4 4 2 2 0 2 3 -
p17
aVKenny Williams IND 05/03/1991 IND vs. BOS W 1 0 0 0 - 0 0 - 0 0 - 0 0 0 0 0 0 0 0 -
p18
aVMike Sanders IND 05/03/1991 IND vs. BOS W 14 7 3 4 75.0 1 1 100.0 0 0 - 0 1 1 1 0 1 0 5 -
p19
aVMicheal Williams IND 05/03/1991 IND vs. BOS W 32 18 6 14 42.9 0 0 - 6 6 100.0 2 2 4 9 5 0 5 3 -
p20
aVKenny Williams IND 05/01/1991 IND vs. BOS L 1 0 0 0 - 0 0 - 0 2 0.0 0 0 0 0 0 0 0 1 -
p21
aVGreg Dreiling IND 05/01/1991 IND vs. BOS L 19 6 2 4 50.0 0 0 - 2 2 100.0 2 3 5 0 0 0 1 3 -
p22
aVLaSalle Thompson IND 05/01/1991 IND vs. BOS L 15 7 3 7 42.9 0 0 - 1 1 100.0 2 0 2 1 2 0 1 2 -
p23
aVRik Smits IND 05/01/1991 IND vs. BOS L 21 12 5 10 50.0 0 0 - 2 2 100.0 0 4 4 1 0 1 2 6 -
p24
aVRandy Wittman IND 05/01/1991 IND vs. BOS L 6 2 1 1 100.0 0 0 - 0 0 - 0 0 0 1 0 0 0 1 -
p25
aVMicheal Williams IND 05/01/1991 IND vs. BOS L 41 18 3 10 30.0 0 0 - 12 14 85.7 1 5 6 7 3 0 1 6 -
p26
aVVern Fleming IND 05/01/1991 IND vs. BOS L 28 12 4 12 33.3 0 1 0.0 4 4 100.0 1 1 2 5 0 1 1 1 -
p27
aVMike Sanders IND 05/01/1991 IND vs. BOS L 6 2 1 1 100.0 0 0 - 0 0 - 0 0 0 1 1 0 0 0 -
p28
aVChuck Person IND 05/01/1991 IND vs. BOS L 30 6 2 8 25.0 0 2 0.0 2 4 50.0 1 5 6 1 1 0 2 1 -
p29
aVReggie Miller IND 05/01/1991 IND vs. BOS L 37 20 5 11 45.5 2 3 66.7 8 10 80.0 2 1 3 3 2 0 5 2 -
p30
aVDetlef Schrempf IND 05/01/1991 IND vs. BOS L 36 20 6 14 42.9 0 1 0.0 8 8 100.0 4 6 10 0 1 0 2 4 -
p31
aVChuck Person IND 04/28/1991 IND @ BOS W 41 39 16 24 66.7 7 10 70.0 0 0 - 0 6 6 2 0 0 3 2 -
p32
aVVern Fleming IND 04/28/1991 IND @ BOS W 21 10 4 7 57.1 0 0 - 2 2 100.0 1 4 5 5 0 0 0 2 -
p33
aVGreg Dreiling IND 04/28/1991 IND @ BOS W 16 1 0 3 0.0 0 0 - 1 2 50.0 4 3 7 0 0 0 1 3 -
p34
aVReggie Miller IND 04/28/1991 IND @ BOS W 40 15 6 11 54.5 2 3 66.7 1 3 33.3 1 3 4 4 3 0 2 1 -
p35
aVMike Sanders IND 04/28/1991 IND @ BOS W 5 2 1 2 50.0 0 0 - 0 2 0.0 0 1 1 1 0 0 3 1 -
p36
aVLaSalle Thompson IND 04/28/1991 IND @ BOS W 27 14 5 7 71.4 0 0 - 4 4 100.0 2 4 6 3 0 1 1 4 -
p37
aVDetlef Schrempf IND 04/28/1991 IND @ BOS W 33 13 5 9 55.6 0 0 - 3 3 100.0 1 6 7 3 0 0 4 3 -
p38
aVRik Smits IND 04/28/1991 IND @ BOS W 21 12 5 10 50.0 0 0 - 2 2 100.0 0 4 4 0 1 2 0 5 -
p39
aVMicheal Williams IND 04/28/1991 IND @ BOS W 36 24 8 14 57.1 0 0 - 8 10 80.0 1 0 1 10 2 0 2 4 -
p40
aVChuck Person IND 04/26/1991 IND @ BOS L 37 23 10 19 52.6 3 6 50.0 0 0 - 2 6 8 7 0 0 0 6 -
p41
aVMicheal Williams IND 04/26/1991 IND @ BOS L 34 20 6 13 46.2 0 1 0.0 8 9 88.9 3 0 3 6 2 0 1 4 -
p42
aVMike Sanders IND 04/26/1991 IND @ BOS L 8 0 0 2 0.0 0 1 0.0 0 0 - 0 2 2 0 1 1 1 1 -
p43
aVVern Fleming IND 04/26/1991 IND @ BOS L 24 9 4 7 57.1 0 0 - 1 3 33.3 2 0 2 3 0 1 2 3 -
p44
aVReggie Miller IND 04/26/1991 IND @ BOS L 41 24 5 12 41.7 2 5 40.0 12 13 92.3 0 2 2 5 1 0 2 2 -
p45
aVDetlef Schrempf IND 04/26/1991 IND @ BOS L 32 15 6 13 46.2 0 2 0.0 3 6 50.0 3 7 10 2 0 0 2 4 -
p46
aVGreg Dreiling IND 04/26/1991 IND @ BOS L 18 6 3 4 75.0 0 0 - 0 0 - 0 2 2 0 0 0 0 5 -
p47
aVLaSalle Thompson IND 04/26/1991 IND @ BOS L 27 6 3 7 42.9 0 0 - 0 0 - 0 7 7 1 1 1 5 2 -
p48
aVRik Smits IND 04/26/1991 IND @ BOS L 19 17 8 10 80.0 0 0 - 1 2 50.0 2 2 4 0 0 4 2 5 -
p49
a.