(lp0
VPLAYER TEAM DATE MATCHUP W/L MIN PTS FGM FGA FG% 3PM 3PA 3P% FTM FTA FT% OREB DREB REB AST STL BLK TOV PF +/-
p1
aVArmen Gilliam PHL 05/14/1991 PHL @ CHI L 45 21 6 13 46.2 0 0 - 9 9 100.0 0 6 6 1 0 4 2 4 -
p2
aVAndre Turner PHL 05/14/1991 PHL @ CHI L 17 2 1 6 16.7 0 3 0.0 0 0 - 0 2 2 4 1 0 0 1 -
p3
aVRick Mahorn PHL 05/14/1991 PHL @ CHI L 21 2 1 2 50.0 0 0 - 0 0 - 0 4 4 0 0 0 0 1 -
p4
aVRobert Reid PHL 05/14/1991 PHL @ CHI L 7 4 2 3 66.7 0 1 0.0 0 0 - 0 0 0 0 0 0 1 1 -
p5
aVRon Anderson PHL 05/14/1991 PHL @ CHI L 28 4 2 9 22.2 0 0 - 0 0 - 1 2 3 5 1 0 1 4 -
p6
aVHersey Hawkins PHL 05/14/1991 PHL @ CHI L 39 15 6 11 54.5 2 3 66.7 1 1 100.0 1 2 3 2 2 0 0 6 -
p7
aVManute Bol PHL 05/14/1991 PHL @ CHI L 7 1 0 1 0.0 0 0 - 1 2 50.0 1 1 2 1 0 1 0 1 -
p8
aVRickey Green PHL 05/14/1991 PHL @ CHI L 31 16 6 11 54.5 2 2 100.0 2 2 100.0 0 1 1 5 1 0 1 1 -
p9
aVCharles Barkley PHL 05/14/1991 PHL @ CHI L 45 30 12 20 60.0 0 2 0.0 6 10 60.0 1 7 8 7 2 1 1 3 -
p10
aVRickey Green PHL 05/12/1991 PHL vs. CHI L 22 4 2 9 22.2 0 1 0.0 0 0 - 1 0 1 4 2 0 2 3 -
p11
aVCharles Barkley PHL 05/12/1991 PHL vs. CHI L 44 25 11 15 73.3 0 2 0.0 3 6 50.0 5 9 14 6 1 0 6 4 -
p12
aVAndre Turner PHL 05/12/1991 PHL vs. CHI L 26 6 3 7 42.9 0 0 - 0 0 - 0 1 1 5 1 0 1 2 -
p13
aVArmen Gilliam PHL 05/12/1991 PHL vs. CHI L 30 8 3 12 25.0 0 0 - 2 4 50.0 3 5 8 1 2 0 3 1 -
p14
aVDave Hoppen PHL 05/12/1991 PHL vs. CHI L 2 4 2 2 100.0 0 0 - 0 0 - 0 1 1 0 0 0 0 1 -
p15
aVRobert Reid PHL 05/12/1991 PHL vs. CHI L 2 0 0 1 0.0 0 0 - 0 0 - 0 0 0 0 0 0 0 0 -
p16
aVManute Bol PHL 05/12/1991 PHL vs. CHI L 8 2 1 3 33.3 0 0 - 0 0 - 0 0 0 0 1 0 1 0 -
p17
aVJayson Williams PHL 05/12/1991 PHL vs. CHI L 2 0 0 0 - 0 0 - 0 0 - 0 1 1 0 0 0 0 0 -
p18
aVRon Anderson PHL 05/12/1991 PHL vs. CHI L 27 10 4 11 36.4 0 0 - 2 2 100.0 2 1 3 4 1 0 2 5 -
p19
aVHersey Hawkins PHL 05/12/1991 PHL vs. CHI L 45 15 3 8 37.5 0 0 - 9 10 90.0 2 5 7 1 1 3 4 1 -
p20
aVRick Mahorn PHL 05/12/1991 PHL vs. CHI L 30 7 3 6 50.0 0 0 - 1 2 50.0 1 5 6 1 0 2 0 3 -
p21
aVBrian Oliver PHL 05/12/1991 PHL vs. CHI L 2 4 2 2 100.0 0 0 - 0 0 - 0 0 0 0 1 0 0 0 -
p22
aVRick Mahorn PHL 05/10/1991 PHL vs. CHI W 19 2 1 4 25.0 0 0 - 0 0 - 0 5 5 0 0 1 1 3 -
p23
aVHersey Hawkins PHL 05/10/1991 PHL vs. CHI W 44 29 7 14 50.0 4 6 66.7 11 12 91.7 0 5 5 2 2 4 4 4 -
p24
aVRickey Green PHL 05/10/1991 PHL vs. CHI W 23 9 4 6 66.7 0 0 - 1 1 100.0 0 0 0 1 1 0 2 0 -
p25
aVAndre Turner PHL 05/10/1991 PHL vs. CHI W 25 8 3 6 50.0 0 2 0.0 2 2 100.0 2 2 4 7 1 0 2 2 -
p26
aVArmen Gilliam PHL 05/10/1991 PHL vs. CHI W 40 25 8 14 57.1 0 0 - 9 10 90.0 1 10 11 3 0 1 0 1 -
p27
aVRon Anderson PHL 05/10/1991 PHL vs. CHI W 27 5 2 8 25.0 0 0 - 1 2 50.0 0 0 0 2 1 0 2 1 -
p28
aVManute Bol PHL 05/10/1991 PHL vs. CHI W 20 2 1 1 100.0 0 0 - 0 0 - 0 3 3 0 0 1 0 4 -
p29
aVCharles Barkley PHL 05/10/1991 PHL vs. CHI W 42 19 6 11 54.5 0 2 0.0 7 13 53.8 4 5 9 7 2 0 3 3 -
p30
aVArmen Gilliam PHL 05/06/1991 PHL @ CHI L 35 22 8 14 57.1 0 0 - 6 6 100.0 2 1 3 1 0 0 1 1 -
p31
aVRick Mahorn PHL 05/06/1991 PHL @ CHI L 26 2 1 4 25.0 0 0 - 0 0 - 0 3 3 2 0 0 1 2 -
p32
aVManute Bol PHL 05/06/1991 PHL @ CHI L 14 2 1 2 50.0 0 0 - 0 0 - 1 0 1 0 0 0 0 1 -
p33
aVHersey Hawkins PHL 05/06/1991 PHL @ CHI L 43 30 7 16 43.8 1 3 33.3 15 15 100.0 1 4 5 7 1 0 2 2 -
p34
aVAndre Turner PHL 05/06/1991 PHL @ CHI L 30 11 4 7 57.1 2 2 100.0 1 2 50.0 0 0 0 3 1 0 1 2 -
p35
aVRickey Green PHL 05/06/1991 PHL @ CHI L 18 2 1 5 20.0 0 0 - 0 0 - 0 3 3 2 0 0 1 1 -
p36
aVCharles Barkley PHL 05/06/1991 PHL @ CHI L 42 20 9 16 56.3 0 3 0.0 2 4 50.0 4 5 9 5 1 0 0 3 -
p37
aVRon Anderson PHL 05/06/1991 PHL @ CHI L 29 11 5 11 45.5 0 2 0.0 1 1 100.0 1 2 3 0 0 0 1 3 -
p38
aVRobert Reid PHL 05/06/1991 PHL @ CHI L 3 0 0 0 - 0 0 - 0 0 - 0 0 0 0 0 0 0 1 -
p39
aVHersey Hawkins PHL 05/04/1991 PHL @ CHI L 31 10 2 9 22.2 1 2 50.0 5 5 100.0 2 7 9 3 1 0 0 3 -
p40
aVManute Bol PHL 05/04/1991 PHL @ CHI L 24 10 3 6 50.0 0 0 - 4 6 66.7 1 5 6 0 0 2 2 1 -
p41
aVJayson Williams PHL 05/04/1991 PHL @ CHI L 5 6 3 4 75.0 0 0 - 0 0 - 2 1 3 0 0 0 1 0 -
p42
aVDave Hoppen PHL 05/04/1991 PHL @ CHI L 3 2 1 1 100.0 0 0 - 0 0 - 0 1 1 0 0 0 0 0 -
p43
aVRick Mahorn PHL 05/04/1991 PHL @ CHI L 21 0 0 2 0.0 0 0 - 0 0 - 0 1 1 1 0 0 1 4 -
p44
aVRobert Reid PHL 05/04/1991 PHL @ CHI L 15 2 1 4 25.0 0 0 - 0 0 - 1 4 5 1 0 0 1 2 -
p45
aVBrian Oliver PHL 05/04/1991 PHL @ CHI L 3 2 0 1 0.0 0 0 - 2 2 100.0 0 0 0 1 0 0 0 2 -
p46
aVRon Anderson PHL 05/04/1991 PHL @ CHI L 31 8 3 11 27.3 1 2 50.0 1 1 100.0 2 0 2 3 1 0 2 1 -
p47
aVCharles Barkley PHL 05/04/1991 PHL @ CHI L 32 34 10 13 76.9 1 1 100.0 13 15 86.7 5 6 11 2 1 0 0 3 -
p48
aVAndre Turner PHL 05/04/1991 PHL @ CHI L 27 11 2 9 22.2 0 0 - 7 8 87.5 0 2 2 2 2 0 1 2 -
p49
aVRickey Green PHL 05/04/1991 PHL @ CHI L 21 2 1 5 20.0 0 0 - 0 0 - 0 0 0 1 0 0 3 1 -
p50
aVArmen Gilliam PHL 05/04/1991 PHL @ CHI L 27 5 2 10 20.0 0 0 - 1 2 50.0 3 0 3 1 1 0 3 0 -
p51
aVRon Anderson PHL 04/30/1991 PHL vs. MIL W 28 18 8 12 66.7 0 0 - 2 2 100.0 0 4 4 3 1 0 3 2 -
p52
aVJayson Williams PHL 04/30/1991 PHL vs. MIL W 2 2 1 1 100.0 0 0 - 0 0 - 0 0 0 0 0 0 0 1 -
p53
aVHersey Hawkins PHL 04/30/1991 PHL vs. MIL W 41 26 9 15 60.0 2 4 50.0 6 6 100.0 2 8 10 6 6 1 0 5 -
p54
aVBrian Oliver PHL 04/30/1991 PHL vs. MIL W 3 0 0 1 0.0 0 0 - 0 0 - 0 0 0 0 0 0 0 0 -
p55
aVAndre Turner PHL 04/30/1991 PHL vs. MIL W 22 11 4 5 80.0 1 1 100.0 2 2 100.0 0 1 1 4 2 0 1 0 -
p56
aVManute Bol PHL 04/30/1991 PHL vs. MIL W 12 3 1 3 33.3 0 0 - 1 1 100.0 0 2 2 0 0 1 1 2 -
p57
aVCharles Barkley PHL 04/30/1991 PHL vs. MIL W 38 30 10 18 55.6 1 3 33.3 9 12 75.0 4 8 12 6 4 1 9 2 -
p58
aVArmen Gilliam PHL 04/30/1991 PHL vs. MIL W 31 18 6 10 60.0 0 0 - 6 8 75.0 0 4 4 1 0 1 0 2 -
p59
aVRick Mahorn PHL 04/30/1991 PHL vs. MIL W 27 11 4 5 80.0 0 0 - 3 4 75.0 2 5 7 3 0 0 2 3 -
p60
aVRickey Green PHL 04/30/1991 PHL vs. MIL W 26 2 1 3 33.3 0 0 - 0 0 - 0 1 1 4 0 0 1 1 -
p61
aVDave Hoppen PHL 04/30/1991 PHL vs. MIL W 4 0 0 0 - 0 0 - 0 2 0.0 0 1 1 0 0 0 0 0 -
p62
aVRobert Reid PHL 04/30/1991 PHL vs. MIL W 6 0 0 1 0.0 0 0 - 0 0 - 0 3 3 1 1 0 0 1 -
p63
aVRickey Green PHL 04/27/1991 PHL @ MIL W 27 8 3 5 60.0 0 0 - 2 2 100.0 0 0 0 3 2 0 2 2 -
p64
aVManute Bol PHL 04/27/1991 PHL @ MIL W 19 4 2 2 100.0 0 0 - 0 0 - 1 2 3 0 0 5 1 4 -
p65
aVArmen Gilliam PHL 04/27/1991 PHL @ MIL W 40 19 8 15 53.3 0 0 - 3 4 75.0 2 8 10 1 0 0 3 4 -
p66
aVRick Mahorn PHL 04/27/1991 PHL @ MIL W 32 15 6 8 75.0 0 0 - 3 4 75.0 2 6 8 4 1 0 0 4 -
p67
aVRobert Reid PHL 04/27/1991 PHL @ MIL W 7 0 0 0 - 0 0 - 0 0 - 0 0 0 0 0 0 0 2 -
p68
aVCharles Barkley PHL 04/27/1991 PHL @ MIL W 45 22 7 18 38.9 0 5 0.0 8 10 80.0 5 8 13 10 1 1 1 2 -
p69
aVRon Anderson PHL 04/27/1991 PHL @ MIL W 25 24 7 15 46.7 0 1 0.0 10 11 90.9 1 1 2 1 1 0 0 3 -
p70
aVAndre Turner PHL 04/27/1991 PHL @ MIL W 25 7 3 5 60.0 0 1 0.0 1 2 50.0 0 3 3 7 1 0 2 1 -
p71
aVHersey Hawkins PHL 04/27/1991 PHL @ MIL W 45 17 5 12 41.7 2 5 40.0 5 5 100.0 0 4 4 2 2 1 4 4 -
p72
aVRickey Green PHL 04/25/1991 PHL @ MIL W 31 16 6 11 54.5 1 1 100.0 3 4 75.0 0 3 3 2 1 0 1 0 -
p73
aVRick Mahorn PHL 04/25/1991 PHL @ MIL W 32 12 4 5 80.0 0 0 - 4 4 100.0 2 6 8 3 1 1 3 5 -
p74
aVCharles Barkley PHL 04/25/1991 PHL @ MIL W 38 19 9 14 64.3 0 2 0.0 1 5 20.0 3 5 8 5 3 0 5 3 -
p75
aVRobert Reid PHL 04/25/1991 PHL @ MIL W 1 0 0 0 - 0 0 - 0 0 - 0 0 0 0 0 0 0 0 -
p76
aVArmen Gilliam PHL 04/25/1991 PHL @ MIL W 39 17 7 16 43.8 0 0 - 3 3 100.0 3 4 7 1 2 0 3 3 -
p77
aVHersey Hawkins PHL 04/25/1991 PHL @ MIL W 41 25 8 16 50.0 2 3 66.7 7 9 77.8 0 3 3 4 5 1 2 4 -
p78
aVAndre Turner PHL 04/25/1991 PHL @ MIL W 17 2 1 3 33.3 0 0 - 0 0 - 0 0 0 3 2 0 0 2 -
p79
aVRon Anderson PHL 04/25/1991 PHL @ MIL W 28 8 4 11 36.4 0 0 - 0 0 - 2 2 4 1 0 0 1 5 -
p80
aVManute Bol PHL 04/25/1991 PHL @ MIL W 5 0 0 0 - 0 0 - 0 0 - 0 2 2 0 0 2 0 1 -
p81
aVBrian Oliver PHL 04/25/1991 PHL @ MIL W 7 0 0 2 0.0 0 0 - 0 0 - 0 0 0 0 0 0 0 2 -
p82
aVJayson Williams PHL 04/25/1991 PHL @ MIL W 1 0 0 0 - 0 0 - 0 0 - 0 0 0 0 0 0 0 0 -
p83
a.