(lp0
VPLAYER TEAM DATE MATCHUP W/L MIN PTS FGM FGA FG% 3PM 3PA 3P% FTM FTA FT% OREB DREB REB AST STL BLK TOV PF +/-
p1
aVKevin Duckworth POR 06/14/1992 POR @ CHI L 17 4 2 3 66.7 0 0 - 0 0 - 2 4 6 1 1 1 2 5 -
p2
aVJerome Kersey POR 06/14/1992 POR @ CHI L 45 24 11 20 55.0 0 1 0.0 2 2 100.0 6 3 9 4 2 0 6 4 -
p3
aVDanny Ainge POR 06/14/1992 POR @ CHI L 21 2 1 2 50.0 0 1 0.0 0 0 - 0 0 0 3 2 0 1 2 -
p4
aVTerry Porter POR 06/14/1992 POR @ CHI L 47 22 7 15 46.7 1 2 50.0 7 7 100.0 1 5 6 7 1 0 4 3 -
p5
aVClyde Drexler POR 06/14/1992 POR @ CHI L 43 24 8 24 33.3 1 3 33.3 7 7 100.0 3 5 8 2 2 2 3 5 -
p6
aVBuck Williams POR 06/14/1992 POR @ CHI L 41 7 1 4 25.0 0 0 - 5 5 100.0 1 7 8 2 1 0 4 4 -
p7
aVClifford Robinson POR 06/14/1992 POR @ CHI L 26 10 5 10 50.0 0 0 - 0 0 - 0 1 1 2 2 2 1 1 -
p8
aVClifford Robinson POR 06/12/1992 POR vs. CHI L 26 11 3 4 75.0 0 0 - 5 5 100.0 1 3 4 4 0 0 0 6 -
p9
aVEnnis Whatley POR 06/12/1992 POR vs. CHI L 1 0 0 0 - 0 0 - 0 0 - 0 0 0 0 0 0 0 0 -
p10
aVTerry Porter POR 06/12/1992 POR vs. CHI L 46 17 5 12 41.7 0 0 - 7 8 87.5 1 1 2 8 3 1 3 3 -
p11
aVDanny Ainge POR 06/12/1992 POR vs. CHI L 28 14 5 13 38.5 1 4 25.0 3 4 75.0 0 3 3 3 0 0 1 5 -
p12
aVClyde Drexler POR 06/12/1992 POR vs. CHI L 41 30 9 21 42.9 0 3 0.0 12 14 85.7 5 5 10 3 0 1 4 6 -
p13
aVRobert Pack POR 06/12/1992 POR vs. CHI L 3 1 0 1 0.0 0 0 - 1 2 50.0 0 0 0 0 0 0 0 1 -
p14
aVBuck Williams POR 06/12/1992 POR vs. CHI L 31 6 3 6 50.0 0 0 - 0 0 - 3 4 7 0 0 1 1 3 -
p15
aVJerome Kersey POR 06/12/1992 POR vs. CHI L 36 14 7 17 41.2 0 0 - 0 0 - 8 4 12 3 2 0 6 5 -
p16
aVKevin Duckworth POR 06/12/1992 POR vs. CHI L 28 13 3 6 50.0 0 0 - 7 11 63.6 2 5 7 0 0 0 3 5 -
p17
aVJerome Kersey POR 06/10/1992 POR vs. CHI W 43 21 8 12 66.7 0 0 - 5 6 83.3 1 3 4 5 2 0 2 3 -
p18
aVEnnis Whatley POR 06/10/1992 POR vs. CHI W 3 0 0 0 - 0 0 - 0 0 - 0 0 0 1 1 0 0 0 -
p19
aVKevin Duckworth POR 06/10/1992 POR vs. CHI W 26 7 3 11 27.3 0 0 - 1 1 100.0 3 8 11 2 0 1 1 3 -
p20
aVBuck Williams POR 06/10/1992 POR vs. CHI W 32 6 3 7 42.9 0 0 - 0 0 - 3 1 4 0 1 1 3 3 -
p21
aVDanny Ainge POR 06/10/1992 POR vs. CHI W 21 7 3 8 37.5 1 2 50.0 0 0 - 2 4 6 3 2 0 2 4 -
p22
aVClyde Drexler POR 06/10/1992 POR vs. CHI W 43 21 9 22 40.9 0 4 0.0 3 6 50.0 3 5 8 9 2 3 2 2 -
p23
aVTerry Porter POR 06/10/1992 POR vs. CHI W 45 14 5 10 50.0 1 3 33.3 3 4 75.0 1 5 6 4 1 0 2 0 -
p24
aVClifford Robinson POR 06/10/1992 POR vs. CHI W 27 17 6 11 54.5 0 0 - 5 10 50.0 2 4 6 4 2 1 1 4 -
p25
aVEnnis Whatley POR 06/07/1992 POR vs. CHI L 4 0 0 2 0.0 0 0 - 0 0 - 0 0 0 0 0 0 0 0 -
p26
aVKevin Duckworth POR 06/07/1992 POR vs. CHI L 25 11 5 11 45.5 0 0 - 1 2 50.0 2 2 4 0 1 0 4 6 -
p27
aVDanny Ainge POR 06/07/1992 POR vs. CHI L 23 12 4 12 33.3 1 5 20.0 3 4 75.0 1 0 1 1 0 0 2 2 -
p28
aVTerry Porter POR 06/07/1992 POR vs. CHI L 44 7 3 7 42.9 0 1 0.0 1 2 50.0 1 4 5 4 0 0 3 2 -
p29
aVJerome Kersey POR 06/07/1992 POR vs. CHI L 36 11 4 13 30.8 0 0 - 3 6 50.0 6 6 12 1 3 1 4 4 -
p30
aVClifford Robinson POR 06/07/1992 POR vs. CHI L 25 5 2 11 18.2 0 1 0.0 1 2 50.0 1 2 3 1 1 1 2 3 -
p31
aVClyde Drexler POR 06/07/1992 POR vs. CHI L 42 32 9 17 52.9 2 4 50.0 12 12 100.0 1 8 9 3 0 0 5 4 -
p32
aVBuck Williams POR 06/07/1992 POR vs. CHI L 41 6 1 5 20.0 0 0 - 4 4 100.0 1 8 9 2 1 0 0 5 -
p33
aVDanny Ainge POR 06/05/1992 POR @ CHI W 23 17 7 10 70.0 0 3 0.0 3 4 75.0 1 1 2 4 0 0 0 4 -
p34
aVClyde Drexler POR 06/05/1992 POR @ CHI W 38 26 8 20 40.0 0 4 0.0 10 10 100.0 2 5 7 8 2 0 0 6 -
p35
aVTerry Porter POR 06/05/1992 POR @ CHI W 49 24 8 17 47.1 1 5 20.0 7 9 77.8 0 1 1 3 1 1 3 1 -
p36
aVJerome Kersey POR 06/05/1992 POR @ CHI W 41 12 6 11 54.5 0 0 - 0 0 - 4 4 8 4 2 0 1 6 -
p37
aVBuck Williams POR 06/05/1992 POR @ CHI W 48 19 7 9 77.8 0 0 - 5 5 100.0 3 11 14 2 1 1 3 2 -
p38
aVEnnis Whatley POR 06/05/1992 POR @ CHI W 5 0 0 0 - 0 0 - 0 0 - 0 0 0 0 0 0 0 0 -
p39
aVClifford Robinson POR 06/05/1992 POR @ CHI W 18 3 0 2 0.0 0 0 - 3 8 37.5 0 2 2 2 0 0 0 4 -
p40
aVKevin Duckworth POR 06/05/1992 POR @ CHI W 43 14 6 15 40.0 0 0 - 2 2 100.0 0 8 8 4 1 1 2 3 -
p41
aVKevin Duckworth POR 06/03/1992 POR @ CHI L 25 7 3 5 60.0 0 0 - 1 1 100.0 1 4 5 2 0 1 2 3 -
p42
aVDanny Ainge POR 06/03/1992 POR @ CHI L 22 8 3 8 37.5 1 2 50.0 1 2 50.0 0 0 0 1 1 1 1 1 -
p43
aVRobert Pack POR 06/03/1992 POR @ CHI L 13 4 1 5 20.0 0 0 - 2 2 100.0 0 1 1 1 1 0 1 1 -
p44
aVJerome Kersey POR 06/03/1992 POR @ CHI L 27 7 3 8 37.5 0 0 - 1 1 100.0 1 6 7 3 0 0 5 3 -
p45
aVAlaa Abdelnaby POR 06/03/1992 POR @ CHI L 6 1 0 1 0.0 0 0 - 1 2 50.0 0 2 2 0 0 0 1 0 -
p46
aVBuck Williams POR 06/03/1992 POR @ CHI L 18 3 1 1 100.0 0 0 - 1 2 50.0 1 1 2 0 1 0 4 4 -
p47
aVWayne Cooper POR 06/03/1992 POR @ CHI L 8 0 0 0 - 0 0 - 0 0 - 0 2 2 0 0 2 0 1 -
p48
aVMark Bryant POR 06/03/1992 POR @ CHI L 21 10 5 8 62.5 0 0 - 0 0 - 3 2 5 0 0 0 2 1 -
p49
aVClifford Robinson POR 06/03/1992 POR @ CHI L 24 16 7 14 50.0 0 0 - 2 2 100.0 0 2 2 0 0 0 0 5 -
p50
aVEnnis Whatley POR 06/03/1992 POR @ CHI L 13 4 2 5 40.0 0 0 - 0 0 - 0 1 1 0 2 0 0 1 -
p51
aVTerry Porter POR 06/03/1992 POR @ CHI L 32 13 5 9 55.6 0 2 0.0 3 4 75.0 1 5 6 2 0 0 1 2 -
p52
aVClyde Drexler POR 06/03/1992 POR @ CHI L 31 16 5 14 35.7 0 2 0.0 6 7 85.7 4 1 5 7 2 0 4 4 -
p53
aVClifford Robinson POR 05/28/1992 POR @ UTH W 28 10 5 10 50.0 0 1 0.0 0 0 - 1 5 6 1 3 1 2 5 -
p54
aVJerome Kersey POR 05/28/1992 POR @ UTH W 38 18 5 11 45.5 0 0 - 8 10 80.0 1 4 5 3 1 4 2 4 -
p55
aVKevin Duckworth POR 05/28/1992 POR @ UTH W 29 12 6 8 75.0 0 0 - 0 0 - 1 2 3 1 0 1 1 2 -
p56
aVTerry Porter POR 05/28/1992 POR @ UTH W 44 18 6 17 35.3 1 6 16.7 5 6 83.3 1 3 4 10 0 0 1 2 -
p57
aVMark Bryant POR 05/28/1992 POR @ UTH W 7 2 1 3 33.3 0 0 - 0 0 - 1 0 1 1 0 0 2 3 -
p58
aVDanny Ainge POR 05/28/1992 POR @ UTH W 21 12 4 7 57.1 2 2 100.0 2 3 66.7 0 2 2 0 1 0 0 1 -
p59
aVBuck Williams POR 05/28/1992 POR @ UTH W 32 15 3 6 50.0 0 0 - 9 9 100.0 2 6 8 1 3 2 0 5 -
p60
aVClyde Drexler POR 05/28/1992 POR @ UTH W 41 18 9 18 50.0 0 2 0.0 0 3 0.0 3 4 7 7 1 0 4 3 -
p61
aVDanny Ainge POR 05/26/1992 POR vs. UTH W 10 9 1 5 20.0 1 1 100.0 6 6 100.0 0 0 0 1 1 0 2 1 -
p62
aVTerry Porter POR 05/26/1992 POR vs. UTH W 47 24 8 12 66.7 3 5 60.0 5 8 62.5 0 4 4 11 1 0 1 3 -
p63
aVKevin Duckworth POR 05/26/1992 POR vs. UTH W 40 24 11 15 73.3 0 0 - 2 2 100.0 3 3 6 3 1 0 3 4 -
p64
aVClifford Robinson POR 05/26/1992 POR vs. UTH W 18 6 2 5 40.0 0 0 - 2 4 50.0 0 1 1 1 2 1 1 4 -
p65
aVJerome Kersey POR 05/26/1992 POR vs. UTH W 48 29 13 20 65.0 0 0 - 3 5 60.0 5 5 10 5 0 4 1 4 -
p66
aVBuck Williams POR 05/26/1992 POR vs. UTH W 52 11 4 8 50.0 0 0 - 3 4 75.0 3 9 12 1 0 2 2 4 -
p67
aVClyde Drexler POR 05/26/1992 POR vs. UTH W 50 24 9 19 47.4 1 4 25.0 5 6 83.3 3 5 8 7 0 2 3 3 -
p68
aVClyde Drexler POR 05/24/1992 POR @ UTH L 41 27 9 21 42.9 2 5 40.0 7 9 77.8 2 1 3 5 2 0 4 5 -
p69
aVAlaa Abdelnaby POR 05/24/1992 POR @ UTH L 2 0 0 0 - 0 0 - 0 0 - 0 0 0 0 0 0 0 1 -
p70
aVDanny Ainge POR 05/24/1992 POR @ UTH L 19 13 4 9 44.4 1 3 33.3 4 6 66.7 0 3 3 1 0 0 2 4 -
p71
aVClifford Robinson POR 05/24/1992 POR @ UTH L 27 13 6 10 60.0 0 0 - 1 3 33.3 2 4 6 4 1 1 1 5 -
p72
aVTerry Porter POR 05/24/1992 POR @ UTH L 42 34 9 16 56.3 4 8 50.0 12 12 100.0 1 4 5 7 0 0 2 4 -
p73
aVBuck Williams POR 05/24/1992 POR @ UTH L 34 2 1 4 25.0 0 0 - 0 0 - 4 3 7 2 1 0 1 5 -
p74
aVKevin Duckworth POR 05/24/1992 POR @ UTH L 34 12 6 10 60.0 0 0 - 0 0 - 0 2 2 2 1 0 5 4 -
p75
aVJerome Kersey POR 05/24/1992 POR @ UTH L 27 11 3 8 37.5 0 0 - 5 9 55.6 4 4 8 4 2 0 0 4 -
p76
aVMark Bryant POR 05/24/1992 POR @ UTH L 14 0 0 3 0.0 0 0 - 0 0 - 1 0 1 0 0 0 0 2 -
p77
aVTerry Porter POR 05/22/1992 POR @ UTH L 44 13 3 13 23.1 0 2 0.0 7 7 100.0 0 2 2 7 1 0 2 2 -
p78
aVClyde Drexler POR 05/22/1992 POR @ UTH L 42 26 9 19 47.4 2 7 28.6 6 6 100.0 1 4 5 7 2 0 4 3 -
p79
aVDanny Ainge POR 05/22/1992 POR @ UTH L 16 6 3 6 50.0 0 0 - 0 0 - 0 3 3 1 0 0 0 1 -
p80
aVMark Bryant POR 05/22/1992 POR @ UTH L 12 0 0 1 0.0 0 0 - 0 0 - 1 3 4 0 0 0 1 4 -
p81
aVRobert Pack POR 05/22/1992 POR @ UTH L 1 0 0 0 - 0 0 - 0 0 - 0 0 0 0 0 0 0 1 -
p82
aVClifford Robinson POR 05/22/1992 POR @ UTH L 19 8 4 6 66.7 0 0 - 0 0 - 0 2 2 1 0 0 2 3 -
p83
aVKevin Duckworth POR 05/22/1992 POR @ UTH L 36 8 4 11 36.4 0 0 - 0 0 - 0 4 4 3 0 1 0 3 -
p84
aVBuck Williams POR 05/22/1992 POR @ UTH L 30 2 1 2 50.0 0 0 - 0 2 0.0 4 5 9 1 0 1 5 5 -
p85
aVJerome Kersey POR 05/22/1992 POR @ UTH L 40 26 11 20 55.0 0 1 0.0 4 4 100.0 4 5 9 2 1 0 1 5 -
p86
aVKevin Duckworth POR 05/19/1992 POR vs. UTH W 39 8 3 8 37.5 0 0 - 2 2 100.0 2 5 7 3 0 0 2 3 -
p87
aVBuck Williams POR 05/19/1992 POR vs. UTH W 34 6 1 4 25.0 0 0 - 4 4 100.0 1 4 5 0 2 0 1 5 -
p88
aVJerome Kersey POR 05/19/1992 POR vs. UTH W 36 13 4 8 50.0 0 0 - 5 9 55.6 1 5 6 3 2 0 2 4 -
p89
aVDanny Ainge POR 05/19/1992 POR vs. UTH W 19 9 3 11 27.3 1 4 25.0 2 2 100.0 0 2 2 2 0 0 0 4 -
p90
aVRobert Pack POR 05/19/1992 POR vs. UTH W 1 0 0 1 0.0 0 0 - 0 0 - 0 0 0 0 0 0 0 0 -
p91
aVClifford Robinson POR 05/19/1992 POR vs. UTH W 23 4 2 14 14.3 0 0 - 0 0 - 5 2 7 0 1 2 2 3 -
p92
aVEnnis Whatley POR 05/19/1992 POR vs. UTH W 2 2 1 2 50.0 0 0 - 0 0 - 0 0 0 0 0 0 0 0 -
p93
aVClyde Drexler POR 05/19/1992 POR vs. UTH W 43 36 12 23 52.2 3 6 50.0 9 10 90.0 2 4 6 12 3 0 1 2 -
p94
aVAlaa Abdelnaby POR 05/19/1992 POR vs. UTH W 1 0 0 0 - 0 0 - 0 0 - 0 0 0 1 0 0 0 0 -
p95
aVTerry Porter POR 05/19/1992 POR vs. UTH W 38 41 12 14 85.7 4 5 80.0 13 14 92.9 3 3 6 7 3 0 1 1 -
p96
aVMark Bryant POR 05/19/1992 POR vs. UTH W 4 0 0 1 0.0 0 0 - 0 0 - 1 1 2 0 0 0 0 1 -
p97
aVClifford Robinson POR 05/16/1992 POR vs. UTH W 30 6 2 11 18.2 0 2 0.0 2 2 100.0 2 3 5 6 2 3 1 3 -
p98
aVEnnis Whatley POR 05/16/1992 POR vs. UTH W 14 0 0 3 0.0 0 0 - 0 0 - 0 0 0 5 2 0 1 1 -
p99
aVWayne Cooper POR 05/16/1992 POR vs. UTH W 12 2 1 3 33.3 0 0 - 0 0 - 0 4 4 0 0 0 1 3 -
p100
aVAlaa Abdelnaby POR 05/16/1992 POR vs. UTH W 2 2 1 1 100.0 0 0 - 0 0 - 0 0 0 0 0 0 0 0 -
p101
aVDanny Ainge POR 05/16/1992 POR vs. UTH W 20 13 6 9 66.7 1 2 50.0 0 0 - 1 1 2 3 1 0 2 2 -
p102
aVTerry Porter POR 05/16/1992 POR vs. UTH W 28 26 8 12 66.7 6 8 75.0 4 7 57.1 1 2 3 8 1 0 1 0 -
p103
aVBuck Williams POR 05/16/1992 POR vs. UTH W 28 6 2 3 66.7 0 0 - 2 2 100.0 3 5 8 1 1 0 3 1 -
p104
aVClyde Drexler POR 05/16/1992 POR vs. UTH W 30 11 5 13 38.5 0 2 0.0 1 1 100.0 0 3 3 8 1 0 1 1 -
p105
aVMark Bryant POR 05/16/1992 POR vs. UTH W 13 3 0 1 0.0 0 0 - 3 4 75.0 0 2 2 0 0 0 0 2 -
p106
aVKevin Duckworth POR 05/16/1992 POR vs. UTH W 28 18 8 12 66.7 0 0 - 2 6 33.3 3 1 4 2 1 1 1 5 -
p107
aVRobert Pack POR 05/16/1992 POR vs. UTH W 6 6 3 6 50.0 0 0 - 0 0 - 0 0 0 0 0 0 0 2 -
p108
aVJerome Kersey POR 05/16/1992 POR vs. UTH W 29 20 7 11 63.6 0 0 - 6 7 85.7 1 3 4 3 1 0 1 3 -
p109
aVJerome Kersey POR 05/14/1992 POR vs. PHX W 42 16 5 11 45.5 0 1 0.0 6 6 100.0 2 10 12 8 5 2 3 5 -
p110
aVDanny Ainge POR 05/14/1992 POR vs. PHX W 18 9 4 7 57.1 1 1 100.0 0 0 - 0 0 0 2 0 0 2 4 -
p111
aVKevin Duckworth POR 05/14/1992 POR vs. PHX W 25 12 6 11 54.5 0 0 - 0 0 - 1 3 4 2 0 1 0 2 -
p112
aVClyde Drexler POR 05/14/1992 POR vs. PHX W 42 34 14 22 63.6 1 4 25.0 5 6 83.3 1 7 8 8 2 3 3 2 -
p113
aVClifford Robinson POR 05/14/1992 POR vs. PHX W 23 11 5 10 50.0 0 0 - 1 2 50.0 0 7 7 1 0 5 2 3 -
p114
aVBuck Williams POR 05/14/1992 POR vs. PHX W 36 14 4 9 44.4 0 0 - 6 9 66.7 3 9 12 2 2 1 2 3 -
p115
aVEnnis Whatley POR 05/14/1992 POR vs. PHX W 9 2 1 3 33.3 0 0 - 0 0 - 0 2 2 1 0 0 2 1 -
p116
aVRobert Pack POR 05/14/1992 POR vs. PHX W 4 0 0 0 - 0 0 - 0 0 - 0 0 0 0 0 0 0 0 -
p117
aVTerry Porter POR 05/14/1992 POR vs. PHX W 41 20 9 16 56.3 1 3 33.3 1 2 50.0 0 4 4 4 2 0 2 3 -
p118
aVAlaa Abdelnaby POR 05/11/1992 POR @ PHX W 1 0 0 0 - 0 0 - 0 0 - 0 0 0 0 0 0 0 2 -
p119
aVClifford Robinson POR 05/11/1992 POR @ PHX W 20 16 7 10 70.0 0 0 - 2 2 100.0 1 3 4 0 1 2 1 6 -
p120
aVTerry Porter POR 05/11/1992 POR @ PHX W 51 31 10 16 62.5 1 3 33.3 10 15 66.7 0 6 6 14 0 0 1 4 -
p121
aVBuck Williams POR 05/11/1992 POR @ PHX W 42 11 3 6 50.0 0 0 - 5 6 83.3 1 6 7 0 2 1 1 6 -
p122
aVJerome Kersey POR 05/11/1992 POR @ PHX W 43 21 9 14 64.3 0 0 - 3 8 37.5 1 9 10 4 1 1 1 5 -
p123
aVRobert Pack POR 05/11/1992 POR @ PHX W 1 0 0 0 - 0 0 - 0 0 - 0 0 0 0 0 0 0 0 -
p124
aVClyde Drexler POR 05/11/1992 POR @ PHX W 51 33 12 23 52.2 1 2 50.0 8 11 72.7 2 6 8 11 0 3 7 3 -
p125
aVDanny Ainge POR 05/11/1992 POR @ PHX W 35 25 9 14 64.3 4 6 66.7 3 3 100.0 1 2 3 3 1 0 2 3 -
p126
aVKevin Duckworth POR 05/11/1992 POR @ PHX W 36 14 4 8 50.0 0 0 - 6 6 100.0 1 5 6 3 0 0 4 5 -
p127
aVEnnis Whatley POR 05/11/1992 POR @ PHX W 8 2 0 1 0.0 0 0 - 2 2 100.0 0 0 0 1 0 0 0 2 -
p128
aVMark Bryant POR 05/11/1992 POR @ PHX W 2 0 0 1 0.0 0 0 - 0 0 - 0 0 0 0 0 0 0 1 -
p129
aVBuck Williams POR 05/09/1992 POR @ PHX L 31 13 4 6 66.7 0 0 - 5 7 71.4 1 3 4 0 2 0 2 4 -
p130
aVEnnis Whatley POR 05/09/1992 POR @ PHX L 7 0 0 1 0.0 0 0 - 0 0 - 0 2 2 4 0 0 0 3 -
p131
aVTerry Porter POR 05/09/1992 POR @ PHX L 41 20 7 16 43.8 0 2 0.0 6 8 75.0 3 5 8 11 0 0 1 4 -
p132
aVClyde Drexler POR 05/09/1992 POR @ PHX L 39 37 15 30 50.0 2 6 33.3 5 7 71.4 6 1 7 1 2 0 3 4 -
p133
aVJerome Kersey POR 05/09/1992 POR @ PHX L 34 15 5 10 50.0 0 0 - 5 8 62.5 2 7 9 2 3 1 2 5 -
p134
aVDanny Ainge POR 05/09/1992 POR @ PHX L 23 10 4 7 57.1 0 3 0.0 2 2 100.0 0 2 2 4 0 0 1 5 -
p135
aVMark Bryant POR 05/09/1992 POR @ PHX L 13 2 1 1 100.0 0 0 - 0 0 - 2 5 7 0 1 0 3 0 -
p136
aVClifford Robinson POR 05/09/1992 POR @ PHX L 19 6 3 7 42.9 0 1 0.0 0 0 - 1 1 2 1 0 0 2 5 -
p137
aVRobert Pack POR 05/09/1992 POR @ PHX L 5 0 0 0 - 0 0 - 0 0 - 0 1 1 0 0 0 1 1 -
p138
aVKevin Duckworth POR 05/09/1992 POR @ PHX L 28 14 5 11 45.5 0 0 - 4 6 66.7 4 0 4 2 0 0 3 4 -
p139
aVRobert Pack POR 05/07/1992 POR vs. PHX W 6 0 0 1 0.0 0 0 - 0 0 - 1 1 2 2 2 1 1 2 -
p140
aVTerry Porter POR 05/07/1992 POR vs. PHX W 41 27 10 18 55.6 2 3 66.7 5 5 100.0 1 2 3 6 2 0 1 2 -
p141
aVEnnis Whatley POR 05/07/1992 POR vs. PHX W 7 0 0 0 - 0 0 - 0 0 - 0 2 2 1 0 0 0 1 -
p142
aVClyde Drexler POR 05/07/1992 POR vs. PHX W 40 27 9 18 50.0 1 4 25.0 8 12 66.7 5 3 8 13 2 0 1 5 -
p143
aVJerome Kersey POR 05/07/1992 POR vs. PHX W 33 25 10 17 58.8 0 0 - 5 8 62.5 1 8 9 4 3 2 1 1 -
p144
aVDanny Ainge POR 05/07/1992 POR vs. PHX W 18 7 3 5 60.0 0 1 0.0 1 1 100.0 0 1 1 0 1 0 2 2 -
p145
aVClifford Robinson POR 05/07/1992 POR vs. PHX W 31 13 6 13 46.2 0 0 - 1 3 33.3 1 5 6 1 1 2 2 4 -
p146
aVKevin Duckworth POR 05/07/1992 POR vs. PHX W 32 15 7 15 46.7 0 0 - 1 2 50.0 0 5 5 1 0 0 1 4 -
p147
aVBuck Williams POR 05/07/1992 POR vs. PHX W 32 12 3 8 37.5 0 0 - 6 8 75.0 5 1 6 1 1 1 2 4 -
p148
aVEnnis Whatley POR 05/05/1992 POR vs. PHX W 10 4 1 1 100.0 0 0 - 2 2 100.0 0 0 0 0 1 0 0 2 -
p149
aVClifford Robinson POR 05/05/1992 POR vs. PHX W 27 13 4 10 40.0 0 0 - 5 7 71.4 2 4 6 0 1 0 2 5 -
p150
aVTerry Porter POR 05/05/1992 POR vs. PHX W 41 31 8 15 53.3 3 6 50.0 12 12 100.0 2 5 7 7 1 0 4 2 -
p151
aVKevin Duckworth POR 05/05/1992 POR vs. PHX W 29 12 4 15 26.7 0 0 - 4 5 80.0 5 2 7 0 0 0 1 5 -
p152
aVBuck Williams POR 05/05/1992 POR vs. PHX W 39 7 3 10 30.0 0 0 - 1 2 50.0 5 3 8 2 3 1 0 3 -
p153
aVDanny Ainge POR 05/05/1992 POR vs. PHX W 16 9 3 7 42.9 0 2 0.0 3 3 100.0 1 2 3 2 1 0 1 0 -
p154
aVRobert Pack POR 05/05/1992 POR vs. PHX W 1 0 0 1 0.0 0 0 - 0 0 - 0 0 0 0 1 0 0 0 -
p155
aVClyde Drexler POR 05/05/1992 POR vs. PHX W 37 26 10 24 41.7 0 4 0.0 6 10 60.0 6 4 10 2 3 2 2 5 -
p156
aVJerome Kersey POR 05/05/1992 POR vs. PHX W 40 11 3 10 30.0 0 0 - 5 6 83.3 4 2 6 3 4 2 3 3 -
p157
aVBuck Williams POR 05/03/1992 POR @ LAL W 36 9 4 4 100.0 0 0 - 1 4 25.0 2 9 11 0 1 0 4 1 -
p158
aVJerome Kersey POR 05/03/1992 POR @ LAL W 25 7 3 6 50.0 0 0 - 1 2 50.0 3 5 8 5 2 1 4 4 -
p159
aVRobert Pack POR 05/03/1992 POR @ LAL W 4 0 0 0 - 0 0 - 0 0 - 0 1 1 2 0 0 0 0 -
p160
aVAlaa Abdelnaby POR 05/03/1992 POR @ LAL W 5 5 2 4 50.0 0 0 - 1 2 50.0 0 0 0 0 0 0 0 1 -
p161
aVMark Bryant POR 05/03/1992 POR @ LAL W 4 0 0 0 - 0 0 - 0 0 - 0 1 1 0 0 0 0 1 -
p162
aVClyde Drexler POR 05/03/1992 POR @ LAL W 40 26 7 17 41.2 0 3 0.0 12 13 92.3 3 7 10 7 1 2 1 3 -
p163
aVDanny Ainge POR 05/03/1992 POR @ LAL W 34 19 6 9 66.7 3 5 60.0 4 4 100.0 1 2 3 5 3 0 1 3 -
p164
aVTerry Porter POR 05/03/1992 POR @ LAL W 36 15 5 13 38.5 2 3 66.7 3 3 100.0 0 2 2 2 1 0 4 1 -
p165
aVEnnis Whatley POR 05/03/1992 POR @ LAL W 5 0 0 0 - 0 0 - 0 0 - 0 1 1 0 0 0 0 0 -
p166
aVKevin Duckworth POR 05/03/1992 POR @ LAL W 24 7 3 9 33.3 0 0 - 1 2 50.0 1 5 6 1 3 0 2 2 -
p167
aVClifford Robinson POR 05/03/1992 POR @ LAL W 27 14 4 8 50.0 1 1 100.0 5 10 50.0 1 7 8 6 1 0 1 3 -
p168
aVBuck Williams POR 04/29/1992 POR @ LAL L 48 16 6 8 75.0 0 0 - 4 7 57.1 5 8 13 1 1 1 3 4 -
p169
aVTerry Porter POR 04/29/1992 POR @ LAL L 43 18 7 16 43.8 4 7 57.1 0 0 - 2 2 4 5 2 1 1 5 -
p170
aVClifford Robinson POR 04/29/1992 POR @ LAL L 35 11 4 6 66.7 0 0 - 3 4 75.0 2 2 4 4 1 0 2 6 -
p171
aVAlaa Abdelnaby POR 04/29/1992 POR @ LAL L 1 0 0 0 - 0 0 - 0 0 - 0 0 0 0 0 0 0 0 -
p172
aVMark Bryant POR 04/29/1992 POR @ LAL L 5 2 1 4 25.0 0 0 - 0 0 - 1 2 3 0 0 0 0 2 -
p173
aVRobert Pack POR 04/29/1992 POR @ LAL L 1 0 0 0 - 0 0 - 0 0 - 0 0 0 0 0 0 0 1 -
p174
aVKevin Duckworth POR 04/29/1992 POR @ LAL L 38 10 5 12 41.7 0 0 - 0 2 0.0 3 3 6 5 1 2 3 2 -
p175
aVDanny Ainge POR 04/29/1992 POR @ LAL L 18 7 3 6 50.0 1 2 50.0 0 0 - 0 1 1 2 0 0 1 6 -
p176
aVJerome Kersey POR 04/29/1992 POR @ LAL L 30 13 5 9 55.6 0 0 - 3 7 42.9 0 3 3 3 2 0 2 6 -
p177
aVClyde Drexler POR 04/29/1992 POR @ LAL L 46 42 14 23 60.9 2 5 40.0 12 13 92.3 3 6 9 12 2 0 6 3 -
p178
aVJerome Kersey POR 04/25/1992 POR vs. LAL W 33 13 4 11 36.4 0 0 - 5 6 83.3 3 2 5 3 1 1 2 3 -
p179
aVBuck Williams POR 04/25/1992 POR vs. LAL W 35 9 3 7 42.9 0 0 - 3 3 100.0 5 7 12 4 1 3 1 0 -
p180
aVKevin Duckworth POR 04/25/1992 POR vs. LAL W 39 19 9 16 56.3 0 0 - 1 3 33.3 5 4 9 1 1 2 1 1 -
p181
aVRobert Pack POR 04/25/1992 POR vs. LAL W 5 0 0 3 0.0 0 0 - 0 0 - 1 0 1 2 1 0 0 1 -
p182
aVClifford Robinson POR 04/25/1992 POR vs. LAL W 15 10 5 10 50.0 0 0 - 0 0 - 1 2 3 1 0 0 2 3 -
p183
aVMark Bryant POR 04/25/1992 POR vs. LAL W 8 2 1 4 25.0 0 0 - 0 0 - 1 1 2 0 1 0 1 2 -
p184
aVDanny Ainge POR 04/25/1992 POR vs. LAL W 21 10 4 9 44.4 2 3 66.7 0 1 0.0 0 1 1 4 1 0 0 3 -
p185
aVEnnis Whatley POR 04/25/1992 POR vs. LAL W 7 2 1 2 50.0 0 1 0.0 0 0 - 0 2 2 0 0 0 1 0 -
p186
aVClyde Drexler POR 04/25/1992 POR vs. LAL W 32 15 7 20 35.0 1 3 33.3 0 2 0.0 3 7 10 5 1 2 0 3 -
p187
aVAlaa Abdelnaby POR 04/25/1992 POR vs. LAL W 7 4 2 4 50.0 0 0 - 0 0 - 0 2 2 1 0 0 1 0 -
p188
aVTerry Porter POR 04/25/1992 POR vs. LAL W 31 15 6 11 54.5 0 1 0.0 3 4 75.0 2 4 6 6 2 0 4 3 -
p189
aVWayne Cooper POR 04/25/1992 POR vs. LAL W 7 2 1 1 100.0 0 0 - 0 0 - 1 1 2 0 0 1 0 0 -
p190
aVRobert Pack POR 04/23/1992 POR vs. LAL W 1 0 0 0 - 0 0 - 0 0 - 0 0 0 0 0 0 0 0 -
p191
aVTerry Porter POR 04/23/1992 POR vs. LAL W 39 20 6 10 60.0 3 3 100.0 5 6 83.3 4 3 7 8 0 0 4 2 -
p192
aVMark Bryant POR 04/23/1992 POR vs. LAL W 13 2 1 2 50.0 0 0 - 0 0 - 0 1 1 0 1 0 0 3 -
p193
aVClyde Drexler POR 04/23/1992 POR vs. LAL W 35 22 9 17 52.9 0 4 0.0 4 6 66.7 2 4 6 10 1 0 0 5 -
p194
aVJerome Kersey POR 04/23/1992 POR vs. LAL W 30 14 5 10 50.0 0 0 - 4 4 100.0 1 5 6 3 2 0 4 4 -
p195
aVBuck Williams POR 04/23/1992 POR vs. LAL W 38 21 8 13 61.5 0 0 - 5 8 62.5 5 8 13 0 2 1 3 2 -
p196
aVEnnis Whatley POR 04/23/1992 POR vs. LAL W 1 0 0 0 - 0 0 - 0 0 - 0 0 0 0 1 0 0 0 -
p197
aVKevin Duckworth POR 04/23/1992 POR vs. LAL W 26 8 4 4 100.0 0 0 - 0 0 - 1 2 3 3 0 0 4 5 -
p198
aVClifford Robinson POR 04/23/1992 POR vs. LAL W 34 24 9 15 60.0 0 0 - 6 13 46.2 2 1 3 3 3 0 1 3 -
p199
aVDanny Ainge POR 04/23/1992 POR vs. LAL W 23 4 1 5 20.0 0 0 - 2 2 100.0 0 2 2 4 0 0 2 1 -
p200
a.