(lp0
VPLAYER TEAM DATE MATCHUP W/L MIN PTS FGM FGA FG% 3PM 3PA 3P% FTM FTA FT% OREB DREB REB AST STL BLK TOV PF +/-
p1
aVDennis Rodman DET 05/03/1992 DET @ NYK L 27 2 1 2 50.0 0 0 - 0 2 0.0 4 5 9 2 1 1 2 3 -
p2
aVBill Laimbeer DET 05/03/1992 DET @ NYK L 24 8 4 12 33.3 0 2 0.0 0 0 - 2 3 5 1 1 0 0 6 -
p3
aVMark Aguirre DET 05/03/1992 DET @ NYK L 27 7 3 7 42.9 0 2 0.0 1 2 50.0 1 1 2 3 0 1 3 4 -
p4
aVOrlando Woolridge DET 05/03/1992 DET @ NYK L 29 12 5 9 55.6 0 0 - 2 4 50.0 0 1 1 0 0 0 2 2 -
p5
aVIsiah Thomas DET 05/03/1992 DET @ NYK L 45 31 7 20 35.0 3 5 60.0 14 17 82.4 1 9 10 6 1 0 1 5 -
p6
aVJoe Dumars DET 05/03/1992 DET @ NYK L 46 12 4 12 33.3 1 2 50.0 3 3 100.0 3 0 3 4 0 0 1 2 -
p7
aVJohn Salley DET 05/03/1992 DET @ NYK L 35 13 4 12 33.3 0 1 0.0 5 6 83.3 4 8 12 4 0 6 5 3 -
p8
aVDarrell Walker DET 05/03/1992 DET @ NYK L 7 2 1 1 100.0 0 0 - 0 0 - 1 1 2 0 0 0 1 3 -
p9
aVDennis Rodman DET 05/01/1992 DET vs. NYK W 39 12 6 11 54.5 0 1 0.0 0 0 - 6 11 17 1 1 0 0 3 -
p10
aVJoe Dumars DET 05/01/1992 DET vs. NYK W 44 23 9 15 60.0 1 2 50.0 4 5 80.0 0 1 1 2 1 1 3 5 -
p11
aVBill Laimbeer DET 05/01/1992 DET vs. NYK W 25 4 1 3 33.3 0 1 0.0 2 2 100.0 0 5 5 1 0 0 0 3 -
p12
aVDarrell Walker DET 05/01/1992 DET vs. NYK W 14 0 0 2 0.0 0 0 - 0 0 - 0 2 2 2 0 0 1 2 -
p13
aVBrad Sellers DET 05/01/1992 DET vs. NYK W 1 0 0 0 - 0 0 - 0 0 - 0 0 0 0 0 0 0 0 -
p14
aVMark Aguirre DET 05/01/1992 DET vs. NYK W 32 13 4 16 25.0 0 1 0.0 5 6 83.3 1 2 3 5 1 0 2 2 -
p15
aVJohn Salley DET 05/01/1992 DET vs. NYK W 23 6 2 4 50.0 0 0 - 2 2 100.0 1 0 1 1 1 3 2 4 -
p16
aVIsiah Thomas DET 05/01/1992 DET vs. NYK W 38 15 5 12 41.7 1 1 100.0 4 5 80.0 0 3 3 12 2 0 5 5 -
p17
aVOrlando Woolridge DET 05/01/1992 DET vs. NYK W 24 13 5 13 38.5 0 0 - 3 5 60.0 2 3 5 0 0 0 2 3 -
p18
aVMark Aguirre DET 04/28/1992 DET vs. NYK L 16 4 2 7 28.6 0 0 - 0 0 - 0 1 1 1 0 0 2 1 -
p19
aVOrlando Woolridge DET 04/28/1992 DET vs. NYK L 18 10 5 13 38.5 0 0 - 0 0 - 0 0 0 0 0 1 0 2 -
p20
aVJohn Salley DET 04/28/1992 DET vs. NYK L 37 20 7 17 41.2 0 0 - 6 9 66.7 3 3 6 4 1 2 2 5 -
p21
aVBill Laimbeer DET 04/28/1992 DET vs. NYK L 39 15 5 13 38.5 2 5 40.0 3 3 100.0 1 8 9 1 2 0 1 4 -
p22
aVDennis Rodman DET 04/28/1992 DET vs. NYK L 42 11 4 7 57.1 0 0 - 3 4 75.0 6 8 14 2 0 0 1 5 -
p23
aVJoe Dumars DET 04/28/1992 DET vs. NYK L 48 15 5 13 38.5 0 2 0.0 5 7 71.4 0 1 1 3 2 0 1 2 -
p24
aVDarrell Walker DET 04/28/1992 DET vs. NYK L 21 6 1 3 33.3 0 0 - 4 4 100.0 4 3 7 0 1 0 1 1 -
p25
aVIsiah Thomas DET 04/28/1992 DET vs. NYK L 44 6 3 12 25.0 0 2 0.0 0 0 - 1 4 5 11 2 0 3 2 -
p26
aVDarrell Walker DET 04/26/1992 DET @ NYK W 5 2 1 1 100.0 0 0 - 0 0 - 0 0 0 0 0 0 1 1 -
p27
aVJoe Dumars DET 04/26/1992 DET @ NYK W 47 21 8 17 47.1 3 4 75.0 2 2 100.0 2 1 3 2 1 0 1 2 -
p28
aVIsiah Thomas DET 04/26/1992 DET @ NYK W 44 15 6 12 50.0 0 2 0.0 3 3 100.0 1 5 6 6 0 0 3 2 -
p29
aVOrlando Woolridge DET 04/26/1992 DET @ NYK W 30 16 6 10 60.0 0 0 - 4 7 57.1 2 0 2 1 0 0 1 4 -
p30
aVJohn Salley DET 04/26/1992 DET @ NYK W 33 12 4 6 66.7 0 0 - 4 5 80.0 0 6 6 4 1 3 0 5 -
p31
aVBill Laimbeer DET 04/26/1992 DET @ NYK W 37 8 4 12 33.3 0 2 0.0 0 0 - 2 10 12 2 0 1 1 1 -
p32
aVDennis Rodman DET 04/26/1992 DET @ NYK W 26 5 2 4 50.0 0 1 0.0 1 2 50.0 0 7 7 3 0 0 1 3 -
p33
aVMark Aguirre DET 04/26/1992 DET @ NYK W 18 10 3 8 37.5 0 0 - 4 6 66.7 0 1 1 1 0 0 0 0 -
p34
aVLance Blanks DET 04/24/1992 DET @ NYK L 10 2 1 2 50.0 0 0 - 0 0 - 0 1 1 3 3 0 1 2 -
p35
aVWilliam Bedford DET 04/24/1992 DET @ NYK L 9 6 3 6 50.0 0 0 - 0 0 - 0 2 2 0 1 0 0 1 -
p36
aVDennis Rodman DET 04/24/1992 DET @ NYK L 22 6 3 3 100.0 0 0 - 0 0 - 0 4 4 1 2 1 3 3 -
p37
aVDarrell Walker DET 04/24/1992 DET @ NYK L 21 0 0 2 0.0 0 0 - 0 0 - 0 1 1 2 0 0 1 0 -
p38
aVMark Aguirre DET 04/24/1992 DET @ NYK L 20 11 4 10 40.0 1 2 50.0 2 2 100.0 2 0 2 2 1 0 6 2 -
p39
aVJoe Dumars DET 04/24/1992 DET @ NYK L 36 13 6 11 54.5 0 0 - 1 2 50.0 0 0 0 5 1 0 1 0 -
p40
aVJohn Salley DET 04/24/1992 DET @ NYK L 21 12 3 5 60.0 0 0 - 6 6 100.0 2 3 5 1 0 0 0 1 -
p41
aVBob McCann DET 04/24/1992 DET @ NYK L 13 6 3 6 50.0 0 0 - 0 0 - 1 1 2 0 0 1 2 2 -
p42
aVBrad Sellers DET 04/24/1992 DET @ NYK L 12 6 2 4 50.0 0 0 - 2 2 100.0 0 0 0 2 0 2 0 0 -
p43
aVBill Laimbeer DET 04/24/1992 DET @ NYK L 20 6 3 6 50.0 0 0 - 0 0 - 0 2 2 3 1 0 0 4 -
p44
aVOrlando Woolridge DET 04/24/1992 DET @ NYK L 27 4 2 7 28.6 0 0 - 0 0 - 1 1 2 2 1 0 1 3 -
p45
aVIsiah Thomas DET 04/24/1992 DET @ NYK L 29 3 1 9 11.1 0 1 0.0 1 3 33.3 0 2 2 2 0 0 4 4 -
p46
a.