(lp0
VPLAYER TEAM DATE MATCHUP W/L MIN PTS FGM FGA FG% 3PM 3PA 3P% FTM FTA FT% OREB DREB REB AST STL BLK TOV PF +/-
p1
aVMike Brown UTH 05/28/1992 UTH vs. POR L 15 3 0 5 0.0 0 0 - 3 4 75.0 5 1 6 1 0 0 1 5 -
p2
aVKarl Malone UTH 05/28/1992 UTH vs. POR L 45 23 7 14 50.0 0 0 - 9 10 90.0 6 13 19 1 0 1 4 4 -
p3
aVJohn Stockton UTH 05/28/1992 UTH vs. POR L 45 18 5 19 26.3 1 8 12.5 7 8 87.5 0 4 4 12 1 0 5 4 -
p4
aVDelaney Rudd UTH 05/28/1992 UTH vs. POR L 6 0 0 0 - 0 0 - 0 0 - 0 0 0 0 0 0 0 1 -
p5
aVBob Thornton UTH 05/28/1992 UTH vs. POR L 6 0 0 1 0.0 0 0 - 0 0 - 1 1 2 0 0 0 0 2 -
p6
aVJeff Malone UTH 05/28/1992 UTH vs. POR L 36 14 7 17 41.2 0 0 - 0 0 - 2 4 6 3 0 0 3 2 -
p7
aVMark Eaton UTH 05/28/1992 UTH vs. POR L 30 2 0 4 0.0 0 0 - 2 2 100.0 3 3 6 1 1 2 0 2 -
p8
aVBlue Edwards UTH 05/28/1992 UTH vs. POR L 26 15 6 11 54.5 1 2 50.0 2 2 100.0 1 4 5 0 2 0 2 3 -
p9
aVTyrone Corbin UTH 05/28/1992 UTH vs. POR L 31 22 7 13 53.8 0 0 - 8 8 100.0 4 2 6 0 2 0 2 3 -
p10
aVMark Eaton UTH 05/26/1992 UTH @ POR L 31 4 2 3 66.7 0 0 - 0 1 0.0 4 5 9 3 0 0 1 5 -
p11
aVJohn Stockton UTH 05/26/1992 UTH @ POR L 23 6 1 6 16.7 1 3 33.3 3 3 100.0 1 0 1 10 3 1 1 1 -
p12
aVBob Thornton UTH 05/26/1992 UTH @ POR L 6 0 0 1 0.0 0 0 - 0 0 - 0 0 0 0 0 0 0 1 -
p13
aVKarl Malone UTH 05/26/1992 UTH @ POR L 51 38 16 30 53.3 0 0 - 6 6 100.0 4 10 14 0 2 1 3 3 -
p14
aVJeff Malone UTH 05/26/1992 UTH @ POR L 48 23 11 21 52.4 0 0 - 1 1 100.0 2 1 3 5 1 0 1 3 -
p15
aVMike Brown UTH 05/26/1992 UTH @ POR L 18 6 2 4 50.0 0 0 - 2 2 100.0 1 3 4 2 0 0 1 4 -
p16
aVBlue Edwards UTH 05/26/1992 UTH @ POR L 22 8 3 10 30.0 0 1 0.0 2 3 66.7 3 2 5 0 1 0 0 4 -
p17
aVDelaney Rudd UTH 05/26/1992 UTH @ POR L 28 8 3 7 42.9 1 3 33.3 1 2 50.0 0 1 1 9 2 0 1 3 -
p18
aVTyrone Corbin UTH 05/26/1992 UTH @ POR L 38 28 11 15 73.3 0 0 - 6 8 75.0 4 0 4 4 1 0 3 3 -
p19
aVBlue Edwards UTH 05/24/1992 UTH vs. POR W 27 16 7 12 58.3 0 1 0.0 2 4 50.0 2 1 3 1 3 1 2 2 -
p20
aVDavid Benoit UTH 05/24/1992 UTH vs. POR W 13 4 1 3 33.3 0 1 0.0 2 2 100.0 2 1 3 0 0 0 0 3 -
p21
aVJeff Malone UTH 05/24/1992 UTH vs. POR W 40 28 7 16 43.8 0 0 - 14 15 93.3 0 5 5 2 0 0 2 2 -
p22
aVMark Eaton UTH 05/24/1992 UTH vs. POR W 31 7 1 2 50.0 0 0 - 5 6 83.3 2 4 6 0 1 3 0 3 -
p23
aVKarl Malone UTH 05/24/1992 UTH vs. POR W 46 33 10 17 58.8 0 1 0.0 13 14 92.9 0 12 12 3 0 0 4 4 -
p24
aVJohn Stockton UTH 05/24/1992 UTH vs. POR W 41 18 6 11 54.5 1 4 25.0 5 5 100.0 1 1 2 15 3 0 2 4 -
p25
aVMike Brown UTH 05/24/1992 UTH vs. POR W 17 9 2 5 40.0 0 0 - 5 5 100.0 2 0 2 1 1 0 0 2 -
p26
aVDelaney Rudd UTH 05/24/1992 UTH vs. POR W 1 0 0 0 - 0 0 - 0 0 - 0 0 0 0 0 0 1 1 -
p27
aVTyrone Corbin UTH 05/24/1992 UTH vs. POR W 24 6 2 5 40.0 0 0 - 2 4 50.0 2 1 3 3 0 0 0 4 -
p28
aVMark Eaton UTH 05/22/1992 UTH vs. POR W 23 5 1 2 50.0 0 0 - 3 6 50.0 3 4 7 0 0 3 0 2 -
p29
aVMike Brown UTH 05/22/1992 UTH vs. POR W 25 11 4 8 50.0 0 0 - 3 5 60.0 0 3 3 0 0 1 0 1 -
p30
aVJeff Malone UTH 05/22/1992 UTH vs. POR W 40 11 5 16 31.3 0 1 0.0 1 2 50.0 2 3 5 3 0 1 1 4 -
p31
aVTyrone Corbin UTH 05/22/1992 UTH vs. POR W 28 8 4 7 57.1 0 0 - 0 0 - 0 3 3 2 2 0 0 3 -
p32
aVDavid Benoit UTH 05/22/1992 UTH vs. POR W 15 2 1 5 20.0 0 0 - 0 0 - 1 0 1 1 1 0 1 0 -
p33
aVBlue Edwards UTH 05/22/1992 UTH vs. POR W 17 7 3 5 60.0 0 0 - 1 2 50.0 3 1 4 2 1 0 2 5 -
p34
aVJohn Stockton UTH 05/22/1992 UTH vs. POR W 47 14 5 13 38.5 0 3 0.0 4 4 100.0 2 1 3 10 1 1 3 2 -
p35
aVKarl Malone UTH 05/22/1992 UTH vs. POR W 45 39 14 23 60.9 0 0 - 11 13 84.6 1 6 7 7 2 0 4 2 -
p36
aVBlue Edwards UTH 05/19/1992 UTH @ POR L 11 2 1 2 50.0 0 1 0.0 0 0 - 1 0 1 1 0 0 1 3 -
p37
aVTyrone Corbin UTH 05/19/1992 UTH @ POR L 22 7 3 7 42.9 0 0 - 1 2 50.0 5 2 7 0 2 0 0 1 -
p38
aVCorey Crowder UTH 05/19/1992 UTH @ POR L 2 2 1 3 33.3 0 1 0.0 0 0 - 0 0 0 0 0 0 0 0 -
p39
aVDelaney Rudd UTH 05/19/1992 UTH @ POR L 3 0 0 1 0.0 0 0 - 0 0 - 0 1 1 0 0 0 0 0 -
p40
aVBob Thornton UTH 05/19/1992 UTH @ POR L 2 2 0 0 - 0 0 - 2 2 100.0 0 0 0 1 0 0 0 0 -
p41
aVKarl Malone UTH 05/19/1992 UTH @ POR L 42 25 8 16 50.0 0 0 - 9 14 64.3 2 9 11 1 2 2 3 5 -
p42
aVJeff Malone UTH 05/19/1992 UTH @ POR L 39 21 8 20 40.0 0 0 - 5 7 71.4 2 3 5 3 0 0 1 1 -
p43
aVMike Brown UTH 05/19/1992 UTH @ POR L 17 4 2 5 40.0 0 0 - 0 0 - 3 2 5 1 0 0 2 4 -
p44
aVJohn Stockton UTH 05/19/1992 UTH @ POR L 42 24 9 13 69.2 3 6 50.0 3 4 75.0 0 2 2 11 0 0 6 5 -
p45
aVDavid Benoit UTH 05/19/1992 UTH @ POR L 30 13 5 11 45.5 1 1 100.0 2 2 100.0 0 3 3 1 0 1 2 5 -
p46
aVMark Eaton UTH 05/19/1992 UTH @ POR L 30 2 0 0 - 0 0 - 2 2 100.0 0 3 3 0 2 2 1 3 -
p47
aVMike Brown UTH 05/16/1992 UTH @ POR L 23 9 3 7 42.9 0 0 - 3 5 60.0 1 4 5 0 1 0 1 3 -
p48
aVCorey Crowder UTH 05/16/1992 UTH @ POR L 6 2 1 1 100.0 0 0 - 0 0 - 0 1 1 1 0 0 2 1 -
p49
aVJeff Malone UTH 05/16/1992 UTH @ POR L 28 15 6 11 54.5 0 0 - 3 3 100.0 0 0 0 2 0 0 2 1 -
p50
aVKarl Malone UTH 05/16/1992 UTH @ POR L 29 11 3 6 50.0 0 0 - 5 8 62.5 1 6 7 2 0 1 3 1 -
p51
aVEric Murdock UTH 05/16/1992 UTH @ POR L 7 6 2 3 66.7 0 0 - 2 2 100.0 0 2 2 1 0 1 1 1 -
p52
aVTyrone Corbin UTH 05/16/1992 UTH @ POR L 24 11 3 7 42.9 0 0 - 5 6 83.3 0 2 2 0 0 0 1 4 -
p53
aVBlue Edwards UTH 05/16/1992 UTH @ POR L 24 4 2 8 25.0 0 0 - 0 0 - 0 2 2 3 2 0 2 2 -
p54
aVJohn Stockton UTH 05/16/1992 UTH @ POR L 27 6 1 6 16.7 0 2 0.0 4 4 100.0 0 1 1 9 0 0 3 0 -
p55
aVMark Eaton UTH 05/16/1992 UTH @ POR L 20 4 2 2 100.0 0 0 - 0 0 - 0 0 0 0 0 2 1 3 -
p56
aVDelaney Rudd UTH 05/16/1992 UTH @ POR L 11 4 1 2 50.0 0 1 0.0 2 2 100.0 0 0 0 1 0 0 1 1 -
p57
aVDavid Benoit UTH 05/16/1992 UTH @ POR L 28 11 5 10 50.0 1 3 33.3 0 0 - 1 4 5 1 1 0 2 4 -
p58
aVBob Thornton UTH 05/16/1992 UTH @ POR L 13 5 2 2 100.0 0 0 - 1 2 50.0 3 4 7 0 0 0 1 0 -
p59
aVTyrone Corbin UTH 05/14/1992 UTH vs. SEA W 29 15 7 15 46.7 0 0 - 1 2 50.0 5 6 11 0 1 1 2 4 -
p60
aVKarl Malone UTH 05/14/1992 UTH vs. SEA W 42 37 10 22 45.5 0 1 0.0 17 18 94.4 5 8 13 1 2 0 3 3 -
p61
aVMark Eaton UTH 05/14/1992 UTH vs. SEA W 42 14 5 10 50.0 0 0 - 4 4 100.0 4 5 9 0 0 2 2 3 -
p62
aVMike Brown UTH 05/14/1992 UTH vs. SEA W 8 0 0 3 0.0 0 0 - 0 0 - 1 0 1 1 0 0 1 0 -
p63
aVJohn Stockton UTH 05/14/1992 UTH vs. SEA W 42 18 6 15 40.0 2 7 28.6 4 5 80.0 1 5 6 17 5 1 3 2 -
p64
aVBlue Edwards UTH 05/14/1992 UTH vs. SEA W 15 0 0 2 0.0 0 0 - 0 0 - 1 1 2 0 1 0 3 1 -
p65
aVJeff Malone UTH 05/14/1992 UTH vs. SEA W 39 20 7 15 46.7 0 0 - 6 6 100.0 2 0 2 1 0 0 1 0 -
p66
aVDavid Benoit UTH 05/14/1992 UTH vs. SEA W 23 7 3 8 37.5 1 2 50.0 0 0 - 2 3 5 2 1 0 0 1 -
p67
aVMark Eaton UTH 05/12/1992 UTH @ SEA W 31 4 2 3 66.7 0 0 - 0 0 - 2 2 4 0 0 3 1 4 -
p68
aVBlue Edwards UTH 05/12/1992 UTH @ SEA W 22 10 4 8 50.0 0 1 0.0 2 2 100.0 0 1 1 0 2 0 1 3 -
p69
aVJeff Malone UTH 05/12/1992 UTH @ SEA W 32 24 11 17 64.7 1 1 100.0 1 4 25.0 1 2 3 3 0 0 0 1 -
p70
aVJohn Stockton UTH 05/12/1992 UTH @ SEA W 43 4 1 9 11.1 0 1 0.0 2 2 100.0 0 4 4 13 2 0 4 0 -
p71
aVTyrone Corbin UTH 05/12/1992 UTH @ SEA W 22 11 2 6 33.3 0 1 0.0 7 8 87.5 1 3 4 0 0 0 3 4 -
p72
aVMike Brown UTH 05/12/1992 UTH @ SEA W 23 8 3 6 50.0 0 0 - 2 2 100.0 0 5 5 1 0 0 2 3 -
p73
aVKarl Malone UTH 05/12/1992 UTH @ SEA W 43 22 8 14 57.1 0 0 - 6 8 75.0 1 7 8 2 4 0 4 4 -
p74
aVDavid Benoit UTH 05/12/1992 UTH @ SEA W 24 6 3 4 75.0 0 0 - 0 0 - 2 2 4 0 1 0 1 2 -
p75
aVBlue Edwards UTH 05/10/1992 UTH @ SEA L 9 2 1 2 50.0 0 0 - 0 0 - 1 1 2 1 1 0 1 4 -
p76
aVJeff Malone UTH 05/10/1992 UTH @ SEA L 36 13 4 11 36.4 0 0 - 5 5 100.0 0 1 1 0 1 0 2 3 -
p77
aVDavid Benoit UTH 05/10/1992 UTH @ SEA L 18 7 3 5 60.0 1 2 50.0 0 0 - 1 4 5 0 0 0 0 4 -
p78
aVJohn Stockton UTH 05/10/1992 UTH @ SEA L 40 23 9 13 69.2 3 5 60.0 2 3 66.7 1 3 4 11 3 1 7 1 -
p79
aVTyrone Corbin UTH 05/10/1992 UTH @ SEA L 28 8 4 7 57.1 0 0 - 0 0 - 1 3 4 0 0 1 0 2 -
p80
aVMike Brown UTH 05/10/1992 UTH @ SEA L 13 1 0 2 0.0 0 0 - 1 2 50.0 1 2 3 0 0 0 0 2 -
p81
aVKarl Malone UTH 05/10/1992 UTH @ SEA L 45 30 10 16 62.5 0 0 - 10 13 76.9 2 6 8 3 1 1 3 4 -
p82
aVMark Eaton UTH 05/10/1992 UTH @ SEA L 35 8 3 4 75.0 0 0 - 2 3 66.7 0 4 4 0 0 0 0 4 -
p83
aVDelaney Rudd UTH 05/10/1992 UTH @ SEA L 16 6 3 6 50.0 0 0 - 0 0 - 0 1 1 5 1 0 0 2 -
p84
aVTyrone Corbin UTH 05/08/1992 UTH vs. SEA W 18 0 0 4 0.0 0 0 - 0 0 - 2 1 3 3 1 0 0 2 -
p85
aVMark Eaton UTH 05/08/1992 UTH vs. SEA W 28 3 1 3 33.3 0 0 - 1 1 100.0 3 3 6 0 1 3 0 1 -
p86
aVJohn Stockton UTH 05/08/1992 UTH vs. SEA W 41 10 3 11 27.3 0 3 0.0 4 5 80.0 0 2 2 14 3 0 3 2 -
p87
aVDelaney Rudd UTH 05/08/1992 UTH vs. SEA W 1 0 0 1 0.0 0 1 0.0 0 0 - 0 0 0 0 0 0 0 0 -
p88
aVKarl Malone UTH 05/08/1992 UTH vs. SEA W 43 28 8 17 47.1 0 0 - 12 14 85.7 2 10 12 4 0 1 1 4 -
p89
aVDavid Benoit UTH 05/08/1992 UTH vs. SEA W 28 5 2 7 28.6 0 0 - 1 1 100.0 2 4 6 0 1 0 2 3 -
p90
aVBlue Edwards UTH 05/08/1992 UTH vs. SEA W 29 13 6 10 60.0 0 1 0.0 1 1 100.0 3 0 3 1 0 1 0 4 -
p91
aVMike Brown UTH 05/08/1992 UTH vs. SEA W 13 11 5 9 55.6 0 0 - 1 2 50.0 2 3 5 0 0 0 0 0 -
p92
aVJeff Malone UTH 05/08/1992 UTH vs. SEA W 39 33 13 21 61.9 0 0 - 7 7 100.0 0 1 1 2 0 0 0 3 -
p93
aVJeff Malone UTH 05/06/1992 UTH vs. SEA W 38 22 8 15 53.3 0 0 - 6 6 100.0 0 1 1 2 0 1 3 3 -
p94
aVDavid Benoit UTH 05/06/1992 UTH vs. SEA W 27 6 2 7 28.6 0 1 0.0 2 2 100.0 0 6 6 0 1 1 1 1 -
p95
aVMark Eaton UTH 05/06/1992 UTH vs. SEA W 29 4 1 2 50.0 0 0 - 2 2 100.0 3 4 7 0 0 3 1 3 -
p96
aVTyrone Corbin UTH 05/06/1992 UTH vs. SEA W 31 23 9 13 69.2 0 0 - 5 6 83.3 1 6 7 1 1 0 1 2 -
p97
aVBlue Edwards UTH 05/06/1992 UTH vs. SEA W 16 4 2 4 50.0 0 0 - 0 0 - 0 2 2 3 1 0 1 1 -
p98
aVKarl Malone UTH 05/06/1992 UTH vs. SEA W 41 30 10 18 55.6 0 0 - 10 13 76.9 2 8 10 4 3 1 2 4 -
p99
aVMike Brown UTH 05/06/1992 UTH vs. SEA W 16 3 1 3 33.3 0 0 - 1 2 50.0 0 3 3 2 0 0 1 1 -
p100
aVJohn Stockton UTH 05/06/1992 UTH vs. SEA W 42 16 7 12 58.3 0 1 0.0 2 2 100.0 0 0 0 15 3 0 3 2 -
p101
aVDavid Benoit UTH 05/04/1992 UTH vs. LAC W 33 16 6 13 46.2 2 3 66.7 2 2 100.0 4 3 7 0 0 3 1 3 -
p102
aVBlue Edwards UTH 05/04/1992 UTH vs. LAC W 20 9 4 6 66.7 0 0 - 1 2 50.0 1 5 6 0 1 1 3 1 -
p103
aVJeff Malone UTH 05/04/1992 UTH vs. LAC W 37 25 11 21 52.4 0 0 - 3 3 100.0 0 1 1 0 2 0 3 0 -
p104
aVDelaney Rudd UTH 05/04/1992 UTH vs. LAC W 14 5 2 3 66.7 1 2 50.0 0 0 - 0 0 0 3 0 0 1 2 -
p105
aVMike Brown UTH 05/04/1992 UTH vs. LAC W 17 3 1 4 25.0 0 0 - 1 2 50.0 1 9 10 1 0 0 1 4 -
p106
aVMark Eaton UTH 05/04/1992 UTH vs. LAC W 19 0 0 2 0.0 0 0 - 0 0 - 3 3 6 0 0 2 0 0 -
p107
aVTyrone Corbin UTH 05/04/1992 UTH vs. LAC W 28 8 3 7 42.9 0 0 - 2 4 50.0 5 3 8 0 0 0 2 3 -
p108
aVKarl Malone UTH 05/04/1992 UTH vs. LAC W 44 19 5 17 29.4 0 0 - 9 14 64.3 6 10 16 3 1 5 2 2 -
p109
aVJohn Stockton UTH 05/04/1992 UTH vs. LAC W 28 13 5 10 50.0 0 2 0.0 3 4 75.0 1 4 5 9 0 0 5 4 -
p110
aVMike Brown UTH 05/03/1992 UTH @ LAC L 17 4 1 2 50.0 0 0 - 2 2 100.0 0 1 1 0 0 1 1 5 -
p111
aVDavid Benoit UTH 05/03/1992 UTH @ LAC L 9 4 2 4 50.0 0 0 - 0 0 - 1 1 2 0 0 0 0 1 -
p112
aVJohn Stockton UTH 05/03/1992 UTH @ LAC L 43 16 5 12 41.7 3 5 60.0 3 4 75.0 0 2 2 18 3 1 2 2 -
p113
aVMark Eaton UTH 05/03/1992 UTH @ LAC L 33 4 2 2 100.0 0 0 - 0 0 - 0 4 4 0 0 3 1 3 -
p114
aVJeff Malone UTH 05/03/1992 UTH @ LAC L 38 18 8 19 42.1 0 0 - 2 2 100.0 0 3 3 1 1 0 3 5 -
p115
aVBlue Edwards UTH 05/03/1992 UTH @ LAC L 37 12 4 11 36.4 1 2 50.0 3 6 50.0 0 2 2 3 4 0 4 2 -
p116
aVKarl Malone UTH 05/03/1992 UTH @ LAC L 46 44 11 18 61.1 0 0 - 22 24 91.7 4 7 11 2 0 0 3 4 -
p117
aVTyrone Corbin UTH 05/03/1992 UTH @ LAC L 17 5 1 5 20.0 0 0 - 3 4 75.0 3 4 7 0 0 0 1 4 -
p118
aVKarl Malone UTH 04/28/1992 UTH @ LAC L 42 22 9 17 52.9 0 0 - 4 7 57.1 1 9 10 6 2 2 2 5 -
p119
aVEric Murdock UTH 04/28/1992 UTH @ LAC L 2 2 1 2 50.0 0 1 0.0 0 0 - 0 0 0 0 1 0 1 0 -
p120
aVDavid Benoit UTH 04/28/1992 UTH @ LAC L 9 6 2 4 50.0 0 0 - 2 2 100.0 1 1 2 0 0 0 0 2 -
p121
aVBlue Edwards UTH 04/28/1992 UTH @ LAC L 26 11 5 9 55.6 0 0 - 1 2 50.0 2 5 7 0 0 0 1 3 -
p122
aVMike Brown UTH 04/28/1992 UTH @ LAC L 11 0 0 2 0.0 0 0 - 0 0 - 0 2 2 0 0 0 3 2 -
p123
aVDelaney Rudd UTH 04/28/1992 UTH @ LAC L 2 0 0 0 - 0 0 - 0 0 - 0 1 1 0 0 0 0 1 -
p124
aVTyrone Corbin UTH 04/28/1992 UTH @ LAC L 31 12 5 8 62.5 0 1 0.0 2 2 100.0 1 0 1 2 1 0 1 4 -
p125
aVBob Thornton UTH 04/28/1992 UTH @ LAC L 2 0 0 0 - 0 0 - 0 0 - 0 0 0 0 0 0 0 0 -
p126
aVJohn Stockton UTH 04/28/1992 UTH @ LAC L 41 20 5 14 35.7 3 5 60.0 7 7 100.0 0 1 1 13 4 0 3 3 -
p127
aVCorey Crowder UTH 04/28/1992 UTH @ LAC L 2 2 1 2 50.0 0 1 0.0 0 1 0.0 0 0 0 0 1 0 0 0 -
p128
aVJeff Malone UTH 04/28/1992 UTH @ LAC L 38 11 5 15 33.3 0 0 - 1 2 50.0 0 0 0 1 0 0 2 1 -
p129
aVMark Eaton UTH 04/28/1992 UTH @ LAC L 34 2 1 2 50.0 0 0 - 0 0 - 2 4 6 0 0 2 0 4 -
p130
aVMike Brown UTH 04/26/1992 UTH vs. LAC W 18 8 2 4 50.0 0 0 - 4 4 100.0 3 2 5 0 0 0 1 3 -
p131
aVMark Eaton UTH 04/26/1992 UTH vs. LAC W 32 4 2 2 100.0 0 0 - 0 0 - 0 6 6 0 0 3 0 4 -
p132
aVBlue Edwards UTH 04/26/1992 UTH vs. LAC W 27 6 2 3 66.7 0 0 - 2 2 100.0 2 2 4 2 0 0 0 3 -
p133
aVTyrone Corbin UTH 04/26/1992 UTH vs. LAC W 38 8 4 11 36.4 0 0 - 0 0 - 3 7 10 2 0 1 0 2 -
p134
aVBob Thornton UTH 04/26/1992 UTH vs. LAC W 1 0 0 0 - 0 0 - 0 0 - 0 0 0 0 0 0 0 0 -
p135
aVJeff Malone UTH 04/26/1992 UTH vs. LAC W 39 24 11 21 52.4 0 1 0.0 2 3 66.7 0 1 1 0 1 0 1 1 -
p136
aVJohn Stockton UTH 04/26/1992 UTH vs. LAC W 40 21 6 11 54.5 1 3 33.3 8 13 61.5 2 6 8 19 2 0 7 4 -
p137
aVKarl Malone UTH 04/26/1992 UTH vs. LAC W 45 32 7 19 36.8 0 0 - 18 22 81.8 2 11 13 0 2 3 3 5 -
p138
aVJeff Malone UTH 04/24/1992 UTH vs. LAC W 39 29 12 19 63.2 0 0 - 5 6 83.3 1 1 2 3 2 0 1 3 -
p139
aVCorey Crowder UTH 04/24/1992 UTH vs. LAC W 2 4 2 3 66.7 0 0 - 0 0 - 1 0 1 0 0 0 0 0 -
p140
aVDelaney Rudd UTH 04/24/1992 UTH vs. LAC W 2 2 1 1 100.0 0 0 - 0 0 - 0 0 0 1 0 0 0 0 -
p141
aVBob Thornton UTH 04/24/1992 UTH vs. LAC W 2 0 0 1 0.0 0 0 - 0 0 - 0 0 0 0 0 0 0 0 -
p142
aVBlue Edwards UTH 04/24/1992 UTH vs. LAC W 26 10 2 8 25.0 0 1 0.0 6 6 100.0 2 0 2 0 4 0 2 4 -
p143
aVKarl Malone UTH 04/24/1992 UTH vs. LAC W 39 32 12 20 60.0 0 0 - 8 12 66.7 4 6 10 3 1 1 2 3 -
p144
aVTyrone Corbin UTH 04/24/1992 UTH vs. LAC W 34 8 4 7 57.1 0 0 - 0 0 - 2 6 8 0 1 0 1 0 -
p145
aVMark Eaton UTH 04/24/1992 UTH vs. LAC W 32 6 3 3 100.0 0 0 - 0 0 - 1 6 7 0 2 3 3 3 -
p146
aVJohn Stockton UTH 04/24/1992 UTH vs. LAC W 39 10 3 7 42.9 0 0 - 4 5 80.0 1 1 2 21 1 0 1 2 -
p147
aVDavid Benoit UTH 04/24/1992 UTH vs. LAC W 4 2 1 3 33.3 0 0 - 0 0 - 1 0 1 1 0 0 0 1 -
p148
aVEric Murdock UTH 04/24/1992 UTH vs. LAC W 2 0 0 0 - 0 0 - 0 0 - 0 1 1 0 0 0 1 0 -
p149
aVMike Brown UTH 04/24/1992 UTH vs. LAC W 19 12 4 6 66.7 0 0 - 4 4 100.0 2 3 5 1 0 0 1 4 -
p150
a.