(lp0
VPLAYER TEAM DATE MATCHUP W/L MIN PTS FGM FGA FG% 3PM 3PA 3P% FTM FTA FT% OREB DREB REB AST STL BLK TOV PF +/-
p1
aVTerry Mills NJN 04/30/1992 NJN vs. CLE L 13 4 2 8 25.0 0 1 0.0 0 0 - 4 3 7 1 0 0 3 4 -
p2
aVDrazen Petrovic NJN 04/30/1992 NJN vs. CLE L 42 14 6 14 42.9 0 1 0.0 2 2 100.0 0 0 0 2 2 0 2 3 -
p3
aVDerrick Coleman NJN 04/30/1992 NJN vs. CLE L 45 22 7 21 33.3 0 1 0.0 8 11 72.7 5 9 14 6 1 2 2 3 -
p4
aVSam Bowie NJN 04/30/1992 NJN vs. CLE L 30 10 3 5 60.0 1 2 50.0 3 4 75.0 0 5 5 4 0 0 1 5 -
p5
aVTate George NJN 04/30/1992 NJN vs. CLE L 6 4 2 5 40.0 0 0 - 0 0 - 0 0 0 0 1 0 1 1 -
p6
aVMookie Blaylock NJN 04/30/1992 NJN vs. CLE L 44 8 4 13 30.8 0 1 0.0 0 0 - 1 4 5 5 5 1 3 5 -
p7
aVDoug Lee NJN 04/30/1992 NJN vs. CLE L 1 0 0 1 0.0 0 1 0.0 0 0 - 0 0 0 0 0 0 0 0 -
p8
aVChris Morris NJN 04/30/1992 NJN vs. CLE L 38 22 8 19 42.1 1 4 25.0 5 6 83.3 3 2 5 3 2 3 1 4 -
p9
aVChris Dudley NJN 04/30/1992 NJN vs. CLE L 18 5 1 4 25.0 0 0 - 3 6 50.0 6 1 7 0 0 4 0 2 -
p10
aVKenny Anderson NJN 04/30/1992 NJN vs. CLE L 3 0 0 0 - 0 0 - 0 0 - 0 0 0 0 0 0 0 0 -
p11
aVMookie Blaylock NJN 04/28/1992 NJN vs. CLE W 37 10 4 13 30.8 1 2 50.0 1 2 50.0 1 3 4 12 4 0 0 5 -
p12
aVChris Morris NJN 04/28/1992 NJN vs. CLE W 33 28 12 14 85.7 3 3 100.0 1 1 100.0 2 3 5 0 2 3 4 2 -
p13
aVSam Bowie NJN 04/28/1992 NJN vs. CLE W 30 8 4 10 40.0 0 0 - 0 1 0.0 1 2 3 2 2 3 0 4 -
p14
aVKenny Anderson NJN 04/28/1992 NJN vs. CLE W 9 2 1 3 33.3 0 0 - 0 0 - 0 0 0 2 0 0 0 0 -
p15
aVDerrick Coleman NJN 04/28/1992 NJN vs. CLE W 40 22 11 22 50.0 0 1 0.0 0 0 - 4 7 11 4 3 1 4 4 -
p16
aVTate George NJN 04/28/1992 NJN vs. CLE W 13 5 2 3 66.7 0 0 - 1 3 33.3 0 0 0 4 0 1 2 1 -
p17
aVDrazen Petrovic NJN 04/28/1992 NJN vs. CLE W 37 20 8 16 50.0 3 5 60.0 1 2 50.0 1 2 3 6 0 0 4 5 -
p18
aVTerry Mills NJN 04/28/1992 NJN vs. CLE W 23 9 4 9 44.4 0 0 - 1 2 50.0 3 4 7 2 1 0 1 4 -
p19
aVChris Dudley NJN 04/28/1992 NJN vs. CLE W 18 5 2 5 40.0 0 0 - 1 2 50.0 3 2 5 2 1 3 1 6 -
p20
aVChris Morris NJN 04/25/1992 NJN @ CLE L 29 7 3 5 60.0 0 0 - 1 2 50.0 1 1 2 0 2 0 2 2 -
p21
aVSam Bowie NJN 04/25/1992 NJN @ CLE L 24 3 1 4 25.0 0 0 - 1 2 50.0 1 1 2 3 1 0 2 5 -
p22
aVDerrick Coleman NJN 04/25/1992 NJN @ CLE L 35 24 9 18 50.0 1 3 33.3 5 5 100.0 3 6 9 2 2 1 4 2 -
p23
aVTerry Mills NJN 04/25/1992 NJN @ CLE L 22 8 2 6 33.3 0 0 - 4 6 66.7 1 5 6 3 0 1 0 5 -
p24
aVRafael Addison NJN 04/25/1992 NJN @ CLE L 9 5 2 7 28.6 1 2 50.0 0 0 - 0 0 0 1 0 0 0 0 -
p25
aVDave Feitl NJN 04/25/1992 NJN @ CLE L 3 2 1 2 50.0 0 0 - 0 0 - 0 1 1 0 0 0 1 0 -
p26
aVChris Dudley NJN 04/25/1992 NJN @ CLE L 21 2 1 3 33.3 0 0 - 0 0 - 2 3 5 1 1 3 0 3 -
p27
aVMookie Blaylock NJN 04/25/1992 NJN @ CLE L 29 12 5 13 38.5 0 1 0.0 2 2 100.0 2 3 5 6 2 1 2 2 -
p28
aVDrazen Petrovic NJN 04/25/1992 NJN @ CLE L 37 23 10 15 66.7 1 2 50.0 2 3 66.7 0 3 3 4 1 1 1 1 -
p29
aVKenny Anderson NJN 04/25/1992 NJN @ CLE L 12 6 2 6 33.3 0 0 - 2 2 100.0 1 2 3 1 1 0 1 1 -
p30
aVTate George NJN 04/25/1992 NJN @ CLE L 14 4 2 10 20.0 0 0 - 0 0 - 0 0 0 0 1 0 1 3 -
p31
aVDoug Lee NJN 04/25/1992 NJN @ CLE L 5 0 0 2 0.0 0 1 0.0 0 0 - 0 0 0 1 0 1 0 1 -
p32
aVChris Dudley NJN 04/23/1992 NJN @ CLE L 20 2 1 2 50.0 0 0 - 0 0 - 2 6 8 0 0 0 0 3 -
p33
aVTate George NJN 04/23/1992 NJN @ CLE L 11 2 1 5 20.0 0 0 - 0 0 - 0 0 0 4 1 0 0 3 -
p34
aVChris Morris NJN 04/23/1992 NJN @ CLE L 35 18 9 20 45.0 0 3 0.0 0 0 - 5 3 8 2 1 1 1 3 -
p35
aVMookie Blaylock NJN 04/23/1992 NJN @ CLE L 38 8 4 16 25.0 0 2 0.0 0 0 - 1 1 2 8 4 0 2 4 -
p36
aVTerry Mills NJN 04/23/1992 NJN @ CLE L 19 6 2 4 50.0 0 0 - 2 3 66.7 1 3 4 2 0 1 3 5 -
p37
aVDrazen Petrovic NJN 04/23/1992 NJN @ CLE L 47 40 17 31 54.8 0 4 0.0 6 6 100.0 3 1 4 1 1 0 1 4 -
p38
aVSam Bowie NJN 04/23/1992 NJN @ CLE L 28 16 6 14 42.9 0 0 - 4 5 80.0 6 3 9 0 0 0 2 5 -
p39
aVDerrick Coleman NJN 04/23/1992 NJN @ CLE L 42 21 9 13 69.2 0 1 0.0 3 5 60.0 1 10 11 9 1 0 1 3 -
p40
a.