(lp0
VPLAYER TEAM DATE MATCHUP W/L MIN PTS FGM FGA FG% 3PM 3PA 3P% FTM FTA FT% OREB DREB REB AST STL BLK TOV PF +/-
p1
aVJoe Kleine BOS 05/17/1992 BOS @ CLE L 13 0 0 3 0.0 0 0 - 0 0 - 0 2 2 0 0 0 0 2 -
p2
aVEd Pinckney BOS 05/17/1992 BOS @ CLE L 27 12 5 9 55.6 0 0 - 2 3 66.7 6 3 9 0 0 0 0 2 -
p3
aVLarry Bird BOS 05/17/1992 BOS @ CLE L 33 12 6 9 66.7 0 0 - 0 0 - 1 4 5 4 0 0 2 1 -
p4
aVJohn Bagley BOS 05/17/1992 BOS @ CLE L 21 9 4 6 66.7 0 0 - 1 1 100.0 0 0 0 5 1 0 5 0 -
p5
aVRick Fox BOS 05/17/1992 BOS @ CLE L 6 8 3 3 100.0 2 2 100.0 0 0 - 0 0 0 0 0 0 0 0 -
p6
aVDee Brown BOS 05/17/1992 BOS @ CLE L 27 18 7 11 63.6 0 2 0.0 4 6 66.7 1 1 2 5 0 2 2 2 -
p7
aVKevin Gamble BOS 05/17/1992 BOS @ CLE L 22 6 2 11 18.2 0 0 - 2 2 100.0 2 0 2 3 1 0 0 1 -
p8
aVReggie Lewis BOS 05/17/1992 BOS @ CLE L 40 22 9 18 50.0 0 1 0.0 4 6 66.7 2 1 3 3 2 1 1 3 -
p9
aVKevin McHale BOS 05/17/1992 BOS @ CLE L 30 15 6 14 42.9 0 1 0.0 3 4 75.0 1 4 5 0 0 0 2 4 -
p10
aVRobert Parish BOS 05/17/1992 BOS @ CLE L 21 2 1 2 50.0 0 0 - 0 0 - 1 2 3 0 0 1 2 3 -
p11
aVJohn Bagley BOS 05/15/1992 BOS vs. CLE W 25 6 3 4 75.0 0 1 0.0 0 0 - 0 1 1 8 1 0 3 1 -
p12
aVLarry Bird BOS 05/15/1992 BOS vs. CLE W 37 16 8 18 44.4 0 3 0.0 0 1 0.0 0 6 6 14 1 1 1 3 -
p13
aVJoe Kleine BOS 05/15/1992 BOS vs. CLE W 9 4 2 4 50.0 0 1 0.0 0 0 - 0 2 2 0 0 0 0 0 -
p14
aVEd Pinckney BOS 05/15/1992 BOS vs. CLE W 19 12 5 6 83.3 0 0 - 2 3 66.7 3 3 6 0 2 1 0 2 -
p15
aVKevin Gamble BOS 05/15/1992 BOS vs. CLE W 37 14 6 8 75.0 0 0 - 2 2 100.0 2 1 3 6 2 1 2 1 -
p16
aVDee Brown BOS 05/15/1992 BOS vs. CLE W 23 6 3 7 42.9 0 0 - 0 0 - 2 6 8 9 1 0 1 1 -
p17
aVRobert Parish BOS 05/15/1992 BOS vs. CLE W 25 12 5 9 55.6 0 0 - 2 2 100.0 1 4 5 1 2 0 0 2 -
p18
aVKevin McHale BOS 05/15/1992 BOS vs. CLE W 23 22 9 12 75.0 0 0 - 4 6 66.7 1 5 6 0 0 0 0 4 -
p19
aVStojko Vrankovic BOS 05/15/1992 BOS vs. CLE W 3 2 1 1 100.0 0 0 - 0 0 - 0 0 0 1 0 0 0 0 -
p20
aVReggie Lewis BOS 05/15/1992 BOS vs. CLE W 35 26 9 17 52.9 0 0 - 8 8 100.0 3 3 6 1 2 3 1 3 -
p21
aVRick Fox BOS 05/15/1992 BOS vs. CLE W 4 2 1 2 50.0 0 1 0.0 0 0 - 0 1 1 1 0 0 1 0 -
p22
aVDee Brown BOS 05/13/1992 BOS @ CLE L 29 12 6 13 46.2 0 0 - 0 0 - 0 1 1 4 0 1 2 6 -
p23
aVReggie Lewis BOS 05/13/1992 BOS @ CLE L 43 27 12 21 57.1 0 1 0.0 3 4 75.0 2 2 4 4 3 1 1 2 -
p24
aVJoe Kleine BOS 05/13/1992 BOS @ CLE L 22 12 6 10 60.0 0 0 - 0 0 - 5 6 11 0 0 0 1 2 -
p25
aVJohn Bagley BOS 05/13/1992 BOS @ CLE L 19 8 4 6 66.7 0 1 0.0 0 0 - 0 0 0 5 0 0 2 1 -
p26
aVEd Pinckney BOS 05/13/1992 BOS @ CLE L 22 2 0 3 0.0 0 0 - 2 2 100.0 0 1 1 0 2 0 2 3 -
p27
aVKevin Gamble BOS 05/13/1992 BOS @ CLE L 31 18 7 12 58.3 0 1 0.0 4 4 100.0 1 4 5 4 0 1 1 4 -
p28
aVRobert Parish BOS 05/13/1992 BOS @ CLE L 23 4 1 5 20.0 0 0 - 2 2 100.0 2 6 8 0 0 0 0 3 -
p29
aVRick Fox BOS 05/13/1992 BOS @ CLE L 5 0 0 0 - 0 0 - 0 0 - 0 0 0 1 1 0 1 1 -
p30
aVKevin McHale BOS 05/13/1992 BOS @ CLE L 26 2 1 9 11.1 0 0 - 0 0 - 1 2 3 2 1 0 0 2 -
p31
aVLarry Bird BOS 05/13/1992 BOS @ CLE L 20 13 6 10 60.0 0 1 0.0 1 1 100.0 1 4 5 0 0 0 2 2 -
p32
aVRick Fox BOS 05/10/1992 BOS vs. CLE L 5 3 1 1 100.0 1 1 100.0 0 0 - 0 0 0 0 0 0 0 4 -
p33
aVEd Pinckney BOS 05/10/1992 BOS vs. CLE L 42 10 5 7 71.4 0 1 0.0 0 0 - 2 7 9 2 0 2 0 3 -
p34
aVReggie Lewis BOS 05/10/1992 BOS vs. CLE L 48 42 16 28 57.1 1 1 100.0 9 12 75.0 1 2 3 6 5 1 2 4 -
p35
aVKevin Gamble BOS 05/10/1992 BOS vs. CLE L 18 4 2 6 33.3 0 0 - 0 0 - 0 3 3 2 1 0 3 4 -
p36
aVKevin McHale BOS 05/10/1992 BOS vs. CLE L 35 23 8 15 53.3 0 0 - 7 9 77.8 4 1 5 1 1 0 1 4 -
p37
aVJohn Bagley BOS 05/10/1992 BOS vs. CLE L 37 8 3 10 30.0 0 0 - 2 2 100.0 1 2 3 7 1 0 3 4 -
p38
aVDee Brown BOS 05/10/1992 BOS vs. CLE L 16 2 1 4 25.0 0 0 - 0 0 - 0 0 0 5 0 0 2 1 -
p39
aVLarry Bird BOS 05/10/1992 BOS vs. CLE L 17 4 1 5 20.0 0 1 0.0 2 2 100.0 0 2 2 3 0 1 1 1 -
p40
aVRobert Parish BOS 05/10/1992 BOS vs. CLE L 47 16 7 16 43.8 0 0 - 2 3 66.7 4 14 18 1 0 3 1 2 -
p41
aVKevin Gamble BOS 05/08/1992 BOS vs. CLE W 32 10 5 9 55.6 0 0 - 0 0 - 1 0 1 1 0 1 0 3 -
p42
aVRobert Parish BOS 05/08/1992 BOS vs. CLE W 39 11 2 11 18.2 0 0 - 7 10 70.0 9 8 17 5 0 2 2 2 -
p43
aVEd Pinckney BOS 05/08/1992 BOS vs. CLE W 39 17 5 7 71.4 0 0 - 7 7 100.0 7 6 13 1 1 0 1 3 -
p44
aVReggie Lewis BOS 05/08/1992 BOS vs. CLE W 45 36 17 32 53.1 0 1 0.0 2 3 66.7 0 1 1 7 2 2 1 2 -
p45
aVSherman Douglas BOS 05/08/1992 BOS vs. CLE W 4 0 0 2 0.0 0 0 - 0 0 - 0 0 0 0 0 0 0 0 -
p46
aVJohn Bagley BOS 05/08/1992 BOS vs. CLE W 28 2 1 13 7.7 0 0 - 0 0 - 1 2 3 6 1 0 2 1 -
p47
aVKevin McHale BOS 05/08/1992 BOS vs. CLE W 30 22 10 15 66.7 0 0 - 2 3 66.7 3 6 9 0 0 1 1 3 -
p48
aVDee Brown BOS 05/08/1992 BOS vs. CLE W 19 10 5 6 83.3 0 1 0.0 0 0 - 0 1 1 6 0 0 0 6 -
p49
aVJoe Kleine BOS 05/08/1992 BOS vs. CLE W 4 2 1 2 50.0 0 0 - 0 0 - 0 0 0 0 0 0 0 0 -
p50
aVJohn Bagley BOS 05/04/1992 BOS @ CLE W 35 11 4 9 44.4 0 0 - 3 6 50.0 0 3 3 11 1 0 2 1 -
p51
aVKevin Gamble BOS 05/04/1992 BOS @ CLE W 32 6 3 7 42.9 0 0 - 0 1 0.0 1 3 4 1 2 2 2 1 -
p52
aVSherman Douglas BOS 05/04/1992 BOS @ CLE W 13 4 2 5 40.0 0 1 0.0 0 0 - 0 0 0 2 0 0 0 2 -
p53
aVKevin McHale BOS 05/04/1992 BOS @ CLE W 30 18 8 15 53.3 0 0 - 2 3 66.7 2 3 5 3 1 1 0 1 -
p54
aVReggie Lewis BOS 05/04/1992 BOS @ CLE W 39 26 11 17 64.7 0 0 - 4 6 66.7 1 6 7 5 1 0 3 4 -
p55
aVEd Pinckney BOS 05/04/1992 BOS @ CLE W 43 12 5 7 71.4 0 0 - 2 2 100.0 1 5 6 2 4 2 3 3 -
p56
aVRobert Parish BOS 05/04/1992 BOS @ CLE W 42 27 13 18 72.2 0 0 - 1 2 50.0 2 6 8 0 2 2 0 5 -
p57
aVJoe Kleine BOS 05/04/1992 BOS @ CLE W 6 0 0 0 - 0 0 - 0 0 - 0 0 0 0 0 0 0 0 -
p58
aVJoe Kleine BOS 05/02/1992 BOS @ CLE L 11 0 0 0 - 0 0 - 0 0 - 0 1 1 1 0 1 0 4 -
p59
aVSherman Douglas BOS 05/02/1992 BOS @ CLE L 10 2 1 3 33.3 0 0 - 0 0 - 0 1 1 0 0 0 1 0 -
p60
aVEd Pinckney BOS 05/02/1992 BOS @ CLE L 28 6 3 5 60.0 0 0 - 0 0 - 3 7 10 1 1 1 3 3 -
p61
aVReggie Lewis BOS 05/02/1992 BOS @ CLE L 38 18 8 17 47.1 0 0 - 2 2 100.0 0 6 6 4 2 0 2 4 -
p62
aVKevin McHale BOS 05/02/1992 BOS @ CLE L 36 12 6 12 50.0 0 0 - 0 0 - 2 5 7 0 0 1 1 1 -
p63
aVRobert Parish BOS 05/02/1992 BOS @ CLE L 23 4 2 7 28.6 0 0 - 0 0 - 2 1 3 0 0 2 0 3 -
p64
aVDee Brown BOS 05/02/1992 BOS @ CLE L 6 0 0 3 0.0 0 0 - 0 0 - 0 0 0 2 0 1 0 0 -
p65
aVRick Fox BOS 05/02/1992 BOS @ CLE L 15 6 3 9 33.3 0 2 0.0 0 0 - 1 0 1 0 1 0 0 1 -
p66
aVKevin Gamble BOS 05/02/1992 BOS @ CLE L 41 22 10 20 50.0 0 0 - 2 3 66.7 2 4 6 0 0 1 0 3 -
p67
aVJohn Bagley BOS 05/02/1992 BOS @ CLE L 32 6 3 7 42.9 0 0 - 0 0 - 1 1 2 8 1 0 5 1 -
p68
aVJoe Kleine BOS 04/27/1992 BOS @ IND W 7 2 0 0 - 0 0 - 2 2 100.0 0 3 3 0 0 0 0 3 -
p69
aVReggie Lewis BOS 04/27/1992 BOS @ IND W 37 32 12 21 57.1 1 2 50.0 7 10 70.0 0 3 3 1 3 0 2 6 -
p70
aVRobert Parish BOS 04/27/1992 BOS @ IND W 38 2 0 5 0.0 0 0 - 2 4 50.0 5 2 7 1 1 4 1 0 -
p71
aVEd Pinckney BOS 04/27/1992 BOS @ IND W 31 13 4 7 57.1 0 0 - 5 8 62.5 6 8 14 0 1 1 2 4 -
p72
aVSherman Douglas BOS 04/27/1992 BOS @ IND W 12 5 2 3 66.7 0 0 - 1 2 50.0 0 0 0 6 0 0 1 3 -
p73
aVKevin McHale BOS 04/27/1992 BOS @ IND W 32 15 6 13 46.2 0 0 - 3 4 75.0 3 6 9 3 1 0 1 5 -
p74
aVRick Fox BOS 04/27/1992 BOS @ IND W 6 2 1 1 100.0 0 0 - 0 0 - 0 0 0 0 0 0 0 0 -
p75
aVJohn Bagley BOS 04/27/1992 BOS @ IND W 36 14 5 11 45.5 0 1 0.0 4 12 33.3 2 5 7 11 1 1 5 4 -
p76
aVKevin Gamble BOS 04/27/1992 BOS @ IND W 41 17 8 18 44.4 0 0 - 1 1 100.0 0 5 5 2 3 0 1 3 -
p77
aVKevin McHale BOS 04/25/1992 BOS vs. IND W 35 15 6 12 50.0 0 0 - 3 4 75.0 2 9 11 2 0 1 1 5 -
p78
aVRobert Parish BOS 04/25/1992 BOS vs. IND W 42 23 11 16 68.8 0 0 - 1 1 100.0 7 7 14 2 1 1 0 1 -
p79
aVJoe Kleine BOS 04/25/1992 BOS vs. IND W 5 0 0 2 0.0 0 0 - 0 0 - 1 2 3 0 0 0 2 0 -
p80
aVKevin Gamble BOS 04/25/1992 BOS vs. IND W 45 19 9 21 42.9 0 0 - 1 2 50.0 2 3 5 1 3 0 1 2 -
p81
aVReggie Lewis BOS 04/25/1992 BOS vs. IND W 40 15 7 23 30.4 0 0 - 1 3 33.3 1 5 6 4 0 0 1 6 -
p82
aVJohn Bagley BOS 04/25/1992 BOS vs. IND W 43 35 11 21 52.4 1 1 100.0 12 12 100.0 2 2 4 15 2 0 3 3 -
p83
aVEd Pinckney BOS 04/25/1992 BOS vs. IND W 30 4 0 3 0.0 0 0 - 4 4 100.0 5 4 9 1 0 1 2 5 -
p84
aVSherman Douglas BOS 04/25/1992 BOS vs. IND W 10 4 2 6 33.3 0 1 0.0 0 0 - 0 1 1 0 0 0 1 2 -
p85
aVRick Fox BOS 04/25/1992 BOS vs. IND W 15 4 1 3 33.3 0 0 - 2 2 100.0 1 1 2 2 0 2 0 3 -
p86
aVJohn Bagley BOS 04/23/1992 BOS vs. IND W 32 12 4 8 50.0 0 0 - 4 4 100.0 1 3 4 9 0 0 5 1 -
p87
aVJoe Kleine BOS 04/23/1992 BOS vs. IND W 5 0 0 1 0.0 0 0 - 0 0 - 0 0 0 0 0 0 0 0 -
p88
aVSherman Douglas BOS 04/23/1992 BOS vs. IND W 16 4 2 6 33.3 0 0 - 0 0 - 1 1 2 2 0 0 1 1 -
p89
aVEd Pinckney BOS 04/23/1992 BOS vs. IND W 33 8 3 4 75.0 0 0 - 2 2 100.0 3 4 7 0 1 1 0 2 -
p90
aVKevin Gamble BOS 04/23/1992 BOS vs. IND W 36 20 10 19 52.6 0 1 0.0 0 0 - 2 6 8 3 0 0 0 4 -
p91
aVRick Fox BOS 04/23/1992 BOS vs. IND W 11 4 1 4 25.0 0 0 - 2 2 100.0 1 1 2 0 0 0 0 2 -
p92
aVKevin McHale BOS 04/23/1992 BOS vs. IND W 29 21 5 9 55.6 0 0 - 11 11 100.0 2 5 7 2 1 1 2 5 -
p93
aVRobert Parish BOS 04/23/1992 BOS vs. IND W 35 19 8 12 66.7 0 0 - 3 4 75.0 5 9 14 4 1 0 3 1 -
p94
aVReggie Lewis BOS 04/23/1992 BOS vs. IND W 43 36 14 24 58.3 0 0 - 8 9 88.9 1 3 4 4 4 0 2 4 -
p95
a.