(lp0
VPLAYER TEAM DATE MATCHUP W/L MIN PTS FGM FGA FG% 3PM 3PA 3P% FTM FTA FT% OREB DREB REB AST STL BLK TOV PF +/-
p1
aVCharles Oakley NYK 05/17/1992 NYK @ CHI L 30 4 0 3 0.0 0 0 - 4 4 100.0 5 5 10 0 0 0 2 2 -
p2
aVAnthony Mason NYK 05/17/1992 NYK @ CHI L 19 4 0 1 0.0 0 0 - 4 4 100.0 1 1 2 0 1 1 1 1 -
p3
aVGerald Wilkins NYK 05/17/1992 NYK @ CHI L 29 7 3 12 25.0 1 5 20.0 0 2 0.0 0 2 2 1 1 0 0 5 -
p4
aVJohn Starks NYK 05/17/1992 NYK @ CHI L 30 18 6 13 46.2 2 5 40.0 4 6 66.7 2 1 3 5 4 0 3 6 -
p5
aVKennard Winchester NYK 05/17/1992 NYK @ CHI L 2 2 1 1 100.0 0 0 - 0 0 - 0 0 0 0 0 0 0 0 -
p6
aVXavier McDaniel NYK 05/17/1992 NYK @ CHI L 42 14 6 15 40.0 0 0 - 2 2 100.0 5 2 7 0 0 1 4 3 -
p7
aVGreg Anthony NYK 05/17/1992 NYK @ CHI L 12 0 0 1 0.0 0 0 - 0 0 - 0 0 0 3 1 0 2 2 -
p8
aVMark Jackson NYK 05/17/1992 NYK @ CHI L 36 10 4 9 44.4 0 2 0.0 2 2 100.0 1 2 3 11 2 0 2 4 -
p9
aVPatrick Ewing NYK 05/17/1992 NYK @ CHI L 40 22 8 19 42.1 0 0 - 6 8 75.0 2 7 9 1 0 0 3 5 -
p10
aVGreg Anthony NYK 05/14/1992 NYK vs. CHI W 21 6 1 1 100.0 0 0 - 4 4 100.0 0 1 1 8 2 0 0 4 -
p11
aVCharles Oakley NYK 05/14/1992 NYK vs. CHI W 28 4 1 6 16.7 0 0 - 2 2 100.0 3 3 6 1 2 1 1 2 -
p12
aVXavier McDaniel NYK 05/14/1992 NYK vs. CHI W 46 24 9 18 50.0 0 0 - 6 8 75.0 3 8 11 2 1 0 1 3 -
p13
aVPatrick Ewing NYK 05/14/1992 NYK vs. CHI W 42 27 13 22 59.1 0 0 - 1 3 33.3 0 8 8 1 0 3 2 2 -
p14
aVJohn Starks NYK 05/14/1992 NYK vs. CHI W 27 27 9 14 64.3 1 2 50.0 8 9 88.9 1 2 3 4 5 0 1 2 -
p15
aVGerald Wilkins NYK 05/14/1992 NYK vs. CHI W 26 6 3 7 42.9 0 0 - 0 0 - 1 1 2 1 0 0 1 2 -
p16
aVAnthony Mason NYK 05/14/1992 NYK vs. CHI W 23 2 1 1 100.0 0 0 - 0 0 - 0 6 6 1 0 0 0 2 -
p17
aVMark Jackson NYK 05/14/1992 NYK vs. CHI W 27 4 2 6 33.3 0 1 0.0 0 0 - 0 2 2 15 0 0 1 2 -
p18
aVMark Jackson NYK 05/12/1992 NYK @ CHI L 30 6 3 6 50.0 0 0 - 0 0 - 1 0 1 12 0 0 2 4 -
p19
aVPatrick Ewing NYK 05/12/1992 NYK @ CHI L 38 14 5 14 35.7 0 0 - 4 6 66.7 1 6 7 1 0 2 3 6 -
p20
aVXavier McDaniel NYK 05/12/1992 NYK @ CHI L 42 26 12 23 52.2 1 2 50.0 1 2 50.0 0 2 2 4 2 0 2 1 -
p21
aVJohn Starks NYK 05/12/1992 NYK @ CHI L 25 8 2 7 28.6 1 3 33.3 3 4 75.0 2 2 4 3 0 0 2 4 -
p22
aVCharles Oakley NYK 05/12/1992 NYK @ CHI L 28 4 1 2 50.0 0 0 - 2 2 100.0 1 6 7 0 1 0 3 3 -
p23
aVGerald Wilkins NYK 05/12/1992 NYK @ CHI L 33 19 8 12 66.7 0 1 0.0 3 4 75.0 0 0 0 3 1 0 0 4 -
p24
aVGreg Anthony NYK 05/12/1992 NYK @ CHI L 18 7 2 2 100.0 0 0 - 3 4 75.0 0 2 2 3 0 0 0 2 -
p25
aVAnthony Mason NYK 05/12/1992 NYK @ CHI L 26 4 2 3 66.7 0 0 - 0 0 - 2 4 6 0 0 0 2 4 -
p26
aVPatrick Ewing NYK 05/10/1992 NYK vs. CHI W 34 15 5 16 31.3 0 0 - 5 8 62.5 1 10 11 2 1 1 3 5 -
p27
aVMark Jackson NYK 05/10/1992 NYK vs. CHI W 24 3 1 6 16.7 0 1 0.0 1 1 100.0 0 2 2 4 0 0 2 3 -
p28
aVAnthony Mason NYK 05/10/1992 NYK vs. CHI W 27 7 2 6 33.3 0 0 - 3 4 75.0 5 5 10 0 0 0 1 3 -
p29
aVXavier McDaniel NYK 05/10/1992 NYK vs. CHI W 38 24 9 16 56.3 0 1 0.0 6 7 85.7 3 4 7 3 1 0 3 3 -
p30
aVGreg Anthony NYK 05/10/1992 NYK vs. CHI W 24 3 1 4 25.0 0 2 0.0 1 4 25.0 0 1 1 3 1 0 0 2 -
p31
aVJohn Starks NYK 05/10/1992 NYK vs. CHI W 25 16 6 11 54.5 1 4 25.0 3 3 100.0 0 2 2 5 0 0 1 1 -
p32
aVCharles Oakley NYK 05/10/1992 NYK vs. CHI W 30 8 2 6 33.3 0 0 - 4 5 80.0 7 5 12 2 0 0 0 4 -
p33
aVGerald Wilkins NYK 05/10/1992 NYK vs. CHI W 38 17 7 12 58.3 0 1 0.0 3 3 100.0 4 3 7 1 0 1 2 2 -
p34
aVPatrick Ewing NYK 05/09/1992 NYK vs. CHI L 44 27 12 22 54.5 0 1 0.0 3 7 42.9 2 9 11 4 0 2 0 5 -
p35
aVAnthony Mason NYK 05/09/1992 NYK vs. CHI L 17 0 0 2 0.0 0 0 - 0 0 - 2 4 6 0 0 0 0 5 -
p36
aVGreg Anthony NYK 05/09/1992 NYK vs. CHI L 18 5 1 4 25.0 1 2 50.0 2 4 50.0 0 0 0 6 2 0 1 0 -
p37
aVGerald Wilkins NYK 05/09/1992 NYK vs. CHI L 41 13 6 16 37.5 0 2 0.0 1 2 50.0 3 2 5 4 0 0 2 4 -
p38
aVJohn Starks NYK 05/09/1992 NYK vs. CHI L 15 9 2 7 28.6 1 2 50.0 4 5 80.0 2 2 4 2 0 0 1 3 -
p39
aVXavier McDaniel NYK 05/09/1992 NYK vs. CHI L 37 11 5 10 50.0 1 2 50.0 0 2 0.0 2 1 3 2 0 0 2 4 -
p40
aVKiki Vandeweghe NYK 05/09/1992 NYK vs. CHI L 4 0 0 1 0.0 0 0 - 0 0 - 0 0 0 0 0 0 0 0 -
p41
aVMark Jackson NYK 05/09/1992 NYK vs. CHI L 30 8 4 9 44.4 0 2 0.0 0 0 - 2 1 3 8 0 0 6 0 -
p42
aVCharles Oakley NYK 05/09/1992 NYK vs. CHI L 34 13 6 9 66.7 0 0 - 1 2 50.0 6 3 9 0 1 0 0 4 -
p43
aVGerald Wilkins NYK 05/07/1992 NYK @ CHI L 29 8 3 9 33.3 0 1 0.0 2 2 100.0 1 2 3 4 0 0 2 5 -
p44
aVGreg Anthony NYK 05/07/1992 NYK @ CHI L 26 2 1 8 12.5 0 3 0.0 0 0 - 1 2 3 4 3 0 4 3 -
p45
aVAnthony Mason NYK 05/07/1992 NYK @ CHI L 35 13 4 6 66.7 0 0 - 5 8 62.5 4 6 10 2 0 1 2 5 -
p46
aVCharles Oakley NYK 05/07/1992 NYK @ CHI L 15 3 1 2 50.0 0 0 - 1 2 50.0 2 2 4 1 0 1 2 2 -
p47
aVKennard Winchester NYK 05/07/1992 NYK @ CHI L 3 0 0 1 0.0 0 0 - 0 0 - 0 0 0 0 0 0 0 0 -
p48
aVXavier McDaniel NYK 05/07/1992 NYK @ CHI L 27 15 7 14 50.0 0 0 - 1 2 50.0 3 1 4 1 2 0 2 1 -
p49
aVKiki Vandeweghe NYK 05/07/1992 NYK @ CHI L 11 5 1 3 33.3 1 2 50.0 2 2 100.0 0 1 1 1 0 0 0 3 -
p50
aVPatrick Ewing NYK 05/07/1992 NYK @ CHI L 46 16 6 11 54.5 0 0 - 4 4 100.0 2 14 16 3 0 2 3 4 -
p51
aVJohn Starks NYK 05/07/1992 NYK @ CHI L 26 6 2 8 25.0 0 5 0.0 2 2 100.0 0 2 2 3 1 0 5 5 -
p52
aVMark Jackson NYK 05/07/1992 NYK @ CHI L 22 10 3 4 75.0 0 0 - 4 4 100.0 0 0 0 1 0 0 3 3 -
p53
aVKiki Vandeweghe NYK 05/05/1992 NYK @ CHI W 4 2 1 2 50.0 0 0 - 0 0 - 0 0 0 0 1 0 0 1 -
p54
aVAnthony Mason NYK 05/05/1992 NYK @ CHI W 32 4 1 4 25.0 0 0 - 2 2 100.0 1 3 4 4 0 1 0 2 -
p55
aVPatrick Ewing NYK 05/05/1992 NYK @ CHI W 44 34 14 25 56.0 0 0 - 6 7 85.7 5 11 16 5 1 6 0 4 -
p56
aVMark Jackson NYK 05/05/1992 NYK @ CHI W 24 6 1 2 50.0 0 1 0.0 4 6 66.7 0 0 0 4 2 0 2 0 -
p57
aVXavier McDaniel NYK 05/05/1992 NYK @ CHI W 42 16 8 17 47.1 0 0 - 0 2 0.0 4 3 7 3 0 1 1 3 -
p58
aVJames Donaldson NYK 05/05/1992 NYK @ CHI W 2 0 0 0 - 0 0 - 0 0 - 0 1 1 0 0 1 1 2 -
p59
aVCharles Oakley NYK 05/05/1992 NYK @ CHI W 16 4 2 3 66.7 0 0 - 0 0 - 1 1 2 1 0 0 1 3 -
p60
aVJohn Starks NYK 05/05/1992 NYK @ CHI W 24 12 3 10 30.0 0 4 0.0 6 6 100.0 0 4 4 1 0 0 1 5 -
p61
aVGreg Anthony NYK 05/05/1992 NYK @ CHI W 24 10 4 9 44.4 2 2 100.0 0 0 - 0 3 3 2 1 0 1 1 -
p62
aVGerald Wilkins NYK 05/05/1992 NYK @ CHI W 28 6 3 9 33.3 0 1 0.0 0 0 - 0 1 1 0 0 0 0 3 -
p63
aVJohn Starks NYK 05/03/1992 NYK vs. DET W 22 10 3 13 23.1 2 6 33.3 2 4 50.0 0 1 1 1 0 0 0 4 -
p64
aVMark Jackson NYK 05/03/1992 NYK vs. DET W 33 7 3 8 37.5 0 1 0.0 1 2 50.0 0 3 3 5 0 0 2 3 -
p65
aVXavier McDaniel NYK 05/03/1992 NYK vs. DET W 41 19 9 17 52.9 0 2 0.0 1 1 100.0 6 3 9 3 1 0 3 2 -
p66
aVAnthony Mason NYK 05/03/1992 NYK vs. DET W 29 5 1 3 33.3 0 0 - 3 3 100.0 4 7 11 1 0 0 2 4 -
p67
aVKiki Vandeweghe NYK 05/03/1992 NYK vs. DET W 7 0 0 0 - 0 0 - 0 0 - 0 0 0 0 0 0 0 1 -
p68
aVGreg Anthony NYK 05/03/1992 NYK vs. DET W 15 9 3 6 50.0 0 0 - 3 7 42.9 2 0 2 2 4 1 2 5 -
p69
aVPatrick Ewing NYK 05/03/1992 NYK vs. DET W 46 31 11 28 39.3 0 0 - 9 11 81.8 7 12 19 3 1 3 1 4 -
p70
aVCharles Oakley NYK 05/03/1992 NYK vs. DET W 21 0 0 5 0.0 0 0 - 0 0 - 3 3 6 0 1 0 0 2 -
p71
aVGerald Wilkins NYK 05/03/1992 NYK vs. DET W 26 13 5 7 71.4 0 0 - 3 5 60.0 1 1 2 3 0 0 3 3 -
p72
aVXavier McDaniel NYK 05/01/1992 NYK @ DET L 30 18 5 15 33.3 0 1 0.0 8 10 80.0 2 3 5 2 0 0 2 2 -
p73
aVPatrick Ewing NYK 05/01/1992 NYK @ DET L 35 18 8 14 57.1 0 0 - 2 2 100.0 2 3 5 1 1 4 3 4 -
p74
aVKiki Vandeweghe NYK 05/01/1992 NYK @ DET L 18 12 4 6 66.7 2 2 100.0 2 2 100.0 0 0 0 0 0 0 0 4 -
p75
aVJohn Starks NYK 05/01/1992 NYK @ DET L 31 8 2 10 20.0 0 4 0.0 4 6 66.7 0 3 3 4 0 0 3 5 -
p76
aVCharles Oakley NYK 05/01/1992 NYK @ DET L 41 5 2 5 40.0 0 0 - 1 4 25.0 5 11 16 0 2 2 5 4 -
p77
aVGerald Wilkins NYK 05/01/1992 NYK @ DET L 18 2 1 6 16.7 0 1 0.0 0 0 - 0 0 0 4 1 0 1 3 -
p78
aVGreg Anthony NYK 05/01/1992 NYK @ DET L 26 14 4 7 57.1 2 3 66.7 4 6 66.7 1 4 5 6 0 0 0 2 -
p79
aVMark Jackson NYK 05/01/1992 NYK @ DET L 22 2 1 6 16.7 0 3 0.0 0 0 - 1 2 3 3 1 0 1 0 -
p80
aVAnthony Mason NYK 05/01/1992 NYK @ DET L 19 3 0 1 0.0 0 0 - 3 4 75.0 1 3 4 0 0 0 0 3 -
p81
aVGerald Wilkins NYK 04/28/1992 NYK @ DET W 29 5 1 9 11.1 0 1 0.0 3 4 75.0 1 1 2 4 0 0 1 2 -
p82
aVJohn Starks NYK 04/28/1992 NYK @ DET W 27 6 2 8 25.0 2 5 40.0 0 0 - 0 1 1 3 1 0 1 3 -
p83
aVPatrick Ewing NYK 04/28/1992 NYK @ DET W 47 32 12 27 44.4 0 0 - 8 10 80.0 5 8 13 1 2 2 2 4 -
p84
aVMark Jackson NYK 04/28/1992 NYK @ DET W 46 10 3 9 33.3 0 3 0.0 4 5 80.0 1 0 1 7 2 0 4 2 -
p85
aVCharles Oakley NYK 04/28/1992 NYK @ DET W 38 0 0 3 0.0 0 0 - 0 0 - 2 8 10 0 0 0 1 3 -
p86
aVGreg Anthony NYK 04/28/1992 NYK @ DET W 7 0 0 1 0.0 0 0 - 0 0 - 0 0 0 2 0 0 1 3 -
p87
aVAnthony Mason NYK 04/28/1992 NYK @ DET W 19 11 5 8 62.5 0 0 - 1 1 100.0 4 5 9 0 1 2 1 1 -
p88
aVXavier McDaniel NYK 04/28/1992 NYK @ DET W 43 21 9 20 45.0 0 0 - 3 4 75.0 6 7 13 2 1 0 3 6 -
p89
aVKiki Vandeweghe NYK 04/28/1992 NYK @ DET W 9 5 2 2 100.0 0 0 - 1 1 100.0 0 0 0 0 0 1 1 0 -
p90
aVXavier McDaniel NYK 04/26/1992 NYK vs. DET L 40 24 11 22 50.0 0 0 - 2 2 100.0 4 6 10 1 0 0 1 4 -
p91
aVPatrick Ewing NYK 04/26/1992 NYK vs. DET L 33 12 5 20 25.0 0 0 - 2 2 100.0 2 4 6 3 0 4 0 4 -
p92
aVGerald Wilkins NYK 04/26/1992 NYK vs. DET L 26 4 2 5 40.0 0 0 - 0 0 - 0 1 1 5 1 0 1 0 -
p93
aVGreg Anthony NYK 04/26/1992 NYK vs. DET L 5 3 1 1 100.0 0 0 - 1 2 50.0 0 0 0 0 0 0 0 0 -
p94
aVMark Jackson NYK 04/26/1992 NYK vs. DET L 43 16 6 16 37.5 2 5 40.0 2 3 66.7 4 0 4 10 0 0 1 3 -
p95
aVAnthony Mason NYK 04/26/1992 NYK vs. DET L 24 3 1 4 25.0 0 0 - 1 2 50.0 2 3 5 0 0 1 0 2 -
p96
aVCharles Oakley NYK 04/26/1992 NYK vs. DET L 42 13 4 8 50.0 0 0 - 5 6 83.3 7 11 18 1 0 1 0 4 -
p97
aVKiki Vandeweghe NYK 04/26/1992 NYK vs. DET L 5 2 1 3 33.3 0 0 - 0 0 - 1 1 2 1 0 0 0 0 -
p98
aVJohn Starks NYK 04/26/1992 NYK vs. DET L 22 11 4 12 33.3 0 2 0.0 3 3 100.0 0 3 3 2 1 0 2 4 -
p99
aVMark Jackson NYK 04/24/1992 NYK vs. DET W 31 18 6 11 54.5 2 2 100.0 4 4 100.0 2 3 5 6 3 0 4 2 -
p100
aVAnthony Mason NYK 04/24/1992 NYK vs. DET W 18 4 2 4 50.0 0 0 - 0 0 - 2 1 3 2 0 2 2 2 -
p101
aVCharles Oakley NYK 04/24/1992 NYK vs. DET W 31 6 3 6 50.0 0 0 - 0 0 - 2 6 8 2 1 0 0 3 -
p102
aVGreg Anthony NYK 04/24/1992 NYK vs. DET W 17 4 1 2 50.0 0 0 - 2 2 100.0 0 0 0 2 2 0 2 4 -
p103
aVJohn Starks NYK 04/24/1992 NYK vs. DET W 21 14 5 10 50.0 1 4 25.0 3 4 75.0 0 0 0 5 5 0 2 3 -
p104
aVGerald Wilkins NYK 04/24/1992 NYK vs. DET W 21 7 3 5 60.0 0 0 - 1 1 100.0 1 4 5 4 1 0 2 2 -
p105
aVTim McCormick NYK 04/24/1992 NYK vs. DET W 6 0 0 2 0.0 0 0 - 0 0 - 0 3 3 0 0 0 0 1 -
p106
aVKiki Vandeweghe NYK 04/24/1992 NYK vs. DET W 17 10 4 7 57.1 1 1 100.0 1 2 50.0 2 1 3 2 1 0 0 1 -
p107
aVKennard Winchester NYK 04/24/1992 NYK vs. DET W 6 4 2 3 66.7 0 0 - 0 1 0.0 0 0 0 2 0 0 1 0 -
p108
aVPatrick Ewing NYK 04/24/1992 NYK vs. DET W 33 24 10 21 47.6 0 0 - 4 5 80.0 4 8 12 2 1 2 3 2 -
p109
aVJames Donaldson NYK 04/24/1992 NYK vs. DET W 9 4 2 2 100.0 0 0 - 0 0 - 0 3 3 0 0 0 1 0 -
p110
aVXavier McDaniel NYK 04/24/1992 NYK vs. DET W 30 14 4 10 40.0 0 0 - 6 7 85.7 5 3 8 0 1 0 3 2 -
p111
a.