(lp0
VPLAYER TEAM DATE MATCHUP W/L MIN PTS FGM FGA FG% 3PM 3PA 3P% FTM FTA FT% OREB DREB REB AST STL BLK TOV PF +/-
p1
aVTyrone Hill GOS 04/30/1992 GOS @ SEA L 6 0 0 2 0.0 0 0 - 0 0 - 0 0 0 0 1 0 0 1 -
p2
aVVincent Askew GOS 04/30/1992 GOS @ SEA L 5 0 0 0 - 0 0 - 0 0 - 1 1 2 1 0 0 0 1 -
p3
aVChris Mullin GOS 04/30/1992 GOS @ SEA L 35 11 4 12 33.3 1 1 100.0 2 2 100.0 0 0 0 1 0 0 0 2 -
p4
aVBilly Owens GOS 04/30/1992 GOS @ SEA L 39 21 9 15 60.0 0 0 - 3 5 60.0 2 1 3 1 2 1 0 5 -
p5
aVSarunas Marciulionis GOS 04/30/1992 GOS @ SEA L 31 17 6 11 54.5 1 1 100.0 4 6 66.7 1 2 3 5 0 0 2 3 -
p6
aVAlton Lister GOS 04/30/1992 GOS @ SEA L 19 4 1 5 20.0 0 0 - 2 2 100.0 2 5 7 0 0 3 1 3 -
p7
aVChris Gatling GOS 04/30/1992 GOS @ SEA L 21 14 4 9 44.4 0 0 - 6 9 66.7 5 7 12 0 0 2 0 5 -
p8
aVTim Hardaway GOS 04/30/1992 GOS @ SEA L 48 27 8 29 27.6 3 13 23.1 8 15 53.3 2 3 5 11 8 0 1 3 -
p9
aVVictor Alexander GOS 04/30/1992 GOS @ SEA L 3 0 0 0 - 0 0 - 0 0 - 0 0 0 0 0 0 0 0 -
p10
aVMario Elie GOS 04/30/1992 GOS @ SEA L 33 22 11 15 73.3 0 0 - 0 0 - 4 5 9 5 3 0 4 3 -
p11
aVVictor Alexander GOS 04/28/1992 GOS @ SEA L 7 0 0 0 - 0 0 - 0 0 - 0 0 0 0 2 0 1 2 -
p12
aVVincent Askew GOS 04/28/1992 GOS @ SEA L 2 0 0 0 - 0 0 - 0 0 - 0 0 0 0 0 0 0 0 -
p13
aVAlton Lister GOS 04/28/1992 GOS @ SEA L 7 7 3 4 75.0 0 0 - 1 2 50.0 1 1 2 1 0 0 1 0 -
p14
aVBilly Owens GOS 04/28/1992 GOS @ SEA L 40 15 5 11 45.5 0 0 - 5 9 55.6 3 4 7 6 3 0 3 4 -
p15
aVTim Hardaway GOS 04/28/1992 GOS @ SEA L 46 26 9 19 47.4 4 7 57.1 4 5 80.0 1 1 2 8 2 0 8 4 -
p16
aVMario Elie GOS 04/28/1992 GOS @ SEA L 22 9 4 8 50.0 1 1 100.0 0 0 - 3 2 5 1 1 0 0 6 -
p17
aVChris Mullin GOS 04/28/1992 GOS @ SEA L 46 24 9 18 50.0 2 5 40.0 4 4 100.0 0 2 2 4 2 0 1 1 -
p18
aVSarunas Marciulionis GOS 04/28/1992 GOS @ SEA L 37 27 6 12 50.0 0 0 - 15 15 100.0 1 2 3 8 0 1 1 4 -
p19
aVChris Gatling GOS 04/28/1992 GOS @ SEA L 17 16 7 7 100.0 0 0 - 2 5 40.0 0 0 0 0 2 3 1 2 -
p20
aVTyrone Hill GOS 04/28/1992 GOS @ SEA L 16 4 2 2 100.0 0 0 - 0 0 - 1 0 1 0 0 0 2 4 -
p21
aVMario Elie GOS 04/25/1992 GOS vs. SEA W 20 17 7 10 70.0 1 1 100.0 2 3 66.7 3 4 7 2 0 0 2 1 -
p22
aVChris Gatling GOS 04/25/1992 GOS vs. SEA W 20 8 2 6 33.3 0 0 - 4 6 66.7 2 4 6 0 0 2 0 3 -
p23
aVVictor Alexander GOS 04/25/1992 GOS vs. SEA W 11 4 2 4 50.0 0 0 - 0 0 - 0 4 4 0 0 0 1 5 -
p24
aVSarunas Marciulionis GOS 04/25/1992 GOS vs. SEA W 26 18 6 10 60.0 0 0 - 6 8 75.0 0 1 1 3 1 0 0 3 -
p25
aVChris Mullin GOS 04/25/1992 GOS vs. SEA W 45 20 7 16 43.8 0 1 0.0 6 7 85.7 2 5 7 6 2 2 2 1 -
p26
aVAlton Lister GOS 04/25/1992 GOS vs. SEA W 14 5 2 5 40.0 0 0 - 1 1 100.0 0 2 2 0 0 1 0 3 -
p27
aVVincent Askew GOS 04/25/1992 GOS vs. SEA W 12 0 0 3 0.0 0 0 - 0 0 - 1 0 1 2 0 0 2 1 -
p28
aVBilly Owens GOS 04/25/1992 GOS vs. SEA W 33 16 6 13 46.2 0 0 - 4 8 50.0 5 7 12 3 1 0 1 2 -
p29
aVTyrone Hill GOS 04/25/1992 GOS vs. SEA W 10 2 1 2 50.0 0 0 - 0 2 0.0 1 2 3 1 1 0 1 5 -
p30
aVRod Higgins GOS 04/25/1992 GOS vs. SEA W 7 2 1 3 33.3 0 1 0.0 0 0 - 0 0 0 0 0 0 0 1 -
p31
aVTim Hardaway GOS 04/25/1992 GOS vs. SEA W 42 23 8 16 50.0 2 6 33.3 5 7 71.4 2 3 5 4 2 0 2 3 -
p32
aVChris Gatling GOS 04/23/1992 GOS vs. SEA L 23 12 5 7 71.4 0 0 - 2 2 100.0 2 5 7 0 0 3 0 4 -
p33
aVChris Mullin GOS 04/23/1992 GOS vs. SEA L 42 16 7 17 41.2 1 5 20.0 1 1 100.0 1 2 3 1 1 0 5 4 -
p34
aVAlton Lister GOS 04/23/1992 GOS vs. SEA L 7 0 0 1 0.0 0 0 - 0 0 - 0 0 0 0 0 0 1 3 -
p35
aVRod Higgins GOS 04/23/1992 GOS vs. SEA L 10 4 1 2 50.0 0 1 0.0 2 2 100.0 0 0 0 1 1 0 0 0 -
p36
aVVincent Askew GOS 04/23/1992 GOS vs. SEA L 11 2 1 5 20.0 0 0 - 0 0 - 1 0 1 2 0 0 0 1 -
p37
aVSarunas Marciulionis GOS 04/23/1992 GOS vs. SEA L 39 23 7 14 50.0 0 1 0.0 9 12 75.0 1 1 2 4 2 0 1 5 -
p38
aVTim Hardaway GOS 04/23/1992 GOS vs. SEA L 40 22 7 16 43.8 1 3 33.3 7 10 70.0 1 2 3 6 1 0 3 4 -
p39
aVTyrone Hill GOS 04/23/1992 GOS vs. SEA L 15 0 0 1 0.0 0 0 - 0 0 - 1 3 4 0 0 0 0 2 -
p40
aVMario Elie GOS 04/23/1992 GOS vs. SEA L 5 2 1 3 33.3 0 0 - 0 0 - 1 0 1 2 1 0 0 1 -
p41
aVBilly Owens GOS 04/23/1992 GOS vs. SEA L 45 25 10 18 55.6 0 0 - 5 5 100.0 3 8 11 3 2 1 2 3 -
p42
aVVictor Alexander GOS 04/23/1992 GOS vs. SEA L 3 3 1 1 100.0 0 0 - 1 1 100.0 1 1 2 1 0 0 0 1 -
p43
a.