(lp0
VPLAYER TEAM DATE MATCHUP W/L MIN PTS FGM FGA FG% 3PM 3PA 3P% FTM FTA FT% OREB DREB REB AST STL BLK TOV PF +/-
p1
aVCliff Levingston CHI 06/14/1992 CHI vs. POR W 6 1 0 0 - 0 0 - 1 4 25.0 1 0 1 0 1 0 0 1 -
p2
aVMichael Jordan CHI 06/14/1992 CHI vs. POR W 43 33 13 24 54.2 2 3 66.7 5 5 100.0 1 3 4 4 4 1 4 3 -
p3
aVScott Williams CHI 06/14/1992 CHI vs. POR W 24 4 2 5 40.0 0 0 - 0 0 - 3 5 8 0 0 2 0 2 -
p4
aVB.J. Armstrong CHI 06/14/1992 CHI vs. POR W 19 6 3 7 42.9 0 2 0.0 0 0 - 0 1 1 4 0 0 2 3 -
p5
aVBill Cartwright CHI 06/14/1992 CHI vs. POR W 19 4 2 5 40.0 0 0 - 0 0 - 0 1 1 0 0 0 4 2 -
p6
aVBob Hansen CHI 06/14/1992 CHI vs. POR W 5 3 1 1 100.0 1 1 100.0 0 0 - 0 0 0 1 1 0 0 1 -
p7
aVStacey King CHI 06/14/1992 CHI vs. POR W 16 5 1 4 25.0 0 0 - 3 4 75.0 0 3 3 0 0 0 1 0 -
p8
aVScottie Pippen CHI 06/14/1992 CHI vs. POR W 43 26 9 17 52.9 2 3 66.7 6 6 100.0 4 1 5 4 0 1 5 3 -
p9
aVJohn Paxson CHI 06/14/1992 CHI vs. POR W 29 13 6 9 66.7 1 4 25.0 0 0 - 0 3 3 2 2 0 2 2 -
p10
aVHorace Grant CHI 06/14/1992 CHI vs. POR W 36 2 1 1 100.0 0 0 - 0 2 0.0 0 5 5 5 0 1 0 2 -
p11
aVB.J. Armstrong CHI 06/12/1992 CHI @ POR W 17 8 2 4 50.0 0 0 - 4 4 100.0 0 0 0 0 0 0 1 1 -
p12
aVScottie Pippen CHI 06/12/1992 CHI @ POR W 45 24 8 15 53.3 0 1 0.0 8 9 88.9 3 8 11 9 2 0 3 4 -
p13
aVHorace Grant CHI 06/12/1992 CHI @ POR W 33 6 2 4 50.0 0 0 - 2 5 40.0 0 5 5 3 1 4 3 6 -
p14
aVBill Cartwright CHI 06/12/1992 CHI @ POR W 19 4 2 4 50.0 0 0 - 0 0 - 1 2 3 3 1 0 2 4 -
p15
aVCliff Levingston CHI 06/12/1992 CHI @ POR W 13 6 2 3 66.7 0 0 - 2 2 100.0 2 1 3 1 0 1 0 1 -
p16
aVBob Hansen CHI 06/12/1992 CHI @ POR W 5 2 1 1 100.0 0 0 - 0 0 - 1 0 1 0 0 0 0 1 -
p17
aVScott Williams CHI 06/12/1992 CHI @ POR W 23 7 2 4 50.0 0 0 - 3 4 75.0 3 1 4 3 0 0 0 5 -
p18
aVMichael Jordan CHI 06/12/1992 CHI @ POR W 42 46 14 23 60.9 2 4 50.0 16 19 84.2 0 5 5 4 0 1 4 5 -
p19
aVCraig Hodges CHI 06/12/1992 CHI @ POR W 1 0 0 0 - 0 0 - 0 0 - 0 0 0 0 0 0 0 0 -
p20
aVJohn Paxson CHI 06/12/1992 CHI @ POR W 33 12 6 11 54.5 0 1 0.0 0 0 - 0 1 1 3 2 0 1 2 -
p21
aVStacey King CHI 06/12/1992 CHI @ POR W 8 4 1 4 25.0 0 0 - 2 2 100.0 0 1 1 0 0 0 0 4 -
p22
aVWill Perdue CHI 06/12/1992 CHI @ POR W 1 0 0 0 - 0 0 - 0 0 - 0 0 0 0 0 0 0 0 -
p23
aVScott Williams CHI 06/10/1992 CHI @ POR L 14 5 1 1 100.0 0 0 - 3 3 100.0 0 1 1 0 0 1 1 4 -
p24
aVCliff Levingston CHI 06/10/1992 CHI @ POR L 15 0 0 4 0.0 0 0 - 0 0 - 2 1 3 1 0 0 0 1 -
p25
aVCraig Hodges CHI 06/10/1992 CHI @ POR L 5 2 1 1 100.0 0 0 - 0 0 - 0 0 0 0 1 0 2 1 -
p26
aVScottie Pippen CHI 06/10/1992 CHI @ POR L 32 17 8 13 61.5 0 0 - 1 4 25.0 3 6 9 6 1 0 3 4 -
p27
aVB.J. Armstrong CHI 06/10/1992 CHI @ POR L 18 6 3 7 42.9 0 1 0.0 0 1 0.0 1 0 1 2 1 0 1 2 -
p28
aVMichael Jordan CHI 06/10/1992 CHI @ POR L 44 32 11 26 42.3 2 6 33.3 8 8 100.0 0 5 5 6 0 0 5 4 -
p29
aVHorace Grant CHI 06/10/1992 CHI @ POR L 44 8 4 10 40.0 0 1 0.0 0 0 - 1 9 10 1 1 0 1 4 -
p30
aVJohn Paxson CHI 06/10/1992 CHI @ POR L 30 9 3 7 42.9 2 4 50.0 1 2 50.0 0 0 0 0 1 0 1 4 -
p31
aVBill Cartwright CHI 06/10/1992 CHI @ POR L 38 9 4 8 50.0 0 0 - 1 2 50.0 0 4 4 2 2 0 2 3 -
p32
aVScottie Pippen CHI 06/07/1992 CHI @ POR W 43 18 6 15 40.0 0 1 0.0 6 8 75.0 1 7 8 7 1 2 5 4 -
p33
aVBill Cartwright CHI 06/07/1992 CHI @ POR W 25 6 3 7 42.9 0 0 - 0 2 0.0 2 5 7 3 0 0 1 6 -
p34
aVMichael Jordan CHI 06/07/1992 CHI @ POR W 41 26 11 22 50.0 0 1 0.0 4 4 100.0 2 5 7 4 3 0 5 4 -
p35
aVJohn Paxson CHI 06/07/1992 CHI @ POR W 32 8 3 5 60.0 0 1 0.0 2 2 100.0 0 0 0 2 2 0 1 1 -
p36
aVHorace Grant CHI 06/07/1992 CHI @ POR W 37 18 7 12 58.3 0 0 - 4 5 80.0 1 7 8 6 1 1 1 4 -
p37
aVCliff Levingston CHI 06/07/1992 CHI @ POR W 7 1 0 0 - 0 0 - 1 2 50.0 0 2 2 0 0 0 0 1 -
p38
aVBob Hansen CHI 06/07/1992 CHI @ POR W 10 3 1 3 33.3 1 1 100.0 0 0 - 0 0 0 0 0 0 0 0 -
p39
aVB.J. Armstrong CHI 06/07/1992 CHI @ POR W 17 4 2 5 40.0 0 0 - 0 2 0.0 0 0 0 1 1 0 2 1 -
p40
aVScott Williams CHI 06/07/1992 CHI @ POR W 19 2 1 5 20.0 0 0 - 0 0 - 1 5 6 2 1 2 0 4 -
p41
aVStacey King CHI 06/07/1992 CHI @ POR W 9 8 3 4 75.0 0 0 - 2 4 50.0 2 2 4 0 0 0 1 1 -
p42
aVScott Williams CHI 06/05/1992 CHI vs. POR L 20 3 1 3 33.3 0 0 - 1 2 50.0 1 8 9 0 0 1 1 2 -
p43
aVJohn Paxson CHI 06/05/1992 CHI vs. POR L 42 16 6 14 42.9 4 7 57.1 0 0 - 0 1 1 4 0 0 1 2 -
p44
aVCliff Levingston CHI 06/05/1992 CHI vs. POR L 9 7 3 6 50.0 0 0 - 1 2 50.0 1 0 1 1 0 0 0 2 -
p45
aVHorace Grant CHI 06/05/1992 CHI vs. POR L 46 10 4 6 66.7 0 0 - 2 3 66.7 2 10 12 7 1 5 0 4 -
p46
aVB.J. Armstrong CHI 06/05/1992 CHI vs. POR L 7 0 0 1 0.0 0 0 - 0 0 - 0 0 0 1 0 0 0 2 -
p47
aVScottie Pippen CHI 06/05/1992 CHI vs. POR L 48 16 6 19 31.6 0 3 0.0 4 6 66.7 3 5 8 10 3 0 6 4 -
p48
aVWill Perdue CHI 06/05/1992 CHI vs. POR L 3 0 0 0 - 0 0 - 0 0 - 1 0 1 0 0 0 0 2 -
p49
aVBill Cartwright CHI 06/05/1992 CHI vs. POR L 34 10 4 4 100.0 0 0 - 2 4 50.0 1 3 4 1 0 1 1 3 -
p50
aVBob Hansen CHI 06/05/1992 CHI vs. POR L 6 3 1 1 100.0 1 1 100.0 0 0 - 0 0 0 0 0 0 1 3 -
p51
aVMichael Jordan CHI 06/05/1992 CHI vs. POR L 50 39 16 32 50.0 0 4 0.0 7 9 77.8 1 4 5 10 1 0 5 5 -
p52
aVCliff Levingston CHI 06/03/1992 CHI vs. POR W 15 8 4 7 57.1 0 1 0.0 0 0 - 0 3 3 1 0 0 1 1 -
p53
aVBob Hansen CHI 06/03/1992 CHI vs. POR W 14 5 2 4 50.0 0 1 0.0 1 2 50.0 0 1 1 2 0 0 0 1 -
p54
aVHorace Grant CHI 06/03/1992 CHI vs. POR W 31 11 5 8 62.5 0 0 - 1 2 50.0 3 4 7 2 1 3 0 0 -
p55
aVWill Perdue CHI 06/03/1992 CHI vs. POR W 6 2 1 3 33.3 0 0 - 0 2 0.0 0 2 2 0 0 0 0 1 -
p56
aVScott Williams CHI 06/03/1992 CHI vs. POR W 28 12 6 6 100.0 0 0 - 0 0 - 4 5 9 1 0 2 2 4 -
p57
aVB.J. Armstrong CHI 06/03/1992 CHI vs. POR W 29 11 5 11 45.5 1 1 100.0 0 0 - 0 3 3 6 0 0 3 3 -
p58
aVMichael Jordan CHI 06/03/1992 CHI vs. POR W 34 39 16 27 59.3 6 10 60.0 1 1 100.0 2 1 3 11 2 0 1 0 -
p59
aVStacey King CHI 06/03/1992 CHI vs. POR W 15 1 0 3 0.0 0 0 - 1 2 50.0 1 1 2 0 1 1 1 2 -
p60
aVScottie Pippen CHI 06/03/1992 CHI vs. POR W 33 24 8 14 57.1 0 1 0.0 8 9 88.9 3 6 9 10 2 1 1 2 -
p61
aVBill Cartwright CHI 06/03/1992 CHI vs. POR W 16 5 1 4 25.0 0 0 - 3 4 75.0 3 2 5 0 0 0 2 3 -
p62
aVJohn Paxson CHI 06/03/1992 CHI vs. POR W 19 4 2 4 50.0 0 1 0.0 0 0 - 0 0 0 5 1 0 0 4 -
p63
aVB.J. Armstrong CHI 05/29/1992 CHI @ CLE W 18 4 2 5 40.0 0 0 - 0 0 - 0 0 0 2 0 0 0 1 -
p64
aVBill Cartwright CHI 05/29/1992 CHI @ CLE W 41 10 5 11 45.5 0 0 - 0 0 - 3 6 9 2 1 2 0 1 -
p65
aVMichael Jordan CHI 05/29/1992 CHI @ CLE W 44 29 10 27 37.0 0 0 - 9 9 100.0 1 7 8 8 2 0 3 3 -
p66
aVCliff Levingston CHI 05/29/1992 CHI @ CLE W 11 3 1 3 33.3 0 0 - 1 2 50.0 1 1 2 0 0 1 1 3 -
p67
aVJohn Paxson CHI 05/29/1992 CHI @ CLE W 29 4 2 3 66.7 0 1 0.0 0 0 - 0 2 2 0 0 0 1 4 -
p68
aVScottie Pippen CHI 05/29/1992 CHI @ CLE W 42 29 11 23 47.8 0 1 0.0 7 8 87.5 3 9 12 5 4 4 5 5 -
p69
aVHorace Grant CHI 05/29/1992 CHI @ CLE W 45 20 7 11 63.6 0 0 - 6 6 100.0 5 4 9 0 0 2 1 4 -
p70
aVScott Williams CHI 05/29/1992 CHI @ CLE W 10 0 0 1 0.0 0 0 - 0 0 - 0 1 1 0 0 1 1 3 -
p71
aVCliff Levingston CHI 05/27/1992 CHI vs. CLE W 18 12 4 6 66.7 0 0 - 4 7 57.1 0 1 1 0 1 0 2 2 -
p72
aVMichael Jordan CHI 05/27/1992 CHI vs. CLE W 39 37 13 28 46.4 0 0 - 11 12 91.7 0 3 3 5 4 0 0 4 -
p73
aVBob Hansen CHI 05/27/1992 CHI vs. CLE W 4 0 0 2 0.0 0 0 - 0 0 - 1 0 1 1 0 0 0 1 -
p74
aVHorace Grant CHI 05/27/1992 CHI vs. CLE W 39 13 4 9 44.4 0 0 - 5 6 83.3 7 7 14 2 2 3 1 4 -
p75
aVJohn Paxson CHI 05/27/1992 CHI vs. CLE W 25 4 2 3 66.7 0 0 - 0 0 - 0 1 1 1 1 1 0 2 -
p76
aVScott Williams CHI 05/27/1992 CHI vs. CLE W 23 12 6 7 85.7 0 0 - 0 1 0.0 5 3 8 0 1 2 1 3 -
p77
aVB.J. Armstrong CHI 05/27/1992 CHI vs. CLE W 22 12 4 9 44.4 1 2 50.0 3 3 100.0 0 0 0 4 1 0 0 1 -
p78
aVStacey King CHI 05/27/1992 CHI vs. CLE W 3 0 0 0 - 0 0 - 0 0 - 0 1 1 0 0 0 1 1 -
p79
aVWill Perdue CHI 05/27/1992 CHI vs. CLE W 2 0 0 0 - 0 0 - 0 0 - 0 1 1 0 0 0 0 0 -
p80
aVScottie Pippen CHI 05/27/1992 CHI vs. CLE W 32 14 6 14 42.9 0 0 - 2 6 33.3 3 12 15 6 1 1 3 4 -
p81
aVBill Cartwright CHI 05/27/1992 CHI vs. CLE W 29 6 3 4 75.0 0 0 - 0 0 - 0 7 7 1 2 0 1 1 -
p82
aVCraig Hodges CHI 05/27/1992 CHI vs. CLE W 4 2 1 3 33.3 0 0 - 0 0 - 0 0 0 0 0 0 0 1 -
p83
aVWill Perdue CHI 05/25/1992 CHI @ CLE L 6 0 0 1 0.0 0 0 - 0 0 - 0 0 0 0 0 1 0 1 -
p84
aVScottie Pippen CHI 05/25/1992 CHI @ CLE L 44 13 5 11 45.5 1 1 100.0 2 3 66.7 3 7 10 4 1 0 5 3 -
p85
aVBill Cartwright CHI 05/25/1992 CHI @ CLE L 26 4 2 4 50.0 0 0 - 0 2 0.0 1 1 2 1 1 0 0 3 -
p86
aVJohn Paxson CHI 05/25/1992 CHI @ CLE L 26 11 5 7 71.4 1 1 100.0 0 1 0.0 0 0 0 3 0 0 0 6 -
p87
aVHorace Grant CHI 05/25/1992 CHI @ CLE L 43 7 2 7 28.6 0 0 - 3 4 75.0 5 10 15 3 1 2 1 3 -
p88
aVStacey King CHI 05/25/1992 CHI @ CLE L 5 0 0 1 0.0 0 0 - 0 0 - 0 1 1 0 0 0 2 0 -
p89
aVCraig Hodges CHI 05/25/1992 CHI @ CLE L 11 1 0 4 0.0 0 3 0.0 1 2 50.0 1 0 1 0 0 0 0 1 -
p90
aVCliff Levingston CHI 05/25/1992 CHI @ CLE L 7 8 4 7 57.1 0 0 - 0 0 - 2 0 2 0 1 0 0 1 -
p91
aVMichael Jordan CHI 05/25/1992 CHI @ CLE L 44 35 15 33 45.5 1 3 33.3 4 5 80.0 2 3 5 6 3 0 5 3 -
p92
aVB.J. Armstrong CHI 05/25/1992 CHI @ CLE L 15 4 2 7 28.6 0 0 - 0 0 - 0 0 0 1 0 0 2 1 -
p93
aVScott Williams CHI 05/25/1992 CHI @ CLE L 13 2 1 5 20.0 0 0 - 0 0 - 3 2 5 0 0 0 0 5 -
p94
aVStacey King CHI 05/23/1992 CHI @ CLE W 2 0 0 0 - 0 0 - 0 0 - 0 0 0 0 0 0 0 0 -
p95
aVScottie Pippen CHI 05/23/1992 CHI @ CLE W 39 23 9 14 64.3 0 0 - 5 8 62.5 2 7 9 7 2 0 5 3 -
p96
aVCliff Levingston CHI 05/23/1992 CHI @ CLE W 3 0 0 0 - 0 0 - 0 0 - 0 0 0 0 0 0 0 1 -
p97
aVHorace Grant CHI 05/23/1992 CHI @ CLE W 38 15 7 10 70.0 0 0 - 1 2 50.0 2 9 11 1 0 4 3 5 -
p98
aVB.J. Armstrong CHI 05/23/1992 CHI @ CLE W 22 4 2 6 33.3 0 0 - 0 0 - 1 0 1 3 1 0 0 1 -
p99
aVBill Cartwright CHI 05/23/1992 CHI @ CLE W 28 2 1 2 50.0 0 0 - 0 0 - 0 5 5 2 1 0 2 4 -
p100
aVWill Perdue CHI 05/23/1992 CHI @ CLE W 11 3 1 2 50.0 0 0 - 1 2 50.0 0 0 0 0 0 0 0 4 -
p101
aVMichael Jordan CHI 05/23/1992 CHI @ CLE W 43 36 13 27 48.1 1 1 100.0 9 10 90.0 3 3 6 9 1 0 5 3 -
p102
aVCraig Hodges CHI 05/23/1992 CHI @ CLE W 9 0 0 1 0.0 0 0 - 0 0 - 0 0 0 0 1 0 1 0 -
p103
aVScott Williams CHI 05/23/1992 CHI @ CLE W 20 10 3 5 60.0 0 0 - 4 4 100.0 2 4 6 0 0 2 0 3 -
p104
aVJohn Paxson CHI 05/23/1992 CHI @ CLE W 25 12 5 6 83.3 2 2 100.0 0 0 - 0 1 1 3 0 0 0 1 -
p105
aVScott Williams CHI 05/21/1992 CHI vs. CLE L 7 0 0 2 0.0 0 0 - 0 0 - 1 1 2 0 0 1 2 1 -
p106
aVScottie Pippen CHI 05/21/1992 CHI vs. CLE L 36 11 4 14 28.6 0 2 0.0 3 6 50.0 3 6 9 3 2 1 2 0 -
p107
aVCraig Hodges CHI 05/21/1992 CHI vs. CLE L 16 0 0 5 0.0 0 2 0.0 0 0 - 1 0 1 0 0 0 3 1 -
p108
aVJohn Paxson CHI 05/21/1992 CHI vs. CLE L 24 5 2 6 33.3 1 2 50.0 0 0 - 0 0 0 0 0 0 0 1 -
p109
aVBob Hansen CHI 05/21/1992 CHI vs. CLE L 7 4 2 3 66.7 0 1 0.0 0 1 0.0 0 2 2 3 0 0 0 1 -
p110
aVWill Perdue CHI 05/21/1992 CHI vs. CLE L 19 2 1 2 50.0 0 0 - 0 0 - 1 2 3 3 1 2 0 1 -
p111
aVStacey King CHI 05/21/1992 CHI vs. CLE L 21 13 5 10 50.0 0 0 - 3 6 50.0 1 1 2 2 1 0 2 1 -
p112
aVBill Cartwright CHI 05/21/1992 CHI vs. CLE L 6 0 0 4 0.0 0 0 - 0 0 - 0 0 0 0 0 0 0 0 -
p113
aVCliff Levingston CHI 05/21/1992 CHI vs. CLE L 15 0 0 1 0.0 0 0 - 0 0 - 0 3 3 1 0 1 2 4 -
p114
aVMichael Jordan CHI 05/21/1992 CHI vs. CLE L 35 20 7 22 31.8 0 0 - 6 7 85.7 8 3 11 3 3 2 6 3 -
p115
aVB.J. Armstrong CHI 05/21/1992 CHI vs. CLE L 24 16 7 10 70.0 0 0 - 2 3 66.7 0 3 3 2 0 0 1 3 -
p116
aVHorace Grant CHI 05/21/1992 CHI vs. CLE L 30 10 5 10 50.0 0 0 - 0 0 - 7 5 12 0 1 0 1 3 -
p117
aVB.J. Armstrong CHI 05/19/1992 CHI vs. CLE W 17 5 2 6 33.3 0 0 - 1 1 100.0 0 0 0 1 2 0 0 1 -
p118
aVHorace Grant CHI 05/19/1992 CHI vs. CLE W 38 12 4 11 36.4 0 0 - 4 4 100.0 7 3 10 7 1 0 2 2 -
p119
aVCraig Hodges CHI 05/19/1992 CHI vs. CLE W 11 2 1 3 33.3 0 1 0.0 0 0 - 0 0 0 0 1 0 0 0 -
p120
aVBill Cartwright CHI 05/19/1992 CHI vs. CLE W 20 12 6 8 75.0 0 0 - 0 0 - 1 5 6 2 1 0 1 4 -
p121
aVJohn Paxson CHI 05/19/1992 CHI vs. CLE W 31 4 2 4 50.0 0 0 - 0 0 - 0 2 2 4 0 0 1 2 -
p122
aVWill Perdue CHI 05/19/1992 CHI vs. CLE W 16 0 0 0 - 0 0 - 0 0 - 2 2 4 2 0 0 1 2 -
p123
aVCliff Levingston CHI 05/19/1992 CHI vs. CLE W 6 0 0 2 0.0 0 0 - 0 0 - 0 1 1 0 0 0 0 2 -
p124
aVScott Williams CHI 05/19/1992 CHI vs. CLE W 12 6 2 3 66.7 0 0 - 2 2 100.0 0 4 4 0 0 0 0 2 -
p125
aVMichael Jordan CHI 05/19/1992 CHI vs. CLE W 40 33 15 29 51.7 1 2 50.0 2 2 100.0 1 5 6 7 2 1 1 0 -
p126
aVStacey King CHI 05/19/1992 CHI vs. CLE W 7 0 0 1 0.0 0 0 - 0 0 - 0 0 0 1 1 1 0 1 -
p127
aVScottie Pippen CHI 05/19/1992 CHI vs. CLE W 42 29 9 17 52.9 1 3 33.3 10 10 100.0 4 8 12 9 1 3 4 2 -
p128
aVMichael Jordan CHI 05/17/1992 CHI vs. NYK W 42 42 15 29 51.7 0 0 - 12 13 92.3 3 3 6 4 2 3 5 3 -
p129
aVWill Perdue CHI 05/17/1992 CHI vs. NYK W 2 0 0 0 - 0 0 - 0 0 - 0 0 0 0 0 0 0 0 -
p130
aVB.J. Armstrong CHI 05/17/1992 CHI vs. NYK W 24 12 5 7 71.4 1 1 100.0 1 2 50.0 0 1 1 5 0 0 0 1 -
p131
aVScottie Pippen CHI 05/17/1992 CHI vs. NYK W 45 17 7 11 63.6 0 0 - 3 4 75.0 4 7 11 11 3 0 5 3 -
p132
aVStacey King CHI 05/17/1992 CHI vs. NYK W 10 8 3 4 75.0 1 1 100.0 1 1 100.0 1 1 2 0 0 0 1 0 -
p133
aVCraig Hodges CHI 05/17/1992 CHI vs. NYK W 12 7 3 4 75.0 1 2 50.0 0 0 - 0 0 0 1 2 0 0 1 -
p134
aVBill Cartwright CHI 05/17/1992 CHI vs. NYK W 32 5 2 3 66.7 0 0 - 1 3 33.3 1 4 5 2 0 0 1 5 -
p135
aVJohn Paxson CHI 05/17/1992 CHI vs. NYK W 20 2 1 4 25.0 0 0 - 0 0 - 0 0 0 4 0 0 0 5 -
p136
aVHorace Grant CHI 05/17/1992 CHI vs. NYK W 41 14 6 10 60.0 0 0 - 2 3 66.7 3 3 6 4 4 4 1 3 -
p137
aVScott Williams CHI 05/17/1992 CHI vs. NYK W 5 2 1 2 50.0 0 0 - 0 0 - 1 1 2 0 1 0 0 2 -
p138
aVCliff Levingston CHI 05/17/1992 CHI vs. NYK W 7 1 0 0 - 0 0 - 1 2 50.0 0 1 1 0 1 1 1 1 -
p139
aVMichael Jordan CHI 05/14/1992 CHI @ NYK L 45 21 9 25 36.0 1 5 20.0 2 4 50.0 0 4 4 8 0 1 7 0 -
p140
aVBill Cartwright CHI 05/14/1992 CHI @ NYK L 36 10 5 9 55.6 0 0 - 0 0 - 4 3 7 2 0 0 1 4 -
p141
aVCliff Levingston CHI 05/14/1992 CHI @ NYK L 3 0 0 0 - 0 0 - 0 0 - 2 1 3 0 0 0 0 1 -
p142
aVB.J. Armstrong CHI 05/14/1992 CHI @ NYK L 20 6 2 5 40.0 0 1 0.0 2 3 66.7 0 0 0 0 0 0 1 3 -
p143
aVScott Williams CHI 05/14/1992 CHI @ NYK L 13 2 1 3 33.3 0 0 - 0 0 - 1 3 4 0 0 0 0 2 -
p144
aVCraig Hodges CHI 05/14/1992 CHI @ NYK L 12 6 2 4 50.0 2 4 50.0 0 0 - 1 0 1 0 0 0 0 0 -
p145
aVWill Perdue CHI 05/14/1992 CHI @ NYK L 7 5 2 5 40.0 0 0 - 1 2 50.0 1 1 2 1 0 0 1 6 -
p146
aVHorace Grant CHI 05/14/1992 CHI @ NYK L 38 10 3 7 42.9 0 0 - 4 4 100.0 2 4 6 2 1 1 2 3 -
p147
aVScottie Pippen CHI 05/14/1992 CHI @ NYK L 38 18 5 15 33.3 0 1 0.0 8 11 72.7 3 7 10 5 4 2 1 2 -
p148
aVJohn Paxson CHI 05/14/1992 CHI @ NYK L 28 8 4 10 40.0 0 0 - 0 1 0.0 0 5 5 2 0 0 1 1 -
p149
aVB.J. Armstrong CHI 05/12/1992 CHI vs. NYK W 24 9 2 8 25.0 0 1 0.0 5 6 83.3 0 2 2 4 1 0 1 0 -
p150
aVWill Perdue CHI 05/12/1992 CHI vs. NYK W 8 2 1 1 100.0 0 0 - 0 0 - 0 1 1 0 0 0 1 2 -
p151
aVCliff Levingston CHI 05/12/1992 CHI vs. NYK W 4 0 0 0 - 0 0 - 0 0 - 0 3 3 0 0 0 1 2 -
p152
aVHorace Grant CHI 05/12/1992 CHI vs. NYK W 42 13 6 8 75.0 0 0 - 1 4 25.0 3 2 5 0 2 2 1 2 -
p153
aVScottie Pippen CHI 05/12/1992 CHI vs. NYK W 41 10 4 11 36.4 0 2 0.0 2 2 100.0 4 6 10 8 2 0 3 3 -
p154
aVBill Cartwright CHI 05/12/1992 CHI vs. NYK W 36 4 2 6 33.3 0 0 - 0 2 0.0 0 5 5 2 0 0 0 2 -
p155
aVJohn Paxson CHI 05/12/1992 CHI vs. NYK W 21 13 3 5 60.0 0 0 - 7 7 100.0 0 0 0 2 2 0 0 1 -
p156
aVMichael Jordan CHI 05/12/1992 CHI vs. NYK W 40 37 11 23 47.8 0 0 - 15 17 88.2 2 3 5 3 1 0 4 3 -
p157
aVScott Williams CHI 05/12/1992 CHI vs. NYK W 9 0 0 0 - 0 0 - 0 0 - 0 2 2 0 0 1 1 5 -
p158
aVStacey King CHI 05/12/1992 CHI vs. NYK W 3 2 1 1 100.0 0 0 - 0 0 - 0 0 0 0 1 0 0 1 -
p159
aVCraig Hodges CHI 05/12/1992 CHI vs. NYK W 12 6 2 5 40.0 2 3 66.7 0 0 - 0 0 0 1 0 0 0 0 -
p160
aVMichael Jordan CHI 05/10/1992 CHI @ NYK L 44 29 12 26 46.2 0 2 0.0 5 6 83.3 2 2 4 4 0 0 0 1 -
p161
aVScottie Pippen CHI 05/10/1992 CHI @ NYK L 46 13 4 13 30.8 0 1 0.0 5 10 50.0 2 6 8 7 1 0 1 5 -
p162
aVCraig Hodges CHI 05/10/1992 CHI @ NYK L 5 3 1 1 100.0 1 1 100.0 0 0 - 0 0 0 0 0 0 0 1 -
p163
aVHorace Grant CHI 05/10/1992 CHI @ NYK L 42 13 6 8 75.0 0 1 0.0 1 6 16.7 3 3 6 4 2 3 0 4 -
p164
aVScott Williams CHI 05/10/1992 CHI @ NYK L 14 3 1 2 50.0 0 0 - 1 2 50.0 2 1 3 0 0 2 0 4 -
p165
aVCliff Levingston CHI 05/10/1992 CHI @ NYK L 8 0 0 2 0.0 0 0 - 0 0 - 0 2 2 1 0 0 1 2 -
p166
aVB.J. Armstrong CHI 05/10/1992 CHI @ NYK L 28 11 4 7 57.1 0 1 0.0 3 3 100.0 0 4 4 0 1 0 0 2 -
p167
aVWill Perdue CHI 05/10/1992 CHI @ NYK L 8 2 1 2 50.0 0 0 - 0 0 - 2 0 2 0 0 0 0 3 -
p168
aVStacey King CHI 05/10/1992 CHI @ NYK L 3 0 0 0 - 0 0 - 0 0 - 0 0 0 0 0 0 0 0 -
p169
aVBill Cartwright CHI 05/10/1992 CHI @ NYK L 24 6 2 5 40.0 0 0 - 2 2 100.0 1 2 3 2 0 0 2 4 -
p170
aVJohn Paxson CHI 05/10/1992 CHI @ NYK L 18 6 3 6 50.0 0 1 0.0 0 0 - 0 1 1 1 0 0 1 2 -
p171
aVCliff Levingston CHI 05/09/1992 CHI @ NYK W 6 3 1 3 33.3 0 0 - 1 1 100.0 1 0 1 0 0 0 0 0 -
p172
aVB.J. Armstrong CHI 05/09/1992 CHI @ NYK W 18 0 0 3 0.0 0 1 0.0 0 0 - 0 0 0 3 0 0 0 2 -
p173
aVScottie Pippen CHI 05/09/1992 CHI @ NYK W 41 26 7 12 58.3 2 2 100.0 10 12 83.3 0 5 5 3 2 1 4 6 -
p174
aVWill Perdue CHI 05/09/1992 CHI @ NYK W 16 6 2 3 66.7 0 0 - 2 2 100.0 3 4 7 0 0 2 2 4 -
p175
aVHorace Grant CHI 05/09/1992 CHI @ NYK W 35 10 2 4 50.0 0 0 - 6 8 75.0 4 9 13 2 0 1 0 1 -
p176
aVScott Williams CHI 05/09/1992 CHI @ NYK W 15 2 1 2 50.0 0 0 - 0 0 - 1 0 1 0 2 0 2 2 -
p177
aVBill Cartwright CHI 05/09/1992 CHI @ NYK W 27 7 3 7 42.9 0 0 - 1 2 50.0 2 1 3 2 1 1 0 4 -
p178
aVCraig Hodges CHI 05/09/1992 CHI @ NYK W 6 3 1 2 50.0 1 1 100.0 0 0 - 0 0 0 0 0 0 0 0 -
p179
aVJohn Paxson CHI 05/09/1992 CHI @ NYK W 30 5 2 4 50.0 1 2 50.0 0 0 - 0 0 0 4 1 0 2 3 -
p180
aVMichael Jordan CHI 05/09/1992 CHI @ NYK W 44 32 12 24 50.0 1 3 33.3 7 10 70.0 1 8 9 3 3 1 6 2 -
p181
aVStacey King CHI 05/09/1992 CHI @ NYK W 2 0 0 1 0.0 0 0 - 0 0 - 0 0 0 0 0 0 0 0 -
p182
aVCliff Levingston CHI 05/07/1992 CHI vs. NYK W 2 1 0 1 0.0 0 0 - 1 4 25.0 0 0 0 1 0 0 0 0 -
p183
aVJohn Paxson CHI 05/07/1992 CHI vs. NYK W 24 10 3 6 50.0 0 0 - 4 4 100.0 0 0 0 7 2 0 0 2 -
p184
aVScott Williams CHI 05/07/1992 CHI vs. NYK W 8 8 3 4 75.0 0 0 - 2 2 100.0 2 2 4 1 0 0 0 5 -
p185
aVHorace Grant CHI 05/07/1992 CHI vs. NYK W 44 14 5 12 41.7 0 0 - 4 6 66.7 5 6 11 4 0 1 0 2 -
p186
aVBill Cartwright CHI 05/07/1992 CHI vs. NYK W 34 2 1 2 50.0 0 0 - 0 0 - 0 2 2 3 0 0 1 5 -
p187
aVMichael Jordan CHI 05/07/1992 CHI vs. NYK W 43 27 12 24 50.0 0 0 - 3 8 37.5 1 5 6 5 3 0 2 2 -
p188
aVB.J. Armstrong CHI 05/07/1992 CHI vs. NYK W 23 18 7 10 70.0 1 2 50.0 3 4 75.0 0 0 0 2 1 0 0 1 -
p189
aVScottie Pippen CHI 05/07/1992 CHI vs. NYK W 43 6 2 12 16.7 0 1 0.0 2 4 50.0 1 5 6 3 2 2 4 3 -
p190
aVWill Perdue CHI 05/07/1992 CHI vs. NYK W 12 0 0 3 0.0 0 0 - 0 0 - 2 1 3 0 0 1 3 0 -
p191
aVCraig Hodges CHI 05/07/1992 CHI vs. NYK W 7 0 0 0 - 0 0 - 0 0 - 0 0 0 1 0 0 1 1 -
p192
aVHorace Grant CHI 05/05/1992 CHI vs. NYK L 43 9 4 9 44.4 0 0 - 1 1 100.0 3 1 4 5 0 1 0 4 -
p193
aVScott Williams CHI 05/05/1992 CHI vs. NYK L 9 3 1 2 50.0 0 0 - 1 2 50.0 0 4 4 0 0 0 0 1 -
p194
aVJohn Paxson CHI 05/05/1992 CHI vs. NYK L 34 12 6 10 60.0 0 0 - 0 0 - 0 3 3 2 0 0 0 3 -
p195
aVCliff Levingston CHI 05/05/1992 CHI vs. NYK L 4 0 0 1 0.0 0 0 - 0 0 - 0 0 0 0 0 0 0 0 -
p196
aVWill Perdue CHI 05/05/1992 CHI vs. NYK L 2 0 0 2 0.0 0 1 0.0 0 4 0.0 0 1 1 0 0 0 1 0 -
p197
aVMichael Jordan CHI 05/05/1992 CHI vs. NYK L 44 31 12 23 52.2 0 0 - 7 8 87.5 1 5 6 3 1 3 2 4 -
p198
aVScottie Pippen CHI 05/05/1992 CHI vs. NYK L 42 22 8 18 44.4 0 0 - 6 6 100.0 4 4 8 9 0 3 1 4 -
p199
aVB.J. Armstrong CHI 05/05/1992 CHI vs. NYK L 16 4 2 7 28.6 0 2 0.0 0 0 - 0 1 1 1 0 0 0 0 -
p200
aVBill Cartwright CHI 05/05/1992 CHI vs. NYK L 41 6 3 7 42.9 0 0 - 0 2 0.0 4 4 8 0 0 0 3 3 -
p201
aVCraig Hodges CHI 05/05/1992 CHI vs. NYK L 5 2 1 1 100.0 0 0 - 0 0 - 0 0 0 0 0 0 0 0 -
p202
aVCliff Levingston CHI 04/29/1992 CHI @ MIA W 12 0 0 2 0.0 0 0 - 0 0 - 1 2 3 1 0 0 1 2 -
p203
aVJohn Paxson CHI 04/29/1992 CHI @ MIA W 22 2 1 5 20.0 0 0 - 0 0 - 0 1 1 2 0 0 1 3 -
p204
aVWill Perdue CHI 04/29/1992 CHI @ MIA W 7 2 1 1 100.0 0 0 - 0 0 - 0 0 0 1 1 0 0 1 -
p205
aVBill Cartwright CHI 04/29/1992 CHI @ MIA W 33 1 0 3 0.0 0 0 - 1 4 25.0 1 4 5 2 0 0 1 5 -
p206
aVB.J. Armstrong CHI 04/29/1992 CHI @ MIA W 23 13 4 7 57.1 1 2 50.0 4 4 100.0 0 4 4 4 1 0 0 2 -
p207
aVMichael Jordan CHI 04/29/1992 CHI @ MIA W 43 56 20 30 66.7 0 0 - 16 18 88.9 1 4 5 5 4 2 2 3 -
p208
aVScottie Pippen CHI 04/29/1992 CHI @ MIA W 45 31 12 23 52.2 0 1 0.0 7 8 87.5 4 4 8 5 0 2 2 5 -
p209
aVHorace Grant CHI 04/29/1992 CHI @ MIA W 42 8 4 9 44.4 0 0 - 0 0 - 5 3 8 3 2 0 1 2 -
p210
aVCraig Hodges CHI 04/29/1992 CHI @ MIA W 4 6 2 3 66.7 2 2 100.0 0 0 - 0 0 0 0 0 0 0 2 -
p211
aVScott Williams CHI 04/29/1992 CHI @ MIA W 9 0 0 3 0.0 0 0 - 0 0 - 2 4 6 0 0 0 1 3 -
p212
aVHorace Grant CHI 04/26/1992 CHI vs. MIA W 33 11 5 8 62.5 0 0 - 1 2 50.0 3 7 10 1 2 1 2 4 -
p213
aVWill Perdue CHI 04/26/1992 CHI vs. MIA W 13 5 2 4 50.0 0 0 - 1 2 50.0 0 3 3 1 1 0 1 4 -
p214
aVCliff Levingston CHI 04/26/1992 CHI vs. MIA W 16 11 5 7 71.4 0 0 - 1 2 50.0 4 1 5 1 0 2 1 2 -
p215
aVCraig Hodges CHI 04/26/1992 CHI vs. MIA W 11 2 1 1 100.0 0 0 - 0 0 - 0 1 1 2 0 0 1 0 -
p216
aVBob Hansen CHI 04/26/1992 CHI vs. MIA W 11 2 1 4 25.0 0 0 - 0 0 - 1 1 2 3 0 0 1 0 -
p217
aVScott Williams CHI 04/26/1992 CHI vs. MIA W 15 2 0 1 0.0 0 0 - 2 2 100.0 0 3 3 0 1 1 3 2 -
p218
aVBill Cartwright CHI 04/26/1992 CHI vs. MIA W 21 2 1 4 25.0 0 0 - 0 0 - 3 2 5 5 1 0 1 3 -
p219
aVMichael Jordan CHI 04/26/1992 CHI vs. MIA W 35 33 12 23 52.2 0 0 - 9 10 90.0 4 9 13 6 2 0 4 3 -
p220
aVB.J. Armstrong CHI 04/26/1992 CHI vs. MIA W 18 4 2 4 50.0 0 0 - 0 0 - 0 2 2 0 3 0 1 1 -
p221
aVStacey King CHI 04/26/1992 CHI vs. MIA W 7 12 4 7 57.1 1 1 100.0 3 4 75.0 2 2 4 2 1 0 1 1 -
p222
aVJohn Paxson CHI 04/26/1992 CHI vs. MIA W 23 6 2 4 50.0 0 0 - 2 2 100.0 0 0 0 4 0 0 0 0 -
p223
aVScottie Pippen CHI 04/26/1992 CHI vs. MIA W 37 30 10 15 66.7 0 0 - 10 12 83.3 2 2 4 5 4 1 1 0 -
p224
aVCliff Levingston CHI 04/24/1992 CHI vs. MIA W 4 2 1 2 50.0 0 0 - 0 0 - 0 1 1 0 0 0 0 1 -
p225
aVScott Williams CHI 04/24/1992 CHI vs. MIA W 11 3 1 4 25.0 0 1 0.0 1 4 25.0 1 2 3 0 0 0 0 1 -
p226
aVScottie Pippen CHI 04/24/1992 CHI vs. MIA W 42 11 4 9 44.4 0 0 - 3 3 100.0 0 6 6 11 3 1 1 3 -
p227
aVBob Hansen CHI 04/24/1992 CHI vs. MIA W 7 0 0 3 0.0 0 1 0.0 0 0 - 1 1 2 0 0 0 0 2 -
p228
aVBill Cartwright CHI 04/24/1992 CHI vs. MIA W 27 8 3 5 60.0 0 0 - 2 2 100.0 1 1 2 1 0 0 1 1 -
p229
aVMichael Jordan CHI 04/24/1992 CHI vs. MIA W 41 46 21 34 61.8 0 0 - 4 4 100.0 1 10 11 9 3 1 5 4 -
p230
aVB.J. Armstrong CHI 04/24/1992 CHI vs. MIA W 15 4 1 3 33.3 0 0 - 2 2 100.0 0 1 1 1 1 0 3 1 -
p231
aVCraig Hodges CHI 04/24/1992 CHI vs. MIA W 6 0 0 3 0.0 0 1 0.0 0 0 - 0 0 0 0 0 0 0 1 -
p232
aVWill Perdue CHI 04/24/1992 CHI vs. MIA W 18 16 6 8 75.0 0 0 - 4 6 66.7 6 4 10 1 0 4 2 3 -
p233
aVHorace Grant CHI 04/24/1992 CHI vs. MIA W 36 15 6 9 66.7 0 0 - 3 3 100.0 5 2 7 4 1 0 0 2 -
p234
aVJohn Paxson CHI 04/24/1992 CHI vs. MIA W 33 8 4 6 66.7 0 0 - 0 0 - 0 1 1 6 0 0 0 2 -
p235
a.