(lp0
VPLAYER TEAM DATE MATCHUP W/L MIN PTS FGM FGA FG% 3PM 3PA 3P% FTM FTA FT% OREB DREB REB AST STL BLK TOV PF +/-
p1
aVCraig Ehlo CLE 05/29/1992 CLE vs. CHI L 43 11 3 10 30.0 2 5 40.0 3 4 75.0 0 6 6 5 2 1 2 2 -
p2
aVMark Price CLE 05/29/1992 CLE vs. CHI L 38 14 5 18 27.8 1 3 33.3 3 4 75.0 1 0 1 8 1 0 5 1 -
p3
aVMike Sanders CLE 05/29/1992 CLE vs. CHI L 14 6 3 6 50.0 0 0 - 0 0 - 0 0 0 1 0 0 0 5 -
p4
aVHot Rod Williams CLE 05/29/1992 CLE vs. CHI L 38 16 6 11 54.5 0 0 - 4 6 66.7 2 7 9 4 0 2 0 5 -
p5
aVJohn Battle CLE 05/29/1992 CLE vs. CHI L 5 4 2 2 100.0 0 0 - 0 0 - 0 0 0 0 0 0 0 0 -
p6
aVLarry Nance CLE 05/29/1992 CLE vs. CHI L 46 25 11 20 55.0 0 1 0.0 3 4 75.0 8 8 16 5 2 3 4 5 -
p7
aVTerrell Brandon CLE 05/29/1992 CLE vs. CHI L 10 0 0 2 0.0 0 0 - 0 0 - 0 0 0 2 0 0 2 1 -
p8
aVBrad Daugherty CLE 05/29/1992 CLE vs. CHI L 46 18 6 13 46.2 0 0 - 6 7 85.7 4 9 13 6 0 2 1 4 -
p9
aVBobby Phills CLE 05/27/1992 CLE @ CHI L 3 1 0 1 0.0 0 1 0.0 1 2 50.0 0 2 2 2 0 0 1 0 -
p10
aVDanny Ferry CLE 05/27/1992 CLE @ CHI L 19 8 2 6 33.3 1 2 50.0 3 3 100.0 1 1 2 0 0 0 0 0 -
p11
aVHenry James CLE 05/27/1992 CLE @ CHI L 4 0 0 0 - 0 0 - 0 0 - 0 1 1 0 1 0 0 1 -
p12
aVLarry Nance CLE 05/27/1992 CLE @ CHI L 28 9 4 12 33.3 0 0 - 1 1 100.0 2 5 7 2 1 1 3 6 -
p13
aVHot Rod Williams CLE 05/27/1992 CLE @ CHI L 31 6 1 6 16.7 0 0 - 4 4 100.0 3 8 11 2 1 1 5 6 -
p14
aVMark Price CLE 05/27/1992 CLE @ CHI L 33 24 10 17 58.8 3 5 60.0 1 1 100.0 0 2 2 3 2 0 2 2 -
p15
aVSteve Kerr CLE 05/27/1992 CLE @ CHI L 3 5 2 2 100.0 0 0 - 1 1 100.0 0 0 0 0 0 0 0 1 -
p16
aVBrad Daugherty CLE 05/27/1992 CLE @ CHI L 36 5 1 10 10.0 0 0 - 3 4 75.0 4 4 8 2 0 0 0 2 -
p17
aVCraig Ehlo CLE 05/27/1992 CLE @ CHI L 40 12 5 14 35.7 1 4 25.0 1 2 50.0 3 1 4 3 0 0 0 3 -
p18
aVMike Sanders CLE 05/27/1992 CLE @ CHI L 24 13 5 11 45.5 0 2 0.0 3 3 100.0 2 2 4 1 1 0 3 5 -
p19
aVTerrell Brandon CLE 05/27/1992 CLE @ CHI L 12 4 1 4 25.0 0 0 - 2 2 100.0 0 2 2 2 0 0 1 2 -
p20
aVJohn Battle CLE 05/27/1992 CLE @ CHI L 7 2 1 3 33.3 0 0 - 0 0 - 0 0 0 1 0 0 1 0 -
p21
aVDanny Ferry CLE 05/25/1992 CLE vs. CHI W 4 0 0 0 - 0 0 - 0 0 - 0 2 2 0 0 0 0 0 -
p22
aVHot Rod Williams CLE 05/25/1992 CLE vs. CHI W 30 18 7 9 77.8 0 0 - 4 6 66.7 0 3 3 4 0 0 5 3 -
p23
aVTerrell Brandon CLE 05/25/1992 CLE vs. CHI W 20 2 1 6 16.7 0 0 - 0 0 - 1 2 3 5 2 0 1 0 -
p24
aVMark Price CLE 05/25/1992 CLE vs. CHI W 30 13 4 8 50.0 1 2 50.0 4 4 100.0 0 1 1 2 1 0 4 4 -
p25
aVLarry Nance CLE 05/25/1992 CLE vs. CHI W 43 22 8 17 47.1 0 0 - 6 8 75.0 3 8 11 4 1 4 0 2 -
p26
aVMike Sanders CLE 05/25/1992 CLE vs. CHI W 24 9 3 4 75.0 1 1 100.0 2 2 100.0 1 1 2 3 2 1 1 3 -
p27
aVCraig Ehlo CLE 05/25/1992 CLE vs. CHI W 46 21 7 16 43.8 4 7 57.1 3 3 100.0 0 2 2 1 0 0 1 4 -
p28
aVBrad Daugherty CLE 05/25/1992 CLE vs. CHI W 43 14 2 7 28.6 0 0 - 10 13 76.9 2 12 14 6 1 1 2 5 -
p29
aVMike Sanders CLE 05/23/1992 CLE vs. CHI L 17 0 0 2 0.0 0 0 - 0 0 - 0 1 1 3 0 1 0 5 -
p30
aVMark Price CLE 05/23/1992 CLE vs. CHI L 37 16 6 13 46.2 2 4 50.0 2 2 100.0 1 1 2 3 1 0 3 2 -
p31
aVLarry Nance CLE 05/23/1992 CLE vs. CHI L 43 18 7 18 38.9 0 0 - 4 4 100.0 1 3 4 2 2 5 2 3 -
p32
aVCraig Ehlo CLE 05/23/1992 CLE vs. CHI L 39 20 7 11 63.6 3 6 50.0 3 4 75.0 2 1 3 5 4 0 1 5 -
p33
aVHot Rod Williams CLE 05/23/1992 CLE vs. CHI L 36 16 5 12 41.7 0 0 - 6 10 60.0 1 5 6 4 1 0 1 4 -
p34
aVTerrell Brandon CLE 05/23/1992 CLE vs. CHI L 14 6 3 5 60.0 0 0 - 0 0 - 0 2 2 1 1 0 0 1 -
p35
aVJohn Battle CLE 05/23/1992 CLE vs. CHI L 12 2 1 4 25.0 0 0 - 0 0 - 1 0 1 0 0 0 0 0 -
p36
aVBrad Daugherty CLE 05/23/1992 CLE vs. CHI L 42 18 7 15 46.7 0 0 - 4 5 80.0 5 5 10 5 1 0 2 2 -
p37
aVJohn Battle CLE 05/21/1992 CLE @ CHI W 20 8 3 7 42.9 0 0 - 2 2 100.0 0 1 1 2 2 0 2 0 -
p38
aVSteve Kerr CLE 05/21/1992 CLE @ CHI W 5 0 0 2 0.0 0 1 0.0 0 0 - 0 0 0 0 0 0 0 0 -
p39
aVTerrell Brandon CLE 05/21/1992 CLE @ CHI W 19 2 1 4 25.0 0 0 - 0 0 - 0 3 3 2 0 0 2 1 -
p40
aVMark Price CLE 05/21/1992 CLE @ CHI W 26 23 5 9 55.6 4 5 80.0 9 9 100.0 2 3 5 7 1 0 3 2 -
p41
aVMike Sanders CLE 05/21/1992 CLE @ CHI W 31 6 3 5 60.0 0 0 - 0 0 - 1 3 4 1 1 0 1 3 -
p42
aVBobby Phills CLE 05/21/1992 CLE @ CHI W 3 2 0 2 0.0 0 0 - 2 2 100.0 1 1 2 0 0 0 1 1 -
p43
aVCraig Ehlo CLE 05/21/1992 CLE @ CHI W 32 6 3 7 42.9 0 1 0.0 0 0 - 0 4 4 7 4 0 1 4 -
p44
aVHot Rod Williams CLE 05/21/1992 CLE @ CHI W 21 10 5 9 55.6 0 0 - 0 0 - 3 3 6 2 2 0 1 4 -
p45
aVLarry Nance CLE 05/21/1992 CLE @ CHI W 32 14 5 8 62.5 0 0 - 4 4 100.0 0 4 4 1 1 4 0 1 -
p46
aVBrad Daugherty CLE 05/21/1992 CLE @ CHI W 36 28 11 20 55.0 0 0 - 6 7 85.7 1 8 9 4 2 0 2 4 -
p47
aVHenry James CLE 05/21/1992 CLE @ CHI W 5 4 1 4 25.0 0 0 - 2 4 50.0 1 0 1 0 0 0 0 1 -
p48
aVDanny Ferry CLE 05/21/1992 CLE @ CHI W 10 4 2 2 100.0 0 0 - 0 0 - 3 2 5 0 0 1 1 4 -
p49
aVHot Rod Williams CLE 05/19/1992 CLE @ CHI L 36 10 3 9 33.3 0 0 - 4 7 57.1 1 6 7 1 1 1 2 3 -
p50
aVMark Price CLE 05/19/1992 CLE @ CHI L 40 21 8 15 53.3 1 3 33.3 4 5 80.0 0 2 2 9 0 0 5 0 -
p51
aVLarry Nance CLE 05/19/1992 CLE @ CHI L 40 19 8 17 47.1 0 0 - 3 4 75.0 4 8 12 3 0 3 0 5 -
p52
aVBrad Daugherty CLE 05/19/1992 CLE @ CHI L 43 23 10 13 76.9 0 0 - 3 4 75.0 2 5 7 2 1 0 4 3 -
p53
aVCraig Ehlo CLE 05/19/1992 CLE @ CHI L 40 5 2 8 25.0 1 3 33.3 0 0 - 2 2 4 6 2 0 1 1 -
p54
aVMike Sanders CLE 05/19/1992 CLE @ CHI L 23 7 3 6 50.0 0 0 - 1 2 50.0 1 1 2 2 1 0 1 4 -
p55
aVSteve Kerr CLE 05/19/1992 CLE @ CHI L 12 0 0 2 0.0 0 0 - 0 0 - 1 1 2 3 1 0 0 1 -
p56
aVTerrell Brandon CLE 05/19/1992 CLE @ CHI L 6 4 2 4 50.0 0 0 - 0 0 - 1 1 2 2 0 0 1 2 -
p57
aVHenry James CLE 05/17/1992 CLE vs. BOS W 2 0 0 2 0.0 0 0 - 0 0 - 0 0 0 1 0 0 0 0 -
p58
aVMark Price CLE 05/17/1992 CLE vs. BOS W 27 15 7 15 46.7 1 4 25.0 0 0 - 1 4 5 8 1 0 3 4 -
p59
aVJohn Battle CLE 05/17/1992 CLE vs. BOS W 7 2 1 3 33.3 0 0 - 0 0 - 0 1 1 0 0 0 0 0 -
p60
aVBrad Daugherty CLE 05/17/1992 CLE vs. BOS W 36 28 9 11 81.8 0 0 - 10 13 76.9 2 7 9 6 0 3 0 2 -
p61
aVMike Sanders CLE 05/17/1992 CLE vs. BOS W 33 16 6 11 54.5 0 0 - 4 4 100.0 2 4 6 2 1 2 2 3 -
p62
aVHot Rod Williams CLE 05/17/1992 CLE vs. BOS W 30 20 7 10 70.0 0 0 - 6 6 100.0 3 5 8 1 2 4 2 2 -
p63
aVBobby Phills CLE 05/17/1992 CLE vs. BOS W 2 2 1 1 100.0 0 0 - 0 0 - 0 1 1 2 0 0 0 0 -
p64
aVTerrell Brandon CLE 05/17/1992 CLE vs. BOS W 21 6 3 6 50.0 0 2 0.0 0 0 - 1 1 2 6 0 0 2 5 -
p65
aVCraig Ehlo CLE 05/17/1992 CLE vs. BOS W 31 12 5 7 71.4 2 4 50.0 0 0 - 2 2 4 6 2 1 2 2 -
p66
aVDanny Ferry CLE 05/17/1992 CLE vs. BOS W 7 4 2 2 100.0 0 0 - 0 0 - 0 0 0 0 0 0 0 1 -
p67
aVLarry Nance CLE 05/17/1992 CLE vs. BOS W 38 15 7 14 50.0 0 0 - 1 2 50.0 1 8 9 8 2 1 0 3 -
p68
aVSteve Kerr CLE 05/17/1992 CLE vs. BOS W 6 2 1 1 100.0 0 0 - 0 0 - 0 0 0 2 0 0 0 1 -
p69
aVLarry Nance CLE 05/15/1992 CLE @ BOS L 37 6 2 9 22.2 0 0 - 2 2 100.0 3 7 10 0 0 0 1 3 -
p70
aVJohn Battle CLE 05/15/1992 CLE @ BOS L 14 8 2 6 33.3 0 0 - 4 4 100.0 0 0 0 0 1 0 0 0 -
p71
aVMark Price CLE 05/15/1992 CLE @ BOS L 31 14 5 12 41.7 2 5 40.0 2 2 100.0 0 1 1 5 0 0 2 3 -
p72
aVSteve Kerr CLE 05/15/1992 CLE @ BOS L 4 4 1 2 50.0 0 1 0.0 2 2 100.0 0 1 1 0 0 0 0 0 -
p73
aVMike Sanders CLE 05/15/1992 CLE @ BOS L 22 8 4 11 36.4 0 0 - 0 0 - 3 1 4 2 0 0 2 4 -
p74
aVDanny Ferry CLE 05/15/1992 CLE @ BOS L 5 0 0 2 0.0 0 1 0.0 0 0 - 0 0 0 1 0 0 0 0 -
p75
aVTerrell Brandon CLE 05/15/1992 CLE @ BOS L 17 6 3 10 30.0 0 1 0.0 0 0 - 1 1 2 2 0 0 1 1 -
p76
aVBobby Phills CLE 05/15/1992 CLE @ BOS L 2 2 1 1 100.0 0 0 - 0 0 - 0 0 0 1 1 0 0 0 -
p77
aVCraig Ehlo CLE 05/15/1992 CLE @ BOS L 30 13 5 10 50.0 1 3 33.3 2 2 100.0 0 4 4 3 0 0 1 1 -
p78
aVHenry James CLE 05/15/1992 CLE @ BOS L 4 0 0 1 0.0 0 1 0.0 0 0 - 0 0 0 0 0 0 1 0 -
p79
aVBrad Daugherty CLE 05/15/1992 CLE @ BOS L 39 12 3 8 37.5 0 0 - 6 8 75.0 0 4 4 1 2 0 3 1 -
p80
aVHot Rod Williams CLE 05/15/1992 CLE @ BOS L 35 18 5 8 62.5 0 0 - 8 8 100.0 6 5 11 2 2 1 4 3 -
p81
aVMike Sanders CLE 05/13/1992 CLE vs. BOS W 27 6 3 9 33.3 0 0 - 0 0 - 3 2 5 3 0 1 3 4 -
p82
aVLarry Nance CLE 05/13/1992 CLE vs. BOS W 38 18 7 15 46.7 0 0 - 4 5 80.0 0 6 6 1 0 3 1 4 -
p83
aVHenry James CLE 05/13/1992 CLE vs. BOS W 2 0 0 1 0.0 0 1 0.0 0 0 - 0 0 0 0 0 0 0 0 -
p84
aVMark Price CLE 05/13/1992 CLE vs. BOS W 33 13 5 13 38.5 1 4 25.0 2 2 100.0 0 2 2 6 2 0 2 0 -
p85
aVDanny Ferry CLE 05/13/1992 CLE vs. BOS W 2 0 0 1 0.0 0 0 - 0 0 - 0 0 0 0 0 0 0 0 -
p86
aVHot Rod Williams CLE 05/13/1992 CLE vs. BOS W 36 18 7 12 58.3 0 0 - 4 5 80.0 1 2 3 3 1 1 1 0 -
p87
aVBrad Daugherty CLE 05/13/1992 CLE vs. BOS W 41 28 10 13 76.9 0 0 - 8 11 72.7 3 6 9 5 1 4 2 1 -
p88
aVTerrell Brandon CLE 05/13/1992 CLE vs. BOS W 15 6 3 6 50.0 0 0 - 0 0 - 0 3 3 4 0 0 1 1 -
p89
aVCraig Ehlo CLE 05/13/1992 CLE vs. BOS W 38 20 8 9 88.9 2 2 100.0 2 2 100.0 0 6 6 13 1 1 1 4 -
p90
aVJohn Battle CLE 05/13/1992 CLE vs. BOS W 8 5 2 2 100.0 0 0 - 1 1 100.0 1 0 1 0 1 0 1 0 -
p91
aVMike Sanders CLE 05/10/1992 CLE @ BOS W 32 9 3 6 50.0 0 0 - 3 4 75.0 0 2 2 1 2 2 0 3 -
p92
aVHot Rod Williams CLE 05/10/1992 CLE @ BOS W 37 18 4 11 36.4 0 0 - 10 12 83.3 2 5 7 4 1 1 1 6 -
p93
aVMark Price CLE 05/10/1992 CLE @ BOS W 43 26 11 18 61.1 2 5 40.0 2 4 50.0 0 2 2 12 2 0 3 3 -
p94
aVCraig Ehlo CLE 05/10/1992 CLE @ BOS W 45 1 0 9 0.0 0 3 0.0 1 2 50.0 3 6 9 3 2 0 3 4 -
p95
aVBrad Daugherty CLE 05/10/1992 CLE @ BOS W 43 20 9 15 60.0 0 0 - 2 2 100.0 1 7 8 1 0 0 5 5 -
p96
aVTerrell Brandon CLE 05/10/1992 CLE @ BOS W 12 6 3 3 100.0 0 0 - 0 0 - 0 1 1 2 0 0 0 1 -
p97
aVLarry Nance CLE 05/10/1992 CLE @ BOS W 49 32 13 16 81.3 0 0 - 6 6 100.0 2 5 7 2 1 2 2 3 -
p98
aVJohn Battle CLE 05/10/1992 CLE @ BOS W 4 2 0 1 0.0 0 0 - 2 2 100.0 0 0 0 0 0 0 0 0 -
p99
aVSteve Kerr CLE 05/08/1992 CLE @ BOS L 8 0 0 0 - 0 0 - 0 0 - 0 0 0 0 0 0 0 0 -
p100
aVLarry Nance CLE 05/08/1992 CLE @ BOS L 42 19 9 16 56.3 0 0 - 1 1 100.0 1 11 12 3 1 2 1 5 -
p101
aVCraig Ehlo CLE 05/08/1992 CLE @ BOS L 36 15 6 12 50.0 2 3 66.7 1 2 50.0 3 2 5 7 1 0 3 4 -
p102
aVHot Rod Williams CLE 05/08/1992 CLE @ BOS L 31 11 4 4 100.0 0 0 - 3 3 100.0 1 0 1 5 1 0 3 5 -
p103
aVBrad Daugherty CLE 05/08/1992 CLE @ BOS L 45 22 10 17 58.8 0 0 - 2 4 50.0 1 10 11 1 0 0 2 2 -
p104
aVMark Price CLE 05/08/1992 CLE @ BOS L 40 27 9 17 52.9 1 4 25.0 8 8 100.0 0 2 2 10 1 1 1 2 -
p105
aVHenry James CLE 05/08/1992 CLE @ BOS L 1 0 0 0 - 0 0 - 0 0 - 0 0 0 0 0 0 0 0 -
p106
aVJohn Battle CLE 05/08/1992 CLE @ BOS L 14 6 2 5 40.0 0 0 - 2 2 100.0 0 0 0 2 0 0 1 0 -
p107
aVMike Sanders CLE 05/08/1992 CLE @ BOS L 23 7 3 4 75.0 0 0 - 1 2 50.0 0 2 2 0 1 0 0 5 -
p108
aVLarry Nance CLE 05/04/1992 CLE vs. BOS L 42 14 6 14 42.9 0 0 - 2 2 100.0 3 6 9 2 1 3 1 2 -
p109
aVCraig Ehlo CLE 05/04/1992 CLE vs. BOS L 23 8 3 7 42.9 2 4 50.0 0 0 - 0 2 2 3 1 0 2 1 -
p110
aVBrad Daugherty CLE 05/04/1992 CLE vs. BOS L 37 22 7 15 46.7 0 0 - 8 10 80.0 0 9 9 5 2 2 0 4 -
p111
aVMark Price CLE 05/04/1992 CLE vs. BOS L 37 20 7 12 58.3 1 2 50.0 5 6 83.3 1 1 2 8 1 1 2 1 -
p112
aVSteve Kerr CLE 05/04/1992 CLE vs. BOS L 11 4 2 3 66.7 0 1 0.0 0 0 - 0 0 0 1 0 0 1 2 -
p113
aVMike Sanders CLE 05/04/1992 CLE vs. BOS L 29 4 2 4 50.0 0 0 - 0 0 - 0 2 2 6 0 1 3 1 -
p114
aVJohn Battle CLE 05/04/1992 CLE vs. BOS L 25 14 7 13 53.8 0 1 0.0 0 0 - 0 1 1 1 1 0 1 1 -
p115
aVHot Rod Williams CLE 05/04/1992 CLE vs. BOS L 36 12 4 5 80.0 0 0 - 4 6 66.7 2 7 9 2 2 0 2 2 -
p116
aVJohn Battle CLE 05/02/1992 CLE vs. BOS W 15 8 3 8 37.5 0 1 0.0 2 2 100.0 1 1 2 2 0 0 2 1 -
p117
aVMike Sanders CLE 05/02/1992 CLE vs. BOS W 28 6 3 7 42.9 0 0 - 0 0 - 1 4 5 5 1 1 1 2 -
p118
aVLarry Nance CLE 05/02/1992 CLE vs. BOS W 40 24 9 16 56.3 0 0 - 6 7 85.7 4 5 9 2 0 3 0 2 -
p119
aVCraig Ehlo CLE 05/02/1992 CLE vs. BOS W 33 0 0 9 0.0 0 2 0.0 0 0 - 1 3 4 4 1 0 0 1 -
p120
aVSteve Kerr CLE 05/02/1992 CLE vs. BOS W 11 7 3 4 75.0 1 1 100.0 0 0 - 0 1 1 0 0 0 0 0 -
p121
aVBrad Daugherty CLE 05/02/1992 CLE vs. BOS W 39 26 10 20 50.0 0 0 - 6 7 85.7 4 13 17 2 0 1 1 2 -
p122
aVMark Price CLE 05/02/1992 CLE vs. BOS W 36 16 8 12 66.7 0 0 - 0 0 - 0 0 0 7 5 0 1 1 -
p123
aVHot Rod Williams CLE 05/02/1992 CLE vs. BOS W 34 11 3 8 37.5 0 0 - 5 6 83.3 2 4 6 2 1 2 1 0 -
p124
aVDanny Ferry CLE 05/02/1992 CLE vs. BOS W 2 1 0 0 - 0 0 - 1 1 100.0 0 1 1 0 0 0 0 0 -
p125
aVTerrell Brandon CLE 05/02/1992 CLE vs. BOS W 1 2 1 2 50.0 0 0 - 0 0 - 0 0 0 1 0 0 0 0 -
p126
aVHenry James CLE 05/02/1992 CLE vs. BOS W 1 0 0 0 - 0 0 - 0 0 - 0 0 0 0 0 0 0 0 -
p127
aVMike Sanders CLE 04/30/1992 CLE @ NJN W 29 11 5 9 55.6 0 0 - 1 2 50.0 2 3 5 2 0 0 2 5 -
p128
aVJohn Battle CLE 04/30/1992 CLE @ NJN W 14 2 1 4 25.0 0 0 - 0 0 - 0 1 1 2 0 0 2 1 -
p129
aVCraig Ehlo CLE 04/30/1992 CLE @ NJN W 31 11 5 10 50.0 1 1 100.0 0 0 - 2 3 5 7 1 1 0 2 -
p130
aVSteve Kerr CLE 04/30/1992 CLE @ NJN W 12 3 1 3 33.3 1 1 100.0 0 0 - 0 0 0 0 0 0 0 1 -
p131
aVBrad Daugherty CLE 04/30/1992 CLE @ NJN W 39 19 4 12 33.3 0 0 - 11 13 84.6 3 11 14 2 0 2 6 4 -
p132
aVLarry Nance CLE 04/30/1992 CLE @ NJN W 40 16 8 19 42.1 0 0 - 0 0 - 4 9 13 0 0 2 2 4 -
p133
aVHot Rod Williams CLE 04/30/1992 CLE @ NJN W 36 20 5 11 45.5 0 0 - 10 12 83.3 5 8 13 2 5 2 2 4 -
p134
aVMark Price CLE 04/30/1992 CLE @ NJN W 39 16 5 12 41.7 0 3 0.0 6 7 85.7 1 3 4 3 3 1 5 3 -
p135
aVMark Price CLE 04/28/1992 CLE @ NJN L 39 19 7 18 38.9 0 7 0.0 5 5 100.0 3 2 5 12 0 0 4 4 -
p136
aVDanny Ferry CLE 04/28/1992 CLE @ NJN L 4 0 0 1 0.0 0 0 - 0 0 - 2 2 4 0 1 0 1 1 -
p137
aVLarry Nance CLE 04/28/1992 CLE @ NJN L 45 28 9 18 50.0 0 0 - 10 12 83.3 7 7 14 4 1 2 7 5 -
p138
aVCraig Ehlo CLE 04/28/1992 CLE @ NJN L 9 2 1 2 50.0 0 0 - 0 0 - 1 3 4 0 0 0 0 1 -
p139
aVSteve Kerr CLE 04/28/1992 CLE @ NJN L 30 9 3 8 37.5 1 3 33.3 2 2 100.0 0 1 1 0 3 0 3 2 -
p140
aVMike Sanders CLE 04/28/1992 CLE @ NJN L 15 6 3 8 37.5 0 0 - 0 0 - 2 3 5 2 0 1 1 5 -
p141
aVJohn Battle CLE 04/28/1992 CLE @ NJN L 18 8 4 8 50.0 0 0 - 0 0 - 0 0 0 2 0 0 4 3 -
p142
aVBrad Daugherty CLE 04/28/1992 CLE @ NJN L 44 14 5 13 38.5 0 0 - 4 6 66.7 0 8 8 1 0 0 2 2 -
p143
aVHot Rod Williams CLE 04/28/1992 CLE @ NJN L 36 18 6 11 54.5 0 0 - 6 7 85.7 9 2 11 1 1 1 1 2 -
p144
aVBrad Daugherty CLE 04/25/1992 CLE vs. NJN W 31 29 8 11 72.7 0 0 - 13 14 92.9 2 6 8 0 0 0 3 2 -
p145
aVTerrell Brandon CLE 04/25/1992 CLE vs. NJN W 10 3 1 3 33.3 0 0 - 1 2 50.0 0 2 2 1 0 1 0 2 -
p146
aVHot Rod Williams CLE 04/25/1992 CLE vs. NJN W 32 14 6 9 66.7 0 0 - 2 2 100.0 4 5 9 1 1 1 0 4 -
p147
aVSteve Kerr CLE 04/25/1992 CLE vs. NJN W 21 8 4 7 57.1 0 2 0.0 0 0 - 0 0 0 3 0 0 0 2 -
p148
aVDanny Ferry CLE 04/25/1992 CLE vs. NJN W 2 2 1 1 100.0 0 0 - 0 0 - 1 1 2 0 0 0 0 1 -
p149
aVMark Price CLE 04/25/1992 CLE vs. NJN W 35 15 5 10 50.0 0 2 0.0 5 6 83.3 0 4 4 15 2 0 5 1 -
p150
aVBobby Phills CLE 04/25/1992 CLE vs. NJN W 2 4 2 4 50.0 0 0 - 0 0 - 1 0 1 0 0 0 0 0 -
p151
aVMike Sanders CLE 04/25/1992 CLE vs. NJN W 32 16 7 10 70.0 0 0 - 2 2 100.0 1 3 4 2 4 2 3 3 -
p152
aVLarry Nance CLE 04/25/1992 CLE vs. NJN W 38 19 7 14 50.0 0 0 - 5 6 83.3 2 5 7 3 0 2 2 1 -
p153
aVCraig Ehlo CLE 04/25/1992 CLE vs. NJN W 17 2 1 4 25.0 0 2 0.0 0 0 - 0 5 5 4 0 0 0 0 -
p154
aVHenry James CLE 04/25/1992 CLE vs. NJN W 3 0 0 2 0.0 0 1 0.0 0 0 - 0 0 0 1 0 0 0 0 -
p155
aVJohn Battle CLE 04/25/1992 CLE vs. NJN W 17 6 3 9 33.3 0 0 - 0 1 0.0 1 1 2 2 0 0 0 1 -
p156
aVJohn Battle CLE 04/23/1992 CLE vs. NJN W 22 12 2 7 28.6 0 0 - 8 9 88.9 0 2 2 1 0 1 4 4 -
p157
aVHot Rod Williams CLE 04/23/1992 CLE vs. NJN W 32 19 6 9 66.7 0 0 - 7 9 77.8 5 5 10 2 2 0 0 5 -
p158
aVMark Price CLE 04/23/1992 CLE vs. NJN W 39 35 11 19 57.9 5 11 45.5 8 8 100.0 0 2 2 10 1 1 6 1 -
p159
aVLarry Nance CLE 04/23/1992 CLE vs. NJN W 40 8 4 8 50.0 0 0 - 0 2 0.0 0 7 7 1 1 6 0 2 -
p160
aVBrad Daugherty CLE 04/23/1992 CLE vs. NJN W 47 40 12 22 54.5 0 1 0.0 16 17 94.1 3 13 16 9 1 2 2 2 -
p161
aVSteve Kerr CLE 04/23/1992 CLE vs. NJN W 26 2 1 7 14.3 0 1 0.0 0 0 - 0 1 1 1 1 0 0 2 -
p162
aVCraig Ehlo CLE 04/23/1992 CLE vs. NJN W 19 4 2 7 28.6 0 1 0.0 0 0 - 3 3 6 0 0 1 0 1 -
p163
aVMike Sanders CLE 04/23/1992 CLE vs. NJN W 15 0 0 2 0.0 0 0 - 0 0 - 1 1 2 1 1 0 0 2 -
p164
a.