(lp0
VPLAYER TEAM DATE MATCHUP W/L MIN PTS FGM FGA FG% 3PM 3PA 3P% FTM FTA FT% OREB DREB REB AST STL BLK TOV PF +/-
p1
aVDanny Ainge PHX 06/20/1993 PHX vs. CHI L 30 9 3 6 50.0 2 3 66.7 1 1 100.0 0 3 3 2 2 0 2 0 -
p2
aVFrank Johnson PHX 06/20/1993 PHX vs. CHI L 6 0 0 3 0.0 0 0 - 0 0 - 0 0 0 0 0 0 1 0 -
p3
aVDan Majerle PHX 06/20/1993 PHX vs. CHI L 46 21 7 17 41.2 2 8 25.0 5 6 83.3 2 6 8 2 1 2 1 3 -
p4
aVOliver Miller PHX 06/20/1993 PHX vs. CHI L 14 4 1 4 25.0 0 0 - 2 2 100.0 2 0 2 0 0 3 0 1 -
p5
aVCharles Barkley PHX 06/20/1993 PHX vs. CHI L 44 21 7 18 38.9 0 0 - 7 10 70.0 7 10 17 4 1 0 2 5 -
p6
aVTom Chambers PHX 06/20/1993 PHX vs. CHI L 12 12 4 10 40.0 0 0 - 4 4 100.0 1 4 5 0 0 0 0 2 -
p7
aVKevin Johnson PHX 06/20/1993 PHX vs. CHI L 46 19 6 14 42.9 0 0 - 7 7 100.0 2 3 5 10 1 1 3 3 -
p8
aVMark West PHX 06/20/1993 PHX vs. CHI L 20 4 1 2 50.0 0 0 - 2 4 50.0 3 1 4 1 0 2 0 5 -
p9
aVRichard Dumas PHX 06/20/1993 PHX vs. CHI L 22 8 3 8 37.5 0 0 - 2 2 100.0 1 2 3 1 0 1 0 2 -
p10
aVFrank Johnson PHX 06/18/1993 PHX @ CHI W 10 2 0 2 0.0 0 0 - 2 2 100.0 0 1 1 0 2 0 0 1 -
p11
aVTom Chambers PHX 06/18/1993 PHX @ CHI W 1 0 0 0 - 0 0 - 0 0 - 0 0 0 0 0 0 1 0 -
p12
aVKevin Johnson PHX 06/18/1993 PHX @ CHI W 41 25 10 20 50.0 0 0 - 5 5 100.0 0 1 1 8 1 0 4 2 -
p13
aVDan Majerle PHX 06/18/1993 PHX @ CHI W 44 11 3 11 27.3 2 6 33.3 3 4 75.0 1 11 12 7 2 1 1 1 -
p14
aVCharles Barkley PHX 06/18/1993 PHX @ CHI W 42 24 9 18 50.0 0 3 0.0 6 7 85.7 1 5 6 6 0 0 1 2 -
p15
aVMark West PHX 06/18/1993 PHX @ CHI W 33 5 2 4 50.0 0 0 - 1 2 50.0 4 5 9 1 0 1 0 3 -
p16
aVRichard Dumas PHX 06/18/1993 PHX @ CHI W 30 25 12 14 85.7 0 0 - 1 2 50.0 2 3 5 0 1 1 2 2 -
p17
aVDanny Ainge PHX 06/18/1993 PHX @ CHI W 22 8 3 6 50.0 1 1 100.0 1 2 50.0 2 1 3 1 0 0 1 1 -
p18
aVJerrod Mustaf PHX 06/18/1993 PHX @ CHI W 1 0 0 0 - 0 0 - 0 0 - 0 0 0 0 0 0 0 0 -
p19
aVOliver Miller PHX 06/18/1993 PHX @ CHI W 16 8 3 8 37.5 0 0 - 2 2 100.0 4 4 8 1 0 1 1 4 -
p20
aVCharles Barkley PHX 06/16/1993 PHX @ CHI L 46 32 10 19 52.6 0 2 0.0 12 15 80.0 3 9 12 10 3 1 1 1 -
p21
aVFrank Johnson PHX 06/16/1993 PHX @ CHI L 3 4 2 2 100.0 0 0 - 0 0 - 0 0 0 0 1 0 0 2 -
p22
aVKevin Johnson PHX 06/16/1993 PHX @ CHI L 43 19 7 16 43.8 0 0 - 5 6 83.3 0 3 3 4 0 0 3 3 -
p23
aVOliver Miller PHX 06/16/1993 PHX @ CHI L 14 2 1 3 33.3 0 1 0.0 0 0 - 0 2 2 1 1 0 1 5 -
p24
aVMark West PHX 06/16/1993 PHX @ CHI L 19 8 3 5 60.0 0 0 - 2 2 100.0 1 3 4 0 0 1 1 6 -
p25
aVDan Majerle PHX 06/16/1993 PHX @ CHI L 46 14 5 9 55.6 3 5 60.0 1 3 33.3 2 3 5 3 0 1 0 1 -
p26
aVDanny Ainge PHX 06/16/1993 PHX @ CHI L 21 2 1 5 20.0 0 0 - 0 0 - 1 2 3 2 0 0 1 3 -
p27
aVRichard Dumas PHX 06/16/1993 PHX @ CHI L 25 17 8 11 72.7 0 0 - 1 1 100.0 1 0 1 0 1 0 2 3 -
p28
aVTom Chambers PHX 06/16/1993 PHX @ CHI L 23 7 1 9 11.1 0 0 - 5 6 83.3 0 4 4 0 0 0 1 4 -
p29
aVCharles Barkley PHX 06/13/1993 PHX @ CHI W 53 24 9 20 45.0 1 1 100.0 5 9 55.6 2 17 19 4 1 1 2 5 -
p30
aVTom Chambers PHX 06/13/1993 PHX @ CHI W 27 12 5 9 55.6 0 0 - 2 2 100.0 2 0 2 0 1 1 3 2 -
p31
aVFrank Johnson PHX 06/13/1993 PHX @ CHI W 2 0 0 0 - 0 0 - 0 0 - 0 0 0 0 0 0 0 0 -
p32
aVDanny Ainge PHX 06/13/1993 PHX @ CHI W 40 10 2 5 40.0 2 3 66.7 4 4 100.0 1 4 5 5 0 0 1 4 -
p33
aVDan Majerle PHX 06/13/1993 PHX @ CHI W 59 28 10 17 58.8 6 8 75.0 2 2 100.0 3 4 7 4 2 0 0 0 -
p34
aVOliver Miller PHX 06/13/1993 PHX @ CHI W 11 2 1 1 100.0 0 0 - 0 0 - 1 1 2 1 0 2 3 4 -
p35
aVJerrod Mustaf PHX 06/13/1993 PHX @ CHI W 1 0 0 0 - 0 0 - 0 0 - 0 0 0 0 0 0 0 0 -
p36
aVRichard Dumas PHX 06/13/1993 PHX @ CHI W 24 17 7 16 43.8 0 0 - 3 4 75.0 3 2 5 1 3 1 1 3 -
p37
aVMark West PHX 06/13/1993 PHX @ CHI W 36 11 4 7 57.1 0 0 - 3 6 50.0 3 2 5 1 0 2 2 3 -
p38
aVKevin Johnson PHX 06/13/1993 PHX @ CHI W 62 25 11 24 45.8 0 1 0.0 3 4 75.0 0 7 7 9 2 1 7 5 -
p39
aVOliver Miller PHX 06/11/1993 PHX vs. CHI L 25 8 4 6 66.7 0 0 - 0 0 - 2 4 6 2 2 3 2 2 -
p40
aVFrank Johnson PHX 06/11/1993 PHX vs. CHI L 14 4 1 3 33.3 0 0 - 2 2 100.0 0 0 0 4 0 0 1 3 -
p41
aVDan Majerle PHX 06/11/1993 PHX vs. CHI L 43 13 4 14 28.6 3 8 37.5 2 2 100.0 1 8 9 4 2 5 2 1 -
p42
aVCharles Barkley PHX 06/11/1993 PHX vs. CHI L 46 42 16 26 61.5 0 1 0.0 10 12 83.3 6 7 13 4 1 1 2 3 -
p43
aVKevin Johnson PHX 06/11/1993 PHX vs. CHI L 32 4 2 8 25.0 0 0 - 0 0 - 0 0 0 6 3 0 4 6 -
p44
aVMark West PHX 06/11/1993 PHX vs. CHI L 8 0 0 0 - 0 0 - 0 0 - 0 2 2 1 0 1 1 2 -
p45
aVTom Chambers PHX 06/11/1993 PHX vs. CHI L 26 9 4 9 44.4 0 0 - 1 3 33.3 2 5 7 3 0 2 3 4 -
p46
aVRichard Dumas PHX 06/11/1993 PHX vs. CHI L 17 8 4 8 50.0 0 0 - 0 0 - 0 0 0 0 1 0 0 1 -
p47
aVDanny Ainge PHX 06/11/1993 PHX vs. CHI L 29 20 8 14 57.1 3 4 75.0 1 1 100.0 3 0 3 4 0 0 2 1 -
p48
aVCharles Barkley PHX 06/09/1993 PHX vs. CHI L 46 21 9 25 36.0 1 1 100.0 2 3 66.7 3 8 11 5 1 0 2 4 -
p49
aVDan Majerle PHX 06/09/1993 PHX vs. CHI L 43 16 6 11 54.5 1 4 25.0 3 3 100.0 3 5 8 2 1 4 3 2 -
p50
aVTom Chambers PHX 06/09/1993 PHX vs. CHI L 3 0 0 2 0.0 0 0 - 0 0 - 0 0 0 0 0 0 1 0 -
p51
aVKevin Johnson PHX 06/09/1993 PHX vs. CHI L 36 11 4 13 30.8 0 1 0.0 3 3 100.0 0 2 2 2 1 0 5 0 -
p52
aVDanny Ainge PHX 06/09/1993 PHX vs. CHI L 20 4 2 4 50.0 0 1 0.0 0 1 0.0 0 1 1 1 0 0 0 3 -
p53
aVFrank Johnson PHX 06/09/1993 PHX vs. CHI L 9 8 4 7 57.1 0 0 - 0 0 - 1 0 1 1 0 0 0 0 -
p54
aVMark West PHX 06/09/1993 PHX vs. CHI L 14 6 3 3 100.0 0 0 - 0 1 0.0 1 1 2 0 0 0 1 2 -
p55
aVRichard Dumas PHX 06/09/1993 PHX vs. CHI L 42 20 10 20 50.0 0 0 - 0 0 - 8 4 12 4 2 3 1 4 -
p56
aVOliver Miller PHX 06/09/1993 PHX vs. CHI L 27 6 2 5 40.0 0 0 - 2 4 50.0 1 4 5 3 1 3 0 4 -
p57
aVJerrod Mustaf PHX 06/05/1993 PHX vs. SEA W 1 0 0 0 - 0 0 - 0 0 - 0 0 0 0 0 0 0 0 -
p58
aVMark West PHX 06/05/1993 PHX vs. SEA W 24 11 3 5 60.0 0 0 - 5 6 83.3 1 1 2 0 1 2 1 3 -
p59
aVTom Chambers PHX 06/05/1993 PHX vs. SEA W 29 17 5 13 38.5 1 2 50.0 6 6 100.0 4 2 6 1 0 2 0 4 -
p60
aVDanny Ainge PHX 06/05/1993 PHX vs. SEA W 27 13 3 6 50.0 3 5 60.0 4 4 100.0 1 3 4 3 2 0 0 5 -
p61
aVCharles Barkley PHX 06/05/1993 PHX vs. SEA W 46 44 12 20 60.0 1 1 100.0 19 22 86.4 10 14 24 1 1 1 1 3 -
p62
aVOliver Miller PHX 06/05/1993 PHX vs. SEA W 16 1 0 2 0.0 0 0 - 1 2 50.0 0 1 1 0 0 2 2 3 -
p63
aVKevin Johnson PHX 06/05/1993 PHX vs. SEA W 39 22 4 11 36.4 0 0 - 14 16 87.5 0 2 2 9 4 2 4 4 -
p64
aVDan Majerle PHX 06/05/1993 PHX vs. SEA W 45 11 3 11 27.3 1 4 25.0 4 4 100.0 0 7 7 7 2 2 1 2 -
p65
aVNegele Knight PHX 06/05/1993 PHX vs. SEA W 1 0 0 0 - 0 0 - 0 0 - 0 0 0 0 0 0 1 0 -
p66
aVFrank Johnson PHX 06/05/1993 PHX vs. SEA W 12 4 0 4 0.0 0 0 - 4 4 100.0 0 0 0 0 0 0 0 3 -
p67
aVCedric Ceballos PHX 06/03/1993 PHX @ SEA L 4 8 3 4 75.0 0 0 - 2 2 100.0 1 0 1 0 0 0 0 0 -
p68
aVDanny Ainge PHX 06/03/1993 PHX @ SEA L 31 7 2 10 20.0 1 6 16.7 2 2 100.0 1 1 2 2 0 0 1 4 -
p69
aVKevin Johnson PHX 06/03/1993 PHX @ SEA L 38 22 8 15 53.3 0 0 - 6 7 85.7 0 3 3 4 0 0 5 2 -
p70
aVRichard Dumas PHX 06/03/1993 PHX @ SEA L 11 2 1 4 25.0 0 0 - 0 0 - 3 0 3 0 1 0 1 1 -
p71
aVFrank Johnson PHX 06/03/1993 PHX @ SEA L 14 8 2 4 50.0 0 1 0.0 4 6 66.7 0 1 1 2 1 0 0 3 -
p72
aVOliver Miller PHX 06/03/1993 PHX @ SEA L 27 14 6 12 50.0 0 1 0.0 2 3 66.7 1 5 6 2 2 1 1 2 -
p73
aVJerrod Mustaf PHX 06/03/1993 PHX @ SEA L 2 2 1 2 50.0 0 0 - 0 0 - 0 1 1 0 0 0 0 0 -
p74
aVCharles Barkley PHX 06/03/1993 PHX @ SEA L 38 13 4 14 28.6 0 3 0.0 5 8 62.5 5 6 11 3 1 1 3 3 -
p75
aVNegele Knight PHX 06/03/1993 PHX @ SEA L 2 4 2 3 66.7 0 0 - 0 0 - 0 0 0 1 0 1 0 0 -
p76
aVDan Majerle PHX 06/03/1993 PHX @ SEA L 44 12 4 11 36.4 1 4 25.0 3 4 75.0 1 6 7 3 1 0 1 3 -
p77
aVTom Chambers PHX 06/03/1993 PHX @ SEA L 16 8 4 6 66.7 0 0 - 0 0 - 0 2 2 0 0 0 2 3 -
p78
aVMark West PHX 06/03/1993 PHX @ SEA L 13 2 1 3 33.3 0 0 - 0 0 - 3 2 5 0 0 1 1 4 -
p79
aVFrank Johnson PHX 06/01/1993 PHX vs. SEA W 13 4 1 2 50.0 0 0 - 2 2 100.0 0 2 2 0 0 0 1 3 -
p80
aVCharles Barkley PHX 06/01/1993 PHX vs. SEA W 47 43 16 22 72.7 0 0 - 11 11 100.0 5 10 15 10 2 2 3 2 -
p81
aVOliver Miller PHX 06/01/1993 PHX vs. SEA W 22 8 4 7 57.1 0 0 - 0 0 - 2 3 5 5 2 1 4 2 -
p82
aVTom Chambers PHX 06/01/1993 PHX vs. SEA W 17 11 5 14 35.7 1 1 100.0 0 0 - 2 2 4 1 0 0 0 3 -
p83
aVKevin Johnson PHX 06/01/1993 PHX vs. SEA W 36 13 5 11 45.5 0 0 - 3 4 75.0 0 2 2 10 2 0 5 1 -
p84
aVRichard Dumas PHX 06/01/1993 PHX vs. SEA W 17 4 1 5 20.0 0 0 - 2 4 50.0 1 0 1 0 0 0 1 4 -
p85
aVJerrod Mustaf PHX 06/01/1993 PHX vs. SEA W 1 0 0 0 - 0 0 - 0 0 - 0 0 0 0 0 0 0 0 -
p86
aVNegele Knight PHX 06/01/1993 PHX vs. SEA W 1 0 0 0 - 0 0 - 0 0 - 0 0 0 0 0 0 0 0 -
p87
aVDan Majerle PHX 06/01/1993 PHX vs. SEA W 47 34 12 17 70.6 8 10 80.0 2 2 100.0 1 6 7 4 1 1 2 3 -
p88
aVMark West PHX 06/01/1993 PHX vs. SEA W 25 1 0 1 0.0 0 0 - 1 2 50.0 2 3 5 0 1 3 1 6 -
p89
aVCedric Ceballos PHX 06/01/1993 PHX vs. SEA W 3 0 0 1 0.0 0 0 - 0 0 - 0 0 0 1 0 1 0 1 -
p90
aVDanny Ainge PHX 06/01/1993 PHX vs. SEA W 11 2 0 1 0.0 0 1 0.0 2 2 100.0 1 0 1 1 0 0 0 1 -
p91
aVOliver Miller PHX 05/30/1993 PHX @ SEA L 23 11 5 9 55.6 0 0 - 1 2 50.0 2 1 3 1 0 0 3 3 -
p92
aVFrank Johnson PHX 05/30/1993 PHX @ SEA L 11 4 1 5 20.0 0 1 0.0 2 2 100.0 0 1 1 1 2 0 2 1 -
p93
aVMark West PHX 05/30/1993 PHX @ SEA L 13 4 2 4 50.0 0 0 - 0 0 - 2 3 5 1 1 2 0 3 -
p94
aVCedric Ceballos PHX 05/30/1993 PHX @ SEA L 10 4 2 2 100.0 0 0 - 0 0 - 2 2 4 0 0 0 1 1 -
p95
aVDan Majerle PHX 05/30/1993 PHX @ SEA L 42 16 6 14 42.9 4 9 44.4 0 0 - 1 4 5 4 2 0 1 2 -
p96
aVKevin Johnson PHX 05/30/1993 PHX @ SEA L 35 6 2 11 18.2 0 0 - 2 3 66.7 0 1 1 7 1 0 4 2 -
p97
aVNegele Knight PHX 05/30/1993 PHX @ SEA L 2 2 1 1 100.0 0 0 - 0 0 - 0 0 0 0 0 0 1 0 -
p98
aVDanny Ainge PHX 05/30/1993 PHX @ SEA L 26 9 2 4 50.0 2 3 66.7 3 3 100.0 1 2 3 3 1 0 0 4 -
p99
aVCharles Barkley PHX 05/30/1993 PHX @ SEA L 39 27 11 20 55.0 1 5 20.0 4 5 80.0 3 4 7 4 2 1 5 5 -
p100
aVTom Chambers PHX 05/30/1993 PHX @ SEA L 20 14 3 8 37.5 0 1 0.0 8 10 80.0 2 2 4 0 0 0 1 2 -
p101
aVRichard Dumas PHX 05/30/1993 PHX @ SEA L 19 4 2 7 28.6 0 0 - 0 0 - 0 1 1 0 1 0 1 3 -
p102
aVDan Majerle PHX 05/28/1993 PHX @ SEA W 34 10 3 8 37.5 1 4 25.0 3 4 75.0 3 3 6 3 1 0 0 4 -
p103
aVRichard Dumas PHX 05/28/1993 PHX @ SEA W 18 11 5 8 62.5 0 0 - 1 2 50.0 1 0 1 0 1 0 2 2 -
p104
aVOliver Miller PHX 05/28/1993 PHX @ SEA W 18 4 1 2 50.0 0 0 - 2 4 50.0 0 2 2 1 1 2 0 3 -
p105
aVKevin Johnson PHX 05/28/1993 PHX @ SEA W 35 20 5 7 71.4 0 0 - 10 14 71.4 0 1 1 9 0 1 2 4 -
p106
aVCedric Ceballos PHX 05/28/1993 PHX @ SEA W 18 14 5 11 45.5 0 0 - 4 4 100.0 1 3 4 0 3 0 0 0 -
p107
aVTom Chambers PHX 05/28/1993 PHX @ SEA W 16 10 3 6 50.0 0 0 - 4 4 100.0 0 0 0 0 2 0 2 3 -
p108
aVDanny Ainge PHX 05/28/1993 PHX @ SEA W 27 7 3 6 50.0 1 4 25.0 0 0 - 1 1 2 4 1 0 0 2 -
p109
aVCharles Barkley PHX 05/28/1993 PHX @ SEA W 42 16 7 20 35.0 0 2 0.0 2 3 66.7 6 10 16 2 4 1 2 4 -
p110
aVMark West PHX 05/28/1993 PHX @ SEA W 19 2 0 3 0.0 0 0 - 2 4 50.0 1 5 6 0 0 2 1 1 -
p111
aVFrank Johnson PHX 05/28/1993 PHX @ SEA W 13 10 4 5 80.0 1 1 100.0 1 2 50.0 0 0 0 1 0 0 0 4 -
p112
aVRichard Dumas PHX 05/26/1993 PHX vs. SEA L 9 6 2 3 66.7 0 0 - 2 2 100.0 0 1 1 0 0 0 1 2 -
p113
aVTom Chambers PHX 05/26/1993 PHX vs. SEA L 21 2 1 6 16.7 0 0 - 0 0 - 2 1 3 1 0 1 0 4 -
p114
aVDanny Ainge PHX 05/26/1993 PHX vs. SEA L 16 6 1 6 16.7 1 4 25.0 3 3 100.0 1 0 1 3 1 0 0 1 -
p115
aVDan Majerle PHX 05/26/1993 PHX vs. SEA L 48 29 10 18 55.6 4 8 50.0 5 9 55.6 4 6 10 4 1 3 3 4 -
p116
aVMark West PHX 05/26/1993 PHX vs. SEA L 9 0 0 1 0.0 0 0 - 0 0 - 0 1 1 0 0 1 2 2 -
p117
aVFrank Johnson PHX 05/26/1993 PHX vs. SEA L 9 0 0 0 - 0 0 - 0 0 - 1 0 1 2 0 0 1 1 -
p118
aVCedric Ceballos PHX 05/26/1993 PHX vs. SEA L 14 10 3 3 100.0 0 0 - 4 6 66.7 1 1 2 0 0 3 1 2 -
p119
aVCharles Barkley PHX 05/26/1993 PHX vs. SEA L 44 24 9 19 47.4 0 2 0.0 6 8 75.0 0 10 10 6 0 0 0 3 -
p120
aVKevin Johnson PHX 05/26/1993 PHX vs. SEA L 39 12 3 8 37.5 0 0 - 6 11 54.5 0 2 2 4 2 2 3 3 -
p121
aVOliver Miller PHX 05/26/1993 PHX vs. SEA L 31 10 5 6 83.3 0 0 - 0 2 0.0 1 7 8 2 2 3 2 3 -
p122
aVKevin Johnson PHX 05/24/1993 PHX vs. SEA W 32 16 7 10 70.0 0 0 - 2 3 66.7 1 2 3 6 3 0 2 2 -
p123
aVFrank Johnson PHX 05/24/1993 PHX vs. SEA W 16 8 3 5 60.0 0 0 - 2 3 66.7 1 1 2 2 0 0 0 1 -
p124
aVCedric Ceballos PHX 05/24/1993 PHX vs. SEA W 23 21 8 12 66.7 0 0 - 5 6 83.3 2 1 3 3 0 2 1 1 -
p125
aVMark West PHX 05/24/1993 PHX vs. SEA W 18 4 2 3 66.7 0 0 - 0 0 - 0 3 3 1 0 4 0 1 -
p126
aVNegele Knight PHX 05/24/1993 PHX vs. SEA W 2 2 1 2 50.0 0 0 - 0 0 - 0 0 0 0 0 0 0 0 -
p127
aVRichard Dumas PHX 05/24/1993 PHX vs. SEA W 4 4 1 1 100.0 0 0 - 2 2 100.0 0 0 0 0 0 0 0 1 -
p128
aVDanny Ainge PHX 05/24/1993 PHX vs. SEA W 24 11 4 13 30.8 3 7 42.9 0 0 - 1 0 1 3 0 1 2 4 -
p129
aVDan Majerle PHX 05/24/1993 PHX vs. SEA W 45 9 4 10 40.0 1 3 33.3 0 0 - 0 5 5 9 2 1 3 3 -
p130
aVTom Chambers PHX 05/24/1993 PHX vs. SEA W 15 3 1 5 20.0 0 0 - 1 1 100.0 0 3 3 1 1 2 0 2 -
p131
aVCharles Barkley PHX 05/24/1993 PHX vs. SEA W 36 12 6 14 42.9 0 3 0.0 0 0 - 4 10 14 2 0 1 3 2 -
p132
aVOliver Miller PHX 05/24/1993 PHX vs. SEA W 25 15 5 7 71.4 0 0 - 5 10 50.0 3 7 10 4 2 5 4 3 -
p133
aVKevin Johnson PHX 05/20/1993 PHX @ SAN W 38 18 6 12 50.0 0 0 - 6 10 60.0 2 1 3 8 3 0 4 3 -
p134
aVCedric Ceballos PHX 05/20/1993 PHX @ SAN W 9 4 2 2 100.0 0 0 - 0 0 - 0 0 0 1 0 0 0 0 -
p135
aVMark West PHX 05/20/1993 PHX @ SAN W 15 2 1 2 50.0 0 0 - 0 0 - 1 2 3 0 0 0 1 1 -
p136
aVTom Chambers PHX 05/20/1993 PHX @ SAN W 13 10 5 9 55.6 0 0 - 0 0 - 0 3 3 0 0 0 1 4 -
p137
aVCharles Barkley PHX 05/20/1993 PHX @ SAN W 42 28 10 24 41.7 2 5 40.0 6 9 66.7 4 17 21 4 4 2 4 3 -
p138
aVOliver Miller PHX 05/20/1993 PHX @ SAN W 25 12 5 8 62.5 0 0 - 2 4 50.0 1 4 5 1 2 5 1 4 -
p139
aVFrank Johnson PHX 05/20/1993 PHX @ SAN W 11 4 1 2 50.0 0 0 - 2 2 100.0 0 0 0 2 0 0 1 1 -
p140
aVDanny Ainge PHX 05/20/1993 PHX @ SAN W 25 6 2 8 25.0 1 2 50.0 1 2 50.0 0 1 1 4 0 0 0 4 -
p141
aVDan Majerle PHX 05/20/1993 PHX @ SAN W 48 18 7 16 43.8 3 5 60.0 1 1 100.0 0 4 4 2 1 1 1 2 -
p142
aVRichard Dumas PHX 05/20/1993 PHX @ SAN W 14 0 0 2 0.0 0 0 - 0 0 - 0 0 0 0 1 0 1 1 -
p143
aVRichard Dumas PHX 05/18/1993 PHX vs. SAN W 15 10 4 6 66.7 0 0 - 2 2 100.0 0 1 1 1 0 1 1 1 -
p144
aVTom Chambers PHX 05/18/1993 PHX vs. SAN W 4 0 0 3 0.0 0 0 - 0 0 - 0 0 0 0 0 0 1 1 -
p145
aVCharles Barkley PHX 05/18/1993 PHX vs. SAN W 44 36 11 16 68.8 1 1 100.0 13 15 86.7 5 7 12 3 0 1 3 4 -
p146
aVFrank Johnson PHX 05/18/1993 PHX vs. SAN W 11 6 2 2 100.0 0 0 - 2 2 100.0 0 1 1 1 0 0 0 0 -
p147
aVKevin Johnson PHX 05/18/1993 PHX vs. SAN W 38 15 7 9 77.8 0 0 - 1 2 50.0 2 4 6 12 0 1 3 1 -
p148
aVOliver Miller PHX 05/18/1993 PHX vs. SAN W 14 4 2 2 100.0 0 0 - 0 0 - 1 1 2 2 0 1 0 4 -
p149
aVCedric Ceballos PHX 05/18/1993 PHX vs. SAN W 14 8 4 4 100.0 0 0 - 0 0 - 0 1 1 3 0 0 0 2 -
p150
aVDanny Ainge PHX 05/18/1993 PHX vs. SAN W 24 8 3 8 37.5 2 4 50.0 0 0 - 1 0 1 2 1 0 1 2 -
p151
aVDan Majerle PHX 05/18/1993 PHX vs. SAN W 43 17 8 17 47.1 0 3 0.0 1 1 100.0 0 4 4 2 0 2 1 1 -
p152
aVMark West PHX 05/18/1993 PHX vs. SAN W 33 5 2 5 40.0 0 0 - 1 3 33.3 0 3 3 2 0 2 0 3 -
p153
aVOliver Miller PHX 05/16/1993 PHX @ SAN L 27 4 1 3 33.3 0 0 - 2 4 50.0 2 7 9 3 2 2 0 5 -
p154
aVMark West PHX 05/16/1993 PHX @ SAN L 18 8 3 5 60.0 0 0 - 2 3 66.7 1 1 2 0 0 0 0 4 -
p155
aVKevin Johnson PHX 05/16/1993 PHX @ SAN L 43 26 7 14 50.0 0 1 0.0 12 14 85.7 0 2 2 8 1 0 1 2 -
p156
aVFrank Johnson PHX 05/16/1993 PHX @ SAN L 1 2 0 0 - 0 0 - 2 2 100.0 0 0 0 0 0 0 0 0 -
p157
aVRichard Dumas PHX 05/16/1993 PHX @ SAN L 30 7 3 11 27.3 0 0 - 1 1 100.0 2 0 2 2 1 0 3 3 -
p158
aVNegele Knight PHX 05/16/1993 PHX @ SAN L 1 0 0 1 0.0 0 0 - 0 0 - 0 0 0 1 0 0 0 0 -
p159
aVCharles Barkley PHX 05/16/1993 PHX @ SAN L 41 18 7 20 35.0 0 2 0.0 4 6 66.7 4 8 12 4 0 1 6 5 -
p160
aVJerrod Mustaf PHX 05/16/1993 PHX @ SAN L 1 2 1 1 100.0 0 0 - 0 0 - 0 0 0 0 0 0 0 0 -
p161
aVDan Majerle PHX 05/16/1993 PHX @ SAN L 44 16 6 16 37.5 2 9 22.2 2 4 50.0 1 4 5 3 0 2 1 3 -
p162
aVTom Chambers PHX 05/16/1993 PHX @ SAN L 6 5 1 4 25.0 0 0 - 3 4 75.0 2 0 2 1 0 0 0 2 -
p163
aVDanny Ainge PHX 05/16/1993 PHX @ SAN L 28 15 6 10 60.0 3 5 60.0 0 0 - 1 1 2 0 0 0 0 5 -
p164
aVFrank Johnson PHX 05/15/1993 PHX @ SAN L 3 0 0 1 0.0 0 0 - 0 0 - 0 0 0 0 0 0 0 0 -
p165
aVKevin Johnson PHX 05/15/1993 PHX @ SAN L 38 26 9 17 52.9 0 0 - 8 10 80.0 2 4 6 7 0 1 4 0 -
p166
aVOliver Miller PHX 05/15/1993 PHX @ SAN L 22 4 1 3 33.3 0 0 - 2 2 100.0 2 4 6 3 0 4 6 5 -
p167
aVJerrod Mustaf PHX 05/15/1993 PHX @ SAN L 3 2 1 2 50.0 0 0 - 0 0 - 0 1 1 0 0 1 0 0 -
p168
aVTom Chambers PHX 05/15/1993 PHX @ SAN L 16 3 1 7 14.3 0 1 0.0 1 2 50.0 1 3 4 0 0 0 1 1 -
p169
aVDanny Ainge PHX 05/15/1993 PHX @ SAN L 26 2 0 5 0.0 0 4 0.0 2 2 100.0 0 0 0 2 0 0 2 2 -
p170
aVCedric Ceballos PHX 05/15/1993 PHX @ SAN L 11 8 4 9 44.4 0 0 - 0 0 - 1 3 4 0 0 0 0 0 -
p171
aVNegele Knight PHX 05/15/1993 PHX @ SAN L 3 0 0 0 - 0 0 - 0 0 - 0 0 0 0 0 0 0 0 -
p172
aVMark West PHX 05/15/1993 PHX @ SAN L 11 5 2 2 100.0 0 0 - 1 1 100.0 0 1 1 0 0 0 0 1 -
p173
aVCharles Barkley PHX 05/15/1993 PHX @ SAN L 40 22 9 21 42.9 0 2 0.0 4 6 66.7 4 10 14 4 0 1 1 5 -
p174
aVDan Majerle PHX 05/15/1993 PHX @ SAN L 42 10 2 10 20.0 0 2 0.0 6 7 85.7 3 3 6 2 2 0 0 2 -
p175
aVRichard Dumas PHX 05/15/1993 PHX @ SAN L 25 14 6 9 66.7 0 1 0.0 2 2 100.0 0 2 2 0 2 0 1 4 -
p176
aVKevin Johnson PHX 05/13/1993 PHX vs. SAN W 34 15 3 7 42.9 0 0 - 9 10 90.0 0 2 2 12 0 2 2 2 -
p177
aVDan Majerle PHX 05/13/1993 PHX vs. SAN W 48 18 7 16 43.8 1 5 20.0 3 7 42.9 0 1 1 4 0 0 1 3 -
p178
aVMark West PHX 05/13/1993 PHX vs. SAN W 18 4 1 1 100.0 0 0 - 2 4 50.0 0 0 0 0 0 3 0 2 -
p179
aVDanny Ainge PHX 05/13/1993 PHX vs. SAN W 20 3 1 7 14.3 1 3 33.3 0 1 0.0 0 6 6 1 0 0 2 3 -
p180
aVCharles Barkley PHX 05/13/1993 PHX vs. SAN W 35 35 12 18 66.7 1 2 50.0 10 14 71.4 0 10 10 2 7 3 0 2 -
p181
aVFrank Johnson PHX 05/13/1993 PHX vs. SAN W 1 0 0 0 - 0 0 - 0 0 - 0 0 0 1 0 0 0 1 -
p182
aVCedric Ceballos PHX 05/13/1993 PHX vs. SAN W 7 5 2 2 100.0 0 0 - 1 2 50.0 0 1 1 0 0 0 0 1 -
p183
aVOliver Miller PHX 05/13/1993 PHX vs. SAN W 26 8 4 4 100.0 0 0 - 0 0 - 0 3 3 4 0 4 0 3 -
p184
aVRichard Dumas PHX 05/13/1993 PHX vs. SAN W 31 12 5 9 55.6 0 0 - 2 3 66.7 2 2 4 3 0 0 2 3 -
p185
aVTom Chambers PHX 05/13/1993 PHX vs. SAN W 20 9 3 6 50.0 0 0 - 3 3 100.0 2 3 5 0 0 0 2 5 -
p186
aVKevin Johnson PHX 05/11/1993 PHX vs. SAN W 42 25 9 18 50.0 0 0 - 7 8 87.5 0 2 2 7 5 1 2 1 -
p187
aVFrank Johnson PHX 05/11/1993 PHX vs. SAN W 3 0 0 0 - 0 0 - 0 0 - 0 0 0 0 0 0 0 0 -
p188
aVDanny Ainge PHX 05/11/1993 PHX vs. SAN W 12 6 2 7 28.6 0 4 0.0 2 2 100.0 0 2 2 2 1 1 1 2 -
p189
aVOliver Miller PHX 05/11/1993 PHX vs. SAN W 21 4 2 2 100.0 0 0 - 0 0 - 1 6 7 4 1 5 1 4 -
p190
aVMark West PHX 05/11/1993 PHX vs. SAN W 28 10 4 5 80.0 0 0 - 2 2 100.0 2 4 6 1 1 1 3 5 -
p191
aVDan Majerle PHX 05/11/1993 PHX vs. SAN W 44 13 5 11 45.5 3 4 75.0 0 0 - 1 4 5 4 3 1 1 0 -
p192
aVCedric Ceballos PHX 05/11/1993 PHX vs. SAN W 5 0 0 0 - 0 0 - 0 0 - 0 1 1 0 0 0 0 0 -
p193
aVRichard Dumas PHX 05/11/1993 PHX vs. SAN W 38 22 9 12 75.0 0 0 - 4 4 100.0 3 0 3 2 2 2 2 1 -
p194
aVTom Chambers PHX 05/11/1993 PHX vs. SAN W 8 0 0 4 0.0 0 0 - 0 0 - 0 0 0 1 0 0 0 1 -
p195
aVCharles Barkley PHX 05/11/1993 PHX vs. SAN W 39 18 5 21 23.8 0 2 0.0 8 9 88.9 0 10 10 3 2 1 3 2 -
p196
aVNegele Knight PHX 05/09/1993 PHX vs. LAL W 1 0 0 0 - 0 0 - 0 0 - 0 0 0 0 0 0 0 0 -
p197
aVDan Majerle PHX 05/09/1993 PHX vs. LAL W 46 19 8 13 61.5 3 7 42.9 0 0 - 0 3 3 1 1 2 3 3 -
p198
aVOliver Miller PHX 05/09/1993 PHX vs. LAL W 35 17 7 11 63.6 0 0 - 3 5 60.0 4 10 14 2 0 7 1 3 -
p199
aVFrank Johnson PHX 05/09/1993 PHX vs. LAL W 3 0 0 1 0.0 0 0 - 0 0 - 0 1 1 0 0 0 0 0 -
p200
aVKevin Johnson PHX 05/09/1993 PHX vs. LAL W 47 24 10 16 62.5 0 0 - 4 6 66.7 1 2 3 13 4 1 4 5 -
p201
aVCedric Ceballos PHX 05/09/1993 PHX vs. LAL W 15 2 1 5 20.0 0 0 - 0 2 0.0 1 2 3 0 1 0 0 1 -
p202
aVDanny Ainge PHX 05/09/1993 PHX vs. LAL W 37 9 2 6 33.3 1 2 50.0 4 4 100.0 2 5 7 3 0 0 2 2 -
p203
aVCharles Barkley PHX 05/09/1993 PHX vs. LAL W 46 31 9 23 39.1 1 1 100.0 12 14 85.7 3 11 14 5 1 2 2 1 -
p204
aVTom Chambers PHX 05/09/1993 PHX vs. LAL W 7 4 2 5 40.0 0 0 - 0 0 - 0 1 1 0 0 1 1 1 -
p205
aVRichard Dumas PHX 05/09/1993 PHX vs. LAL W 15 4 2 5 40.0 0 0 - 0 0 - 1 5 6 2 0 0 1 2 -
p206
aVMark West PHX 05/09/1993 PHX vs. LAL W 13 2 1 1 100.0 0 0 - 0 0 - 1 2 3 1 0 0 0 0 -
p207
aVDanny Ainge PHX 05/06/1993 PHX @ LAL W 28 13 4 7 57.1 2 3 66.7 3 4 75.0 0 3 3 2 0 0 1 3 -
p208
aVFrank Johnson PHX 05/06/1993 PHX @ LAL W 3 0 0 0 - 0 0 - 0 0 - 0 0 0 0 0 0 0 1 -
p209
aVOliver Miller PHX 05/06/1993 PHX @ LAL W 29 16 7 11 63.6 0 0 - 2 5 40.0 2 6 8 2 1 2 2 2 -
p210
aVCharles Barkley PHX 05/06/1993 PHX @ LAL W 39 28 13 21 61.9 0 2 0.0 2 4 50.0 3 8 11 4 2 3 0 1 -
p211
aVTom Chambers PHX 05/06/1993 PHX @ LAL W 12 2 1 3 33.3 0 0 - 0 0 - 0 3 3 0 1 0 0 2 -
p212
aVDan Majerle PHX 05/06/1993 PHX @ LAL W 43 8 3 10 30.0 2 6 33.3 0 0 - 0 5 5 3 0 0 2 3 -
p213
aVCedric Ceballos PHX 05/06/1993 PHX @ LAL W 5 0 0 1 0.0 0 0 - 0 0 - 0 1 1 1 0 0 0 1 -
p214
aVMark West PHX 05/06/1993 PHX @ LAL W 19 4 2 2 100.0 0 0 - 0 0 - 2 6 8 1 0 2 0 2 -
p215
aVRichard Dumas PHX 05/06/1993 PHX @ LAL W 23 14 4 11 36.4 0 0 - 6 8 75.0 3 3 6 3 1 2 0 3 -
p216
aVKevin Johnson PHX 05/06/1993 PHX @ LAL W 39 16 7 16 43.8 0 0 - 2 3 66.7 0 4 4 6 0 0 3 3 -
p217
aVDan Majerle PHX 05/04/1993 PHX @ LAL W 39 10 4 8 50.0 2 4 50.0 0 2 0.0 1 4 5 5 4 0 2 2 -
p218
aVRichard Dumas PHX 05/04/1993 PHX @ LAL W 30 18 8 17 47.1 0 0 - 2 2 100.0 2 2 4 2 2 0 3 3 -
p219
aVCharles Barkley PHX 05/04/1993 PHX @ LAL W 43 27 9 23 39.1 1 4 25.0 8 9 88.9 3 8 11 5 3 1 1 2 -
p220
aVDanny Ainge PHX 05/04/1993 PHX @ LAL W 20 13 5 6 83.3 3 4 75.0 0 0 - 0 1 1 3 1 0 2 2 -
p221
aVCedric Ceballos PHX 05/04/1993 PHX @ LAL W 17 6 3 5 60.0 0 0 - 0 0 - 1 4 5 0 0 1 1 0 -
p222
aVTom Chambers PHX 05/04/1993 PHX @ LAL W 5 0 0 1 0.0 0 0 - 0 2 0.0 1 0 1 0 0 0 0 1 -
p223
aVOliver Miller PHX 05/04/1993 PHX @ LAL W 31 11 4 4 100.0 0 0 - 3 4 75.0 0 8 8 4 2 2 3 5 -
p224
aVMark West PHX 05/04/1993 PHX @ LAL W 18 5 1 5 20.0 0 0 - 3 4 75.0 4 5 9 0 0 2 1 4 -
p225
aVKevin Johnson PHX 05/04/1993 PHX @ LAL W 37 17 5 11 45.5 0 0 - 7 8 87.5 0 1 1 5 0 0 5 1 -
p226
aVRichard Dumas PHX 05/02/1993 PHX vs. LAL L 24 18 7 11 63.6 0 1 0.0 4 8 50.0 2 1 3 2 0 0 0 1 -
p227
aVOliver Miller PHX 05/02/1993 PHX vs. LAL L 10 0 0 1 0.0 0 0 - 0 0 - 1 1 2 1 0 1 3 2 -
p228
aVTom Chambers PHX 05/02/1993 PHX vs. LAL L 31 18 8 15 53.3 0 0 - 2 3 66.7 0 1 1 0 0 1 2 2 -
p229
aVCedric Ceballos PHX 05/02/1993 PHX vs. LAL L 4 0 0 0 - 0 0 - 0 0 - 0 1 1 0 0 0 0 1 -
p230
aVKevin Johnson PHX 05/02/1993 PHX vs. LAL L 44 14 6 10 60.0 0 0 - 2 2 100.0 0 1 1 16 2 0 5 2 -
p231
aVMark West PHX 05/02/1993 PHX vs. LAL L 23 3 1 2 50.0 0 0 - 1 2 50.0 1 5 6 0 0 0 1 3 -
p232
aVCharles Barkley PHX 05/02/1993 PHX vs. LAL L 44 18 8 24 33.3 0 0 - 2 4 50.0 4 17 21 3 1 0 1 4 -
p233
aVDan Majerle PHX 05/02/1993 PHX vs. LAL L 40 8 3 11 27.3 1 5 20.0 1 2 50.0 0 3 3 1 4 0 1 5 -
p234
aVDanny Ainge PHX 05/02/1993 PHX vs. LAL L 20 2 1 7 14.3 0 2 0.0 0 0 - 2 2 4 1 0 0 0 0 -
p235
aVCedric Ceballos PHX 04/30/1993 PHX vs. LAL L 26 6 3 9 33.3 0 0 - 0 0 - 3 3 6 4 1 0 1 1 -
p236
aVTom Chambers PHX 04/30/1993 PHX vs. LAL L 28 18 7 11 63.6 0 0 - 4 4 100.0 2 3 5 3 1 0 4 5 -
p237
aVRichard Dumas PHX 04/30/1993 PHX vs. LAL L 16 6 3 6 50.0 0 0 - 0 0 - 1 0 1 1 1 0 1 2 -
p238
aVMark West PHX 04/30/1993 PHX vs. LAL L 22 8 4 8 50.0 0 0 - 0 0 - 3 2 5 0 0 1 0 3 -
p239
aVOliver Miller PHX 04/30/1993 PHX vs. LAL L 4 0 0 0 - 0 0 - 0 0 - 0 0 0 2 0 0 2 0 -
p240
aVCharles Barkley PHX 04/30/1993 PHX vs. LAL L 44 34 12 16 75.0 0 0 - 10 15 66.7 8 7 15 4 2 2 2 2 -
p241
aVDan Majerle PHX 04/30/1993 PHX vs. LAL L 48 9 4 15 26.7 0 6 0.0 1 2 50.0 1 2 3 5 0 0 1 4 -
p242
aVFrank Johnson PHX 04/30/1993 PHX vs. LAL L 4 2 1 2 50.0 0 0 - 0 0 - 0 0 0 0 0 0 0 1 -
p243
aVNegele Knight PHX 04/30/1993 PHX vs. LAL L 21 10 5 9 55.6 0 0 - 0 0 - 1 2 3 5 0 0 1 1 -
p244
aVDanny Ainge PHX 04/30/1993 PHX vs. LAL L 27 10 4 13 30.8 1 5 20.0 1 1 100.0 0 1 1 2 2 0 1 3 -
p245
a.