(lp0
VPLAYER TEAM DATE MATCHUP W/L MIN PTS FGM FGA FG% 3PM 3PA 3P% FTM FTA FT% OREB DREB REB AST STL BLK TOV PF +/-
p1
aVStanley Roberts LAC 05/08/1993 LAC @ HOU L 39 7 3 9 33.3 0 1 0.0 1 2 50.0 2 7 9 0 1 1 2 4 -
p2
aVLester Conner LAC 05/08/1993 LAC @ HOU L 17 6 3 5 60.0 0 0 - 0 0 - 1 1 2 2 0 0 0 1 -
p3
aVRon Harper LAC 05/08/1993 LAC @ HOU L 42 19 8 18 44.4 1 3 33.3 2 3 66.7 0 3 3 2 6 3 2 2 -
p4
aVJohn Williams LAC 05/08/1993 LAC @ HOU L 15 0 0 3 0.0 0 1 0.0 0 0 - 1 1 2 1 1 0 2 4 -
p5
aVElmore Spencer LAC 05/08/1993 LAC @ HOU L 3 0 0 1 0.0 0 0 - 0 0 - 1 0 1 0 0 0 0 0 -
p6
aVMark Jackson LAC 05/08/1993 LAC @ HOU L 42 8 4 13 30.8 0 1 0.0 0 0 - 1 6 7 9 4 0 3 0 -
p7
aVGary Grant LAC 05/08/1993 LAC @ HOU L 8 0 0 2 0.0 0 0 - 0 0 - 0 0 0 1 0 0 1 1 -
p8
aVDanny Manning LAC 05/08/1993 LAC @ HOU L 39 24 11 25 44.0 0 1 0.0 2 3 66.7 4 8 12 2 1 1 6 3 -
p9
aVKen Norman LAC 05/08/1993 LAC @ HOU L 31 14 6 13 46.2 2 2 100.0 0 0 - 1 5 6 1 0 0 0 1 -
p10
aVJaren Jackson LAC 05/08/1993 LAC @ HOU L 4 2 1 4 25.0 0 0 - 0 0 - 2 0 2 1 1 0 1 2 -
p11
aVRon Harper LAC 05/05/1993 LAC vs. HOU W 40 21 9 17 52.9 2 3 66.7 1 2 50.0 2 2 4 2 4 0 1 0 -
p12
aVJohn Williams LAC 05/05/1993 LAC vs. HOU W 17 3 1 5 20.0 1 1 100.0 0 0 - 1 2 3 0 1 0 0 1 -
p13
aVKen Norman LAC 05/05/1993 LAC vs. HOU W 34 13 5 12 41.7 0 1 0.0 3 8 37.5 2 4 6 3 0 0 0 2 -
p14
aVGary Grant LAC 05/05/1993 LAC vs. HOU W 20 4 2 6 33.3 0 0 - 0 0 - 1 0 1 3 0 0 1 3 -
p15
aVMark Jackson LAC 05/05/1993 LAC vs. HOU W 37 8 2 13 15.4 0 0 - 4 6 66.7 2 6 8 7 3 1 2 2 -
p16
aVElmore Spencer LAC 05/05/1993 LAC vs. HOU W 1 0 0 1 0.0 0 0 - 0 0 - 0 0 0 0 0 0 0 1 -
p17
aVStanley Roberts LAC 05/05/1993 LAC vs. HOU W 35 20 10 16 62.5 0 0 - 0 3 0.0 5 8 13 1 0 2 1 4 -
p18
aVLester Conner LAC 05/05/1993 LAC vs. HOU W 14 5 2 3 66.7 1 1 100.0 0 0 - 1 2 3 4 1 0 0 0 -
p19
aVDanny Manning LAC 05/05/1993 LAC vs. HOU W 42 19 5 19 26.3 0 1 0.0 9 10 90.0 4 4 8 3 3 3 1 4 -
p20
aVGary Grant LAC 05/03/1993 LAC vs. HOU L 23 5 2 5 40.0 0 0 - 1 2 50.0 0 0 0 6 1 0 0 2 -
p21
aVDanny Manning LAC 05/03/1993 LAC vs. HOU L 35 23 9 19 47.4 0 0 - 5 6 83.3 2 2 4 1 1 0 3 4 -
p22
aVKen Norman LAC 05/03/1993 LAC vs. HOU L 35 8 4 15 26.7 0 2 0.0 0 2 0.0 4 5 9 3 2 0 1 2 -
p23
aVLester Conner LAC 05/03/1993 LAC vs. HOU L 14 10 4 4 100.0 0 0 - 2 2 100.0 1 1 2 2 1 0 0 3 -
p24
aVJaren Jackson LAC 05/03/1993 LAC vs. HOU L 7 6 3 4 75.0 0 0 - 0 0 - 0 0 0 0 0 0 0 1 -
p25
aVStanley Roberts LAC 05/03/1993 LAC vs. HOU L 18 0 0 5 0.0 0 0 - 0 0 - 1 4 5 0 0 0 3 6 -
p26
aVRon Harper LAC 05/03/1993 LAC vs. HOU L 37 19 7 10 70.0 0 1 0.0 5 8 62.5 1 4 5 7 2 0 4 2 -
p27
aVMark Jackson LAC 05/03/1993 LAC vs. HOU L 37 21 9 14 64.3 0 0 - 3 3 100.0 2 2 4 8 0 0 3 3 -
p28
aVJohn Williams LAC 05/03/1993 LAC vs. HOU L 17 2 1 4 25.0 0 0 - 0 0 - 0 1 1 1 1 0 0 1 -
p29
aVLAC 05/03/1993 LAC vs. HOU L 17 5 1 4 25.0 0 0 - 3 3 100.0 1 4 5 0 1 0 0 2 -
p30
aVLAC 05/01/1993 LAC @ HOU W 17 4 2 4 50.0 0 0 - 0 0 - 0 5 5 0 0 0 1 3 -
p31
aVGary Grant LAC 05/01/1993 LAC @ HOU W 23 6 3 10 30.0 0 0 - 0 0 - 0 1 1 5 0 0 1 4 -
p32
aVRon Harper LAC 05/01/1993 LAC @ HOU W 39 29 12 25 48.0 2 3 66.7 3 4 75.0 1 5 6 3 3 4 4 3 -
p33
aVJaren Jackson LAC 05/01/1993 LAC @ HOU W 2 0 0 0 - 0 0 - 0 0 - 0 0 0 0 1 0 0 0 -
p34
aVKen Norman LAC 05/01/1993 LAC @ HOU W 35 16 4 13 30.8 0 0 - 8 12 66.7 4 8 12 3 1 0 0 1 -
p35
aVStanley Roberts LAC 05/01/1993 LAC @ HOU W 24 17 7 9 77.8 0 0 - 3 5 60.0 3 3 6 0 0 0 3 6 -
p36
aVJohn Williams LAC 05/01/1993 LAC @ HOU W 20 2 1 1 100.0 0 0 - 0 0 - 1 1 2 2 1 0 2 6 -
p37
aVDanny Manning LAC 05/01/1993 LAC @ HOU W 28 8 3 8 37.5 0 0 - 2 2 100.0 1 7 8 2 2 1 2 5 -
p38
aVMark Jackson LAC 05/01/1993 LAC @ HOU W 38 13 4 7 57.1 0 0 - 5 5 100.0 2 3 5 8 0 0 1 1 -
p39
aVLester Conner LAC 05/01/1993 LAC @ HOU W 14 0 0 0 - 0 0 - 0 0 - 0 0 0 0 1 0 0 1 -
p40
aVLAC 04/29/1993 LAC @ HOU L 16 7 3 7 42.9 0 0 - 1 2 50.0 3 5 8 0 3 1 2 2 -
p41
aVGary Grant LAC 04/29/1993 LAC @ HOU L 27 6 3 8 37.5 0 0 - 0 0 - 0 0 0 8 2 0 4 3 -
p42
aVLester Conner LAC 04/29/1993 LAC @ HOU L 5 0 0 0 - 0 0 - 0 0 - 0 0 0 2 0 1 0 0 -
p43
aVRon Harper LAC 04/29/1993 LAC @ HOU L 16 2 1 8 12.5 0 0 - 0 0 - 0 2 2 2 0 3 0 0 -
p44
aVStanley Roberts LAC 04/29/1993 LAC @ HOU L 33 13 6 11 54.5 0 0 - 1 8 12.5 6 2 8 0 2 0 1 4 -
p45
aVJaren Jackson LAC 04/29/1993 LAC @ HOU L 15 2 1 5 20.0 0 1 0.0 0 0 - 2 1 3 1 0 0 2 3 -
p46
aVDanny Manning LAC 04/29/1993 LAC @ HOU L 27 17 7 14 50.0 0 0 - 3 5 60.0 1 3 4 0 0 0 1 3 -
p47
aVKiki Vandeweghe LAC 04/29/1993 LAC @ HOU L 9 4 2 6 33.3 0 0 - 0 0 - 0 0 0 1 1 0 1 0 -
p48
aVKen Norman LAC 04/29/1993 LAC @ HOU L 29 13 6 14 42.9 1 3 33.3 0 0 - 3 5 8 2 1 0 0 2 -
p49
aVMark Jackson LAC 04/29/1993 LAC @ HOU L 34 26 9 17 52.9 1 1 100.0 7 8 87.5 1 4 5 6 1 0 4 2 -
p50
aVJohn Williams LAC 04/29/1993 LAC @ HOU L 29 4 1 5 20.0 1 1 100.0 1 2 50.0 2 4 6 3 1 0 2 5 -
p51
a.