(lp0
VPLAYER TEAM DATE MATCHUP W/L MIN PTS FGM FGA FG% 3PM 3PA 3P% FTM FTA FT% OREB DREB REB AST STL BLK TOV PF +/-
p1
aVGerald Wilkins CLE 05/17/1993 CLE vs. CHI L 39 22 10 19 52.6 1 2 50.0 1 3 33.3 1 1 2 6 3 0 2 2 -
p2
aVMark Price CLE 05/17/1993 CLE vs. CHI L 25 6 2 5 40.0 2 2 100.0 0 0 - 0 1 1 6 2 0 3 3 -
p3
aVCraig Ehlo CLE 05/17/1993 CLE vs. CHI L 31 6 2 9 22.2 0 2 0.0 2 4 50.0 2 5 7 4 1 1 0 2 -
p4
aVTerrell Brandon CLE 05/17/1993 CLE vs. CHI L 26 11 3 6 50.0 1 2 50.0 4 4 100.0 0 2 2 4 1 0 1 0 -
p5
aVBrad Daugherty CLE 05/17/1993 CLE vs. CHI L 41 25 8 12 66.7 0 0 - 9 10 90.0 3 10 13 1 1 3 5 6 -
p6
aVLarry Nance CLE 05/17/1993 CLE vs. CHI L 36 18 7 12 58.3 0 0 - 4 4 100.0 4 1 5 1 1 1 1 5 -
p7
aVHot Rod Williams CLE 05/17/1993 CLE vs. CHI L 30 11 3 7 42.9 0 0 - 5 7 71.4 0 4 4 4 0 3 1 2 -
p8
aVDanny Ferry CLE 05/17/1993 CLE vs. CHI L 12 2 1 2 50.0 0 1 0.0 0 0 - 1 1 2 1 0 0 1 3 -
p9
aVLarry Nance CLE 05/15/1993 CLE vs. CHI L 42 24 11 12 91.7 0 0 - 2 2 100.0 4 1 5 4 1 2 2 6 -
p10
aVGerald Wilkins CLE 05/15/1993 CLE vs. CHI L 33 16 6 16 37.5 1 3 33.3 3 3 100.0 2 3 5 2 2 1 1 4 -
p11
aVCraig Ehlo CLE 05/15/1993 CLE vs. CHI L 44 10 4 10 40.0 2 3 66.7 0 0 - 0 2 2 6 1 2 2 2 -
p12
aVMike Sanders CLE 05/15/1993 CLE vs. CHI L 9 0 0 2 0.0 0 0 - 0 0 - 0 1 1 1 0 0 0 0 -
p13
aVHot Rod Williams CLE 05/15/1993 CLE vs. CHI L 21 4 2 7 28.6 0 0 - 0 0 - 1 3 4 2 0 1 1 2 -
p14
aVBrad Daugherty CLE 05/15/1993 CLE vs. CHI L 40 16 7 14 50.0 0 0 - 2 4 50.0 2 9 11 6 1 1 2 4 -
p15
aVMark Price CLE 05/15/1993 CLE vs. CHI L 45 18 8 17 47.1 1 3 33.3 1 1 100.0 0 4 4 6 1 0 5 1 -
p16
aVDanny Ferry CLE 05/15/1993 CLE vs. CHI L 6 2 1 3 33.3 0 0 - 0 0 - 1 0 1 2 0 1 0 0 -
p17
aVGerald Wilkins CLE 05/13/1993 CLE @ CHI L 30 4 2 9 22.2 0 1 0.0 0 0 - 1 2 3 0 0 0 3 1 -
p18
aVBrad Daugherty CLE 05/13/1993 CLE @ CHI L 28 8 2 7 28.6 0 0 - 4 6 66.7 3 4 7 1 0 0 4 1 -
p19
aVMike Sanders CLE 05/13/1993 CLE @ CHI L 20 10 5 9 55.6 0 0 - 0 0 - 1 3 4 0 2 1 0 3 -
p20
aVJay Guidinger CLE 05/13/1993 CLE @ CHI L 3 0 0 0 - 0 0 - 0 0 - 0 0 0 0 0 0 1 0 -
p21
aVTerrell Brandon CLE 05/13/1993 CLE @ CHI L 8 0 0 1 0.0 0 0 - 0 0 - 0 0 0 2 0 0 3 0 -
p22
aVHot Rod Williams CLE 05/13/1993 CLE @ CHI L 23 10 4 7 57.1 0 0 - 2 3 66.7 0 5 5 1 1 3 1 1 -
p23
aVCraig Ehlo CLE 05/13/1993 CLE @ CHI L 39 15 6 15 40.0 1 4 25.0 2 2 100.0 0 5 5 3 2 0 0 3 -
p24
aVBobby Phills CLE 05/13/1993 CLE @ CHI L 4 4 1 1 100.0 0 0 - 2 2 100.0 0 0 0 0 0 0 0 0 -
p25
aVMark Price CLE 05/13/1993 CLE @ CHI L 33 13 4 7 57.1 1 3 33.3 4 4 100.0 0 0 0 8 0 0 2 0 -
p26
aVLarry Nance CLE 05/13/1993 CLE @ CHI L 33 16 7 11 63.6 0 0 - 2 2 100.0 5 2 7 1 2 0 1 4 -
p27
aVDanny Ferry CLE 05/13/1993 CLE @ CHI L 19 5 1 5 20.0 0 0 - 3 4 75.0 0 3 3 3 0 0 1 2 -
p28
aVCraig Ehlo CLE 05/11/1993 CLE @ CHI L 33 7 3 11 27.3 1 6 16.7 0 0 - 1 2 3 2 1 0 2 4 -
p29
aVMark Price CLE 05/11/1993 CLE @ CHI L 34 17 6 10 60.0 2 4 50.0 3 3 100.0 0 1 1 3 0 0 4 1 -
p30
aVMike Sanders CLE 05/11/1993 CLE @ CHI L 16 2 1 1 100.0 0 0 - 0 0 - 1 1 2 0 0 0 0 4 -
p31
aVHot Rod Williams CLE 05/11/1993 CLE @ CHI L 24 6 2 7 28.6 0 0 - 2 5 40.0 2 1 3 1 0 0 2 2 -
p32
aVDanny Ferry CLE 05/11/1993 CLE @ CHI L 9 3 1 3 33.3 1 2 50.0 0 0 - 0 3 3 1 0 0 1 2 -
p33
aVTerrell Brandon CLE 05/11/1993 CLE @ CHI L 15 4 2 5 40.0 0 0 - 0 0 - 1 1 2 2 0 0 1 0 -
p34
aVBrad Daugherty CLE 05/11/1993 CLE @ CHI L 44 15 6 8 75.0 0 0 - 3 3 100.0 0 8 8 6 0 0 2 1 -
p35
aVGerald Wilkins CLE 05/11/1993 CLE @ CHI L 30 19 7 14 50.0 1 4 25.0 4 4 100.0 2 2 4 3 2 0 0 5 -
p36
aVLarry Nance CLE 05/11/1993 CLE @ CHI L 35 11 5 13 38.5 0 0 - 1 3 33.3 3 5 8 3 0 0 1 2 -
p37
aVHot Rod Williams CLE 05/09/1993 CLE vs. NJN W 24 8 4 6 66.7 0 0 - 0 0 - 0 3 3 1 0 3 2 6 -
p38
aVGerald Wilkins CLE 05/09/1993 CLE vs. NJN W 25 4 2 5 40.0 0 0 - 0 0 - 0 1 1 1 0 0 0 0 -
p39
aVMark Price CLE 05/09/1993 CLE vs. NJN W 31 16 6 12 50.0 1 2 50.0 3 3 100.0 0 2 2 4 0 0 2 2 -
p40
aVTerrell Brandon CLE 05/09/1993 CLE vs. NJN W 17 10 5 7 71.4 0 0 - 0 0 - 1 3 4 2 2 2 2 1 -
p41
aVMike Sanders CLE 05/09/1993 CLE vs. NJN W 23 8 2 8 25.0 0 0 - 4 6 66.7 3 0 3 3 1 0 1 0 -
p42
aVJay Guidinger CLE 05/09/1993 CLE vs. NJN W 1 0 0 0 - 0 0 - 0 2 0.0 0 0 0 0 0 0 0 0 -
p43
aVLarry Nance CLE 05/09/1993 CLE vs. NJN W 46 20 9 16 56.3 0 0 - 2 4 50.0 4 8 12 6 0 3 1 4 -
p44
aVCraig Ehlo CLE 05/09/1993 CLE vs. NJN W 27 9 3 8 37.5 1 3 33.3 2 2 100.0 0 0 0 2 1 0 1 2 -
p45
aVBrad Daugherty CLE 05/09/1993 CLE vs. NJN W 46 24 10 17 58.8 0 0 - 4 4 100.0 4 16 20 8 1 2 4 4 -
p46
aVDanny Ferry CLE 05/07/1993 CLE @ NJN L 18 5 2 7 28.6 0 1 0.0 1 1 100.0 1 4 5 0 1 0 1 0 -
p47
aVBrad Daugherty CLE 05/07/1993 CLE @ NJN L 38 29 12 18 66.7 0 0 - 5 5 100.0 1 4 5 1 0 0 4 1 -
p48
aVCraig Ehlo CLE 05/07/1993 CLE @ NJN L 29 6 3 4 75.0 0 0 - 0 0 - 0 3 3 4 3 0 5 1 -
p49
aVGerald Wilkins CLE 05/07/1993 CLE @ NJN L 19 2 1 5 20.0 0 0 - 0 0 - 0 1 1 0 0 0 1 0 -
p50
aVJay Guidinger CLE 05/07/1993 CLE @ NJN L 4 0 0 0 - 0 0 - 0 0 - 0 0 0 0 0 0 0 0 -
p51
aVMark Price CLE 05/07/1993 CLE @ NJN L 30 11 5 14 35.7 1 2 50.0 0 0 - 0 2 2 6 0 0 4 0 -
p52
aVLarry Nance CLE 05/07/1993 CLE @ NJN L 33 5 2 7 28.6 0 0 - 1 2 50.0 1 4 5 2 1 4 0 2 -
p53
aVMike Sanders CLE 05/07/1993 CLE @ NJN L 23 6 3 7 42.9 0 0 - 0 0 - 1 2 3 2 3 0 1 3 -
p54
aVHot Rod Williams CLE 05/07/1993 CLE @ NJN L 28 11 4 11 36.4 0 0 - 3 3 100.0 1 4 5 1 2 0 1 2 -
p55
aVTerrell Brandon CLE 05/07/1993 CLE @ NJN L 18 4 1 7 14.3 0 0 - 2 2 100.0 1 2 3 1 1 0 3 1 -
p56
aVBrad Daugherty CLE 05/05/1993 CLE @ NJN W 44 22 8 14 57.1 0 0 - 6 8 75.0 5 11 16 3 1 0 0 3 -
p57
aVMike Sanders CLE 05/05/1993 CLE @ NJN W 19 2 1 6 16.7 0 1 0.0 0 2 0.0 0 0 0 2 1 0 1 1 -
p58
aVTerrell Brandon CLE 05/05/1993 CLE @ NJN W 14 7 3 6 50.0 0 1 0.0 1 1 100.0 0 1 1 1 0 0 2 1 -
p59
aVGerald Wilkins CLE 05/05/1993 CLE @ NJN W 11 4 1 2 50.0 0 0 - 2 2 100.0 0 0 0 1 0 0 1 2 -
p60
aVCraig Ehlo CLE 05/05/1993 CLE @ NJN W 38 22 9 16 56.3 1 2 50.0 3 4 75.0 4 3 7 0 0 0 5 3 -
p61
aVHot Rod Williams CLE 05/05/1993 CLE @ NJN W 26 4 1 10 10.0 0 0 - 2 2 100.0 0 2 2 1 0 1 1 5 -
p62
aVMark Price CLE 05/05/1993 CLE @ NJN W 34 7 2 12 16.7 0 5 0.0 3 3 100.0 1 3 4 4 5 0 5 0 -
p63
aVDanny Ferry CLE 05/05/1993 CLE @ NJN W 13 2 1 1 100.0 0 0 - 0 0 - 0 3 3 1 0 0 0 1 -
p64
aVLarry Nance CLE 05/05/1993 CLE @ NJN W 41 23 9 17 52.9 0 0 - 5 6 83.3 8 9 17 2 2 1 0 4 -
p65
aVTerrell Brandon CLE 05/01/1993 CLE vs. NJN L 12 2 1 4 25.0 0 0 - 0 0 - 1 1 2 2 1 0 1 3 -
p66
aVBrad Daugherty CLE 05/01/1993 CLE vs. NJN L 39 15 6 16 37.5 0 0 - 3 4 75.0 5 6 11 2 1 0 2 5 -
p67
aVHot Rod Williams CLE 05/01/1993 CLE vs. NJN L 36 16 6 11 54.5 0 0 - 4 4 100.0 5 5 10 2 1 3 1 4 -
p68
aVGerald Wilkins CLE 05/01/1993 CLE vs. NJN L 24 9 4 8 50.0 0 1 0.0 1 2 50.0 0 0 0 5 0 1 2 1 -
p69
aVMark Price CLE 05/01/1993 CLE vs. NJN L 36 17 6 11 54.5 0 3 0.0 5 6 83.3 0 2 2 11 6 0 5 2 -
p70
aVCraig Ehlo CLE 05/01/1993 CLE vs. NJN L 25 7 2 7 28.6 1 3 33.3 2 2 100.0 1 0 1 0 0 0 2 1 -
p71
aVMike Sanders CLE 05/01/1993 CLE vs. NJN L 12 6 2 6 33.3 0 1 0.0 2 2 100.0 1 1 2 0 0 0 0 2 -
p72
aVDanny Ferry CLE 05/01/1993 CLE vs. NJN L 20 10 3 7 42.9 1 3 33.3 3 3 100.0 0 3 3 3 2 0 3 4 -
p73
aVLarry Nance CLE 05/01/1993 CLE vs. NJN L 36 17 7 14 50.0 0 0 - 3 3 100.0 5 7 12 1 1 1 0 4 -
p74
aVMark Price CLE 04/29/1993 CLE vs. NJN W 20 12 4 9 44.4 0 2 0.0 4 4 100.0 0 3 3 7 1 0 3 4 -
p75
aVGerald Wilkins CLE 04/29/1993 CLE vs. NJN W 25 13 5 9 55.6 1 1 100.0 2 3 66.7 0 0 0 6 2 0 1 1 -
p76
aVBobby Phills CLE 04/29/1993 CLE vs. NJN W 5 0 0 2 0.0 0 0 - 0 0 - 0 0 0 0 0 0 1 0 -
p77
aVJohn Battle CLE 04/29/1993 CLE vs. NJN W 6 0 0 1 0.0 0 0 - 0 0 - 0 1 1 1 0 0 2 2 -
p78
aVLarry Nance CLE 04/29/1993 CLE vs. NJN W 27 11 4 6 66.7 0 0 - 3 4 75.0 1 2 3 1 0 2 0 2 -
p79
aVBrad Daugherty CLE 04/29/1993 CLE vs. NJN W 36 14 5 9 55.6 0 0 - 4 6 66.7 3 11 14 3 1 1 3 0 -
p80
aVTerrell Brandon CLE 04/29/1993 CLE vs. NJN W 22 13 5 10 50.0 1 2 50.0 2 2 100.0 0 3 3 3 2 1 1 0 -
p81
aVHot Rod Williams CLE 04/29/1993 CLE vs. NJN W 25 11 4 9 44.4 0 0 - 3 4 75.0 3 2 5 4 1 0 1 2 -
p82
aVMike Sanders CLE 04/29/1993 CLE vs. NJN W 23 12 6 9 66.7 0 0 - 0 0 - 1 2 3 2 1 0 0 4 -
p83
aVJay Guidinger CLE 04/29/1993 CLE vs. NJN W 7 2 1 3 33.3 0 0 - 0 0 - 1 0 1 0 0 1 1 1 -
p84
aVDanny Ferry CLE 04/29/1993 CLE vs. NJN W 21 10 3 6 50.0 2 2 100.0 2 2 100.0 1 4 5 3 1 2 0 2 -
p85
aVCraig Ehlo CLE 04/29/1993 CLE vs. NJN W 23 16 6 11 54.5 3 3 100.0 1 1 100.0 2 1 3 4 3 1 0 1 -
p86
a.