(lp0
VPLAYER TEAM DATE MATCHUP W/L MIN PTS FGM FGA FG% 3PM 3PA 3P% FTM FTA FT% OREB DREB REB AST STL BLK TOV PF +/-
p1
aVGreg Anthony NYK 06/04/1993 NYK @ CHI L 13 6 3 6 50.0 0 1 0.0 0 0 - 0 0 0 5 1 0 1 4 -
p2
aVRolando Blackman NYK 06/04/1993 NYK @ CHI L 5 0 0 1 0.0 0 0 - 0 0 - 0 1 1 0 0 0 2 3 -
p3
aVCharles Oakley NYK 06/04/1993 NYK @ CHI L 31 11 4 8 50.0 0 0 - 3 4 75.0 6 5 11 0 0 0 1 1 -
p4
aVAnthony Mason NYK 06/04/1993 NYK @ CHI L 34 14 5 10 50.0 0 0 - 4 6 66.7 4 4 8 3 0 0 1 1 -
p5
aVCharles Smith NYK 06/04/1993 NYK @ CHI L 32 14 5 11 45.5 0 0 - 4 4 100.0 1 2 3 1 1 1 0 3 -
p6
aVPatrick Ewing NYK 06/04/1993 NYK @ CHI L 46 26 12 18 66.7 0 0 - 2 5 40.0 4 9 13 1 3 0 2 1 -
p7
aVDoc Rivers NYK 06/04/1993 NYK @ CHI L 35 3 1 6 16.7 0 2 0.0 1 1 100.0 0 1 1 8 2 0 4 5 -
p8
aVJohn Starks NYK 06/04/1993 NYK @ CHI L 44 14 5 11 45.5 1 5 20.0 3 5 60.0 1 4 5 5 0 0 8 5 -
p9
aVCharles Oakley NYK 06/02/1993 NYK vs. CHI L 27 6 2 6 33.3 0 0 - 2 4 50.0 3 1 4 0 0 0 1 3 -
p10
aVHerb Williams NYK 06/02/1993 NYK vs. CHI L 1 0 0 0 - 0 0 - 0 0 - 0 0 0 0 0 0 0 0 -
p11
aVAnthony Mason NYK 06/02/1993 NYK vs. CHI L 41 17 8 11 72.7 0 0 - 1 3 33.3 3 5 8 2 0 1 2 1 -
p12
aVRolando Blackman NYK 06/02/1993 NYK vs. CHI L 7 2 1 1 100.0 0 0 - 0 0 - 0 0 0 0 0 0 1 3 -
p13
aVJohn Starks NYK 06/02/1993 NYK vs. CHI L 44 8 3 11 27.3 0 3 0.0 2 5 40.0 0 6 6 8 2 1 3 3 -
p14
aVGreg Anthony NYK 06/02/1993 NYK vs. CHI L 15 6 3 4 75.0 0 0 - 0 0 - 1 3 4 5 0 0 1 1 -
p15
aVPatrick Ewing NYK 06/02/1993 NYK vs. CHI L 44 33 12 23 52.2 1 1 100.0 8 14 57.1 1 8 9 3 0 2 3 3 -
p16
aVDoc Rivers NYK 06/02/1993 NYK vs. CHI L 32 10 3 6 50.0 1 2 50.0 3 3 100.0 0 0 0 6 1 0 2 5 -
p17
aVCharles Smith NYK 06/02/1993 NYK vs. CHI L 29 12 4 11 36.4 0 0 - 4 6 66.7 3 3 6 0 0 0 1 5 -
p18
aVDoc Rivers NYK 05/31/1993 NYK @ CHI L 33 2 1 6 16.7 0 1 0.0 0 0 - 0 1 1 5 2 0 2 5 -
p19
aVCharles Oakley NYK 05/31/1993 NYK @ CHI L 33 11 4 9 44.4 0 0 - 3 4 75.0 5 7 12 1 0 1 4 5 -
p20
aVHubert Davis NYK 05/31/1993 NYK @ CHI L 1 0 0 0 - 0 0 - 0 0 - 0 0 0 0 0 0 0 2 -
p21
aVJohn Starks NYK 05/31/1993 NYK @ CHI L 47 24 9 17 52.9 4 9 44.4 2 2 100.0 0 3 3 7 0 0 8 3 -
p22
aVCharles Smith NYK 05/31/1993 NYK @ CHI L 32 15 4 6 66.7 0 0 - 7 8 87.5 3 3 6 4 0 2 1 2 -
p23
aVRolando Blackman NYK 05/31/1993 NYK @ CHI L 2 3 1 3 33.3 1 3 33.3 0 0 - 0 0 0 0 0 0 0 1 -
p24
aVGreg Anthony NYK 05/31/1993 NYK @ CHI L 15 0 0 3 0.0 0 3 0.0 0 0 - 0 0 0 3 2 0 0 3 -
p25
aVPatrick Ewing NYK 05/31/1993 NYK @ CHI L 42 24 10 20 50.0 0 0 - 4 6 66.7 0 9 9 1 3 1 2 5 -
p26
aVAnthony Mason NYK 05/31/1993 NYK @ CHI L 35 16 6 10 60.0 0 0 - 4 6 66.7 4 2 6 3 0 0 0 5 -
p27
aVAnthony Mason NYK 05/29/1993 NYK @ CHI L 31 12 4 8 50.0 0 0 - 4 6 66.7 3 2 5 2 0 0 1 6 -
p28
aVHubert Davis NYK 05/29/1993 NYK @ CHI L 22 7 3 5 60.0 0 0 - 1 2 50.0 0 1 1 1 2 0 1 0 -
p29
aVJohn Starks NYK 05/29/1993 NYK @ CHI L 26 8 2 7 28.6 1 4 25.0 3 6 50.0 0 1 1 2 0 0 6 5 -
p30
aVEric Anderson NYK 05/29/1993 NYK @ CHI L 3 2 1 2 50.0 0 0 - 0 0 - 0 0 0 0 0 0 0 1 -
p31
aVCharles Oakley NYK 05/29/1993 NYK @ CHI L 29 6 2 7 28.6 0 0 - 2 2 100.0 3 5 8 0 0 0 1 1 -
p32
aVDoc Rivers NYK 05/29/1993 NYK @ CHI L 17 3 1 4 25.0 0 1 0.0 1 4 25.0 1 2 3 1 0 0 1 1 -
p33
aVGreg Anthony NYK 05/29/1993 NYK @ CHI L 26 8 3 8 37.5 2 3 66.7 0 2 0.0 0 2 2 5 1 0 1 3 -
p34
aVCharles Smith NYK 05/29/1993 NYK @ CHI L 11 6 3 3 100.0 0 0 - 0 0 - 0 1 1 1 1 0 2 4 -
p35
aVPatrick Ewing NYK 05/29/1993 NYK @ CHI L 38 21 7 13 53.8 0 0 - 7 8 87.5 2 7 9 5 1 3 3 4 -
p36
aVHerb Williams NYK 05/29/1993 NYK @ CHI L 10 0 0 3 0.0 0 0 - 0 0 - 2 2 4 0 0 1 0 0 -
p37
aVRolando Blackman NYK 05/29/1993 NYK @ CHI L 8 2 1 2 50.0 0 1 0.0 0 0 - 0 0 0 0 0 1 2 1 -
p38
aVTony Campbell NYK 05/29/1993 NYK @ CHI L 19 8 3 7 42.9 0 0 - 2 2 100.0 1 0 1 2 1 0 2 4 -
p39
aVHerb Williams NYK 05/25/1993 NYK vs. CHI W 6 0 0 0 - 0 0 - 0 0 - 0 0 0 0 0 1 1 1 -
p40
aVRolando Blackman NYK 05/25/1993 NYK vs. CHI W 15 0 0 2 0.0 0 1 0.0 0 1 0.0 0 1 1 1 0 0 2 1 -
p41
aVCharles Oakley NYK 05/25/1993 NYK vs. CHI W 42 14 4 6 66.7 0 0 - 6 8 75.0 5 11 16 1 0 0 2 4 -
p42
aVGreg Anthony NYK 05/25/1993 NYK vs. CHI W 11 3 1 2 50.0 0 0 - 1 1 100.0 0 0 0 0 0 0 0 1 -
p43
aVDoc Rivers NYK 05/25/1993 NYK vs. CHI W 37 21 5 6 83.3 3 3 100.0 8 10 80.0 1 2 3 3 2 0 2 5 -
p44
aVCharles Smith NYK 05/25/1993 NYK vs. CHI W 28 12 5 9 55.6 0 0 - 2 4 50.0 2 3 5 1 0 0 4 4 -
p45
aVJohn Starks NYK 05/25/1993 NYK vs. CHI W 37 12 5 11 45.5 1 3 33.3 1 4 25.0 0 3 3 9 2 1 1 3 -
p46
aVAnthony Mason NYK 05/25/1993 NYK vs. CHI W 27 8 2 4 50.0 0 0 - 4 6 66.7 2 5 7 1 0 0 1 6 -
p47
aVPatrick Ewing NYK 05/25/1993 NYK vs. CHI W 37 26 11 25 44.0 0 0 - 4 4 100.0 3 7 10 3 1 3 0 4 -
p48
aVCharles Oakley NYK 05/23/1993 NYK vs. CHI W 34 4 2 5 40.0 0 0 - 0 2 0.0 5 9 14 1 1 0 6 4 -
p49
aVDoc Rivers NYK 05/23/1993 NYK vs. CHI W 31 7 2 6 33.3 0 1 0.0 3 4 75.0 0 1 1 5 2 0 4 1 -
p50
aVCharles Smith NYK 05/23/1993 NYK vs. CHI W 30 17 8 12 66.7 0 0 - 1 2 50.0 5 1 6 1 2 1 1 3 -
p51
aVGreg Anthony NYK 05/23/1993 NYK vs. CHI W 11 0 0 2 0.0 0 1 0.0 0 0 - 0 1 1 6 1 0 0 1 -
p52
aVPatrick Ewing NYK 05/23/1993 NYK vs. CHI W 44 25 9 16 56.3 0 0 - 7 11 63.6 4 13 17 2 2 2 4 3 -
p53
aVRolando Blackman NYK 05/23/1993 NYK vs. CHI W 19 7 2 4 50.0 1 2 50.0 2 2 100.0 0 2 2 0 0 0 1 2 -
p54
aVJohn Starks NYK 05/23/1993 NYK vs. CHI W 42 25 8 14 57.1 5 7 71.4 4 6 66.7 0 5 5 4 2 0 2 5 -
p55
aVAnthony Mason NYK 05/23/1993 NYK vs. CHI W 29 13 5 6 83.3 0 0 - 3 5 60.0 1 1 2 1 0 0 5 3 -
p56
aVGreg Anthony NYK 05/18/1993 NYK vs. CHH W 12 4 2 4 50.0 0 0 - 0 0 - 0 3 3 2 0 0 2 2 -
p57
aVCharles Smith NYK 05/18/1993 NYK vs. CHH W 32 18 6 13 46.2 0 0 - 6 7 85.7 0 8 8 1 1 2 1 4 -
p58
aVJohn Starks NYK 05/18/1993 NYK vs. CHH W 42 20 6 14 42.9 1 3 33.3 7 7 100.0 0 5 5 9 1 0 2 3 -
p59
aVHerb Williams NYK 05/18/1993 NYK vs. CHH W 7 0 0 2 0.0 0 0 - 0 0 - 0 2 2 0 0 0 0 2 -
p60
aVHubert Davis NYK 05/18/1993 NYK vs. CHH W 6 3 1 2 50.0 0 0 - 1 1 100.0 0 0 0 1 0 0 0 0 -
p61
aVPatrick Ewing NYK 05/18/1993 NYK vs. CHH W 28 9 4 12 33.3 0 0 - 1 1 100.0 4 4 8 2 0 2 2 6 -
p62
aVAnthony Mason NYK 05/18/1993 NYK vs. CHH W 26 14 5 8 62.5 0 0 - 4 6 66.7 4 2 6 4 0 1 1 3 -
p63
aVDoc Rivers NYK 05/18/1993 NYK vs. CHH W 36 14 5 12 41.7 2 5 40.0 2 5 40.0 1 1 2 3 5 0 2 3 -
p64
aVCharles Oakley NYK 05/18/1993 NYK vs. CHH W 41 21 10 15 66.7 0 0 - 1 2 50.0 5 6 11 0 2 1 3 4 -
p65
aVRolando Blackman NYK 05/18/1993 NYK vs. CHH W 10 2 0 2 0.0 0 0 - 2 2 100.0 0 0 0 3 0 0 3 1 -
p66
aVCharles Oakley NYK 05/16/1993 NYK @ CHH W 24 5 2 4 50.0 0 0 - 1 2 50.0 2 4 6 2 1 0 1 3 -
p67
aVAnthony Mason NYK 05/16/1993 NYK @ CHH W 29 0 0 1 0.0 0 0 - 0 0 - 2 5 7 2 0 1 2 4 -
p68
aVCharles Smith NYK 05/16/1993 NYK @ CHH W 35 19 6 10 60.0 0 0 - 7 8 87.5 0 3 3 1 1 1 3 3 -
p69
aVHubert Davis NYK 05/16/1993 NYK @ CHH W 16 4 2 3 66.7 0 0 - 0 0 - 0 1 1 2 0 0 3 2 -
p70
aVDoc Rivers NYK 05/16/1993 NYK @ CHH W 27 9 0 3 0.0 0 1 0.0 9 9 100.0 0 5 5 8 1 0 1 2 -
p71
aVGreg Anthony NYK 05/16/1993 NYK @ CHH W 21 6 3 7 42.9 0 1 0.0 0 0 - 0 2 2 4 1 1 2 2 -
p72
aVRolando Blackman NYK 05/16/1993 NYK @ CHH W 12 6 3 4 75.0 0 0 - 0 0 - 0 1 1 1 0 0 2 0 -
p73
aVJohn Starks NYK 05/16/1993 NYK @ CHH W 28 7 3 9 33.3 0 2 0.0 1 1 100.0 0 3 3 3 2 0 4 4 -
p74
aVHerb Williams NYK 05/16/1993 NYK @ CHH W 13 10 4 4 100.0 0 0 - 2 2 100.0 1 1 2 1 0 2 0 3 -
p75
aVPatrick Ewing NYK 05/16/1993 NYK @ CHH W 35 28 13 21 61.9 0 0 - 2 2 100.0 2 8 10 1 1 3 3 4 -
p76
aVAnthony Mason NYK 05/14/1993 NYK @ CHH L 43 15 7 12 58.3 0 0 - 1 2 50.0 6 5 11 2 0 0 2 4 -
p77
aVHubert Davis NYK 05/14/1993 NYK @ CHH L 25 6 3 4 75.0 0 0 - 0 0 - 0 3 3 0 2 0 3 4 -
p78
aVRolando Blackman NYK 05/14/1993 NYK @ CHH L 15 2 0 2 0.0 0 0 - 2 2 100.0 0 2 2 1 0 0 2 1 -
p79
aVPatrick Ewing NYK 05/14/1993 NYK @ CHH L 47 26 13 31 41.9 0 0 - 0 0 - 5 9 14 4 1 2 3 5 -
p80
aVJohn Starks NYK 05/14/1993 NYK @ CHH L 50 19 7 20 35.0 3 9 33.3 2 2 100.0 0 4 4 8 0 0 7 5 -
p81
aVCharles Oakley NYK 05/14/1993 NYK @ CHH L 40 19 8 17 47.1 0 0 - 3 3 100.0 8 5 13 0 1 0 2 4 -
p82
aVGreg Anthony NYK 05/14/1993 NYK @ CHH L 13 2 1 6 16.7 0 1 0.0 0 1 0.0 1 1 2 3 0 0 0 1 -
p83
aVCharles Smith NYK 05/14/1993 NYK @ CHH L 22 4 2 6 33.3 0 0 - 0 0 - 2 0 2 1 1 2 5 6 -
p84
aVDoc Rivers NYK 05/14/1993 NYK @ CHH L 35 13 6 11 54.5 0 3 0.0 1 2 50.0 1 2 3 4 2 0 1 3 -
p85
aVPatrick Ewing NYK 05/12/1993 NYK vs. CHH W 48 34 16 28 57.1 0 0 - 2 3 66.7 6 5 11 5 0 0 2 4 -
p86
aVHubert Davis NYK 05/12/1993 NYK vs. CHH W 14 7 3 6 50.0 1 2 50.0 0 0 - 0 0 0 1 0 0 1 0 -
p87
aVDoc Rivers NYK 05/12/1993 NYK vs. CHH W 20 7 2 4 50.0 0 2 0.0 3 5 60.0 1 3 4 7 3 0 2 4 -
p88
aVCharles Smith NYK 05/12/1993 NYK vs. CHH W 17 5 2 9 22.2 0 0 - 1 1 100.0 1 1 2 2 0 0 2 1 -
p89
aVGreg Anthony NYK 05/12/1993 NYK vs. CHH W 17 1 0 1 0.0 0 0 - 1 2 50.0 0 1 1 1 2 0 1 1 -
p90
aVAnthony Mason NYK 05/12/1993 NYK vs. CHH W 33 10 5 12 41.7 0 0 - 0 0 - 3 4 7 5 2 1 3 3 -
p91
aVCharles Oakley NYK 05/12/1993 NYK vs. CHH W 38 10 3 10 30.0 0 0 - 4 6 66.7 7 9 16 2 4 0 2 5 -
p92
aVRolando Blackman NYK 05/12/1993 NYK vs. CHH W 31 6 2 11 18.2 0 1 0.0 2 2 100.0 3 3 6 2 1 0 2 3 -
p93
aVJohn Starks NYK 05/12/1993 NYK vs. CHH W 47 25 10 20 50.0 1 6 16.7 4 4 100.0 2 4 6 6 0 0 2 4 -
p94
aVCharles Oakley NYK 05/09/1993 NYK vs. CHH W 38 17 7 10 70.0 0 0 - 3 4 75.0 5 5 10 2 2 0 2 2 -
p95
aVCharles Smith NYK 05/09/1993 NYK vs. CHH W 15 4 2 6 33.3 0 0 - 0 0 - 0 2 2 0 0 1 1 0 -
p96
aVAnthony Mason NYK 05/09/1993 NYK vs. CHH W 38 11 2 4 50.0 0 0 - 7 8 87.5 6 5 11 5 2 2 2 2 -
p97
aVGreg Anthony NYK 05/09/1993 NYK vs. CHH W 29 14 5 7 71.4 1 2 50.0 3 4 75.0 1 5 6 6 1 0 1 2 -
p98
aVJohn Starks NYK 05/09/1993 NYK vs. CHH W 32 14 5 12 41.7 3 4 75.0 1 2 50.0 0 2 2 12 1 0 5 1 -
p99
aVDoc Rivers NYK 05/09/1993 NYK vs. CHH W 19 4 1 4 25.0 0 1 0.0 2 2 100.0 0 1 1 3 1 0 2 1 -
p100
aVRolando Blackman NYK 05/09/1993 NYK vs. CHH W 26 14 6 13 46.2 0 2 0.0 2 3 66.7 0 1 1 1 0 0 1 1 -
p101
aVPatrick Ewing NYK 05/09/1993 NYK vs. CHH W 43 33 14 28 50.0 0 0 - 5 7 71.4 1 9 10 4 1 4 2 3 -
p102
aVCharles Oakley NYK 05/06/1993 NYK @ IND W 30 13 4 8 50.0 0 0 - 5 6 83.3 3 10 13 0 1 0 3 6 -
p103
aVJohn Starks NYK 05/06/1993 NYK @ IND W 43 15 5 11 45.5 2 2 100.0 3 4 75.0 1 1 2 5 2 0 1 3 -
p104
aVCharles Smith NYK 05/06/1993 NYK @ IND W 31 5 2 12 16.7 0 0 - 1 5 20.0 3 2 5 2 1 2 5 4 -
p105
aVRolando Blackman NYK 05/06/1993 NYK @ IND W 14 0 0 2 0.0 0 1 0.0 0 0 - 0 0 0 2 1 0 1 1 -
p106
aVAnthony Mason NYK 05/06/1993 NYK @ IND W 43 25 11 13 84.6 0 0 - 3 6 50.0 7 3 10 3 3 0 2 5 -
p107
aVDoc Rivers NYK 05/06/1993 NYK @ IND W 37 21 7 13 53.8 4 6 66.7 3 4 75.0 0 5 5 11 1 0 2 3 -
p108
aVPatrick Ewing NYK 05/06/1993 NYK @ IND W 51 28 12 27 44.4 0 0 - 4 6 66.7 4 9 13 2 1 2 4 4 -
p109
aVGreg Anthony NYK 05/06/1993 NYK @ IND W 16 2 0 2 0.0 0 1 0.0 2 2 100.0 1 3 4 1 2 0 1 2 -
p110
aVTony Campbell NYK 05/04/1993 NYK @ IND L 14 6 1 3 33.3 0 1 0.0 4 6 66.7 1 2 3 0 0 0 1 3 -
p111
aVHerb Williams NYK 05/04/1993 NYK @ IND L 15 2 0 4 0.0 0 0 - 2 2 100.0 0 1 1 0 0 0 1 4 -
p112
aVCharles Smith NYK 05/04/1993 NYK @ IND L 18 8 4 8 50.0 0 0 - 0 0 - 1 2 3 1 0 0 0 5 -
p113
aVAnthony Mason NYK 05/04/1993 NYK @ IND L 35 14 5 10 50.0 0 0 - 4 6 66.7 4 3 7 3 0 0 0 1 -
p114
aVRolando Blackman NYK 05/04/1993 NYK @ IND L 15 7 3 9 33.3 1 1 100.0 0 0 - 0 1 1 1 1 0 0 1 -
p115
aVEric Anderson NYK 05/04/1993 NYK @ IND L 3 0 0 0 - 0 0 - 0 0 - 0 1 1 0 0 0 1 1 -
p116
aVDoc Rivers NYK 05/04/1993 NYK @ IND L 24 9 4 7 57.1 0 1 0.0 1 2 50.0 0 0 0 7 3 0 1 1 -
p117
aVCharles Oakley NYK 05/04/1993 NYK @ IND L 26 8 4 11 36.4 0 0 - 0 0 - 6 4 10 0 1 0 3 2 -
p118
aVGreg Anthony NYK 05/04/1993 NYK @ IND L 24 5 2 3 66.7 0 1 0.0 1 2 50.0 0 3 3 6 2 0 1 3 -
p119
aVPatrick Ewing NYK 05/04/1993 NYK @ IND L 32 19 9 22 40.9 0 0 - 1 3 33.3 5 8 13 1 2 1 2 4 -
p120
aVHubert Davis NYK 05/04/1993 NYK @ IND L 12 4 2 5 40.0 0 0 - 0 0 - 1 0 1 0 2 0 1 0 -
p121
aVJohn Starks NYK 05/04/1993 NYK @ IND L 22 11 4 10 40.0 1 4 25.0 2 2 100.0 0 0 0 1 1 0 3 3 -
p122
aVDoc Rivers NYK 05/02/1993 NYK vs. IND W 39 11 2 6 33.3 0 1 0.0 7 7 100.0 0 4 4 13 2 0 1 2 -
p123
aVHerb Williams NYK 05/02/1993 NYK vs. IND W 17 2 1 1 100.0 0 0 - 0 0 - 2 3 5 1 1 0 0 3 -
p124
aVPatrick Ewing NYK 05/02/1993 NYK vs. IND W 31 25 12 19 63.2 0 0 - 1 4 25.0 2 7 9 1 0 2 6 6 -
p125
aVCharles Oakley NYK 05/02/1993 NYK vs. IND W 42 12 3 6 50.0 0 0 - 6 6 100.0 6 6 12 2 1 0 3 4 -
p126
aVJohn Starks NYK 05/02/1993 NYK vs. IND W 44 29 10 21 47.6 3 9 33.3 6 8 75.0 0 4 4 11 2 1 1 5 -
p127
aVGreg Anthony NYK 05/02/1993 NYK vs. IND W 5 0 0 1 0.0 0 0 - 0 0 - 0 0 0 1 0 0 0 0 -
p128
aVAnthony Mason NYK 05/02/1993 NYK vs. IND W 35 13 6 9 66.7 0 0 - 1 4 25.0 1 6 7 1 1 0 1 3 -
p129
aVCharles Smith NYK 05/02/1993 NYK vs. IND W 13 4 2 6 33.3 0 0 - 0 0 - 1 1 2 1 1 0 1 3 -
p130
aVRolando Blackman NYK 05/02/1993 NYK vs. IND W 14 5 2 4 50.0 1 1 100.0 0 0 - 1 1 2 1 0 0 2 3 -
p131
aVCharles Oakley NYK 04/30/1993 NYK vs. IND W 32 9 4 9 44.4 0 0 - 1 2 50.0 2 7 9 6 2 0 2 3 -
p132
aVAnthony Mason NYK 04/30/1993 NYK vs. IND W 31 5 1 4 25.0 0 0 - 3 4 75.0 5 2 7 4 2 0 0 3 -
p133
aVCharles Smith NYK 04/30/1993 NYK vs. IND W 43 24 10 16 62.5 0 0 - 4 5 80.0 5 1 6 3 0 2 2 5 -
p134
aVPatrick Ewing NYK 04/30/1993 NYK vs. IND W 38 25 11 19 57.9 0 0 - 3 6 50.0 0 9 9 1 1 4 1 4 -
p135
aVGreg Anthony NYK 04/30/1993 NYK vs. IND W 12 2 1 4 25.0 0 0 - 0 0 - 0 2 2 4 0 0 0 0 -
p136
aVJohn Starks NYK 04/30/1993 NYK vs. IND W 27 16 6 12 50.0 2 5 40.0 2 2 100.0 0 3 3 6 0 0 2 5 -
p137
aVRolando Blackman NYK 04/30/1993 NYK vs. IND W 21 7 1 4 25.0 0 2 0.0 5 6 83.3 0 0 0 3 0 1 0 0 -
p138
aVDoc Rivers NYK 04/30/1993 NYK vs. IND W 36 19 8 12 66.7 1 1 100.0 2 2 100.0 1 5 6 2 2 1 3 3 -
p139
a.