(lp0
VPLAYER TEAM DATE MATCHUP W/L MIN PTS FGM FGA FG% 3PM 3PA 3P% FTM FTA FT% OREB DREB REB AST STL BLK TOV PF +/-
p1
aVJohnny Newman CHH 05/18/1993 CHH @ NYK L 3 0 0 1 0.0 0 0 - 0 0 - 0 0 0 0 0 0 2 1 -
p2
aVMuggsy Bogues CHH 05/18/1993 CHH @ NYK L 37 13 6 14 42.9 0 1 0.0 1 1 100.0 1 8 9 3 5 0 1 2 -
p3
aVAlonzo Mourning CHH 05/18/1993 CHH @ NYK L 44 22 5 16 31.3 0 1 0.0 12 16 75.0 5 7 12 4 0 6 3 4 -
p4
aVLarry Johnson CHH 05/18/1993 CHH @ NYK L 31 10 3 9 33.3 0 0 - 4 4 100.0 0 2 2 1 0 0 2 4 -
p5
aVTony Bennett CHH 05/18/1993 CHH @ NYK L 10 2 0 1 0.0 0 0 - 2 2 100.0 0 2 2 1 1 0 0 1 -
p6
aVKendall Gill CHH 05/18/1993 CHH @ NYK L 44 26 10 21 47.6 1 2 50.0 5 6 83.3 7 3 10 6 2 1 2 3 -
p7
aVKenny Gattison CHH 05/18/1993 CHH @ NYK L 18 6 3 7 42.9 0 0 - 0 1 0.0 4 2 6 0 0 0 1 2 -
p8
aVDavid Wingate CHH 05/18/1993 CHH @ NYK L 24 4 1 7 14.3 0 0 - 2 4 50.0 1 3 4 3 0 0 1 4 -
p9
aVSidney Green CHH 05/18/1993 CHH @ NYK L 4 0 0 0 - 0 0 - 0 0 - 0 0 0 1 0 0 0 2 -
p10
aVDell Curry CHH 05/18/1993 CHH @ NYK L 25 18 7 12 58.3 1 4 25.0 3 3 100.0 0 1 1 0 1 0 3 5 -
p11
aVLarry Johnson CHH 05/16/1993 CHH vs. NYK L 43 24 9 17 52.9 0 2 0.0 6 8 75.0 2 2 4 3 0 0 2 1 -
p12
aVMuggsy Bogues CHH 05/16/1993 CHH vs. NYK L 35 7 2 3 66.7 0 0 - 3 3 100.0 1 4 5 5 1 0 2 4 -
p13
aVAlonzo Mourning CHH 05/16/1993 CHH vs. NYK L 38 12 4 16 25.0 0 0 - 4 4 100.0 3 5 8 0 1 0 6 5 -
p14
aVJohnny Newman CHH 05/16/1993 CHH vs. NYK L 11 3 1 2 50.0 1 2 50.0 0 0 - 0 1 1 0 0 0 0 3 -
p15
aVSidney Green CHH 05/16/1993 CHH vs. NYK L 6 0 0 2 0.0 0 0 - 0 2 0.0 2 1 3 0 1 0 0 2 -
p16
aVKendall Gill CHH 05/16/1993 CHH vs. NYK L 35 21 8 16 50.0 0 0 - 5 8 62.5 1 4 5 0 2 2 3 4 -
p17
aVTony Bennett CHH 05/16/1993 CHH vs. NYK L 16 5 2 4 50.0 1 1 100.0 0 0 - 1 0 1 3 0 0 0 1 -
p18
aVDavid Wingate CHH 05/16/1993 CHH vs. NYK L 12 0 0 3 0.0 0 0 - 0 0 - 0 1 1 3 1 0 0 1 -
p19
aVDell Curry CHH 05/16/1993 CHH vs. NYK L 31 12 5 13 38.5 0 2 0.0 2 2 100.0 2 3 5 3 6 0 1 1 -
p20
aVKenny Gattison CHH 05/16/1993 CHH vs. NYK L 13 8 3 5 60.0 0 0 - 2 4 50.0 2 1 3 0 0 0 0 1 -
p21
aVJohnny Newman CHH 05/14/1993 CHH vs. NYK W 36 11 4 8 50.0 0 0 - 3 4 75.0 0 5 5 4 1 0 4 5 -
p22
aVSidney Green CHH 05/14/1993 CHH vs. NYK W 11 3 1 1 100.0 0 0 - 1 1 100.0 0 2 2 0 0 0 1 1 -
p23
aVKenny Gattison CHH 05/14/1993 CHH vs. NYK W 11 4 2 5 40.0 0 0 - 0 2 0.0 4 2 6 0 1 0 0 0 -
p24
aVLarry Johnson CHH 05/14/1993 CHH vs. NYK W 49 31 11 17 64.7 1 1 100.0 8 12 66.7 3 5 8 5 1 0 2 5 -
p25
aVDavid Wingate CHH 05/14/1993 CHH vs. NYK W 14 0 0 3 0.0 0 0 - 0 0 - 2 2 4 0 2 1 0 0 -
p26
aVDell Curry CHH 05/14/1993 CHH vs. NYK W 21 5 2 6 33.3 0 1 0.0 1 1 100.0 1 1 2 1 0 0 4 1 -
p27
aVKendall Gill CHH 05/14/1993 CHH vs. NYK W 42 6 3 14 21.4 0 0 - 0 0 - 2 2 4 2 6 0 3 4 -
p28
aVAlonzo Mourning CHH 05/14/1993 CHH vs. NYK W 47 34 13 23 56.5 0 0 - 8 9 88.9 3 7 10 4 1 2 5 2 -
p29
aVTony Bennett CHH 05/14/1993 CHH vs. NYK W 13 0 0 2 0.0 0 1 0.0 0 0 - 0 2 2 3 0 1 0 0 -
p30
aVMuggsy Bogues CHH 05/14/1993 CHH vs. NYK W 46 16 6 10 60.0 0 0 - 4 6 66.7 0 4 4 8 5 0 3 3 -
p31
aVDavid Wingate CHH 05/12/1993 CHH @ NYK L 20 6 3 3 100.0 0 0 - 0 2 0.0 0 1 1 1 0 0 0 2 -
p32
aVAlonzo Mourning CHH 05/12/1993 CHH @ NYK L 43 24 10 17 58.8 0 1 0.0 4 10 40.0 2 4 6 1 1 3 2 3 -
p33
aVSidney Green CHH 05/12/1993 CHH @ NYK L 11 4 2 3 66.7 0 0 - 0 0 - 2 8 10 0 0 0 0 3 -
p34
aVDell Curry CHH 05/12/1993 CHH @ NYK L 30 9 4 14 28.6 0 3 0.0 1 1 100.0 3 4 7 4 1 0 2 4 -
p35
aVKendall Gill CHH 05/12/1993 CHH @ NYK L 36 15 6 15 40.0 0 1 0.0 3 4 75.0 2 5 7 3 1 0 4 3 -
p36
aVLarry Johnson CHH 05/12/1993 CHH @ NYK L 46 16 7 17 41.2 0 1 0.0 2 2 100.0 3 6 9 3 1 0 4 4 -
p37
aVTony Bennett CHH 05/12/1993 CHH @ NYK L 7 5 2 3 66.7 1 1 100.0 0 0 - 0 1 1 2 0 0 4 2 -
p38
aVJohnny Newman CHH 05/12/1993 CHH @ NYK L 16 8 3 5 60.0 0 1 0.0 2 2 100.0 0 2 2 2 0 0 2 3 -
p39
aVMuggsy Bogues CHH 05/12/1993 CHH @ NYK L 41 9 4 7 57.1 0 0 - 1 1 100.0 1 3 4 7 4 0 1 4 -
p40
aVKenny Gattison CHH 05/12/1993 CHH @ NYK L 15 5 1 4 25.0 0 0 - 3 4 75.0 1 0 1 1 0 1 1 1 -
p41
aVMike Gminski CHH 05/09/1993 CHH @ NYK L 4 2 1 2 50.0 0 0 - 0 0 - 0 1 1 0 0 0 0 0 -
p42
aVKendall Gill CHH 05/09/1993 CHH @ NYK L 36 10 5 15 33.3 0 0 - 0 0 - 6 2 8 1 2 0 2 1 -
p43
aVDavid Wingate CHH 05/09/1993 CHH @ NYK L 5 0 0 1 0.0 0 0 - 0 0 - 0 0 0 2 0 0 0 1 -
p44
aVJohnny Newman CHH 05/09/1993 CHH @ NYK L 28 18 9 17 52.9 0 1 0.0 0 1 0.0 1 2 3 6 3 0 1 3 -
p45
aVLarry Johnson CHH 05/09/1993 CHH @ NYK L 16 9 3 5 60.0 0 0 - 3 4 75.0 1 1 2 1 0 0 1 2 -
p46
aVKenny Gattison CHH 05/09/1993 CHH @ NYK L 25 4 1 5 20.0 0 0 - 2 2 100.0 2 5 7 0 0 0 0 4 -
p47
aVMuggsy Bogues CHH 05/09/1993 CHH @ NYK L 33 8 4 9 44.4 0 0 - 0 0 - 0 3 3 8 3 0 4 4 -
p48
aVSidney Green CHH 05/09/1993 CHH @ NYK L 13 2 1 3 33.3 0 0 - 0 0 - 1 2 3 0 0 0 1 3 -
p49
aVTony Bennett CHH 05/09/1993 CHH @ NYK L 13 9 4 4 100.0 1 1 100.0 0 0 - 0 1 1 0 0 0 1 0 -
p50
aVDell Curry CHH 05/09/1993 CHH @ NYK L 24 6 3 9 33.3 0 0 - 0 0 - 1 3 4 0 0 0 1 2 -
p51
aVAlonzo Mourning CHH 05/09/1993 CHH @ NYK L 43 27 10 21 47.6 0 0 - 7 9 77.8 5 8 13 0 1 4 7 4 -
p52
aVDavid Wingate CHH 05/05/1993 CHH vs. BOS W 13 3 1 1 100.0 0 0 - 1 2 50.0 0 1 1 0 1 0 0 0 -
p53
aVDell Curry CHH 05/05/1993 CHH vs. BOS W 25 7 3 8 37.5 1 1 100.0 0 1 0.0 2 1 3 5 0 0 1 1 -
p54
aVJohnny Newman CHH 05/05/1993 CHH vs. BOS W 16 6 3 4 75.0 0 0 - 0 0 - 1 2 3 2 1 0 1 0 -
p55
aVAlonzo Mourning CHH 05/05/1993 CHH vs. BOS W 35 33 9 13 69.2 0 0 - 15 18 83.3 1 6 7 0 0 6 4 5 -
p56
aVTony Bennett CHH 05/05/1993 CHH vs. BOS W 8 3 1 4 25.0 1 2 50.0 0 0 - 0 0 0 0 0 0 0 0 -
p57
aVKenny Gattison CHH 05/05/1993 CHH vs. BOS W 23 8 4 6 66.7 0 0 - 0 2 0.0 0 0 0 3 0 0 0 3 -
p58
aVKendall Gill CHH 05/05/1993 CHH vs. BOS W 38 18 7 19 36.8 0 0 - 4 5 80.0 1 1 2 3 2 2 0 3 -
p59
aVMuggsy Bogues CHH 05/05/1993 CHH vs. BOS W 35 6 3 10 30.0 0 0 - 0 0 - 1 3 4 9 2 0 1 1 -
p60
aVSidney Green CHH 05/05/1993 CHH vs. BOS W 10 0 0 2 0.0 0 0 - 0 0 - 2 3 5 0 0 0 0 1 -
p61
aVLarry Johnson CHH 05/05/1993 CHH vs. BOS W 37 20 9 15 60.0 0 0 - 2 2 100.0 3 3 6 4 1 1 4 4 -
p62
aVKendall Gill CHH 05/03/1993 CHH vs. BOS W 32 12 6 15 40.0 0 1 0.0 0 0 - 1 0 1 3 1 0 0 2 -
p63
aVMuggsy Bogues CHH 05/03/1993 CHH vs. BOS W 34 10 5 8 62.5 0 0 - 0 1 0.0 1 2 3 7 1 0 3 1 -
p64
aVKenny Gattison CHH 05/03/1993 CHH vs. BOS W 31 9 4 4 100.0 0 0 - 1 2 50.0 1 3 4 5 3 0 0 3 -
p65
aVKevin Lynch CHH 05/03/1993 CHH vs. BOS W 3 0 0 0 - 0 0 - 0 0 - 0 0 0 1 0 0 0 0 -
p66
aVDell Curry CHH 05/03/1993 CHH vs. BOS W 24 27 12 17 70.6 3 5 60.0 0 1 0.0 2 4 6 4 3 0 1 2 -
p67
aVAlonzo Mourning CHH 05/03/1993 CHH vs. BOS W 31 14 6 12 50.0 0 0 - 2 4 50.0 3 5 8 1 0 2 3 5 -
p68
aVDavid Wingate CHH 05/03/1993 CHH vs. BOS W 7 0 0 0 - 0 0 - 0 0 - 0 0 0 3 0 0 0 0 -
p69
aVLarry Johnson CHH 05/03/1993 CHH vs. BOS W 33 29 10 13 76.9 0 0 - 9 12 75.0 3 8 11 4 1 0 2 3 -
p70
aVSidney Green CHH 05/03/1993 CHH vs. BOS W 9 4 2 4 50.0 0 0 - 0 0 - 0 2 2 0 0 1 0 1 -
p71
aVJohnny Newman CHH 05/03/1993 CHH vs. BOS W 24 10 4 6 66.7 0 0 - 2 3 66.7 0 0 0 1 3 0 1 1 -
p72
aVTony Bennett CHH 05/03/1993 CHH vs. BOS W 12 4 2 4 50.0 0 1 0.0 0 0 - 0 1 1 3 0 0 0 3 -
p73
aVJohnny Newman CHH 05/01/1993 CHH @ BOS W 18 7 2 4 50.0 0 1 0.0 3 4 75.0 2 0 2 1 2 1 1 2 -
p74
aVLarry Johnson CHH 05/01/1993 CHH @ BOS W 52 23 9 16 56.3 0 0 - 5 6 83.3 0 7 7 3 1 0 1 2 -
p75
aVMike Gminski CHH 05/01/1993 CHH @ BOS W 1 0 0 0 - 0 0 - 0 0 - 0 0 0 0 0 0 0 0 -
p76
aVSidney Green CHH 05/01/1993 CHH @ BOS W 5 0 0 0 - 0 0 - 0 0 - 0 0 0 0 0 0 0 0 -
p77
aVAlonzo Mourning CHH 05/01/1993 CHH @ BOS W 49 18 5 14 35.7 0 0 - 8 8 100.0 3 11 14 3 1 6 3 6 -
p78
aVDavid Wingate CHH 05/01/1993 CHH @ BOS W 15 4 2 3 66.7 0 0 - 0 0 - 1 0 1 3 0 0 0 1 -
p79
aVMuggsy Bogues CHH 05/01/1993 CHH @ BOS W 47 13 6 11 54.5 0 0 - 1 2 50.0 1 3 4 8 1 0 1 1 -
p80
aVDell Curry CHH 05/01/1993 CHH @ BOS W 21 9 3 6 50.0 1 2 50.0 2 2 100.0 0 1 1 1 1 0 0 2 -
p81
aVKendall Gill CHH 05/01/1993 CHH @ BOS W 50 18 8 23 34.8 0 0 - 2 3 66.7 3 2 5 3 2 0 4 4 -
p82
aVKenny Gattison CHH 05/01/1993 CHH @ BOS W 32 7 3 7 42.9 0 0 - 1 4 25.0 3 3 6 2 1 0 3 2 -
p83
aVKenny Gattison CHH 04/29/1993 CHH @ BOS L 19 2 1 3 33.3 0 0 - 0 0 - 2 4 6 0 0 0 2 2 -
p84
aVAlonzo Mourning CHH 04/29/1993 CHH @ BOS L 37 30 9 16 56.3 0 0 - 12 15 80.0 3 8 11 0 1 2 4 3 -
p85
aVSidney Green CHH 04/29/1993 CHH @ BOS L 9 2 1 3 33.3 0 0 - 0 0 - 1 3 4 0 0 0 0 2 -
p86
aVMuggsy Bogues CHH 04/29/1993 CHH @ BOS L 38 6 3 10 30.0 0 1 0.0 0 0 - 0 0 0 15 2 0 1 1 -
p87
aVKendall Gill CHH 04/29/1993 CHH @ BOS L 40 30 12 24 50.0 0 2 0.0 6 9 66.7 3 1 4 5 3 1 1 5 -
p88
aVDell Curry CHH 04/29/1993 CHH @ BOS L 21 6 3 12 25.0 0 3 0.0 0 0 - 0 3 3 0 1 0 0 1 -
p89
aVDavid Wingate CHH 04/29/1993 CHH @ BOS L 7 2 1 1 100.0 0 0 - 0 0 - 0 0 0 0 0 0 0 0 -
p90
aVJohnny Newman CHH 04/29/1993 CHH @ BOS L 21 5 2 8 25.0 0 0 - 1 2 50.0 3 0 3 2 0 0 3 1 -
p91
aVTony Bennett CHH 04/29/1993 CHH @ BOS L 7 2 1 3 33.3 0 1 0.0 0 0 - 0 1 1 1 1 0 0 1 -
p92
aVLarry Johnson CHH 04/29/1993 CHH @ BOS L 41 16 7 13 53.8 0 0 - 2 2 100.0 4 9 13 6 0 1 1 2 -
p93
a.