(lp0
VPLAYER TEAM DATE MATCHUP W/L MIN PTS FGM FGA FG% 3PM 3PA 3P% FTM FTA FT% OREB DREB REB AST STL BLK TOV PF +/-
p1
aVKarl Malone UTH 05/08/1993 UTH @ SEA L 45 26 10 19 52.6 0 0 - 6 6 100.0 3 9 12 2 0 1 3 2 -
p2
aVMike Brown UTH 05/08/1993 UTH @ SEA L 19 6 2 5 40.0 0 0 - 2 2 100.0 0 5 5 0 0 0 1 2 -
p3
aVDavid Benoit UTH 05/08/1993 UTH @ SEA L 37 11 4 10 40.0 1 2 50.0 2 4 50.0 2 4 6 1 2 1 0 3 -
p4
aVTyrone Corbin UTH 05/08/1993 UTH @ SEA L 27 7 1 4 25.0 0 0 - 5 6 83.3 2 4 6 1 0 0 1 1 -
p5
aVMark Eaton UTH 05/08/1993 UTH @ SEA L 25 4 1 3 33.3 0 0 - 2 4 50.0 2 4 6 1 0 3 0 1 -
p6
aVJeff Malone UTH 05/08/1993 UTH @ SEA L 31 14 6 13 46.2 0 0 - 2 4 50.0 1 2 3 1 1 0 2 3 -
p7
aVJohn Stockton UTH 05/08/1993 UTH @ SEA L 38 19 8 14 57.1 3 5 60.0 0 0 - 1 0 1 11 1 0 3 5 -
p8
aVJay Humphries UTH 05/08/1993 UTH @ SEA L 18 5 2 6 33.3 1 3 33.3 0 0 - 0 1 1 2 0 0 1 2 -
p9
aVKarl Malone UTH 05/06/1993 UTH vs. SEA L 43 21 7 18 38.9 0 0 - 7 9 77.8 2 10 12 2 2 1 6 5 -
p10
aVJeff Malone UTH 05/06/1993 UTH vs. SEA L 31 14 7 17 41.2 0 0 - 0 0 - 1 2 3 0 0 0 1 1 -
p11
aVJay Humphries UTH 05/06/1993 UTH vs. SEA L 25 5 2 8 25.0 1 3 33.3 0 0 - 1 0 1 5 0 2 1 3 -
p12
aVDavid Benoit UTH 05/06/1993 UTH vs. SEA L 19 0 0 3 0.0 0 2 0.0 0 0 - 0 2 2 1 0 1 1 1 -
p13
aVTyrone Corbin UTH 05/06/1993 UTH vs. SEA L 31 13 6 10 60.0 0 0 - 1 3 33.3 4 3 7 1 0 0 1 4 -
p14
aVMike Brown UTH 05/06/1993 UTH vs. SEA L 26 8 3 8 37.5 0 0 - 2 2 100.0 1 1 2 1 0 1 1 2 -
p15
aVMark Eaton UTH 05/06/1993 UTH vs. SEA L 25 8 4 4 100.0 0 0 - 0 0 - 2 5 7 0 0 2 1 2 -
p16
aVJohn Stockton UTH 05/06/1993 UTH vs. SEA L 40 11 4 11 36.4 1 3 33.3 2 3 66.7 0 2 2 15 3 0 2 2 -
p17
aVJohn Stockton UTH 05/04/1993 UTH vs. SEA W 38 11 2 6 33.3 1 2 50.0 6 6 100.0 2 3 5 10 4 0 6 3 -
p18
aVMike Brown UTH 05/04/1993 UTH vs. SEA W 18 8 3 5 60.0 0 0 - 2 5 40.0 0 4 4 0 0 0 1 2 -
p19
aVJay Humphries UTH 05/04/1993 UTH vs. SEA W 23 4 2 4 50.0 0 1 0.0 0 0 - 0 3 3 4 0 1 0 1 -
p20
aVDavid Benoit UTH 05/04/1993 UTH vs. SEA W 22 11 3 7 42.9 0 2 0.0 5 6 83.3 2 6 8 1 0 1 1 5 -
p21
aVTyrone Corbin UTH 05/04/1993 UTH vs. SEA W 38 12 6 12 50.0 0 0 - 0 0 - 2 7 9 2 1 0 4 4 -
p22
aVMark Eaton UTH 05/04/1993 UTH vs. SEA W 20 2 1 5 20.0 0 0 - 0 0 - 7 2 9 1 0 0 1 1 -
p23
aVKarl Malone UTH 05/04/1993 UTH vs. SEA W 46 23 8 20 40.0 0 0 - 7 9 77.8 1 5 6 1 1 0 1 5 -
p24
aVJeff Malone UTH 05/04/1993 UTH vs. SEA W 35 19 7 15 46.7 0 0 - 5 6 83.3 1 3 4 2 2 1 1 1 -
p25
aVMike Brown UTH 05/02/1993 UTH @ SEA W 19 11 5 7 71.4 0 0 - 1 2 50.0 2 2 4 0 0 0 1 2 -
p26
aVJay Humphries UTH 05/02/1993 UTH @ SEA W 26 10 4 8 50.0 0 0 - 2 4 50.0 2 1 3 3 2 0 2 0 -
p27
aVTyrone Corbin UTH 05/02/1993 UTH @ SEA W 33 10 4 8 50.0 0 0 - 2 4 50.0 2 4 6 4 0 0 0 3 -
p28
aVJeff Malone UTH 05/02/1993 UTH @ SEA W 21 6 3 9 33.3 0 0 - 0 0 - 0 3 3 0 0 0 2 4 -
p29
aVMark Eaton UTH 05/02/1993 UTH @ SEA W 32 8 4 5 80.0 0 0 - 0 0 - 3 5 8 0 0 4 0 4 -
p30
aVJohn Stockton UTH 05/02/1993 UTH @ SEA W 41 14 4 9 44.4 0 1 0.0 6 7 85.7 1 2 3 12 3 0 3 2 -
p31
aVKarl Malone UTH 05/02/1993 UTH @ SEA W 40 26 10 21 47.6 0 1 0.0 6 8 75.0 1 8 9 3 1 0 6 5 -
p32
aVDavid Benoit UTH 05/02/1993 UTH @ SEA W 28 4 2 6 33.3 0 0 - 0 0 - 1 2 3 0 0 1 0 4 -
p33
aVTyrone Corbin UTH 04/30/1993 UTH @ SEA L 32 17 7 16 43.8 0 0 - 3 4 75.0 6 4 10 1 2 1 1 3 -
p34
aVLarry Krystkowiak UTH 04/30/1993 UTH @ SEA L 8 0 0 1 0.0 0 0 - 0 0 - 1 1 2 0 0 0 1 1 -
p35
aVMike Brown UTH 04/30/1993 UTH @ SEA L 11 0 0 0 - 0 0 - 0 0 - 1 0 1 1 0 0 1 1 -
p36
aVJay Humphries UTH 04/30/1993 UTH @ SEA L 23 2 1 7 14.3 0 1 0.0 0 0 - 2 0 2 3 1 0 2 2 -
p37
aVKarl Malone UTH 04/30/1993 UTH @ SEA L 42 24 9 19 47.4 1 1 100.0 5 6 83.3 5 8 13 2 2 0 4 4 -
p38
aVDavid Benoit UTH 04/30/1993 UTH @ SEA L 30 11 4 15 26.7 1 3 33.3 2 3 66.7 2 3 5 2 1 2 0 4 -
p39
aVJohn Crotty UTH 04/30/1993 UTH @ SEA L 3 4 2 2 100.0 0 0 - 0 0 - 1 0 1 1 0 0 0 0 -
p40
aVJames Donaldson UTH 04/30/1993 UTH @ SEA L 5 0 0 1 0.0 0 0 - 0 0 - 0 0 0 0 0 0 0 0 -
p41
aVJeff Malone UTH 04/30/1993 UTH @ SEA L 32 14 6 11 54.5 0 0 - 2 3 66.7 0 3 3 0 0 0 3 2 -
p42
aVJohn Stockton UTH 04/30/1993 UTH @ SEA L 36 11 5 11 45.5 0 2 0.0 1 2 50.0 1 0 1 7 1 0 1 4 -
p43
aVMark Eaton UTH 04/30/1993 UTH @ SEA L 15 0 0 2 0.0 0 0 - 0 0 - 2 1 3 0 0 0 0 1 -
p44
a.