(lp0
VPLAYER TEAM DATE MATCHUP W/L MIN PTS FGM FGA FG% 3PM 3PA 3P% FTM FTA FT% OREB DREB REB AST STL BLK TOV PF +/-
p1
aVFelton Spencer MIN 04/25/1993 MIN vs. UTH W 27 4 0 2 0.0 0 0 - 4 6 66.7 5 6 11 1 2 0 2 5 -
p2
aVBob McCann MIN 04/25/1993 MIN vs. UTH W 21 7 1 5 20.0 0 0 - 5 6 83.3 2 1 3 1 0 0 0 2 -
p3
aVLance Blanks MIN 04/25/1993 MIN vs. UTH W 14 4 2 4 50.0 0 1 0.0 0 0 - 0 2 2 0 0 1 0 2 -
p4
aVChristian Laettner MIN 04/25/1993 MIN vs. UTH W 22 11 3 11 27.3 0 0 - 5 6 83.3 1 4 5 4 1 0 4 5 -
p5
aVMarlon Maxey MIN 04/25/1993 MIN vs. UTH W 26 9 3 6 50.0 0 0 - 3 4 75.0 3 1 4 0 1 0 1 3 -
p6
aVBrad Sellers MIN 04/25/1993 MIN vs. UTH W 11 2 1 4 25.0 0 0 - 0 0 - 0 0 0 1 0 1 0 1 -
p7
aVMicheal Williams MIN 04/25/1993 MIN vs. UTH W 40 29 8 11 72.7 3 5 60.0 10 10 100.0 1 6 7 12 1 0 1 3 -
p8
aVChris Smith MIN 04/25/1993 MIN vs. UTH W 8 2 1 1 100.0 0 0 - 0 0 - 0 2 2 2 0 0 1 1 -
p9
aVDoug West MIN 04/25/1993 MIN vs. UTH W 34 22 8 16 50.0 0 0 - 6 7 85.7 2 2 4 3 2 0 3 3 -
p10
aVChuck Person MIN 04/25/1993 MIN vs. UTH W 37 23 7 19 36.8 1 4 25.0 8 8 100.0 2 3 5 3 3 0 4 2 -
p11
aVMarlon Maxey MIN 04/23/1993 MIN @ DAL L 18 6 1 5 20.0 0 0 - 4 4 100.0 1 5 6 0 0 0 0 1 -
p12
aVChris Smith MIN 04/23/1993 MIN @ DAL L 17 4 2 5 40.0 0 0 - 0 0 - 2 0 2 2 1 0 3 2 -
p13
aVBrad Sellers MIN 04/23/1993 MIN @ DAL L 21 6 2 3 66.7 0 0 - 2 2 100.0 1 3 4 1 0 0 2 3 -
p14
aVLance Blanks MIN 04/23/1993 MIN @ DAL L 23 9 4 5 80.0 1 1 100.0 0 0 - 0 0 0 3 2 0 0 6 -
p15
aVChristian Laettner MIN 04/23/1993 MIN @ DAL L 29 18 6 17 35.3 0 1 0.0 6 6 100.0 1 5 6 1 0 1 2 4 -
p16
aVFelton Spencer MIN 04/23/1993 MIN @ DAL L 28 0 0 3 0.0 0 0 - 0 0 - 1 4 5 0 0 0 0 3 -
p17
aVMicheal Williams MIN 04/23/1993 MIN @ DAL L 37 31 10 22 45.5 0 2 0.0 11 11 100.0 4 5 9 6 5 0 1 4 -
p18
aVBob McCann MIN 04/23/1993 MIN @ DAL L 21 8 3 6 50.0 0 0 - 2 2 100.0 1 3 4 1 0 4 1 3 -
p19
aVChuck Person MIN 04/23/1993 MIN @ DAL L 46 18 7 19 36.8 2 5 40.0 2 4 50.0 2 2 4 0 2 1 4 4 -
p20
aVBrad Sellers MIN 04/22/1993 MIN @ HOU L 10 0 0 3 0.0 0 0 - 0 0 - 0 0 0 3 0 0 0 1 -
p21
aVMarlon Maxey MIN 04/22/1993 MIN @ HOU L 16 4 2 2 100.0 0 0 - 0 0 - 3 3 6 1 0 3 1 1 -
p22
aVChris Smith MIN 04/22/1993 MIN @ HOU L 26 11 3 6 50.0 1 2 50.0 4 6 66.7 3 1 4 2 3 0 2 2 -
p23
aVBob McCann MIN 04/22/1993 MIN @ HOU L 20 0 0 2 0.0 0 0 - 0 0 - 0 3 3 0 1 0 1 4 -
p24
aVChuck Person MIN 04/22/1993 MIN @ HOU L 48 22 10 24 41.7 2 5 40.0 0 0 - 3 4 7 3 0 0 1 2 -
p25
aVMicheal Williams MIN 04/22/1993 MIN @ HOU L 27 10 5 14 35.7 0 2 0.0 0 0 - 1 3 4 8 2 1 1 6 -
p26
aVLance Blanks MIN 04/22/1993 MIN @ HOU L 16 0 0 5 0.0 0 1 0.0 0 0 - 1 1 2 3 0 0 0 1 -
p27
aVChristian Laettner MIN 04/22/1993 MIN @ HOU L 39 23 6 10 60.0 0 0 - 11 12 91.7 1 5 6 2 5 1 5 4 -
p28
aVDoug West MIN 04/22/1993 MIN @ HOU L 32 29 12 20 60.0 0 0 - 5 5 100.0 0 0 0 3 2 0 1 3 -
p29
aVFelton Spencer MIN 04/22/1993 MIN @ HOU L 31 11 4 7 57.1 0 0 - 3 4 75.0 3 4 7 0 1 1 0 4 -
p30
aVMarlon Maxey MIN 04/20/1993 MIN vs. LAL L 26 10 4 5 80.0 0 0 - 2 3 66.7 3 5 8 0 1 1 2 5 -
p31
aVThurl Bailey MIN 04/20/1993 MIN vs. LAL L 8 0 0 3 0.0 0 0 - 0 0 - 0 0 0 0 0 0 0 0 -
p32
aVFelton Spencer MIN 04/20/1993 MIN vs. LAL L 17 8 3 6 50.0 0 0 - 2 2 100.0 4 1 5 0 2 2 1 1 -
p33
aVDoug West MIN 04/20/1993 MIN vs. LAL L 40 20 7 18 38.9 0 2 0.0 6 8 75.0 1 0 1 3 1 0 5 4 -
p34
aVBrad Sellers MIN 04/20/1993 MIN vs. LAL L 1 0 0 0 - 0 0 - 0 0 - 0 0 0 0 0 0 0 0 -
p35
aVBob McCann MIN 04/20/1993 MIN vs. LAL L 20 6 3 3 100.0 0 0 - 0 0 - 1 3 4 2 1 2 2 3 -
p36
aVChristian Laettner MIN 04/20/1993 MIN vs. LAL L 37 20 7 13 53.8 0 0 - 6 6 100.0 4 7 11 2 0 1 7 5 -
p37
aVChuck Person MIN 04/20/1993 MIN vs. LAL L 37 12 4 14 28.6 2 6 33.3 2 4 50.0 1 4 5 4 1 1 2 2 -
p38
aVChris Smith MIN 04/20/1993 MIN vs. LAL L 13 6 1 3 33.3 0 0 - 4 6 66.7 0 0 0 2 3 0 1 1 -
p39
aVMicheal Williams MIN 04/20/1993 MIN vs. LAL L 35 11 5 15 33.3 0 2 0.0 1 1 100.0 0 3 3 6 1 0 5 2 -
p40
aVLance Blanks MIN 04/20/1993 MIN vs. LAL L 6 2 1 1 100.0 0 0 - 0 0 - 0 0 0 1 0 0 0 0 -
p41
aVChristian Laettner MIN 04/18/1993 MIN @ PHL L 35 19 8 14 57.1 0 1 0.0 3 4 75.0 4 9 13 7 2 1 5 4 -
p42
aVDoug West MIN 04/18/1993 MIN @ PHL L 42 24 12 24 50.0 0 1 0.0 0 0 - 4 2 6 2 2 0 1 3 -
p43
aVThurl Bailey MIN 04/18/1993 MIN @ PHL L 14 2 1 6 16.7 0 0 - 0 0 - 0 1 1 2 0 0 2 2 -
p44
aVFelton Spencer MIN 04/18/1993 MIN @ PHL L 7 2 1 3 33.3 0 0 - 0 0 - 1 1 2 0 0 0 1 1 -
p45
aVBob McCann MIN 04/18/1993 MIN @ PHL L 32 4 2 8 25.0 0 0 - 0 4 0.0 2 2 4 0 0 2 0 3 -
p46
aVChris Smith MIN 04/18/1993 MIN @ PHL L 21 4 2 6 33.3 0 0 - 0 0 - 0 1 1 1 1 0 1 1 -
p47
aVMarlon Maxey MIN 04/18/1993 MIN @ PHL L 22 10 4 8 50.0 0 0 - 2 3 66.7 2 6 8 1 1 1 0 4 -
p48
aVChuck Person MIN 04/18/1993 MIN @ PHL L 31 6 3 9 33.3 0 0 - 0 0 - 2 3 5 4 0 2 1 1 -
p49
aVBrad Sellers MIN 04/18/1993 MIN @ PHL L 3 0 0 2 0.0 0 1 0.0 0 0 - 0 1 1 1 0 0 1 0 -
p50
aVMicheal Williams MIN 04/18/1993 MIN @ PHL L 27 8 4 9 44.4 0 1 0.0 0 0 - 1 2 3 6 3 0 3 2 -
p51
aVLance Blanks MIN 04/18/1993 MIN @ PHL L 6 0 0 1 0.0 0 1 0.0 0 0 - 0 0 0 0 0 0 0 0 -
p52
aVMarlon Maxey MIN 04/16/1993 MIN vs. POR L 24 12 6 8 75.0 0 0 - 0 0 - 2 4 6 1 0 1 1 5 -
p53
aVLance Blanks MIN 04/16/1993 MIN vs. POR L 4 2 1 1 100.0 0 0 - 0 0 - 0 0 0 1 0 0 0 1 -
p54
aVMicheal Williams MIN 04/16/1993 MIN vs. POR L 38 15 4 14 28.6 0 3 0.0 7 7 100.0 3 1 4 16 1 0 2 5 -
p55
aVDoug West MIN 04/16/1993 MIN vs. POR L 44 27 13 21 61.9 0 0 - 1 1 100.0 1 3 4 4 2 0 0 4 -
p56
aVBob McCann MIN 04/16/1993 MIN vs. POR L 14 0 0 3 0.0 0 0 - 0 0 - 0 2 2 0 1 1 1 3 -
p57
aVThurl Bailey MIN 04/16/1993 MIN vs. POR L 14 4 2 4 50.0 0 0 - 0 0 - 0 2 2 0 1 0 1 0 -
p58
aVChristian Laettner MIN 04/16/1993 MIN vs. POR L 33 28 9 17 52.9 0 1 0.0 10 12 83.3 1 2 3 3 0 0 2 4 -
p59
aVFelton Spencer MIN 04/16/1993 MIN vs. POR L 25 9 4 5 80.0 0 0 - 1 2 50.0 2 2 4 0 2 0 0 3 -
p60
aVChuck Person MIN 04/16/1993 MIN vs. POR L 34 10 4 13 30.8 2 4 50.0 0 0 - 0 2 2 1 0 0 3 6 -
p61
aVChris Smith MIN 04/16/1993 MIN vs. POR L 10 2 1 2 50.0 0 0 - 0 0 - 0 0 0 4 1 0 0 1 -
p62
aVLance Blanks MIN 04/14/1993 MIN @ PHX L 7 0 0 1 0.0 0 1 0.0 0 0 - 1 1 2 0 0 0 1 2 -
p63
aVChristian Laettner MIN 04/14/1993 MIN @ PHX L 45 20 7 14 50.0 0 0 - 6 8 75.0 2 6 8 5 3 3 10 2 -
p64
aVMarlon Maxey MIN 04/14/1993 MIN @ PHX L 9 2 1 4 25.0 0 0 - 0 0 - 2 2 4 1 1 1 0 0 -
p65
aVBob McCann MIN 04/14/1993 MIN @ PHX L 36 12 5 10 50.0 0 0 - 2 4 50.0 1 6 7 2 3 1 1 3 -
p66
aVDoug West MIN 04/14/1993 MIN @ PHX L 46 27 12 19 63.2 0 0 - 3 3 100.0 0 4 4 2 1 0 4 4 -
p67
aVBrad Sellers MIN 04/14/1993 MIN @ PHX L 1 0 0 0 - 0 0 - 0 0 - 1 0 1 0 0 0 0 0 -
p68
aVChris Smith MIN 04/14/1993 MIN @ PHX L 43 11 4 13 30.8 0 1 0.0 3 5 60.0 1 2 3 5 0 0 0 2 -
p69
aVThurl Bailey MIN 04/14/1993 MIN @ PHX L 17 6 3 8 37.5 0 0 - 0 0 - 2 5 7 1 0 3 0 0 -
p70
aVChuck Person MIN 04/14/1993 MIN @ PHX L 31 2 1 6 16.7 0 0 - 0 0 - 1 4 5 7 0 1 1 2 -
p71
aVFelton Spencer MIN 04/14/1993 MIN @ PHX L 5 4 2 3 66.7 0 0 - 0 1 0.0 0 0 0 0 0 0 1 2 -
p72
aVChristian Laettner MIN 04/13/1993 MIN @ SEA L 26 9 3 6 50.0 0 0 - 3 3 100.0 2 1 3 0 2 0 4 5 -
p73
aVFelton Spencer MIN 04/13/1993 MIN @ SEA L 12 5 2 2 100.0 0 0 - 1 2 50.0 0 1 1 0 0 0 3 3 -
p74
aVThurl Bailey MIN 04/13/1993 MIN @ SEA L 10 2 1 3 33.3 0 0 - 0 0 - 0 1 1 1 0 0 0 0 -
p75
aVMarlon Maxey MIN 04/13/1993 MIN @ SEA L 21 16 5 6 83.3 0 0 - 6 10 60.0 2 1 3 1 0 0 2 2 -
p76
aVDoug West MIN 04/13/1993 MIN @ SEA L 29 15 7 13 53.8 1 1 100.0 0 1 0.0 0 1 1 2 2 0 6 3 -
p77
aVBob McCann MIN 04/13/1993 MIN @ SEA L 34 8 3 9 33.3 0 0 - 2 4 50.0 1 6 7 3 2 1 4 6 -
p78
aVChris Smith MIN 04/13/1993 MIN @ SEA L 44 24 6 10 60.0 0 0 - 12 13 92.3 1 3 4 6 0 1 4 2 -
p79
aVBrad Sellers MIN 04/13/1993 MIN @ SEA L 16 2 1 3 33.3 0 0 - 0 0 - 0 2 2 0 0 2 1 1 -
p80
aVChuck Person MIN 04/13/1993 MIN @ SEA L 19 4 1 5 20.0 1 2 50.0 1 2 50.0 0 2 2 1 0 0 1 1 -
p81
aVLance Blanks MIN 04/13/1993 MIN @ SEA L 29 10 4 5 80.0 0 0 - 2 2 100.0 0 2 2 1 1 0 3 1 -
p82
aVThurl Bailey MIN 04/11/1993 MIN @ POR L 15 7 3 7 42.9 0 0 - 1 2 50.0 1 1 2 0 1 0 0 1 -
p83
aVChristian Laettner MIN 04/11/1993 MIN @ POR L 28 16 4 12 33.3 0 0 - 8 10 80.0 0 6 6 1 0 0 2 3 -
p84
aVDoug West MIN 04/11/1993 MIN @ POR L 32 6 3 6 50.0 0 0 - 0 0 - 0 1 1 1 0 0 3 2 -
p85
aVFelton Spencer MIN 04/11/1993 MIN @ POR L 23 6 2 8 25.0 0 0 - 2 4 50.0 1 4 5 2 0 2 2 4 -
p86
aVBrad Sellers MIN 04/11/1993 MIN @ POR L 3 3 1 2 50.0 0 0 - 1 2 50.0 0 0 0 1 0 0 0 0 -
p87
aVChris Smith MIN 04/11/1993 MIN @ POR L 20 5 1 2 50.0 0 0 - 3 3 100.0 0 0 0 1 0 0 0 1 -
p88
aVChuck Person MIN 04/11/1993 MIN @ POR L 33 21 7 13 53.8 3 5 60.0 4 4 100.0 1 6 7 5 0 0 2 3 -
p89
aVMarlon Maxey MIN 04/11/1993 MIN @ POR L 21 19 8 9 88.9 0 0 - 3 4 75.0 2 2 4 0 0 1 1 3 -
p90
aVBob McCann MIN 04/11/1993 MIN @ POR L 21 6 2 7 28.6 0 0 - 2 2 100.0 2 2 4 1 0 0 3 4 -
p91
aVMicheal Williams MIN 04/11/1993 MIN @ POR L 28 15 5 10 50.0 0 2 0.0 5 5 100.0 2 1 3 7 1 0 3 3 -
p92
aVLance Blanks MIN 04/11/1993 MIN @ POR L 16 6 2 3 66.7 0 0 - 2 2 100.0 0 2 2 2 0 0 0 1 -
p93
aVLance Blanks MIN 04/09/1993 MIN vs. ORL L 3 3 0 0 - 0 0 - 3 4 75.0 0 1 1 0 0 0 0 0 -
p94
aVChuck Person MIN 04/09/1993 MIN vs. ORL L 37 14 6 15 40.0 2 5 40.0 0 0 - 1 3 4 4 1 0 1 2 -
p95
aVChris Smith MIN 04/09/1993 MIN vs. ORL L 8 4 2 2 100.0 0 0 - 0 0 - 0 0 0 1 0 0 0 0 -
p96
aVChristian Laettner MIN 04/09/1993 MIN vs. ORL L 37 20 6 16 37.5 0 0 - 8 10 80.0 1 8 9 5 3 2 4 5 -
p97
aVMicheal Williams MIN 04/09/1993 MIN vs. ORL L 41 8 4 11 36.4 0 1 0.0 0 0 - 2 2 4 13 1 0 2 3 -
p98
aVDoug West MIN 04/09/1993 MIN vs. ORL L 39 23 11 19 57.9 0 1 0.0 1 1 100.0 0 2 2 2 1 0 1 3 -
p99
aVFelton Spencer MIN 04/09/1993 MIN vs. ORL L 17 1 0 0 - 0 0 - 1 2 50.0 0 3 3 0 3 1 1 4 -
p100
aVThurl Bailey MIN 04/09/1993 MIN vs. ORL L 16 10 4 8 50.0 0 0 - 2 2 100.0 1 1 2 2 0 0 0 1 -
p101
aVBob McCann MIN 04/09/1993 MIN vs. ORL L 33 7 3 7 42.9 0 0 - 1 2 50.0 1 2 3 1 1 1 3 4 -
p102
aVMarlon Maxey MIN 04/09/1993 MIN vs. ORL L 9 2 0 1 0.0 0 0 - 2 2 100.0 1 2 3 0 0 0 0 1 -
p103
aVLance Blanks MIN 04/07/1993 MIN vs. IND L 1 0 0 0 - 0 0 - 0 0 - 0 0 0 0 0 0 0 0 -
p104
aVFelton Spencer MIN 04/07/1993 MIN vs. IND L 20 6 2 2 100.0 0 0 - 2 5 40.0 4 3 7 0 0 1 3 3 -
p105
aVGundars Vetra MIN 04/07/1993 MIN vs. IND L 10 4 2 3 66.7 0 0 - 0 0 - 0 0 0 2 0 0 0 3 -
p106
aVChuck Person MIN 04/07/1993 MIN vs. IND L 33 13 5 14 35.7 1 5 20.0 2 2 100.0 0 3 3 2 0 0 3 3 -
p107
aVDoug West MIN 04/07/1993 MIN vs. IND L 38 11 4 7 57.1 0 0 - 3 4 75.0 0 0 0 5 1 1 2 5 -
p108
aVBrad Sellers MIN 04/07/1993 MIN vs. IND L 14 2 1 1 100.0 0 0 - 0 0 - 0 1 1 0 0 1 0 1 -
p109
aVBob McCann MIN 04/07/1993 MIN vs. IND L 37 18 7 12 58.3 0 1 0.0 4 6 66.7 0 6 6 2 3 0 0 4 -
p110
aVMarlon Maxey MIN 04/07/1993 MIN vs. IND L 2 3 1 1 100.0 0 0 - 1 2 50.0 0 0 0 0 0 0 0 0 -
p111
aVMicheal Williams MIN 04/07/1993 MIN vs. IND L 43 30 6 13 46.2 2 4 50.0 16 16 100.0 0 3 3 9 1 0 0 3 -
p112
aVChristian Laettner MIN 04/07/1993 MIN vs. IND L 37 18 5 13 38.5 0 1 0.0 8 10 80.0 1 3 4 2 1 0 2 5 -
p113
aVChris Smith MIN 04/07/1993 MIN vs. IND L 5 0 0 0 - 0 0 - 0 0 - 0 0 0 1 0 0 1 0 -
p114
aVChristian Laettner MIN 04/04/1993 MIN @ DEN L 35 19 4 10 40.0 0 0 - 11 12 91.7 4 11 15 3 2 0 7 2 -
p115
aVChuck Person MIN 04/04/1993 MIN @ DEN L 35 9 4 11 36.4 1 6 16.7 0 0 - 1 2 3 5 0 0 2 2 -
p116
aVMicheal Williams MIN 04/04/1993 MIN @ DEN L 33 15 4 11 36.4 1 3 33.3 6 6 100.0 2 2 4 4 1 0 3 5 -
p117
aVDoug West MIN 04/04/1993 MIN @ DEN L 43 29 13 22 59.1 0 0 - 3 4 75.0 1 4 5 3 0 0 1 1 -
p118
aVMarlon Maxey MIN 04/04/1993 MIN @ DEN L 17 2 1 1 100.0 0 0 - 0 0 - 2 5 7 1 0 0 5 5 -
p119
aVThurl Bailey MIN 04/04/1993 MIN @ DEN L 5 0 0 3 0.0 0 0 - 0 0 - 1 0 1 0 0 0 0 0 -
p120
aVChris Smith MIN 04/04/1993 MIN @ DEN L 15 0 0 0 - 0 0 - 0 2 0.0 2 0 2 1 0 0 0 2 -
p121
aVBrad Sellers MIN 04/04/1993 MIN @ DEN L 8 2 0 3 0.0 0 0 - 2 2 100.0 0 1 1 0 0 0 0 0 -
p122
aVLance Blanks MIN 04/04/1993 MIN @ DEN L 5 0 0 1 0.0 0 0 - 0 0 - 0 1 1 0 0 0 0 1 -
p123
aVFelton Spencer MIN 04/04/1993 MIN @ DEN L 9 2 0 1 0.0 0 0 - 2 2 100.0 1 0 1 0 0 0 1 3 -
p124
aVBob McCann MIN 04/04/1993 MIN @ DEN L 35 16 8 16 50.0 0 0 - 0 1 0.0 3 0 3 0 1 0 1 3 -
p125
aVChris Smith MIN 04/02/1993 MIN @ SAN L 29 8 4 11 36.4 0 2 0.0 0 0 - 2 2 4 4 0 0 0 0 -
p126
aVFelton Spencer MIN 04/02/1993 MIN @ SAN L 18 0 0 1 0.0 0 0 - 0 0 - 0 3 3 0 0 1 0 4 -
p127
aVChristian Laettner MIN 04/02/1993 MIN @ SAN L 33 16 7 12 58.3 0 0 - 2 2 100.0 2 7 9 3 1 0 3 6 -
p128
aVChuck Person MIN 04/02/1993 MIN @ SAN L 34 10 4 12 33.3 1 7 14.3 1 2 50.0 0 4 4 2 1 1 2 3 -
p129
aVMarlon Maxey MIN 04/02/1993 MIN @ SAN L 16 8 4 6 66.7 0 0 - 0 1 0.0 5 1 6 0 1 1 3 4 -
p130
aVBob McCann MIN 04/02/1993 MIN @ SAN L 29 14 6 7 85.7 0 0 - 2 2 100.0 1 4 5 0 0 1 2 3 -
p131
aVLance Blanks MIN 04/02/1993 MIN @ SAN L 6 2 1 1 100.0 0 0 - 0 0 - 1 1 2 3 0 0 0 0 -
p132
aVDoug West MIN 04/02/1993 MIN @ SAN L 42 14 7 17 41.2 0 0 - 0 0 - 0 3 3 2 1 0 0 2 -
p133
aVThurl Bailey MIN 04/02/1993 MIN @ SAN L 14 10 4 8 50.0 0 0 - 2 3 66.7 0 1 1 0 0 0 0 1 -
p134
aVMicheal Williams MIN 04/02/1993 MIN @ SAN L 19 19 6 9 66.7 0 1 0.0 7 7 100.0 1 2 3 5 1 0 1 6 -
p135
aVBrad Sellers MIN 03/31/1993 MIN @ LAL W 2 0 0 0 - 0 0 - 0 0 - 0 0 0 0 0 0 0 0 -
p136
aVChristian Laettner MIN 03/31/1993 MIN @ LAL W 37 28 10 13 76.9 0 0 - 8 11 72.7 3 7 10 8 1 2 4 4 -
p137
aVFelton Spencer MIN 03/31/1993 MIN @ LAL W 19 6 2 5 40.0 0 0 - 2 2 100.0 2 2 4 0 1 2 0 2 -
p138
aVLance Blanks MIN 03/31/1993 MIN @ LAL W 7 4 2 2 100.0 0 0 - 0 0 - 0 1 1 1 0 0 1 0 -
p139
aVDoug West MIN 03/31/1993 MIN @ LAL W 41 23 10 13 76.9 0 0 - 3 4 75.0 0 3 3 4 0 0 1 2 -
p140
aVMicheal Williams MIN 03/31/1993 MIN @ LAL W 38 24 7 12 58.3 3 6 50.0 7 7 100.0 0 8 8 11 1 0 4 2 -
p141
aVBob McCann MIN 03/31/1993 MIN @ LAL W 12 3 1 2 50.0 0 0 - 1 2 50.0 0 0 0 0 0 1 0 5 -
p142
aVChris Smith MIN 03/31/1993 MIN @ LAL W 10 3 0 1 0.0 0 0 - 3 4 75.0 0 0 0 5 0 0 4 0 -
p143
aVMarlon Maxey MIN 03/31/1993 MIN @ LAL W 20 9 4 7 57.1 0 0 - 1 2 50.0 1 6 7 0 2 1 1 3 -
p144
aVChuck Person MIN 03/31/1993 MIN @ LAL W 42 22 9 15 60.0 4 5 80.0 0 0 - 1 0 1 5 0 1 1 1 -
p145
aVThurl Bailey MIN 03/31/1993 MIN @ LAL W 12 4 2 5 40.0 0 0 - 0 1 0.0 0 2 2 0 0 0 1 0 -
p146
aVChuck Person MIN 03/30/1993 MIN @ GOS W 41 13 6 16 37.5 1 3 33.3 0 0 - 0 2 2 3 0 0 3 3 -
p147
aVBrad Sellers MIN 03/30/1993 MIN @ GOS W 11 3 1 2 50.0 0 0 - 1 1 100.0 0 1 1 0 0 0 0 2 -
p148
aVDoug West MIN 03/30/1993 MIN @ GOS W 43 18 8 19 42.1 0 1 0.0 2 2 100.0 1 1 2 1 0 0 3 3 -
p149
aVChristian Laettner MIN 03/30/1993 MIN @ GOS W 33 14 6 9 66.7 0 0 - 2 2 100.0 1 9 10 2 5 0 4 2 -
p150
aVMarlon Maxey MIN 03/30/1993 MIN @ GOS W 21 4 2 3 66.7 0 0 - 0 1 0.0 2 5 7 1 1 1 1 2 -
p151
aVChris Smith MIN 03/30/1993 MIN @ GOS W 11 9 2 2 100.0 0 0 - 5 5 100.0 0 0 0 0 0 0 0 2 -
p152
aVFelton Spencer MIN 03/30/1993 MIN @ GOS W 15 4 1 1 100.0 0 0 - 2 2 100.0 1 3 4 0 0 1 1 4 -
p153
aVLance Blanks MIN 03/30/1993 MIN @ GOS W 1 0 0 0 - 0 0 - 0 0 - 0 0 0 0 0 0 0 0 -
p154
aVMicheal Williams MIN 03/30/1993 MIN @ GOS W 37 25 7 14 50.0 0 3 0.0 11 11 100.0 2 0 2 13 2 0 5 3 -
p155
aVBob McCann MIN 03/30/1993 MIN @ GOS W 27 13 4 9 44.4 0 0 - 5 8 62.5 2 4 6 3 2 0 3 4 -
p156
aVFelton Spencer MIN 03/28/1993 MIN vs. HOU W 32 6 2 4 50.0 0 0 - 2 2 100.0 9 5 14 1 0 0 5 6 -
p157
aVMicheal Williams MIN 03/28/1993 MIN vs. HOU W 41 14 7 15 46.7 0 1 0.0 0 0 - 2 1 3 8 6 0 2 3 -
p158
aVLance Blanks MIN 03/28/1993 MIN vs. HOU W 3 0 0 1 0.0 0 0 - 0 0 - 1 0 1 0 0 0 1 1 -
p159
aVThurl Bailey MIN 03/28/1993 MIN vs. HOU W 8 0 0 2 0.0 0 0 - 0 0 - 0 1 1 0 0 0 4 2 -
p160
aVChristian Laettner MIN 03/28/1993 MIN vs. HOU W 32 10 5 14 35.7 0 0 - 0 0 - 1 4 5 1 2 1 1 2 -
p161
aVMarlon Maxey MIN 03/28/1993 MIN vs. HOU W 8 0 0 3 0.0 0 0 - 0 0 - 2 2 4 1 0 1 0 1 -
p162
aVChris Smith MIN 03/28/1993 MIN vs. HOU W 7 2 1 1 100.0 0 0 - 0 0 - 1 1 2 2 0 0 0 1 -
p163
aVChuck Person MIN 03/28/1993 MIN vs. HOU W 40 37 14 19 73.7 6 7 85.7 3 5 60.0 0 3 3 4 1 1 1 3 -
p164
aVBrad Sellers MIN 03/28/1993 MIN vs. HOU W 1 0 0 0 - 0 0 - 0 0 - 0 0 0 0 0 0 0 0 -
p165
aVDoug West MIN 03/28/1993 MIN vs. HOU W 45 29 14 23 60.9 0 0 - 1 1 100.0 0 3 3 9 3 0 1 2 -
p166
aVBob McCann MIN 03/28/1993 MIN vs. HOU W 23 3 1 3 33.3 0 0 - 1 2 50.0 1 4 5 1 1 0 1 2 -
p167
aVDoug West MIN 03/26/1993 MIN vs. GOS L 45 27 11 18 61.1 0 0 - 5 6 83.3 1 3 4 3 1 0 1 4 -
p168
aVBob McCann MIN 03/26/1993 MIN vs. GOS L 6 0 0 2 0.0 0 0 - 0 0 - 0 1 1 0 0 1 0 0 -
p169
aVChris Smith MIN 03/26/1993 MIN vs. GOS L 8 2 1 1 100.0 0 0 - 0 0 - 0 1 1 3 0 2 0 0 -
p170
aVMicheal Williams MIN 03/26/1993 MIN vs. GOS L 40 8 3 7 42.9 0 2 0.0 2 2 100.0 0 1 1 14 5 1 4 5 -
p171
aVThurl Bailey MIN 03/26/1993 MIN vs. GOS L 16 8 4 6 66.7 0 0 - 0 0 - 2 0 2 0 0 0 1 4 -
p172
aVMarlon Maxey MIN 03/26/1993 MIN vs. GOS L 18 4 1 4 25.0 0 1 0.0 2 5 40.0 1 3 4 0 0 0 1 3 -
p173
aVChuck Person MIN 03/26/1993 MIN vs. GOS L 35 4 2 8 25.0 0 2 0.0 0 0 - 1 0 1 3 2 0 1 2 -
p174
aVFelton Spencer MIN 03/26/1993 MIN vs. GOS L 25 13 6 8 75.0 0 0 - 1 1 100.0 1 5 6 0 2 0 3 2 -
p175
aVChristian Laettner MIN 03/26/1993 MIN vs. GOS L 47 25 12 25 48.0 0 0 - 1 1 100.0 5 7 12 7 0 1 3 1 -
p176
aVChuck Person MIN 03/24/1993 MIN vs. SAN L 46 24 9 16 56.3 4 7 57.1 2 2 100.0 1 3 4 4 0 0 3 3 -
p177
aVBrad Sellers MIN 03/24/1993 MIN vs. SAN L 12 2 0 1 0.0 0 0 - 2 2 100.0 2 1 3 0 0 0 0 0 -
p178
aVGundars Vetra MIN 03/24/1993 MIN vs. SAN L 1 0 0 0 - 0 0 - 0 0 - 0 0 0 0 0 0 0 0 -
p179
aVDoug West MIN 03/24/1993 MIN vs. SAN L 37 8 4 12 33.3 0 0 - 0 0 - 0 2 2 2 0 0 1 3 -
p180
aVThurl Bailey MIN 03/24/1993 MIN vs. SAN L 16 4 2 5 40.0 0 0 - 0 1 0.0 1 0 1 1 0 2 0 1 -
p181
aVChris Smith MIN 03/24/1993 MIN vs. SAN L 12 6 2 4 50.0 0 0 - 2 2 100.0 1 1 2 0 1 0 0 0 -
p182
aVLance Blanks MIN 03/24/1993 MIN vs. SAN L 3 0 0 1 0.0 0 1 0.0 0 0 - 0 0 0 0 0 0 0 0 -
p183
aVFelton Spencer MIN 03/24/1993 MIN vs. SAN L 13 0 0 0 - 0 0 - 0 0 - 0 0 0 0 0 0 2 5 -
p184
aVMicheal Williams MIN 03/24/1993 MIN vs. SAN L 36 15 5 13 38.5 0 1 0.0 5 6 83.3 1 3 4 9 1 1 2 3 -
p185
aVChristian Laettner MIN 03/24/1993 MIN vs. SAN L 32 26 6 10 60.0 0 1 0.0 14 15 93.3 1 6 7 3 1 1 3 5 -
p186
aVBob McCann MIN 03/24/1993 MIN vs. SAN L 32 7 3 8 37.5 0 0 - 1 2 50.0 2 4 6 0 1 2 1 6 -
p187
aVMicheal Williams MIN 03/23/1993 MIN @ CHI L 46 23 6 10 60.0 0 1 0.0 11 11 100.0 2 0 2 7 1 0 2 1 -
p188
aVFelton Spencer MIN 03/23/1993 MIN @ CHI L 18 2 1 2 50.0 0 0 - 0 1 0.0 1 2 3 1 0 1 0 2 -
p189
aVChristian Laettner MIN 03/23/1993 MIN @ CHI L 46 21 6 14 42.9 0 1 0.0 9 10 90.0 3 9 12 3 2 3 4 3 -
p190
aVBob McCann MIN 03/23/1993 MIN @ CHI L 32 8 3 7 42.9 0 0 - 2 2 100.0 1 1 2 1 2 2 2 4 -
p191
aVChuck Person MIN 03/23/1993 MIN @ CHI L 39 31 12 24 50.0 6 11 54.5 1 2 50.0 1 5 6 0 1 1 3 5 -
p192
aVDoug West MIN 03/23/1993 MIN @ CHI L 45 7 3 12 25.0 0 0 - 1 2 50.0 3 5 8 8 0 0 3 4 -
p193
aVChris Smith MIN 03/23/1993 MIN @ CHI L 2 0 0 0 - 0 0 - 0 0 - 0 0 0 0 0 0 1 2 -
p194
aVBrad Sellers MIN 03/23/1993 MIN @ CHI L 12 8 2 3 66.7 0 0 - 4 4 100.0 1 0 1 0 0 0 0 3 -
p195
aVChris Smith MIN 03/21/1993 MIN vs. CHH L 10 2 1 3 33.3 0 0 - 0 0 - 0 1 1 2 0 0 0 1 -
p196
aVBob McCann MIN 03/21/1993 MIN vs. CHH L 20 4 2 6 33.3 0 0 - 0 0 - 0 0 0 2 0 2 1 3 -
p197
aVBrad Sellers MIN 03/21/1993 MIN vs. CHH L 45 7 3 11 27.3 0 0 - 1 1 100.0 3 4 7 2 0 0 1 2 -
p198
aVGundars Vetra MIN 03/21/1993 MIN vs. CHH L 9 2 1 4 25.0 0 0 - 0 0 - 0 0 0 1 0 0 0 0 -
p199
aVMicheal Williams MIN 03/21/1993 MIN vs. CHH L 38 23 8 16 50.0 2 4 50.0 5 6 83.3 0 2 2 7 3 0 3 4 -
p200
aVDoug West MIN 03/21/1993 MIN vs. CHH L 42 22 10 20 50.0 0 0 - 2 4 50.0 1 0 1 2 1 0 1 4 -
p201
aVChristian Laettner MIN 03/21/1993 MIN vs. CHH L 46 27 10 16 62.5 0 1 0.0 7 7 100.0 1 17 18 7 3 2 7 5 -
p202
aVFelton Spencer MIN 03/21/1993 MIN vs. CHH L 30 8 3 6 50.0 0 0 - 2 3 66.7 5 5 10 2 0 2 1 4 -
p203
aVChris Smith MIN 03/19/1993 MIN @ ATL L 24 9 4 9 44.4 0 0 - 1 2 50.0 2 1 3 3 1 0 1 2 -
p204
aVBrad Sellers MIN 03/19/1993 MIN @ ATL L 22 6 3 7 42.9 0 0 - 0 0 - 3 2 5 4 0 0 1 1 -
p205
aVGundars Vetra MIN 03/19/1993 MIN @ ATL L 13 8 3 4 75.0 2 2 100.0 0 0 - 0 1 1 0 0 0 0 3 -
p206
aVLance Blanks MIN 03/19/1993 MIN @ ATL L 23 2 1 8 12.5 0 5 0.0 0 2 0.0 0 2 2 0 0 0 1 4 -
p207
aVChristian Laettner MIN 03/19/1993 MIN @ ATL L 38 23 10 20 50.0 0 1 0.0 3 3 100.0 4 8 12 6 0 0 2 1 -
p208
aVDoug West MIN 03/19/1993 MIN @ ATL L 39 22 10 18 55.6 0 0 - 2 2 100.0 0 4 4 3 0 0 2 4 -
p209
aVBob McCann MIN 03/19/1993 MIN @ ATL L 37 18 8 14 57.1 0 0 - 2 2 100.0 1 0 1 3 2 3 1 4 -
p210
aVMicheal Williams MIN 03/19/1993 MIN @ ATL L 24 4 2 5 40.0 0 0 - 0 0 - 1 0 1 6 2 0 5 2 -
p211
aVFelton Spencer MIN 03/19/1993 MIN @ ATL L 20 11 5 8 62.5 0 0 - 1 2 50.0 3 1 4 0 0 0 1 2 -
p212
aVChristian Laettner MIN 03/18/1993 MIN @ CHH L 36 17 5 17 29.4 0 1 0.0 7 8 87.5 3 10 13 4 1 0 4 5 -
p213
aVDoug West MIN 03/18/1993 MIN @ CHH L 31 17 7 15 46.7 0 0 - 3 4 75.0 2 2 4 0 2 0 6 4 -
p214
aVBrad Sellers MIN 03/18/1993 MIN @ CHH L 38 6 3 7 42.9 0 0 - 0 0 - 1 0 1 3 0 0 1 2 -
p215
aVMicheal Williams MIN 03/18/1993 MIN @ CHH L 27 7 2 9 22.2 0 2 0.0 3 3 100.0 2 1 3 3 1 0 2 3 -
p216
aVFelton Spencer MIN 03/18/1993 MIN @ CHH L 28 0 0 2 0.0 0 0 - 0 0 - 1 2 3 1 1 1 0 6 -
p217
aVChris Smith MIN 03/18/1993 MIN @ CHH L 21 7 2 5 40.0 0 0 - 3 4 75.0 0 3 3 6 1 0 1 1 -
p218
aVBob McCann MIN 03/18/1993 MIN @ CHH L 17 5 2 6 33.3 0 0 - 1 3 33.3 0 1 1 1 0 1 1 2 -
p219
aVLance Blanks MIN 03/18/1993 MIN @ CHH L 11 2 1 4 25.0 0 2 0.0 0 0 - 0 1 1 1 1 0 0 1 -
p220
aVMarlon Maxey MIN 03/18/1993 MIN @ CHH L 10 7 3 6 50.0 0 0 - 1 2 50.0 1 4 5 0 0 1 1 3 -
p221
aVGundars Vetra MIN 03/18/1993 MIN @ CHH L 21 17 8 13 61.5 1 1 100.0 0 0 - 3 1 4 0 1 0 0 2 -
p222
aVMarlon Maxey MIN 03/16/1993 MIN vs. DEN W 4 0 0 0 - 0 0 - 0 0 - 0 2 2 0 0 0 2 2 -
p223
aVChristian Laettner MIN 03/16/1993 MIN vs. DEN W 37 21 8 17 47.1 0 1 0.0 5 5 100.0 2 12 14 6 3 4 3 6 -
p224
aVFelton Spencer MIN 03/16/1993 MIN vs. DEN W 26 2 1 4 25.0 0 0 - 0 0 - 1 3 4 0 0 1 1 4 -
p225
aVChris Smith MIN 03/16/1993 MIN vs. DEN W 12 6 2 3 66.7 0 0 - 2 2 100.0 1 0 1 1 0 0 0 0 -
p226
aVBob McCann MIN 03/16/1993 MIN vs. DEN W 22 11 5 12 41.7 0 0 - 1 2 50.0 4 1 5 1 0 1 1 2 -
p227
aVDoug West MIN 03/16/1993 MIN vs. DEN W 44 28 13 24 54.2 0 0 - 2 2 100.0 0 2 2 4 2 0 3 5 -
p228
aVMicheal Williams MIN 03/16/1993 MIN vs. DEN W 36 12 6 13 46.2 0 0 - 0 0 - 0 3 3 12 0 0 1 5 -
p229
aVGundars Vetra MIN 03/16/1993 MIN vs. DEN W 14 4 2 5 40.0 0 0 - 0 0 - 1 0 1 0 0 0 0 0 -
p230
aVBrad Sellers MIN 03/16/1993 MIN vs. DEN W 38 8 4 7 57.1 0 0 - 0 0 - 3 4 7 6 0 0 1 1 -
p231
aVLuc Longley MIN 03/16/1993 MIN vs. DEN W 7 8 4 7 57.1 0 0 - 0 0 - 3 0 3 0 0 0 0 1 -
p232
aVMicheal Williams MIN 03/14/1993 MIN vs. LAC L 36 14 6 9 66.7 0 0 - 2 2 100.0 0 5 5 13 3 2 4 3 -
p233
aVDoug West MIN 03/14/1993 MIN vs. LAC L 42 28 10 21 47.6 0 0 - 8 8 100.0 3 3 6 3 1 0 2 4 -
p234
aVFelton Spencer MIN 03/14/1993 MIN vs. LAC L 3 2 0 1 0.0 0 0 - 2 2 100.0 1 1 2 0 1 1 0 0 -
p235
aVMarlon Maxey MIN 03/14/1993 MIN vs. LAC L 21 4 2 4 50.0 0 0 - 0 0 - 2 6 8 0 0 0 2 2 -
p236
aVLuc Longley MIN 03/14/1993 MIN vs. LAC L 27 12 5 10 50.0 0 0 - 2 4 50.0 3 0 3 0 2 3 3 1 -
p237
aVBrad Sellers MIN 03/14/1993 MIN vs. LAC L 8 2 1 1 100.0 0 0 - 0 0 - 1 1 2 1 2 0 0 0 -
p238
aVChuck Person MIN 03/14/1993 MIN vs. LAC L 33 14 6 12 50.0 1 3 33.3 1 2 50.0 2 2 4 2 0 0 2 4 -
p239
aVChris Smith MIN 03/14/1993 MIN vs. LAC L 12 4 1 3 33.3 0 0 - 2 2 100.0 0 1 1 5 0 0 1 0 -
p240
aVBob McCann MIN 03/14/1993 MIN vs. LAC L 7 6 3 3 100.0 0 0 - 0 0 - 0 0 0 2 1 0 3 0 -
p241
aVThurl Bailey MIN 03/14/1993 MIN vs. LAC L 7 2 1 3 33.3 0 0 - 0 0 - 0 0 0 0 0 1 0 0 -
p242
aVLance Blanks MIN 03/14/1993 MIN vs. LAC L 6 0 0 1 0.0 0 0 - 0 0 - 0 0 0 0 0 0 1 1 -
p243
aVChristian Laettner MIN 03/14/1993 MIN vs. LAC L 38 19 4 11 36.4 0 0 - 11 14 78.6 3 3 6 4 1 2 3 4 -
p244
aVMicheal Williams MIN 03/12/1993 MIN @ LAC L 30 9 3 7 42.9 0 0 - 3 3 100.0 0 2 2 6 3 0 7 3 -
p245
aVThurl Bailey MIN 03/12/1993 MIN @ LAC L 13 0 0 0 - 0 0 - 0 0 - 0 2 2 0 0 0 0 0 -
p246
aVDoug West MIN 03/12/1993 MIN @ LAC L 26 20 10 16 62.5 0 0 - 0 0 - 0 0 0 2 0 0 0 3 -
p247
aVBrad Sellers MIN 03/12/1993 MIN @ LAC L 16 6 2 6 33.3 0 0 - 2 2 100.0 1 3 4 0 1 0 3 2 -
p248
aVChris Smith MIN 03/12/1993 MIN @ LAC L 18 1 0 2 0.0 0 0 - 1 2 50.0 0 1 1 6 0 0 4 0 -
p249
aVBob McCann MIN 03/12/1993 MIN @ LAC L 17 8 3 3 100.0 0 0 - 2 2 100.0 2 5 7 0 1 0 2 2 -
p250
aVChristian Laettner MIN 03/12/1993 MIN @ LAC L 38 17 6 16 37.5 0 1 0.0 5 5 100.0 3 7 10 3 2 2 3 2 -
p251
aVLance Blanks MIN 03/12/1993 MIN @ LAC L 11 4 2 4 50.0 0 0 - 0 2 0.0 0 0 0 0 3 0 2 0 -
p252
aVChuck Person MIN 03/12/1993 MIN @ LAC L 30 13 6 14 42.9 0 2 0.0 1 2 50.0 1 1 2 4 0 1 1 4 -
p253
aVMarlon Maxey MIN 03/12/1993 MIN @ LAC L 33 13 4 12 33.3 0 0 - 5 6 83.3 6 4 10 0 1 0 2 2 -
p254
aVLuc Longley MIN 03/12/1993 MIN @ LAC L 8 2 0 0 - 0 0 - 2 2 100.0 0 1 1 1 0 0 1 2 -
p255
aVMarlon Maxey MIN 03/11/1993 MIN @ SAC L 38 24 9 12 75.0 0 0 - 6 7 85.7 3 9 12 1 0 2 3 3 -
p256
aVMicheal Williams MIN 03/11/1993 MIN @ SAC L 31 7 3 6 50.0 0 0 - 1 3 33.3 0 2 2 7 0 0 5 4 -
p257
aVChris Smith MIN 03/11/1993 MIN @ SAC L 17 7 3 5 60.0 0 0 - 1 1 100.0 1 1 2 2 0 0 2 1 -
p258
aVBob McCann MIN 03/11/1993 MIN @ SAC L 21 4 2 6 33.3 0 0 - 0 2 0.0 1 4 5 2 0 0 1 4 -
p259
aVFelton Spencer MIN 03/11/1993 MIN @ SAC L 5 2 1 2 50.0 0 0 - 0 0 - 2 5 7 0 0 1 0 3 -
p260
aVDoug West MIN 03/11/1993 MIN @ SAC L 32 22 8 16 50.0 0 0 - 6 6 100.0 0 3 3 2 3 1 4 5 -
p261
aVChuck Person MIN 03/11/1993 MIN @ SAC L 29 5 2 5 40.0 0 2 0.0 1 2 50.0 0 5 5 2 0 0 5 2 -
p262
aVLance Blanks MIN 03/11/1993 MIN @ SAC L 16 2 1 4 25.0 0 0 - 0 0 - 0 2 2 5 0 0 1 1 -
p263
aVBrad Sellers MIN 03/11/1993 MIN @ SAC L 12 6 3 6 50.0 0 0 - 0 0 - 1 0 1 1 0 2 0 0 -
p264
aVThurl Bailey MIN 03/11/1993 MIN @ SAC L 11 4 2 4 50.0 0 0 - 0 0 - 0 0 0 1 0 1 0 2 -
p265
aVChristian Laettner MIN 03/11/1993 MIN @ SAC L 28 12 6 11 54.5 0 1 0.0 0 0 - 4 6 10 2 0 0 4 5 -
p266
aVThurl Bailey MIN 03/09/1993 MIN @ UTH L 18 8 2 8 25.0 0 0 - 4 4 100.0 0 1 1 0 0 2 0 1 -
p267
aVChuck Person MIN 03/09/1993 MIN @ UTH L 40 13 6 14 42.9 1 5 20.0 0 0 - 0 3 3 3 0 0 6 2 -
p268
aVLuc Longley MIN 03/09/1993 MIN @ UTH L 4 0 0 0 - 0 0 - 0 0 - 0 1 1 0 0 0 0 0 -
p269
aVDoug West MIN 03/09/1993 MIN @ UTH L 37 23 11 16 68.8 0 1 0.0 1 1 100.0 0 1 1 2 1 0 2 5 -
p270
aVMicheal Williams MIN 03/09/1993 MIN @ UTH L 26 22 9 13 69.2 0 0 - 4 4 100.0 1 3 4 11 1 0 2 6 -
p271
aVBob McCann MIN 03/09/1993 MIN @ UTH L 26 10 3 5 60.0 0 0 - 4 4 100.0 0 2 2 3 1 2 1 3 -
p272
aVChris Smith MIN 03/09/1993 MIN @ UTH L 18 6 2 3 66.7 0 0 - 2 2 100.0 1 0 1 2 0 0 2 5 -
p273
aVLance Blanks MIN 03/09/1993 MIN @ UTH L 5 0 0 0 - 0 0 - 0 0 - 0 1 1 1 0 1 1 1 -
p274
aVChristian Laettner MIN 03/09/1993 MIN @ UTH L 42 17 8 16 50.0 0 1 0.0 1 2 50.0 5 14 19 5 0 0 2 4 -
p275
aVFelton Spencer MIN 03/09/1993 MIN @ UTH L 13 4 1 1 100.0 0 0 - 2 2 100.0 0 1 1 0 0 1 0 4 -
p276
aVMarlon Maxey MIN 03/09/1993 MIN @ UTH L 11 4 2 4 50.0 0 0 - 0 0 - 1 3 4 1 0 0 0 3 -
p277
aVFelton Spencer MIN 03/08/1993 MIN vs. PHL L 17 4 2 5 40.0 0 0 - 0 2 0.0 2 4 6 0 0 2 0 1 -
p278
aVChris Smith MIN 03/08/1993 MIN vs. PHL L 15 4 1 2 50.0 0 0 - 2 2 100.0 0 0 0 3 2 0 1 1 -
p279
aVMicheal Williams MIN 03/08/1993 MIN vs. PHL L 33 8 2 10 20.0 1 4 25.0 3 6 50.0 2 1 3 7 1 4 4 3 -
p280
aVMarlon Maxey MIN 03/08/1993 MIN vs. PHL L 8 11 5 7 71.4 0 0 - 1 1 100.0 1 0 1 1 0 0 0 1 -
p281
aVDoug West MIN 03/08/1993 MIN vs. PHL L 33 8 3 10 30.0 0 0 - 2 2 100.0 2 2 4 3 0 1 3 2 -
p282
aVBrad Sellers MIN 03/08/1993 MIN vs. PHL L 3 2 0 2 0.0 0 0 - 2 2 100.0 0 3 3 0 0 0 0 0 -
p283
aVChuck Person MIN 03/08/1993 MIN vs. PHL L 34 22 9 16 56.3 2 5 40.0 2 3 66.7 0 5 5 3 1 0 6 1 -
p284
aVChristian Laettner MIN 03/08/1993 MIN vs. PHL L 34 12 4 16 25.0 0 1 0.0 4 6 66.7 3 3 6 0 0 0 3 2 -
p285
aVBob McCann MIN 03/08/1993 MIN vs. PHL L 18 2 1 3 33.3 0 0 - 0 0 - 2 5 7 0 1 1 0 2 -
p286
aVLuc Longley MIN 03/08/1993 MIN vs. PHL L 15 4 2 4 50.0 0 0 - 0 0 - 1 2 3 2 0 1 1 1 -
p287
aVLance Blanks MIN 03/08/1993 MIN vs. PHL L 12 0 0 3 0.0 0 1 0.0 0 0 - 1 2 3 4 0 0 0 2 -
p288
aVThurl Bailey MIN 03/08/1993 MIN vs. PHL L 18 6 3 4 75.0 0 0 - 0 0 - 2 1 3 3 0 1 0 1 -
p289
aVMicheal Williams MIN 03/06/1993 MIN vs. SAN W 29 13 4 7 57.1 0 0 - 5 6 83.3 2 3 5 10 0 0 3 5 -
p290
aVFelton Spencer MIN 03/06/1993 MIN vs. SAN W 13 0 0 3 0.0 0 0 - 0 0 - 0 1 1 1 0 1 1 6 -
p291
aVChuck Person MIN 03/06/1993 MIN vs. SAN W 44 33 12 25 48.0 3 7 42.9 6 6 100.0 1 4 5 8 1 0 2 2 -
p292
aVChris Smith MIN 03/06/1993 MIN vs. SAN W 19 5 2 2 100.0 0 0 - 1 2 50.0 1 0 1 2 1 1 0 1 -
p293
aVBob McCann MIN 03/06/1993 MIN vs. SAN W 21 4 2 3 66.7 0 0 - 0 0 - 0 5 5 0 2 0 0 5 -
p294
aVLance Blanks MIN 03/06/1993 MIN vs. SAN W 8 2 1 2 50.0 0 1 0.0 0 0 - 0 0 0 0 0 0 0 1 -
p295
aVDoug West MIN 03/06/1993 MIN vs. SAN W 35 16 6 14 42.9 0 1 0.0 4 4 100.0 2 1 3 1 4 0 2 1 -
p296
aVLuc Longley MIN 03/06/1993 MIN vs. SAN W 19 2 1 4 25.0 0 0 - 0 0 - 0 4 4 0 0 2 0 6 -
p297
aVChristian Laettner MIN 03/06/1993 MIN vs. SAN W 38 25 10 17 58.8 0 1 0.0 5 5 100.0 1 8 9 5 1 3 1 3 -
p298
aVThurl Bailey MIN 03/06/1993 MIN vs. SAN W 14 6 3 4 75.0 0 0 - 0 0 - 0 0 0 1 0 0 0 2 -
p299
aVChristian Laettner MIN 03/04/1993 MIN vs. CLE L 28 6 2 11 18.2 0 1 0.0 2 2 100.0 1 6 7 2 0 0 2 4 -
p300
aVChris Smith MIN 03/04/1993 MIN vs. CLE L 4 0 0 0 - 0 0 - 0 0 - 0 1 1 0 0 0 1 0 -
p301
aVFelton Spencer MIN 03/04/1993 MIN vs. CLE L 23 6 3 5 60.0 0 0 - 0 0 - 2 6 8 0 0 1 0 5 -
p302
aVLuc Longley MIN 03/04/1993 MIN vs. CLE L 21 6 3 7 42.9 0 0 - 0 0 - 1 0 1 0 0 0 1 6 -
p303
aVMicheal Williams MIN 03/04/1993 MIN vs. CLE L 44 24 8 13 61.5 0 1 0.0 8 8 100.0 2 2 4 10 2 1 3 3 -
p304
aVDoug West MIN 03/04/1993 MIN vs. CLE L 28 15 6 13 46.2 1 1 100.0 2 2 100.0 2 3 5 2 0 0 1 5 -
p305
aVThurl Bailey MIN 03/04/1993 MIN vs. CLE L 27 12 5 7 71.4 0 0 - 2 2 100.0 1 7 8 2 3 0 0 1 -
p306
aVBob McCann MIN 03/04/1993 MIN vs. CLE L 7 6 2 4 50.0 0 0 - 2 2 100.0 0 0 0 1 0 0 1 1 -
p307
aVLance Blanks MIN 03/04/1993 MIN vs. CLE L 21 9 4 8 50.0 1 2 50.0 0 1 0.0 1 2 3 2 0 0 0 2 -
p308
aVChuck Person MIN 03/04/1993 MIN vs. CLE L 37 11 5 15 33.3 1 2 50.0 0 0 - 1 4 5 8 1 0 1 2 -
p309
aVBrad Sellers MIN 03/02/1993 MIN @ ORL L 6 5 2 2 100.0 0 0 - 1 1 100.0 0 1 1 1 0 0 0 0 -
p310
aVChristian Laettner MIN 03/02/1993 MIN @ ORL L 36 27 9 14 64.3 1 1 100.0 8 9 88.9 2 11 13 2 2 1 2 3 -
p311
aVChuck Person MIN 03/02/1993 MIN @ ORL L 25 2 0 8 0.0 0 2 0.0 2 2 100.0 0 4 4 1 0 0 1 1 -
p312
aVThurl Bailey MIN 03/02/1993 MIN @ ORL L 24 11 5 10 50.0 0 0 - 1 1 100.0 0 1 1 2 2 0 2 1 -
p313
aVChris Smith MIN 03/02/1993 MIN @ ORL L 13 4 1 4 25.0 0 0 - 2 2 100.0 0 1 1 4 0 0 0 2 -
p314
aVDoug West MIN 03/02/1993 MIN @ ORL L 44 28 12 19 63.2 0 0 - 4 4 100.0 1 0 1 3 1 0 2 2 -
p315
aVLuc Longley MIN 03/02/1993 MIN @ ORL L 27 7 3 6 50.0 0 0 - 1 2 50.0 0 2 2 2 2 2 2 3 -
p316
aVFelton Spencer MIN 03/02/1993 MIN @ ORL L 21 2 1 6 16.7 0 0 - 0 0 - 2 3 5 0 1 0 2 5 -
p317
aVMarlon Maxey MIN 03/02/1993 MIN @ ORL L 9 0 0 1 0.0 0 0 - 0 0 - 0 2 2 0 1 1 1 3 -
p318
aVMicheal Williams MIN 03/02/1993 MIN @ ORL L 35 3 1 8 12.5 0 4 0.0 1 1 100.0 0 2 2 7 2 0 5 2 -
p319
aVChris Smith MIN 02/28/1993 MIN @ MIA L 6 3 1 1 100.0 1 1 100.0 0 0 - 0 0 0 1 0 0 0 0 -
p320
aVFelton Spencer MIN 02/28/1993 MIN @ MIA L 17 6 3 3 100.0 0 0 - 0 0 - 1 4 5 0 0 0 1 4 -
p321
aVChuck Person MIN 02/28/1993 MIN @ MIA L 39 17 6 11 54.5 3 3 100.0 2 3 66.7 0 2 2 3 0 0 2 4 -
p322
aVMarlon Maxey MIN 02/28/1993 MIN @ MIA L 1 0 0 0 - 0 0 - 0 0 - 0 0 0 0 0 0 0 1 -
p323
aVChristian Laettner MIN 02/28/1993 MIN @ MIA L 32 6 3 12 25.0 0 0 - 0 0 - 1 5 6 3 2 0 4 3 -
p324
aVLuc Longley MIN 02/28/1993 MIN @ MIA L 23 4 2 9 22.2 0 0 - 0 0 - 3 6 9 1 2 2 1 4 -
p325
aVDoug West MIN 02/28/1993 MIN @ MIA L 44 16 5 15 33.3 0 1 0.0 6 6 100.0 1 4 5 7 0 0 3 4 -
p326
aVMicheal Williams MIN 02/28/1993 MIN @ MIA L 42 18 4 11 36.4 0 1 0.0 10 11 90.9 1 1 2 4 2 0 2 4 -
p327
aVBob McCann MIN 02/28/1993 MIN @ MIA L 6 0 0 2 0.0 0 0 - 0 0 - 1 1 2 0 0 0 0 1 -
p328
aVThurl Bailey MIN 02/28/1993 MIN @ MIA L 30 23 9 13 69.2 0 0 - 5 7 71.4 2 4 6 1 0 1 0 1 -
p329
aVDoug West MIN 02/26/1993 MIN vs. DAL W 29 21 8 17 47.1 0 0 - 5 6 83.3 0 0 0 3 2 0 2 3 -
p330
aVBrad Sellers MIN 02/26/1993 MIN vs. DAL W 1 0 0 0 - 0 0 - 0 0 - 0 0 0 0 0 0 0 0 -
p331
aVMicheal Williams MIN 02/26/1993 MIN vs. DAL W 38 14 3 7 42.9 1 1 100.0 7 10 70.0 2 1 3 6 3 0 3 4 -
p332
aVLuc Longley MIN 02/26/1993 MIN vs. DAL W 16 4 2 2 100.0 0 0 - 0 0 - 1 4 5 2 1 1 2 3 -
p333
aVBob McCann MIN 02/26/1993 MIN vs. DAL W 16 9 3 5 60.0 0 0 - 3 5 60.0 2 2 4 0 0 1 0 1 -
p334
aVChris Smith MIN 02/26/1993 MIN vs. DAL W 15 4 1 3 33.3 0 1 0.0 2 2 100.0 0 1 1 2 1 0 1 0 -
p335
aVFelton Spencer MIN 02/26/1993 MIN vs. DAL W 30 4 1 1 100.0 0 0 - 2 2 100.0 3 4 7 0 0 0 1 5 -
p336
aVChuck Person MIN 02/26/1993 MIN vs. DAL W 39 13 6 14 42.9 1 2 50.0 0 2 0.0 2 2 4 4 2 1 4 2 -
p337
aVThurl Bailey MIN 02/26/1993 MIN vs. DAL W 23 12 4 7 57.1 0 0 - 4 4 100.0 1 5 6 2 0 0 2 4 -
p338
aVChristian Laettner MIN 02/26/1993 MIN vs. DAL W 33 18 7 14 50.0 0 1 0.0 4 4 100.0 2 13 15 3 1 1 7 4 -
p339
aVMicheal Williams MIN 02/24/1993 MIN vs. SEA L 34 23 8 18 44.4 2 3 66.7 5 6 83.3 2 3 5 5 7 0 6 4 -
p340
aVChris Smith MIN 02/24/1993 MIN vs. SEA L 22 2 1 2 50.0 0 0 - 0 0 - 0 2 2 3 0 1 2 1 -
p341
aVChuck Person MIN 02/24/1993 MIN vs. SEA L 41 10 3 13 23.1 0 2 0.0 4 6 66.7 2 3 5 3 0 1 4 4 -
p342
aVThurl Bailey MIN 02/24/1993 MIN vs. SEA L 16 6 2 6 33.3 0 0 - 2 4 50.0 2 3 5 0 0 0 0 1 -
p343
aVBrad Sellers MIN 02/24/1993 MIN vs. SEA L 22 4 2 5 40.0 0 0 - 0 0 - 0 4 4 2 2 1 1 5 -
p344
aVChristian Laettner MIN 02/24/1993 MIN vs. SEA L 43 28 9 21 42.9 0 1 0.0 10 12 83.3 3 6 9 1 2 0 3 2 -
p345
aVFelton Spencer MIN 02/24/1993 MIN vs. SEA L 30 2 1 3 33.3 0 0 - 0 0 - 1 7 8 0 0 4 2 3 -
p346
aVBob McCann MIN 02/24/1993 MIN vs. SEA L 5 0 0 1 0.0 0 0 - 0 0 - 0 1 1 0 0 0 1 0 -
p347
aVLance Blanks MIN 02/24/1993 MIN vs. SEA L 27 2 1 5 20.0 0 2 0.0 0 0 - 2 2 4 2 0 0 2 2 -
p348
aVFelton Spencer MIN 02/23/1993 MIN @ NYK L 26 7 2 2 100.0 0 0 - 3 6 50.0 0 5 5 0 0 0 1 6 -
p349
aVBob McCann MIN 02/23/1993 MIN @ NYK L 33 10 3 7 42.9 0 0 - 4 5 80.0 0 3 3 1 2 0 1 2 -
p350
aVChuck Person MIN 02/23/1993 MIN @ NYK L 41 21 8 22 36.4 2 5 40.0 3 3 100.0 0 3 3 8 2 0 4 3 -
p351
aVLance Blanks MIN 02/23/1993 MIN @ NYK L 5 2 1 1 100.0 0 0 - 0 0 - 0 0 0 1 0 1 0 0 -
p352
aVDoug West MIN 02/23/1993 MIN @ NYK L 37 16 6 17 35.3 0 0 - 4 5 80.0 1 3 4 2 0 0 3 1 -
p353
aVBrad Sellers MIN 02/23/1993 MIN @ NYK L 10 0 0 0 - 0 0 - 0 0 - 1 0 1 0 0 0 0 0 -
p354
aVMicheal Williams MIN 02/23/1993 MIN @ NYK L 38 27 7 11 63.6 1 3 33.3 12 13 92.3 3 1 4 6 3 0 4 1 -
p355
aVThurl Bailey MIN 02/23/1993 MIN @ NYK L 22 6 2 4 50.0 0 0 - 2 2 100.0 1 4 5 1 0 1 1 2 -
p356
aVChris Smith MIN 02/23/1993 MIN @ NYK L 11 2 1 3 33.3 0 0 - 0 0 - 0 0 0 1 1 0 0 2 -
p357
aVLuc Longley MIN 02/23/1993 MIN @ NYK L 17 0 0 4 0.0 0 0 - 0 0 - 0 2 2 1 0 0 1 2 -
p358
aVFelton Spencer MIN 02/18/1993 MIN vs. SAC W 21 2 0 3 0.0 0 0 - 2 2 100.0 3 1 4 1 0 0 0 3 -
p359
aVThurl Bailey MIN 02/18/1993 MIN vs. SAC W 15 6 2 3 66.7 0 0 - 2 2 100.0 1 2 3 1 0 1 0 0 -
p360
aVLance Blanks MIN 02/18/1993 MIN vs. SAC W 1 0 0 0 - 0 0 - 0 0 - 1 0 1 0 0 0 0 0 -
p361
aVDoug West MIN 02/18/1993 MIN vs. SAC W 39 18 7 11 63.6 0 0 - 4 5 80.0 0 1 1 4 1 0 2 4 -
p362
aVBob McCann MIN 02/18/1993 MIN vs. SAC W 30 12 5 9 55.6 0 0 - 2 4 50.0 1 6 7 1 0 0 1 5 -
p363
aVMicheal Williams MIN 02/18/1993 MIN vs. SAC W 35 27 8 9 88.9 1 1 100.0 10 10 100.0 0 0 0 11 2 0 1 3 -
p364
aVChuck Person MIN 02/18/1993 MIN vs. SAC W 42 26 11 20 55.0 2 4 50.0 2 3 66.7 1 5 6 4 0 1 3 4 -
p365
aVChristian Laettner MIN 02/18/1993 MIN vs. SAC W 43 28 5 12 41.7 0 0 - 18 20 90.0 4 12 16 2 2 2 6 4 -
p366
aVChris Smith MIN 02/18/1993 MIN vs. SAC W 14 2 1 3 33.3 0 0 - 0 0 - 0 1 1 3 0 1 2 1 -
p367
aVDoug West MIN 02/15/1993 MIN vs. UTH L 26 11 3 8 37.5 0 0 - 5 5 100.0 1 0 1 3 2 1 2 3 -
p368
aVMarlon Maxey MIN 02/15/1993 MIN vs. UTH L 9 2 1 1 100.0 0 0 - 0 0 - 0 3 3 0 0 1 0 2 -
p369
aVChristian Laettner MIN 02/15/1993 MIN vs. UTH L 32 20 7 14 50.0 0 0 - 6 8 75.0 1 2 3 0 2 0 5 2 -
p370
aVLuc Longley MIN 02/15/1993 MIN vs. UTH L 7 0 0 0 - 0 0 - 0 0 - 0 4 4 0 0 1 2 3 -
p371
aVLance Blanks MIN 02/15/1993 MIN vs. UTH L 22 2 1 3 33.3 0 1 0.0 0 0 - 0 0 0 2 1 1 2 1 -
p372
aVChuck Person MIN 02/15/1993 MIN vs. UTH L 42 26 11 20 55.0 0 3 0.0 4 6 66.7 3 5 8 6 1 1 2 3 -
p373
aVBrad Sellers MIN 02/15/1993 MIN vs. UTH L 14 4 1 3 33.3 0 0 - 2 2 100.0 0 0 0 4 0 0 1 0 -
p374
aVBob McCann MIN 02/15/1993 MIN vs. UTH L 22 6 2 6 33.3 0 0 - 2 4 50.0 2 3 5 0 2 1 2 4 -
p375
aVChris Smith MIN 02/15/1993 MIN vs. UTH L 32 8 1 7 14.3 0 0 - 6 8 75.0 1 2 3 10 0 1 2 2 -
p376
aVThurl Bailey MIN 02/15/1993 MIN vs. UTH L 9 4 2 3 66.7 0 0 - 0 0 - 0 2 2 0 0 0 1 0 -
p377
aVFelton Spencer MIN 02/15/1993 MIN vs. UTH L 25 8 3 6 50.0 0 0 - 2 2 100.0 3 3 6 0 0 3 2 6 -
p378
aVChuck Person MIN 02/13/1993 MIN vs. HOU L 37 13 6 21 28.6 1 5 20.0 0 2 0.0 2 2 4 8 2 1 1 2 -
p379
aVDoug West MIN 02/13/1993 MIN vs. HOU L 40 18 8 17 47.1 0 0 - 2 2 100.0 1 2 3 1 1 0 2 3 -
p380
aVLance Blanks MIN 02/13/1993 MIN vs. HOU L 14 15 6 8 75.0 1 2 50.0 2 2 100.0 1 1 2 3 0 0 1 1 -
p381
aVChris Smith MIN 02/13/1993 MIN vs. HOU L 37 14 6 13 46.2 0 0 - 2 2 100.0 0 1 1 6 2 0 0 3 -
p382
aVMarlon Maxey MIN 02/13/1993 MIN vs. HOU L 3 2 1 2 50.0 0 0 - 0 0 - 0 1 1 0 0 0 0 0 -
p383
aVBob McCann MIN 02/13/1993 MIN vs. HOU L 26 7 2 5 40.0 0 0 - 3 4 75.0 3 6 9 0 0 2 1 1 -
p384
aVLuc Longley MIN 02/13/1993 MIN vs. HOU L 30 8 3 4 75.0 0 0 - 2 2 100.0 3 6 9 2 3 2 4 2 -
p385
aVChristian Laettner MIN 02/13/1993 MIN vs. HOU L 33 7 3 10 30.0 0 0 - 1 2 50.0 0 10 10 3 1 0 2 3 -
p386
aVThurl Bailey MIN 02/13/1993 MIN vs. HOU L 17 2 1 7 14.3 0 0 - 0 0 - 2 2 4 0 0 0 1 0 -
p387
aVBrad Sellers MIN 02/13/1993 MIN vs. HOU L 3 2 0 1 0.0 0 0 - 2 2 100.0 0 0 0 2 0 0 0 3 -
p388
aVDoug West MIN 02/12/1993 MIN @ IND W 32 17 7 9 77.8 0 0 - 3 3 100.0 1 1 2 4 1 0 1 5 -
p389
aVChristian Laettner MIN 02/12/1993 MIN @ IND W 28 22 8 10 80.0 0 0 - 6 8 75.0 0 7 7 3 2 0 4 4 -
p390
aVLuc Longley MIN 02/12/1993 MIN @ IND W 31 5 2 3 66.7 0 0 - 1 1 100.0 2 3 5 1 0 1 1 3 -
p391
aVBob McCann MIN 02/12/1993 MIN @ IND W 23 6 2 6 33.3 0 0 - 2 2 100.0 0 2 2 2 0 0 1 2 -
p392
aVLance Blanks MIN 02/12/1993 MIN @ IND W 16 4 2 3 66.7 0 0 - 0 0 - 1 0 1 1 0 0 1 1 -
p393
aVThurl Bailey MIN 02/12/1993 MIN @ IND W 23 12 5 8 62.5 0 0 - 2 3 66.7 0 4 4 2 0 0 2 3 -
p394
aVChuck Person MIN 02/12/1993 MIN @ IND W 39 18 8 20 40.0 1 5 20.0 1 4 25.0 2 2 4 4 3 0 2 2 -
p395
aVMicheal Williams MIN 02/12/1993 MIN @ IND W 35 14 5 12 41.7 0 0 - 4 6 66.7 1 1 2 11 3 0 4 5 -
p396
aVChris Smith MIN 02/12/1993 MIN @ IND W 13 4 2 4 50.0 0 0 - 0 0 - 0 2 2 2 2 0 0 1 -
p397
aVChris Smith MIN 02/10/1993 MIN vs. MIA L 16 3 1 2 50.0 0 0 - 1 2 50.0 0 1 1 3 0 0 0 0 -
p398
aVLance Blanks MIN 02/10/1993 MIN vs. MIA L 5 0 0 1 0.0 0 1 0.0 0 0 - 0 0 0 0 0 0 0 0 -
p399
aVBob McCann MIN 02/10/1993 MIN vs. MIA L 27 8 4 8 50.0 0 0 - 0 1 0.0 0 3 3 1 1 1 1 3 -
p400
aVDoug West MIN 02/10/1993 MIN vs. MIA L 44 19 7 16 43.8 0 1 0.0 5 7 71.4 3 3 6 3 2 1 2 5 -
p401
aVLuc Longley MIN 02/10/1993 MIN vs. MIA L 27 4 2 10 20.0 0 0 - 0 0 - 4 5 9 1 1 3 2 1 -
p402
aVThurl Bailey MIN 02/10/1993 MIN vs. MIA L 15 4 1 5 20.0 0 0 - 2 2 100.0 2 2 4 0 0 0 0 0 -
p403
aVMicheal Williams MIN 02/10/1993 MIN vs. MIA L 33 14 3 9 33.3 0 2 0.0 8 9 88.9 0 2 2 9 1 0 2 4 -
p404
aVChuck Person MIN 02/10/1993 MIN vs. MIA L 39 20 7 12 58.3 6 6 100.0 0 0 - 0 1 1 5 1 0 3 2 -
p405
aVChristian Laettner MIN 02/10/1993 MIN vs. MIA L 34 18 5 10 50.0 0 0 - 8 8 100.0 1 7 8 1 0 2 6 6 -
p406
aVMicheal Williams MIN 02/06/1993 MIN @ SAN L 31 17 5 14 35.7 0 2 0.0 7 7 100.0 2 4 6 5 0 0 2 4 -
p407
aVDoug West MIN 02/06/1993 MIN @ SAN L 41 20 7 13 53.8 0 0 - 6 7 85.7 2 1 3 2 1 0 4 4 -
p408
aVChuck Person MIN 02/06/1993 MIN @ SAN L 40 16 6 16 37.5 2 4 50.0 2 2 100.0 2 3 5 6 1 0 4 2 -
p409
aVChristian Laettner MIN 02/06/1993 MIN @ SAN L 41 21 6 17 35.3 0 1 0.0 9 9 100.0 1 7 8 3 2 0 1 1 -
p410
aVLance Blanks MIN 02/06/1993 MIN @ SAN L 6 2 1 3 33.3 0 0 - 0 0 - 1 0 1 0 0 0 1 2 -
p411
aVThurl Bailey MIN 02/06/1993 MIN @ SAN L 18 4 2 4 50.0 0 0 - 0 0 - 1 4 5 1 1 1 1 2 -
p412
aVBob McCann MIN 02/06/1993 MIN @ SAN L 18 6 3 5 60.0 0 0 - 0 1 0.0 2 0 2 0 2 1 1 0 -
p413
aVChris Smith MIN 02/06/1993 MIN @ SAN L 17 0 0 1 0.0 0 0 - 0 0 - 1 0 1 0 0 0 1 1 -
p414
aVLuc Longley MIN 02/06/1993 MIN @ SAN L 28 9 4 7 57.1 0 0 - 1 4 25.0 2 6 8 2 4 0 0 6 -
p415
aVChris Smith MIN 02/05/1993 MIN @ HOU W 23 8 2 4 50.0 0 1 0.0 4 4 100.0 0 0 0 8 3 0 1 2 -
p416
aVMicheal Williams MIN 02/05/1993 MIN @ HOU W 25 16 5 8 62.5 0 1 0.0 6 7 85.7 1 2 3 6 2 0 4 5 -
p417
aVDoug West MIN 02/05/1993 MIN @ HOU W 41 33 14 19 73.7 0 0 - 5 7 71.4 1 2 3 4 0 0 0 2 -
p418
aVLance Blanks MIN 02/05/1993 MIN @ HOU W 5 0 0 0 - 0 0 - 0 0 - 0 1 1 0 0 0 0 0 -
p419
aVBob McCann MIN 02/05/1993 MIN @ HOU W 32 9 4 7 57.1 0 0 - 1 1 100.0 2 7 9 0 2 0 2 4 -
p420
aVLuc Longley MIN 02/05/1993 MIN @ HOU W 13 6 3 5 60.0 0 0 - 0 0 - 1 1 2 0 2 1 3 5 -
p421
aVChristian Laettner MIN 02/05/1993 MIN @ HOU W 36 18 5 9 55.6 0 0 - 8 10 80.0 1 4 5 3 2 1 3 5 -
p422
aVThurl Bailey MIN 02/05/1993 MIN @ HOU W 23 8 3 5 60.0 0 0 - 2 2 100.0 0 4 4 0 0 0 0 0 -
p423
aVChuck Person MIN 02/05/1993 MIN @ HOU W 42 14 6 14 42.9 2 6 33.3 0 0 - 0 2 2 6 2 0 2 1 -
p424
aVChris Smith MIN 02/03/1993 MIN @ PHX L 20 8 4 10 40.0 0 0 - 0 0 - 0 0 0 2 2 0 1 1 -
p425
aVMarlon Maxey MIN 02/03/1993 MIN @ PHX L 12 13 6 8 75.0 0 0 - 1 1 100.0 4 1 5 0 0 1 1 2 -
p426
aVThurl Bailey MIN 02/03/1993 MIN @ PHX L 12 6 1 3 33.3 0 0 - 4 4 100.0 1 3 4 1 2 1 1 1 -
p427
aVLance Blanks MIN 02/03/1993 MIN @ PHX L 17 2 1 6 16.7 0 2 0.0 0 0 - 1 0 1 2 1 0 1 0 -
p428
aVChuck Person MIN 02/03/1993 MIN @ PHX L 35 9 3 10 30.0 0 4 0.0 3 4 75.0 1 8 9 5 3 2 4 0 -
p429
aVMicheal Williams MIN 02/03/1993 MIN @ PHX L 28 7 2 7 28.6 1 2 50.0 2 2 100.0 0 2 2 7 3 0 4 4 -
p430
aVChristian Laettner MIN 02/03/1993 MIN @ PHX L 27 16 7 13 53.8 0 1 0.0 2 3 66.7 0 0 0 2 1 0 1 5 -
p431
aVBob McCann MIN 02/03/1993 MIN @ PHX L 20 10 4 8 50.0 0 0 - 2 2 100.0 5 2 7 1 1 0 2 4 -
p432
aVBrad Sellers MIN 02/03/1993 MIN @ PHX L 10 2 1 3 33.3 0 0 - 0 0 - 0 1 1 2 0 0 2 1 -
p433
aVLuc Longley MIN 02/03/1993 MIN @ PHX L 33 16 8 13 61.5 0 0 - 0 1 0.0 1 8 9 1 1 3 3 5 -
p434
aVDoug West MIN 02/03/1993 MIN @ PHX L 26 13 6 10 60.0 0 0 - 1 1 100.0 1 1 2 2 0 1 4 5 -
p435
aVFelton Spencer MIN 02/02/1993 MIN @ POR W 27 1 0 2 0.0 0 0 - 1 2 50.0 1 4 5 0 0 0 1 6 -
p436
aVDoug West MIN 02/02/1993 MIN @ POR W 43 21 10 17 58.8 0 1 0.0 1 2 50.0 1 1 2 4 2 1 2 4 -
p437
aVBob McCann MIN 02/02/1993 MIN @ POR W 12 5 2 3 66.7 0 0 - 1 2 50.0 1 0 1 2 0 0 1 2 -
p438
aVChris Smith MIN 02/02/1993 MIN @ POR W 6 0 0 1 0.0 0 0 - 0 0 - 0 0 0 2 0 0 0 1 -
p439
aVLance Blanks MIN 02/02/1993 MIN @ POR W 5 0 0 2 0.0 0 1 0.0 0 0 - 0 1 1 0 0 0 1 1 -
p440
aVLuc Longley MIN 02/02/1993 MIN @ POR W 15 10 3 3 100.0 0 0 - 4 6 66.7 0 2 2 0 1 3 1 2 -
p441
aVMicheal Williams MIN 02/02/1993 MIN @ POR W 42 24 7 11 63.6 1 1 100.0 9 9 100.0 3 4 7 12 4 0 7 4 -
p442
aVChristian Laettner MIN 02/02/1993 MIN @ POR W 40 19 8 14 57.1 0 0 - 3 6 50.0 3 10 13 1 3 1 3 2 -
p443
aVThurl Bailey MIN 02/02/1993 MIN @ POR W 12 0 0 2 0.0 0 0 - 0 0 - 0 3 3 2 0 1 1 2 -
p444
aVChuck Person MIN 02/02/1993 MIN @ POR W 38 24 11 24 45.8 2 5 40.0 0 0 - 1 3 4 6 1 0 1 3 -
p445
aVThurl Bailey MIN 01/30/1993 MIN vs. MIL W 27 12 5 9 55.6 0 0 - 2 3 66.7 2 7 9 2 0 1 1 0 -
p446
aVBob McCann MIN 01/30/1993 MIN vs. MIL W 7 4 2 2 100.0 0 0 - 0 2 0.0 1 1 2 0 1 1 0 1 -
p447
aVChris Smith MIN 01/30/1993 MIN vs. MIL W 22 2 0 5 0.0 0 1 0.0 2 2 100.0 0 1 1 1 2 0 2 1 -
p448
aVMicheal Williams MIN 01/30/1993 MIN vs. MIL W 26 10 3 8 37.5 0 0 - 4 6 66.7 1 3 4 8 2 0 0 4 -
p449
aVChuck Person MIN 01/30/1993 MIN vs. MIL W 40 12 5 12 41.7 1 3 33.3 1 2 50.0 0 4 4 4 2 0 4 2 -
p450
aVDoug West MIN 01/30/1993 MIN vs. MIL W 38 24 7 12 58.3 0 0 - 10 10 100.0 0 0 0 2 1 0 1 3 -
p451
aVLance Blanks MIN 01/30/1993 MIN vs. MIL W 4 0 0 1 0.0 0 0 - 0 0 - 0 1 1 1 0 0 0 0 -
p452
aVChristian Laettner MIN 01/30/1993 MIN vs. MIL W 44 18 8 12 66.7 0 0 - 2 2 100.0 1 6 7 3 3 2 8 2 -
p453
aVFelton Spencer MIN 01/30/1993 MIN vs. MIL W 32 9 1 2 50.0 0 0 - 7 8 87.5 1 9 10 0 0 1 1 4 -
p454
aVThurl Bailey MIN 01/29/1993 MIN @ DET L 21 12 5 8 62.5 0 0 - 2 2 100.0 0 1 1 0 1 3 1 4 -
p455
aVMicheal Williams MIN 01/29/1993 MIN @ DET L 36 14 6 14 42.9 1 4 25.0 1 1 100.0 2 3 5 12 0 0 2 5 -
p456
aVChuck Person MIN 01/29/1993 MIN @ DET L 41 21 8 18 44.4 0 2 0.0 5 7 71.4 1 6 7 6 1 0 0 1 -
p457
aVLuc Longley MIN 01/29/1993 MIN @ DET L 7 2 1 1 100.0 0 0 - 0 0 - 0 0 0 0 0 0 2 0 -
p458
aVChris Smith MIN 01/29/1993 MIN @ DET L 13 0 0 0 - 0 0 - 0 0 - 0 0 0 3 0 0 0 1 -
p459
aVDoug West MIN 01/29/1993 MIN @ DET L 42 17 8 14 57.1 0 0 - 1 1 100.0 0 3 3 3 2 0 0 4 -
p460
aVFelton Spencer MIN 01/29/1993 MIN @ DET L 24 9 4 6 66.7 0 0 - 1 3 33.3 4 3 7 1 0 0 0 4 -
p461
aVChristian Laettner MIN 01/29/1993 MIN @ DET L 39 22 8 16 50.0 0 0 - 6 9 66.7 2 9 11 3 1 2 3 5 -
p462
aVBob McCann MIN 01/29/1993 MIN @ DET L 17 6 2 5 40.0 0 0 - 2 2 100.0 2 1 3 0 0 0 3 2 -
p463
aVThurl Bailey MIN 01/27/1993 MIN vs. PHX L 26 12 4 11 36.4 0 0 - 4 4 100.0 4 2 6 1 0 1 2 2 -
p464
aVMicheal Williams MIN 01/27/1993 MIN vs. PHX L 46 15 4 11 36.4 0 0 - 7 9 77.8 0 5 5 15 2 0 4 5 -
p465
aVLuc Longley MIN 01/27/1993 MIN vs. PHX L 11 4 2 3 66.7 0 0 - 0 0 - 0 5 5 0 1 0 2 2 -
p466
aVChris Smith MIN 01/27/1993 MIN vs. PHX L 7 6 3 4 75.0 0 0 - 0 0 - 0 0 0 2 0 0 1 2 -
p467
aVChuck Person MIN 01/27/1993 MIN vs. PHX L 49 28 12 22 54.5 2 3 66.7 2 4 50.0 0 8 8 10 1 0 4 1 -
p468
aVBob McCann MIN 01/27/1993 MIN vs. PHX L 23 17 7 9 77.8 0 0 - 3 4 75.0 3 4 7 0 0 2 0 5 -
p469
aVChristian Laettner MIN 01/27/1993 MIN vs. PHX L 36 10 4 6 66.7 0 0 - 2 2 100.0 2 7 9 4 3 1 0 6 -
p470
aVBrad Sellers MIN 01/27/1993 MIN vs. PHX L 1 0 0 0 - 0 0 - 0 0 - 0 0 0 0 0 0 0 0 -
p471
aVFelton Spencer MIN 01/27/1993 MIN vs. PHX L 15 4 1 2 50.0 0 0 - 2 4 50.0 0 4 4 0 0 3 1 3 -
p472
aVDoug West MIN 01/27/1993 MIN vs. PHX L 51 20 9 22 40.9 0 1 0.0 2 3 66.7 3 2 5 3 0 0 1 4 -
p473
aVMicheal Williams MIN 01/25/1993 MIN @ DEN L 44 13 3 9 33.3 1 1 100.0 6 10 60.0 1 0 1 12 1 0 4 5 -
p474
aVDoug West MIN 01/25/1993 MIN @ DEN L 35 19 7 13 53.8 0 0 - 5 5 100.0 0 2 2 3 3 0 2 6 -
p475
aVFelton Spencer MIN 01/25/1993 MIN @ DEN L 16 3 1 2 50.0 0 0 - 1 2 50.0 1 5 6 1 1 1 0 6 -
p476
aVThurl Bailey MIN 01/25/1993 MIN @ DEN L 15 13 4 5 80.0 0 0 - 5 5 100.0 1 2 3 0 0 0 1 1 -
p477
aVBob McCann MIN 01/25/1993 MIN @ DEN L 4 0 0 1 0.0 0 0 - 0 0 - 0 1 1 0 0 0 0 1 -
p478
aVBrad Sellers MIN 01/25/1993 MIN @ DEN L 3 0 0 0 - 0 0 - 0 0 - 0 0 0 0 0 0 1 1 -
p479
aVLuc Longley MIN 01/25/1993 MIN @ DEN L 32 11 5 10 50.0 0 0 - 1 1 100.0 2 7 9 1 1 3 1 3 -
p480
aVChuck Person MIN 01/25/1993 MIN @ DEN L 39 29 13 22 59.1 0 4 0.0 3 8 37.5 0 4 4 2 1 1 8 2 -
p481
aVChristian Laettner MIN 01/25/1993 MIN @ DEN L 36 9 3 12 25.0 0 1 0.0 3 4 75.0 4 8 12 1 1 1 2 2 -
p482
aVChris Smith MIN 01/25/1993 MIN @ DEN L 16 0 0 1 0.0 0 0 - 0 0 - 0 0 0 0 0 0 1 1 -
p483
aVChris Smith MIN 01/23/1993 MIN @ SAC L 9 5 2 4 50.0 0 0 - 1 2 50.0 0 0 0 2 0 0 0 0 -
p484
aVMicheal Williams MIN 01/23/1993 MIN @ SAC L 40 19 2 8 25.0 0 0 - 15 15 100.0 1 3 4 10 3 1 3 6 -
p485
aVBob McCann MIN 01/23/1993 MIN @ SAC L 16 4 2 5 40.0 0 0 - 0 0 - 2 2 4 0 1 0 0 3 -
p486
aVDoug West MIN 01/23/1993 MIN @ SAC L 43 25 12 20 60.0 0 0 - 1 1 100.0 1 5 6 0 0 0 6 5 -
p487
aVFelton Spencer MIN 01/23/1993 MIN @ SAC L 27 9 3 4 75.0 0 0 - 3 4 75.0 5 3 8 0 0 1 2 6 -
p488
aVThurl Bailey MIN 01/23/1993 MIN @ SAC L 13 0 0 4 0.0 0 0 - 0 2 0.0 2 1 3 0 0 1 1 1 -
p489
aVChristian Laettner MIN 01/23/1993 MIN @ SAC L 41 19 5 11 45.5 0 0 - 9 10 90.0 8 3 11 2 2 1 3 3 -
p490
aVChuck Person MIN 01/23/1993 MIN @ SAC L 40 23 11 21 52.4 1 3 33.3 0 0 - 1 2 3 5 0 1 2 3 -
p491
aVBrad Sellers MIN 01/23/1993 MIN @ SAC L 1 0 0 0 - 0 0 - 0 0 - 0 0 0 0 0 0 0 0 -
p492
aVLuc Longley MIN 01/23/1993 MIN @ SAC L 10 4 1 5 20.0 0 0 - 2 2 100.0 2 0 2 0 0 1 0 1 -
p493
aVChristian Laettner MIN 01/20/1993 MIN vs. POR L 33 18 7 17 41.2 0 1 0.0 4 5 80.0 4 6 10 4 3 2 3 3 -
p494
aVThurl Bailey MIN 01/20/1993 MIN vs. POR L 16 4 2 6 33.3 0 0 - 0 2 0.0 3 0 3 0 0 0 3 1 -
p495
aVMicheal Williams MIN 01/20/1993 MIN vs. POR L 41 13 5 8 62.5 0 0 - 3 3 100.0 1 3 4 12 1 1 2 3 -
p496
aVFelton Spencer MIN 01/20/1993 MIN vs. POR L 12 2 1 1 100.0 0 0 - 0 0 - 0 2 2 0 0 1 2 5 -
p497
aVDoug West MIN 01/20/1993 MIN vs. POR L 37 20 8 19 42.1 0 0 - 4 4 100.0 2 1 3 3 1 1 1 5 -
p498
aVBrad Sellers MIN 01/20/1993 MIN vs. POR L 11 0 0 2 0.0 0 0 - 0 0 - 0 2 2 0 0 1 0 1 -
p499
aVChuck Person MIN 01/20/1993 MIN vs. POR L 32 8 3 9 33.3 0 2 0.0 2 2 100.0 0 4 4 5 1 0 4 0 -
p500
aVLuc Longley MIN 01/20/1993 MIN vs. POR L 16 4 2 4 50.0 0 0 - 0 0 - 2 5 7 0 0 1 0 2 -
p501
aVMarlon Maxey MIN 01/20/1993 MIN vs. POR L 8 4 1 2 50.0 0 0 - 2 2 100.0 1 2 3 0 0 0 2 1 -
p502
aVBob McCann MIN 01/20/1993 MIN vs. POR L 16 9 4 6 66.7 0 0 - 1 2 50.0 0 4 4 1 0 2 0 2 -
p503
aVChris Smith MIN 01/20/1993 MIN vs. POR L 7 5 2 3 66.7 0 0 - 1 1 100.0 0 0 0 0 0 0 0 0 -
p504
aVGundars Vetra MIN 01/20/1993 MIN vs. POR L 11 7 2 7 28.6 0 0 - 3 4 75.0 0 0 0 1 1 0 0 2 -
p505
aVChristian Laettner MIN 01/18/1993 MIN vs. LAC L 25 16 8 13 61.5 0 0 - 0 0 - 1 5 6 0 0 1 0 5 -
p506
aVDoug West MIN 01/18/1993 MIN vs. LAC L 42 20 10 19 52.6 0 1 0.0 0 0 - 0 1 1 4 1 1 1 4 -
p507
aVFelton Spencer MIN 01/18/1993 MIN vs. LAC L 24 3 1 2 50.0 0 0 - 1 4 25.0 1 5 6 0 0 1 1 4 -
p508
aVThurl Bailey MIN 01/18/1993 MIN vs. LAC L 23 11 3 10 30.0 0 0 - 5 7 71.4 1 5 6 1 0 0 0 0 -
p509
aVChuck Person MIN 01/18/1993 MIN vs. LAC L 37 9 4 14 28.6 1 5 20.0 0 0 - 0 5 5 5 0 0 4 1 -
p510
aVBob McCann MIN 01/18/1993 MIN vs. LAC L 18 5 2 5 40.0 0 0 - 1 2 50.0 2 1 3 0 2 1 0 3 -
p511
aVLuc Longley MIN 01/18/1993 MIN vs. LAC L 23 5 2 4 50.0 0 0 - 1 2 50.0 1 2 3 0 2 1 1 2 -
p512
aVChris Smith MIN 01/18/1993 MIN vs. LAC L 10 4 2 4 50.0 0 0 - 0 0 - 1 1 2 0 1 0 0 1 -
p513
aVMicheal Williams MIN 01/18/1993 MIN vs. LAC L 38 20 6 9 66.7 0 0 - 8 9 88.9 0 3 3 16 7 0 6 1 -
p514
aVMicheal Williams MIN 01/15/1993 MIN vs. DEN W 40 15 5 7 71.4 0 0 - 5 6 83.3 0 2 2 8 4 0 1 2 -
p515
aVMarlon Maxey MIN 01/15/1993 MIN vs. DEN W 1 2 1 1 100.0 0 0 - 0 0 - 1 0 1 0 0 0 1 1 -
p516
aVBob McCann MIN 01/15/1993 MIN vs. DEN W 23 8 3 8 37.5 0 0 - 2 2 100.0 0 4 4 0 0 1 0 4 -
p517
aVChristian Laettner MIN 01/15/1993 MIN vs. DEN W 20 9 2 5 40.0 0 0 - 5 6 83.3 1 6 7 3 2 0 4 1 -
p518
aVGundars Vetra MIN 01/15/1993 MIN vs. DEN W 1 1 0 0 - 0 0 - 1 2 50.0 0 0 0 1 0 0 1 0 -
p519
aVDoug West MIN 01/15/1993 MIN vs. DEN W 35 17 8 17 47.1 0 1 0.0 1 2 50.0 3 3 6 6 3 0 4 3 -
p520
aVChris Smith MIN 01/15/1993 MIN vs. DEN W 8 1 0 2 0.0 0 1 0.0 1 2 50.0 1 0 1 0 0 0 2 2 -
p521
aVChuck Person MIN 01/15/1993 MIN vs. DEN W 38 19 8 18 44.4 3 5 60.0 0 3 0.0 0 7 7 4 0 0 3 4 -
p522
aVLuc Longley MIN 01/15/1993 MIN vs. DEN W 22 4 1 5 20.0 0 0 - 2 2 100.0 1 3 4 2 1 2 2 3 -
p523
aVFelton Spencer MIN 01/15/1993 MIN vs. DEN W 23 4 2 2 100.0 0 0 - 0 0 - 3 1 4 0 1 2 1 6 -
p524
aVBrad Sellers MIN 01/15/1993 MIN vs. DEN W 3 2 1 1 100.0 0 0 - 0 0 - 0 0 0 0 0 0 0 0 -
p525
aVThurl Bailey MIN 01/15/1993 MIN vs. DEN W 26 17 6 9 66.7 0 0 - 5 5 100.0 0 3 3 2 1 1 0 1 -
p526
aVDoug West MIN 01/13/1993 MIN vs. SAN L 41 16 8 17 47.1 0 1 0.0 0 0 - 1 5 6 5 0 0 3 4 -
p527
aVFelton Spencer MIN 01/13/1993 MIN vs. SAN L 26 2 1 7 14.3 0 0 - 0 0 - 3 3 6 0 1 0 1 5 -
p528
aVLuc Longley MIN 01/13/1993 MIN vs. SAN L 14 0 0 5 0.0 0 0 - 0 0 - 2 2 4 0 0 2 1 3 -
p529
aVChuck Person MIN 01/13/1993 MIN vs. SAN L 40 14 7 20 35.0 0 4 0.0 0 0 - 1 4 5 5 0 0 1 3 -
p530
aVChristian Laettner MIN 01/13/1993 MIN vs. SAN L 36 15 4 8 50.0 0 0 - 7 11 63.6 2 11 13 4 0 1 2 5 -
p531
aVGundars Vetra MIN 01/13/1993 MIN vs. SAN L 2 0 0 1 0.0 0 0 - 0 0 - 0 0 0 0 0 0 0 0 -
p532
aVThurl Bailey MIN 01/13/1993 MIN vs. SAN L 24 15 5 10 50.0 0 0 - 5 6 83.3 2 3 5 0 0 3 0 1 -
p533
aVBob McCann MIN 01/13/1993 MIN vs. SAN L 10 4 2 3 66.7 0 0 - 0 0 - 0 1 1 0 0 1 0 1 -
p534
aVMicheal Williams MIN 01/13/1993 MIN vs. SAN L 35 7 3 8 37.5 0 0 - 1 1 100.0 1 0 1 11 3 0 3 1 -
p535
aVChris Smith MIN 01/13/1993 MIN vs. SAN L 12 8 4 5 80.0 0 0 - 0 0 - 1 0 1 4 1 0 1 6 -
p536
aVChris Smith MIN 01/09/1993 MIN @ CLE L 27 6 3 7 42.9 0 0 - 0 0 - 0 2 2 4 1 1 0 4 -
p537
aVLance Blanks MIN 01/09/1993 MIN @ CLE L 18 0 0 4 0.0 0 0 - 0 0 - 0 2 2 1 0 0 0 0 -
p538
aVMarlon Maxey MIN 01/09/1993 MIN @ CLE L 5 6 2 4 50.0 0 0 - 2 4 50.0 1 0 1 0 0 0 0 1 -
p539
aVBob McCann MIN 01/09/1993 MIN @ CLE L 20 5 2 3 66.7 0 0 - 1 1 100.0 0 7 7 1 1 0 1 4 -
p540
aVLuc Longley MIN 01/09/1993 MIN @ CLE L 9 2 1 3 33.3 0 0 - 0 1 0.0 1 0 1 0 0 1 1 3 -
p541
aVBrad Sellers MIN 01/09/1993 MIN @ CLE L 14 6 2 5 40.0 0 0 - 2 2 100.0 2 1 3 2 0 0 1 1 -
p542
aVMicheal Williams MIN 01/09/1993 MIN @ CLE L 21 4 2 6 33.3 0 0 - 0 0 - 2 1 3 5 0 0 2 2 -
p543
aVThurl Bailey MIN 01/09/1993 MIN @ CLE L 30 18 8 13 61.5 0 0 - 2 2 100.0 2 4 6 4 0 1 1 2 -
p544
aVChristian Laettner MIN 01/09/1993 MIN @ CLE L 26 20 5 12 41.7 0 0 - 10 13 76.9 3 2 5 3 1 0 3 4 -
p545
aVChuck Person MIN 01/09/1993 MIN @ CLE L 27 6 3 8 37.5 0 1 0.0 0 0 - 0 2 2 4 0 0 0 2 -
p546
aVFelton Spencer MIN 01/09/1993 MIN @ CLE L 13 0 0 0 - 0 0 - 0 0 - 0 2 2 1 0 2 0 2 -
p547
aVDoug West MIN 01/09/1993 MIN @ CLE L 30 20 9 16 56.3 0 0 - 2 3 66.7 1 1 2 0 1 1 3 5 -
p548
aVFelton Spencer MIN 01/08/1993 MIN vs. SEA L 21 10 4 5 80.0 0 0 - 2 3 66.7 5 3 8 0 0 1 4 4 -
p549
aVDoug West MIN 01/08/1993 MIN vs. SEA L 44 23 10 17 58.8 0 0 - 3 4 75.0 1 1 2 2 0 0 4 2 -
p550
aVMicheal Williams MIN 01/08/1993 MIN vs. SEA L 27 10 3 7 42.9 0 1 0.0 4 5 80.0 0 1 1 8 0 0 2 4 -
p551
aVThurl Bailey MIN 01/08/1993 MIN vs. SEA L 13 4 2 5 40.0 0 0 - 0 0 - 0 2 2 1 0 1 1 0 -
p552
aVChristian Laettner MIN 01/08/1993 MIN vs. SEA L 42 18 5 16 31.3 0 1 0.0 8 9 88.9 1 8 9 5 2 1 2 4 -
p553
aVLance Blanks MIN 01/08/1993 MIN vs. SEA L 3 2 1 2 50.0 0 1 0.0 0 0 - 0 0 0 1 0 0 0 0 -
p554
aVBob McCann MIN 01/08/1993 MIN vs. SEA L 26 2 1 5 20.0 0 0 - 0 0 - 5 1 6 0 0 0 1 2 -
p555
aVChris Smith MIN 01/08/1993 MIN vs. SEA L 21 8 3 4 75.0 0 0 - 2 2 100.0 1 0 1 4 1 1 1 0 -
p556
aVChuck Person MIN 01/08/1993 MIN vs. SEA L 43 16 6 19 31.6 2 5 40.0 2 2 100.0 2 9 11 5 1 0 5 3 -
p557
aVLuc Longley MIN 01/06/1993 MIN vs. LAL L 10 5 1 5 20.0 0 0 - 3 4 75.0 2 3 5 0 1 2 2 2 -
p558
aVThurl Bailey MIN 01/06/1993 MIN vs. LAL L 15 6 3 8 37.5 0 0 - 0 0 - 1 1 2 0 0 0 1 2 -
p559
aVBob McCann MIN 01/06/1993 MIN vs. LAL L 26 7 3 6 50.0 0 0 - 1 2 50.0 2 2 4 1 0 0 1 2 -
p560
aVMicheal Williams MIN 01/06/1993 MIN vs. LAL L 30 6 3 7 42.9 0 0 - 0 0 - 0 0 0 6 1 1 0 1 -
p561
aVChuck Person MIN 01/06/1993 MIN vs. LAL L 39 15 7 19 36.8 0 3 0.0 1 2 50.0 3 5 8 6 1 0 2 4 -
p562
aVMarlon Maxey MIN 01/06/1993 MIN vs. LAL L 3 2 1 2 50.0 0 0 - 0 0 - 2 1 3 0 0 0 0 0 -
p563
aVChris Smith MIN 01/06/1993 MIN vs. LAL L 18 7 2 6 33.3 0 0 - 3 3 100.0 1 0 1 0 1 0 0 1 -
p564
aVChristian Laettner MIN 01/06/1993 MIN vs. LAL L 35 11 3 11 27.3 0 0 - 5 6 83.3 1 4 5 6 1 1 2 4 -
p565
aVLance Blanks MIN 01/06/1993 MIN vs. LAL L 12 3 1 2 50.0 0 0 - 1 2 50.0 0 1 1 0 3 0 1 1 -
p566
aVDoug West MIN 01/06/1993 MIN vs. LAL L 37 12 6 17 35.3 0 0 - 0 1 0.0 1 3 4 2 0 1 0 3 -
p567
aVBrad Sellers MIN 01/06/1993 MIN vs. LAL L 11 4 0 1 0.0 0 0 - 4 4 100.0 0 3 3 1 0 0 1 0 -
p568
aVFelton Spencer MIN 01/06/1993 MIN vs. LAL L 4 0 0 2 0.0 0 0 - 0 0 - 1 0 1 0 0 0 0 1 -
p569
aVLuc Longley MIN 01/05/1993 MIN @ MIL L 2 2 1 1 100.0 0 0 - 0 0 - 0 0 0 0 0 0 1 0 -
p570
aVDoug West MIN 01/05/1993 MIN @ MIL L 45 28 11 21 52.4 0 0 - 6 7 85.7 4 2 6 4 4 2 3 5 -
p571
aVChristian Laettner MIN 01/05/1993 MIN @ MIL L 38 12 5 12 41.7 0 1 0.0 2 4 50.0 0 9 9 2 1 0 3 3 -
p572
aVChuck Person MIN 01/05/1993 MIN @ MIL L 44 27 11 23 47.8 0 3 0.0 5 5 100.0 2 6 8 5 0 0 4 4 -
p573
aVMicheal Williams MIN 01/05/1993 MIN @ MIL L 35 14 5 9 55.6 0 1 0.0 4 4 100.0 0 2 2 11 5 0 4 3 -
p574
aVBob McCann MIN 01/05/1993 MIN @ MIL L 36 11 3 4 75.0 0 0 - 5 9 55.6 1 4 5 3 2 0 2 4 -
p575
aVThurl Bailey MIN 01/05/1993 MIN @ MIL L 22 6 3 4 75.0 0 0 - 0 0 - 0 1 1 1 0 1 3 4 -
p576
aVChris Smith MIN 01/05/1993 MIN @ MIL L 13 0 0 1 0.0 0 0 - 0 0 - 1 1 2 1 1 0 0 1 -
p577
aVLance Blanks MIN 01/05/1993 MIN @ MIL L 5 0 0 0 - 0 0 - 0 0 - 0 0 0 1 0 0 0 0 -
p578
aVLuc Longley MIN 01/02/1993 MIN vs. DAL W 16 4 2 4 50.0 0 0 - 0 0 - 0 5 5 1 0 2 2 5 -
p579
aVMarlon Maxey MIN 01/02/1993 MIN vs. DAL W 7 4 2 2 100.0 0 0 - 0 0 - 0 1 1 1 0 0 1 2 -
p580
aVChris Smith MIN 01/02/1993 MIN vs. DAL W 28 7 2 5 40.0 0 0 - 3 4 75.0 0 5 5 5 1 1 2 3 -
p581
aVBob McCann MIN 01/02/1993 MIN vs. DAL W 23 6 3 8 37.5 0 0 - 0 0 - 4 6 10 0 1 0 3 1 -
p582
aVThurl Bailey MIN 01/02/1993 MIN vs. DAL W 16 10 3 7 42.9 0 0 - 4 4 100.0 0 3 3 1 1 2 0 2 -
p583
aVMicheal Williams MIN 01/02/1993 MIN vs. DAL W 20 2 0 1 0.0 0 0 - 2 2 100.0 0 3 3 5 3 0 2 1 -
p584
aVLance Blanks MIN 01/02/1993 MIN vs. DAL W 24 3 1 4 25.0 1 3 33.3 0 0 - 0 4 4 2 1 0 0 1 -
p585
aVDoug West MIN 01/02/1993 MIN vs. DAL W 24 15 7 11 63.6 0 0 - 1 1 100.0 1 1 2 2 0 0 0 2 -
p586
aVChristian Laettner MIN 01/02/1993 MIN vs. DAL W 31 26 5 10 50.0 0 1 0.0 16 19 84.2 1 5 6 4 1 3 1 1 -
p587
aVFelton Spencer MIN 01/02/1993 MIN vs. DAL W 9 4 1 2 50.0 0 0 - 2 2 100.0 0 3 3 0 0 0 0 2 -
p588
aVBrad Sellers MIN 01/02/1993 MIN vs. DAL W 14 13 5 6 83.3 0 0 - 3 4 75.0 2 1 3 4 0 0 1 1 -
p589
aVChuck Person MIN 01/02/1993 MIN vs. DAL W 28 9 4 8 50.0 0 2 0.0 1 3 33.3 0 3 3 4 0 1 2 2 -
p590
aVFelton Spencer MIN 12/30/1992 MIN vs. NJN L 12 2 1 4 25.0 0 0 - 0 3 0.0 1 0 1 0 0 3 0 1 -
p591
aVThurl Bailey MIN 12/30/1992 MIN vs. NJN L 23 15 6 11 54.5 0 0 - 3 4 75.0 1 0 1 2 1 0 0 0 -
p592
aVMicheal Williams MIN 12/30/1992 MIN vs. NJN L 26 4 1 5 20.0 0 0 - 2 2 100.0 1 2 3 4 2 0 2 3 -
p593
aVChris Smith MIN 12/30/1992 MIN vs. NJN L 26 6 2 5 40.0 0 0 - 2 3 66.7 3 3 6 6 1 1 0 0 -
p594
aVBrad Sellers MIN 12/30/1992 MIN vs. NJN L 3 0 0 0 - 0 0 - 0 0 - 0 1 1 0 0 0 0 0 -
p595
aVLance Blanks MIN 12/30/1992 MIN vs. NJN L 13 5 2 2 100.0 1 1 100.0 0 0 - 0 3 3 2 0 0 1 1 -
p596
aVBob McCann MIN 12/30/1992 MIN vs. NJN L 27 12 6 11 54.5 0 0 - 0 1 0.0 1 2 3 1 0 1 1 1 -
p597
aVMarlon Maxey MIN 12/30/1992 MIN vs. NJN L 9 4 2 6 33.3 0 0 - 0 2 0.0 3 0 3 0 0 0 1 1 -
p598
aVDoug West MIN 12/30/1992 MIN vs. NJN L 31 16 5 11 45.5 0 1 0.0 6 6 100.0 3 1 4 3 1 0 3 4 -
p599
aVChristian Laettner MIN 12/30/1992 MIN vs. NJN L 29 18 5 10 50.0 0 1 0.0 8 9 88.9 2 6 8 2 0 1 4 4 -
p600
aVLuc Longley MIN 12/30/1992 MIN vs. NJN L 8 0 0 1 0.0 0 0 - 0 0 - 0 0 0 0 1 0 3 0 -
p601
aVChuck Person MIN 12/30/1992 MIN vs. NJN L 33 10 5 12 41.7 0 1 0.0 0 0 - 0 3 3 5 2 0 2 0 -
p602
aVMicheal Williams MIN 12/28/1992 MIN @ UTH L 35 19 5 7 71.4 0 0 - 9 10 90.0 2 1 3 8 1 0 6 3 -
p603
aVLance Blanks MIN 12/28/1992 MIN @ UTH L 7 3 1 2 50.0 1 1 100.0 0 2 0.0 0 1 1 1 0 0 0 1 -
p604
aVLuc Longley MIN 12/28/1992 MIN @ UTH L 22 4 1 3 33.3 0 0 - 2 2 100.0 2 2 4 2 2 1 3 3 -
p605
aVChuck Person MIN 12/28/1992 MIN @ UTH L 36 8 4 12 33.3 0 2 0.0 0 0 - 0 8 8 7 0 2 5 1 -
p606
aVThurl Bailey MIN 12/28/1992 MIN @ UTH L 21 12 5 8 62.5 0 0 - 2 2 100.0 1 0 1 1 1 0 3 1 -
p607
aVBrad Sellers MIN 12/28/1992 MIN @ UTH L 9 2 1 1 100.0 0 0 - 0 0 - 0 1 1 0 0 0 0 0 -
p608
aVChris Smith MIN 12/28/1992 MIN @ UTH L 13 2 0 2 0.0 0 0 - 2 2 100.0 0 2 2 1 0 0 1 1 -
p609
aVDoug West MIN 12/28/1992 MIN @ UTH L 41 18 8 12 66.7 0 0 - 2 2 100.0 0 0 0 2 1 0 3 3 -
p610
aVMarlon Maxey MIN 12/28/1992 MIN @ UTH L 3 1 0 0 - 0 0 - 1 2 50.0 1 0 1 0 0 0 1 1 -
p611
aVChristian Laettner MIN 12/28/1992 MIN @ UTH L 23 9 3 7 42.9 0 0 - 3 3 100.0 3 5 8 3 1 1 3 3 -
p612
aVBob McCann MIN 12/28/1992 MIN @ UTH L 21 9 3 4 75.0 0 0 - 3 4 75.0 1 4 5 0 2 2 2 1 -
p613
aVFelton Spencer MIN 12/28/1992 MIN @ UTH L 9 8 3 4 75.0 0 0 - 2 3 66.7 0 0 0 1 0 1 1 1 -
p614
aVBrad Sellers MIN 12/26/1992 MIN vs. ATL L 8 4 1 2 50.0 0 0 - 2 2 100.0 1 2 3 1 0 0 0 1 -
p615
aVBob McCann MIN 12/26/1992 MIN vs. ATL L 21 9 4 7 57.1 0 1 0.0 1 3 33.3 2 3 5 2 0 0 0 3 -
p616
aVThurl Bailey MIN 12/26/1992 MIN vs. ATL L 15 8 3 6 50.0 0 0 - 2 2 100.0 1 1 2 2 0 2 0 0 -
p617
aVChristian Laettner MIN 12/26/1992 MIN vs. ATL L 37 26 11 15 73.3 0 1 0.0 4 6 66.7 2 5 7 2 3 1 4 5 -
p618
aVChris Smith MIN 12/26/1992 MIN vs. ATL L 11 2 0 0 - 0 0 - 2 2 100.0 0 0 0 2 0 0 2 1 -
p619
aVMicheal Williams MIN 12/26/1992 MIN vs. ATL L 38 11 2 11 18.2 1 2 50.0 6 6 100.0 2 3 5 8 1 0 2 4 -
p620
aVDoug West MIN 12/26/1992 MIN vs. ATL L 43 17 6 13 46.2 0 0 - 5 7 71.4 0 2 2 1 2 0 2 4 -
p621
aVChuck Person MIN 12/26/1992 MIN vs. ATL L 40 17 7 14 50.0 3 5 60.0 0 0 - 2 5 7 7 0 0 3 5 -
p622
aVLance Blanks MIN 12/26/1992 MIN vs. ATL L 4 0 0 1 0.0 0 0 - 0 0 - 0 0 0 2 0 0 1 1 -
p623
aVLuc Longley MIN 12/26/1992 MIN vs. ATL L 23 11 5 6 83.3 0 0 - 1 2 50.0 1 6 7 0 0 1 2 5 -
p624
aVDoug West MIN 12/23/1992 MIN vs. SAC L 50 26 8 19 42.1 0 2 0.0 10 12 83.3 2 1 3 4 2 0 0 5 -
p625
aVLuc Longley MIN 12/23/1992 MIN vs. SAC L 20 0 0 5 0.0 0 0 - 0 0 - 0 2 2 2 0 2 1 2 -
p626
aVChristian Laettner MIN 12/23/1992 MIN vs. SAC L 51 20 6 13 46.2 0 0 - 8 11 72.7 2 9 11 4 0 0 8 3 -
p627
aVBob McCann MIN 12/23/1992 MIN vs. SAC L 11 2 1 1 100.0 0 0 - 0 0 - 0 3 3 1 0 0 1 5 -
p628
aVMicheal Williams MIN 12/23/1992 MIN vs. SAC L 41 21 5 14 35.7 0 1 0.0 11 11 100.0 0 2 2 6 3 1 4 5 -
p629
aVBrad Sellers MIN 12/23/1992 MIN vs. SAC L 7 0 0 3 0.0 0 0 - 0 0 - 0 2 2 0 0 1 1 1 -
p630
aVChuck Person MIN 12/23/1992 MIN vs. SAC L 49 22 9 19 47.4 4 8 50.0 0 2 0.0 1 10 11 6 1 0 3 4 -
p631
aVFelton Spencer MIN 12/23/1992 MIN vs. SAC L 22 3 1 2 50.0 0 0 - 1 2 50.0 2 4 6 0 0 3 0 4 -
p632
aVMarlon Maxey MIN 12/23/1992 MIN vs. SAC L 2 0 0 1 0.0 0 0 - 0 0 - 0 1 1 0 0 0 0 0 -
p633
aVChris Smith MIN 12/23/1992 MIN vs. SAC L 12 2 1 2 50.0 0 0 - 0 0 - 0 0 0 0 2 0 0 1 -
p634
aVLance Blanks MIN 12/19/1992 MIN @ GOS L 5 3 1 1 100.0 1 1 100.0 0 0 - 0 0 0 1 0 1 0 0 -
p635
aVChuck Person MIN 12/19/1992 MIN @ GOS L 48 19 8 19 42.1 3 7 42.9 0 0 - 3 11 14 6 2 0 3 5 -
p636
aVBrad Sellers MIN 12/19/1992 MIN @ GOS L 7 2 1 1 100.0 0 0 - 0 0 - 1 0 1 0 0 0 1 2 -
p637
aVLuc Longley MIN 12/19/1992 MIN @ GOS L 32 10 4 6 66.7 0 0 - 2 2 100.0 0 6 6 0 1 2 1 4 -
p638
aVMicheal Williams MIN 12/19/1992 MIN @ GOS L 42 27 6 14 42.9 0 3 0.0 15 15 100.0 3 10 13 15 4 0 2 4 -
p639
aVChristian Laettner MIN 12/19/1992 MIN @ GOS L 44 10 5 25 20.0 0 1 0.0 0 0 - 3 6 9 2 1 2 1 4 -
p640
aVDoug West MIN 12/19/1992 MIN @ GOS L 47 39 16 26 61.5 0 0 - 7 8 87.5 0 2 2 3 1 0 2 3 -
p641
aVMarlon Maxey MIN 12/19/1992 MIN @ GOS L 4 0 0 3 0.0 0 0 - 0 0 - 0 0 0 0 0 0 0 0 -
p642
aVBob McCann MIN 12/19/1992 MIN @ GOS L 25 6 3 5 60.0 0 0 - 0 0 - 0 3 3 1 1 0 0 3 -
p643
aVChris Smith MIN 12/19/1992 MIN @ GOS L 11 0 0 2 0.0 0 0 - 0 0 - 0 1 1 2 0 0 0 0 -
p644
aVBrad Sellers MIN 12/18/1992 MIN @ LAC L 11 0 0 2 0.0 0 0 - 0 0 - 1 1 2 0 0 0 0 2 -
p645
aVChris Smith MIN 12/18/1992 MIN @ LAC L 18 6 3 4 75.0 0 0 - 0 0 - 0 2 2 0 0 1 1 0 -
p646
aVDoug West MIN 12/18/1992 MIN @ LAC L 39 21 8 17 47.1 0 0 - 5 6 83.3 0 4 4 3 1 0 2 2 -
p647
aVFelton Spencer MIN 12/18/1992 MIN @ LAC L 8 0 0 0 - 0 0 - 0 0 - 1 0 1 1 0 1 0 2 -
p648
aVThurl Bailey MIN 12/18/1992 MIN @ LAC L 37 14 6 12 50.0 0 0 - 2 4 50.0 0 7 7 4 1 1 0 3 -
p649
aVLuc Longley MIN 12/18/1992 MIN @ LAC L 35 6 3 7 42.9 0 0 - 0 0 - 1 2 3 2 3 1 2 4 -
p650
aVLance Blanks MIN 12/18/1992 MIN @ LAC L 9 0 0 0 - 0 0 - 0 0 - 0 0 0 2 0 0 2 1 -
p651
aVChuck Person MIN 12/18/1992 MIN @ LAC L 3 2 1 1 100.0 0 0 - 0 0 - 0 1 1 0 0 0 1 1 -
p652
aVMicheal Williams MIN 12/18/1992 MIN @ LAC L 33 16 6 9 66.7 2 2 100.0 2 4 50.0 0 2 2 10 5 0 3 3 -
p653
aVBob McCann MIN 12/18/1992 MIN @ LAC L 11 6 3 3 100.0 0 0 - 0 0 - 1 1 2 0 0 0 2 0 -
p654
aVChristian Laettner MIN 12/18/1992 MIN @ LAC L 36 24 9 15 60.0 0 1 0.0 6 8 75.0 2 8 10 2 1 0 3 4 -
p655
aVBrad Sellers MIN 12/15/1992 MIN vs. BOS L 3 0 0 0 - 0 0 - 0 0 - 0 0 0 1 0 0 0 0 -
p656
aVChuck Person MIN 12/15/1992 MIN vs. BOS L 52 24 9 20 45.0 3 4 75.0 3 3 100.0 3 4 7 2 2 0 5 2 -
p657
aVBob McCann MIN 12/15/1992 MIN vs. BOS L 7 0 0 2 0.0 0 0 - 0 0 - 0 0 0 1 0 0 0 0 -
p658
aVLuc Longley MIN 12/15/1992 MIN vs. BOS L 45 19 7 16 43.8 0 0 - 5 6 83.3 6 4 10 2 2 4 2 5 -
p659
aVChristian Laettner MIN 12/15/1992 MIN vs. BOS L 51 35 11 24 45.8 1 2 50.0 12 17 70.6 5 12 17 1 0 1 4 5 -
p660
aVLance Blanks MIN 12/15/1992 MIN vs. BOS L 16 5 2 3 66.7 0 1 0.0 1 2 50.0 1 2 3 1 0 0 0 2 -
p661
aVMicheal Williams MIN 12/15/1992 MIN vs. BOS L 50 16 4 12 33.3 0 1 0.0 8 8 100.0 1 9 10 14 3 2 7 6 -
p662
aVDoug West MIN 12/15/1992 MIN vs. BOS L 53 18 4 12 33.3 0 0 - 10 12 83.3 2 3 5 6 0 1 1 5 -
p663
aVThurl Bailey MIN 12/15/1992 MIN vs. BOS L 8 0 0 2 0.0 0 0 - 0 0 - 0 0 0 0 0 0 1 0 -
p664
aVFelton Spencer MIN 12/15/1992 MIN vs. BOS L 5 2 1 2 50.0 0 0 - 0 0 - 2 0 2 0 0 0 0 1 -
p665
aVBob McCann MIN 12/12/1992 MIN vs. HOU L 21 2 1 3 33.3 0 0 - 0 0 - 0 3 3 0 0 3 2 2 -
p666
aVBrad Sellers MIN 12/12/1992 MIN vs. HOU L 1 0 0 0 - 0 0 - 0 0 - 0 0 0 0 0 0 1 0 -
p667
aVChris Smith MIN 12/12/1992 MIN vs. HOU L 5 2 1 2 50.0 0 0 - 0 0 - 0 0 0 1 0 0 0 0 -
p668
aVChuck Person MIN 12/12/1992 MIN vs. HOU L 44 28 11 25 44.0 1 5 20.0 5 5 100.0 4 3 7 4 1 1 2 3 -
p669
aVDoug West MIN 12/12/1992 MIN vs. HOU L 36 9 4 11 36.4 0 0 - 1 1 100.0 2 2 4 1 2 1 0 5 -
p670
aVThurl Bailey MIN 12/12/1992 MIN vs. HOU L 17 5 2 5 40.0 0 0 - 1 1 100.0 0 3 3 0 0 0 0 0 -
p671
aVMicheal Williams MIN 12/12/1992 MIN vs. HOU L 39 8 1 6 16.7 0 1 0.0 6 6 100.0 2 2 4 12 1 0 5 3 -
p672
aVChristian Laettner MIN 12/12/1992 MIN vs. HOU L 31 21 6 10 60.0 0 0 - 9 11 81.8 2 6 8 2 0 1 3 4 -
p673
aVLuc Longley MIN 12/12/1992 MIN vs. HOU L 29 10 5 10 50.0 0 0 - 0 0 - 1 4 5 0 0 3 0 2 -
p674
aVLance Blanks MIN 12/12/1992 MIN vs. HOU L 16 2 1 4 25.0 0 2 0.0 0 0 - 2 1 3 2 1 0 0 0 -
p675
aVMarlon Maxey MIN 12/12/1992 MIN vs. HOU L 1 0 0 0 - 0 0 - 0 0 - 0 0 0 0 0 0 0 0 -
p676
aVLance Blanks MIN 12/10/1992 MIN @ DAL W 20 15 5 6 83.3 1 2 50.0 4 5 80.0 1 1 2 3 0 0 2 2 -
p677
aVLuc Longley MIN 12/10/1992 MIN @ DAL W 21 9 3 6 50.0 0 0 - 3 4 75.0 3 6 9 3 1 0 4 5 -
p678
aVChuck Person MIN 12/10/1992 MIN @ DAL W 38 26 10 20 50.0 4 6 66.7 2 2 100.0 1 6 7 3 1 0 2 2 -
p679
aVBob McCann MIN 12/10/1992 MIN @ DAL W 18 2 1 4 25.0 0 0 - 0 0 - 1 5 6 2 0 2 1 4 -
p680
aVDoug West MIN 12/10/1992 MIN @ DAL W 37 16 7 10 70.0 0 0 - 2 4 50.0 0 1 1 6 0 1 1 2 -
p681
aVChris Smith MIN 12/10/1992 MIN @ DAL W 4 0 0 0 - 0 0 - 0 0 - 0 1 1 2 0 0 0 0 -
p682
aVMarlon Maxey MIN 12/10/1992 MIN @ DAL W 4 4 2 3 66.7 0 0 - 0 0 - 1 1 2 0 0 0 0 0 -
p683
aVChristian Laettner MIN 12/10/1992 MIN @ DAL W 27 12 3 6 50.0 0 0 - 6 8 75.0 1 6 7 2 2 1 1 4 -
p684
aVFelton Spencer MIN 12/10/1992 MIN @ DAL W 12 1 0 1 0.0 0 0 - 1 2 50.0 0 1 1 0 0 2 2 4 -
p685
aVMicheal Williams MIN 12/10/1992 MIN @ DAL W 35 15 5 10 50.0 0 1 0.0 5 5 100.0 0 1 1 5 3 0 0 2 -
p686
aVThurl Bailey MIN 12/10/1992 MIN @ DAL W 21 9 3 9 33.3 0 0 - 3 4 75.0 1 4 5 1 0 1 1 2 -
p687
aVBrad Sellers MIN 12/10/1992 MIN @ DAL W 3 2 1 3 33.3 0 0 - 0 0 - 1 1 2 0 0 0 0 0 -
p688
aVMicheal Williams MIN 12/08/1992 MIN @ HOU L 42 18 7 14 50.0 0 3 0.0 4 5 80.0 3 5 8 6 3 0 5 5 -
p689
aVThurl Bailey MIN 12/08/1992 MIN @ HOU L 9 2 1 3 33.3 0 0 - 0 0 - 1 1 2 0 1 0 0 0 -
p690
aVChuck Person MIN 12/08/1992 MIN @ HOU L 45 22 9 22 40.9 2 6 33.3 2 2 100.0 3 4 7 6 0 0 4 4 -
p691
aVLance Blanks MIN 12/08/1992 MIN @ HOU L 17 5 2 3 66.7 1 1 100.0 0 0 - 1 1 2 3 0 0 0 1 -
p692
aVDoug West MIN 12/08/1992 MIN @ HOU L 37 10 3 9 33.3 0 0 - 4 4 100.0 0 0 0 1 1 0 0 4 -
p693
aVChristian Laettner MIN 12/08/1992 MIN @ HOU L 33 19 4 12 33.3 0 0 - 11 12 91.7 3 1 4 0 0 0 4 4 -
p694
aVLuc Longley MIN 12/08/1992 MIN @ HOU L 23 2 1 4 25.0 0 0 - 0 0 - 1 3 4 0 2 0 0 4 -
p695
aVBob McCann MIN 12/08/1992 MIN @ HOU L 21 12 4 9 44.4 0 0 - 4 7 57.1 2 2 4 4 0 0 0 5 -
p696
aVFelton Spencer MIN 12/08/1992 MIN @ HOU L 13 4 1 2 50.0 0 0 - 2 2 100.0 3 1 4 0 0 0 1 5 -
p697
aVFelton Spencer MIN 12/06/1992 MIN @ LAL L 15 0 0 1 0.0 0 0 - 0 0 - 0 3 3 0 0 0 0 3 -
p698
aVChris Smith MIN 12/06/1992 MIN @ LAL L 8 0 0 1 0.0 0 0 - 0 0 - 0 0 0 0 1 0 0 2 -
p699
aVChristian Laettner MIN 12/06/1992 MIN @ LAL L 37 12 4 11 36.4 0 2 0.0 4 4 100.0 0 4 4 2 1 2 5 1 -
p700
aVMarlon Maxey MIN 12/06/1992 MIN @ LAL L 2 0 0 1 0.0 0 0 - 0 0 - 0 0 0 0 0 0 0 0 -
p701
aVBrad Sellers MIN 12/06/1992 MIN @ LAL L 2 0 0 1 0.0 0 0 - 0 0 - 0 0 0 0 0 0 0 0 -
p702
aVLuc Longley MIN 12/06/1992 MIN @ LAL L 29 9 4 9 44.4 0 0 - 1 2 50.0 2 5 7 3 1 2 2 4 -
p703
aVLance Blanks MIN 12/06/1992 MIN @ LAL L 2 2 1 1 100.0 0 0 - 0 0 - 0 0 0 0 0 0 0 0 -
p704
aVDoug West MIN 12/06/1992 MIN @ LAL L 43 20 9 17 52.9 0 1 0.0 2 2 100.0 2 3 5 2 0 0 0 3 -
p705
aVMicheal Williams MIN 12/06/1992 MIN @ LAL L 40 18 6 11 54.5 0 0 - 6 7 85.7 1 2 3 11 2 0 4 6 -
p706
aVChuck Person MIN 12/06/1992 MIN @ LAL L 39 20 10 19 52.6 0 6 0.0 0 0 - 2 7 9 4 2 0 7 3 -
p707
aVBob McCann MIN 12/06/1992 MIN @ LAL L 8 0 0 2 0.0 0 0 - 0 0 - 0 3 3 0 0 2 1 0 -
p708
aVThurl Bailey MIN 12/06/1992 MIN @ LAL L 15 4 2 4 50.0 0 0 - 0 0 - 0 0 0 0 0 0 0 2 -
p709
aVChristian Laettner MIN 12/05/1992 MIN @ SEA L 31 11 3 7 42.9 0 1 0.0 5 6 83.3 2 7 9 2 1 0 3 2 -
p710
aVLance Blanks MIN 12/05/1992 MIN @ SEA L 14 7 3 5 60.0 1 1 100.0 0 0 - 0 4 4 0 1 0 0 4 -
p711
aVChris Smith MIN 12/05/1992 MIN @ SEA L 16 4 2 5 40.0 0 0 - 0 0 - 0 0 0 2 0 0 3 1 -
p712
aVThurl Bailey MIN 12/05/1992 MIN @ SEA L 12 4 1 3 33.3 0 0 - 2 2 100.0 0 1 1 0 0 0 4 1 -
p713
aVFelton Spencer MIN 12/05/1992 MIN @ SEA L 7 0 0 0 - 0 0 - 0 0 - 0 0 0 0 0 0 0 0 -
p714
aVDoug West MIN 12/05/1992 MIN @ SEA L 39 18 8 12 66.7 0 0 - 2 5 40.0 0 3 3 5 4 0 6 3 -
p715
aVMarlon Maxey MIN 12/05/1992 MIN @ SEA L 4 2 1 4 25.0 0 0 - 0 2 0.0 3 1 4 0 0 0 0 0 -
p716
aVBob McCann MIN 12/05/1992 MIN @ SEA L 24 11 4 5 80.0 0 0 - 3 4 75.0 3 1 4 2 0 0 2 5 -
p717
aVChuck Person MIN 12/05/1992 MIN @ SEA L 36 4 2 13 15.4 0 4 0.0 0 0 - 2 6 8 2 1 0 1 3 -
p718
aVLuc Longley MIN 12/05/1992 MIN @ SEA L 19 14 5 7 71.4 0 0 - 4 4 100.0 1 1 2 1 0 0 1 4 -
p719
aVMicheal Williams MIN 12/05/1992 MIN @ SEA L 32 12 4 12 33.3 0 1 0.0 4 4 100.0 1 1 2 6 0 2 3 3 -
p720
aVBrad Sellers MIN 12/05/1992 MIN @ SEA L 6 0 0 4 0.0 0 0 - 0 0 - 0 0 0 0 1 0 2 1 -
p721
aVChristian Laettner MIN 12/03/1992 MIN @ UTH L 15 13 6 10 60.0 0 1 0.0 1 2 50.0 1 5 6 0 0 1 2 3 -
p722
aVFelton Spencer MIN 12/03/1992 MIN @ UTH L 12 2 1 5 20.0 0 0 - 0 2 0.0 5 1 6 0 0 0 1 2 -
p723
aVLuc Longley MIN 12/03/1992 MIN @ UTH L 6 1 0 1 0.0 0 0 - 1 2 50.0 0 0 0 0 1 1 2 2 -
p724
aVThurl Bailey MIN 12/03/1992 MIN @ UTH L 21 9 4 8 50.0 0 0 - 1 2 50.0 0 4 4 1 1 2 1 2 -
p725
aVBob McCann MIN 12/03/1992 MIN @ UTH L 29 13 5 8 62.5 0 0 - 3 3 100.0 2 3 5 2 1 2 0 5 -
p726
aVLance Blanks MIN 12/03/1992 MIN @ UTH L 15 3 1 3 33.3 1 1 100.0 0 0 - 0 0 0 2 0 0 1 3 -
p727
aVBrad Sellers MIN 12/03/1992 MIN @ UTH L 8 4 1 3 33.3 0 0 - 2 2 100.0 0 0 0 0 0 0 0 0 -
p728
aVChris Smith MIN 12/03/1992 MIN @ UTH L 41 12 5 13 38.5 0 0 - 2 5 40.0 0 0 0 6 0 0 3 5 -
p729
aVChuck Person MIN 12/03/1992 MIN @ UTH L 39 16 7 15 46.7 2 5 40.0 0 0 - 3 6 9 8 4 2 5 3 -
p730
aVMarlon Maxey MIN 12/03/1992 MIN @ UTH L 14 2 1 4 25.0 0 0 - 0 0 - 1 3 4 0 1 0 1 1 -
p731
aVDoug West MIN 12/03/1992 MIN @ UTH L 40 16 7 18 38.9 0 1 0.0 2 2 100.0 2 3 5 5 0 0 3 3 -
p732
aVThurl Bailey MIN 11/28/1992 MIN vs. DET W 18 0 0 7 0.0 0 0 - 0 0 - 0 3 3 2 1 1 1 2 -
p733
aVChuck Person MIN 11/28/1992 MIN vs. DET W 44 16 7 22 31.8 2 6 33.3 0 2 0.0 1 8 9 3 0 1 3 1 -
p734
aVLance Blanks MIN 11/28/1992 MIN vs. DET W 20 2 1 3 33.3 0 0 - 0 0 - 0 2 2 4 0 0 1 2 -
p735
aVChristian Laettner MIN 11/28/1992 MIN vs. DET W 33 23 8 13 61.5 1 1 100.0 6 6 100.0 2 4 6 1 1 2 3 4 -
p736
aVLuc Longley MIN 11/28/1992 MIN vs. DET W 20 4 2 5 40.0 0 0 - 0 0 - 0 6 6 3 0 2 0 2 -
p737
aVDoug West MIN 11/28/1992 MIN vs. DET W 45 22 9 15 60.0 0 1 0.0 4 5 80.0 3 2 5 4 1 1 0 3 -
p738
aVChris Smith MIN 11/28/1992 MIN vs. DET W 31 2 1 7 14.3 0 0 - 0 0 - 1 1 2 5 2 1 1 2 -
p739
aVFelton Spencer MIN 11/28/1992 MIN vs. DET W 7 2 1 1 100.0 0 0 - 0 0 - 2 0 2 0 0 0 0 2 -
p740
aVBob McCann MIN 11/28/1992 MIN vs. DET W 22 11 4 8 50.0 0 0 - 3 4 75.0 4 5 9 3 0 0 2 2 -
p741
aVGundars Vetra MIN 11/27/1992 MIN @ WAS W 2 0 0 1 0.0 0 0 - 0 0 - 0 1 1 0 0 0 0 0 -
p742
aVChuck Person MIN 11/27/1992 MIN @ WAS W 39 26 12 23 52.2 2 4 50.0 0 0 - 1 1 2 6 1 0 2 2 -
p743
aVChris Smith MIN 11/27/1992 MIN @ WAS W 21 9 4 5 80.0 0 0 - 1 2 50.0 0 1 1 2 2 0 0 2 -
p744
aVLance Blanks MIN 11/27/1992 MIN @ WAS W 2 1 0 0 - 0 0 - 1 2 50.0 0 0 0 0 0 0 0 1 -
p745
aVBrad Sellers MIN 11/27/1992 MIN @ WAS W 6 0 0 1 0.0 0 0 - 0 0 - 0 2 2 1 0 0 0 0 -
p746
aVMicheal Williams MIN 11/27/1992 MIN @ WAS W 30 12 5 10 50.0 0 0 - 2 2 100.0 0 1 1 8 3 0 1 2 -
p747
aVLuc Longley MIN 11/27/1992 MIN @ WAS W 14 4 2 3 66.7 0 0 - 0 1 0.0 0 1 1 1 0 1 1 4 -
p748
aVDoug West MIN 11/27/1992 MIN @ WAS W 41 21 9 14 64.3 0 0 - 3 4 75.0 0 4 4 2 2 0 1 2 -
p749
aVChristian Laettner MIN 11/27/1992 MIN @ WAS W 40 25 10 19 52.6 0 0 - 5 5 100.0 1 8 9 5 1 1 5 2 -
p750
aVBob McCann MIN 11/27/1992 MIN @ WAS W 8 0 0 1 0.0 0 0 - 0 0 - 1 1 2 0 0 0 0 2 -
p751
aVThurl Bailey MIN 11/27/1992 MIN @ WAS W 16 2 1 3 33.3 0 0 - 0 0 - 1 1 2 1 0 0 0 4 -
p752
aVFelton Spencer MIN 11/27/1992 MIN @ WAS W 21 2 1 1 100.0 0 0 - 0 0 - 0 6 6 0 1 0 1 1 -
p753
aVLuc Longley MIN 11/25/1992 MIN vs. NYK L 20 2 1 6 16.7 0 0 - 0 0 - 1 3 4 0 0 3 1 2 -
p754
aVChuck Person MIN 11/25/1992 MIN vs. NYK L 39 14 6 13 46.2 1 4 25.0 1 2 50.0 1 9 10 2 0 1 2 2 -
p755
aVThurl Bailey MIN 11/25/1992 MIN vs. NYK L 7 2 1 3 33.3 0 0 - 0 0 - 0 1 1 0 0 0 0 0 -
p756
aVMicheal Williams MIN 11/25/1992 MIN vs. NYK L 38 11 3 12 25.0 0 1 0.0 5 6 83.3 2 2 4 11 1 1 0 4 -
p757
aVDoug West MIN 11/25/1992 MIN vs. NYK L 41 15 7 16 43.8 0 1 0.0 1 1 100.0 3 2 5 4 2 1 2 1 -
p758
aVBob McCann MIN 11/25/1992 MIN vs. NYK L 11 0 0 1 0.0 0 0 - 0 0 - 0 0 0 1 1 1 2 1 -
p759
aVChristian Laettner MIN 11/25/1992 MIN vs. NYK L 43 29 12 17 70.6 0 0 - 5 5 100.0 1 4 5 1 0 1 3 4 -
p760
aVFelton Spencer MIN 11/25/1992 MIN vs. NYK L 15 1 0 2 0.0 0 0 - 1 2 50.0 3 2 5 0 0 1 1 2 -
p761
aVBrad Sellers MIN 11/25/1992 MIN vs. NYK L 9 0 0 0 - 0 0 - 0 0 - 0 4 4 0 0 0 1 0 -
p762
aVChris Smith MIN 11/25/1992 MIN vs. NYK L 10 0 0 3 0.0 0 1 0.0 0 0 - 0 0 0 2 0 0 2 0 -
p763
aVLance Blanks MIN 11/25/1992 MIN vs. NYK L 7 4 1 2 50.0 0 0 - 2 2 100.0 0 0 0 0 0 0 0 1 -
p764
aVLuc Longley MIN 11/21/1992 MIN @ DEN L 10 4 2 6 33.3 0 0 - 0 0 - 2 1 3 1 1 0 0 5 -
p765
aVFelton Spencer MIN 11/21/1992 MIN @ DEN L 21 10 4 7 57.1 0 0 - 2 2 100.0 3 4 7 2 1 1 1 6 -
p766
aVChris Smith MIN 11/21/1992 MIN @ DEN L 11 4 2 3 66.7 0 0 - 0 0 - 0 0 0 1 1 0 1 0 -
p767
aVBrad Sellers MIN 11/21/1992 MIN @ DEN L 6 2 1 2 50.0 0 0 - 0 0 - 0 0 0 0 0 0 0 0 -
p768
aVMicheal Williams MIN 11/21/1992 MIN @ DEN L 37 21 4 10 40.0 0 0 - 13 19 68.4 1 2 3 3 1 0 3 5 -
p769
aVChristian Laettner MIN 11/21/1992 MIN @ DEN L 38 23 7 12 58.3 0 1 0.0 9 13 69.2 2 4 6 0 0 1 4 4 -
p770
aVThurl Bailey MIN 11/21/1992 MIN @ DEN L 20 17 4 10 40.0 0 0 - 9 10 90.0 0 2 2 1 0 0 2 2 -
p771
aVChuck Person MIN 11/21/1992 MIN @ DEN L 42 19 7 16 43.8 0 0 - 5 7 71.4 4 4 8 8 0 0 2 4 -
p772
aVDoug West MIN 11/21/1992 MIN @ DEN L 38 18 9 12 75.0 0 0 - 0 0 - 1 2 3 3 0 1 1 5 -
p773
aVBob McCann MIN 11/21/1992 MIN @ DEN L 7 0 0 0 - 0 0 - 0 0 - 0 0 0 0 0 1 0 1 -
p774
aVLance Blanks MIN 11/21/1992 MIN @ DEN L 10 0 0 0 - 0 0 - 0 0 - 0 0 0 1 0 0 0 1 -
p775
aVThurl Bailey MIN 11/20/1992 MIN vs. WAS L 30 14 2 9 22.2 0 0 - 10 10 100.0 1 5 6 0 0 3 2 2 -
p776
aVDoug West MIN 11/20/1992 MIN vs. WAS L 42 10 4 11 36.4 0 0 - 2 4 50.0 1 3 4 1 0 0 3 5 -
p777
aVFelton Spencer MIN 11/20/1992 MIN vs. WAS L 22 2 0 4 0.0 0 0 - 2 2 100.0 2 6 8 0 0 2 1 0 -
p778
aVChris Smith MIN 11/20/1992 MIN vs. WAS L 22 6 3 4 75.0 0 0 - 0 0 - 0 2 2 7 2 1 0 2 -
p779
aVMicheal Williams MIN 11/20/1992 MIN vs. WAS L 26 17 6 9 66.7 0 0 - 5 5 100.0 1 1 2 5 1 0 2 4 -
p780
aVLuc Longley MIN 11/20/1992 MIN vs. WAS L 13 8 4 5 80.0 0 0 - 0 0 - 2 3 5 0 0 1 5 2 -
p781
aVChuck Person MIN 11/20/1992 MIN vs. WAS L 45 23 11 21 52.4 0 5 0.0 1 2 50.0 1 4 5 7 2 0 1 3 -
p782
aVChristian Laettner MIN 11/20/1992 MIN vs. WAS L 34 18 6 15 40.0 0 1 0.0 6 8 75.0 2 8 10 3 1 1 7 3 -
p783
aVLance Blanks MIN 11/20/1992 MIN vs. WAS L 6 2 0 1 0.0 0 1 0.0 2 2 100.0 0 0 0 3 1 0 0 0 -
p784
aVLance Blanks MIN 11/17/1992 MIN vs. CHI L 7 2 1 2 50.0 0 1 0.0 0 0 - 0 0 0 0 0 0 1 1 -
p785
aVBrad Sellers MIN 11/17/1992 MIN vs. CHI L 12 4 1 4 25.0 0 0 - 2 2 100.0 0 2 2 1 0 1 2 0 -
p786
aVGundars Vetra MIN 11/17/1992 MIN vs. CHI L 2 2 1 1 100.0 0 0 - 0 0 - 0 0 0 0 0 0 0 0 -
p787
aVBob McCann MIN 11/17/1992 MIN vs. CHI L 2 0 0 0 - 0 0 - 0 0 - 0 0 0 1 0 0 0 0 -
p788
aVChris Smith MIN 11/17/1992 MIN vs. CHI L 14 0 0 1 0.0 0 0 - 0 0 - 0 3 3 3 0 1 0 1 -
p789
aVChristian Laettner MIN 11/17/1992 MIN vs. CHI L 27 17 7 13 53.8 0 0 - 3 3 100.0 1 3 4 3 2 2 3 4 -
p790
aVChuck Person MIN 11/17/1992 MIN vs. CHI L 37 26 11 19 57.9 2 5 40.0 2 3 66.7 4 8 12 6 0 1 5 0 -
p791
aVThurl Bailey MIN 11/17/1992 MIN vs. CHI L 24 10 5 6 83.3 0 0 - 0 0 - 0 1 1 2 0 0 0 1 -
p792
aVDoug West MIN 11/17/1992 MIN vs. CHI L 38 11 5 14 35.7 0 0 - 1 2 50.0 1 2 3 4 0 0 3 5 -
p793
aVFelton Spencer MIN 11/17/1992 MIN vs. CHI L 16 4 2 5 40.0 0 0 - 0 0 - 2 1 3 0 1 1 2 3 -
p794
aVMicheal Williams MIN 11/17/1992 MIN vs. CHI L 34 13 5 11 45.5 0 1 0.0 3 3 100.0 2 4 6 11 4 0 2 2 -
p795
aVLuc Longley MIN 11/17/1992 MIN vs. CHI L 27 14 6 11 54.5 0 0 - 2 3 66.7 2 3 5 1 4 2 5 4 -
p796
aVFelton Spencer MIN 11/14/1992 MIN vs. PHX L 19 4 2 4 50.0 0 0 - 0 0 - 2 1 3 0 0 2 1 4 -
p797
aVThurl Bailey MIN 11/14/1992 MIN vs. PHX L 35 18 5 11 45.5 0 0 - 8 8 100.0 2 5 7 1 0 3 1 2 -
p798
aVGundars Vetra MIN 11/14/1992 MIN vs. PHX L 2 0 0 1 0.0 0 0 - 0 0 - 0 0 0 0 0 0 0 2 -
p799
aVChuck Person MIN 11/14/1992 MIN vs. PHX L 47 8 3 16 18.8 2 9 22.2 0 0 - 4 8 12 6 3 1 2 6 -
p800
aVDoug West MIN 11/14/1992 MIN vs. PHX L 46 23 7 14 50.0 0 0 - 9 10 90.0 1 2 3 2 1 0 3 2 -
p801
aVMicheal Williams MIN 11/14/1992 MIN vs. PHX L 38 15 4 14 28.6 0 1 0.0 7 8 87.5 0 7 7 8 2 2 1 2 -
p802
aVBob McCann MIN 11/14/1992 MIN vs. PHX L 4 6 3 3 100.0 0 0 - 0 3 0.0 2 1 3 0 0 0 0 1 -
p803
aVLuc Longley MIN 11/14/1992 MIN vs. PHX L 12 6 2 5 40.0 0 0 - 2 4 50.0 1 1 2 0 0 1 2 6 -
p804
aVChristian Laettner MIN 11/14/1992 MIN vs. PHX L 27 21 7 14 50.0 1 1 100.0 6 7 85.7 2 6 8 1 0 2 3 5 -
p805
aVChris Smith MIN 11/14/1992 MIN vs. PHX L 10 0 0 1 0.0 0 0 - 0 0 - 0 0 0 0 0 0 1 2 -
p806
aVLuc Longley MIN 11/12/1992 MIN @ NJN W 19 4 1 8 12.5 0 0 - 2 2 100.0 1 10 11 2 0 4 2 3 -
p807
aVFelton Spencer MIN 11/12/1992 MIN @ NJN W 28 8 3 8 37.5 0 0 - 2 3 66.7 5 3 8 0 0 2 3 5 -
p808
aVChuck Person MIN 11/12/1992 MIN @ NJN W 42 17 8 19 42.1 1 4 25.0 0 1 0.0 3 9 12 1 2 0 3 1 -
p809
aVChristian Laettner MIN 11/12/1992 MIN @ NJN W 30 10 4 7 57.1 0 0 - 2 2 100.0 3 5 8 1 2 2 3 3 -
p810
aVGerald Glass MIN 11/12/1992 MIN @ NJN W 13 1 0 3 0.0 0 0 - 1 2 50.0 0 0 0 1 1 0 0 2 -
p811
aVThurl Bailey MIN 11/12/1992 MIN @ NJN W 22 11 5 11 45.5 0 0 - 1 1 100.0 1 3 4 0 0 0 0 1 -
p812
aVDoug West MIN 11/12/1992 MIN @ NJN W 38 24 10 19 52.6 0 0 - 4 4 100.0 1 0 1 1 0 0 3 2 -
p813
aVMicheal Williams MIN 11/12/1992 MIN @ NJN W 35 11 4 17 23.5 0 1 0.0 3 3 100.0 1 4 5 14 4 0 2 2 -
p814
aVChris Smith MIN 11/12/1992 MIN @ NJN W 13 2 1 2 50.0 0 0 - 0 0 - 0 2 2 0 0 0 2 0 -
p815
aVMicheal Williams MIN 11/10/1992 MIN vs. DAL W 39 20 5 11 45.5 0 3 0.0 10 10 100.0 1 2 3 6 1 0 4 4 -
p816
aVChuck Person MIN 11/10/1992 MIN vs. DAL W 39 24 9 16 56.3 5 8 62.5 1 2 50.0 2 7 9 6 1 1 3 3 -
p817
aVChris Smith MIN 11/10/1992 MIN vs. DAL W 9 6 3 5 60.0 0 1 0.0 0 0 - 0 1 1 3 0 0 0 2 -
p818
aVDoug West MIN 11/10/1992 MIN vs. DAL W 34 23 9 17 52.9 0 0 - 5 5 100.0 4 5 9 2 1 0 1 3 -
p819
aVFelton Spencer MIN 11/10/1992 MIN vs. DAL W 20 5 0 2 0.0 0 0 - 5 6 83.3 3 2 5 0 0 1 2 4 -
p820
aVLuc Longley MIN 11/10/1992 MIN vs. DAL W 14 10 4 4 100.0 0 0 - 2 2 100.0 1 2 3 3 0 2 0 5 -
p821
aVChristian Laettner MIN 11/10/1992 MIN vs. DAL W 35 14 4 9 44.4 0 0 - 6 7 85.7 2 10 12 2 0 5 2 4 -
p822
aVThurl Bailey MIN 11/10/1992 MIN vs. DAL W 26 10 4 8 50.0 0 0 - 2 2 100.0 0 6 6 1 1 2 4 2 -
p823
aVGerald Glass MIN 11/10/1992 MIN vs. DAL W 18 6 2 9 22.2 0 2 0.0 2 2 100.0 1 1 2 6 1 0 1 1 -
p824
aVBob McCann MIN 11/10/1992 MIN vs. DAL W 1 0 0 0 - 0 0 - 0 0 - 0 0 0 0 0 1 0 0 -
p825
aVMark Randall MIN 11/10/1992 MIN vs. DAL W 5 0 0 1 0.0 0 1 0.0 0 0 - 0 0 0 1 0 0 1 1 -
p826
aVLuc Longley MIN 11/07/1992 MIN vs. GOS L 18 10 4 6 66.7 0 0 - 2 2 100.0 1 6 7 2 1 1 4 5 -
p827
aVDoug West MIN 11/07/1992 MIN vs. GOS L 45 21 9 18 50.0 0 0 - 3 4 75.0 3 2 5 4 1 2 3 5 -
p828
aVChristian Laettner MIN 11/07/1992 MIN vs. GOS L 35 26 11 17 64.7 0 0 - 4 4 100.0 7 7 14 4 1 1 2 5 -
p829
aVChris Smith MIN 11/07/1992 MIN vs. GOS L 10 3 1 1 100.0 0 0 - 1 1 100.0 0 0 0 2 0 0 0 0 -
p830
aVBob McCann MIN 11/07/1992 MIN vs. GOS L 1 0 0 0 - 0 0 - 0 0 - 0 0 0 0 0 0 0 0 -
p831
aVFelton Spencer MIN 11/07/1992 MIN vs. GOS L 16 4 1 3 33.3 0 0 - 2 2 100.0 4 1 5 0 1 1 0 4 -
p832
aVChuck Person MIN 11/07/1992 MIN vs. GOS L 46 23 11 23 47.8 1 7 14.3 0 1 0.0 2 7 9 2 1 0 7 5 -
p833
aVMicheal Williams MIN 11/07/1992 MIN vs. GOS L 43 19 4 8 50.0 1 2 50.0 10 10 100.0 2 4 6 13 4 2 4 6 -
p834
aVThurl Bailey MIN 11/07/1992 MIN vs. GOS L 34 10 5 12 41.7 0 0 - 0 0 - 0 3 3 2 0 1 1 3 -
p835
aVGerald Glass MIN 11/07/1992 MIN vs. GOS L 17 3 1 5 20.0 0 0 - 1 2 50.0 0 0 0 1 0 0 2 1 -
p836
aVDoug West MIN 11/06/1992 MIN @ BOS L 24 4 2 7 28.6 0 0 - 0 0 - 0 0 0 2 0 0 1 3 -
p837
aVChuck Person MIN 11/06/1992 MIN @ BOS L 42 24 9 18 50.0 1 5 20.0 5 9 55.6 2 3 5 7 0 0 4 3 -
p838
aVMicheal Williams MIN 11/06/1992 MIN @ BOS L 33 18 4 9 44.4 1 4 25.0 9 10 90.0 0 3 3 3 2 0 6 3 -
p839
aVThurl Bailey MIN 11/06/1992 MIN @ BOS L 26 10 4 8 50.0 0 0 - 2 2 100.0 1 7 8 0 0 0 3 1 -
p840
aVChristian Laettner MIN 11/06/1992 MIN @ BOS L 30 8 4 11 36.4 0 0 - 0 0 - 2 5 7 1 2 0 2 2 -
p841
aVMark Randall MIN 11/06/1992 MIN @ BOS L 3 0 0 0 - 0 0 - 0 0 - 0 0 0 0 0 0 0 0 -
p842
aVGerald Glass MIN 11/06/1992 MIN @ BOS L 23 10 5 10 50.0 0 0 - 0 0 - 0 1 1 1 1 0 2 2 -
p843
aVFelton Spencer MIN 11/06/1992 MIN @ BOS L 14 10 4 5 80.0 0 0 - 2 3 66.7 3 2 5 0 0 2 0 3 -
p844
aVChris Smith MIN 11/06/1992 MIN @ BOS L 15 4 0 5 0.0 0 2 0.0 4 4 100.0 1 1 2 2 2 0 0 2 -
p845
aVLuc Longley MIN 11/06/1992 MIN @ BOS L 26 4 1 4 25.0 0 0 - 2 2 100.0 4 3 7 3 2 3 2 5 -
p846
aVGundars Vetra MIN 11/06/1992 MIN @ BOS L 1 0 0 0 - 0 0 - 0 0 - 0 1 1 1 0 0 1 0 -
p847
aVBob McCann MIN 11/06/1992 MIN @ BOS L 3 0 0 0 - 0 0 - 0 0 - 0 0 0 0 0 0 0 1 -
p848
a.