(lp0
VPLAYER TEAM DATE MATCHUP W/L MIN PTS FGM FGA FG% 3PM 3PA 3P% FTM FTA FT% OREB DREB REB AST STL BLK TOV PF +/-
p1
aVRod Strickland POR 05/07/1993 POR @ SAN L 45 12 5 13 38.5 0 1 0.0 2 2 100.0 1 5 6 10 1 0 3 2 -
p2
aVTerry Porter POR 05/07/1993 POR @ SAN L 41 12 5 15 33.3 0 2 0.0 2 2 100.0 1 4 5 2 1 0 0 1 -
p3
aVJoe Wolf POR 05/07/1993 POR @ SAN L 6 2 1 1 100.0 0 0 - 0 0 - 1 1 2 0 0 1 0 1 -
p4
aVMario Elie POR 05/07/1993 POR @ SAN L 5 2 0 1 0.0 0 0 - 2 2 100.0 0 1 1 1 0 0 0 0 -
p5
aVMark Bryant POR 05/07/1993 POR @ SAN L 35 21 8 16 50.0 0 0 - 5 5 100.0 4 2 6 0 0 3 2 3 -
p6
aVBuck Williams POR 05/07/1993 POR @ SAN L 20 2 1 5 20.0 0 0 - 0 0 - 3 4 7 0 1 0 4 6 -
p7
aVKevin Duckworth POR 05/07/1993 POR @ SAN L 13 0 0 3 0.0 0 0 - 0 0 - 0 0 0 0 0 0 2 4 -
p8
aVClifford Robinson POR 05/07/1993 POR @ SAN L 31 14 6 16 37.5 0 1 0.0 2 6 33.3 5 1 6 1 2 0 3 4 -
p9
aVJerome Kersey POR 05/07/1993 POR @ SAN L 23 15 7 12 58.3 0 0 - 1 1 100.0 4 10 14 0 1 1 2 4 -
p10
aVClyde Drexler POR 05/07/1993 POR @ SAN L 46 17 5 16 31.3 1 4 25.0 6 9 66.7 4 5 9 4 2 2 2 3 -
p11
aVJoe Wolf POR 05/05/1993 POR @ SAN L 14 0 0 1 0.0 0 0 - 0 0 - 1 1 2 0 0 0 0 0 -
p12
aVBuck Williams POR 05/05/1993 POR @ SAN L 24 12 5 5 100.0 0 0 - 2 2 100.0 4 3 7 0 0 0 0 3 -
p13
aVMark Bryant POR 05/05/1993 POR @ SAN L 15 6 3 7 42.9 0 0 - 0 0 - 1 4 5 0 0 0 0 4 -
p14
aVMario Elie POR 05/05/1993 POR @ SAN L 12 4 1 1 100.0 1 1 100.0 1 2 50.0 0 1 1 1 0 0 2 0 -
p15
aVJerome Kersey POR 05/05/1993 POR @ SAN L 24 8 3 9 33.3 0 0 - 2 2 100.0 2 4 6 2 1 0 0 3 -
p16
aVClyde Drexler POR 05/05/1993 POR @ SAN L 37 19 8 19 42.1 2 3 66.7 1 1 100.0 3 2 5 5 0 1 0 4 -
p17
aVRod Strickland POR 05/05/1993 POR @ SAN L 36 16 6 13 46.2 0 0 - 4 5 80.0 2 2 4 9 0 1 1 4 -
p18
aVTerry Porter POR 05/05/1993 POR @ SAN L 36 16 7 18 38.9 0 5 0.0 2 3 66.7 1 5 6 2 1 0 2 3 -
p19
aVClifford Robinson POR 05/05/1993 POR @ SAN L 32 14 7 18 38.9 0 0 - 0 0 - 2 3 5 1 1 0 2 4 -
p20
aVKevin Duckworth POR 05/05/1993 POR @ SAN L 10 6 2 5 40.0 0 0 - 2 2 100.0 1 1 2 0 0 0 1 2 -
p21
aVMark Bryant POR 05/01/1993 POR vs. SAN W 15 8 4 8 50.0 0 0 - 0 0 - 3 1 4 0 0 0 2 4 -
p22
aVClifford Robinson POR 05/01/1993 POR vs. SAN W 34 8 2 12 16.7 0 0 - 4 6 66.7 3 1 4 2 1 6 1 3 -
p23
aVClyde Drexler POR 05/01/1993 POR vs. SAN W 33 21 5 8 62.5 2 5 40.0 9 10 90.0 1 4 5 5 3 0 1 2 -
p24
aVMario Elie POR 05/01/1993 POR vs. SAN W 18 14 4 5 80.0 1 1 100.0 5 5 100.0 0 1 1 1 0 1 2 0 -
p25
aVJerome Kersey POR 05/01/1993 POR vs. SAN W 18 10 3 8 37.5 1 1 100.0 3 3 100.0 0 5 5 0 1 1 0 4 -
p26
aVBuck Williams POR 05/01/1993 POR vs. SAN W 37 9 2 7 28.6 0 0 - 5 7 71.4 3 4 7 1 0 1 0 3 -
p27
aVTerry Porter POR 05/01/1993 POR vs. SAN W 36 20 9 19 47.4 1 6 16.7 1 2 50.0 1 3 4 2 1 0 2 4 -
p28
aVRod Strickland POR 05/01/1993 POR vs. SAN W 35 11 4 11 36.4 0 0 - 3 4 75.0 2 6 8 9 1 1 3 2 -
p29
aVKevin Duckworth POR 05/01/1993 POR vs. SAN W 14 4 2 6 33.3 0 0 - 0 0 - 2 4 6 3 0 0 1 5 -
p30
aVMark Bryant POR 04/29/1993 POR vs. SAN L 18 4 2 6 33.3 0 0 - 0 0 - 2 1 3 0 0 0 2 3 -
p31
aVJerome Kersey POR 04/29/1993 POR vs. SAN L 33 24 9 13 69.2 0 0 - 6 11 54.5 4 5 9 2 1 0 0 4 -
p32
aVKevin Duckworth POR 04/29/1993 POR vs. SAN L 21 8 3 7 42.9 0 0 - 2 2 100.0 1 4 5 0 0 1 2 1 -
p33
aVBuck Williams POR 04/29/1993 POR vs. SAN L 38 12 3 6 50.0 0 0 - 6 10 60.0 2 6 8 0 0 2 2 0 -
p34
aVTerry Porter POR 04/29/1993 POR vs. SAN L 39 18 6 16 37.5 2 6 33.3 4 4 100.0 1 4 5 2 1 0 2 2 -
p35
aVMario Elie POR 04/29/1993 POR vs. SAN L 17 0 0 3 0.0 0 0 - 0 0 - 2 1 3 1 2 0 1 1 -
p36
aVRod Strickland POR 04/29/1993 POR vs. SAN L 40 15 7 15 46.7 0 0 - 1 1 100.0 4 4 8 9 3 0 0 2 -
p37
aVClifford Robinson POR 04/29/1993 POR vs. SAN L 34 5 1 15 6.7 0 0 - 3 10 30.0 0 2 2 2 2 1 2 6 -
p38
a.