(lp0
VPLAYER TEAM DATE MATCHUP W/L MIN PTS FGM FGA FG% 3PM 3PA 3P% FTM FTA FT% OREB DREB REB AST STL BLK TOV PF +/-
p1
aVVernon Maxwell HOU 05/22/1993 HOU @ SEA L 46 19 7 15 46.7 2 7 28.6 3 4 75.0 0 2 2 6 0 0 1 1 -
p2
aVHakeem Olajuwon HOU 05/22/1993 HOU @ SEA L 50 23 7 15 46.7 0 1 0.0 9 10 90.0 3 14 17 9 2 3 3 4 -
p3
aVScott Brooks HOU 05/22/1993 HOU @ SEA L 12 2 1 2 50.0 0 0 - 0 0 - 0 0 0 0 0 0 0 0 -
p4
aVKenny Smith HOU 05/22/1993 HOU @ SEA L 41 18 4 11 36.4 2 5 40.0 8 8 100.0 0 1 1 3 0 0 2 2 -
p5
aVCarl Herrera HOU 05/22/1993 HOU @ SEA L 18 3 1 5 20.0 0 0 - 1 4 25.0 1 0 1 1 1 0 1 3 -
p6
aVTree Rollins HOU 05/22/1993 HOU @ SEA L 1 0 0 0 - 0 0 - 0 0 - 0 0 0 0 0 0 0 1 -
p7
aVRobert Horry HOU 05/22/1993 HOU @ SEA L 42 18 7 14 50.0 1 3 33.3 3 4 75.0 0 4 4 1 3 0 1 4 -
p8
aVMatt Bullard HOU 05/22/1993 HOU @ SEA L 12 5 2 5 40.0 1 2 50.0 0 0 - 1 3 4 0 0 0 0 1 -
p9
aVOtis Thorpe HOU 05/22/1993 HOU @ SEA L 36 10 5 7 71.4 0 0 - 0 4 0.0 3 4 7 1 1 0 0 5 -
p10
aVWinston Garland HOU 05/22/1993 HOU @ SEA L 7 2 0 1 0.0 0 0 - 2 2 100.0 1 1 2 1 1 0 1 1 -
p11
aVRobert Horry HOU 05/20/1993 HOU vs. SEA W 38 15 7 9 77.8 0 1 0.0 1 1 100.0 1 5 6 7 3 0 3 2 -
p12
aVCarl Herrera HOU 05/20/1993 HOU vs. SEA W 15 0 0 7 0.0 0 1 0.0 0 0 - 3 0 3 0 0 0 0 2 -
p13
aVVernon Maxwell HOU 05/20/1993 HOU vs. SEA W 33 15 6 10 60.0 3 5 60.0 0 0 - 0 4 4 6 2 0 4 3 -
p14
aVMatt Bullard HOU 05/20/1993 HOU vs. SEA W 8 0 0 3 0.0 0 2 0.0 0 0 - 0 0 0 1 0 0 1 0 -
p15
aVSleepy Floyd HOU 05/20/1993 HOU vs. SEA W 1 0 0 0 - 0 0 - 0 0 - 0 0 0 0 0 0 1 0 -
p16
aVWinston Garland HOU 05/20/1993 HOU vs. SEA W 15 4 2 6 33.3 0 0 - 0 0 - 0 1 1 1 1 0 1 1 -
p17
aVTree Rollins HOU 05/20/1993 HOU vs. SEA W 4 0 0 1 0.0 0 0 - 0 0 - 1 0 1 0 0 0 0 1 -
p18
aVTerry Teagle HOU 05/20/1993 HOU vs. SEA W 1 2 1 2 50.0 0 0 - 0 0 - 0 0 0 0 0 0 1 0 -
p19
aVKenny Smith HOU 05/20/1993 HOU vs. SEA W 38 30 13 16 81.3 4 6 66.7 0 0 - 0 0 0 5 1 0 0 1 -
p20
aVScott Brooks HOU 05/20/1993 HOU vs. SEA W 11 5 1 3 33.3 1 2 50.0 2 2 100.0 0 0 0 0 2 0 1 0 -
p21
aVOtis Thorpe HOU 05/20/1993 HOU vs. SEA W 37 18 6 8 75.0 0 0 - 6 7 85.7 3 7 10 6 0 0 2 2 -
p22
aVHakeem Olajuwon HOU 05/20/1993 HOU vs. SEA W 39 14 7 13 53.8 0 0 - 0 0 - 0 10 10 4 3 5 6 4 -
p23
aVKenny Smith HOU 05/18/1993 HOU @ SEA L 27 12 2 7 28.6 2 3 66.7 6 8 75.0 0 1 1 1 3 0 3 0 -
p24
aVRobert Horry HOU 05/18/1993 HOU @ SEA L 30 4 2 5 40.0 0 0 - 0 0 - 2 2 4 4 1 0 6 1 -
p25
aVHakeem Olajuwon HOU 05/18/1993 HOU @ SEA L 40 25 9 16 56.3 0 0 - 7 8 87.5 3 11 14 5 2 0 5 4 -
p26
aVScott Brooks HOU 05/18/1993 HOU @ SEA L 11 7 3 4 75.0 1 1 100.0 0 0 - 0 0 0 2 0 0 1 2 -
p27
aVMatt Bullard HOU 05/18/1993 HOU @ SEA L 18 3 1 2 50.0 1 1 100.0 0 0 - 0 1 1 2 0 0 0 1 -
p28
aVSleepy Floyd HOU 05/18/1993 HOU @ SEA L 2 2 0 3 0.0 0 0 - 2 2 100.0 1 0 1 0 0 0 0 0 -
p29
aVTree Rollins HOU 05/18/1993 HOU @ SEA L 3 0 0 1 0.0 0 1 0.0 0 0 - 0 1 1 0 0 0 0 0 -
p30
aVWinston Garland HOU 05/18/1993 HOU @ SEA L 16 8 3 6 50.0 0 0 - 2 2 100.0 0 1 1 3 0 0 2 3 -
p31
aVVernon Maxwell HOU 05/18/1993 HOU @ SEA L 40 6 2 13 15.4 0 5 0.0 2 2 100.0 0 2 2 2 0 0 2 2 -
p32
aVOtis Thorpe HOU 05/18/1993 HOU @ SEA L 32 16 7 13 53.8 0 0 - 2 6 33.3 7 4 11 3 1 0 1 3 -
p33
aVCarl Herrera HOU 05/18/1993 HOU @ SEA L 21 12 3 5 60.0 0 0 - 6 6 100.0 1 3 4 1 0 1 1 4 -
p34
aVCarl Herrera HOU 05/16/1993 HOU vs. SEA W 14 8 4 5 80.0 0 0 - 0 0 - 3 1 4 0 0 0 0 1 -
p35
aVOtis Thorpe HOU 05/16/1993 HOU vs. SEA W 35 16 8 11 72.7 0 0 - 0 0 - 4 4 8 6 1 0 3 0 -
p36
aVWinston Garland HOU 05/16/1993 HOU vs. SEA W 11 4 1 2 50.0 0 0 - 2 2 100.0 0 2 2 1 0 0 1 2 -
p37
aVScott Brooks HOU 05/16/1993 HOU vs. SEA W 21 5 2 4 50.0 1 1 100.0 0 1 0.0 0 2 2 7 0 0 3 4 -
p38
aVRobert Horry HOU 05/16/1993 HOU vs. SEA W 34 19 6 10 60.0 2 4 50.0 5 6 83.3 0 4 4 5 1 2 3 3 -
p39
aVKenny Smith HOU 05/16/1993 HOU vs. SEA W 27 3 1 6 16.7 1 5 20.0 0 0 - 0 2 2 4 0 0 5 2 -
p40
aVHakeem Olajuwon HOU 05/16/1993 HOU vs. SEA W 46 24 12 21 57.1 0 0 - 0 0 - 2 10 12 5 3 8 3 3 -
p41
aVVernon Maxwell HOU 05/16/1993 HOU vs. SEA W 37 18 8 14 57.1 2 5 40.0 0 1 0.0 0 1 1 1 2 0 0 3 -
p42
aVMatt Bullard HOU 05/16/1993 HOU vs. SEA W 15 6 2 2 100.0 2 2 100.0 0 0 - 0 1 1 1 0 0 0 0 -
p43
aVMatt Bullard HOU 05/15/1993 HOU vs. SEA W 14 6 2 4 50.0 2 4 50.0 0 0 - 0 1 1 4 1 1 1 0 -
p44
aVTree Rollins HOU 05/15/1993 HOU vs. SEA W 4 0 0 1 0.0 0 0 - 0 0 - 0 1 1 0 1 0 0 0 -
p45
aVWinston Garland HOU 05/15/1993 HOU vs. SEA W 17 6 3 4 75.0 0 0 - 0 0 - 1 1 2 2 1 0 0 2 -
p46
aVVernon Maxwell HOU 05/15/1993 HOU vs. SEA W 32 9 3 11 27.3 0 4 0.0 3 3 100.0 0 1 1 5 2 2 2 0 -
p47
aVCarl Herrera HOU 05/15/1993 HOU vs. SEA W 18 2 1 4 25.0 0 0 - 0 0 - 0 4 4 0 0 0 5 6 -
p48
aVSleepy Floyd HOU 05/15/1993 HOU vs. SEA W 6 0 0 0 - 0 0 - 0 0 - 0 1 1 1 0 0 1 0 -
p49
aVHakeem Olajuwon HOU 05/15/1993 HOU vs. SEA W 36 22 11 18 61.1 0 0 - 0 0 - 3 7 10 3 2 4 3 1 -
p50
aVTerry Teagle HOU 05/15/1993 HOU vs. SEA W 3 2 1 2 50.0 0 0 - 0 0 - 0 0 0 0 0 0 2 1 -
p51
aVOtis Thorpe HOU 05/15/1993 HOU vs. SEA W 36 28 12 14 85.7 0 0 - 4 8 50.0 5 9 14 4 1 0 1 4 -
p52
aVKenny Smith HOU 05/15/1993 HOU vs. SEA W 24 11 2 7 28.6 1 1 100.0 6 6 100.0 0 2 2 6 1 0 1 3 -
p53
aVRobert Horry HOU 05/15/1993 HOU vs. SEA W 29 11 4 7 57.1 1 1 100.0 2 4 50.0 3 3 6 1 1 1 3 2 -
p54
aVScott Brooks HOU 05/15/1993 HOU vs. SEA W 21 0 0 2 0.0 0 1 0.0 0 0 - 1 1 2 5 2 0 0 2 -
p55
aVVernon Maxwell HOU 05/12/1993 HOU @ SEA L 43 25 10 19 52.6 1 4 25.0 4 4 100.0 2 4 6 9 2 0 2 3 -
p56
aVScott Brooks HOU 05/12/1993 HOU @ SEA L 7 2 0 0 - 0 0 - 2 2 100.0 0 0 0 0 0 0 0 0 -
p57
aVHakeem Olajuwon HOU 05/12/1993 HOU @ SEA L 44 28 13 24 54.2 0 0 - 2 3 66.7 7 6 13 3 0 5 3 4 -
p58
aVKenny Smith HOU 05/12/1993 HOU @ SEA L 34 19 7 13 53.8 3 6 50.0 2 4 50.0 0 5 5 5 1 0 2 1 -
p59
aVRobert Horry HOU 05/12/1993 HOU @ SEA L 31 13 6 12 50.0 1 2 50.0 0 0 - 3 5 8 3 0 2 3 6 -
p60
aVCarl Herrera HOU 05/12/1993 HOU @ SEA L 11 0 0 5 0.0 0 0 - 0 0 - 0 3 3 1 0 0 0 1 -
p61
aVOtis Thorpe HOU 05/12/1993 HOU @ SEA L 37 4 1 6 16.7 0 0 - 2 2 100.0 0 5 5 4 1 0 1 2 -
p62
aVWinston Garland HOU 05/12/1993 HOU @ SEA L 13 4 1 3 33.3 0 1 0.0 2 2 100.0 0 3 3 0 1 0 2 2 -
p63
aVMatt Bullard HOU 05/12/1993 HOU @ SEA L 20 5 2 4 50.0 1 2 50.0 0 0 - 0 5 5 0 0 1 2 2 -
p64
aVScott Brooks HOU 05/10/1993 HOU @ SEA L 9 2 1 3 33.3 0 0 - 0 0 - 0 0 0 0 0 0 1 2 -
p65
aVHakeem Olajuwon HOU 05/10/1993 HOU @ SEA L 45 26 8 22 36.4 0 0 - 10 11 90.9 8 8 16 4 0 5 6 2 -
p66
aVKenny Smith HOU 05/10/1993 HOU @ SEA L 39 12 5 10 50.0 2 4 50.0 0 0 - 0 1 1 5 3 1 3 1 -
p67
aVMatt Bullard HOU 05/10/1993 HOU @ SEA L 14 2 0 1 0.0 0 0 - 2 2 100.0 1 0 1 0 0 0 0 0 -
p68
aVVernon Maxwell HOU 05/10/1993 HOU @ SEA L 39 18 6 17 35.3 1 7 14.3 5 5 100.0 1 2 3 2 2 0 2 3 -
p69
aVRobert Horry HOU 05/10/1993 HOU @ SEA L 30 11 3 8 37.5 0 2 0.0 5 6 83.3 1 3 4 5 1 1 0 5 -
p70
aVOtis Thorpe HOU 05/10/1993 HOU @ SEA L 36 11 5 8 62.5 0 0 - 1 1 100.0 3 5 8 0 1 0 0 4 -
p71
aVCarl Herrera HOU 05/10/1993 HOU @ SEA L 14 4 2 5 40.0 0 0 - 0 0 - 2 4 6 0 0 0 1 1 -
p72
aVWinston Garland HOU 05/10/1993 HOU @ SEA L 14 4 1 5 20.0 0 0 - 2 2 100.0 1 0 1 0 1 0 1 1 -
p73
aVCarl Herrera HOU 05/08/1993 HOU vs. LAC W 9 1 0 0 - 0 0 - 1 2 50.0 0 2 2 0 0 0 0 3 -
p74
aVHakeem Olajuwon HOU 05/08/1993 HOU vs. LAC W 46 31 14 27 51.9 0 0 - 3 3 100.0 9 12 21 3 3 7 3 2 -
p75
aVOtis Thorpe HOU 05/08/1993 HOU vs. LAC W 41 12 5 13 38.5 0 0 - 2 2 100.0 5 12 17 2 0 0 3 2 -
p76
aVKenny Smith HOU 05/08/1993 HOU vs. LAC W 43 19 8 15 53.3 3 6 50.0 0 0 - 1 3 4 6 0 0 7 1 -
p77
aVScott Brooks HOU 05/08/1993 HOU vs. LAC W 16 0 0 3 0.0 0 1 0.0 0 0 - 0 0 0 2 1 0 3 0 -
p78
aVMatt Bullard HOU 05/08/1993 HOU vs. LAC W 11 6 2 3 66.7 2 2 100.0 0 0 - 1 0 1 1 1 1 2 0 -
p79
aVRobert Horry HOU 05/08/1993 HOU vs. LAC W 26 2 0 5 0.0 0 2 0.0 2 2 100.0 3 3 6 2 2 2 1 0 -
p80
aVWinston Garland HOU 05/08/1993 HOU vs. LAC W 16 0 0 5 0.0 0 0 - 0 0 - 0 2 2 4 4 0 0 2 -
p81
aVVernon Maxwell HOU 05/08/1993 HOU vs. LAC W 32 13 4 15 26.7 2 8 25.0 3 4 75.0 0 2 2 1 1 0 4 2 -
p82
aVWinston Garland HOU 05/05/1993 HOU @ LAC L 37 12 6 13 46.2 0 0 - 0 0 - 1 2 3 1 2 0 6 1 -
p83
aVVernon Maxwell HOU 05/05/1993 HOU @ LAC L 6 3 1 3 33.3 0 1 0.0 1 1 100.0 0 1 1 0 0 0 0 0 -
p84
aVHakeem Olajuwon HOU 05/05/1993 HOU @ LAC L 45 25 10 23 43.5 0 0 - 5 8 62.5 5 13 18 9 0 5 4 5 -
p85
aVCarl Herrera HOU 05/05/1993 HOU @ LAC L 14 4 2 2 100.0 0 0 - 0 0 - 0 1 1 0 0 0 0 3 -
p86
aVSleepy Floyd HOU 05/05/1993 HOU @ LAC L 8 2 1 1 100.0 0 0 - 0 2 0.0 0 0 0 0 1 0 1 0 -
p87
aVKenny Smith HOU 05/05/1993 HOU @ LAC L 27 10 5 12 41.7 0 0 - 0 0 - 1 2 3 2 0 0 1 2 -
p88
aVMatt Bullard HOU 05/05/1993 HOU @ LAC L 14 9 3 3 100.0 3 3 100.0 0 0 - 0 1 1 1 0 0 0 1 -
p89
aVScott Brooks HOU 05/05/1993 HOU @ LAC L 22 7 3 8 37.5 1 3 33.3 0 0 - 0 1 1 4 0 0 1 3 -
p90
aVRobert Horry HOU 05/05/1993 HOU @ LAC L 31 4 2 6 33.3 0 3 0.0 0 0 - 0 5 5 1 1 4 2 3 -
p91
aVOtis Thorpe HOU 05/05/1993 HOU @ LAC L 36 14 6 12 50.0 0 0 - 2 3 66.7 3 5 8 2 0 0 0 2 -
p92
aVKenny Smith HOU 05/03/1993 HOU @ LAC W 35 13 5 11 45.5 2 5 40.0 1 3 33.3 0 4 4 7 0 0 2 2 -
p93
aVMatt Bullard HOU 05/03/1993 HOU @ LAC W 8 2 1 2 50.0 0 1 0.0 0 0 - 0 3 3 0 0 0 1 0 -
p94
aVWinston Garland HOU 05/03/1993 HOU @ LAC W 34 14 5 8 62.5 0 0 - 4 4 100.0 1 5 6 5 2 0 2 6 -
p95
aVTerry Teagle HOU 05/03/1993 HOU @ LAC W 1 0 0 0 - 0 0 - 0 0 - 0 0 0 0 0 0 0 0 -
p96
aVScott Brooks HOU 05/03/1993 HOU @ LAC W 19 6 2 3 66.7 0 0 - 2 2 100.0 0 1 1 5 2 0 1 2 -
p97
aVRobert Horry HOU 05/03/1993 HOU @ LAC W 40 13 5 12 41.7 2 6 33.3 1 2 50.0 0 3 3 5 5 1 3 3 -
p98
aVHakeem Olajuwon HOU 05/03/1993 HOU @ LAC W 41 32 14 20 70.0 0 0 - 4 7 57.1 6 6 12 2 0 4 3 2 -
p99
aVSleepy Floyd HOU 05/03/1993 HOU @ LAC W 11 0 0 5 0.0 0 1 0.0 0 0 - 0 0 0 3 0 0 2 1 -
p100
aVOtis Thorpe HOU 05/03/1993 HOU @ LAC W 34 22 8 11 72.7 0 0 - 6 6 100.0 2 7 9 0 0 0 2 2 -
p101
aVCarl Herrera HOU 05/03/1993 HOU @ LAC W 17 9 4 10 40.0 0 1 0.0 1 2 50.0 2 2 4 0 0 0 0 5 -
p102
aVWinston Garland HOU 05/01/1993 HOU vs. LAC L 33 7 3 12 25.0 0 0 - 1 1 100.0 1 4 5 4 2 0 3 4 -
p103
aVTerry Teagle HOU 05/01/1993 HOU vs. LAC L 1 0 0 1 0.0 0 0 - 0 0 - 0 0 0 0 0 0 0 0 -
p104
aVTree Rollins HOU 05/01/1993 HOU vs. LAC L 1 0 0 0 - 0 0 - 0 0 - 0 0 0 0 0 0 0 0 -
p105
aVRobert Horry HOU 05/01/1993 HOU vs. LAC L 15 1 0 5 0.0 0 2 0.0 1 2 50.0 1 5 6 1 0 0 2 1 -
p106
aVCarl Herrera HOU 05/01/1993 HOU vs. LAC L 21 9 3 3 100.0 0 0 - 3 6 50.0 3 3 6 2 1 0 1 5 -
p107
aVScott Brooks HOU 05/01/1993 HOU vs. LAC L 27 2 0 5 0.0 0 3 0.0 2 2 100.0 0 2 2 4 1 0 0 3 -
p108
aVHakeem Olajuwon HOU 05/01/1993 HOU vs. LAC L 46 30 6 19 31.6 0 0 - 18 20 90.0 6 8 14 4 2 4 3 3 -
p109
aVMatt Bullard HOU 05/01/1993 HOU vs. LAC L 21 12 3 9 33.3 2 6 33.3 4 4 100.0 1 2 3 0 1 1 2 3 -
p110
aVKenny Smith HOU 05/01/1993 HOU vs. LAC L 29 11 4 11 36.4 1 3 33.3 2 3 66.7 0 0 0 0 0 0 0 1 -
p111
aVOtis Thorpe HOU 05/01/1993 HOU vs. LAC L 29 5 2 3 66.7 0 0 - 1 1 100.0 0 3 3 2 0 1 2 4 -
p112
aVSleepy Floyd HOU 05/01/1993 HOU vs. LAC L 17 6 2 5 40.0 1 2 50.0 1 2 50.0 0 0 0 1 0 0 1 1 -
p113
aVCarl Herrera HOU 04/29/1993 HOU vs. LAC W 23 4 2 6 33.3 0 0 - 0 0 - 1 6 7 2 1 1 2 2 -
p114
aVWinston Garland HOU 04/29/1993 HOU vs. LAC W 33 12 5 9 55.6 0 0 - 2 2 100.0 0 5 5 9 1 0 3 2 -
p115
aVKenny Smith HOU 04/29/1993 HOU vs. LAC W 27 19 7 9 77.8 2 2 100.0 3 4 75.0 0 1 1 6 0 0 0 2 -
p116
aVOtis Thorpe HOU 04/29/1993 HOU vs. LAC W 30 18 8 9 88.9 0 0 - 2 3 66.7 1 2 3 1 0 0 2 5 -
p117
aVSleepy Floyd HOU 04/29/1993 HOU vs. LAC W 15 10 3 5 60.0 0 0 - 4 4 100.0 0 2 2 3 1 0 3 0 -
p118
aVTerry Teagle HOU 04/29/1993 HOU vs. LAC W 6 0 0 0 - 0 0 - 0 2 0.0 0 0 0 0 0 0 0 0 -
p119
aVHakeem Olajuwon HOU 04/29/1993 HOU vs. LAC W 40 28 12 20 60.0 0 0 - 4 5 80.0 0 11 11 6 4 9 3 3 -
p120
aVMatt Bullard HOU 04/29/1993 HOU vs. LAC W 14 5 2 4 50.0 1 3 33.3 0 0 - 0 2 2 3 1 1 0 3 -
p121
aVRobert Horry HOU 04/29/1993 HOU vs. LAC W 28 12 5 8 62.5 2 4 50.0 0 0 - 0 6 6 3 0 3 1 0 -
p122
aVTree Rollins HOU 04/29/1993 HOU vs. LAC W 3 0 0 0 - 0 0 - 0 0 - 0 1 1 0 1 0 0 0 -
p123
aVScott Brooks HOU 04/29/1993 HOU vs. LAC W 21 9 3 5 60.0 1 1 100.0 2 4 50.0 0 2 2 2 1 0 2 3 -
p124
a.