(lp0
VPLAYER TEAM DATE MATCHUP W/L MIN PTS FGM FGA FG% 3PM 3PA 3P% FTM FTA FT% OREB DREB REB AST STL BLK TOV PF +/-
p1
aVGeorge McCloud IND 05/06/1993 IND vs. NYK L 14 4 2 5 40.0 0 3 0.0 0 0 - 0 2 2 1 0 0 1 1 -
p2
aVSam Mitchell IND 05/06/1993 IND vs. NYK L 11 6 2 3 66.7 0 0 - 2 2 100.0 0 0 0 0 0 0 2 3 -
p3
aVGreg Dreiling IND 05/06/1993 IND vs. NYK L 2 0 0 0 - 0 0 - 0 0 - 0 0 0 0 0 0 0 0 -
p4
aVLaSalle Thompson IND 05/06/1993 IND vs. NYK L 25 4 1 3 33.3 0 0 - 2 2 100.0 1 2 3 1 1 1 1 4 -
p5
aVRik Smits IND 05/06/1993 IND vs. NYK L 41 21 9 19 47.4 0 0 - 3 4 75.0 6 6 12 2 4 2 2 5 -
p6
aVDale Davis IND 05/06/1993 IND vs. NYK L 33 0 0 3 0.0 0 0 - 0 2 0.0 2 10 12 3 1 4 0 3 -
p7
aVPooh Richardson IND 05/06/1993 IND vs. NYK L 41 7 2 7 28.6 1 1 100.0 2 2 100.0 0 4 4 8 1 0 4 6 -
p8
aVReggie Miller IND 05/06/1993 IND vs. NYK L 51 33 12 20 60.0 4 6 66.7 5 5 100.0 0 2 2 1 3 0 2 2 -
p9
aVDetlef Schrempf IND 05/06/1993 IND vs. NYK L 47 25 6 16 37.5 0 0 - 13 18 72.2 2 5 7 9 1 2 6 3 -
p10
aVDetlef Schrempf IND 05/04/1993 IND vs. NYK W 39 29 10 15 66.7 0 0 - 9 10 90.0 0 7 7 8 0 0 3 2 -
p11
aVLaSalle Thompson IND 05/04/1993 IND vs. NYK W 19 0 0 1 0.0 0 0 - 0 0 - 0 4 4 2 1 1 1 3 -
p12
aVGreg Dreiling IND 05/04/1993 IND vs. NYK W 2 3 1 1 100.0 1 1 100.0 0 0 - 0 1 1 0 0 0 0 1 -
p13
aVMalik Sealy IND 05/04/1993 IND vs. NYK W 7 0 0 0 - 0 0 - 0 0 - 1 0 1 0 0 0 1 0 -
p14
aVKenny Williams IND 05/04/1993 IND vs. NYK W 9 2 1 1 100.0 0 0 - 0 2 0.0 0 0 0 2 0 1 1 1 -
p15
aVSam Mitchell IND 05/04/1993 IND vs. NYK W 2 2 1 2 50.0 0 0 - 0 0 - 0 1 1 0 0 0 0 0 -
p16
aVDale Davis IND 05/04/1993 IND vs. NYK W 26 4 2 2 100.0 0 0 - 0 0 - 0 6 6 0 1 0 2 3 -
p17
aVReggie Miller IND 05/04/1993 IND vs. NYK W 40 36 14 22 63.6 2 3 66.7 6 6 100.0 1 2 3 2 0 0 4 3 -
p18
aVGeorge McCloud IND 05/04/1993 IND vs. NYK W 14 5 2 5 40.0 1 3 33.3 0 0 - 1 3 4 2 2 1 2 3 -
p19
aVPooh Richardson IND 05/04/1993 IND vs. NYK W 32 6 2 3 66.7 0 0 - 2 4 50.0 0 3 3 9 1 0 0 1 -
p20
aVVern Fleming IND 05/04/1993 IND vs. NYK W 11 4 2 7 28.6 0 1 0.0 0 0 - 1 0 1 0 0 0 2 1 -
p21
aVRik Smits IND 05/04/1993 IND vs. NYK W 39 25 9 14 64.3 0 0 - 7 8 87.5 3 5 8 2 0 2 1 3 -
p22
aVSam Mitchell IND 05/02/1993 IND @ NYK L 2 2 1 1 100.0 0 0 - 0 0 - 0 0 0 0 0 0 0 0 -
p23
aVRik Smits IND 05/02/1993 IND @ NYK L 37 29 12 21 57.1 0 1 0.0 5 8 62.5 2 6 8 1 1 0 3 4 -
p24
aVPooh Richardson IND 05/02/1993 IND @ NYK L 13 0 0 2 0.0 0 0 - 0 0 - 0 3 3 4 0 0 1 0 -
p25
aVDale Davis IND 05/02/1993 IND @ NYK L 33 9 4 4 100.0 0 0 - 1 2 50.0 2 7 9 1 2 0 0 5 -
p26
aVDetlef Schrempf IND 05/02/1993 IND @ NYK L 41 14 6 13 46.2 0 0 - 2 3 66.7 0 4 4 7 0 0 5 4 -
p27
aVKenny Williams IND 05/02/1993 IND @ NYK L 2 0 0 0 - 0 0 - 0 0 - 0 0 0 0 0 1 0 0 -
p28
aVLaSalle Thompson IND 05/02/1993 IND @ NYK L 5 0 0 0 - 0 0 - 0 0 - 0 0 0 0 0 0 0 0 -
p29
aVVern Fleming IND 05/02/1993 IND @ NYK L 32 7 3 6 50.0 1 1 100.0 0 0 - 0 1 1 1 1 1 1 3 -
p30
aVGeorge McCloud IND 05/02/1993 IND @ NYK L 30 5 2 8 25.0 0 3 0.0 1 4 25.0 0 0 0 5 1 0 1 5 -
p31
aVReggie Miller IND 05/02/1993 IND @ NYK L 43 25 7 15 46.7 3 7 42.9 8 10 80.0 1 0 1 4 0 0 0 4 -
p32
aVMalik Sealy IND 05/02/1993 IND @ NYK L 2 0 0 1 0.0 0 0 - 0 0 - 0 0 0 0 0 0 0 0 -
p33
aVLaSalle Thompson IND 04/30/1993 IND @ NYK L 24 11 4 11 36.4 0 0 - 3 4 75.0 6 1 7 0 1 0 1 2 -
p34
aVReggie Miller IND 04/30/1993 IND @ NYK L 41 32 7 18 38.9 1 3 33.3 17 17 100.0 2 4 6 4 0 0 4 2 -
p35
aVPooh Richardson IND 04/30/1993 IND @ NYK L 9 4 2 3 66.7 0 0 - 0 0 - 1 0 1 2 0 0 1 0 -
p36
aVDale Davis IND 04/30/1993 IND @ NYK L 25 4 2 3 66.7 0 0 - 0 0 - 0 5 5 0 0 0 1 4 -
p37
aVSam Mitchell IND 04/30/1993 IND @ NYK L 10 2 1 2 50.0 0 0 - 0 0 - 0 0 0 0 0 0 0 1 -
p38
aVRik Smits IND 04/30/1993 IND @ NYK L 26 15 7 10 70.0 0 0 - 1 2 50.0 2 2 4 2 0 0 0 6 -
p39
aVMalik Sealy IND 04/30/1993 IND @ NYK L 9 2 0 4 0.0 0 1 0.0 2 2 100.0 1 0 1 0 0 0 0 1 -
p40
aVGeorge McCloud IND 04/30/1993 IND @ NYK L 21 5 2 5 40.0 1 3 33.3 0 0 - 2 3 5 6 1 0 1 5 -
p41
aVVern Fleming IND 04/30/1993 IND @ NYK L 37 19 7 14 50.0 1 2 50.0 4 4 100.0 0 3 3 2 1 0 2 2 -
p42
aVDetlef Schrempf IND 04/30/1993 IND @ NYK L 38 10 3 10 30.0 0 2 0.0 4 5 80.0 1 4 5 5 0 0 3 5 -
p43
a.