(lp0
VPLAYER TEAM DATE MATCHUP W/L MIN PTS FGM FGA FG% 3PM 3PA 3P% FTM FTA FT% OREB DREB REB AST STL BLK TOV PF +/-
p1
aVSteve Henson ATL 05/04/1993 ATL vs. CHI L 8 0 0 0 - 0 0 - 0 0 - 0 1 1 2 1 0 0 0 -
p2
aVDominique Wilkins ATL 05/04/1993 ATL vs. CHI L 41 29 11 26 42.3 1 5 20.0 6 9 66.7 4 2 6 4 2 0 5 3 -
p3
aVKevin Willis ATL 05/04/1993 ATL vs. CHI L 42 17 7 12 58.3 0 0 - 3 6 50.0 2 6 8 1 2 0 3 4 -
p4
aVAdam Keefe ATL 05/04/1993 ATL vs. CHI L 10 0 0 1 0.0 0 0 - 0 2 0.0 0 1 1 0 1 0 1 4 -
p5
aVDuane Ferrell ATL 05/04/1993 ATL vs. CHI L 20 18 8 11 72.7 1 2 50.0 1 1 100.0 1 1 2 1 0 0 2 2 -
p6
aVJon Koncak ATL 05/04/1993 ATL vs. CHI L 31 0 0 3 0.0 0 0 - 0 0 - 4 5 9 1 0 1 0 2 -
p7
aVPaul Graham ATL 05/04/1993 ATL vs. CHI L 13 4 2 6 33.3 0 1 0.0 0 0 - 1 1 2 0 2 0 1 1 -
p8
aVStacey Augmon ATL 05/04/1993 ATL vs. CHI L 35 15 6 12 50.0 0 0 - 3 5 60.0 0 3 3 4 3 0 2 3 -
p9
aVMookie Blaylock ATL 05/04/1993 ATL vs. CHI L 40 5 2 8 25.0 0 4 0.0 1 2 50.0 1 5 6 6 0 0 1 3 -
p10
aVJon Koncak ATL 05/02/1993 ATL @ CHI L 37 3 1 5 20.0 0 0 - 1 2 50.0 4 6 10 1 2 3 1 5 -
p11
aVMookie Blaylock ATL 05/02/1993 ATL @ CHI L 33 7 2 10 20.0 1 5 20.0 2 2 100.0 1 6 7 2 2 3 9 3 -
p12
aVDuane Ferrell ATL 05/02/1993 ATL @ CHI L 13 3 0 3 0.0 0 1 0.0 3 4 75.0 0 1 1 0 0 0 1 2 -
p13
aVKevin Willis ATL 05/02/1993 ATL @ CHI L 44 26 11 24 45.8 0 1 0.0 4 6 66.7 9 4 13 1 0 0 2 5 -
p14
aVDominique Wilkins ATL 05/02/1993 ATL @ CHI L 43 37 13 31 41.9 1 4 25.0 10 12 83.3 7 1 8 5 1 0 1 2 -
p15
aVSteve Henson ATL 05/02/1993 ATL @ CHI L 18 8 3 6 50.0 2 3 66.7 0 0 - 1 0 1 1 1 0 1 3 -
p16
aVStacey Augmon ATL 05/02/1993 ATL @ CHI L 37 14 6 11 54.5 0 0 - 2 4 50.0 1 2 3 1 1 0 0 2 -
p17
aVAdam Keefe ATL 05/02/1993 ATL @ CHI L 15 4 2 5 40.0 0 0 - 0 0 - 2 5 7 2 0 0 0 0 -
p18
aVTravis Mays ATL 04/30/1993 ATL @ CHI L 20 4 2 4 50.0 0 1 0.0 0 0 - 0 1 1 0 0 0 1 3 -
p19
aVRandy Breuer ATL 04/30/1993 ATL @ CHI L 17 2 1 4 25.0 0 0 - 0 0 - 1 1 2 1 0 1 0 2 -
p20
aVMookie Blaylock ATL 04/30/1993 ATL @ CHI L 26 15 5 7 71.4 3 3 100.0 2 2 100.0 0 0 0 5 1 1 1 3 -
p21
aVDuane Ferrell ATL 04/30/1993 ATL @ CHI L 21 12 6 9 66.7 0 0 - 0 0 - 0 2 2 0 0 0 1 2 -
p22
aVPaul Graham ATL 04/30/1993 ATL @ CHI L 14 0 0 2 0.0 0 1 0.0 0 0 - 0 1 1 2 2 0 1 1 -
p23
aVAdam Keefe ATL 04/30/1993 ATL @ CHI L 28 14 5 7 71.4 0 0 - 4 4 100.0 2 3 5 4 0 0 2 3 -
p24
aVStacey Augmon ATL 04/30/1993 ATL @ CHI L 21 7 2 8 25.0 0 0 - 3 3 100.0 2 0 2 0 0 0 2 2 -
p25
aVGreg Foster ATL 04/30/1993 ATL @ CHI L 5 5 1 3 33.3 0 0 - 3 4 75.0 0 1 1 0 0 0 0 0 -
p26
aVJon Koncak ATL 04/30/1993 ATL @ CHI L 21 0 0 2 0.0 0 0 - 0 0 - 0 5 5 2 1 1 1 2 -
p27
aVSteve Henson ATL 04/30/1993 ATL @ CHI L 21 0 0 3 0.0 0 2 0.0 0 0 - 0 2 2 2 2 0 1 1 -
p28
aVKevin Willis ATL 04/30/1993 ATL @ CHI L 17 7 3 9 33.3 0 0 - 1 2 50.0 2 3 5 1 0 0 2 4 -
p29
aVDominique Wilkins ATL 04/30/1993 ATL @ CHI L 29 24 8 18 44.4 1 3 33.3 7 9 77.8 1 1 2 0 0 1 4 3 -
p30
a.