(lp0
VPLAYER TEAM DATE MATCHUP W/L MIN PTS FGM FGA FG% 3PM 3PA 3P% FTM FTA FT% OREB DREB REB AST STL BLK TOV PF +/-
p1
aVJ.R. Reid SAN 05/20/1993 SAN vs. PHX L 30 14 6 14 42.9 0 0 - 2 2 100.0 0 2 2 1 0 2 3 4 -
p2
aVLarry Smith SAN 05/20/1993 SAN vs. PHX L 4 0 0 0 - 0 0 - 0 0 - 0 0 0 0 0 1 0 0 -
p3
aVDavid Robinson SAN 05/20/1993 SAN vs. PHX L 42 22 6 15 40.0 0 0 - 10 14 71.4 7 7 14 5 2 4 2 2 -
p4
aVSean Elliott SAN 05/20/1993 SAN vs. PHX L 36 19 8 14 57.1 1 3 33.3 2 2 100.0 1 10 11 0 0 0 2 1 -
p5
aVDale Ellis SAN 05/20/1993 SAN vs. PHX L 27 11 4 11 36.4 3 6 50.0 0 0 - 0 1 1 0 0 0 2 3 -
p6
aVVinny Del Negro SAN 05/20/1993 SAN vs. PHX L 13 2 1 4 25.0 0 0 - 0 0 - 0 4 4 4 0 0 0 1 -
p7
aVWillie Anderson SAN 05/20/1993 SAN vs. PHX L 34 13 4 8 50.0 2 4 50.0 3 4 75.0 0 3 3 2 2 1 2 5 -
p8
aVTerry Cummings SAN 05/20/1993 SAN vs. PHX L 20 9 4 7 57.1 0 0 - 1 2 50.0 0 2 2 1 2 0 2 5 -
p9
aVLloyd Daniels SAN 05/20/1993 SAN vs. PHX L 1 0 0 0 - 0 0 - 0 0 - 0 0 0 0 0 0 0 0 -
p10
aVAvery Johnson SAN 05/20/1993 SAN vs. PHX L 33 10 5 9 55.6 0 0 - 0 1 0.0 1 1 2 10 1 0 2 4 -
p11
aVTerry Cummings SAN 05/18/1993 SAN @ PHX L 5 2 1 1 100.0 0 0 - 0 0 - 0 0 0 0 0 0 0 2 -
p12
aVJ.R. Reid SAN 05/18/1993 SAN @ PHX L 27 8 4 8 50.0 0 0 - 0 0 - 1 4 5 5 3 2 0 4 -
p13
aVLloyd Daniels SAN 05/18/1993 SAN @ PHX L 9 2 1 5 20.0 0 2 0.0 0 0 - 1 1 2 1 0 0 0 1 -
p14
aVLarry Smith SAN 05/18/1993 SAN @ PHX L 6 0 0 0 - 0 0 - 0 0 - 0 0 0 0 0 0 0 3 -
p15
aVDale Ellis SAN 05/18/1993 SAN @ PHX L 41 24 10 13 76.9 3 3 100.0 1 2 50.0 0 3 3 1 1 0 0 1 -
p16
aVDavid Robinson SAN 05/18/1993 SAN @ PHX L 48 24 10 16 62.5 0 0 - 4 9 44.4 2 6 8 3 1 3 4 3 -
p17
aVDavid Wood SAN 05/18/1993 SAN @ PHX L 8 3 1 1 100.0 1 1 100.0 0 0 - 1 0 1 1 0 0 0 3 -
p18
aVSean Elliott SAN 05/18/1993 SAN @ PHX L 43 15 6 15 40.0 0 3 0.0 3 3 100.0 1 4 5 8 1 1 2 1 -
p19
aVWillie Anderson SAN 05/18/1993 SAN @ PHX L 7 7 3 6 50.0 1 1 100.0 0 0 - 1 0 1 1 0 0 0 1 -
p20
aVAvery Johnson SAN 05/18/1993 SAN @ PHX L 46 12 6 10 60.0 0 0 - 0 0 - 2 0 2 15 1 0 4 4 -
p21
aVSean Elliott SAN 05/16/1993 SAN vs. PHX W 37 19 7 13 53.8 0 0 - 5 6 83.3 0 5 5 2 0 1 3 3 -
p22
aVTerry Cummings SAN 05/16/1993 SAN vs. PHX W 13 6 3 8 37.5 0 0 - 0 0 - 4 3 7 1 0 0 0 4 -
p23
aVJ.R. Reid SAN 05/16/1993 SAN vs. PHX W 25 16 6 8 75.0 0 0 - 4 7 57.1 2 4 6 2 1 0 3 4 -
p24
aVAntoine Carr SAN 05/16/1993 SAN vs. PHX W 8 4 2 4 50.0 0 0 - 0 0 - 0 1 1 0 0 2 0 1 -
p25
aVLloyd Daniels SAN 05/16/1993 SAN vs. PHX W 11 3 1 4 25.0 1 1 100.0 0 0 - 0 2 2 0 0 0 1 0 -
p26
aVWillie Anderson SAN 05/16/1993 SAN vs. PHX W 20 14 5 8 62.5 1 1 100.0 3 3 100.0 1 3 4 2 0 0 1 3 -
p27
aVLarry Smith SAN 05/16/1993 SAN vs. PHX W 9 1 0 0 - 0 0 - 1 2 50.0 2 1 3 0 1 0 0 3 -
p28
aVAvery Johnson SAN 05/16/1993 SAN vs. PHX W 37 6 2 7 28.6 0 0 - 2 2 100.0 0 3 3 12 0 0 2 4 -
p29
aVDavid Robinson SAN 05/16/1993 SAN vs. PHX W 40 36 9 20 45.0 0 0 - 18 23 78.3 3 13 16 0 1 3 3 4 -
p30
aVDavid Wood SAN 05/16/1993 SAN vs. PHX W 1 2 1 1 100.0 0 0 - 0 0 - 0 1 1 0 0 0 0 0 -
p31
aVDale Ellis SAN 05/16/1993 SAN vs. PHX W 31 10 4 10 40.0 0 2 0.0 2 2 100.0 2 2 4 0 0 0 1 3 -
p32
aVVinny Del Negro SAN 05/16/1993 SAN vs. PHX W 8 0 0 0 - 0 0 - 0 0 - 0 0 0 1 0 0 0 0 -
p33
aVDale Ellis SAN 05/15/1993 SAN vs. PHX W 39 20 9 16 56.3 0 3 0.0 2 2 100.0 1 5 6 0 0 0 0 4 -
p34
aVSean Elliott SAN 05/15/1993 SAN vs. PHX W 36 17 6 15 40.0 0 1 0.0 5 6 83.3 1 6 7 4 0 0 3 0 -
p35
aVDavid Robinson SAN 05/15/1993 SAN vs. PHX W 28 13 4 16 25.0 0 0 - 5 7 71.4 4 4 8 6 1 1 2 4 -
p36
aVJ.R. Reid SAN 05/15/1993 SAN vs. PHX W 11 8 4 6 66.7 0 0 - 0 0 - 0 3 3 0 0 0 0 2 -
p37
aVVinny Del Negro SAN 05/15/1993 SAN vs. PHX W 8 2 1 2 50.0 0 1 0.0 0 0 - 0 2 2 3 0 0 0 0 -
p38
aVAvery Johnson SAN 05/15/1993 SAN vs. PHX W 42 12 5 11 45.5 0 0 - 2 2 100.0 1 7 8 15 5 1 2 3 -
p39
aVAntoine Carr SAN 05/15/1993 SAN vs. PHX W 29 21 10 14 71.4 0 0 - 1 2 50.0 1 5 6 0 1 2 1 3 -
p40
aVTerry Cummings SAN 05/15/1993 SAN vs. PHX W 13 12 6 11 54.5 0 0 - 0 0 - 5 1 6 0 1 0 0 3 -
p41
aVDavid Wood SAN 05/15/1993 SAN vs. PHX W 2 0 0 0 - 0 0 - 0 0 - 0 0 0 0 0 0 0 0 -
p42
aVLarry Smith SAN 05/15/1993 SAN vs. PHX W 13 0 0 0 - 0 0 - 0 0 - 3 2 5 1 2 1 1 3 -
p43
aVWillie Anderson SAN 05/15/1993 SAN vs. PHX W 19 6 3 6 50.0 0 1 0.0 0 0 - 0 1 1 3 0 0 0 1 -
p44
aVLloyd Daniels SAN 05/13/1993 SAN @ PHX L 5 2 0 1 0.0 0 1 0.0 2 2 100.0 0 0 0 0 0 0 0 2 -
p45
aVDavid Robinson SAN 05/13/1993 SAN @ PHX L 44 27 11 22 50.0 0 0 - 5 6 83.3 3 7 10 3 2 2 2 4 -
p46
aVLarry Smith SAN 05/13/1993 SAN @ PHX L 7 4 1 2 50.0 0 0 - 2 2 100.0 2 0 2 0 1 0 0 3 -
p47
aVDavid Wood SAN 05/13/1993 SAN @ PHX L 5 0 0 1 0.0 0 0 - 0 0 - 0 1 1 0 0 0 0 1 -
p48
aVVinny Del Negro SAN 05/13/1993 SAN @ PHX L 17 19 8 12 66.7 2 4 50.0 1 1 100.0 1 2 3 6 0 0 0 1 -
p49
aVAvery Johnson SAN 05/13/1993 SAN @ PHX L 25 10 5 6 83.3 0 1 0.0 0 1 0.0 2 3 5 6 2 0 5 5 -
p50
aVJ.R. Reid SAN 05/13/1993 SAN @ PHX L 20 8 2 3 66.7 0 0 - 4 4 100.0 0 3 3 0 0 1 1 4 -
p51
aVSean Elliott SAN 05/13/1993 SAN @ PHX L 38 14 4 9 44.4 0 0 - 6 6 100.0 1 2 3 6 1 1 3 2 -
p52
aVTerry Cummings SAN 05/13/1993 SAN @ PHX L 11 1 0 3 0.0 0 1 0.0 1 2 50.0 1 3 4 1 0 0 1 2 -
p53
aVWillie Anderson SAN 05/13/1993 SAN @ PHX L 14 0 0 5 0.0 0 0 - 0 0 - 0 0 0 1 0 0 0 2 -
p54
aVAntoine Carr SAN 05/13/1993 SAN @ PHX L 29 10 5 12 41.7 0 0 - 0 0 - 4 5 9 2 1 0 0 2 -
p55
aVDale Ellis SAN 05/13/1993 SAN @ PHX L 25 8 3 10 30.0 0 3 0.0 2 2 100.0 1 3 4 1 0 0 0 3 -
p56
aVVinny Del Negro SAN 05/11/1993 SAN @ PHX L 31 7 3 9 33.3 0 0 - 1 1 100.0 2 4 6 6 0 1 2 4 -
p57
aVDale Ellis SAN 05/11/1993 SAN @ PHX L 24 2 1 4 25.0 0 1 0.0 0 1 0.0 1 2 3 2 1 0 1 0 -
p58
aVWillie Anderson SAN 05/11/1993 SAN @ PHX L 11 3 1 4 25.0 0 0 - 1 2 50.0 0 2 2 4 0 1 4 1 -
p59
aVJ.R. Reid SAN 05/11/1993 SAN @ PHX L 13 2 0 3 0.0 0 1 0.0 2 4 50.0 1 4 5 1 0 0 0 1 -
p60
aVTerry Cummings SAN 05/11/1993 SAN @ PHX L 7 4 2 3 66.7 0 0 - 0 0 - 0 1 1 0 0 0 0 0 -
p61
aVSean Elliott SAN 05/11/1993 SAN @ PHX L 40 8 3 13 23.1 0 2 0.0 2 2 100.0 0 1 1 3 1 0 2 2 -
p62
aVAvery Johnson SAN 05/11/1993 SAN @ PHX L 16 4 2 5 40.0 0 0 - 0 0 - 0 3 3 1 0 0 3 2 -
p63
aVAntoine Carr SAN 05/11/1993 SAN @ PHX L 33 19 9 14 64.3 0 0 - 1 3 33.3 3 5 8 5 1 1 1 6 -
p64
aVLloyd Daniels SAN 05/11/1993 SAN @ PHX L 22 8 4 10 40.0 0 2 0.0 0 0 - 6 3 9 1 2 0 1 0 -
p65
aVDavid Robinson SAN 05/11/1993 SAN @ PHX L 43 32 13 20 65.0 0 1 0.0 6 10 60.0 1 9 10 4 3 7 4 4 -
p66
aVAntoine Carr SAN 05/07/1993 SAN vs. POR W 20 9 4 11 36.4 0 0 - 1 2 50.0 2 1 3 1 0 1 2 3 -
p67
aVAvery Johnson SAN 05/07/1993 SAN vs. POR W 29 6 3 6 50.0 0 0 - 0 0 - 1 4 5 3 0 0 2 0 -
p68
aVWillie Anderson SAN 05/07/1993 SAN vs. POR W 32 17 5 11 45.5 1 2 50.0 6 6 100.0 1 2 3 6 3 0 2 3 -
p69
aVJ.R. Reid SAN 05/07/1993 SAN vs. POR W 30 4 1 5 20.0 0 0 - 2 2 100.0 2 2 4 0 2 1 1 3 -
p70
aVDale Ellis SAN 05/07/1993 SAN vs. POR W 41 21 9 18 50.0 2 4 50.0 1 2 50.0 3 1 4 2 1 0 2 5 -
p71
aVDavid Robinson SAN 05/07/1993 SAN vs. POR W 50 20 8 14 57.1 0 0 - 4 9 44.4 1 16 17 11 0 7 2 5 -
p72
aVLloyd Daniels SAN 05/07/1993 SAN vs. POR W 7 2 1 3 33.3 0 0 - 0 0 - 1 0 1 0 1 0 1 2 -
p73
aVTerry Cummings SAN 05/07/1993 SAN vs. POR W 11 4 2 5 40.0 0 0 - 0 0 - 0 2 2 0 0 0 1 4 -
p74
aVSean Elliott SAN 05/07/1993 SAN vs. POR W 45 17 7 11 63.6 1 1 100.0 2 3 66.7 0 2 2 3 1 0 2 3 -
p75
aVWillie Anderson SAN 05/05/1993 SAN vs. POR W 34 19 8 17 47.1 1 1 100.0 2 2 100.0 0 2 2 3 1 0 0 3 -
p76
aVTerry Cummings SAN 05/05/1993 SAN vs. POR W 17 6 3 8 37.5 0 0 - 0 0 - 3 3 6 2 0 0 1 1 -
p77
aVVinny Del Negro SAN 05/05/1993 SAN vs. POR W 7 0 0 1 0.0 0 1 0.0 0 0 - 0 1 1 1 0 0 0 1 -
p78
aVLloyd Daniels SAN 05/05/1993 SAN vs. POR W 16 7 2 3 66.7 0 1 0.0 3 4 75.0 1 0 1 0 0 0 1 1 -
p79
aVDavid Robinson SAN 05/05/1993 SAN vs. POR W 48 26 8 16 50.0 0 0 - 10 14 71.4 1 13 14 5 0 4 0 3 -
p80
aVDale Ellis SAN 05/05/1993 SAN vs. POR W 16 4 2 8 25.0 0 2 0.0 0 0 - 0 2 2 1 0 0 1 1 -
p81
aVSean Elliott SAN 05/05/1993 SAN vs. POR W 33 19 7 10 70.0 1 2 50.0 4 4 100.0 2 3 5 1 1 0 1 2 -
p82
aVAntoine Carr SAN 05/05/1993 SAN vs. POR W 14 7 3 6 50.0 0 0 - 1 1 100.0 0 2 2 1 0 1 1 4 -
p83
aVJ.R. Reid SAN 05/05/1993 SAN vs. POR W 33 17 4 7 57.1 0 1 0.0 9 10 90.0 5 7 12 2 0 1 2 2 -
p84
aVAvery Johnson SAN 05/05/1993 SAN vs. POR W 22 2 1 5 20.0 0 0 - 0 0 - 0 1 1 6 1 0 1 1 -
p85
aVSean Elliott SAN 05/01/1993 SAN @ POR L 36 12 3 11 27.3 0 2 0.0 6 6 100.0 1 3 4 2 2 0 3 4 -
p86
aVAntoine Carr SAN 05/01/1993 SAN @ POR L 19 10 5 9 55.6 0 0 - 0 0 - 2 2 4 0 0 1 0 5 -
p87
aVDavid Robinson SAN 05/01/1993 SAN @ POR L 32 15 4 11 36.4 0 0 - 7 11 63.6 3 11 14 1 0 1 2 5 -
p88
aVAvery Johnson SAN 05/01/1993 SAN @ POR L 34 10 4 6 66.7 0 0 - 2 2 100.0 0 0 0 6 0 0 0 3 -
p89
aVJ.R. Reid SAN 05/01/1993 SAN @ POR L 21 8 2 4 50.0 0 0 - 4 4 100.0 3 3 6 2 1 1 2 5 -
p90
aVWillie Anderson SAN 05/01/1993 SAN @ POR L 26 10 5 10 50.0 0 0 - 0 0 - 1 4 5 5 1 0 2 2 -
p91
aVTerry Cummings SAN 05/01/1993 SAN @ POR L 26 15 6 11 54.5 0 0 - 3 4 75.0 2 5 7 0 0 0 3 3 -
p92
aVVinny Del Negro SAN 05/01/1993 SAN @ POR L 14 6 2 4 50.0 0 1 0.0 2 2 100.0 0 0 0 2 1 0 0 3 -
p93
aVDavid Wood SAN 05/01/1993 SAN @ POR L 4 0 0 1 0.0 0 0 - 0 0 - 0 0 0 0 0 0 0 3 -
p94
aVDale Ellis SAN 05/01/1993 SAN @ POR L 28 10 3 11 27.3 0 4 0.0 4 4 100.0 0 2 2 2 0 0 1 4 -
p95
aVDale Ellis SAN 04/29/1993 SAN @ POR W 33 15 6 12 50.0 2 4 50.0 1 1 100.0 1 5 6 2 1 0 2 1 -
p96
aVVinny Del Negro SAN 04/29/1993 SAN @ POR W 14 4 2 6 33.3 0 2 0.0 0 0 - 3 0 3 1 0 0 1 3 -
p97
aVLloyd Daniels SAN 04/29/1993 SAN @ POR W 3 4 2 4 50.0 0 0 - 0 0 - 0 0 0 0 0 0 1 2 -
p98
aVSean Elliott SAN 04/29/1993 SAN @ POR W 37 18 8 14 57.1 0 0 - 2 2 100.0 1 4 5 7 1 0 1 4 -
p99
aVWillie Anderson SAN 04/29/1993 SAN @ POR W 22 6 3 7 42.9 0 1 0.0 0 0 - 0 2 2 1 2 0 1 2 -
p100
aVTerry Cummings SAN 04/29/1993 SAN @ POR W 15 8 4 13 30.8 0 0 - 0 0 - 2 2 4 0 0 1 0 3 -
p101
aVDavid Robinson SAN 04/29/1993 SAN @ POR W 46 16 6 20 30.0 0 0 - 4 7 57.1 4 11 15 2 0 4 4 5 -
p102
aVAntoine Carr SAN 04/29/1993 SAN @ POR W 19 4 1 4 25.0 0 0 - 2 2 100.0 1 4 5 0 0 1 2 4 -
p103
aVAvery Johnson SAN 04/29/1993 SAN @ POR W 30 10 3 5 60.0 0 0 - 4 6 66.7 1 1 2 7 0 0 2 1 -
p104
aVLarry Smith SAN 04/29/1993 SAN @ POR W 11 2 1 1 100.0 0 0 - 0 0 - 1 5 6 0 0 0 0 4 -
p105
aVJ.R. Reid SAN 04/29/1993 SAN @ POR W 10 0 0 2 0.0 0 0 - 0 2 0.0 2 2 4 2 1 0 1 2 -
p106
a.