(lp0
VPLAYER TEAM DATE MATCHUP W/L MIN PTS FGM FGA FG% 3PM 3PA 3P% FTM FTA FT% OREB DREB REB AST STL BLK TOV PF +/-
p1
aVEddie Johnson SEA 06/05/1993 SEA @ PHX L 26 34 12 17 70.6 1 1 100.0 9 9 100.0 1 1 2 0 0 0 2 6 -
p2
aVMichael Cage SEA 06/05/1993 SEA @ PHX L 9 0 0 1 0.0 0 0 - 0 0 - 2 4 6 0 0 1 0 2 -
p3
aVNate McMillan SEA 06/05/1993 SEA @ PHX L 23 9 3 8 37.5 1 2 50.0 2 4 50.0 0 1 1 7 1 0 1 6 -
p4
aVVincent Askew SEA 06/05/1993 SEA @ PHX L 16 6 3 3 100.0 0 0 - 0 1 0.0 1 2 3 3 0 0 1 4 -
p5
aVGerald Paddio SEA 06/05/1993 SEA @ PHX L 3 0 0 0 - 0 0 - 0 0 - 0 0 0 0 0 0 0 0 -
p6
aVSteve Scheffler SEA 06/05/1993 SEA @ PHX L 1 0 0 0 - 0 0 - 0 0 - 0 0 0 0 1 0 0 0 -
p7
aVShawn Kemp SEA 06/05/1993 SEA @ PHX L 39 18 5 12 41.7 0 0 - 8 10 80.0 3 5 8 3 2 2 4 6 -
p8
aVDerrick McKey SEA 06/05/1993 SEA @ PHX L 31 6 3 7 42.9 0 0 - 0 0 - 0 3 3 5 0 2 3 3 -
p9
aVSam Perkins SEA 06/05/1993 SEA @ PHX L 31 19 7 13 53.8 2 5 40.0 3 3 100.0 1 2 3 1 0 2 0 2 -
p10
aVDana Barros SEA 06/05/1993 SEA @ PHX L 8 2 1 2 50.0 0 1 0.0 0 0 - 0 1 1 1 0 0 0 0 -
p11
aVGary Payton SEA 06/05/1993 SEA @ PHX L 29 9 3 7 42.9 0 0 - 3 5 60.0 0 2 2 3 1 0 1 4 -
p12
aVRicky Pierce SEA 06/05/1993 SEA @ PHX L 24 7 2 8 25.0 0 1 0.0 3 4 75.0 0 2 2 3 0 0 2 5 -
p13
aVDana Barros SEA 06/03/1993 SEA vs. PHX W 7 0 0 3 0.0 0 1 0.0 0 0 - 0 1 1 1 0 0 0 1 -
p14
aVShawn Kemp SEA 06/03/1993 SEA vs. PHX W 37 22 8 12 66.7 0 0 - 6 8 75.0 2 13 15 4 1 3 2 5 -
p15
aVGary Payton SEA 06/03/1993 SEA vs. PHX W 29 16 6 15 40.0 0 0 - 4 6 66.7 1 4 5 4 1 0 1 4 -
p16
aVMichael Cage SEA 06/03/1993 SEA vs. PHX W 20 6 3 4 75.0 0 0 - 0 0 - 2 8 10 2 1 0 2 2 -
p17
aVEddie Johnson SEA 06/03/1993 SEA vs. PHX W 19 6 1 6 16.7 0 1 0.0 4 4 100.0 2 1 3 0 1 0 1 2 -
p18
aVSteve Scheffler SEA 06/03/1993 SEA vs. PHX W 2 0 0 2 0.0 0 0 - 0 0 - 0 0 0 0 0 0 0 0 -
p19
aVSam Perkins SEA 06/03/1993 SEA vs. PHX W 35 18 6 12 50.0 4 9 44.4 2 2 100.0 1 4 5 2 3 3 0 4 -
p20
aVDerrick McKey SEA 06/03/1993 SEA vs. PHX W 36 16 8 12 66.7 0 0 - 0 0 - 3 0 3 5 1 1 1 3 -
p21
aVGerald Paddio SEA 06/03/1993 SEA vs. PHX W 2 2 1 1 100.0 0 0 - 0 0 - 1 0 1 1 0 0 0 0 -
p22
aVNate McMillan SEA 06/03/1993 SEA vs. PHX W 20 5 2 6 33.3 0 1 0.0 1 2 50.0 1 2 3 4 1 2 5 6 -
p23
aVRicky Pierce SEA 06/03/1993 SEA vs. PHX W 33 27 9 15 60.0 1 2 50.0 8 8 100.0 1 3 4 2 3 1 2 2 -
p24
aVRicky Pierce SEA 06/01/1993 SEA @ PHX L 32 27 9 17 52.9 3 3 100.0 6 7 85.7 0 1 1 5 1 1 1 1 -
p25
aVShawn Kemp SEA 06/01/1993 SEA @ PHX L 32 33 13 18 72.2 0 0 - 7 9 77.8 1 5 6 4 1 3 3 4 -
p26
aVDerrick McKey SEA 06/01/1993 SEA @ PHX L 38 9 3 6 50.0 0 0 - 3 4 75.0 2 2 4 5 2 5 1 4 -
p27
aVSam Perkins SEA 06/01/1993 SEA @ PHX L 38 10 3 10 30.0 0 1 0.0 4 5 80.0 3 3 6 5 4 1 1 4 -
p28
aVMichael Cage SEA 06/01/1993 SEA @ PHX L 23 5 2 2 100.0 0 0 - 1 2 50.0 1 1 2 1 1 0 2 3 -
p29
aVEddie Johnson SEA 06/01/1993 SEA @ PHX L 15 7 3 7 42.9 1 1 100.0 0 0 - 1 1 2 0 0 0 0 2 -
p30
aVNate McMillan SEA 06/01/1993 SEA @ PHX L 19 3 1 3 33.3 0 1 0.0 1 2 50.0 2 0 2 7 1 1 1 4 -
p31
aVGary Payton SEA 06/01/1993 SEA @ PHX L 38 20 10 18 55.6 0 0 - 0 0 - 0 2 2 8 3 0 0 2 -
p32
aVDana Barros SEA 06/01/1993 SEA @ PHX L 5 0 0 1 0.0 0 1 0.0 0 0 - 0 0 0 0 1 0 1 2 -
p33
aVEddie Johnson SEA 05/30/1993 SEA vs. PHX W 25 12 5 9 55.6 0 1 0.0 2 2 100.0 1 2 3 0 0 0 4 4 -
p34
aVVincent Askew SEA 05/30/1993 SEA vs. PHX W 6 4 2 3 66.7 0 0 - 0 0 - 1 0 1 0 0 1 1 1 -
p35
aVSam Perkins SEA 05/30/1993 SEA vs. PHX W 34 19 5 11 45.5 0 3 0.0 9 11 81.8 2 4 6 4 0 2 2 4 -
p36
aVGerald Paddio SEA 05/30/1993 SEA vs. PHX W 2 2 1 1 100.0 0 0 - 0 0 - 0 0 0 1 0 0 0 0 -
p37
aVNate McMillan SEA 05/30/1993 SEA vs. PHX W 22 6 3 7 42.9 0 0 - 0 0 - 2 3 5 5 6 0 1 3 -
p38
aVMichael Cage SEA 05/30/1993 SEA vs. PHX W 11 8 4 8 50.0 0 0 - 0 0 - 4 3 7 0 0 0 0 1 -
p39
aVRicky Pierce SEA 05/30/1993 SEA vs. PHX W 25 8 3 7 42.9 0 1 0.0 2 2 100.0 1 2 3 2 0 0 2 2 -
p40
aVSteve Scheffler SEA 05/30/1993 SEA vs. PHX W 1 2 1 3 33.3 0 0 - 0 0 - 2 0 2 0 0 0 0 0 -
p41
aVGary Payton SEA 05/30/1993 SEA vs. PHX W 24 10 5 10 50.0 0 0 - 0 0 - 1 2 3 5 1 0 3 3 -
p42
aVDana Barros SEA 05/30/1993 SEA vs. PHX W 18 9 4 6 66.7 1 2 50.0 0 0 - 0 1 1 2 0 0 0 0 -
p43
aVDerrick McKey SEA 05/30/1993 SEA vs. PHX W 39 20 6 9 66.7 0 0 - 8 11 72.7 3 4 7 6 0 1 1 2 -
p44
aVShawn Kemp SEA 05/30/1993 SEA vs. PHX W 33 20 8 13 61.5 0 0 - 4 5 80.0 4 4 8 3 2 4 5 6 -
p45
aVDerrick McKey SEA 05/28/1993 SEA vs. PHX L 40 18 6 14 42.9 0 0 - 6 8 75.0 7 4 11 3 4 0 2 5 -
p46
aVSam Perkins SEA 05/28/1993 SEA vs. PHX L 34 13 5 13 38.5 1 6 16.7 2 2 100.0 1 9 10 2 1 1 0 5 -
p47
aVGary Payton SEA 05/28/1993 SEA vs. PHX L 31 8 4 10 40.0 0 0 - 0 0 - 1 3 4 2 1 0 3 4 -
p48
aVDana Barros SEA 05/28/1993 SEA vs. PHX L 5 1 0 0 - 0 0 - 1 2 50.0 0 0 0 0 0 0 0 2 -
p49
aVEddie Johnson SEA 05/28/1993 SEA vs. PHX L 14 0 0 6 0.0 0 0 - 0 0 - 1 2 3 0 0 0 4 1 -
p50
aVMichael Cage SEA 05/28/1993 SEA vs. PHX L 15 4 2 3 66.7 0 0 - 0 0 - 2 4 6 0 0 2 1 2 -
p51
aVShawn Kemp SEA 05/28/1993 SEA vs. PHX L 41 19 5 14 35.7 0 0 - 9 10 90.0 6 6 12 1 2 3 4 5 -
p52
aVNate McMillan SEA 05/28/1993 SEA vs. PHX L 23 6 2 6 33.3 0 3 0.0 2 4 50.0 2 2 4 5 0 1 4 3 -
p53
aVRicky Pierce SEA 05/28/1993 SEA vs. PHX L 37 28 10 19 52.6 1 2 50.0 7 7 100.0 4 1 5 3 0 0 0 2 -
p54
aVGary Payton SEA 05/26/1993 SEA @ PHX W 28 8 4 11 36.4 0 0 - 0 3 0.0 2 4 6 3 3 0 1 6 -
p55
aVRicky Pierce SEA 05/26/1993 SEA @ PHX W 40 34 13 20 65.0 1 2 50.0 7 8 87.5 2 0 2 2 0 0 0 4 -
p56
aVNate McMillan SEA 05/26/1993 SEA @ PHX W 18 0 0 4 0.0 0 1 0.0 0 0 - 2 6 8 6 1 0 3 3 -
p57
aVMichael Cage SEA 05/26/1993 SEA @ PHX W 25 8 4 7 57.1 0 0 - 0 0 - 3 3 6 0 1 1 1 2 -
p58
aVSam Perkins SEA 05/26/1993 SEA @ PHX W 33 19 5 18 27.8 3 7 42.9 6 6 100.0 3 4 7 2 1 0 1 4 -
p59
aVEddie Johnson SEA 05/26/1993 SEA @ PHX W 18 7 2 7 28.6 0 1 0.0 3 3 100.0 0 2 2 0 0 0 0 2 -
p60
aVVincent Askew SEA 05/26/1993 SEA @ PHX W 4 4 2 2 100.0 0 0 - 0 0 - 1 0 1 0 0 0 0 0 -
p61
aVGerald Paddio SEA 05/26/1993 SEA @ PHX W 1 0 0 0 - 0 0 - 0 0 - 0 0 0 0 0 0 0 0 -
p62
aVDana Barros SEA 05/26/1993 SEA @ PHX W 15 4 1 3 33.3 0 0 - 2 2 100.0 0 0 0 2 0 0 1 0 -
p63
aVDerrick McKey SEA 05/26/1993 SEA @ PHX W 24 3 1 7 14.3 0 0 - 1 2 50.0 2 1 3 2 0 0 1 4 -
p64
aVShawn Kemp SEA 05/26/1993 SEA @ PHX W 33 16 5 5 100.0 0 0 - 6 8 75.0 2 4 6 0 0 7 2 3 -
p65
aVSteve Scheffler SEA 05/26/1993 SEA @ PHX W 1 0 0 0 - 0 0 - 0 0 - 0 0 0 0 0 0 0 0 -
p66
aVMichael Cage SEA 05/24/1993 SEA @ PHX L 13 4 2 3 66.7 0 0 - 0 1 0.0 3 0 3 0 1 0 1 0 -
p67
aVDerrick McKey SEA 05/24/1993 SEA @ PHX L 34 17 6 10 60.0 0 0 - 5 7 71.4 2 3 5 4 1 1 0 2 -
p68
aVVincent Askew SEA 05/24/1993 SEA @ PHX L 11 5 2 5 40.0 0 0 - 1 1 100.0 1 0 1 1 0 0 1 2 -
p69
aVShawn Kemp SEA 05/24/1993 SEA @ PHX L 39 16 6 11 54.5 0 0 - 4 4 100.0 4 6 10 5 1 2 4 5 -
p70
aVEddie Johnson SEA 05/24/1993 SEA @ PHX L 16 4 2 6 33.3 0 1 0.0 0 0 - 0 2 2 1 0 0 1 4 -
p71
aVNate McMillan SEA 05/24/1993 SEA @ PHX L 28 6 3 12 25.0 0 1 0.0 0 0 - 2 4 6 7 4 2 0 3 -
p72
aVDana Barros SEA 05/24/1993 SEA @ PHX L 14 2 1 6 16.7 0 1 0.0 0 0 - 0 3 3 1 0 0 1 0 -
p73
aVRicky Pierce SEA 05/24/1993 SEA @ PHX L 18 6 3 8 37.5 0 2 0.0 0 0 - 1 0 1 0 0 0 2 4 -
p74
aVGerald Paddio SEA 05/24/1993 SEA @ PHX L 5 2 1 2 50.0 0 0 - 0 0 - 0 0 0 1 0 0 0 0 -
p75
aVSteve Scheffler SEA 05/24/1993 SEA @ PHX L 3 6 1 2 50.0 0 0 - 4 4 100.0 2 0 2 0 0 0 0 1 -
p76
aVGary Payton SEA 05/24/1993 SEA @ PHX L 33 14 6 11 54.5 0 0 - 2 4 50.0 1 3 4 3 2 0 4 5 -
p77
aVSam Perkins SEA 05/24/1993 SEA @ PHX L 26 9 3 11 27.3 3 4 75.0 0 0 - 0 3 3 0 1 4 3 1 -
p78
aVShawn Kemp SEA 05/22/1993 SEA vs. HOU W 37 18 4 11 36.4 0 0 - 10 10 100.0 2 9 11 3 0 0 2 5 -
p79
aVEddie Johnson SEA 05/22/1993 SEA vs. HOU W 23 7 3 9 33.3 1 5 20.0 0 0 - 1 0 1 0 0 0 0 1 -
p80
aVGary Payton SEA 05/22/1993 SEA vs. HOU W 35 5 2 14 14.3 0 0 - 1 2 50.0 1 2 3 1 1 0 1 2 -
p81
aVSam Perkins SEA 05/22/1993 SEA vs. HOU W 43 23 10 13 76.9 1 3 33.3 2 2 100.0 5 4 9 4 0 1 1 4 -
p82
aVRicky Pierce SEA 05/22/1993 SEA vs. HOU W 39 25 9 24 37.5 1 3 33.3 6 6 100.0 2 3 5 5 2 1 2 3 -
p83
aVNate McMillan SEA 05/22/1993 SEA vs. HOU W 20 4 2 3 66.7 0 1 0.0 0 0 - 2 5 7 6 3 0 1 3 -
p84
aVDana Barros SEA 05/22/1993 SEA vs. HOU W 9 7 3 3 100.0 1 1 100.0 0 0 - 0 1 1 0 0 0 0 0 -
p85
aVDerrick McKey SEA 05/22/1993 SEA vs. HOU W 41 10 5 15 33.3 0 1 0.0 0 2 0.0 7 1 8 3 0 1 2 3 -
p86
aVMichael Cage SEA 05/22/1993 SEA vs. HOU W 18 4 2 5 40.0 0 0 - 0 2 0.0 4 2 6 0 0 0 0 3 -
p87
aVMichael Cage SEA 05/20/1993 SEA @ HOU L 20 6 3 6 50.0 0 0 - 0 0 - 3 2 5 0 0 0 0 2 -
p88
aVGary Payton SEA 05/20/1993 SEA @ HOU L 28 14 7 15 46.7 0 1 0.0 0 0 - 2 1 3 3 3 0 2 2 -
p89
aVNate McMillan SEA 05/20/1993 SEA @ HOU L 27 2 1 6 16.7 0 1 0.0 0 0 - 0 4 4 3 3 1 2 1 -
p90
aVEddie Johnson SEA 05/20/1993 SEA @ HOU L 20 7 3 10 30.0 0 4 0.0 1 2 50.0 1 0 1 0 0 0 2 0 -
p91
aVShawn Kemp SEA 05/20/1993 SEA @ HOU L 26 1 0 2 0.0 0 0 - 1 2 50.0 6 3 9 1 4 3 5 5 -
p92
aVRicky Pierce SEA 05/20/1993 SEA @ HOU L 24 11 4 11 36.4 0 3 0.0 3 3 100.0 1 1 2 1 0 1 3 1 -
p93
aVVincent Askew SEA 05/20/1993 SEA @ HOU L 16 12 4 7 57.1 0 0 - 4 4 100.0 3 2 5 2 1 0 0 2 -
p94
aVSteve Scheffler SEA 05/20/1993 SEA @ HOU L 4 4 2 2 100.0 0 0 - 0 0 - 1 0 1 0 0 0 0 0 -
p95
aVDerrick McKey SEA 05/20/1993 SEA @ HOU L 28 13 5 9 55.6 0 0 - 3 4 75.0 3 2 5 2 0 0 2 2 -
p96
aVGerald Paddio SEA 05/20/1993 SEA @ HOU L 7 2 1 5 20.0 0 1 0.0 0 0 - 0 1 1 1 1 0 1 0 -
p97
aVSam Perkins SEA 05/20/1993 SEA @ HOU L 28 14 4 8 50.0 3 4 75.0 3 4 75.0 0 4 4 2 2 0 1 3 -
p98
aVDana Barros SEA 05/20/1993 SEA @ HOU L 12 4 2 3 66.7 0 0 - 0 0 - 0 2 2 3 1 0 2 0 -
p99
aVSteve Scheffler SEA 05/18/1993 SEA vs. HOU W 3 2 1 1 100.0 0 0 - 0 0 - 1 3 4 1 0 0 0 0 -
p100
aVShawn Kemp SEA 05/18/1993 SEA vs. HOU W 37 19 8 11 72.7 0 0 - 3 6 50.0 6 6 12 4 3 1 3 4 -
p101
aVEddie Johnson SEA 05/18/1993 SEA vs. HOU W 19 7 2 7 28.6 1 1 100.0 2 2 100.0 2 1 3 2 0 0 0 2 -
p102
aVDerrick McKey SEA 05/18/1993 SEA vs. HOU W 34 14 5 9 55.6 1 2 50.0 3 4 75.0 3 3 6 4 0 1 5 3 -
p103
aVNate McMillan SEA 05/18/1993 SEA vs. HOU W 17 4 1 3 33.3 0 1 0.0 2 2 100.0 0 1 1 5 1 1 0 2 -
p104
aVMichael Cage SEA 05/18/1993 SEA vs. HOU W 24 6 2 4 50.0 0 0 - 2 2 100.0 1 4 5 2 2 0 0 1 -
p105
aVSam Perkins SEA 05/18/1993 SEA vs. HOU W 30 8 3 9 33.3 0 2 0.0 2 3 66.7 0 2 2 0 0 2 1 2 -
p106
aVRicky Pierce SEA 05/18/1993 SEA vs. HOU W 31 24 10 18 55.6 1 2 50.0 3 3 100.0 0 0 0 1 2 0 1 2 -
p107
aVGary Payton SEA 05/18/1993 SEA vs. HOU W 38 23 10 17 58.8 0 1 0.0 3 4 75.0 2 5 7 2 2 1 0 3 -
p108
aVVincent Askew SEA 05/18/1993 SEA vs. HOU W 2 4 2 3 66.7 0 0 - 0 0 - 0 0 0 0 0 0 0 0 -
p109
aVDana Barros SEA 05/18/1993 SEA vs. HOU W 3 9 4 5 80.0 1 1 100.0 0 0 - 0 0 0 0 1 0 0 0 -
p110
aVGerald Paddio SEA 05/18/1993 SEA vs. HOU W 2 0 0 1 0.0 0 0 - 0 0 - 0 1 1 0 0 1 0 1 -
p111
aVRicky Pierce SEA 05/16/1993 SEA @ HOU L 30 19 7 14 50.0 0 2 0.0 5 5 100.0 0 1 1 0 0 0 1 2 -
p112
aVNate McMillan SEA 05/16/1993 SEA @ HOU L 30 13 5 11 45.5 1 3 33.3 2 2 100.0 1 2 3 8 4 0 0 2 -
p113
aVShawn Kemp SEA 05/16/1993 SEA @ HOU L 41 23 9 24 37.5 0 0 - 5 8 62.5 10 8 18 4 1 0 1 1 -
p114
aVSam Perkins SEA 05/16/1993 SEA @ HOU L 29 9 4 10 40.0 0 3 0.0 1 2 50.0 2 3 5 0 1 0 1 1 -
p115
aVDerrick McKey SEA 05/16/1993 SEA @ HOU L 32 2 1 6 16.7 0 0 - 0 0 - 3 1 4 5 0 1 2 3 -
p116
aVGary Payton SEA 05/16/1993 SEA @ HOU L 27 2 1 5 20.0 0 0 - 0 0 - 1 0 1 6 4 0 3 1 -
p117
aVEddie Johnson SEA 05/16/1993 SEA @ HOU L 20 9 4 11 36.4 1 3 33.3 0 0 - 2 1 3 0 0 0 0 2 -
p118
aVMichael Cage SEA 05/16/1993 SEA @ HOU L 18 6 3 5 60.0 0 0 - 0 2 0.0 3 4 7 1 1 1 1 2 -
p119
aVVincent Askew SEA 05/16/1993 SEA @ HOU L 13 9 3 5 60.0 0 0 - 3 4 75.0 2 1 3 0 0 0 2 0 -
p120
aVGary Payton SEA 05/15/1993 SEA @ HOU L 25 8 4 8 50.0 0 0 - 0 0 - 0 0 0 2 0 0 2 2 -
p121
aVDana Barros SEA 05/15/1993 SEA @ HOU L 15 7 2 6 33.3 2 5 40.0 1 2 50.0 0 1 1 2 1 0 2 0 -
p122
aVDerrick McKey SEA 05/15/1993 SEA @ HOU L 25 4 2 5 40.0 0 0 - 0 0 - 3 1 4 1 1 0 2 1 -
p123
aVVincent Askew SEA 05/15/1993 SEA @ HOU L 17 10 3 6 50.0 0 0 - 4 6 66.7 0 2 2 1 0 0 1 1 -
p124
aVRicky Pierce SEA 05/15/1993 SEA @ HOU L 24 10 5 14 35.7 0 0 - 0 0 - 1 1 2 0 1 0 4 0 -
p125
aVNate McMillan SEA 05/15/1993 SEA @ HOU L 24 6 2 3 66.7 2 2 100.0 0 4 0.0 2 0 2 4 3 1 0 2 -
p126
aVSam Perkins SEA 05/15/1993 SEA @ HOU L 28 7 3 6 50.0 1 2 50.0 0 0 - 1 8 9 3 1 1 2 1 -
p127
aVGerald Paddio SEA 05/15/1993 SEA @ HOU L 5 4 2 2 100.0 0 0 - 0 0 - 0 0 0 0 1 0 0 0 -
p128
aVEddie Johnson SEA 05/15/1993 SEA @ HOU L 17 2 1 12 8.3 0 0 - 0 0 - 0 1 1 3 0 0 0 1 -
p129
aVSteve Scheffler SEA 05/15/1993 SEA @ HOU L 5 0 0 0 - 0 0 - 0 0 - 0 1 1 0 1 0 0 0 -
p130
aVShawn Kemp SEA 05/15/1993 SEA @ HOU L 30 12 4 11 36.4 0 0 - 4 4 100.0 4 1 5 2 1 0 1 5 -
p131
aVMichael Cage SEA 05/15/1993 SEA @ HOU L 25 9 4 8 50.0 0 0 - 1 2 50.0 3 6 9 0 3 1 4 2 -
p132
aVGary Payton SEA 05/12/1993 SEA vs. HOU W 32 22 10 19 52.6 1 1 100.0 1 1 100.0 2 1 3 3 0 0 3 5 -
p133
aVShawn Kemp SEA 05/12/1993 SEA vs. HOU W 31 8 2 6 33.3 0 0 - 4 4 100.0 1 8 9 3 3 2 2 3 -
p134
aVRicky Pierce SEA 05/12/1993 SEA vs. HOU W 32 19 4 13 30.8 1 1 100.0 10 11 90.9 0 1 1 4 0 0 0 2 -
p135
aVMichael Cage SEA 05/12/1993 SEA vs. HOU W 28 8 3 6 50.0 0 0 - 2 3 66.7 4 10 14 1 3 0 1 2 -
p136
aVDana Barros SEA 05/12/1993 SEA vs. HOU W 7 2 1 2 50.0 0 1 0.0 0 0 - 0 1 1 0 0 0 1 0 -
p137
aVDerrick McKey SEA 05/12/1993 SEA vs. HOU W 34 15 5 6 83.3 1 1 100.0 4 8 50.0 0 2 2 7 0 0 2 4 -
p138
aVSam Perkins SEA 05/12/1993 SEA vs. HOU W 33 23 7 14 50.0 5 6 83.3 4 4 100.0 0 6 6 2 1 1 0 2 -
p139
aVNate McMillan SEA 05/12/1993 SEA vs. HOU W 23 4 2 3 66.7 0 0 - 0 2 0.0 0 3 3 3 2 1 0 0 -
p140
aVEddie Johnson SEA 05/12/1993 SEA vs. HOU W 20 10 3 11 27.3 1 2 50.0 3 3 100.0 1 0 1 4 1 0 0 2 -
p141
aVEddie Johnson SEA 05/10/1993 SEA vs. HOU W 23 20 9 16 56.3 1 3 33.3 1 2 50.0 1 2 3 0 0 0 2 3 -
p142
aVSam Perkins SEA 05/10/1993 SEA vs. HOU W 33 11 5 12 41.7 1 4 25.0 0 0 - 1 8 9 5 1 2 2 1 -
p143
aVVincent Askew SEA 05/10/1993 SEA vs. HOU W 4 0 0 0 - 0 0 - 0 0 - 0 0 0 0 0 0 0 1 -
p144
aVGary Payton SEA 05/10/1993 SEA vs. HOU W 35 12 5 12 41.7 0 1 0.0 2 2 100.0 1 1 2 4 2 0 1 3 -
p145
aVRicky Pierce SEA 05/10/1993 SEA vs. HOU W 33 23 11 19 57.9 0 2 0.0 1 2 50.0 1 1 2 2 1 0 2 1 -
p146
aVNate McMillan SEA 05/10/1993 SEA vs. HOU W 16 2 0 0 - 0 0 - 2 2 100.0 0 3 3 10 2 0 1 0 -
p147
aVShawn Kemp SEA 05/10/1993 SEA vs. HOU W 36 14 6 13 46.2 0 0 - 2 2 100.0 5 6 11 5 1 1 2 5 -
p148
aVDana Barros SEA 05/10/1993 SEA vs. HOU W 6 2 1 1 100.0 0 0 - 0 0 - 0 0 0 0 0 0 0 0 -
p149
aVMichael Cage SEA 05/10/1993 SEA vs. HOU W 18 5 2 6 33.3 0 0 - 1 2 50.0 2 3 5 0 0 0 0 6 -
p150
aVDerrick McKey SEA 05/10/1993 SEA vs. HOU W 36 10 4 6 66.7 0 0 - 2 4 50.0 4 3 7 3 0 1 2 2 -
p151
aVGary Payton SEA 05/08/1993 SEA vs. UTH W 39 17 8 14 57.1 0 0 - 1 1 100.0 0 0 0 7 1 1 1 4 -
p152
aVShawn Kemp SEA 05/08/1993 SEA vs. UTH W 40 12 4 7 57.1 0 0 - 4 6 66.7 2 7 9 2 1 0 3 1 -
p153
aVMichael Cage SEA 05/08/1993 SEA vs. UTH W 16 2 1 3 33.3 0 0 - 0 0 - 1 1 2 1 0 0 1 3 -
p154
aVEddie Johnson SEA 05/08/1993 SEA vs. UTH W 20 12 6 14 42.9 0 0 - 0 0 - 0 1 1 5 0 1 0 2 -
p155
aVNate McMillan SEA 05/08/1993 SEA vs. UTH W 20 16 6 9 66.7 1 2 50.0 3 4 75.0 1 2 3 1 2 0 1 4 -
p156
aVDerrick McKey SEA 05/08/1993 SEA vs. UTH W 35 6 2 4 50.0 0 0 - 2 2 100.0 2 3 5 4 0 0 2 1 -
p157
aVRicky Pierce SEA 05/08/1993 SEA vs. UTH W 30 15 4 12 33.3 0 0 - 7 8 87.5 1 3 4 0 0 0 0 3 -
p158
aVSam Perkins SEA 05/08/1993 SEA vs. UTH W 40 20 7 15 46.7 4 8 50.0 2 2 100.0 1 12 13 1 0 0 0 3 -
p159
aVGary Payton SEA 05/06/1993 SEA @ UTH W 34 10 4 12 33.3 0 0 - 2 2 100.0 0 5 5 6 1 1 3 4 -
p160
aVVincent Askew SEA 05/06/1993 SEA @ UTH W 6 2 1 2 50.0 0 0 - 0 0 - 0 1 1 1 0 0 1 1 -
p161
aVShawn Kemp SEA 05/06/1993 SEA @ UTH W 39 16 8 13 61.5 0 0 - 0 0 - 5 6 11 0 3 5 3 3 -
p162
aVSam Perkins SEA 05/06/1993 SEA @ UTH W 37 14 7 15 46.7 0 2 0.0 0 0 - 2 6 8 0 0 2 3 2 -
p163
aVNate McMillan SEA 05/06/1993 SEA @ UTH W 18 2 1 4 25.0 0 0 - 0 0 - 1 1 2 4 1 0 0 4 -
p164
aVEddie Johnson SEA 05/06/1993 SEA @ UTH W 24 24 10 20 50.0 3 5 60.0 1 1 100.0 2 4 6 1 0 0 0 1 -
p165
aVMichael Cage SEA 05/06/1993 SEA @ UTH W 20 0 0 0 - 0 0 - 0 0 - 0 0 0 0 0 0 1 4 -
p166
aVRicky Pierce SEA 05/06/1993 SEA @ UTH W 24 9 3 10 30.0 1 1 100.0 2 2 100.0 0 5 5 3 1 0 0 1 -
p167
aVDerrick McKey SEA 05/06/1993 SEA @ UTH W 38 16 7 8 87.5 0 0 - 2 4 50.0 2 2 4 6 0 2 3 4 -
p168
aVRicky Pierce SEA 05/04/1993 SEA @ UTH L 32 11 4 10 40.0 1 1 100.0 2 2 100.0 0 2 2 5 0 0 3 2 -
p169
aVNate McMillan SEA 05/04/1993 SEA @ UTH L 18 0 0 3 0.0 0 2 0.0 0 0 - 1 1 2 2 1 0 2 4 -
p170
aVGary Payton SEA 05/04/1993 SEA @ UTH L 36 2 1 10 10.0 0 1 0.0 0 0 - 2 1 3 4 2 0 1 2 -
p171
aVShawn Kemp SEA 05/04/1993 SEA @ UTH L 22 4 2 5 40.0 0 0 - 0 0 - 0 4 4 0 0 1 2 4 -
p172
aVMichael Cage SEA 05/04/1993 SEA @ UTH L 27 4 2 3 66.7 0 0 - 0 2 0.0 5 4 9 0 0 0 0 2 -
p173
aVDerrick McKey SEA 05/04/1993 SEA @ UTH L 39 14 5 10 50.0 0 1 0.0 4 5 80.0 3 4 7 2 1 0 2 1 -
p174
aVSam Perkins SEA 05/04/1993 SEA @ UTH L 34 20 8 16 50.0 1 3 33.3 3 4 75.0 2 7 9 1 2 3 1 5 -
p175
aVEddie Johnson SEA 05/04/1993 SEA @ UTH L 22 20 8 19 42.1 2 4 50.0 2 2 100.0 0 4 4 0 0 0 1 6 -
p176
aVVincent Askew SEA 05/04/1993 SEA @ UTH L 5 3 1 3 33.3 0 0 - 1 1 100.0 0 1 1 1 0 0 0 0 -
p177
aVDana Barros SEA 05/04/1993 SEA @ UTH L 5 2 1 4 25.0 0 2 0.0 0 0 - 0 0 0 0 1 0 0 0 -
p178
aVMichael Cage SEA 05/02/1993 SEA vs. UTH L 18 0 0 1 0.0 0 0 - 0 0 - 0 1 1 1 0 1 2 4 -
p179
aVNate McMillan SEA 05/02/1993 SEA vs. UTH L 22 0 0 5 0.0 0 2 0.0 0 0 - 1 2 3 7 1 1 1 2 -
p180
aVRicky Pierce SEA 05/02/1993 SEA vs. UTH L 40 18 7 17 41.2 0 1 0.0 4 6 66.7 1 2 3 2 1 0 2 2 -
p181
aVDerrick McKey SEA 05/02/1993 SEA vs. UTH L 36 15 7 12 58.3 0 0 - 1 2 50.0 2 3 5 1 1 1 3 2 -
p182
aVGary Payton SEA 05/02/1993 SEA vs. UTH L 31 19 7 12 58.3 0 1 0.0 5 6 83.3 2 2 4 3 4 0 1 4 -
p183
aVShawn Kemp SEA 05/02/1993 SEA vs. UTH L 36 13 3 10 30.0 0 0 - 7 10 70.0 6 3 9 3 0 0 2 4 -
p184
aVEddie Johnson SEA 05/02/1993 SEA vs. UTH L 20 9 4 12 33.3 0 2 0.0 1 1 100.0 1 3 4 1 1 0 1 1 -
p185
aVDana Barros SEA 05/02/1993 SEA vs. UTH L 4 2 1 1 100.0 0 0 - 0 0 - 0 1 1 0 0 0 0 1 -
p186
aVSam Perkins SEA 05/02/1993 SEA vs. UTH L 33 9 4 13 30.8 1 4 25.0 0 0 - 6 4 10 3 1 0 0 3 -
p187
aVDerrick McKey SEA 04/30/1993 SEA vs. UTH W 27 6 2 3 66.7 0 0 - 2 2 100.0 0 5 5 3 1 0 0 2 -
p188
aVRicky Pierce SEA 04/30/1993 SEA vs. UTH W 30 16 6 14 42.9 1 1 100.0 3 4 75.0 1 0 1 2 0 0 1 1 -
p189
aVEddie Johnson SEA 04/30/1993 SEA vs. UTH W 21 8 4 11 36.4 0 1 0.0 0 0 - 0 0 0 0 0 0 1 2 -
p190
aVGary Payton SEA 04/30/1993 SEA vs. UTH W 33 15 7 15 46.7 0 0 - 1 1 100.0 1 5 6 1 2 0 3 4 -
p191
aVGerald Paddio SEA 04/30/1993 SEA vs. UTH W 3 2 1 2 50.0 0 0 - 0 0 - 0 0 0 0 0 0 1 0 -
p192
aVMichael Cage SEA 04/30/1993 SEA vs. UTH W 30 6 3 5 60.0 0 0 - 0 0 - 4 4 8 1 0 0 0 0 -
p193
aVSam Perkins SEA 04/30/1993 SEA vs. UTH W 27 9 2 6 33.3 0 3 0.0 5 5 100.0 2 7 9 0 0 0 2 4 -
p194
aVVincent Askew SEA 04/30/1993 SEA vs. UTH W 3 3 0 2 0.0 0 0 - 3 6 50.0 1 0 1 0 0 0 0 0 -
p195
aVDana Barros SEA 04/30/1993 SEA vs. UTH W 3 2 0 1 0.0 0 0 - 2 2 100.0 0 0 0 0 0 0 0 0 -
p196
aVNate McMillan SEA 04/30/1993 SEA vs. UTH W 27 3 1 7 14.3 0 1 0.0 1 2 50.0 1 4 5 9 3 0 1 2 -
p197
aVShawn Kemp SEA 04/30/1993 SEA vs. UTH W 34 29 10 17 58.8 0 0 - 9 9 100.0 11 6 17 2 3 3 4 4 -
p198
aVSteve Scheffler SEA 04/30/1993 SEA vs. UTH W 2 0 0 0 - 0 0 - 0 0 - 0 0 0 0 0 0 0 0 -
p199
a.