(lp0
VPLAYER TEAM DATE MATCHUP W/L MIN PTS FGM FGA FG% 3PM 3PA 3P% FTM FTA FT% OREB DREB REB AST STL BLK TOV PF +/-
p1
aVArmen Gilliam NJN 05/06/1994 NJN vs. NYK L 34 10 4 10 40.0 0 1 0.0 2 2 100.0 0 7 7 0 1 1 1 1 -
p2
aVChris Morris NJN 05/06/1994 NJN vs. NYK L 24 7 2 10 20.0 1 7 14.3 2 2 100.0 2 4 6 1 1 2 1 2 -
p3
aVDavid Wesley NJN 05/06/1994 NJN vs. NYK L 7 9 3 4 75.0 1 2 50.0 2 2 100.0 0 0 0 1 2 0 4 0 -
p4
aVDerrick Coleman NJN 05/06/1994 NJN vs. NYK L 39 31 5 15 33.3 0 1 0.0 21 25 84.0 6 3 9 3 0 2 3 3 -
p5
aVJohnny Newman NJN 05/06/1994 NJN vs. NYK L 14 8 2 7 28.6 1 2 50.0 3 3 100.0 2 2 4 0 0 0 1 5 -
p6
aVBenoit Benjamin NJN 05/06/1994 NJN vs. NYK L 21 4 1 3 33.3 0 0 - 2 2 100.0 1 6 7 0 0 3 0 5 -
p7
aVRick Mahorn NJN 05/06/1994 NJN vs. NYK L 11 0 0 0 - 0 0 - 0 0 - 0 1 1 0 0 1 0 4 -
p8
aVP.J. Brown NJN 05/06/1994 NJN vs. NYK L 15 2 0 1 0.0 0 0 - 2 2 100.0 2 2 4 1 0 0 1 5 -
p9
aVKevin Edwards NJN 05/06/1994 NJN vs. NYK L 31 7 3 9 33.3 0 0 - 1 1 100.0 1 1 2 2 1 1 0 0 -
p10
aVKenny Anderson NJN 05/06/1994 NJN vs. NYK L 43 12 5 14 35.7 1 2 50.0 1 5 20.0 2 3 5 7 3 0 2 2 -
p11
aVRex Walters NJN 05/06/1994 NJN vs. NYK L 1 2 1 1 100.0 0 0 - 0 0 - 0 0 0 0 0 0 0 0 -
p12
aVKenny Anderson NJN 05/04/1994 NJN vs. NYK W 48 17 5 14 35.7 1 3 33.3 6 6 100.0 0 1 1 11 0 0 1 2 -
p13
aVJohnny Newman NJN 05/04/1994 NJN vs. NYK W 15 2 1 3 33.3 0 1 0.0 0 0 - 0 0 0 2 2 0 0 1 -
p14
aVBenoit Benjamin NJN 05/04/1994 NJN vs. NYK W 28 9 2 5 40.0 0 0 - 5 6 83.3 1 4 5 1 0 2 0 4 -
p15
aVDerrick Coleman NJN 05/04/1994 NJN vs. NYK W 49 25 11 19 57.9 2 2 100.0 1 2 50.0 6 11 17 3 0 0 3 3 -
p16
aVArmen Gilliam NJN 05/04/1994 NJN vs. NYK W 32 16 6 13 46.2 0 0 - 4 6 66.7 0 6 6 0 0 3 1 4 -
p17
aVDavid Wesley NJN 05/04/1994 NJN vs. NYK W 5 0 0 2 0.0 0 2 0.0 0 0 - 0 0 0 2 0 0 0 0 -
p18
aVKevin Edwards NJN 05/04/1994 NJN vs. NYK W 46 16 6 14 42.9 0 0 - 4 4 100.0 1 4 5 3 3 0 3 3 -
p19
aVRick Mahorn NJN 05/04/1994 NJN vs. NYK W 5 0 0 1 0.0 0 0 - 0 0 - 1 2 3 0 0 0 1 3 -
p20
aVP.J. Brown NJN 05/04/1994 NJN vs. NYK W 13 0 0 2 0.0 0 0 - 0 0 - 0 0 0 1 0 1 0 2 -
p21
aVChris Morris NJN 05/04/1994 NJN vs. NYK W 24 8 3 10 30.0 0 3 0.0 2 2 100.0 1 2 3 1 2 3 2 4 -
p22
aVKevin Edwards NJN 05/01/1994 NJN @ NYK L 35 11 3 12 25.0 0 1 0.0 5 5 100.0 3 2 5 3 0 0 3 4 -
p23
aVKenny Anderson NJN 05/01/1994 NJN @ NYK L 42 21 6 15 40.0 0 0 - 9 13 69.2 0 1 1 3 3 0 2 5 -
p24
aVJayson Williams NJN 05/01/1994 NJN @ NYK L 4 1 0 0 - 0 0 - 1 2 50.0 1 0 1 0 0 0 2 1 -
p25
aVChris Morris NJN 05/01/1994 NJN @ NYK L 27 15 4 14 28.6 1 6 16.7 6 6 100.0 6 3 9 3 2 0 1 5 -
p26
aVArmen Gilliam NJN 05/01/1994 NJN @ NYK L 19 4 1 5 20.0 0 0 - 2 3 66.7 0 2 2 1 1 2 0 1 -
p27
aVP.J. Brown NJN 05/01/1994 NJN @ NYK L 21 10 2 4 50.0 0 0 - 6 6 100.0 2 2 4 0 0 1 2 3 -
p28
aVDavid Wesley NJN 05/01/1994 NJN @ NYK L 6 0 0 1 0.0 0 0 - 0 0 - 0 0 0 0 0 0 0 0 -
p29
aVDerrick Coleman NJN 05/01/1994 NJN @ NYK L 43 15 4 17 23.5 0 1 0.0 7 11 63.6 4 17 21 3 2 3 5 4 -
p30
aVRick Mahorn NJN 05/01/1994 NJN @ NYK L 3 0 0 0 - 0 0 - 0 0 - 0 0 0 0 0 0 0 0 -
p31
aVJohnny Newman NJN 05/01/1994 NJN @ NYK L 13 2 0 1 0.0 0 0 - 2 2 100.0 0 1 1 0 0 0 1 2 -
p32
aVBenoit Benjamin NJN 05/01/1994 NJN @ NYK L 27 2 1 3 33.3 0 0 - 0 0 - 2 3 5 0 0 2 4 3 -
p33
aVJohnny Newman NJN 04/29/1994 NJN @ NYK L 12 0 0 2 0.0 0 1 0.0 0 2 0.0 0 0 0 0 0 2 1 3 -
p34
aVKevin Edwards NJN 04/29/1994 NJN @ NYK L 36 15 6 15 40.0 0 1 0.0 3 4 75.0 3 1 4 1 1 0 3 2 -
p35
aVDerrick Coleman NJN 04/29/1994 NJN @ NYK L 42 27 7 17 41.2 3 5 60.0 10 12 83.3 3 7 10 1 0 0 7 2 -
p36
aVBenoit Benjamin NJN 04/29/1994 NJN @ NYK L 32 6 3 6 50.0 0 0 - 0 0 - 1 3 4 0 2 1 1 4 -
p37
aVArmen Gilliam NJN 04/29/1994 NJN @ NYK L 27 12 4 6 66.7 0 0 - 4 5 80.0 1 9 10 0 0 1 1 1 -
p38
aVP.J. Brown NJN 04/29/1994 NJN @ NYK L 7 0 0 2 0.0 0 0 - 0 0 - 0 0 0 1 0 0 0 3 -
p39
aVChris Morris NJN 04/29/1994 NJN @ NYK L 23 7 3 9 33.3 1 4 25.0 0 0 - 2 2 4 2 0 0 2 3 -
p40
aVKenny Anderson NJN 04/29/1994 NJN @ NYK L 48 13 3 11 27.3 1 5 20.0 6 9 66.7 0 5 5 6 3 0 4 2 -
p41
aVJayson Williams NJN 04/29/1994 NJN @ NYK L 13 0 0 3 0.0 0 0 - 0 0 - 2 0 2 0 0 0 0 4 -
p42
a.