(lp0
VPLAYER TEAM DATE MATCHUP W/L MIN PTS FGM FGA FG% 3PM 3PA 3P% FTM FTA FT% OREB DREB REB AST STL BLK TOV PF +/-
p1
aVJojo English CHI 05/22/1994 CHI @ NYK L 1 0 0 0 - 0 0 - 0 0 - 0 0 0 0 0 0 0 0 -
p2
aVHorace Grant CHI 05/22/1994 CHI @ NYK L 36 17 7 14 50.0 0 0 - 3 5 60.0 0 4 4 1 0 0 0 5 -
p3
aVB.J. Armstrong CHI 05/22/1994 CHI @ NYK L 38 8 4 9 44.4 0 1 0.0 0 2 0.0 0 3 3 0 0 0 2 1 -
p4
aVToni Kukoc CHI 05/22/1994 CHI @ NYK L 19 9 4 10 40.0 1 5 20.0 0 0 - 0 4 4 1 0 0 1 0 -
p5
aVBill Cartwright CHI 05/22/1994 CHI @ NYK L 25 2 1 5 20.0 0 0 - 0 0 - 1 3 4 1 1 0 0 4 -
p6
aVLuc Longley CHI 05/22/1994 CHI @ NYK L 14 1 0 2 0.0 0 0 - 1 2 50.0 0 2 2 1 1 0 1 3 -
p7
aVBill Wennington CHI 05/22/1994 CHI @ NYK L 7 3 1 2 50.0 0 0 - 1 1 100.0 0 1 1 0 0 0 0 3 -
p8
aVSteve Kerr CHI 05/22/1994 CHI @ NYK L 18 0 0 2 0.0 0 0 - 0 0 - 1 2 3 2 1 0 0 0 -
p9
aVScottie Pippen CHI 05/22/1994 CHI @ NYK L 43 20 8 22 36.4 1 6 16.7 3 6 50.0 2 14 16 5 1 1 3 3 -
p10
aVScott Williams CHI 05/22/1994 CHI @ NYK L 12 2 0 0 - 0 0 - 2 4 50.0 1 3 4 0 0 1 1 0 -
p11
aVPete Myers CHI 05/22/1994 CHI @ NYK L 27 15 7 8 87.5 0 0 - 1 1 100.0 2 1 3 3 0 2 1 1 -
p12
aVToni Kukoc CHI 05/20/1994 CHI vs. NYK W 13 6 1 2 50.0 0 0 - 4 4 100.0 0 2 2 2 0 0 4 3 -
p13
aVHorace Grant CHI 05/20/1994 CHI vs. NYK W 39 16 6 14 42.9 0 0 - 4 5 80.0 3 9 12 4 2 2 0 1 -
p14
aVSteve Kerr CHI 05/20/1994 CHI vs. NYK W 21 7 3 7 42.9 1 4 25.0 0 0 - 0 1 1 0 0 0 0 2 -
p15
aVPete Myers CHI 05/20/1994 CHI vs. NYK W 26 10 4 6 66.7 0 0 - 2 5 40.0 1 1 2 3 0 1 1 1 -
p16
aVScottie Pippen CHI 05/20/1994 CHI vs. NYK W 40 13 5 16 31.3 0 3 0.0 3 3 100.0 5 6 11 5 4 2 4 0 -
p17
aVB.J. Armstrong CHI 05/20/1994 CHI vs. NYK W 34 20 6 16 37.5 1 3 33.3 7 9 77.8 0 4 4 1 2 0 0 2 -
p18
aVJojo English CHI 05/20/1994 CHI vs. NYK W 6 2 1 2 50.0 0 1 0.0 0 0 - 0 2 2 0 0 0 0 0 -
p19
aVScott Williams CHI 05/20/1994 CHI vs. NYK W 13 2 1 5 20.0 0 0 - 0 0 - 2 3 5 2 1 1 1 1 -
p20
aVJohn Paxson CHI 05/20/1994 CHI vs. NYK W 2 0 0 0 - 0 0 - 0 0 - 0 0 0 0 0 0 0 0 -
p21
aVLuc Longley CHI 05/20/1994 CHI vs. NYK W 24 8 3 6 50.0 0 0 - 2 2 100.0 3 3 6 3 1 1 3 4 -
p22
aVBill Cartwright CHI 05/20/1994 CHI vs. NYK W 22 9 3 9 33.3 0 0 - 3 3 100.0 5 2 7 3 1 1 1 3 -
p23
aVScottie Pippen CHI 05/18/1994 CHI @ NYK L 36 23 8 18 44.4 3 6 50.0 4 4 100.0 0 4 4 4 1 0 5 4 -
p24
aVBill Cartwright CHI 05/18/1994 CHI @ NYK L 29 4 2 5 40.0 0 0 - 0 0 - 2 4 6 2 0 0 1 5 -
p25
aVSteve Kerr CHI 05/18/1994 CHI @ NYK L 19 2 1 2 50.0 0 0 - 0 0 - 0 0 0 2 1 0 0 2 -
p26
aVHorace Grant CHI 05/18/1994 CHI @ NYK L 37 14 7 12 58.3 0 0 - 0 0 - 2 2 4 2 0 0 1 1 -
p27
aVJohn Paxson CHI 05/18/1994 CHI @ NYK L 11 0 0 0 - 0 0 - 0 0 - 0 1 1 0 0 0 0 0 -
p28
aVB.J. Armstrong CHI 05/18/1994 CHI @ NYK L 36 21 9 12 75.0 1 2 50.0 2 3 66.7 0 6 6 1 2 0 1 2 -
p29
aVLuc Longley CHI 05/18/1994 CHI @ NYK L 18 6 3 8 37.5 0 0 - 0 0 - 1 5 6 4 1 1 4 3 -
p30
aVToni Kukoc CHI 05/18/1994 CHI @ NYK L 22 7 3 4 75.0 1 2 50.0 0 2 0.0 0 2 2 4 0 1 0 3 -
p31
aVScott Williams CHI 05/18/1994 CHI @ NYK L 11 4 2 5 40.0 0 0 - 0 0 - 0 1 1 0 0 0 1 1 -
p32
aVPete Myers CHI 05/18/1994 CHI @ NYK L 21 5 2 7 28.6 0 0 - 1 2 50.0 3 1 4 1 0 1 3 2 -
p33
aVToni Kukoc CHI 05/15/1994 CHI vs. NYK W 21 9 1 7 14.3 0 3 0.0 7 8 87.5 0 3 3 6 1 0 2 2 -
p34
aVB.J. Armstrong CHI 05/15/1994 CHI vs. NYK W 33 10 4 11 36.4 1 1 100.0 1 1 100.0 0 0 0 5 0 0 1 1 -
p35
aVJohn Paxson CHI 05/15/1994 CHI vs. NYK W 18 6 3 3 100.0 0 0 - 0 0 - 0 0 0 1 0 0 0 3 -
p36
aVLuc Longley CHI 05/15/1994 CHI vs. NYK W 15 6 3 7 42.9 0 0 - 0 0 - 1 3 4 1 1 0 1 4 -
p37
aVHorace Grant CHI 05/15/1994 CHI vs. NYK W 38 18 7 9 77.8 0 0 - 4 4 100.0 3 4 7 4 4 2 0 2 -
p38
aVSteve Kerr CHI 05/15/1994 CHI vs. NYK W 15 2 1 4 25.0 0 1 0.0 0 0 - 0 2 2 0 1 0 0 0 -
p39
aVBill Wennington CHI 05/15/1994 CHI vs. NYK W 5 0 0 0 - 0 0 - 0 0 - 0 0 0 1 0 0 0 1 -
p40
aVScottie Pippen CHI 05/15/1994 CHI vs. NYK W 35 25 10 21 47.6 2 7 28.6 3 3 100.0 2 6 8 6 2 0 1 2 -
p41
aVScott Williams CHI 05/15/1994 CHI vs. NYK W 13 9 4 5 80.0 0 0 - 1 1 100.0 1 0 1 1 3 0 1 1 -
p42
aVPete Myers CHI 05/15/1994 CHI vs. NYK W 19 6 3 6 50.0 0 0 - 0 0 - 0 2 2 0 2 0 2 1 -
p43
aVBill Cartwright CHI 05/15/1994 CHI vs. NYK W 28 4 1 5 20.0 0 0 - 2 2 100.0 1 5 6 0 0 0 2 4 -
p44
aVJojo English CHI 05/13/1994 CHI vs. NYK W 8 0 0 1 0.0 0 0 - 0 0 - 0 0 0 0 0 0 0 1 -
p45
aVScott Williams CHI 05/13/1994 CHI vs. NYK W 13 6 2 4 50.0 0 0 - 2 5 40.0 3 2 5 0 0 0 2 2 -
p46
aVSteve Kerr CHI 05/13/1994 CHI vs. NYK W 21 2 1 4 25.0 0 2 0.0 0 0 - 0 1 1 1 0 0 1 1 -
p47
aVToni Kukoc CHI 05/13/1994 CHI vs. NYK W 13 8 2 6 33.3 1 2 50.0 3 6 50.0 1 3 4 4 0 1 1 1 -
p48
aVLuc Longley CHI 05/13/1994 CHI vs. NYK W 7 6 2 2 100.0 0 0 - 2 2 100.0 0 3 3 0 0 0 0 3 -
p49
aVB.J. Armstrong CHI 05/13/1994 CHI vs. NYK W 41 18 6 8 75.0 1 1 100.0 5 6 83.3 0 0 0 5 0 0 3 3 -
p50
aVBill Cartwright CHI 05/13/1994 CHI vs. NYK W 32 14 5 11 45.5 0 0 - 4 5 80.0 4 2 6 3 0 0 1 5 -
p51
aVHorace Grant CHI 05/13/1994 CHI vs. NYK W 35 16 8 11 72.7 0 0 - 0 0 - 5 3 8 6 0 2 1 4 -
p52
aVScottie Pippen CHI 05/13/1994 CHI vs. NYK W 40 25 10 20 50.0 2 4 50.0 3 3 100.0 0 7 7 4 2 1 2 3 -
p53
aVPete Myers CHI 05/13/1994 CHI vs. NYK W 20 6 2 5 40.0 0 1 0.0 2 5 40.0 1 0 1 4 2 0 1 4 -
p54
aVBill Wennington CHI 05/13/1994 CHI vs. NYK W 7 3 1 2 50.0 0 0 - 1 2 50.0 4 0 4 1 0 0 0 3 -
p55
aVJohn Paxson CHI 05/13/1994 CHI vs. NYK W 3 0 0 1 0.0 0 0 - 0 0 - 0 0 0 0 0 0 0 0 -
p56
aVScott Williams CHI 05/11/1994 CHI @ NYK L 12 2 1 4 25.0 0 0 - 0 0 - 0 0 0 0 0 0 1 2 -
p57
aVJojo English CHI 05/11/1994 CHI @ NYK L 17 0 0 2 0.0 0 1 0.0 0 2 0.0 1 0 1 1 1 0 0 0 -
p58
aVScottie Pippen CHI 05/11/1994 CHI @ NYK L 33 22 5 15 33.3 2 5 40.0 10 10 100.0 3 1 4 2 2 0 3 6 -
p59
aVPete Myers CHI 05/11/1994 CHI @ NYK L 16 2 1 3 33.3 0 0 - 0 0 - 1 0 1 1 0 0 3 3 -
p60
aVSteve Kerr CHI 05/11/1994 CHI @ NYK L 17 2 1 6 16.7 0 2 0.0 0 0 - 0 1 1 1 2 0 0 1 -
p61
aVToni Kukoc CHI 05/11/1994 CHI @ NYK L 24 12 4 9 44.4 0 1 0.0 4 6 66.7 2 4 6 1 1 1 1 0 -
p62
aVLuc Longley CHI 05/11/1994 CHI @ NYK L 20 2 1 3 33.3 0 0 - 0 0 - 0 4 4 1 1 0 3 4 -
p63
aVBill Cartwright CHI 05/11/1994 CHI @ NYK L 21 1 0 1 0.0 0 0 - 1 2 50.0 2 8 10 1 1 0 0 2 -
p64
aVHorace Grant CHI 05/11/1994 CHI @ NYK L 38 23 7 16 43.8 1 1 100.0 8 8 100.0 1 3 4 0 3 1 1 1 -
p65
aVJohn Paxson CHI 05/11/1994 CHI @ NYK L 3 0 0 1 0.0 0 0 - 0 0 - 0 0 0 0 0 0 0 0 -
p66
aVBill Wennington CHI 05/11/1994 CHI @ NYK L 4 2 1 1 100.0 0 0 - 0 0 - 0 1 1 0 0 0 0 2 -
p67
aVB.J. Armstrong CHI 05/11/1994 CHI @ NYK L 35 23 6 11 54.5 1 1 100.0 10 10 100.0 1 2 3 6 1 0 1 3 -
p68
aVSteve Kerr CHI 05/08/1994 CHI @ NYK L 24 5 2 3 66.7 1 2 50.0 0 0 - 1 2 3 2 0 0 0 4 -
p69
aVPete Myers CHI 05/08/1994 CHI @ NYK L 16 2 1 3 33.3 0 1 0.0 0 0 - 0 1 1 1 0 0 2 3 -
p70
aVScott Williams CHI 05/08/1994 CHI @ NYK L 8 2 1 4 25.0 0 0 - 0 0 - 1 2 3 1 1 0 0 3 -
p71
aVScottie Pippen CHI 05/08/1994 CHI @ NYK L 36 24 7 19 36.8 1 4 25.0 9 10 90.0 1 3 4 7 2 0 5 5 -
p72
aVToni Kukoc CHI 05/08/1994 CHI @ NYK L 18 9 3 7 42.9 3 3 100.0 0 0 - 1 1 2 4 1 0 4 2 -
p73
aVB.J. Armstrong CHI 05/08/1994 CHI @ NYK L 40 17 6 14 42.9 1 2 50.0 4 4 100.0 0 2 2 3 2 0 0 1 -
p74
aVJohn Paxson CHI 05/08/1994 CHI @ NYK L 7 0 0 2 0.0 0 1 0.0 0 0 - 0 0 0 0 0 0 0 2 -
p75
aVLuc Longley CHI 05/08/1994 CHI @ NYK L 25 7 3 7 42.9 0 0 - 1 1 100.0 4 4 8 4 1 2 3 4 -
p76
aVBill Cartwright CHI 05/08/1994 CHI @ NYK L 23 7 2 5 40.0 0 0 - 3 4 75.0 2 1 3 1 0 0 0 3 -
p77
aVHorace Grant CHI 05/08/1994 CHI @ NYK L 43 13 6 9 66.7 0 0 - 1 1 100.0 1 5 6 3 0 2 2 1 -
p78
aVBill Wennington CHI 05/03/1994 CHI @ CLE W 3 0 0 0 - 0 0 - 0 0 - 0 0 0 0 0 0 0 2 -
p79
aVSteve Kerr CHI 05/03/1994 CHI @ CLE W 16 4 1 2 50.0 1 1 100.0 1 1 100.0 0 1 1 1 2 0 0 1 -
p80
aVToni Kukoc CHI 05/03/1994 CHI @ CLE W 21 18 6 11 54.5 1 1 100.0 5 6 83.3 4 2 6 1 2 0 0 2 -
p81
aVJojo English CHI 05/03/1994 CHI @ CLE W 9 0 0 1 0.0 0 1 0.0 0 0 - 0 0 0 0 0 1 0 0 -
p82
aVScott Williams CHI 05/03/1994 CHI @ CLE W 31 6 2 9 22.2 0 0 - 2 2 100.0 1 6 7 0 2 1 2 5 -
p83
aVPete Myers CHI 05/03/1994 CHI @ CLE W 32 4 1 4 25.0 0 1 0.0 2 4 50.0 0 1 1 4 1 0 0 3 -
p84
aVScottie Pippen CHI 05/03/1994 CHI @ CLE W 47 23 10 22 45.5 0 4 0.0 3 4 75.0 1 10 11 6 3 1 8 3 -
p85
aVLuc Longley CHI 05/03/1994 CHI @ CLE W 19 12 4 8 50.0 0 0 - 4 4 100.0 3 3 6 0 0 3 3 5 -
p86
aVHorace Grant CHI 05/03/1994 CHI @ CLE W 47 14 5 12 41.7 0 0 - 4 8 50.0 3 3 6 3 1 3 2 2 -
p87
aVJohn Paxson CHI 05/03/1994 CHI @ CLE W 1 0 0 0 - 0 0 - 0 0 - 0 0 0 0 0 0 0 0 -
p88
aVB.J. Armstrong CHI 05/03/1994 CHI @ CLE W 39 14 5 8 62.5 0 0 - 4 5 80.0 1 4 5 2 1 0 0 3 -
p89
aVJohn Paxson CHI 05/01/1994 CHI vs. CLE W 4 0 0 0 - 0 0 - 0 0 - 0 0 0 0 0 0 0 1 -
p90
aVScott Williams CHI 05/01/1994 CHI vs. CLE W 19 9 3 7 42.9 0 0 - 3 3 100.0 4 5 9 3 0 0 0 5 -
p91
aVPete Myers CHI 05/01/1994 CHI vs. CLE W 28 14 5 7 71.4 0 1 0.0 4 4 100.0 0 1 1 5 2 0 1 2 -
p92
aVJojo English CHI 05/01/1994 CHI vs. CLE W 11 9 3 5 60.0 1 1 100.0 2 2 100.0 0 0 0 1 0 0 1 3 -
p93
aVScottie Pippen CHI 05/01/1994 CHI vs. CLE W 33 22 9 19 47.4 1 3 33.3 3 3 100.0 0 6 6 2 3 1 0 5 -
p94
aVToni Kukoc CHI 05/01/1994 CHI vs. CLE W 27 4 2 4 50.0 0 1 0.0 0 0 - 1 2 3 11 0 0 3 0 -
p95
aVHorace Grant CHI 05/01/1994 CHI vs. CLE W 41 18 7 11 63.6 0 0 - 4 6 66.7 5 7 12 1 0 3 2 4 -
p96
aVB.J. Armstrong CHI 05/01/1994 CHI vs. CLE W 33 16 6 9 66.7 1 1 100.0 3 4 75.0 0 1 1 2 0 0 0 2 -
p97
aVSteve Kerr CHI 05/01/1994 CHI vs. CLE W 15 4 1 2 50.0 1 1 100.0 1 1 100.0 0 1 1 1 0 0 0 1 -
p98
aVBill Cartwright CHI 05/01/1994 CHI vs. CLE W 3 0 0 1 0.0 0 0 - 0 0 - 1 0 1 0 0 0 1 0 -
p99
aVBill Wennington CHI 05/01/1994 CHI vs. CLE W 9 0 0 1 0.0 0 0 - 0 0 - 0 0 0 0 0 0 0 1 -
p100
aVLuc Longley CHI 05/01/1994 CHI vs. CLE W 17 9 3 4 75.0 0 0 - 3 6 50.0 1 4 5 1 0 1 2 4 -
p101
aVJojo English CHI 04/29/1994 CHI vs. CLE W 6 3 1 1 100.0 0 0 - 1 2 50.0 0 0 0 0 0 0 0 0 -
p102
aVBill Cartwright CHI 04/29/1994 CHI vs. CLE W 6 0 0 1 0.0 0 0 - 0 0 - 1 0 1 0 0 1 0 0 -
p103
aVB.J. Armstrong CHI 04/29/1994 CHI vs. CLE W 31 6 3 8 37.5 0 0 - 0 0 - 0 0 0 0 0 0 1 3 -
p104
aVSteve Kerr CHI 04/29/1994 CHI vs. CLE W 20 7 2 4 50.0 2 3 66.7 1 1 100.0 0 1 1 0 0 0 0 1 -
p105
aVJohn Paxson CHI 04/29/1994 CHI vs. CLE W 9 0 0 0 - 0 0 - 0 0 - 0 0 0 4 2 0 0 0 -
p106
aVScott Williams CHI 04/29/1994 CHI vs. CLE W 19 21 8 14 57.1 0 0 - 5 6 83.3 2 2 4 0 0 0 0 3 -
p107
aVBill Wennington CHI 04/29/1994 CHI vs. CLE W 12 0 0 0 - 0 0 - 0 0 - 0 1 1 2 0 1 1 2 -
p108
aVPete Myers CHI 04/29/1994 CHI vs. CLE W 30 6 3 7 42.9 0 0 - 0 0 - 2 1 3 6 1 0 3 1 -
p109
aVHorace Grant CHI 04/29/1994 CHI vs. CLE W 39 13 5 12 41.7 0 0 - 3 5 60.0 7 4 11 2 0 3 1 2 -
p110
aVLuc Longley CHI 04/29/1994 CHI vs. CLE W 11 6 3 3 100.0 0 0 - 0 1 0.0 0 1 1 3 0 0 1 4 -
p111
aVScottie Pippen CHI 04/29/1994 CHI vs. CLE W 41 31 13 24 54.2 0 3 0.0 5 6 83.3 3 9 12 5 4 1 6 2 -
p112
aVToni Kukoc CHI 04/29/1994 CHI vs. CLE W 16 11 4 7 57.1 1 1 100.0 2 2 100.0 2 6 8 2 0 0 1 2 -
p113
a.