(lp0
VPLAYER TEAM DATE MATCHUP W/L MIN PTS FGM FGA FG% 3PM 3PA 3P% FTM FTA FT% OREB DREB REB AST STL BLK TOV PF +/-
p1
aVSleepy Floyd SAN 05/05/1994 SAN @ UTH L 1 0 0 0 - 0 0 - 0 0 - 0 0 0 0 0 0 0 0 -
p2
aVTerry Cummings SAN 05/05/1994 SAN @ UTH L 8 0 0 1 0.0 0 0 - 0 0 - 0 1 1 0 0 0 0 1 -
p3
aVWillie Anderson SAN 05/05/1994 SAN @ UTH L 31 9 4 12 33.3 1 1 100.0 0 0 - 0 0 0 7 1 0 0 3 -
p4
aVDennis Rodman SAN 05/05/1994 SAN @ UTH L 43 9 4 7 57.1 0 1 0.0 1 1 100.0 11 9 20 1 1 0 2 5 -
p5
aVDavid Robinson SAN 05/05/1994 SAN @ UTH L 45 27 11 21 52.4 0 0 - 5 8 62.5 1 11 12 4 1 2 2 4 -
p6
aVNegele Knight SAN 05/05/1994 SAN @ UTH L 29 7 3 12 25.0 0 2 0.0 1 1 100.0 0 0 0 5 1 0 4 1 -
p7
aVJ.R. Reid SAN 05/05/1994 SAN @ UTH L 8 6 3 4 75.0 0 0 - 0 1 0.0 0 0 0 0 1 0 0 1 -
p8
aVDale Ellis SAN 05/05/1994 SAN @ UTH L 42 24 10 19 52.6 4 8 50.0 0 1 0.0 3 0 3 0 0 0 1 3 -
p9
aVVinny Del Negro SAN 05/05/1994 SAN @ UTH L 16 6 3 7 42.9 0 2 0.0 0 0 - 0 0 0 4 0 0 1 2 -
p10
aVLloyd Daniels SAN 05/05/1994 SAN @ UTH L 17 2 1 4 25.0 0 2 0.0 0 0 - 0 2 2 0 0 0 1 2 -
p11
aVAntoine Carr SAN 05/03/1994 SAN @ UTH L 24 16 5 9 55.6 0 0 - 6 7 85.7 1 0 1 1 1 1 0 4 -
p12
aVDavid Robinson SAN 05/03/1994 SAN @ UTH L 34 16 8 21 38.1 0 1 0.0 0 0 - 7 4 11 1 0 0 2 4 -
p13
aVJack Haley SAN 05/03/1994 SAN @ UTH L 4 4 1 1 100.0 0 0 - 2 2 100.0 1 2 3 1 0 0 0 0 -
p14
aVTerry Cummings SAN 05/03/1994 SAN @ UTH L 22 6 2 5 40.0 0 0 - 2 4 50.0 8 3 11 0 0 1 1 2 -
p15
aVNegele Knight SAN 05/03/1994 SAN @ UTH L 28 5 2 9 22.2 0 0 - 1 2 50.0 2 2 4 4 0 0 3 5 -
p16
aVJ.R. Reid SAN 05/03/1994 SAN @ UTH L 21 4 2 9 22.2 0 0 - 0 0 - 1 5 6 1 0 0 0 5 -
p17
aVDale Ellis SAN 05/03/1994 SAN @ UTH L 28 5 2 10 20.0 1 5 20.0 0 0 - 0 4 4 0 1 0 1 1 -
p18
aVLloyd Daniels SAN 05/03/1994 SAN @ UTH L 19 4 1 4 25.0 0 1 0.0 2 2 100.0 0 2 2 1 0 0 1 0 -
p19
aVSleepy Floyd SAN 05/03/1994 SAN @ UTH L 17 1 0 4 0.0 0 0 - 1 2 50.0 0 0 0 0 0 0 2 2 -
p20
aVVinny Del Negro SAN 05/03/1994 SAN @ UTH L 20 4 2 8 25.0 0 0 - 0 0 - 1 3 4 4 1 0 1 0 -
p21
aVWillie Anderson SAN 05/03/1994 SAN @ UTH L 23 7 3 8 37.5 0 0 - 1 4 25.0 2 1 3 0 0 1 2 2 -
p22
aVJ.R. Reid SAN 04/30/1994 SAN vs. UTH L 8 2 0 2 0.0 0 0 - 2 2 100.0 0 1 1 0 0 1 1 0 -
p23
aVSleepy Floyd SAN 04/30/1994 SAN vs. UTH L 14 3 1 3 33.3 0 0 - 1 2 50.0 0 1 1 1 0 0 1 0 -
p24
aVJack Haley SAN 04/30/1994 SAN vs. UTH L 3 4 1 3 33.3 0 0 - 2 2 100.0 1 0 1 0 0 0 0 2 -
p25
aVTerry Cummings SAN 04/30/1994 SAN vs. UTH L 23 8 1 5 20.0 0 0 - 6 6 100.0 0 3 3 1 2 1 3 5 -
p26
aVDavid Robinson SAN 04/30/1994 SAN vs. UTH L 30 12 2 14 14.3 0 0 - 8 10 80.0 2 7 9 2 1 5 3 4 -
p27
aVLloyd Daniels SAN 04/30/1994 SAN vs. UTH L 19 13 5 8 62.5 3 4 75.0 0 0 - 1 3 4 2 0 0 0 1 -
p28
aVDale Ellis SAN 04/30/1994 SAN vs. UTH L 22 3 1 7 14.3 0 2 0.0 1 2 50.0 0 3 3 0 1 0 1 1 -
p29
aVNegele Knight SAN 04/30/1994 SAN vs. UTH L 23 16 4 8 50.0 0 0 - 8 8 100.0 0 1 1 1 1 0 0 0 -
p30
aVAntoine Carr SAN 04/30/1994 SAN vs. UTH L 6 0 0 0 - 0 0 - 0 0 - 0 0 0 1 0 1 0 1 -
p31
aVDennis Rodman SAN 04/30/1994 SAN vs. UTH L 41 14 7 12 58.3 0 2 0.0 0 3 0.0 9 8 17 0 2 4 2 5 -
p32
aVWillie Anderson SAN 04/30/1994 SAN vs. UTH L 22 2 1 4 25.0 0 0 - 0 0 - 1 1 2 2 0 0 1 0 -
p33
aVVinny Del Negro SAN 04/30/1994 SAN vs. UTH L 29 7 2 5 40.0 1 1 100.0 2 3 66.7 0 1 1 5 0 0 2 2 -
p34
aVNegele Knight SAN 04/28/1994 SAN vs. UTH W 28 9 4 12 33.3 0 1 0.0 1 1 100.0 1 0 1 2 1 0 0 3 -
p35
aVAntoine Carr SAN 04/28/1994 SAN vs. UTH W 7 2 0 2 0.0 0 0 - 2 2 100.0 0 0 0 1 0 0 0 2 -
p36
aVLloyd Daniels SAN 04/28/1994 SAN vs. UTH W 11 3 1 4 25.0 1 1 100.0 0 0 - 1 0 1 0 0 1 0 1 -
p37
aVDennis Rodman SAN 04/28/1994 SAN vs. UTH W 30 2 1 5 20.0 0 2 0.0 0 2 0.0 4 7 11 1 3 0 2 4 -
p38
aVJack Haley SAN 04/28/1994 SAN vs. UTH W 4 5 2 4 50.0 0 0 - 1 2 50.0 1 2 3 1 0 0 0 1 -
p39
aVTerry Cummings SAN 04/28/1994 SAN vs. UTH W 19 18 8 11 72.7 0 0 - 2 2 100.0 2 8 10 1 3 1 0 2 -
p40
aVVinny Del Negro SAN 04/28/1994 SAN vs. UTH W 28 12 5 7 71.4 1 1 100.0 1 2 50.0 0 2 2 5 0 0 2 2 -
p41
aVDale Ellis SAN 04/28/1994 SAN vs. UTH W 22 10 4 7 57.1 0 2 0.0 2 2 100.0 0 0 0 1 1 0 1 1 -
p42
aVWillie Anderson SAN 04/28/1994 SAN vs. UTH W 30 15 6 13 46.2 0 0 - 3 3 100.0 0 3 3 3 4 1 1 2 -
p43
aVDavid Robinson SAN 04/28/1994 SAN vs. UTH W 37 25 9 17 52.9 0 0 - 7 9 77.8 3 5 8 7 1 3 2 2 -
p44
aVJ.R. Reid SAN 04/28/1994 SAN vs. UTH W 19 3 1 6 16.7 0 0 - 1 2 50.0 2 3 5 2 0 1 0 4 -
p45
aVSleepy Floyd SAN 04/28/1994 SAN vs. UTH W 5 2 1 1 100.0 0 0 - 0 0 - 0 0 0 0 0 0 1 1 -
p46
a.