(lp0
VPLAYER TEAM DATE MATCHUP W/L MIN PTS FGM FGA FG% 3PM 3PA 3P% FTM FTA FT% OREB DREB REB AST STL BLK TOV PF +/-
p1
aVPatrick Ewing NYK 06/22/1994 NYK @ HOU L 44 17 7 17 41.2 0 0 - 3 6 50.0 4 6 10 1 1 2 5 3 -
p2
aVCharles Smith NYK 06/22/1994 NYK @ HOU L 27 10 4 7 57.1 0 0 - 2 4 50.0 2 3 5 1 0 1 0 2 -
p3
aVCharles Oakley NYK 06/22/1994 NYK @ HOU L 42 10 4 9 44.4 0 0 - 2 2 100.0 5 9 14 3 0 0 3 6 -
p4
aVAnthony Mason NYK 06/22/1994 NYK @ HOU L 31 6 3 4 75.0 0 0 - 0 0 - 2 7 9 2 0 0 1 1 -
p5
aVHubert Davis NYK 06/22/1994 NYK @ HOU L 4 3 1 2 50.0 1 1 100.0 0 0 - 0 0 0 0 0 0 0 1 -
p6
aVJohn Starks NYK 06/22/1994 NYK @ HOU L 42 8 2 18 11.1 0 11 0.0 4 4 100.0 1 1 2 2 0 0 0 5 -
p7
aVDerek Harper NYK 06/22/1994 NYK @ HOU L 38 23 8 16 50.0 2 5 40.0 5 6 83.3 0 0 0 5 2 0 2 4 -
p8
aVGreg Anthony NYK 06/22/1994 NYK @ HOU L 12 7 2 5 40.0 1 3 33.3 2 2 100.0 0 0 0 3 2 0 0 1 -
p9
aVGreg Anthony NYK 06/19/1994 NYK @ HOU L 8 0 0 2 0.0 0 0 - 0 0 - 0 0 0 2 0 1 0 2 -
p10
aVHerb Williams NYK 06/19/1994 NYK @ HOU L 1 0 0 0 - 0 0 - 0 0 - 0 0 0 0 0 0 0 1 -
p11
aVDerek Harper NYK 06/19/1994 NYK @ HOU L 42 10 2 10 20.0 1 5 20.0 5 6 83.3 1 3 4 10 4 0 1 3 -
p12
aVCharles Smith NYK 06/19/1994 NYK @ HOU L 27 11 5 10 50.0 0 0 - 1 1 100.0 2 1 3 0 0 0 2 5 -
p13
aVAnthony Mason NYK 06/19/1994 NYK @ HOU L 28 7 3 9 33.3 0 0 - 1 2 50.0 3 4 7 1 0 0 0 2 -
p14
aVCharles Oakley NYK 06/19/1994 NYK @ HOU L 43 12 5 11 45.5 0 0 - 2 2 100.0 1 8 9 0 1 0 1 2 -
p15
aVPatrick Ewing NYK 06/19/1994 NYK @ HOU L 45 17 6 20 30.0 0 0 - 5 5 100.0 6 9 15 3 0 4 3 4 -
p16
aVJohn Starks NYK 06/19/1994 NYK @ HOU L 46 27 9 18 50.0 5 9 55.6 4 5 80.0 1 1 2 8 2 0 2 5 -
p17
aVDerek Harper NYK 06/17/1994 NYK vs. HOU W 40 14 6 13 46.2 0 2 0.0 2 3 66.7 2 1 3 7 1 0 2 2 -
p18
aVAnthony Mason NYK 06/17/1994 NYK vs. HOU W 30 17 6 11 54.5 0 0 - 5 8 62.5 3 6 9 1 0 0 3 4 -
p19
aVCharles Smith NYK 06/17/1994 NYK vs. HOU W 27 6 1 7 14.3 0 1 0.0 4 6 66.7 4 2 6 1 3 1 1 3 -
p20
aVGreg Anthony NYK 06/17/1994 NYK vs. HOU W 10 0 0 4 0.0 0 1 0.0 0 0 - 0 1 1 4 0 0 0 0 -
p21
aVJohn Starks NYK 06/17/1994 NYK vs. HOU W 39 19 7 14 50.0 1 4 25.0 4 6 66.7 0 7 7 6 3 0 2 1 -
p22
aVCharles Oakley NYK 06/17/1994 NYK vs. HOU W 43 10 3 8 37.5 0 0 - 4 4 100.0 1 5 6 2 1 0 3 4 -
p23
aVPatrick Ewing NYK 06/17/1994 NYK vs. HOU W 43 25 11 21 52.4 1 1 100.0 2 2 100.0 5 7 12 1 2 8 3 4 -
p24
aVHerb Williams NYK 06/17/1994 NYK vs. HOU W 1 0 0 0 - 0 0 - 0 0 - 0 0 0 0 0 0 0 0 -
p25
aVHubert Davis NYK 06/17/1994 NYK vs. HOU W 7 0 0 1 0.0 0 0 - 0 0 - 1 0 1 0 0 0 0 1 -
p26
aVAnthony Mason NYK 06/15/1994 NYK vs. HOU W 30 2 1 4 25.0 0 0 - 0 1 0.0 1 3 4 2 2 0 1 3 -
p27
aVCharles Smith NYK 06/15/1994 NYK vs. HOU W 27 10 5 15 33.3 0 1 0.0 0 0 - 2 1 3 3 0 1 1 3 -
p28
aVGreg Anthony NYK 06/15/1994 NYK vs. HOU W 10 4 2 4 50.0 0 1 0.0 0 0 - 1 1 2 1 1 0 1 1 -
p29
aVCharles Oakley NYK 06/15/1994 NYK vs. HOU W 40 16 5 8 62.5 0 0 - 6 8 75.0 9 11 20 3 1 0 2 4 -
p30
aVPatrick Ewing NYK 06/15/1994 NYK vs. HOU W 41 16 8 28 28.6 0 0 - 0 2 0.0 5 10 15 3 1 1 1 6 -
p31
aVDerek Harper NYK 06/15/1994 NYK vs. HOU W 41 21 7 15 46.7 5 10 50.0 2 2 100.0 1 2 3 5 2 1 1 4 -
p32
aVAnthony Bonner NYK 06/15/1994 NYK vs. HOU W 6 2 1 1 100.0 0 0 - 0 0 - 1 0 1 0 0 0 1 0 -
p33
aVJohn Starks NYK 06/15/1994 NYK vs. HOU W 45 20 6 11 54.5 2 5 40.0 6 8 75.0 1 1 2 4 0 0 4 2 -
p34
aVHubert Davis NYK 06/12/1994 NYK vs. HOU L 6 0 0 1 0.0 0 0 - 0 0 - 0 0 0 0 0 1 0 0 -
p35
aVJohn Starks NYK 06/12/1994 NYK vs. HOU L 43 20 6 16 37.5 3 9 33.3 5 7 71.4 0 2 2 9 1 0 0 5 -
p36
aVGreg Anthony NYK 06/12/1994 NYK vs. HOU L 9 2 1 5 20.0 0 1 0.0 0 0 - 0 0 0 1 0 0 0 1 -
p37
aVDerek Harper NYK 06/12/1994 NYK vs. HOU L 39 21 9 15 60.0 3 7 42.9 0 0 - 2 5 7 3 4 0 3 4 -
p38
aVAnthony Bonner NYK 06/12/1994 NYK vs. HOU L 5 2 1 1 100.0 0 0 - 0 1 0.0 0 1 1 0 0 0 0 0 -
p39
aVAnthony Mason NYK 06/12/1994 NYK vs. HOU L 28 10 3 7 42.9 0 0 - 4 5 80.0 2 3 5 1 1 0 2 3 -
p40
aVPatrick Ewing NYK 06/12/1994 NYK vs. HOU L 46 18 9 29 31.0 0 2 0.0 0 0 - 6 7 13 0 1 7 3 3 -
p41
aVCharles Oakley NYK 06/12/1994 NYK vs. HOU L 40 7 3 8 37.5 0 0 - 1 2 50.0 6 4 10 1 1 1 1 5 -
p42
aVCharles Smith NYK 06/12/1994 NYK vs. HOU L 24 9 3 5 60.0 0 0 - 3 4 75.0 2 2 4 2 0 0 2 4 -
p43
aVCharles Oakley NYK 06/10/1994 NYK @ HOU W 37 10 5 9 55.6 0 0 - 0 0 - 2 8 10 4 2 0 2 2 -
p44
aVDerek Harper NYK 06/10/1994 NYK @ HOU W 37 18 7 11 63.6 4 6 66.7 0 0 - 0 1 1 7 3 0 3 2 -
p45
aVCharles Smith NYK 06/10/1994 NYK @ HOU W 28 10 4 8 50.0 0 0 - 2 2 100.0 1 3 4 3 0 3 1 5 -
p46
aVPatrick Ewing NYK 06/10/1994 NYK @ HOU W 46 16 7 19 36.8 0 0 - 2 2 100.0 4 9 13 2 2 6 6 4 -
p47
aVJohn Starks NYK 06/10/1994 NYK @ HOU W 40 19 6 11 54.5 3 4 75.0 4 4 100.0 0 5 5 9 3 1 5 4 -
p48
aVAnthony Mason NYK 06/10/1994 NYK @ HOU W 32 13 5 7 71.4 0 0 - 3 4 75.0 1 3 4 0 0 0 1 2 -
p49
aVHerb Williams NYK 06/10/1994 NYK @ HOU W 1 0 0 0 - 0 0 - 0 0 - 0 0 0 0 0 0 0 0 -
p50
aVHubert Davis NYK 06/10/1994 NYK @ HOU W 6 1 0 0 - 0 0 - 1 3 33.3 0 0 0 0 0 0 0 0 -
p51
aVGreg Anthony NYK 06/10/1994 NYK @ HOU W 13 4 2 4 50.0 0 1 0.0 0 0 - 1 1 2 3 0 0 1 3 -
p52
aVCharles Oakley NYK 06/08/1994 NYK @ HOU L 40 12 6 11 54.5 0 0 - 0 0 - 5 9 14 4 2 0 3 4 -
p53
aVCharles Smith NYK 06/08/1994 NYK @ HOU L 27 9 4 7 57.1 0 0 - 1 2 50.0 1 4 5 2 1 1 1 1 -
p54
aVDerek Harper NYK 06/08/1994 NYK @ HOU L 29 8 3 10 30.0 2 4 50.0 0 0 - 1 2 3 5 1 0 0 2 -
p55
aVAnthony Mason NYK 06/08/1994 NYK @ HOU L 26 5 1 5 20.0 0 0 - 3 5 60.0 2 8 10 2 2 0 0 5 -
p56
aVPatrick Ewing NYK 06/08/1994 NYK @ HOU L 43 23 10 26 38.5 0 2 0.0 3 4 75.0 2 7 9 2 2 2 1 5 -
p57
aVJohn Starks NYK 06/08/1994 NYK @ HOU L 38 11 3 18 16.7 2 8 25.0 3 5 60.0 0 2 2 3 2 0 4 3 -
p58
aVGreg Anthony NYK 06/08/1994 NYK @ HOU L 18 6 3 7 42.9 0 1 0.0 0 0 - 1 0 1 3 0 0 2 1 -
p59
aVHubert Davis NYK 06/08/1994 NYK @ HOU L 15 4 1 6 16.7 0 0 - 2 3 66.7 1 0 1 2 0 0 1 3 -
p60
aVHerb Williams NYK 06/08/1994 NYK @ HOU L 4 0 0 1 0.0 0 0 - 0 0 - 0 0 0 0 0 1 1 0 -
p61
aVCharles Oakley NYK 06/05/1994 NYK vs. IND W 41 14 6 13 46.2 0 0 - 2 2 100.0 5 3 8 1 0 0 2 1 -
p62
aVHerb Williams NYK 06/05/1994 NYK vs. IND W 1 0 0 0 - 0 0 - 0 0 - 0 0 0 0 0 0 0 0 -
p63
aVGreg Anthony NYK 06/05/1994 NYK vs. IND W 10 0 0 2 0.0 0 1 0.0 0 0 - 0 0 0 1 0 0 2 0 -
p64
aVJohn Starks NYK 06/05/1994 NYK vs. IND W 36 17 5 16 31.3 3 8 37.5 4 6 66.7 1 2 3 4 2 0 5 5 -
p65
aVCharles Smith NYK 06/05/1994 NYK vs. IND W 19 5 2 3 66.7 0 0 - 1 1 100.0 1 1 2 1 0 0 0 4 -
p66
aVPatrick Ewing NYK 06/05/1994 NYK vs. IND W 44 24 10 23 43.5 0 0 - 4 6 66.7 11 11 22 7 1 5 3 5 -
p67
aVDerek Harper NYK 06/05/1994 NYK vs. IND W 38 16 5 14 35.7 2 7 28.6 4 6 66.7 2 2 4 5 3 0 3 3 -
p68
aVHubert Davis NYK 06/05/1994 NYK vs. IND W 12 6 3 8 37.5 0 1 0.0 0 0 - 2 0 2 0 0 0 0 1 -
p69
aVAnthony Mason NYK 06/05/1994 NYK vs. IND W 39 12 6 10 60.0 0 0 - 0 0 - 6 4 10 3 1 0 2 5 -
p70
aVPatrick Ewing NYK 06/03/1994 NYK @ IND W 40 17 4 10 40.0 0 0 - 9 9 100.0 0 10 10 1 1 0 4 5 -
p71
aVGreg Anthony NYK 06/03/1994 NYK @ IND W 16 9 4 7 57.1 1 4 25.0 0 0 - 0 0 0 0 1 1 0 5 -
p72
aVAnthony Bonner NYK 06/03/1994 NYK @ IND W 2 0 0 0 - 0 0 - 0 0 - 0 1 1 0 0 0 1 0 -
p73
aVCharles Smith NYK 06/03/1994 NYK @ IND W 28 8 2 6 33.3 0 0 - 4 4 100.0 1 3 4 1 2 2 1 5 -
p74
aVCharles Oakley NYK 06/03/1994 NYK @ IND W 35 14 5 7 71.4 0 0 - 4 6 66.7 1 8 9 0 0 0 5 3 -
p75
aVDerek Harper NYK 06/03/1994 NYK @ IND W 32 11 5 11 45.5 0 2 0.0 1 2 50.0 0 0 0 4 5 0 1 2 -
p76
aVJohn Starks NYK 06/03/1994 NYK @ IND W 40 26 8 11 72.7 5 6 83.3 5 6 83.3 1 1 2 6 3 0 1 4 -
p77
aVHubert Davis NYK 06/03/1994 NYK @ IND W 8 2 0 3 0.0 0 1 0.0 2 2 100.0 0 0 0 0 0 0 1 0 -
p78
aVAnthony Mason NYK 06/03/1994 NYK @ IND W 31 11 3 5 60.0 0 0 - 5 6 83.3 2 5 7 3 5 1 9 3 -
p79
aVHerb Williams NYK 06/03/1994 NYK @ IND W 8 0 0 0 - 0 0 - 0 0 - 0 0 0 1 0 0 0 2 -
p80
aVHerb Williams NYK 06/01/1994 NYK vs. IND L 6 2 1 1 100.0 0 0 - 0 0 - 0 0 0 0 0 2 0 0 -
p81
aVCharles Oakley NYK 06/01/1994 NYK vs. IND L 42 12 3 9 33.3 0 0 - 6 6 100.0 3 10 13 7 2 0 3 4 -
p82
aVPatrick Ewing NYK 06/01/1994 NYK vs. IND L 42 29 10 15 66.7 1 1 100.0 8 9 88.9 0 2 2 1 0 4 2 4 -
p83
aVAnthony Mason NYK 06/01/1994 NYK vs. IND L 19 1 0 3 0.0 0 0 - 1 2 50.0 1 3 4 3 0 0 1 2 -
p84
aVDerek Harper NYK 06/01/1994 NYK vs. IND L 36 10 2 7 28.6 1 5 20.0 5 6 83.3 0 4 4 4 3 0 3 5 -
p85
aVHubert Davis NYK 06/01/1994 NYK vs. IND L 8 0 0 1 0.0 0 1 0.0 0 0 - 0 0 0 0 0 0 2 2 -
p86
aVJohn Starks NYK 06/01/1994 NYK vs. IND L 41 16 5 16 31.3 4 8 50.0 2 3 66.7 0 1 1 8 1 0 3 3 -
p87
aVGreg Anthony NYK 06/01/1994 NYK vs. IND L 12 0 0 1 0.0 0 1 0.0 0 0 - 0 0 0 1 2 0 3 0 -
p88
aVCharles Smith NYK 06/01/1994 NYK vs. IND L 34 16 6 10 60.0 0 0 - 4 4 100.0 0 6 6 1 1 0 2 4 -
p89
aVCharles Oakley NYK 05/30/1994 NYK @ IND L 43 10 3 8 37.5 0 0 - 4 8 50.0 4 11 15 2 0 1 8 3 -
p90
aVHubert Davis NYK 05/30/1994 NYK @ IND L 21 8 2 8 25.0 2 6 33.3 2 4 50.0 0 0 0 1 3 0 2 1 -
p91
aVDerek Harper NYK 05/30/1994 NYK @ IND L 30 9 4 12 33.3 1 5 20.0 0 0 - 0 2 2 2 1 0 3 6 -
p92
aVCharles Smith NYK 05/30/1994 NYK @ IND L 23 2 1 5 20.0 0 0 - 0 0 - 1 3 4 0 0 0 2 3 -
p93
aVPatrick Ewing NYK 05/30/1994 NYK @ IND L 40 25 9 18 50.0 0 0 - 7 7 100.0 5 8 13 3 2 2 4 5 -
p94
aVHerb Williams NYK 05/30/1994 NYK @ IND L 7 0 0 0 - 0 0 - 0 0 - 1 1 2 0 0 0 0 1 -
p95
aVGreg Anthony NYK 05/30/1994 NYK @ IND L 19 3 1 4 25.0 1 4 25.0 0 0 - 1 0 1 2 0 0 4 1 -
p96
aVJohn Starks NYK 05/30/1994 NYK @ IND L 26 14 6 13 46.2 2 3 66.7 0 0 - 0 2 2 4 1 0 0 3 -
p97
aVAnthony Mason NYK 05/30/1994 NYK @ IND L 31 6 0 1 0.0 0 0 - 6 6 100.0 3 2 5 0 1 0 1 3 -
p98
aVHubert Davis NYK 05/28/1994 NYK @ IND L 19 9 4 6 66.7 1 2 50.0 0 1 0.0 0 1 1 0 1 1 2 4 -
p99
aVHerb Williams NYK 05/28/1994 NYK @ IND L 19 4 2 3 66.7 0 0 - 0 0 - 1 1 2 0 1 1 2 2 -
p100
aVAnthony Mason NYK 05/28/1994 NYK @ IND L 18 11 3 6 50.0 0 0 - 5 6 83.3 1 3 4 1 0 0 0 1 -
p101
aVGreg Anthony NYK 05/28/1994 NYK @ IND L 17 5 2 6 33.3 0 3 0.0 1 3 33.3 0 0 0 4 1 0 2 1 -
p102
aVCharles Oakley NYK 05/28/1994 NYK @ IND L 37 12 4 12 33.3 0 0 - 4 7 57.1 5 4 9 3 3 0 3 5 -
p103
aVDerek Harper NYK 05/28/1994 NYK @ IND L 27 6 2 5 40.0 1 1 100.0 1 4 25.0 0 1 1 3 1 0 2 2 -
p104
aVJohn Starks NYK 05/28/1994 NYK @ IND L 36 12 2 8 25.0 1 4 25.0 7 12 58.3 1 1 2 1 1 0 3 4 -
p105
aVPatrick Ewing NYK 05/28/1994 NYK @ IND L 28 1 0 10 0.0 0 0 - 1 4 25.0 0 4 4 2 0 1 1 4 -
p106
aVCorey Gaines NYK 05/28/1994 NYK @ IND L 4 0 0 0 - 0 0 - 0 0 - 0 0 0 1 0 0 0 1 -
p107
aVRolando Blackman NYK 05/28/1994 NYK @ IND L 4 0 0 2 0.0 0 0 - 0 0 - 0 1 1 0 0 0 0 0 -
p108
aVCharles Smith NYK 05/28/1994 NYK @ IND L 24 8 3 6 50.0 0 0 - 2 2 100.0 3 2 5 0 1 1 3 3 -
p109
aVAnthony Bonner NYK 05/28/1994 NYK @ IND L 7 0 0 0 - 0 0 - 0 0 - 0 1 1 0 0 0 2 3 -
p110
aVGreg Anthony NYK 05/26/1994 NYK vs. IND W 17 3 1 4 25.0 1 4 25.0 0 0 - 0 1 1 5 1 0 1 2 -
p111
aVDerek Harper NYK 05/26/1994 NYK vs. IND W 36 18 8 12 66.7 2 3 66.7 0 3 0.0 1 5 6 8 1 0 1 2 -
p112
aVJohn Starks NYK 05/26/1994 NYK vs. IND W 22 9 4 8 50.0 0 3 0.0 1 4 25.0 1 0 1 1 0 0 1 4 -
p113
aVPatrick Ewing NYK 05/26/1994 NYK vs. IND W 45 32 12 22 54.5 0 0 - 8 10 80.0 7 6 13 3 3 2 6 5 -
p114
aVCharles Smith NYK 05/26/1994 NYK vs. IND W 24 2 1 4 25.0 0 0 - 0 0 - 0 4 4 1 2 2 2 3 -
p115
aVHubert Davis NYK 05/26/1994 NYK vs. IND W 22 1 0 6 0.0 0 1 0.0 1 1 100.0 0 4 4 0 0 0 3 3 -
p116
aVCharles Oakley NYK 05/26/1994 NYK vs. IND W 43 17 6 11 54.5 0 0 - 5 6 83.3 3 3 6 3 4 1 0 2 -
p117
aVAnthony Mason NYK 05/26/1994 NYK vs. IND W 28 7 2 8 25.0 0 0 - 3 4 75.0 6 4 10 1 0 1 2 4 -
p118
aVHerb Williams NYK 05/26/1994 NYK vs. IND W 3 0 0 1 0.0 0 0 - 0 0 - 1 1 2 0 0 2 0 1 -
p119
aVDerek Harper NYK 05/24/1994 NYK vs. IND W 26 5 2 4 50.0 1 3 33.3 0 2 0.0 0 0 0 5 5 0 2 3 -
p120
aVCharles Smith NYK 05/24/1994 NYK vs. IND W 28 6 2 4 50.0 0 0 - 2 2 100.0 1 2 3 1 0 1 0 4 -
p121
aVCharles Oakley NYK 05/24/1994 NYK vs. IND W 37 20 8 15 53.3 0 0 - 4 4 100.0 7 6 13 0 1 0 3 3 -
p122
aVHerb Williams NYK 05/24/1994 NYK vs. IND W 8 0 0 1 0.0 0 0 - 0 0 - 0 1 1 1 0 0 0 1 -
p123
aVJohn Starks NYK 05/24/1994 NYK vs. IND W 29 3 1 7 14.3 0 1 0.0 1 2 50.0 0 2 2 6 2 0 1 2 -
p124
aVGreg Anthony NYK 05/24/1994 NYK vs. IND W 23 16 5 11 45.5 3 7 42.9 3 4 75.0 1 0 1 4 3 0 1 5 -
p125
aVAnthony Mason NYK 05/24/1994 NYK vs. IND W 29 10 2 2 100.0 0 0 - 6 8 75.0 1 7 8 5 0 0 1 1 -
p126
aVPatrick Ewing NYK 05/24/1994 NYK vs. IND W 40 28 11 24 45.8 0 0 - 6 6 100.0 4 7 11 4 2 6 7 3 -
p127
aVHubert Davis NYK 05/24/1994 NYK vs. IND W 20 12 5 10 50.0 2 5 40.0 0 0 - 0 0 0 2 0 0 0 1 -
p128
aVGreg Anthony NYK 05/22/1994 NYK vs. CHI W 18 7 2 6 33.3 1 4 25.0 2 4 50.0 0 1 1 0 0 1 0 1 -
p129
aVAnthony Mason NYK 05/22/1994 NYK vs. CHI W 27 9 4 7 57.1 0 0 - 1 2 50.0 1 4 5 2 0 1 2 3 -
p130
aVJohn Starks NYK 05/22/1994 NYK vs. CHI W 29 10 2 11 18.2 2 7 28.6 4 6 66.7 0 1 1 3 1 0 2 4 -
p131
aVPatrick Ewing NYK 05/22/1994 NYK vs. CHI W 39 18 7 17 41.2 1 2 50.0 3 5 60.0 2 15 17 6 0 1 0 2 -
p132
aVCharles Smith NYK 05/22/1994 NYK vs. CHI W 23 11 4 8 50.0 0 0 - 3 3 100.0 2 0 2 1 0 2 0 3 -
p133
aVHubert Davis NYK 05/22/1994 NYK vs. CHI W 19 8 4 10 40.0 0 1 0.0 0 0 - 0 0 0 0 0 0 1 2 -
p134
aVHerb Williams NYK 05/22/1994 NYK vs. CHI W 9 1 0 2 0.0 0 0 - 1 2 50.0 1 2 3 1 1 0 0 3 -
p135
aVDerek Harper NYK 05/22/1994 NYK vs. CHI W 30 6 2 6 33.3 0 3 0.0 2 4 50.0 1 2 3 4 0 0 1 1 -
p136
aVCharles Oakley NYK 05/22/1994 NYK vs. CHI W 46 17 8 17 47.1 0 0 - 1 2 50.0 11 9 20 4 3 0 2 4 -
p137
aVHerb Williams NYK 05/20/1994 NYK @ CHI L 11 2 1 4 25.0 0 0 - 0 0 - 1 2 3 0 0 0 1 1 -
p138
aVRolando Blackman NYK 05/20/1994 NYK @ CHI L 5 5 2 3 66.7 1 1 100.0 0 0 - 0 0 0 0 0 0 0 1 -
p139
aVGreg Anthony NYK 05/20/1994 NYK @ CHI L 15 3 1 3 33.3 1 2 50.0 0 1 0.0 0 3 3 1 0 0 4 3 -
p140
aVAnthony Mason NYK 05/20/1994 NYK @ CHI L 16 0 0 2 0.0 0 0 - 0 0 - 1 2 3 4 1 0 0 1 -
p141
aVJohn Starks NYK 05/20/1994 NYK @ CHI L 35 18 6 12 50.0 4 7 57.1 2 2 100.0 0 2 2 7 2 0 4 6 -
p142
aVPatrick Ewing NYK 05/20/1994 NYK @ CHI L 41 26 9 18 50.0 0 1 0.0 8 10 80.0 3 11 14 1 1 4 4 4 -
p143
aVHubert Davis NYK 05/20/1994 NYK @ CHI L 25 1 0 7 0.0 0 2 0.0 1 1 100.0 0 0 0 1 1 0 0 2 -
p144
aVCorey Gaines NYK 05/20/1994 NYK @ CHI L 2 0 0 1 0.0 0 0 - 0 0 - 0 0 0 0 0 0 0 0 -
p145
aVDerek Harper NYK 05/20/1994 NYK @ CHI L 31 11 4 9 44.4 0 3 0.0 3 3 100.0 0 1 1 3 0 0 3 4 -
p146
aVAnthony Bonner NYK 05/20/1994 NYK @ CHI L 2 0 0 0 - 0 0 - 0 0 - 0 0 0 0 0 0 0 0 -
p147
aVCharles Oakley NYK 05/20/1994 NYK @ CHI L 41 10 4 10 40.0 0 0 - 2 3 66.7 1 6 7 0 2 0 1 4 -
p148
aVCharles Smith NYK 05/20/1994 NYK @ CHI L 16 3 1 6 16.7 0 0 - 1 2 50.0 1 1 2 0 0 1 0 4 -
p149
aVHerb Williams NYK 05/18/1994 NYK vs. CHI W 7 0 0 1 0.0 0 0 - 0 0 - 2 1 3 0 0 1 1 1 -
p150
aVGreg Anthony NYK 05/18/1994 NYK vs. CHI W 40 11 4 9 44.4 1 1 100.0 2 2 100.0 2 0 2 8 1 1 1 4 -
p151
aVJohn Starks NYK 05/18/1994 NYK vs. CHI W 35 13 4 9 44.4 1 3 33.3 4 5 80.0 0 0 0 6 2 0 2 1 -
p152
aVCharles Smith NYK 05/18/1994 NYK vs. CHI W 30 16 7 15 46.7 0 1 0.0 2 4 50.0 1 4 5 0 0 1 2 1 -
p153
aVPatrick Ewing NYK 05/18/1994 NYK vs. CHI W 42 20 9 21 42.9 0 0 - 2 7 28.6 3 10 13 1 2 2 1 2 -
p154
aVHubert Davis NYK 05/18/1994 NYK vs. CHI W 14 6 2 2 100.0 0 0 - 2 2 100.0 0 0 0 1 0 0 1 1 -
p155
aVAnthony Mason NYK 05/18/1994 NYK vs. CHI W 23 7 2 3 66.7 0 0 - 3 4 75.0 3 3 6 2 0 0 1 3 -
p156
aVCharles Oakley NYK 05/18/1994 NYK vs. CHI W 42 14 7 13 53.8 0 0 - 0 1 0.0 3 8 11 4 2 0 4 3 -
p157
aVCorey Gaines NYK 05/18/1994 NYK vs. CHI W 7 0 0 0 - 0 0 - 0 0 - 0 1 1 1 0 0 0 1 -
p158
aVGreg Anthony NYK 05/15/1994 NYK @ CHI L 42 6 2 13 15.4 2 6 33.3 0 2 0.0 1 2 3 6 4 1 4 4 -
p159
aVCharles Oakley NYK 05/15/1994 NYK @ CHI L 34 15 5 9 55.6 0 0 - 5 6 83.3 12 5 17 2 0 0 2 4 -
p160
aVHerb Williams NYK 05/15/1994 NYK @ CHI L 4 4 2 3 66.7 0 0 - 0 0 - 1 0 1 0 0 0 0 0 -
p161
aVCharles Smith NYK 05/15/1994 NYK @ CHI L 23 11 4 7 57.1 0 0 - 3 4 75.0 1 3 4 0 0 1 1 2 -
p162
aVJohn Starks NYK 05/15/1994 NYK @ CHI L 36 11 5 11 45.5 1 4 25.0 0 0 - 0 4 4 6 1 0 5 4 -
p163
aVAnthony Mason NYK 05/15/1994 NYK @ CHI L 28 13 6 8 75.0 0 0 - 1 1 100.0 1 4 5 1 0 0 1 3 -
p164
aVHubert Davis NYK 05/15/1994 NYK @ CHI L 23 5 2 7 28.6 1 3 33.3 0 1 0.0 1 0 1 3 0 0 4 3 -
p165
aVAnthony Bonner NYK 05/15/1994 NYK @ CHI L 4 0 0 0 - 0 0 - 0 0 - 0 1 1 0 0 0 2 1 -
p166
aVPatrick Ewing NYK 05/15/1994 NYK @ CHI L 44 18 7 14 50.0 0 1 0.0 4 5 80.0 0 10 10 2 0 1 2 3 -
p167
aVRolando Blackman NYK 05/15/1994 NYK @ CHI L 2 0 0 1 0.0 0 1 0.0 0 0 - 0 0 0 0 0 0 0 2 -
p168
aVAnthony Bonner NYK 05/13/1994 NYK @ CHI L 6 2 1 3 33.3 0 0 - 0 0 - 0 0 0 0 1 0 1 2 -
p169
aVPatrick Ewing NYK 05/13/1994 NYK @ CHI L 42 34 14 19 73.7 0 0 - 6 7 85.7 3 6 9 4 0 2 3 3 -
p170
aVAnthony Mason NYK 05/13/1994 NYK @ CHI L 26 10 4 7 57.1 0 0 - 2 3 66.7 0 2 2 3 1 0 0 2 -
p171
aVRolando Blackman NYK 05/13/1994 NYK @ CHI L 6 0 0 2 0.0 0 0 - 0 0 - 0 0 0 1 0 0 0 3 -
p172
aVHubert Davis NYK 05/13/1994 NYK @ CHI L 21 6 2 5 40.0 0 1 0.0 2 2 100.0 0 0 0 2 0 0 0 2 -
p173
aVCharles Oakley NYK 05/13/1994 NYK @ CHI L 37 12 4 6 66.7 0 0 - 4 6 66.7 4 5 9 1 1 0 3 3 -
p174
aVDerek Harper NYK 05/13/1994 NYK @ CHI L 13 4 1 3 33.3 0 1 0.0 2 2 100.0 0 0 0 1 0 0 0 0 -
p175
aVJohn Starks NYK 05/13/1994 NYK @ CHI L 34 21 4 10 40.0 2 4 50.0 11 14 78.6 1 3 4 6 4 0 1 3 -
p176
aVHerb Williams NYK 05/13/1994 NYK @ CHI L 6 0 0 0 - 0 0 - 0 0 - 0 0 0 0 0 0 0 2 -
p177
aVGreg Anthony NYK 05/13/1994 NYK @ CHI L 18 6 2 5 40.0 2 4 50.0 0 0 - 0 1 1 0 1 0 0 3 -
p178
aVCorey Gaines NYK 05/13/1994 NYK @ CHI L 15 0 0 3 0.0 0 1 0.0 0 0 - 0 1 1 0 0 0 0 2 -
p179
aVCharles Smith NYK 05/13/1994 NYK @ CHI L 16 7 2 4 50.0 0 0 - 3 4 75.0 2 2 4 0 1 0 3 5 -
p180
aVGreg Anthony NYK 05/11/1994 NYK vs. CHI W 13 3 0 3 0.0 0 1 0.0 3 4 75.0 1 0 1 1 0 0 2 2 -
p181
aVCharles Oakley NYK 05/11/1994 NYK vs. CHI W 34 9 4 7 57.1 0 0 - 1 2 50.0 3 3 6 4 1 0 4 3 -
p182
aVAnthony Mason NYK 05/11/1994 NYK vs. CHI W 34 15 7 13 53.8 0 0 - 1 1 100.0 3 11 14 6 1 0 5 3 -
p183
aVDerek Harper NYK 05/11/1994 NYK vs. CHI W 35 10 5 10 50.0 0 3 0.0 0 1 0.0 0 2 2 2 1 0 1 3 -
p184
aVAnthony Bonner NYK 05/11/1994 NYK vs. CHI W 11 5 1 1 100.0 0 0 - 3 4 75.0 1 0 1 1 1 0 1 3 -
p185
aVHubert Davis NYK 05/11/1994 NYK vs. CHI W 20 8 1 3 33.3 0 0 - 6 7 85.7 0 2 2 3 0 0 0 2 -
p186
aVCharles Smith NYK 05/11/1994 NYK vs. CHI W 18 4 2 4 50.0 0 0 - 0 1 0.0 0 1 1 0 0 2 0 5 -
p187
aVPatrick Ewing NYK 05/11/1994 NYK vs. CHI W 42 26 9 12 75.0 1 1 100.0 7 8 87.5 2 7 9 3 2 3 4 4 -
p188
aVJohn Starks NYK 05/11/1994 NYK vs. CHI W 22 13 4 11 36.4 3 8 37.5 2 2 100.0 0 1 1 1 1 0 3 4 -
p189
aVHerb Williams NYK 05/11/1994 NYK vs. CHI W 5 0 0 1 0.0 0 0 - 0 0 - 1 1 2 0 0 1 0 0 -
p190
aVRolando Blackman NYK 05/11/1994 NYK vs. CHI W 6 3 1 2 50.0 1 1 100.0 0 0 - 0 0 0 1 0 0 0 0 -
p191
aVHerb Williams NYK 05/08/1994 NYK vs. CHI W 4 4 2 2 100.0 0 0 - 0 0 - 0 0 0 0 1 0 1 1 -
p192
aVHubert Davis NYK 05/08/1994 NYK vs. CHI W 20 6 3 6 50.0 0 1 0.0 0 0 - 0 0 0 3 0 0 1 2 -
p193
aVCharles Smith NYK 05/08/1994 NYK vs. CHI W 22 7 3 4 75.0 0 0 - 1 2 50.0 0 1 1 3 0 2 0 3 -
p194
aVJohn Starks NYK 05/08/1994 NYK vs. CHI W 35 17 3 12 25.0 0 5 0.0 11 11 100.0 1 2 3 3 1 0 2 4 -
p195
aVDerek Harper NYK 05/08/1994 NYK vs. CHI W 24 8 3 6 50.0 1 2 50.0 1 2 50.0 0 1 1 2 2 0 1 3 -
p196
aVGreg Anthony NYK 05/08/1994 NYK vs. CHI W 24 6 2 4 50.0 1 3 33.3 1 2 50.0 0 1 1 3 0 1 1 2 -
p197
aVAnthony Mason NYK 05/08/1994 NYK vs. CHI W 24 11 4 7 57.1 0 0 - 3 4 75.0 5 1 6 1 0 2 0 3 -
p198
aVPatrick Ewing NYK 05/08/1994 NYK vs. CHI W 44 18 7 16 43.8 0 0 - 4 5 80.0 2 10 12 3 1 0 5 3 -
p199
aVAnthony Bonner NYK 05/08/1994 NYK vs. CHI W 12 2 1 3 33.3 0 0 - 0 0 - 1 1 2 0 0 0 0 2 -
p200
aVCharles Oakley NYK 05/08/1994 NYK vs. CHI W 31 11 4 8 50.0 0 0 - 3 3 100.0 3 6 9 2 2 0 1 4 -
p201
aVJohn Starks NYK 05/06/1994 NYK @ NJN W 32 16 5 8 62.5 1 3 33.3 5 6 83.3 0 4 4 4 1 0 2 4 -
p202
aVHubert Davis NYK 05/06/1994 NYK @ NJN W 16 4 1 5 20.0 1 3 33.3 1 1 100.0 0 1 1 0 0 0 0 2 -
p203
aVGreg Anthony NYK 05/06/1994 NYK @ NJN W 14 2 1 3 33.3 0 2 0.0 0 0 - 0 1 1 0 0 0 0 2 -
p204
aVCharles Smith NYK 05/06/1994 NYK @ NJN W 35 18 7 12 58.3 0 0 - 4 6 66.7 2 6 8 1 0 0 2 5 -
p205
aVAnthony Mason NYK 05/06/1994 NYK @ NJN W 13 0 0 0 - 0 0 - 0 0 - 0 1 1 0 0 0 1 0 -
p206
aVCharles Oakley NYK 05/06/1994 NYK @ NJN W 42 16 6 14 42.9 0 0 - 4 6 66.7 5 4 9 4 2 1 1 5 -
p207
aVDerek Harper NYK 05/06/1994 NYK @ NJN W 34 10 4 9 44.4 0 1 0.0 2 2 100.0 0 3 3 3 1 0 3 2 -
p208
aVAnthony Bonner NYK 05/06/1994 NYK @ NJN W 12 0 0 3 0.0 0 0 - 0 0 - 4 1 5 0 1 0 1 3 -
p209
aVPatrick Ewing NYK 05/06/1994 NYK @ NJN W 42 36 12 24 50.0 0 0 - 12 16 75.0 6 8 14 3 2 5 3 5 -
p210
aVAnthony Bonner NYK 05/04/1994 NYK @ NJN L 9 2 0 3 0.0 0 0 - 2 4 50.0 0 0 0 0 1 0 1 2 -
p211
aVDerek Harper NYK 05/04/1994 NYK @ NJN L 26 5 2 9 22.2 1 2 50.0 0 0 - 1 1 2 4 0 0 2 1 -
p212
aVJohn Starks NYK 05/04/1994 NYK @ NJN L 29 15 5 9 55.6 2 6 33.3 3 3 100.0 0 3 3 1 0 1 2 2 -
p213
aVGreg Anthony NYK 05/04/1994 NYK @ NJN L 27 7 3 6 50.0 1 1 100.0 0 0 - 0 3 3 1 0 0 0 3 -
p214
aVCharles Smith NYK 05/04/1994 NYK @ NJN L 20 10 4 6 66.7 0 0 - 2 2 100.0 2 1 3 1 1 1 3 5 -
p215
aVRolando Blackman NYK 05/04/1994 NYK @ NJN L 11 0 0 1 0.0 0 1 0.0 0 0 - 1 1 2 1 0 0 1 0 -
p216
aVCharles Oakley NYK 05/04/1994 NYK @ NJN L 43 17 4 12 33.3 0 0 - 9 9 100.0 6 10 16 1 1 0 3 4 -
p217
aVPatrick Ewing NYK 05/04/1994 NYK @ NJN L 49 27 10 24 41.7 0 0 - 7 12 58.3 3 11 14 3 3 5 5 5 -
p218
aVAnthony Mason NYK 05/04/1994 NYK @ NJN L 27 1 0 1 0.0 0 0 - 1 2 50.0 1 1 2 1 0 0 1 2 -
p219
aVHubert Davis NYK 05/04/1994 NYK @ NJN L 24 8 3 7 42.9 0 1 0.0 2 2 100.0 0 2 2 4 0 0 1 3 -
p220
aVJohn Starks NYK 05/01/1994 NYK vs. NJN W 21 7 1 6 16.7 0 2 0.0 5 5 100.0 0 0 0 3 0 0 2 2 -
p221
aVHerb Williams NYK 05/01/1994 NYK vs. NJN W 22 11 5 11 45.5 0 0 - 1 1 100.0 1 0 1 0 0 3 1 3 -
p222
aVGreg Anthony NYK 05/01/1994 NYK vs. NJN W 12 6 3 6 50.0 0 1 0.0 0 0 - 0 1 1 3 0 1 0 4 -
p223
aVPatrick Ewing NYK 05/01/1994 NYK vs. NJN W 16 11 5 11 45.5 0 0 - 1 2 50.0 2 4 6 1 2 1 1 1 -
p224
aVCharles Smith NYK 05/01/1994 NYK vs. NJN W 15 5 1 4 25.0 0 0 - 3 5 60.0 1 1 2 2 0 1 2 5 -
p225
aVAnthony Mason NYK 05/01/1994 NYK vs. NJN W 24 3 1 5 20.0 0 0 - 1 3 33.3 3 1 4 0 0 0 1 5 -
p226
aVCharles Oakley NYK 05/01/1994 NYK vs. NJN W 45 25 10 18 55.6 0 0 - 5 6 83.3 8 16 24 2 0 0 4 2 -
p227
aVDerek Harper NYK 05/01/1994 NYK vs. NJN W 37 5 2 12 16.7 1 3 33.3 0 0 - 1 3 4 8 1 0 3 4 -
p228
aVHubert Davis NYK 05/01/1994 NYK vs. NJN W 27 12 5 8 62.5 1 2 50.0 1 2 50.0 0 3 3 3 0 0 2 4 -
p229
aVAnthony Bonner NYK 05/01/1994 NYK vs. NJN W 21 5 2 4 50.0 0 0 - 1 2 50.0 4 2 6 1 1 0 2 3 -
p230
aVDerek Harper NYK 04/29/1994 NYK vs. NJN W 29 14 6 12 50.0 1 2 50.0 1 2 50.0 0 0 0 3 1 0 0 1 -
p231
aVPatrick Ewing NYK 04/29/1994 NYK vs. NJN W 44 25 7 23 30.4 0 0 - 11 14 78.6 3 10 13 5 1 2 6 2 -
p232
aVHubert Davis NYK 04/29/1994 NYK vs. NJN W 39 11 5 9 55.6 1 3 33.3 0 0 - 0 3 3 1 0 1 2 3 -
p233
aVAnthony Bonner NYK 04/29/1994 NYK vs. NJN W 21 7 3 3 100.0 0 0 - 1 2 50.0 4 5 9 0 0 0 1 3 -
p234
aVCharles Smith NYK 04/29/1994 NYK vs. NJN W 27 17 7 10 70.0 0 0 - 3 5 60.0 1 4 5 0 0 0 1 5 -
p235
aVJohn Starks NYK 04/29/1994 NYK vs. NJN W 9 2 1 5 20.0 0 0 - 0 0 - 0 1 1 3 1 0 1 2 -
p236
aVAnthony Mason NYK 04/29/1994 NYK vs. NJN W 18 2 1 2 50.0 0 0 - 0 0 - 1 1 2 1 0 0 0 2 -
p237
aVCharles Oakley NYK 04/29/1994 NYK vs. NJN W 34 7 3 9 33.3 0 0 - 1 1 100.0 3 5 8 2 3 1 1 3 -
p238
aVGreg Anthony NYK 04/29/1994 NYK vs. NJN W 19 6 2 4 50.0 2 4 50.0 0 0 - 0 1 1 2 2 1 2 4 -
p239
a.