(lp0
VPLAYER TEAM DATE MATCHUP W/L MIN PTS FGM FGA FG% 3PM 3PA 3P% FTM FTA FT% OREB DREB REB AST STL BLK TOV PF +/-
p1
aVJoe Kleine PHX 05/21/1994 PHX @ HOU L 15 1 0 5 0.0 0 0 - 1 2 50.0 3 2 5 0 0 1 1 2 -
p2
aVOliver Miller PHX 05/21/1994 PHX @ HOU L 8 2 1 2 50.0 0 0 - 0 0 - 0 2 2 0 0 0 2 1 -
p3
aVDanny Ainge PHX 05/21/1994 PHX @ HOU L 34 18 6 12 50.0 5 10 50.0 1 2 50.0 0 1 1 3 0 1 1 4 -
p4
aVA.C. Green PHX 05/21/1994 PHX @ HOU L 41 14 4 10 40.0 0 3 0.0 6 8 75.0 4 8 12 1 1 0 1 2 -
p5
aVCharles Barkley PHX 05/21/1994 PHX @ HOU L 48 24 9 19 47.4 2 7 28.6 4 5 80.0 3 12 15 4 3 0 2 4 -
p6
aVFrank Johnson PHX 05/21/1994 PHX @ HOU L 1 0 0 0 - 0 0 - 0 0 - 0 0 0 0 0 0 0 0 -
p7
aVDan Majerle PHX 05/21/1994 PHX @ HOU L 42 8 3 11 27.3 1 5 20.0 1 1 100.0 0 4 4 2 0 0 0 1 -
p8
aVKevin Johnson PHX 05/21/1994 PHX @ HOU L 48 25 9 22 40.9 0 2 0.0 7 7 100.0 0 2 2 11 0 0 3 1 -
p9
aVCedric Ceballos PHX 05/21/1994 PHX @ HOU L 3 2 1 2 50.0 0 0 - 0 0 - 0 1 1 0 0 0 0 0 -
p10
aVOliver Miller PHX 05/19/1994 PHX vs. HOU W 24 4 2 5 40.0 0 0 - 0 0 - 1 4 5 2 1 4 2 2 -
p11
aVA.C. Green PHX 05/19/1994 PHX vs. HOU W 37 22 9 10 90.0 2 3 66.7 2 6 33.3 3 7 10 1 1 0 1 5 -
p12
aVSkeeter Henry PHX 05/19/1994 PHX vs. HOU W 1 0 0 0 - 0 0 - 0 0 - 0 0 0 0 0 0 0 0 -
p13
aVElliot Perry PHX 05/19/1994 PHX vs. HOU W 1 0 0 0 - 0 0 - 0 0 - 0 0 0 0 0 0 0 0 -
p14
aVCedric Ceballos PHX 05/19/1994 PHX vs. HOU W 3 0 0 2 0.0 0 0 - 0 0 - 0 2 2 0 0 0 0 0 -
p15
aVDanny Ainge PHX 05/19/1994 PHX vs. HOU W 23 13 4 6 66.7 2 3 66.7 3 4 75.0 1 1 2 2 1 0 0 3 -
p16
aVDan Majerle PHX 05/19/1994 PHX vs. HOU W 35 2 1 7 14.3 0 3 0.0 0 0 - 1 0 1 2 0 1 1 4 -
p17
aVJoe Kleine PHX 05/19/1994 PHX vs. HOU W 27 15 6 12 50.0 0 0 - 3 4 75.0 1 2 3 1 1 1 0 4 -
p18
aVCharles Barkley PHX 05/19/1994 PHX vs. HOU W 39 18 6 14 42.9 1 2 50.0 5 6 83.3 2 13 15 6 1 2 3 3 -
p19
aVKevin Johnson PHX 05/19/1994 PHX vs. HOU W 44 28 10 21 47.6 0 1 0.0 8 8 100.0 0 5 5 13 2 0 1 0 -
p20
aVFrank Johnson PHX 05/19/1994 PHX vs. HOU W 5 0 0 3 0.0 0 0 - 0 0 - 2 0 2 0 0 0 0 1 -
p21
aVMark West PHX 05/19/1994 PHX vs. HOU W 1 1 0 0 - 0 0 - 1 2 50.0 1 0 1 0 0 0 0 0 -
p22
aVA.C. Green PHX 05/17/1994 PHX @ HOU L 26 8 3 7 42.9 1 2 50.0 1 3 33.3 1 3 4 0 0 0 1 1 -
p23
aVCharles Barkley PHX 05/17/1994 PHX @ HOU L 31 30 14 25 56.0 2 6 33.3 0 2 0.0 2 3 5 2 4 0 2 2 -
p24
aVSkeeter Henry PHX 05/17/1994 PHX @ HOU L 14 2 1 6 16.7 0 2 0.0 0 0 - 1 2 3 3 0 0 1 1 -
p25
aVCedric Ceballos PHX 05/17/1994 PHX @ HOU L 22 11 5 12 41.7 0 0 - 1 2 50.0 3 3 6 1 3 0 2 2 -
p26
aVElliot Perry PHX 05/17/1994 PHX @ HOU L 10 2 1 7 14.3 0 0 - 0 0 - 0 0 0 1 1 0 0 2 -
p27
aVKevin Johnson PHX 05/17/1994 PHX @ HOU L 27 10 4 13 30.8 0 1 0.0 2 2 100.0 0 0 0 2 0 0 0 2 -
p28
aVDan Majerle PHX 05/17/1994 PHX @ HOU L 20 0 0 6 0.0 0 2 0.0 0 0 - 2 0 2 1 1 0 0 0 -
p29
aVOliver Miller PHX 05/17/1994 PHX @ HOU L 30 13 5 6 83.3 0 0 - 3 3 100.0 4 3 7 3 2 1 2 3 -
p30
aVDanny Ainge PHX 05/17/1994 PHX @ HOU L 19 2 1 3 33.3 0 0 - 0 0 - 0 2 2 2 0 0 0 0 -
p31
aVFrank Johnson PHX 05/17/1994 PHX @ HOU L 14 2 1 5 20.0 0 0 - 0 0 - 0 0 0 1 1 0 1 3 -
p32
aVMark West PHX 05/17/1994 PHX @ HOU L 11 2 1 4 25.0 0 0 - 0 0 - 2 2 4 0 0 1 0 3 -
p33
aVJoe Kleine PHX 05/17/1994 PHX @ HOU L 16 4 2 3 66.7 0 0 - 0 0 - 0 5 5 0 0 1 1 1 -
p34
aVCedric Ceballos PHX 05/15/1994 PHX vs. HOU L 15 9 4 7 57.1 0 1 0.0 1 2 50.0 0 3 3 0 0 0 1 0 -
p35
aVDanny Ainge PHX 05/15/1994 PHX vs. HOU L 25 7 2 5 40.0 1 2 50.0 2 2 100.0 3 2 5 3 1 0 0 1 -
p36
aVOliver Miller PHX 05/15/1994 PHX vs. HOU L 8 0 0 0 - 0 0 - 0 0 - 0 1 1 0 0 0 3 2 -
p37
aVCharles Barkley PHX 05/15/1994 PHX vs. HOU L 41 19 7 21 33.3 1 4 25.0 4 4 100.0 4 10 14 1 0 1 4 1 -
p38
aVMark West PHX 05/15/1994 PHX vs. HOU L 16 2 0 0 - 0 0 - 2 4 50.0 2 2 4 0 0 1 0 4 -
p39
aVKevin Johnson PHX 05/15/1994 PHX vs. HOU L 47 38 15 31 48.4 2 3 66.7 6 7 85.7 1 3 4 12 0 0 4 3 -
p40
aVDan Majerle PHX 05/15/1994 PHX vs. HOU L 44 6 2 10 20.0 2 7 28.6 0 0 - 1 5 6 4 0 2 1 5 -
p41
aVA.C. Green PHX 05/15/1994 PHX vs. HOU L 38 9 3 9 33.3 0 2 0.0 3 4 75.0 2 7 9 1 1 0 2 3 -
p42
aVJoe Kleine PHX 05/15/1994 PHX vs. HOU L 5 6 3 3 100.0 0 0 - 0 0 - 1 0 1 1 0 0 0 2 -
p43
aVElliot Perry PHX 05/15/1994 PHX vs. HOU L 1 0 0 0 - 0 0 - 0 0 - 0 0 0 0 0 0 0 0 -
p44
aVOliver Miller PHX 05/13/1994 PHX vs. HOU L 11 0 0 0 - 0 0 - 0 0 - 0 4 4 3 2 2 0 3 -
p45
aVJoe Kleine PHX 05/13/1994 PHX vs. HOU L 7 0 0 2 0.0 0 0 - 0 0 - 0 1 1 1 0 1 0 1 -
p46
aVFrank Johnson PHX 05/13/1994 PHX vs. HOU L 1 0 0 0 - 0 0 - 0 0 - 0 0 0 0 0 0 0 0 -
p47
aVMark West PHX 05/13/1994 PHX vs. HOU L 10 2 1 2 50.0 0 0 - 0 0 - 0 1 1 0 0 1 1 3 -
p48
aVDan Majerle PHX 05/13/1994 PHX vs. HOU L 46 13 5 15 33.3 2 8 25.0 1 2 50.0 2 4 6 2 0 0 1 0 -
p49
aVA.C. Green PHX 05/13/1994 PHX vs. HOU L 29 11 3 6 50.0 2 2 100.0 3 3 100.0 1 5 6 1 0 1 1 2 -
p50
aVCharles Barkley PHX 05/13/1994 PHX vs. HOU L 46 18 9 22 40.9 0 4 0.0 0 0 - 4 10 14 5 2 1 4 3 -
p51
aVDanny Ainge PHX 05/13/1994 PHX vs. HOU L 21 4 1 3 33.3 1 2 50.0 1 2 50.0 3 2 5 2 0 0 2 3 -
p52
aVCedric Ceballos PHX 05/13/1994 PHX vs. HOU L 25 16 4 10 40.0 0 0 - 8 8 100.0 2 4 6 1 1 0 0 2 -
p53
aVKevin Johnson PHX 05/13/1994 PHX vs. HOU L 44 38 12 25 48.0 1 2 50.0 13 14 92.9 3 0 3 12 1 0 4 4 -
p54
aVCharles Barkley PHX 05/11/1994 PHX @ HOU W 50 34 11 18 61.1 3 6 50.0 9 10 90.0 2 13 15 6 3 2 3 3 -
p55
aVOliver Miller PHX 05/11/1994 PHX @ HOU W 19 2 1 2 50.0 0 0 - 0 0 - 1 6 7 2 0 0 1 4 -
p56
aVCedric Ceballos PHX 05/11/1994 PHX @ HOU W 31 12 6 15 40.0 0 0 - 0 0 - 2 5 7 1 1 1 2 2 -
p57
aVDanny Ainge PHX 05/11/1994 PHX @ HOU W 26 12 3 10 30.0 2 8 25.0 4 6 66.7 0 2 2 2 1 0 1 4 -
p58
aVA.C. Green PHX 05/11/1994 PHX @ HOU W 38 15 3 7 42.9 2 5 40.0 7 15 46.7 7 6 13 2 0 0 1 4 -
p59
aVKevin Johnson PHX 05/11/1994 PHX @ HOU W 50 27 8 18 44.4 0 0 - 11 14 78.6 2 4 6 6 3 1 5 3 -
p60
aVJoe Kleine PHX 05/11/1994 PHX @ HOU W 2 0 0 0 - 0 0 - 0 0 - 0 1 1 0 0 0 0 3 -
p61
aVDan Majerle PHX 05/11/1994 PHX @ HOU W 49 22 8 15 53.3 5 9 55.6 1 4 25.0 0 4 4 2 4 0 5 3 -
p62
aVOliver Miller PHX 05/08/1994 PHX @ HOU W 20 4 2 4 50.0 0 0 - 0 3 0.0 2 9 11 0 0 1 0 2 -
p63
aVA.C. Green PHX 05/08/1994 PHX @ HOU W 29 5 2 6 33.3 0 0 - 1 2 50.0 2 3 5 0 0 0 0 1 -
p64
aVJoe Kleine PHX 05/08/1994 PHX @ HOU W 6 2 1 2 50.0 0 0 - 0 0 - 0 1 1 0 0 0 0 2 -
p65
aVCharles Barkley PHX 05/08/1994 PHX @ HOU W 45 21 8 21 38.1 1 3 33.3 4 5 80.0 3 9 12 5 3 1 1 3 -
p66
aVDan Majerle PHX 05/08/1994 PHX @ HOU W 45 12 4 13 30.8 4 10 40.0 0 0 - 3 5 8 3 1 1 0 3 -
p67
aVCedric Ceballos PHX 05/08/1994 PHX @ HOU W 22 12 6 10 60.0 0 0 - 0 0 - 1 0 1 0 0 0 2 1 -
p68
aVKevin Johnson PHX 05/08/1994 PHX @ HOU W 48 20 9 21 42.9 0 0 - 2 3 66.7 2 3 5 12 2 0 8 0 -
p69
aVDanny Ainge PHX 05/08/1994 PHX @ HOU W 25 15 4 10 40.0 4 10 40.0 3 3 100.0 0 3 3 0 0 0 0 1 -
p70
aVCedric Ceballos PHX 05/04/1994 PHX @ GOS W 33 17 7 14 50.0 0 1 0.0 3 4 75.0 3 5 8 1 3 0 0 0 -
p71
aVMark West PHX 05/04/1994 PHX @ GOS W 6 0 0 1 0.0 0 0 - 0 0 - 0 0 0 0 0 1 1 2 -
p72
aVKevin Johnson PHX 05/04/1994 PHX @ GOS W 39 18 5 9 55.6 0 0 - 8 9 88.9 0 5 5 12 1 0 4 3 -
p73
aVCharles Barkley PHX 05/04/1994 PHX @ GOS W 41 56 23 31 74.2 3 4 75.0 7 9 77.8 5 9 14 4 3 1 2 2 -
p74
aVFrank Johnson PHX 05/04/1994 PHX @ GOS W 9 1 0 2 0.0 0 1 0.0 1 2 50.0 0 0 0 0 0 0 1 0 -
p75
aVJoe Kleine PHX 05/04/1994 PHX @ GOS W 3 0 0 1 0.0 0 0 - 0 0 - 0 0 0 0 0 0 0 0 -
p76
aVA.C. Green PHX 05/04/1994 PHX @ GOS W 40 16 5 8 62.5 0 0 - 6 11 54.5 2 6 8 3 3 0 0 1 -
p77
aVDanny Ainge PHX 05/04/1994 PHX @ GOS W 11 2 1 2 50.0 0 1 0.0 0 0 - 0 0 0 2 0 0 0 5 -
p78
aVOliver Miller PHX 05/04/1994 PHX @ GOS W 13 6 3 5 60.0 0 0 - 0 0 - 3 0 3 1 1 2 2 0 -
p79
aVDan Majerle PHX 05/04/1994 PHX @ GOS W 45 24 10 22 45.5 2 6 33.3 2 3 66.7 3 1 4 3 2 0 1 1 -
p80
aVA.C. Green PHX 05/01/1994 PHX vs. GOS W 34 9 2 9 22.2 0 0 - 5 6 83.3 4 6 10 2 2 0 0 1 -
p81
aVMark West PHX 05/01/1994 PHX vs. GOS W 16 10 3 6 50.0 0 0 - 4 4 100.0 5 2 7 0 0 2 1 3 -
p82
aVDanny Ainge PHX 05/01/1994 PHX vs. GOS W 31 13 5 7 71.4 2 4 50.0 1 2 50.0 0 2 2 2 1 0 0 3 -
p83
aVCedric Ceballos PHX 05/01/1994 PHX vs. GOS W 19 6 2 6 33.3 0 0 - 2 2 100.0 3 3 6 2 0 1 1 0 -
p84
aVFrank Johnson PHX 05/01/1994 PHX vs. GOS W 3 0 0 1 0.0 0 1 0.0 0 0 - 0 0 0 0 0 0 0 0 -
p85
aVSkeeter Henry PHX 05/01/1994 PHX vs. GOS W 1 0 0 0 - 0 0 - 0 0 - 0 0 0 0 0 0 0 0 -
p86
aVCharles Barkley PHX 05/01/1994 PHX vs. GOS W 39 20 9 21 42.9 0 1 0.0 2 3 66.7 2 5 7 8 2 0 3 3 -
p87
aVOliver Miller PHX 05/01/1994 PHX vs. GOS W 8 4 2 3 66.7 0 0 - 0 1 0.0 3 1 4 1 0 0 0 1 -
p88
aVKevin Johnson PHX 05/01/1994 PHX vs. GOS W 40 38 15 31 48.4 0 0 - 8 9 88.9 1 3 4 9 0 0 2 3 -
p89
aVDan Majerle PHX 05/01/1994 PHX vs. GOS W 48 17 7 18 38.9 3 7 42.9 0 0 - 2 5 7 2 0 0 1 4 -
p90
aVElliot Perry PHX 05/01/1994 PHX vs. GOS W 1 0 0 0 - 0 0 - 0 0 - 0 0 0 0 0 0 1 0 -
p91
aVCharles Barkley PHX 04/29/1994 PHX vs. GOS W 45 36 14 24 58.3 1 3 33.3 7 11 63.6 7 12 19 7 4 1 3 2 -
p92
aVCedric Ceballos PHX 04/29/1994 PHX vs. GOS W 39 16 8 15 53.3 0 0 - 0 0 - 2 2 4 2 0 0 3 2 -
p93
aVMark West PHX 04/29/1994 PHX vs. GOS W 9 0 0 2 0.0 0 0 - 0 0 - 1 2 3 0 0 1 1 4 -
p94
aVOliver Miller PHX 04/29/1994 PHX vs. GOS W 5 0 0 0 - 0 0 - 0 0 - 0 0 0 1 0 2 1 4 -
p95
aVDan Majerle PHX 04/29/1994 PHX vs. GOS W 36 19 6 10 60.0 1 2 50.0 6 6 100.0 1 0 1 3 3 0 0 2 -
p96
aVKevin Johnson PHX 04/29/1994 PHX vs. GOS W 40 24 10 21 47.6 0 1 0.0 4 8 50.0 1 0 1 7 1 0 3 4 -
p97
aVDanny Ainge PHX 04/29/1994 PHX vs. GOS W 15 0 0 1 0.0 0 0 - 0 0 - 0 1 1 3 2 0 1 2 -
p98
aVA.C. Green PHX 04/29/1994 PHX vs. GOS W 38 16 6 11 54.5 0 0 - 4 4 100.0 3 4 7 2 2 1 0 2 -
p99
aVFrank Johnson PHX 04/29/1994 PHX vs. GOS W 13 0 0 1 0.0 0 0 - 0 0 - 0 2 2 4 1 0 1 2 -
p100
a.