(lp0
VPLAYER TEAM DATE MATCHUP W/L MIN PTS FGM FGA FG% 3PM 3PA 3P% FTM FTA FT% OREB DREB REB AST STL BLK TOV PF +/-
p1
aVTyrone Corbin UTH 05/31/1994 UTH @ HOU L 17 4 1 7 14.3 0 2 0.0 2 2 100.0 2 1 3 0 1 0 2 0 -
p2
aVBryon Russell UTH 05/31/1994 UTH @ HOU L 19 7 2 6 33.3 1 2 50.0 2 2 100.0 4 3 7 0 0 0 0 2 -
p3
aVJohn Crotty UTH 05/31/1994 UTH @ HOU L 10 2 1 3 33.3 0 0 - 0 0 - 0 0 0 1 0 0 0 2 -
p4
aVJohn Stockton UTH 05/31/1994 UTH @ HOU L 39 13 6 19 31.6 1 6 16.7 0 0 - 2 3 5 9 0 1 2 4 -
p5
aVJeff Hornacek UTH 05/31/1994 UTH @ HOU L 40 21 8 17 47.1 2 3 66.7 3 4 75.0 1 3 4 1 2 1 1 3 -
p6
aVKarl Malone UTH 05/31/1994 UTH @ HOU L 45 31 9 21 42.9 0 1 0.0 13 15 86.7 2 8 10 7 0 0 3 3 -
p7
aVFelton Spencer UTH 05/31/1994 UTH @ HOU L 41 5 1 4 25.0 0 0 - 3 4 75.0 10 5 15 1 0 0 3 5 -
p8
aVDavid Benoit UTH 05/31/1994 UTH @ HOU L 12 0 0 2 0.0 0 0 - 0 2 0.0 0 0 0 0 0 1 0 0 -
p9
aVTom Chambers UTH 05/31/1994 UTH @ HOU L 10 0 0 3 0.0 0 0 - 0 0 - 0 1 1 1 0 0 0 1 -
p10
aVJay Humphries UTH 05/31/1994 UTH @ HOU L 7 0 0 2 0.0 0 0 - 0 0 - 0 0 0 1 0 0 0 0 -
p11
aVKarl Malone UTH 05/29/1994 UTH vs. HOU L 45 25 9 23 39.1 0 1 0.0 7 11 63.6 4 10 14 3 1 1 2 4 -
p12
aVTom Chambers UTH 05/29/1994 UTH vs. HOU L 8 0 0 2 0.0 0 0 - 0 0 - 0 1 1 0 0 0 0 1 -
p13
aVJohn Stockton UTH 05/29/1994 UTH vs. HOU L 37 17 6 12 50.0 1 1 100.0 4 5 80.0 0 6 6 6 2 1 2 4 -
p14
aVJay Humphries UTH 05/29/1994 UTH vs. HOU L 31 6 2 6 33.3 1 4 25.0 1 2 50.0 2 3 5 2 1 0 0 3 -
p15
aVJeff Hornacek UTH 05/29/1994 UTH vs. HOU L 39 18 6 13 46.2 1 3 33.3 5 6 83.3 0 3 3 4 1 0 2 3 -
p16
aVDavid Benoit UTH 05/29/1994 UTH vs. HOU L 32 11 5 11 45.5 0 1 0.0 1 3 33.3 1 5 6 1 0 1 2 1 -
p17
aVTyrone Corbin UTH 05/29/1994 UTH vs. HOU L 5 0 0 2 0.0 0 0 - 0 0 - 0 1 1 0 1 0 0 1 -
p18
aVFelton Spencer UTH 05/29/1994 UTH vs. HOU L 43 1 0 5 0.0 0 0 - 1 2 50.0 6 3 9 1 1 3 3 5 -
p19
aVStephen Howard UTH 05/27/1994 UTH vs. HOU W 1 0 0 0 - 0 0 - 0 0 - 0 0 0 0 0 0 0 1 -
p20
aVDavid Benoit UTH 05/27/1994 UTH vs. HOU W 27 14 6 8 75.0 0 0 - 2 2 100.0 1 4 5 0 1 2 2 1 -
p21
aVTom Chambers UTH 05/27/1994 UTH vs. HOU W 18 10 4 7 57.1 0 0 - 2 2 100.0 2 2 4 0 0 0 0 4 -
p22
aVJohn Stockton UTH 05/27/1994 UTH vs. HOU W 34 13 4 10 40.0 1 3 33.3 4 6 66.7 1 3 4 11 1 0 3 5 -
p23
aVKarl Malone UTH 05/27/1994 UTH vs. HOU W 45 22 8 22 36.4 0 0 - 6 9 66.7 4 12 16 5 1 2 0 2 -
p24
aVJeff Hornacek UTH 05/27/1994 UTH vs. HOU W 35 17 5 12 41.7 1 2 50.0 6 6 100.0 3 3 6 7 1 1 3 2 -
p25
aVFelton Spencer UTH 05/27/1994 UTH vs. HOU W 32 4 2 9 22.2 0 0 - 0 0 - 2 5 7 0 0 2 1 6 -
p26
aVTyrone Corbin UTH 05/27/1994 UTH vs. HOU W 21 0 0 6 0.0 0 0 - 0 0 - 3 3 6 1 0 0 0 1 -
p27
aVJay Humphries UTH 05/27/1994 UTH vs. HOU W 27 15 6 10 60.0 2 2 100.0 1 2 50.0 0 5 5 1 1 0 0 3 -
p28
aVFelton Spencer UTH 05/25/1994 UTH @ HOU L 35 10 3 6 50.0 0 0 - 4 6 66.7 3 4 7 0 0 1 0 5 -
p29
aVDavid Benoit UTH 05/25/1994 UTH @ HOU L 16 6 3 6 50.0 0 1 0.0 0 0 - 0 2 2 1 1 0 1 2 -
p30
aVBryon Russell UTH 05/25/1994 UTH @ HOU L 2 0 0 0 - 0 0 - 0 0 - 0 0 0 1 0 0 0 0 -
p31
aVKarl Malone UTH 05/25/1994 UTH @ HOU L 46 32 10 19 52.6 0 1 0.0 12 18 66.7 2 5 7 7 1 0 3 3 -
p32
aVJeff Hornacek UTH 05/25/1994 UTH @ HOU L 36 10 3 8 37.5 0 0 - 4 4 100.0 0 0 0 4 0 0 1 4 -
p33
aVJay Humphries UTH 05/25/1994 UTH @ HOU L 24 11 5 9 55.6 0 1 0.0 1 2 50.0 0 2 2 2 2 0 0 4 -
p34
aVTyrone Corbin UTH 05/25/1994 UTH @ HOU L 30 8 3 6 50.0 2 4 50.0 0 0 - 1 2 3 1 3 0 1 4 -
p35
aVTom Chambers UTH 05/25/1994 UTH @ HOU L 15 4 1 3 33.3 0 1 0.0 2 2 100.0 0 2 2 0 0 0 0 4 -
p36
aVJohn Stockton UTH 05/25/1994 UTH @ HOU L 36 18 6 11 54.5 1 3 33.3 5 5 100.0 0 0 0 10 1 1 2 1 -
p37
aVKarl Malone UTH 05/23/1994 UTH @ HOU L 43 20 9 19 47.4 0 0 - 2 3 66.7 6 10 16 4 0 0 3 1 -
p38
aVJay Humphries UTH 05/23/1994 UTH @ HOU L 23 5 2 6 33.3 0 1 0.0 1 2 50.0 1 3 4 3 2 0 2 2 -
p39
aVJohn Crotty UTH 05/23/1994 UTH @ HOU L 1 0 0 0 - 0 0 - 0 0 - 0 0 0 0 0 0 0 0 -
p40
aVTyrone Corbin UTH 05/23/1994 UTH @ HOU L 21 6 3 5 60.0 0 0 - 0 0 - 0 6 6 0 2 0 0 1 -
p41
aVStephen Howard UTH 05/23/1994 UTH @ HOU L 1 0 0 1 0.0 0 0 - 0 0 - 0 0 0 0 0 0 0 0 -
p42
aVJeff Hornacek UTH 05/23/1994 UTH @ HOU L 34 19 9 15 60.0 0 1 0.0 1 1 100.0 0 1 1 2 3 0 4 3 -
p43
aVWalter Bond UTH 05/23/1994 UTH @ HOU L 1 0 0 0 - 0 0 - 0 0 - 0 0 0 0 0 0 0 0 -
p44
aVFelton Spencer UTH 05/23/1994 UTH @ HOU L 37 15 5 9 55.6 0 0 - 5 6 83.3 5 6 11 0 0 2 1 4 -
p45
aVJohn Stockton UTH 05/23/1994 UTH @ HOU L 37 11 5 13 38.5 0 2 0.0 1 2 50.0 0 2 2 11 4 0 2 1 -
p46
aVDavid Benoit UTH 05/23/1994 UTH @ HOU L 31 10 4 10 40.0 0 1 0.0 2 2 100.0 4 2 6 1 1 1 4 1 -
p47
aVBryon Russell UTH 05/23/1994 UTH @ HOU L 1 0 0 0 - 0 0 - 0 0 - 0 0 0 0 0 0 0 0 -
p48
aVTom Chambers UTH 05/23/1994 UTH @ HOU L 10 2 1 3 33.3 0 0 - 0 0 - 0 0 0 0 0 0 0 1 -
p49
aVKarl Malone UTH 05/21/1994 UTH vs. DEN W 46 31 12 23 52.2 0 0 - 7 9 77.8 4 10 14 6 2 1 2 5 -
p50
aVTom Chambers UTH 05/21/1994 UTH vs. DEN W 23 4 2 6 33.3 0 0 - 0 1 0.0 0 3 3 2 0 0 0 2 -
p51
aVFelton Spencer UTH 05/21/1994 UTH vs. DEN W 27 11 4 10 40.0 0 0 - 3 3 100.0 2 3 5 1 0 1 1 5 -
p52
aVJeff Hornacek UTH 05/21/1994 UTH vs. DEN W 36 18 7 13 53.8 1 2 50.0 3 3 100.0 0 0 0 7 1 0 1 3 -
p53
aVJohn Crotty UTH 05/21/1994 UTH vs. DEN W 4 0 0 1 0.0 0 0 - 0 0 - 0 1 1 1 0 0 0 0 -
p54
aVJohn Stockton UTH 05/21/1994 UTH vs. DEN W 31 6 2 9 22.2 0 0 - 2 2 100.0 1 2 3 9 0 1 1 4 -
p55
aVTyrone Corbin UTH 05/21/1994 UTH vs. DEN W 32 8 4 6 66.7 0 0 - 0 0 - 2 1 3 2 1 1 0 1 -
p56
aVJay Humphries UTH 05/21/1994 UTH vs. DEN W 25 3 1 5 20.0 0 0 - 1 1 100.0 1 1 2 1 0 0 0 4 -
p57
aVDavid Benoit UTH 05/21/1994 UTH vs. DEN W 16 10 4 6 66.7 1 2 50.0 1 1 100.0 2 4 6 0 1 1 1 3 -
p58
aVStephen Howard UTH 05/19/1994 UTH @ DEN L 4 0 0 3 0.0 0 0 - 0 0 - 1 1 2 0 0 0 0 3 -
p59
aVDavid Benoit UTH 05/19/1994 UTH @ DEN L 14 0 0 4 0.0 0 1 0.0 0 0 - 1 0 1 0 0 0 0 1 -
p60
aVTom Chambers UTH 05/19/1994 UTH @ DEN L 28 6 2 7 28.6 0 0 - 2 3 66.7 2 1 3 2 0 2 0 5 -
p61
aVKarl Malone UTH 05/19/1994 UTH @ DEN L 45 31 12 22 54.5 0 0 - 7 10 70.0 4 11 15 3 1 3 2 4 -
p62
aVJay Humphries UTH 05/19/1994 UTH @ DEN L 13 2 1 4 25.0 0 0 - 0 0 - 0 2 2 1 2 0 1 5 -
p63
aVFelton Spencer UTH 05/19/1994 UTH @ DEN L 24 5 1 6 16.7 0 0 - 3 4 75.0 4 2 6 0 0 0 1 6 -
p64
aVJeff Hornacek UTH 05/19/1994 UTH @ DEN L 38 26 7 11 63.6 3 5 60.0 9 9 100.0 0 3 3 5 1 0 1 5 -
p65
aVTyrone Corbin UTH 05/19/1994 UTH @ DEN L 38 4 2 7 28.6 0 2 0.0 0 0 - 0 5 5 1 2 1 2 2 -
p66
aVJohn Stockton UTH 05/19/1994 UTH @ DEN L 36 17 5 10 50.0 0 2 0.0 7 9 77.8 1 2 3 7 2 0 2 1 -
p67
aVStephen Howard UTH 05/17/1994 UTH vs. DEN L 1 0 0 0 - 0 0 - 0 0 - 0 0 0 0 0 0 0 1 -
p68
aVTyrone Corbin UTH 05/17/1994 UTH vs. DEN L 43 17 6 15 40.0 1 1 100.0 4 4 100.0 6 8 14 0 1 0 2 3 -
p69
aVKarl Malone UTH 05/17/1994 UTH vs. DEN L 47 22 8 18 44.4 0 0 - 6 12 50.0 4 9 13 2 1 0 2 6 -
p70
aVJohn Stockton UTH 05/17/1994 UTH vs. DEN L 49 18 7 18 38.9 0 3 0.0 4 5 80.0 2 4 6 13 3 0 7 5 -
p71
aVTom Chambers UTH 05/17/1994 UTH vs. DEN L 33 10 3 10 30.0 0 0 - 4 4 100.0 0 2 2 1 1 0 1 6 -
p72
aVJay Humphries UTH 05/17/1994 UTH vs. DEN L 16 0 0 2 0.0 0 1 0.0 0 0 - 0 2 2 3 1 0 3 5 -
p73
aVDavid Benoit UTH 05/17/1994 UTH vs. DEN L 21 6 1 8 12.5 0 3 0.0 4 4 100.0 1 1 2 1 0 0 0 3 -
p74
aVJeff Hornacek UTH 05/17/1994 UTH vs. DEN L 46 15 6 18 33.3 0 2 0.0 3 3 100.0 1 4 5 3 2 0 2 5 -
p75
aVFelton Spencer UTH 05/17/1994 UTH vs. DEN L 34 13 5 11 45.5 0 0 - 3 5 60.0 6 8 14 0 0 1 1 4 -
p76
aVTom Chambers UTH 05/15/1994 UTH @ DEN L 38 16 6 10 60.0 0 1 0.0 4 4 100.0 1 3 4 0 2 1 0 4 -
p77
aVDavid Benoit UTH 05/15/1994 UTH @ DEN L 18 4 2 5 40.0 0 0 - 0 0 - 0 4 4 1 0 0 0 2 -
p78
aVJohn Crotty UTH 05/15/1994 UTH @ DEN L 2 0 0 0 - 0 0 - 0 0 - 0 0 0 1 0 0 0 2 -
p79
aVTyrone Corbin UTH 05/15/1994 UTH @ DEN L 37 6 3 7 42.9 0 0 - 0 0 - 1 6 7 3 2 0 1 3 -
p80
aVKarl Malone UTH 05/15/1994 UTH @ DEN L 46 20 6 20 30.0 0 0 - 8 8 100.0 3 6 9 3 1 1 3 4 -
p81
aVJohn Stockton UTH 05/15/1994 UTH @ DEN L 39 19 7 10 70.0 0 1 0.0 5 7 71.4 1 1 2 6 2 0 2 1 -
p82
aVJeff Hornacek UTH 05/15/1994 UTH @ DEN L 35 12 4 11 36.4 1 3 33.3 3 3 100.0 0 0 0 3 2 2 0 2 -
p83
aVJay Humphries UTH 05/15/1994 UTH @ DEN L 13 2 1 4 25.0 0 1 0.0 0 0 - 0 0 0 1 1 0 0 3 -
p84
aVFelton Spencer UTH 05/15/1994 UTH @ DEN L 12 3 1 2 50.0 0 0 - 1 2 50.0 1 1 2 0 0 1 4 4 -
p85
aVFelton Spencer UTH 05/14/1994 UTH @ DEN W 29 8 3 5 60.0 0 0 - 2 3 66.7 2 6 8 1 0 1 0 6 -
p86
aVDavid Benoit UTH 05/14/1994 UTH @ DEN W 25 1 0 6 0.0 0 0 - 1 2 50.0 1 4 5 1 0 0 0 1 -
p87
aVJohn Stockton UTH 05/14/1994 UTH @ DEN W 47 24 11 19 57.9 0 2 0.0 2 2 100.0 2 2 4 13 1 0 1 2 -
p88
aVJay Humphries UTH 05/14/1994 UTH @ DEN W 17 0 0 4 0.0 0 1 0.0 0 2 0.0 1 2 3 2 0 0 0 3 -
p89
aVStephen Howard UTH 05/14/1994 UTH @ DEN W 1 0 0 0 - 0 0 - 0 0 - 0 1 1 0 0 0 0 0 -
p90
aVKarl Malone UTH 05/14/1994 UTH @ DEN W 48 26 11 24 45.8 0 1 0.0 4 4 100.0 1 12 13 6 3 1 2 6 -
p91
aVTom Chambers UTH 05/14/1994 UTH @ DEN W 28 6 3 7 42.9 0 0 - 0 0 - 3 0 3 2 0 2 2 4 -
p92
aVTyrone Corbin UTH 05/14/1994 UTH @ DEN W 28 19 9 11 81.8 1 1 100.0 0 0 - 2 1 3 0 0 0 0 3 -
p93
aVJeff Hornacek UTH 05/14/1994 UTH @ DEN W 42 27 11 14 78.6 2 4 50.0 3 3 100.0 0 1 1 7 1 0 3 3 -
p94
aVKarl Malone UTH 05/12/1994 UTH vs. DEN W 45 32 14 23 60.9 0 0 - 4 6 66.7 2 10 12 1 3 0 2 4 -
p95
aVFelton Spencer UTH 05/12/1994 UTH vs. DEN W 31 9 3 8 37.5 0 0 - 3 4 75.0 5 4 9 0 0 0 2 1 -
p96
aVStephen Howard UTH 05/12/1994 UTH vs. DEN W 1 0 0 0 - 0 0 - 0 0 - 0 0 0 0 0 0 0 0 -
p97
aVTyrone Corbin UTH 05/12/1994 UTH vs. DEN W 18 8 3 10 30.0 0 0 - 2 2 100.0 1 4 5 1 1 0 0 3 -
p98
aVJeff Hornacek UTH 05/12/1994 UTH vs. DEN W 31 7 2 6 33.3 0 0 - 3 4 75.0 3 1 4 7 5 0 3 4 -
p99
aVJohn Crotty UTH 05/12/1994 UTH vs. DEN W 6 0 0 1 0.0 0 0 - 0 0 - 0 1 1 4 0 0 0 1 -
p100
aVJohn Stockton UTH 05/12/1994 UTH vs. DEN W 34 12 4 12 33.3 0 0 - 4 6 66.7 0 4 4 8 2 3 4 4 -
p101
aVJay Humphries UTH 05/12/1994 UTH vs. DEN W 25 12 3 9 33.3 0 2 0.0 6 6 100.0 2 1 3 5 1 1 2 2 -
p102
aVDavid Benoit UTH 05/12/1994 UTH vs. DEN W 30 12 5 12 41.7 1 4 25.0 1 2 50.0 2 4 6 0 0 0 0 3 -
p103
aVTom Chambers UTH 05/12/1994 UTH vs. DEN W 19 12 5 10 50.0 0 0 - 2 2 100.0 1 0 1 0 0 1 0 4 -
p104
aVTyrone Corbin UTH 05/10/1994 UTH vs. DEN W 25 10 4 8 50.0 0 1 0.0 2 3 66.7 1 4 5 2 3 1 1 1 -
p105
aVJohn Stockton UTH 05/10/1994 UTH vs. DEN W 37 17 5 13 38.5 0 1 0.0 7 8 87.5 1 2 3 11 2 0 3 5 -
p106
aVKarl Malone UTH 05/10/1994 UTH vs. DEN W 43 25 9 19 47.4 0 0 - 7 11 63.6 2 8 10 0 3 1 2 5 -
p107
aVDavid Benoit UTH 05/10/1994 UTH vs. DEN W 24 6 2 9 22.2 0 1 0.0 2 3 66.7 2 2 4 1 0 2 1 4 -
p108
aVJeff Hornacek UTH 05/10/1994 UTH vs. DEN W 33 15 3 10 30.0 1 2 50.0 8 8 100.0 1 2 3 5 1 1 1 1 -
p109
aVTom Chambers UTH 05/10/1994 UTH vs. DEN W 26 3 0 4 0.0 0 0 - 3 4 75.0 4 4 8 1 1 0 1 5 -
p110
aVFelton Spencer UTH 05/10/1994 UTH vs. DEN W 22 10 5 5 100.0 0 0 - 0 0 - 4 5 9 0 1 1 0 5 -
p111
aVStephen Howard UTH 05/10/1994 UTH vs. DEN W 4 2 1 3 33.3 0 0 - 0 0 - 1 0 1 0 0 0 0 3 -
p112
aVJay Humphries UTH 05/10/1994 UTH vs. DEN W 26 12 4 9 44.4 1 1 100.0 3 4 75.0 0 0 0 3 0 1 3 4 -
p113
aVTom Chambers UTH 05/05/1994 UTH vs. SAN W 16 4 2 3 66.7 0 0 - 0 0 - 0 4 4 1 0 0 2 2 -
p114
aVDavid Benoit UTH 05/05/1994 UTH vs. SAN W 21 15 7 9 77.8 1 1 100.0 0 0 - 1 2 3 1 1 0 1 3 -
p115
aVFelton Spencer UTH 05/05/1994 UTH vs. SAN W 34 8 3 7 42.9 0 0 - 2 5 40.0 3 4 7 1 1 1 3 5 -
p116
aVJohn Stockton UTH 05/05/1994 UTH vs. SAN W 39 13 5 8 62.5 0 0 - 3 3 100.0 0 0 0 18 3 1 2 0 -
p117
aVTyrone Corbin UTH 05/05/1994 UTH vs. SAN W 27 2 1 4 25.0 0 0 - 0 0 - 2 3 5 1 0 0 0 3 -
p118
aVJeff Hornacek UTH 05/05/1994 UTH vs. SAN W 25 13 5 7 71.4 0 1 0.0 3 3 100.0 0 2 2 1 1 0 0 3 -
p119
aVKarl Malone UTH 05/05/1994 UTH vs. SAN W 45 34 11 22 50.0 0 0 - 12 14 85.7 2 10 12 1 1 1 1 3 -
p120
aVJay Humphries UTH 05/05/1994 UTH vs. SAN W 33 6 2 9 22.2 0 2 0.0 2 2 100.0 0 2 2 1 1 0 1 1 -
p121
aVWalter Bond UTH 05/03/1994 UTH vs. SAN W 6 0 0 1 0.0 0 0 - 0 0 - 0 0 0 0 0 0 0 1 -
p122
aVJohn Crotty UTH 05/03/1994 UTH vs. SAN W 7 5 2 3 66.7 1 1 100.0 0 0 - 0 1 1 0 1 0 0 0 -
p123
aVJeff Hornacek UTH 05/03/1994 UTH vs. SAN W 28 15 6 9 66.7 1 2 50.0 2 3 66.7 0 2 2 1 0 1 1 0 -
p124
aVBryon Russell UTH 05/03/1994 UTH vs. SAN W 6 2 0 1 0.0 0 0 - 2 2 100.0 0 1 1 1 0 0 1 1 -
p125
aVDavid Benoit UTH 05/03/1994 UTH vs. SAN W 24 7 3 11 27.3 0 0 - 1 2 50.0 3 2 5 0 1 2 0 1 -
p126
aVTom Chambers UTH 05/03/1994 UTH vs. SAN W 25 12 4 10 40.0 0 2 0.0 4 7 57.1 2 2 4 1 0 3 0 4 -
p127
aVKarl Malone UTH 05/03/1994 UTH vs. SAN W 34 24 10 17 58.8 0 0 - 4 4 100.0 3 10 13 2 3 0 2 4 -
p128
aVStephen Howard UTH 05/03/1994 UTH vs. SAN W 7 4 0 0 - 0 0 - 4 6 66.7 0 3 3 0 0 0 2 1 -
p129
aVJay Humphries UTH 05/03/1994 UTH vs. SAN W 23 11 5 7 71.4 0 0 - 1 2 50.0 0 3 3 8 0 0 1 1 -
p130
aVFelton Spencer UTH 05/03/1994 UTH vs. SAN W 24 6 3 4 75.0 0 0 - 0 3 0.0 1 4 5 1 0 2 1 4 -
p131
aVJohn Stockton UTH 05/03/1994 UTH vs. SAN W 32 13 6 9 66.7 0 0 - 1 1 100.0 0 5 5 12 1 0 1 2 -
p132
aVTyrone Corbin UTH 05/03/1994 UTH vs. SAN W 24 6 2 6 33.3 0 0 - 2 2 100.0 2 4 6 1 1 0 1 1 -
p133
aVKarl Malone UTH 04/30/1994 UTH @ SAN W 40 23 7 25 28.0 0 0 - 9 14 64.3 7 7 14 4 1 0 2 2 -
p134
aVStephen Howard UTH 04/30/1994 UTH @ SAN W 3 1 0 2 0.0 0 0 - 1 2 50.0 0 0 0 0 0 0 0 1 -
p135
aVBryon Russell UTH 04/30/1994 UTH @ SAN W 2 2 1 1 100.0 0 0 - 0 0 - 0 0 0 0 0 0 0 0 -
p136
aVTyrone Corbin UTH 04/30/1994 UTH @ SAN W 23 0 0 5 0.0 0 1 0.0 0 0 - 2 2 4 2 2 0 0 2 -
p137
aVTom Chambers UTH 04/30/1994 UTH @ SAN W 10 4 2 6 33.3 0 1 0.0 0 0 - 1 2 3 1 1 0 0 1 -
p138
aVDavid Benoit UTH 04/30/1994 UTH @ SAN W 24 4 2 5 40.0 0 0 - 0 0 - 3 6 9 2 0 0 3 3 -
p139
aVWalter Bond UTH 04/30/1994 UTH @ SAN W 2 0 0 0 - 0 0 - 0 0 - 0 1 1 0 0 0 0 1 -
p140
aVJay Humphries UTH 04/30/1994 UTH @ SAN W 34 25 11 16 68.8 3 5 60.0 0 1 0.0 0 0 0 2 1 0 2 3 -
p141
aVJohn Stockton UTH 04/30/1994 UTH @ SAN W 37 17 8 16 50.0 0 0 - 1 1 100.0 2 1 3 5 2 0 0 3 -
p142
aVJohn Crotty UTH 04/30/1994 UTH @ SAN W 2 0 0 0 - 0 0 - 0 0 - 0 0 0 1 0 0 0 1 -
p143
aVFelton Spencer UTH 04/30/1994 UTH @ SAN W 37 15 6 9 66.7 0 0 - 3 3 100.0 4 8 12 0 0 4 0 4 -
p144
aVJeff Hornacek UTH 04/30/1994 UTH @ SAN W 26 5 0 4 0.0 0 0 - 5 7 71.4 0 1 1 2 2 0 2 3 -
p145
aVJeff Hornacek UTH 04/28/1994 UTH @ SAN L 34 9 3 11 27.3 2 4 50.0 1 1 100.0 2 2 4 5 1 0 3 1 -
p146
aVFelton Spencer UTH 04/28/1994 UTH @ SAN L 30 4 2 5 40.0 0 0 - 0 0 - 3 6 9 1 0 0 3 4 -
p147
aVTyrone Corbin UTH 04/28/1994 UTH @ SAN L 24 2 0 1 0.0 0 0 - 2 2 100.0 0 3 3 0 1 0 1 2 -
p148
aVJay Humphries UTH 04/28/1994 UTH @ SAN L 19 8 3 6 50.0 0 1 0.0 2 2 100.0 1 3 4 3 0 0 1 2 -
p149
aVStephen Howard UTH 04/28/1994 UTH @ SAN L 4 7 2 2 100.0 0 0 - 3 3 100.0 1 2 3 0 0 0 0 1 -
p150
aVDavid Benoit UTH 04/28/1994 UTH @ SAN L 22 9 4 10 40.0 0 1 0.0 1 2 50.0 1 2 3 0 1 1 1 2 -
p151
aVBryon Russell UTH 04/28/1994 UTH @ SAN L 6 5 1 2 50.0 1 1 100.0 2 2 100.0 0 1 1 1 0 0 0 0 -
p152
aVTom Chambers UTH 04/28/1994 UTH @ SAN L 18 0 0 6 0.0 0 2 0.0 0 0 - 0 2 2 0 0 0 2 2 -
p153
aVJohn Crotty UTH 04/28/1994 UTH @ SAN L 6 5 1 3 33.3 1 1 100.0 2 2 100.0 0 0 0 1 0 0 1 0 -
p154
aVWalter Bond UTH 04/28/1994 UTH @ SAN L 4 1 0 1 0.0 0 1 0.0 1 2 50.0 0 0 0 0 1 0 0 2 -
p155
aVJohn Stockton UTH 04/28/1994 UTH @ SAN L 33 3 1 4 25.0 0 0 - 1 1 100.0 1 1 2 8 1 0 6 2 -
p156
aVKarl Malone UTH 04/28/1994 UTH @ SAN L 40 36 13 21 61.9 0 0 - 10 12 83.3 2 8 10 0 1 2 3 3 -
p157
a.