(lp0
VPLAYER TEAM DATE MATCHUP W/L MIN PTS FGM FGA FG% 3PM 3PA 3P% FTM FTA FT% OREB DREB REB AST STL BLK TOV PF +/-
p1
aVMark Bryant POR 05/06/1994 POR vs. HOU L 13 2 1 3 33.3 0 0 - 0 0 - 2 1 3 1 0 1 1 1 -
p2
aVTracy Murray POR 05/06/1994 POR vs. HOU L 5 2 1 4 25.0 0 1 0.0 0 0 - 1 0 1 0 0 0 0 2 -
p3
aVHarvey Grant POR 05/06/1994 POR vs. HOU L 6 0 0 3 0.0 0 0 - 0 0 - 1 0 1 0 0 0 0 0 -
p4
aVBuck Williams POR 05/06/1994 POR vs. HOU L 36 13 5 9 55.6 0 0 - 3 4 75.0 1 11 12 0 0 1 3 0 -
p5
aVClifford Robinson POR 05/06/1994 POR vs. HOU L 41 8 3 15 20.0 0 0 - 2 2 100.0 4 2 6 2 1 3 2 2 -
p6
aVJerome Kersey POR 05/06/1994 POR vs. HOU L 9 4 2 5 40.0 0 0 - 0 1 0.0 4 1 5 0 0 1 0 3 -
p7
aVJames Robinson POR 05/06/1994 POR vs. HOU L 6 2 1 2 50.0 0 1 0.0 0 0 - 0 0 0 2 1 0 0 1 -
p8
aVClyde Drexler POR 05/06/1994 POR vs. HOU L 42 23 7 19 36.8 1 3 33.3 8 8 100.0 4 9 13 4 2 2 2 2 -
p9
aVChris Dudley POR 05/06/1994 POR vs. HOU L 23 3 1 3 33.3 0 0 - 1 2 50.0 2 2 4 0 2 0 0 3 -
p10
aVRod Strickland POR 05/06/1994 POR vs. HOU L 41 26 8 19 42.1 0 1 0.0 10 10 100.0 1 3 4 7 1 0 6 4 -
p11
aVTerry Porter POR 05/06/1994 POR vs. HOU L 18 6 2 9 22.2 1 4 25.0 1 2 50.0 1 3 4 1 1 0 0 0 -
p12
aVHarvey Grant POR 05/03/1994 POR vs. HOU W 23 12 6 8 75.0 0 0 - 0 0 - 2 3 5 0 0 0 0 0 -
p13
aVJames Robinson POR 05/03/1994 POR vs. HOU W 6 2 1 1 100.0 0 0 - 0 0 - 1 0 1 2 0 0 0 0 -
p14
aVMark Bryant POR 05/03/1994 POR vs. HOU W 18 4 2 3 66.7 0 0 - 0 0 - 0 0 0 0 2 1 1 2 -
p15
aVRod Strickland POR 05/03/1994 POR vs. HOU W 42 25 11 19 57.9 0 0 - 3 5 60.0 1 3 4 15 0 1 1 2 -
p16
aVClifford Robinson POR 05/03/1994 POR vs. HOU W 36 18 9 21 42.9 0 2 0.0 0 0 - 4 6 10 4 0 1 2 2 -
p17
aVBuck Williams POR 05/03/1994 POR vs. HOU W 34 22 9 10 90.0 0 0 - 4 5 80.0 5 5 10 0 1 0 1 3 -
p18
aVChris Dudley POR 05/03/1994 POR vs. HOU W 23 4 2 3 66.7 0 0 - 0 0 - 1 1 2 0 3 0 0 5 -
p19
aVClyde Drexler POR 05/03/1994 POR vs. HOU W 43 22 9 19 47.4 1 3 33.3 3 5 60.0 1 5 6 8 2 0 1 3 -
p20
aVTerry Porter POR 05/03/1994 POR vs. HOU W 15 9 1 9 11.1 0 3 0.0 7 9 77.8 0 1 1 3 0 0 0 1 -
p21
aVRod Strickland POR 05/01/1994 POR @ HOU L 40 26 10 16 62.5 0 0 - 6 7 85.7 1 5 6 12 3 1 1 4 -
p22
aVJerome Kersey POR 05/01/1994 POR @ HOU L 12 4 2 4 50.0 0 0 - 0 0 - 0 0 0 0 0 0 0 1 -
p23
aVHarvey Grant POR 05/01/1994 POR @ HOU L 28 14 7 12 58.3 0 0 - 0 0 - 0 1 1 3 0 1 1 0 -
p24
aVMark Bryant POR 05/01/1994 POR @ HOU L 24 2 1 9 11.1 0 2 0.0 0 0 - 3 4 7 1 0 0 1 3 -
p25
aVBuck Williams POR 05/01/1994 POR @ HOU L 24 10 4 8 50.0 0 0 - 2 2 100.0 3 4 7 2 1 0 1 4 -
p26
aVClyde Drexler POR 05/01/1994 POR @ HOU L 37 13 4 15 26.7 0 2 0.0 5 6 83.3 0 9 9 4 1 0 2 1 -
p27
aVJames Robinson POR 05/01/1994 POR @ HOU L 4 0 0 0 - 0 0 - 0 0 - 1 1 2 0 0 0 0 0 -
p28
aVChris Dudley POR 05/01/1994 POR @ HOU L 17 2 1 3 33.3 0 0 - 0 0 - 1 3 4 0 0 0 0 5 -
p29
aVClifford Robinson POR 05/01/1994 POR @ HOU L 39 28 12 20 60.0 2 5 40.0 2 2 100.0 1 1 2 2 1 1 4 4 -
p30
aVTerry Porter POR 05/01/1994 POR @ HOU L 15 5 1 5 20.0 1 2 50.0 2 2 100.0 0 2 2 3 2 0 1 0 -
p31
aVTracy Murray POR 04/29/1994 POR @ HOU L 6 4 2 2 100.0 0 0 - 0 0 - 2 0 2 1 1 0 0 1 -
p32
aVClifford Robinson POR 04/29/1994 POR @ HOU L 33 11 4 12 33.3 0 2 0.0 3 4 75.0 2 5 7 2 1 1 3 5 -
p33
aVMark Bryant POR 04/29/1994 POR @ HOU L 9 2 1 2 50.0 0 0 - 0 0 - 1 1 2 0 0 0 0 1 -
p34
aVTerry Porter POR 04/29/1994 POR @ HOU L 28 21 8 12 66.7 4 5 80.0 1 1 100.0 0 5 5 2 1 0 1 2 -
p35
aVRod Strickland POR 04/29/1994 POR @ HOU L 31 17 7 18 38.9 0 0 - 3 5 60.0 0 2 2 5 0 0 2 3 -
p36
aVClyde Drexler POR 04/29/1994 POR @ HOU L 35 26 11 20 55.0 1 5 20.0 3 4 75.0 5 8 13 6 3 0 4 1 -
p37
aVJaren Jackson POR 04/29/1994 POR @ HOU L 1 0 0 0 - 0 0 - 0 0 - 0 0 0 0 0 0 0 0 -
p38
aVJerome Kersey POR 04/29/1994 POR @ HOU L 17 3 1 7 14.3 0 0 - 1 4 25.0 1 3 4 0 1 0 0 1 -
p39
aVChris Dudley POR 04/29/1994 POR @ HOU L 18 0 0 1 0.0 0 0 - 0 0 - 1 4 5 0 1 0 1 3 -
p40
aVHarvey Grant POR 04/29/1994 POR @ HOU L 19 8 4 10 40.0 0 0 - 0 0 - 2 0 2 0 1 1 0 2 -
p41
aVJames Robinson POR 04/29/1994 POR @ HOU L 12 6 2 7 28.6 1 1 100.0 1 2 50.0 0 0 0 2 0 1 0 1 -
p42
aVBuck Williams POR 04/29/1994 POR @ HOU L 31 6 1 1 100.0 0 0 - 4 4 100.0 5 1 6 0 2 1 3 4 -
p43
a.