(lp0
VPLAYER TEAM DATE MATCHUP W/L MIN PTS FGM FGA FG% 3PM 3PA 3P% FTM FTA FT% OREB DREB REB AST STL BLK TOV PF +/-
p1
aVCharles Oakley NYK 05/21/1995 NYK vs. IND L 40 9 1 5 20.0 0 0 - 7 10 70.0 3 3 6 6 0 1 1 3 -
p2
aVPatrick Ewing NYK 05/21/1995 NYK vs. IND L 43 29 12 23 52.2 0 0 - 5 9 55.6 1 13 14 5 0 4 3 4 -
p3
aVCharles Smith NYK 05/21/1995 NYK vs. IND L 27 12 5 9 55.6 0 0 - 2 2 100.0 0 4 4 2 1 2 4 4 -
p4
aVGreg Anthony NYK 05/21/1995 NYK vs. IND L 4 3 1 2 50.0 1 1 100.0 0 0 - 0 0 0 0 0 0 1 1 -
p5
aVAnthony Mason NYK 05/21/1995 NYK vs. IND L 29 3 1 2 50.0 0 0 - 1 4 25.0 3 4 7 3 0 0 4 4 -
p6
aVJohn Starks NYK 05/21/1995 NYK vs. IND L 41 19 6 11 54.5 2 5 40.0 5 6 83.3 0 3 3 3 0 0 1 1 -
p7
aVDerek Harper NYK 05/21/1995 NYK vs. IND L 40 15 6 10 60.0 3 4 75.0 0 0 - 1 4 5 6 0 1 1 3 -
p8
aVAnthony Bonner NYK 05/21/1995 NYK vs. IND L 4 2 1 2 50.0 0 1 0.0 0 0 - 0 1 1 0 0 0 0 2 -
p9
aVHubert Davis NYK 05/21/1995 NYK vs. IND L 12 3 1 4 25.0 1 2 50.0 0 0 - 0 0 0 0 0 0 0 1 -
p10
aVDerek Harper NYK 05/19/1995 NYK @ IND W 37 5 2 8 25.0 1 3 33.3 0 2 0.0 0 1 1 7 1 0 4 2 -
p11
aVAnthony Mason NYK 05/19/1995 NYK @ IND W 31 13 3 4 75.0 0 0 - 7 9 77.8 2 6 8 1 1 0 3 1 -
p12
aVCharles Smith NYK 05/19/1995 NYK @ IND W 25 6 1 2 50.0 0 0 - 4 6 66.7 0 1 1 1 0 2 4 5 -
p13
aVAnthony Bonner NYK 05/19/1995 NYK @ IND W 5 2 0 1 0.0 0 0 - 2 2 100.0 0 0 0 0 0 1 1 0 -
p14
aVCharles Oakley NYK 05/19/1995 NYK @ IND W 40 19 8 14 57.1 2 2 100.0 1 2 50.0 3 6 9 3 1 1 1 5 -
p15
aVPatrick Ewing NYK 05/19/1995 NYK @ IND W 37 25 9 13 69.2 0 0 - 7 10 70.0 1 14 15 3 0 2 2 5 -
p16
aVJohn Starks NYK 05/19/1995 NYK @ IND W 33 12 3 9 33.3 2 5 40.0 4 6 66.7 0 4 4 2 0 0 2 4 -
p17
aVGreg Anthony NYK 05/19/1995 NYK @ IND W 11 7 2 2 100.0 1 1 100.0 2 2 100.0 0 1 1 1 0 0 0 3 -
p18
aVHerb Williams NYK 05/19/1995 NYK @ IND W 6 0 0 2 0.0 0 0 - 0 0 - 0 1 1 0 1 0 0 1 -
p19
aVHubert Davis NYK 05/19/1995 NYK @ IND W 15 3 1 3 33.3 1 3 33.3 0 0 - 0 0 0 1 0 0 0 2 -
p20
aVHubert Davis NYK 05/17/1995 NYK vs. IND W 17 3 1 3 33.3 1 2 50.0 0 0 - 0 2 2 1 0 0 0 0 -
p21
aVGreg Anthony NYK 05/17/1995 NYK vs. IND W 5 3 1 2 50.0 1 1 100.0 0 0 - 0 0 0 1 0 1 0 1 -
p22
aVDerek Harper NYK 05/17/1995 NYK vs. IND W 36 16 6 11 54.5 4 7 57.1 0 0 - 2 2 4 2 1 0 2 3 -
p23
aVCharles Oakley NYK 05/17/1995 NYK vs. IND W 39 13 2 10 20.0 0 0 - 9 9 100.0 4 9 13 1 2 0 2 4 -
p24
aVPatrick Ewing NYK 05/17/1995 NYK vs. IND W 40 19 8 21 38.1 0 0 - 3 4 75.0 2 6 8 1 1 2 3 5 -
p25
aVAnthony Bonner NYK 05/17/1995 NYK vs. IND W 10 4 2 3 66.7 0 0 - 0 0 - 1 0 1 1 0 0 1 1 -
p26
aVJohn Starks NYK 05/17/1995 NYK vs. IND W 40 15 7 14 50.0 1 4 25.0 0 2 0.0 1 3 4 8 0 0 2 5 -
p27
aVCharles Smith NYK 05/17/1995 NYK vs. IND W 21 10 5 9 55.6 0 0 - 0 0 - 1 1 2 1 2 2 2 4 -
p28
aVAnthony Mason NYK 05/17/1995 NYK vs. IND W 32 13 3 7 42.9 0 0 - 7 8 87.5 2 2 4 2 0 1 0 4 -
p29
aVCharles Oakley NYK 05/13/1995 NYK @ IND L 32 11 4 11 36.4 0 1 0.0 3 5 60.0 4 6 10 0 1 0 1 4 -
p30
aVCharles Smith NYK 05/13/1995 NYK @ IND L 33 10 5 9 55.6 0 0 - 0 0 - 2 1 3 0 0 1 0 3 -
p31
aVDerek Harper NYK 05/13/1995 NYK @ IND L 37 12 4 11 36.4 2 3 66.7 2 2 100.0 0 4 4 10 0 0 1 2 -
p32
aVGreg Anthony NYK 05/13/1995 NYK @ IND L 12 4 1 5 20.0 0 3 0.0 2 2 100.0 1 0 1 3 1 0 1 2 -
p33
aVHerb Williams NYK 05/13/1995 NYK @ IND L 4 0 0 1 0.0 0 0 - 0 0 - 0 0 0 0 0 0 0 1 -
p34
aVHubert Davis NYK 05/13/1995 NYK @ IND L 20 6 2 5 40.0 1 2 50.0 1 1 100.0 0 0 0 0 0 0 0 3 -
p35
aVPatrick Ewing NYK 05/13/1995 NYK @ IND L 41 25 10 17 58.8 1 1 100.0 4 6 66.7 1 7 8 3 1 1 1 5 -
p36
aVJohn Starks NYK 05/13/1995 NYK @ IND L 36 11 4 13 30.8 2 8 25.0 1 2 50.0 0 2 2 5 0 0 5 4 -
p37
aVAnthony Mason NYK 05/13/1995 NYK @ IND L 25 5 2 3 66.7 0 0 - 1 4 25.0 3 2 5 2 0 1 1 0 -
p38
aVCharles Oakley NYK 05/11/1995 NYK @ IND L 47 23 7 14 50.0 1 3 33.3 8 10 80.0 2 5 7 4 2 0 2 5 -
p39
aVHerb Williams NYK 05/11/1995 NYK @ IND L 12 0 0 3 0.0 0 0 - 0 0 - 2 0 2 0 2 0 0 4 -
p40
aVHubert Davis NYK 05/11/1995 NYK @ IND L 13 0 0 2 0.0 0 0 - 0 0 - 0 0 0 0 0 1 2 2 -
p41
aVPatrick Ewing NYK 05/11/1995 NYK @ IND L 33 11 4 9 44.4 0 0 - 3 4 75.0 0 3 3 1 0 2 2 6 -
p42
aVJohn Starks NYK 05/11/1995 NYK @ IND L 43 23 8 17 47.1 7 11 63.6 0 4 0.0 0 1 1 9 3 1 3 4 -
p43
aVDerek Harper NYK 05/11/1995 NYK @ IND L 39 13 4 9 44.4 2 5 40.0 3 4 75.0 0 3 3 6 3 0 4 3 -
p44
aVGreg Anthony NYK 05/11/1995 NYK @ IND L 14 4 2 3 66.7 0 1 0.0 0 0 - 0 1 1 2 0 0 0 4 -
p45
aVAnthony Mason NYK 05/11/1995 NYK @ IND L 38 9 3 6 50.0 0 0 - 3 7 42.9 1 3 4 1 0 1 1 5 -
p46
aVCharles Smith NYK 05/11/1995 NYK @ IND L 26 12 5 9 55.6 0 0 - 2 4 50.0 3 0 3 1 6 1 1 6 -
p47
aVAnthony Bonner NYK 05/09/1995 NYK vs. IND W 6 0 0 1 0.0 0 0 - 0 2 0.0 1 1 2 0 0 0 0 1 -
p48
aVAnthony Mason NYK 05/09/1995 NYK vs. IND W 33 13 3 5 60.0 0 1 0.0 7 12 58.3 2 6 8 1 2 0 2 3 -
p49
aVJohn Starks NYK 05/09/1995 NYK vs. IND W 31 19 5 9 55.6 2 4 50.0 7 8 87.5 0 0 0 4 2 0 1 4 -
p50
aVDerek Harper NYK 05/09/1995 NYK vs. IND W 39 24 7 16 43.8 4 7 57.1 6 6 100.0 0 3 3 8 1 0 1 2 -
p51
aVPatrick Ewing NYK 05/09/1995 NYK vs. IND W 26 15 6 9 66.7 0 1 0.0 3 7 42.9 1 3 4 2 1 1 3 3 -
p52
aVHubert Davis NYK 05/09/1995 NYK vs. IND W 20 6 2 6 33.3 2 4 50.0 0 0 - 0 0 0 1 1 0 0 1 -
p53
aVGreg Anthony NYK 05/09/1995 NYK vs. IND W 9 0 0 3 0.0 0 3 0.0 0 0 - 0 1 1 0 1 0 4 2 -
p54
aVCharles Smith NYK 05/09/1995 NYK vs. IND W 21 4 2 6 33.3 0 0 - 0 0 - 3 3 6 0 0 1 2 4 -
p55
aVDoug Christie NYK 05/09/1995 NYK vs. IND W 2 0 0 2 0.0 0 0 - 0 0 - 0 0 0 0 0 0 1 2 -
p56
aVCharles Oakley NYK 05/09/1995 NYK vs. IND W 36 11 3 9 33.3 0 0 - 5 5 100.0 3 3 6 4 5 0 2 3 -
p57
aVHerb Williams NYK 05/09/1995 NYK vs. IND W 17 4 2 5 40.0 0 0 - 0 0 - 0 2 2 0 1 3 0 5 -
p58
aVCharles Oakley NYK 05/07/1995 NYK vs. IND L 40 17 6 11 54.5 0 1 0.0 5 5 100.0 5 5 10 3 0 2 1 3 -
p59
aVDerek Harper NYK 05/07/1995 NYK vs. IND L 28 10 4 9 44.4 2 4 50.0 0 0 - 0 3 3 5 1 0 1 2 -
p60
aVCharles Smith NYK 05/07/1995 NYK vs. IND L 37 12 5 7 71.4 0 0 - 2 4 50.0 2 4 6 1 2 2 1 4 -
p61
aVJohn Starks NYK 05/07/1995 NYK vs. IND L 35 21 8 17 47.1 3 9 33.3 2 4 50.0 0 1 1 7 2 0 1 2 -
p62
aVGreg Anthony NYK 05/07/1995 NYK vs. IND L 20 15 4 6 66.7 3 4 75.0 4 4 100.0 1 0 1 2 0 1 0 4 -
p63
aVAnthony Mason NYK 05/07/1995 NYK vs. IND L 32 15 6 8 75.0 0 0 - 3 7 42.9 3 4 7 4 1 0 3 5 -
p64
aVPatrick Ewing NYK 05/07/1995 NYK vs. IND L 30 11 4 15 26.7 0 0 - 3 4 75.0 4 6 10 4 0 1 3 5 -
p65
aVHubert Davis NYK 05/07/1995 NYK vs. IND L 14 4 2 6 33.3 0 3 0.0 0 0 - 0 1 1 0 0 2 2 2 -
p66
aVHerb Williams NYK 05/07/1995 NYK vs. IND L 4 0 0 0 - 0 0 - 0 0 - 1 1 2 0 0 0 0 1 -
p67
aVCharles Oakley NYK 05/04/1995 NYK @ CLE W 38 8 3 11 27.3 0 1 0.0 2 2 100.0 1 8 9 8 0 0 2 3 -
p68
aVJohn Starks NYK 05/04/1995 NYK @ CLE W 33 15 5 10 50.0 5 7 71.4 0 0 - 1 2 3 5 0 0 2 3 -
p69
aVPatrick Ewing NYK 05/04/1995 NYK @ CLE W 33 9 4 7 57.1 0 0 - 1 2 50.0 1 12 13 2 0 1 3 5 -
p70
aVAnthony Mason NYK 05/04/1995 NYK @ CLE W 30 6 3 7 42.9 0 0 - 0 0 - 3 5 8 2 0 2 5 3 -
p71
aVGreg Anthony NYK 05/04/1995 NYK @ CLE W 9 5 2 4 50.0 1 2 50.0 0 0 - 0 1 1 0 0 0 0 3 -
p72
aVHubert Davis NYK 05/04/1995 NYK @ CLE W 15 2 1 4 25.0 0 1 0.0 0 0 - 0 1 1 0 0 0 1 2 -
p73
aVAnthony Bonner NYK 05/04/1995 NYK @ CLE W 6 1 0 1 0.0 0 0 - 1 2 50.0 1 1 2 0 0 0 1 1 -
p74
aVDerek Harper NYK 05/04/1995 NYK @ CLE W 39 30 11 14 78.6 7 10 70.0 1 2 50.0 1 7 8 6 1 0 2 2 -
p75
aVCharles Smith NYK 05/04/1995 NYK @ CLE W 37 17 6 13 46.2 0 1 0.0 5 9 55.6 1 1 2 3 0 2 1 1 -
p76
aVJohn Starks NYK 05/01/1995 NYK @ CLE W 25 9 2 9 22.2 2 7 28.6 3 5 60.0 0 3 3 3 1 0 0 5 -
p77
aVCharles Smith NYK 05/01/1995 NYK @ CLE W 31 15 7 11 63.6 0 0 - 1 2 50.0 3 2 5 2 1 0 2 5 -
p78
aVHerb Williams NYK 05/01/1995 NYK @ CLE W 1 0 0 0 - 0 0 - 0 0 - 0 0 0 0 0 0 0 0 -
p79
aVDerek Harper NYK 05/01/1995 NYK @ CLE W 33 9 3 5 60.0 1 1 100.0 2 2 100.0 0 3 3 5 1 0 7 5 -
p80
aVHubert Davis NYK 05/01/1995 NYK @ CLE W 28 5 2 6 33.3 1 4 25.0 0 0 - 0 1 1 4 0 2 2 3 -
p81
aVGreg Anthony NYK 05/01/1995 NYK @ CLE W 15 4 1 3 33.3 0 1 0.0 2 2 100.0 0 2 2 0 0 0 0 4 -
p82
aVAnthony Mason NYK 05/01/1995 NYK @ CLE W 34 14 3 5 60.0 0 0 - 8 10 80.0 2 5 7 3 1 1 1 1 -
p83
aVPatrick Ewing NYK 05/01/1995 NYK @ CLE W 40 23 7 14 50.0 0 0 - 9 10 90.0 0 10 10 0 0 6 3 4 -
p84
aVCharles Oakley NYK 05/01/1995 NYK @ CLE W 33 4 2 5 40.0 0 0 - 0 0 - 1 5 6 4 2 1 2 3 -
p85
aVGreg Anthony NYK 04/29/1995 NYK vs. CLE L 13 0 0 3 0.0 0 3 0.0 0 0 - 0 0 0 0 0 0 0 1 -
p86
aVJohn Starks NYK 04/29/1995 NYK vs. CLE L 34 21 8 15 53.3 3 10 30.0 2 3 66.7 0 0 0 4 3 0 5 5 -
p87
aVDerek Harper NYK 04/29/1995 NYK vs. CLE L 35 7 2 8 25.0 0 2 0.0 3 4 75.0 0 2 2 3 0 0 3 2 -
p88
aVAnthony Mason NYK 04/29/1995 NYK vs. CLE L 42 10 2 2 100.0 0 0 - 6 8 75.0 1 5 6 2 1 0 4 1 -
p89
aVPatrick Ewing NYK 04/29/1995 NYK vs. CLE L 39 21 6 12 50.0 0 0 - 9 12 75.0 3 9 12 2 2 2 3 5 -
p90
aVHubert Davis NYK 04/29/1995 NYK vs. CLE L 15 8 3 5 60.0 2 3 66.7 0 0 - 0 2 2 1 0 0 0 2 -
p91
aVHerb Williams NYK 04/29/1995 NYK vs. CLE L 5 0 0 0 - 0 0 - 0 0 - 0 0 0 0 1 0 1 0 -
p92
aVCharles Smith NYK 04/29/1995 NYK vs. CLE L 19 7 3 8 37.5 0 1 0.0 1 2 50.0 2 1 3 1 0 1 4 5 -
p93
aVCharles Oakley NYK 04/29/1995 NYK vs. CLE L 38 10 4 7 57.1 0 1 0.0 2 2 100.0 3 3 6 5 4 0 6 5 -
p94
aVPatrick Ewing NYK 04/27/1995 NYK vs. CLE W 37 21 10 16 62.5 0 1 0.0 1 2 50.0 3 6 9 4 1 3 4 4 -
p95
aVJohn Starks NYK 04/27/1995 NYK vs. CLE W 29 7 2 5 40.0 1 3 33.3 2 2 100.0 0 4 4 7 2 0 4 3 -
p96
aVAnthony Bonner NYK 04/27/1995 NYK vs. CLE W 7 6 3 3 100.0 0 0 - 0 0 - 1 1 2 1 1 0 0 1 -
p97
aVHubert Davis NYK 04/27/1995 NYK vs. CLE W 15 6 2 4 50.0 1 3 33.3 1 1 100.0 0 0 0 1 0 0 2 2 -
p98
aVDerek Harper NYK 04/27/1995 NYK vs. CLE W 25 16 7 8 87.5 1 1 100.0 1 2 50.0 1 1 2 4 2 0 0 3 -
p99
aVMonty Williams NYK 04/27/1995 NYK vs. CLE W 4 4 2 2 100.0 0 0 - 0 0 - 0 0 0 0 0 0 0 1 -
p100
aVDoug Christie NYK 04/27/1995 NYK vs. CLE W 4 0 0 2 0.0 0 0 - 0 0 - 0 0 0 0 0 0 0 1 -
p101
aVHerb Williams NYK 04/27/1995 NYK vs. CLE W 6 4 1 2 50.0 0 0 - 2 2 100.0 0 0 0 0 0 2 0 1 -
p102
aVAnthony Mason NYK 04/27/1995 NYK vs. CLE W 26 4 2 2 100.0 0 0 - 0 0 - 1 3 4 3 0 0 2 1 -
p103
aVGreg Anthony NYK 04/27/1995 NYK vs. CLE W 23 2 1 5 20.0 0 3 0.0 0 1 0.0 0 2 2 6 0 0 0 2 -
p104
aVCharles Smith NYK 04/27/1995 NYK vs. CLE W 26 14 7 12 58.3 0 0 - 0 1 0.0 3 4 7 1 1 3 3 3 -
p105
aVCharles Oakley NYK 04/27/1995 NYK vs. CLE W 38 19 9 12 75.0 1 1 100.0 0 1 0.0 2 9 11 3 2 1 4 4 -
p106
a.