(lp0
VPLAYER TEAM DATE MATCHUP W/L MIN PTS FGM FGA FG% 3PM 3PA 3P% FTM FTA FT% OREB DREB REB AST STL BLK TOV PF +/-
p1
aVGeorge Lynch LAL 05/18/1995 LAL vs. SAN L 19 9 3 5 60.0 1 1 100.0 2 2 100.0 1 1 2 1 0 0 1 2 -
p2
aVTony Smith LAL 05/18/1995 LAL vs. SAN L 1 3 1 2 50.0 1 2 50.0 0 0 - 0 0 0 0 0 0 0 0 -
p3
aVSam Bowie LAL 05/18/1995 LAL vs. SAN L 15 2 1 2 50.0 0 0 - 0 0 - 0 2 2 0 0 0 2 0 -
p4
aVEddie Jones LAL 05/18/1995 LAL vs. SAN L 22 7 3 10 30.0 1 2 50.0 0 0 - 0 3 3 3 2 0 0 1 -
p5
aVAntonio Harvey LAL 05/18/1995 LAL vs. SAN L 1 0 0 0 - 0 0 - 0 0 - 0 0 0 0 0 0 0 0 -
p6
aVAnthony Miller LAL 05/18/1995 LAL vs. SAN L 1 0 0 0 - 0 0 - 0 0 - 0 0 0 0 0 0 0 0 -
p7
aVNick Van Exel LAL 05/18/1995 LAL vs. SAN L 47 13 2 13 15.4 0 4 0.0 9 10 90.0 2 2 4 11 1 0 1 3 -
p8
aVAnthony Peeler LAL 05/18/1995 LAL vs. SAN L 27 4 2 5 40.0 0 1 0.0 0 0 - 0 1 1 2 1 1 1 3 -
p9
aVVlade Divac LAL 05/18/1995 LAL vs. SAN L 34 13 6 14 42.9 0 0 - 1 2 50.0 2 1 3 1 1 2 1 6 -
p10
aVCedric Ceballos LAL 05/18/1995 LAL vs. SAN L 30 16 4 8 50.0 2 4 50.0 6 6 100.0 0 5 5 2 0 0 2 2 -
p11
aVElden Campbell LAL 05/18/1995 LAL vs. SAN L 43 21 10 19 52.6 0 0 - 1 2 50.0 4 4 8 2 1 3 1 2 -
p12
aVNick Van Exel LAL 05/16/1995 LAL @ SAN W 53 22 7 22 31.8 2 7 28.6 6 8 75.0 0 1 1 7 2 0 2 3 -
p13
aVCedric Ceballos LAL 05/16/1995 LAL @ SAN W 46 20 6 15 40.0 2 7 28.6 6 10 60.0 1 7 8 1 4 2 2 3 -
p14
aVElden Campbell LAL 05/16/1995 LAL @ SAN W 41 17 5 14 35.7 0 0 - 7 10 70.0 0 5 5 2 0 4 1 4 -
p15
aVSam Bowie LAL 05/16/1995 LAL @ SAN W 16 5 2 5 40.0 0 0 - 1 1 100.0 4 3 7 1 0 0 1 3 -
p16
aVEddie Jones LAL 05/16/1995 LAL @ SAN W 35 9 3 6 50.0 3 4 75.0 0 0 - 0 2 2 0 1 1 0 3 -
p17
aVGeorge Lynch LAL 05/16/1995 LAL @ SAN W 10 2 1 2 50.0 0 0 - 0 0 - 0 0 0 0 2 0 1 0 -
p18
aVAnthony Peeler LAL 05/16/1995 LAL @ SAN W 21 15 6 11 54.5 0 1 0.0 3 4 75.0 2 2 4 3 2 0 2 1 -
p19
aVVlade Divac LAL 05/16/1995 LAL @ SAN W 43 8 3 8 37.5 0 1 0.0 2 4 50.0 4 11 15 5 0 0 3 4 -
p20
aVSam Bowie LAL 05/14/1995 LAL vs. SAN L 16 2 0 0 - 0 0 - 2 2 100.0 0 4 4 0 0 3 0 2 -
p21
aVGeorge Lynch LAL 05/14/1995 LAL vs. SAN L 19 5 1 6 16.7 0 1 0.0 3 4 75.0 5 3 8 2 1 0 3 2 -
p22
aVAnthony Peeler LAL 05/14/1995 LAL vs. SAN L 25 10 3 7 42.9 2 5 40.0 2 4 50.0 0 4 4 5 0 0 2 4 -
p23
aVEddie Jones LAL 05/14/1995 LAL vs. SAN L 30 10 4 9 44.4 1 3 33.3 1 3 33.3 0 3 3 2 1 0 3 5 -
p24
aVCedric Ceballos LAL 05/14/1995 LAL vs. SAN L 27 7 3 11 27.3 1 6 16.7 0 0 - 2 4 6 1 1 0 1 1 -
p25
aVTony Smith LAL 05/14/1995 LAL vs. SAN L 6 3 1 2 50.0 1 2 50.0 0 0 - 1 0 1 3 0 0 0 0 -
p26
aVVlade Divac LAL 05/14/1995 LAL vs. SAN L 37 14 5 12 41.7 0 1 0.0 4 6 66.7 2 1 3 0 1 3 2 3 -
p27
aVNick Van Exel LAL 05/14/1995 LAL vs. SAN L 42 8 4 16 25.0 0 6 0.0 0 0 - 2 4 6 5 1 0 5 3 -
p28
aVElden Campbell LAL 05/14/1995 LAL vs. SAN L 38 12 6 12 50.0 0 0 - 0 0 - 3 2 5 3 1 3 2 5 -
p29
aVCedric Ceballos LAL 05/12/1995 LAL vs. SAN W 40 22 8 16 50.0 3 4 75.0 3 5 60.0 2 8 10 2 4 1 2 3 -
p30
aVElden Campbell LAL 05/12/1995 LAL vs. SAN W 35 8 2 9 22.2 0 0 - 4 6 66.7 1 4 5 1 1 3 1 3 -
p31
aVTony Smith LAL 05/12/1995 LAL vs. SAN W 3 0 0 2 0.0 0 0 - 0 0 - 0 0 0 0 0 0 1 0 -
p32
aVAnthony Peeler LAL 05/12/1995 LAL vs. SAN W 20 6 3 6 50.0 0 2 0.0 0 0 - 0 1 1 2 1 0 2 1 -
p33
aVVlade Divac LAL 05/12/1995 LAL vs. SAN W 38 14 5 11 45.5 0 1 0.0 4 6 66.7 5 8 13 3 1 1 3 6 -
p34
aVEddie Jones LAL 05/12/1995 LAL vs. SAN W 31 10 4 10 40.0 0 1 0.0 2 2 100.0 1 2 3 0 2 1 4 3 -
p35
aVGeorge Lynch LAL 05/12/1995 LAL vs. SAN W 18 3 1 1 100.0 0 0 - 1 2 50.0 1 3 4 3 1 0 1 5 -
p36
aVNick Van Exel LAL 05/12/1995 LAL vs. SAN W 45 25 9 18 50.0 4 8 50.0 3 4 75.0 0 3 3 8 2 0 2 3 -
p37
aVSam Bowie LAL 05/12/1995 LAL vs. SAN W 10 4 2 4 50.0 0 0 - 0 0 - 0 4 4 0 0 1 0 0 -
p38
aVCedric Ceballos LAL 05/08/1995 LAL @ SAN L 27 2 1 5 20.0 0 0 - 0 0 - 0 2 2 1 0 3 1 4 -
p39
aVElden Campbell LAL 05/08/1995 LAL @ SAN L 51 25 11 22 50.0 0 0 - 3 5 60.0 5 13 18 2 0 3 4 6 -
p40
aVTony Smith LAL 05/08/1995 LAL @ SAN L 1 0 0 0 - 0 0 - 0 0 - 0 0 0 0 0 0 0 0 -
p41
aVEddie Jones LAL 05/08/1995 LAL @ SAN L 39 20 7 15 46.7 3 6 50.0 3 4 75.0 2 5 7 3 1 0 0 2 -
p42
aVSam Bowie LAL 05/08/1995 LAL @ SAN L 12 0 0 3 0.0 0 0 - 0 0 - 0 0 0 0 0 0 1 0 -
p43
aVGeorge Lynch LAL 05/08/1995 LAL @ SAN L 27 13 6 11 54.5 0 2 0.0 1 4 25.0 4 4 8 0 1 0 0 5 -
p44
aVNick Van Exel LAL 05/08/1995 LAL @ SAN L 52 17 6 16 37.5 1 6 16.7 4 4 100.0 0 4 4 10 4 1 1 4 -
p45
aVVlade Divac LAL 05/08/1995 LAL @ SAN L 36 11 3 12 25.0 1 3 33.3 4 6 66.7 1 6 7 4 1 1 3 5 -
p46
aVAnthony Peeler LAL 05/08/1995 LAL @ SAN L 20 2 0 3 0.0 0 1 0.0 2 2 100.0 0 0 0 2 1 0 1 2 -
p47
aVAntonio Harvey LAL 05/06/1995 LAL @ SAN L 1 0 0 0 - 0 0 - 0 0 - 0 0 0 0 0 0 0 0 -
p48
aVAnthony Miller LAL 05/06/1995 LAL @ SAN L 1 0 0 2 0.0 0 0 - 0 0 - 1 0 1 0 0 0 0 0 -
p49
aVNick Van Exel LAL 05/06/1995 LAL @ SAN L 42 16 7 13 53.8 0 2 0.0 2 4 50.0 3 0 3 12 2 0 3 5 -
p50
aVTony Smith LAL 05/06/1995 LAL @ SAN L 6 0 0 2 0.0 0 2 0.0 0 0 - 0 2 2 0 0 0 1 0 -
p51
aVElden Campbell LAL 05/06/1995 LAL @ SAN L 39 29 12 20 60.0 0 0 - 5 6 83.3 5 5 10 0 0 4 0 6 -
p52
aVEddie Jones LAL 05/06/1995 LAL @ SAN L 27 5 1 8 12.5 1 2 50.0 2 2 100.0 1 1 2 3 0 2 2 4 -
p53
aVAnthony Peeler LAL 05/06/1995 LAL @ SAN L 36 6 2 10 20.0 0 3 0.0 2 4 50.0 0 6 6 0 1 0 0 2 -
p54
aVCedric Ceballos LAL 05/06/1995 LAL @ SAN L 28 7 3 10 30.0 1 4 25.0 0 0 - 2 5 7 1 0 1 2 1 -
p55
aVVlade Divac LAL 05/06/1995 LAL @ SAN L 41 25 10 19 52.6 0 2 0.0 5 8 62.5 6 5 11 2 1 1 2 3 -
p56
aVSam Bowie LAL 05/06/1995 LAL @ SAN L 12 4 1 5 20.0 0 0 - 2 2 100.0 4 1 5 0 1 1 0 3 -
p57
aVGeorge Lynch LAL 05/06/1995 LAL @ SAN L 7 2 1 3 33.3 0 0 - 0 0 - 0 0 0 0 0 0 0 1 -
p58
aVNick Van Exel LAL 05/04/1995 LAL vs. SEA W 48 34 13 23 56.5 7 13 53.8 1 4 25.0 0 6 6 9 0 0 2 4 -
p59
aVElden Campbell LAL 05/04/1995 LAL vs. SEA W 41 13 3 6 50.0 0 0 - 7 11 63.6 3 3 6 2 1 3 2 5 -
p60
aVCedric Ceballos LAL 05/04/1995 LAL vs. SEA W 32 17 5 14 35.7 1 6 16.7 6 8 75.0 0 5 5 2 0 0 2 1 -
p61
aVEddie Jones LAL 05/04/1995 LAL vs. SEA W 26 10 3 8 37.5 2 3 66.7 2 4 50.0 1 4 5 1 1 2 2 3 -
p62
aVSam Bowie LAL 05/04/1995 LAL vs. SEA W 10 0 0 2 0.0 0 0 - 0 0 - 4 1 5 0 0 1 0 4 -
p63
aVAnthony Peeler LAL 05/04/1995 LAL vs. SEA W 39 16 4 8 50.0 2 5 40.0 6 6 100.0 2 0 2 3 2 1 2 2 -
p64
aVVlade Divac LAL 05/04/1995 LAL vs. SEA W 39 23 7 10 70.0 0 0 - 9 15 60.0 5 6 11 4 1 0 2 4 -
p65
aVGeorge Lynch LAL 05/04/1995 LAL vs. SEA W 5 1 0 0 - 0 0 - 1 2 50.0 0 1 1 1 0 0 1 0 -
p66
aVGeorge Lynch LAL 05/01/1995 LAL vs. SEA W 12 5 1 2 50.0 0 0 - 3 4 75.0 1 0 1 0 2 0 0 4 -
p67
aVAnthony Peeler LAL 05/01/1995 LAL vs. SEA W 27 11 4 10 40.0 1 5 20.0 2 2 100.0 3 2 5 1 1 0 0 1 -
p68
aVCedric Ceballos LAL 05/01/1995 LAL vs. SEA W 43 24 8 19 42.1 2 6 33.3 6 7 85.7 1 7 8 6 2 0 3 2 -
p69
aVAnthony Miller LAL 05/01/1995 LAL vs. SEA W 3 0 0 0 - 0 0 - 0 0 - 0 1 1 0 0 0 0 0 -
p70
aVSam Bowie LAL 05/01/1995 LAL vs. SEA W 7 0 0 1 0.0 0 0 - 0 0 - 0 0 0 0 0 1 1 5 -
p71
aVNick Van Exel LAL 05/01/1995 LAL vs. SEA W 48 23 5 14 35.7 4 7 57.1 9 10 90.0 1 3 4 6 1 1 0 3 -
p72
aVVlade Divac LAL 05/01/1995 LAL vs. SEA W 43 20 7 12 58.3 0 0 - 6 8 75.0 4 5 9 4 0 3 3 5 -
p73
aVEddie Jones LAL 05/01/1995 LAL vs. SEA W 23 12 3 4 75.0 1 1 100.0 5 6 83.3 1 1 2 2 0 0 4 2 -
p74
aVElden Campbell LAL 05/01/1995 LAL vs. SEA W 34 10 5 9 55.6 0 0 - 0 0 - 1 5 6 2 0 3 2 5 -
p75
aVGeorge Lynch LAL 04/29/1995 LAL @ SEA W 11 2 0 1 0.0 0 1 0.0 2 2 100.0 0 3 3 0 0 0 0 3 -
p76
aVSam Bowie LAL 04/29/1995 LAL @ SEA W 12 2 1 3 33.3 0 0 - 0 0 - 1 3 4 0 0 1 1 5 -
p77
aVVlade Divac LAL 04/29/1995 LAL @ SEA W 46 17 6 15 40.0 1 1 100.0 4 6 66.7 2 5 7 6 1 1 5 4 -
p78
aVEddie Jones LAL 04/29/1995 LAL @ SEA W 26 2 1 4 25.0 0 0 - 0 0 - 0 3 3 5 0 2 0 1 -
p79
aVNick Van Exel LAL 04/29/1995 LAL @ SEA W 48 13 5 10 50.0 1 4 25.0 2 2 100.0 0 3 3 4 4 1 4 4 -
p80
aVAnthony Peeler LAL 04/29/1995 LAL @ SEA W 28 10 4 8 50.0 2 4 50.0 0 0 - 0 2 2 5 0 0 1 2 -
p81
aVCedric Ceballos LAL 04/29/1995 LAL @ SEA W 42 25 9 18 50.0 6 9 66.7 1 2 50.0 1 4 5 1 0 0 1 2 -
p82
aVElden Campbell LAL 04/29/1995 LAL @ SEA W 27 13 6 10 60.0 0 0 - 1 2 50.0 0 4 4 1 0 3 1 4 -
p83
aVSedale Threatt LAL 04/27/1995 LAL @ SEA L 11 2 1 4 25.0 0 2 0.0 0 0 - 0 0 0 2 1 0 0 2 -
p84
aVCedric Ceballos LAL 04/27/1995 LAL @ SEA L 25 2 1 10 10.0 0 4 0.0 0 0 - 2 3 5 1 1 0 5 2 -
p85
aVElden Campbell LAL 04/27/1995 LAL @ SEA L 27 9 4 11 36.4 0 0 - 1 2 50.0 4 2 6 1 0 1 1 4 -
p86
aVAnthony Miller LAL 04/27/1995 LAL @ SEA L 10 0 0 0 - 0 0 - 0 0 - 1 3 4 1 1 0 1 2 -
p87
aVGeorge Lynch LAL 04/27/1995 LAL @ SEA L 8 2 1 1 100.0 0 0 - 0 0 - 1 2 3 0 1 0 2 0 -
p88
aVAnthony Peeler LAL 04/27/1995 LAL @ SEA L 25 9 4 11 36.4 1 4 25.0 0 0 - 1 2 3 2 1 0 1 5 -
p89
aVVlade Divac LAL 04/27/1995 LAL @ SEA L 31 11 5 9 55.6 0 0 - 1 1 100.0 3 3 6 2 1 1 4 4 -
p90
aVEddie Jones LAL 04/27/1995 LAL @ SEA L 27 2 1 6 16.7 0 5 0.0 0 0 - 1 1 2 1 0 1 2 3 -
p91
aVNick Van Exel LAL 04/27/1995 LAL @ SEA L 39 29 9 17 52.9 2 9 22.2 9 13 69.2 1 3 4 1 4 0 2 1 -
p92
aVSam Bowie LAL 04/27/1995 LAL @ SEA L 25 2 1 5 20.0 0 0 - 0 0 - 0 2 2 2 0 1 0 3 -
p93
aVTony Smith LAL 04/27/1995 LAL @ SEA L 10 3 1 5 20.0 1 4 25.0 0 2 0.0 0 0 0 0 0 0 2 1 -
p94
aVAntonio Harvey LAL 04/27/1995 LAL @ SEA L 2 0 0 0 - 0 0 - 0 0 - 0 1 1 0 0 0 0 0 -
p95
a.