(lp0
VPLAYER TEAM DATE MATCHUP W/L MIN PTS FGM FGA FG% 3PM 3PA 3P% FTM FTA FT% OREB DREB REB AST STL BLK TOV PF +/-
p1
aVKenny Gattison CHH 05/04/1995 CHH @ CHI L 15 0 0 0 - 0 0 - 0 0 - 0 2 2 0 1 0 2 4 -
p2
aVGreg Sutton CHH 05/04/1995 CHH @ CHI L 6 0 0 3 0.0 0 3 0.0 0 0 - 1 1 2 2 0 0 1 0 -
p3
aVHersey Hawkins CHH 05/04/1995 CHH @ CHI L 31 15 3 9 33.3 1 3 33.3 8 8 100.0 1 6 7 3 2 0 1 2 -
p4
aVDavid Wingate CHH 05/04/1995 CHH @ CHI L 26 11 5 8 62.5 0 2 0.0 1 2 50.0 1 2 3 5 1 0 2 4 -
p5
aVAlonzo Mourning CHH 05/04/1995 CHH @ CHI L 42 20 3 7 42.9 0 0 - 14 16 87.5 4 9 13 3 1 4 4 5 -
p6
aVDell Curry CHH 05/04/1995 CHH @ CHI L 32 14 4 7 57.1 2 5 40.0 4 4 100.0 2 0 2 0 0 0 3 3 -
p7
aVLarry Johnson CHH 05/04/1995 CHH @ CHI L 45 18 8 17 47.1 0 3 0.0 2 4 50.0 2 3 5 0 1 1 2 2 -
p8
aVRobert Parish CHH 05/04/1995 CHH @ CHI L 10 2 1 1 100.0 0 0 - 0 0 - 0 1 1 0 0 1 0 0 -
p9
aVMuggsy Bogues CHH 05/04/1995 CHH @ CHI L 33 4 2 12 16.7 0 0 - 0 0 - 0 1 1 5 2 0 3 1 -
p10
aVDell Curry CHH 05/02/1995 CHH @ CHI L 31 12 4 7 57.1 2 3 66.7 2 3 66.7 2 1 3 3 0 0 2 4 -
p11
aVHersey Hawkins CHH 05/02/1995 CHH @ CHI L 37 7 2 6 33.3 1 5 20.0 2 3 66.7 1 1 2 3 1 0 3 4 -
p12
aVKenny Gattison CHH 05/02/1995 CHH @ CHI L 11 4 2 2 100.0 0 0 - 0 0 - 0 2 2 1 0 0 1 5 -
p13
aVJoe Wolf CHH 05/02/1995 CHH @ CHI L 3 0 0 0 - 0 0 - 0 0 - 0 0 0 0 0 0 0 0 -
p14
aVLarry Johnson CHH 05/02/1995 CHH @ CHI L 39 22 8 12 66.7 0 1 0.0 6 7 85.7 1 5 6 3 1 0 2 1 -
p15
aVRobert Parish CHH 05/02/1995 CHH @ CHI L 19 2 1 3 33.3 0 0 - 0 0 - 0 3 3 0 0 0 1 0 -
p16
aVMuggsy Bogues CHH 05/02/1995 CHH @ CHI L 34 11 5 12 41.7 0 0 - 1 1 100.0 1 0 1 3 1 0 2 3 -
p17
aVDavid Wingate CHH 05/02/1995 CHH @ CHI L 12 9 4 9 44.4 1 2 50.0 0 0 - 0 0 0 1 0 0 1 3 -
p18
aVGreg Sutton CHH 05/02/1995 CHH @ CHI L 6 0 0 3 0.0 0 1 0.0 0 0 - 0 1 1 0 0 0 0 0 -
p19
aVAlonzo Mourning CHH 05/02/1995 CHH @ CHI L 40 13 2 9 22.2 0 0 - 9 10 90.0 2 5 7 1 0 1 6 4 -
p20
aVDarrin Hancock CHH 05/02/1995 CHH @ CHI L 8 0 0 2 0.0 0 0 - 0 0 - 1 0 1 0 0 0 2 3 -
p21
aVMichael Adams CHH 04/30/1995 CHH vs. CHI W 11 4 2 5 40.0 0 2 0.0 0 0 - 0 1 1 2 0 0 0 0 -
p22
aVLarry Johnson CHH 04/30/1995 CHH vs. CHI W 41 25 9 18 50.0 1 1 100.0 6 8 75.0 4 2 6 2 2 0 2 4 -
p23
aVMuggsy Bogues CHH 04/30/1995 CHH vs. CHI W 36 13 5 11 45.5 1 2 50.0 2 2 100.0 1 2 3 7 1 0 2 1 -
p24
aVRobert Parish CHH 04/30/1995 CHH vs. CHI W 23 6 3 4 75.0 0 0 - 0 1 0.0 1 0 1 1 0 2 0 1 -
p25
aVKenny Gattison CHH 04/30/1995 CHH vs. CHI W 8 2 0 1 0.0 0 0 - 2 2 100.0 1 0 1 0 0 0 0 3 -
p26
aVHersey Hawkins CHH 04/30/1995 CHH vs. CHI W 28 15 5 11 45.5 2 5 40.0 3 4 75.0 2 4 6 1 3 2 2 1 -
p27
aVAlonzo Mourning CHH 04/30/1995 CHH vs. CHI W 44 23 6 15 40.0 1 2 50.0 10 10 100.0 5 15 20 4 0 1 2 3 -
p28
aVDavid Wingate CHH 04/30/1995 CHH vs. CHI W 16 2 1 7 14.3 0 1 0.0 0 0 - 2 0 2 5 1 0 1 4 -
p29
aVDell Curry CHH 04/30/1995 CHH vs. CHI W 24 12 4 9 44.4 2 6 33.3 2 2 100.0 0 2 2 1 0 0 0 3 -
p30
aVDarrin Hancock CHH 04/30/1995 CHH vs. CHI W 9 4 2 4 50.0 0 0 - 0 0 - 1 2 3 1 1 0 1 2 -
p31
aVMuggsy Bogues CHH 04/28/1995 CHH vs. CHI L 42 6 2 10 20.0 0 1 0.0 2 2 100.0 1 0 1 10 0 0 2 3 -
p32
aVKenny Gattison CHH 04/28/1995 CHH vs. CHI L 24 9 3 5 60.0 0 0 - 3 6 50.0 4 3 7 1 1 0 2 4 -
p33
aVRobert Parish CHH 04/28/1995 CHH vs. CHI L 19 4 1 3 33.3 0 0 - 2 4 50.0 3 1 4 0 0 0 0 1 -
p34
aVGreg Sutton CHH 04/28/1995 CHH vs. CHI L 11 0 0 1 0.0 0 1 0.0 0 0 - 2 0 2 1 0 0 0 1 -
p35
aVAlonzo Mourning CHH 04/28/1995 CHH vs. CHI L 48 32 13 26 50.0 3 6 50.0 3 7 42.9 3 10 13 3 2 7 2 5 -
p36
aVHersey Hawkins CHH 04/28/1995 CHH vs. CHI L 34 8 3 6 50.0 0 0 - 2 2 100.0 1 5 6 1 0 0 3 6 -
p37
aVDarrin Hancock CHH 04/28/1995 CHH vs. CHI L 1 0 0 0 - 0 0 - 0 0 - 0 0 0 0 0 0 0 0 -
p38
aVDavid Wingate CHH 04/28/1995 CHH vs. CHI L 19 10 3 3 100.0 1 1 100.0 3 4 75.0 0 1 1 4 2 0 0 3 -
p39
aVLarry Johnson CHH 04/28/1995 CHH vs. CHI L 47 18 6 18 33.3 0 4 0.0 6 6 100.0 3 3 6 6 0 1 0 0 -
p40
aVDell Curry CHH 04/28/1995 CHH vs. CHI L 20 13 4 11 36.4 3 7 42.9 2 2 100.0 1 1 2 2 0 0 1 1 -
p41
a.