(lp0
VPLAYER TEAM DATE MATCHUP W/L MIN PTS FGM FGA FG% 3PM 3PA 3P% FTM FTA FT% OREB DREB REB AST STL BLK TOV PF +/-
p1
aVSteve Kerr CHI 05/18/1995 CHI vs. ORL L 14 2 1 2 50.0 0 0 - 0 0 - 1 0 1 1 0 0 0 0 -
p2
aVB.J. Armstrong CHI 05/18/1995 CHI vs. ORL L 30 14 6 11 54.5 2 5 40.0 0 0 - 0 1 1 6 0 0 0 1 -
p3
aVScottie Pippen CHI 05/18/1995 CHI vs. ORL L 43 26 8 15 53.3 1 3 33.3 9 12 75.0 3 9 12 6 2 0 4 2 -
p4
aVBill Wennington CHI 05/18/1995 CHI vs. ORL L 6 2 1 1 100.0 0 0 - 0 0 - 1 0 1 0 0 0 0 3 -
p5
aVJud Buechler CHI 05/18/1995 CHI vs. ORL L 13 1 0 2 0.0 0 0 - 1 2 50.0 1 2 3 0 2 0 1 1 -
p6
aVRon Harper CHI 05/18/1995 CHI vs. ORL L 16 8 4 9 44.4 0 1 0.0 0 0 - 0 1 1 1 2 0 0 2 -
p7
aVMichael Jordan CHI 05/18/1995 CHI vs. ORL L 39 24 8 19 42.1 1 2 50.0 7 10 70.0 2 7 9 7 4 4 6 5 -
p8
aVToni Kukoc CHI 05/18/1995 CHI vs. ORL L 35 15 5 10 50.0 1 3 33.3 4 5 80.0 1 5 6 5 1 1 2 0 -
p9
aVWill Perdue CHI 05/18/1995 CHI vs. ORL L 7 4 2 2 100.0 0 0 - 0 0 - 1 0 1 0 0 1 0 2 -
p10
aVPete Myers CHI 05/18/1995 CHI vs. ORL L 2 0 0 0 - 0 0 - 0 0 - 0 1 1 0 0 0 0 0 -
p11
aVLuc Longley CHI 05/18/1995 CHI vs. ORL L 35 6 3 8 37.5 0 0 - 0 0 - 0 6 6 1 2 0 2 5 -
p12
aVLuc Longley CHI 05/16/1995 CHI @ ORL L 18 7 3 6 50.0 0 0 - 1 2 50.0 1 1 2 1 1 1 0 4 -
p13
aVWill Perdue CHI 05/16/1995 CHI @ ORL L 12 2 0 1 0.0 0 0 - 2 2 100.0 3 2 5 0 1 0 2 3 -
p14
aVSteve Kerr CHI 05/16/1995 CHI @ ORL L 14 0 0 1 0.0 0 1 0.0 0 0 - 0 1 1 3 0 0 0 1 -
p15
aVJud Buechler CHI 05/16/1995 CHI @ ORL L 14 8 4 4 100.0 0 0 - 0 0 - 1 1 2 0 0 0 0 2 -
p16
aVBill Wennington CHI 05/16/1995 CHI @ ORL L 14 4 2 11 18.2 0 0 - 0 0 - 3 2 5 1 1 0 1 4 -
p17
aVB.J. Armstrong CHI 05/16/1995 CHI @ ORL L 35 18 6 16 37.5 1 4 25.0 5 6 83.3 3 1 4 4 0 0 2 2 -
p18
aVCorie Blount CHI 05/16/1995 CHI @ ORL L 1 0 0 0 - 0 0 - 0 0 - 0 0 0 0 0 0 0 0 -
p19
aVScottie Pippen CHI 05/16/1995 CHI @ ORL L 41 10 4 13 30.8 1 3 33.3 1 6 16.7 4 7 11 5 1 2 2 5 -
p20
aVRon Harper CHI 05/16/1995 CHI @ ORL L 8 2 1 3 33.3 0 1 0.0 0 0 - 0 0 0 2 0 1 0 2 -
p21
aVToni Kukoc CHI 05/16/1995 CHI @ ORL L 38 5 2 6 33.3 0 2 0.0 1 2 50.0 2 4 6 6 0 0 0 3 -
p22
aVMichael Jordan CHI 05/16/1995 CHI @ ORL L 45 39 15 28 53.6 1 4 25.0 8 8 100.0 0 4 4 2 2 2 0 1 -
p23
aVScottie Pippen CHI 05/14/1995 CHI vs. ORL W 41 24 7 15 46.7 3 7 42.9 7 9 77.8 5 1 6 7 1 2 1 3 -
p24
aVRon Harper CHI 05/14/1995 CHI vs. ORL W 11 2 1 2 50.0 0 0 - 0 0 - 2 2 4 0 1 0 0 2 -
p25
aVPete Myers CHI 05/14/1995 CHI vs. ORL W 3 0 0 0 - 0 0 - 0 0 - 1 1 2 0 0 1 0 1 -
p26
aVCorie Blount CHI 05/14/1995 CHI vs. ORL W 1 0 0 0 - 0 0 - 0 0 - 0 0 0 0 0 0 0 0 -
p27
aVMichael Jordan CHI 05/14/1995 CHI vs. ORL W 44 26 9 21 42.9 0 1 0.0 8 8 100.0 2 5 7 3 4 0 4 2 -
p28
aVSteve Kerr CHI 05/14/1995 CHI vs. ORL W 14 2 1 2 50.0 0 1 0.0 0 0 - 0 2 2 2 0 0 0 3 -
p29
aVB.J. Armstrong CHI 05/14/1995 CHI vs. ORL W 31 18 5 9 55.6 1 2 50.0 7 9 77.8 0 1 1 5 0 0 1 2 -
p30
aVBill Wennington CHI 05/14/1995 CHI vs. ORL W 12 4 2 5 40.0 0 0 - 0 0 - 0 0 0 0 0 1 1 5 -
p31
aVLuc Longley CHI 05/14/1995 CHI vs. ORL W 10 5 1 3 33.3 0 0 - 3 4 75.0 0 1 1 1 1 0 1 1 -
p32
aVToni Kukoc CHI 05/14/1995 CHI vs. ORL W 37 13 6 13 46.2 1 3 33.3 0 0 - 2 5 7 9 4 1 2 3 -
p33
aVWill Perdue CHI 05/14/1995 CHI vs. ORL W 25 11 4 7 57.1 0 0 - 3 5 60.0 1 5 6 1 0 0 0 2 -
p34
aVJud Buechler CHI 05/14/1995 CHI vs. ORL W 11 1 0 3 0.0 0 1 0.0 1 2 50.0 1 1 2 1 0 2 1 1 -
p35
aVSteve Kerr CHI 05/12/1995 CHI vs. ORL L 17 6 2 6 33.3 2 4 50.0 0 0 - 0 0 0 1 0 0 0 1 -
p36
aVLuc Longley CHI 05/12/1995 CHI vs. ORL L 19 6 3 4 75.0 0 0 - 0 0 - 1 2 3 1 0 0 0 4 -
p37
aVJud Buechler CHI 05/12/1995 CHI vs. ORL L 16 0 0 1 0.0 0 0 - 0 0 - 1 2 3 1 0 0 0 1 -
p38
aVBill Wennington CHI 05/12/1995 CHI vs. ORL L 16 2 1 3 33.3 0 0 - 0 0 - 0 3 3 0 1 0 2 3 -
p39
aVMichael Jordan CHI 05/12/1995 CHI vs. ORL L 43 40 15 31 48.4 0 3 0.0 10 10 100.0 4 3 7 4 0 1 4 3 -
p40
aVPete Myers CHI 05/12/1995 CHI vs. ORL L 11 0 0 1 0.0 0 0 - 0 0 - 0 1 1 3 0 0 0 1 -
p41
aVB.J. Armstrong CHI 05/12/1995 CHI vs. ORL L 25 14 5 10 50.0 3 5 60.0 1 1 100.0 0 1 1 3 2 0 0 3 -
p42
aVToni Kukoc CHI 05/12/1995 CHI vs. ORL L 40 8 3 10 30.0 0 2 0.0 2 2 100.0 0 6 6 7 1 0 3 3 -
p43
aVScottie Pippen CHI 05/12/1995 CHI vs. ORL L 40 25 9 20 45.0 1 5 20.0 6 9 66.7 3 9 12 4 1 0 1 4 -
p44
aVWill Perdue CHI 05/12/1995 CHI vs. ORL L 13 0 0 0 - 0 0 - 0 0 - 1 0 1 0 0 0 0 4 -
p45
aVRon Harper CHI 05/10/1995 CHI @ ORL W 1 0 0 0 - 0 0 - 0 0 - 0 0 0 0 0 0 0 0 -
p46
aVBill Wennington CHI 05/10/1995 CHI @ ORL W 9 4 1 2 50.0 0 0 - 2 2 100.0 1 1 2 0 0 0 0 2 -
p47
aVWill Perdue CHI 05/10/1995 CHI @ ORL W 26 7 2 5 40.0 0 0 - 3 4 75.0 3 5 8 0 0 0 0 5 -
p48
aVLuc Longley CHI 05/10/1995 CHI @ ORL W 11 2 1 1 100.0 0 0 - 0 0 - 0 3 3 0 0 0 1 5 -
p49
aVJud Buechler CHI 05/10/1995 CHI @ ORL W 9 4 2 4 50.0 0 0 - 0 0 - 2 1 3 0 0 0 0 3 -
p50
aVMichael Jordan CHI 05/10/1995 CHI @ ORL W 43 38 17 30 56.7 1 1 100.0 3 8 37.5 3 4 7 3 4 4 2 4 -
p51
aVToni Kukoc CHI 05/10/1995 CHI @ ORL W 43 11 5 10 50.0 1 3 33.3 0 0 - 1 7 8 4 1 0 1 2 -
p52
aVScottie Pippen CHI 05/10/1995 CHI @ ORL W 39 22 6 14 42.9 2 4 50.0 8 10 80.0 1 6 7 5 1 1 6 2 -
p53
aVCorie Blount CHI 05/10/1995 CHI @ ORL W 3 0 0 0 - 0 0 - 0 0 - 0 2 2 0 0 0 0 2 -
p54
aVSteve Kerr CHI 05/10/1995 CHI @ ORL W 25 11 4 6 66.7 1 2 50.0 2 2 100.0 0 0 0 1 0 0 0 2 -
p55
aVB.J. Armstrong CHI 05/10/1995 CHI @ ORL W 24 3 1 6 16.7 1 1 100.0 0 0 - 0 0 0 4 0 0 0 3 -
p56
aVPete Myers CHI 05/10/1995 CHI @ ORL W 7 2 1 1 100.0 0 0 - 0 2 0.0 1 0 1 2 0 0 0 0 -
p57
aVSteve Kerr CHI 05/07/1995 CHI @ ORL L 25 11 4 6 66.7 2 2 100.0 1 1 100.0 0 0 0 1 1 0 0 1 -
p58
aVMichael Jordan CHI 05/07/1995 CHI @ ORL L 40 19 8 22 36.4 0 2 0.0 3 5 60.0 2 3 5 3 1 0 8 2 -
p59
aVToni Kukoc CHI 05/07/1995 CHI @ ORL L 39 17 6 12 50.0 2 4 50.0 3 3 100.0 4 5 9 7 1 0 2 2 -
p60
aVCorie Blount CHI 05/07/1995 CHI @ ORL L 4 0 0 1 0.0 0 0 - 0 0 - 0 1 1 0 0 0 0 1 -
p61
aVPete Myers CHI 05/07/1995 CHI @ ORL L 8 1 0 2 0.0 0 0 - 1 2 50.0 1 0 1 1 0 0 0 3 -
p62
aVLuc Longley CHI 05/07/1995 CHI @ ORL L 13 6 2 4 50.0 0 0 - 2 2 100.0 0 1 1 2 2 0 0 4 -
p63
aVWill Perdue CHI 05/07/1995 CHI @ ORL L 11 8 4 6 66.7 0 0 - 0 0 - 3 2 5 1 0 0 2 3 -
p64
aVBill Wennington CHI 05/07/1995 CHI @ ORL L 23 14 5 6 83.3 0 0 - 4 4 100.0 2 2 4 0 0 1 1 3 -
p65
aVB.J. Armstrong CHI 05/07/1995 CHI @ ORL L 21 8 3 6 50.0 1 3 33.3 1 2 50.0 0 3 3 0 2 0 1 1 -
p66
aVScottie Pippen CHI 05/07/1995 CHI @ ORL L 44 7 2 11 18.2 1 4 25.0 2 2 100.0 1 9 10 7 0 3 3 5 -
p67
aVJud Buechler CHI 05/07/1995 CHI @ ORL L 9 0 0 2 0.0 0 1 0.0 0 0 - 2 0 2 1 0 0 0 1 -
p68
aVRon Harper CHI 05/07/1995 CHI @ ORL L 3 0 0 0 - 0 0 - 0 0 - 0 1 1 0 0 0 1 0 -
p69
aVJud Buechler CHI 05/04/1995 CHI vs. CHH W 8 2 1 2 50.0 0 0 - 0 0 - 2 0 2 1 1 0 0 1 -
p70
aVWill Perdue CHI 05/04/1995 CHI vs. CHH W 20 4 2 3 66.7 0 0 - 0 0 - 1 4 5 1 0 0 2 2 -
p71
aVSteve Kerr CHI 05/04/1995 CHI vs. CHH W 18 2 1 4 25.0 0 2 0.0 0 0 - 0 1 1 2 0 0 0 1 -
p72
aVBill Wennington CHI 05/04/1995 CHI vs. CHH W 16 4 2 8 25.0 0 0 - 0 0 - 2 3 5 0 1 0 2 3 -
p73
aVPete Myers CHI 05/04/1995 CHI vs. CHH W 10 0 0 3 0.0 0 0 - 0 0 - 0 0 0 0 2 0 1 2 -
p74
aVToni Kukoc CHI 05/04/1995 CHI vs. CHH W 41 21 7 14 50.0 4 6 66.7 3 4 75.0 5 6 11 3 1 0 3 3 -
p75
aVLuc Longley CHI 05/04/1995 CHI vs. CHH W 14 2 1 5 20.0 0 0 - 0 0 - 2 1 3 1 0 2 2 6 -
p76
aVScottie Pippen CHI 05/04/1995 CHI vs. CHH W 43 24 9 15 60.0 1 2 50.0 5 10 50.0 2 6 8 6 4 0 3 5 -
p77
aVCorie Blount CHI 05/04/1995 CHI vs. CHH W 2 0 0 0 - 0 0 - 0 0 - 1 0 1 0 0 0 0 0 -
p78
aVB.J. Armstrong CHI 05/04/1995 CHI vs. CHH W 27 2 1 5 20.0 0 3 0.0 0 0 - 0 1 1 1 0 0 0 2 -
p79
aVMichael Jordan CHI 05/04/1995 CHI vs. CHH W 41 24 8 21 38.1 3 5 60.0 5 6 83.3 1 3 4 5 3 0 3 4 -
p80
aVMichael Jordan CHI 05/02/1995 CHI vs. CHH W 38 25 9 19 47.4 1 2 50.0 6 7 85.7 2 4 6 3 4 2 6 3 -
p81
aVPete Myers CHI 05/02/1995 CHI vs. CHH W 19 8 3 4 75.0 1 1 100.0 1 2 50.0 3 1 4 2 1 0 3 2 -
p82
aVToni Kukoc CHI 05/02/1995 CHI vs. CHH W 29 22 9 10 90.0 2 2 100.0 2 6 33.3 1 3 4 5 0 0 2 2 -
p83
aVSteve Kerr CHI 05/02/1995 CHI vs. CHH W 25 9 3 7 42.9 1 3 33.3 2 2 100.0 0 0 0 0 0 0 0 3 -
p84
aVJud Buechler CHI 05/02/1995 CHI vs. CHH W 9 4 2 2 100.0 0 0 - 0 0 - 1 1 2 0 0 0 0 3 -
p85
aVBill Wennington CHI 05/02/1995 CHI vs. CHH W 11 4 2 5 40.0 0 0 - 0 0 - 2 1 3 0 0 0 0 2 -
p86
aVLuc Longley CHI 05/02/1995 CHI vs. CHH W 22 6 3 4 75.0 0 0 - 0 0 - 1 2 3 2 0 0 0 4 -
p87
aVScottie Pippen CHI 05/02/1995 CHI vs. CHH W 35 14 6 10 60.0 1 2 50.0 1 2 50.0 1 4 5 9 2 1 3 3 -
p88
aVB.J. Armstrong CHI 05/02/1995 CHI vs. CHH W 24 3 1 3 33.3 1 1 100.0 0 0 - 1 3 4 2 1 0 1 1 -
p89
aVCorie Blount CHI 05/02/1995 CHI vs. CHH W 3 0 0 2 0.0 0 1 0.0 0 0 - 0 1 1 0 0 0 0 1 -
p90
aVWill Perdue CHI 05/02/1995 CHI vs. CHH W 25 8 4 6 66.7 0 0 - 0 2 0.0 1 5 6 3 0 0 3 3 -
p91
aVSteve Kerr CHI 04/30/1995 CHI @ CHH L 22 5 2 5 40.0 1 3 33.3 0 0 - 0 0 0 3 0 0 0 2 -
p92
aVCorie Blount CHI 04/30/1995 CHI @ CHH L 1 0 0 0 - 0 0 - 0 0 - 0 0 0 0 0 0 1 0 -
p93
aVToni Kukoc CHI 04/30/1995 CHI @ CHH L 31 9 3 12 25.0 1 3 33.3 2 2 100.0 3 1 4 2 1 0 3 1 -
p94
aVMichael Jordan CHI 04/30/1995 CHI @ CHH L 40 32 13 25 52.0 3 6 50.0 3 6 50.0 3 4 7 7 0 0 5 5 -
p95
aVB.J. Armstrong CHI 04/30/1995 CHI @ CHH L 35 13 5 8 62.5 1 2 50.0 2 2 100.0 0 1 1 1 1 0 1 4 -
p96
aVPete Myers CHI 04/30/1995 CHI @ CHH L 9 0 0 0 - 0 0 - 0 0 - 0 0 0 0 0 0 0 0 -
p97
aVScottie Pippen CHI 04/30/1995 CHI @ CHH L 43 18 5 15 33.3 2 7 28.6 6 7 85.7 3 5 8 5 2 0 1 5 -
p98
aVBill Wennington CHI 04/30/1995 CHI @ CHH L 10 4 2 4 50.0 0 0 - 0 0 - 0 3 3 0 0 1 1 3 -
p99
aVJud Buechler CHI 04/30/1995 CHI @ CHH L 3 0 0 0 - 0 0 - 0 0 - 0 1 1 0 0 0 1 0 -
p100
aVWill Perdue CHI 04/30/1995 CHI @ CHH L 21 6 1 3 33.3 0 0 - 4 6 66.7 2 3 5 0 0 2 1 3 -
p101
aVLuc Longley CHI 04/30/1995 CHI @ CHH L 25 2 1 3 33.3 0 0 - 0 0 - 0 5 5 1 0 0 1 4 -
p102
aVJud Buechler CHI 04/28/1995 CHI @ CHH W 12 0 0 1 0.0 0 0 - 0 0 - 0 0 0 1 1 1 0 2 -
p103
aVCorie Blount CHI 04/28/1995 CHI @ CHH W 5 0 0 0 - 0 0 - 0 0 - 0 0 0 0 0 0 0 1 -
p104
aVPete Myers CHI 04/28/1995 CHI @ CHH W 10 2 1 3 33.3 0 1 0.0 0 0 - 0 0 0 0 1 0 0 1 -
p105
aVB.J. Armstrong CHI 04/28/1995 CHI @ CHH W 36 10 3 5 60.0 2 3 66.7 2 2 100.0 0 2 2 1 0 0 0 2 -
p106
aVWill Perdue CHI 04/28/1995 CHI @ CHH W 16 0 0 4 0.0 0 0 - 0 2 0.0 2 4 6 0 0 0 0 0 -
p107
aVMichael Jordan CHI 04/28/1995 CHI @ CHH W 47 48 18 32 56.3 1 4 25.0 11 11 100.0 1 8 9 8 1 1 3 1 -
p108
aVToni Kukoc CHI 04/28/1995 CHI @ CHH W 39 17 7 14 50.0 2 4 50.0 1 2 50.0 1 6 7 9 0 0 1 4 -
p109
aVBill Wennington CHI 04/28/1995 CHI @ CHH W 16 6 3 6 50.0 0 0 - 0 0 - 1 1 2 2 0 0 0 4 -
p110
aVScottie Pippen CHI 04/28/1995 CHI @ CHH W 27 8 2 3 66.7 1 1 100.0 3 4 75.0 1 6 7 4 0 1 3 6 -
p111
aVSteve Kerr CHI 04/28/1995 CHI @ CHH W 19 3 1 1 100.0 1 1 100.0 0 0 - 0 1 1 1 0 0 0 0 -
p112
aVLuc Longley CHI 04/28/1995 CHI @ CHH W 37 14 6 12 50.0 0 0 - 2 2 100.0 1 4 5 1 1 2 3 4 -
p113
aVRon Harper CHI 04/28/1995 CHI @ CHH W 1 0 0 0 - 0 0 - 0 0 - 0 0 0 1 0 0 0 0 -
p114
a.