(lp0
VPLAYER TEAM DATE MATCHUP W/L MIN PTS FGM FGA FG% 3PM 3PA 3P% FTM FTA FT% OREB DREB REB AST STL BLK TOV PF +/-
p1
aVBrian Shaw ORL 06/14/1995 ORL @ HOU L 23 17 6 15 40.0 5 11 45.5 0 0 - 1 3 4 4 0 1 3 5 -
p2
aVShaquille O'Neal ORL 06/14/1995 ORL @ HOU L 46 25 11 19 57.9 0 0 - 3 8 37.5 3 9 12 3 0 4 6 5 -
p3
aVAnfernee Hardaway ORL 06/14/1995 ORL @ HOU L 42 25 8 14 57.1 5 8 62.5 4 4 100.0 1 5 6 5 1 0 4 5 -
p4
aVDennis Scott ORL 06/14/1995 ORL @ HOU L 38 14 5 11 45.5 2 6 33.3 2 2 100.0 0 1 1 3 2 1 4 1 -
p5
aVJeff Turner ORL 06/14/1995 ORL @ HOU L 7 0 0 1 0.0 0 0 - 0 0 - 0 2 2 0 0 0 0 0 -
p6
aVHorace Grant ORL 06/14/1995 ORL @ HOU L 41 11 5 12 41.7 0 0 - 1 2 50.0 4 8 12 2 1 0 2 3 -
p7
aVAnthony Bowie ORL 06/14/1995 ORL @ HOU L 12 5 2 4 50.0 1 2 50.0 0 0 - 0 1 1 3 0 1 0 3 -
p8
aVNick Anderson ORL 06/14/1995 ORL @ HOU L 31 4 1 5 20.0 1 4 25.0 1 2 50.0 2 5 7 4 3 0 0 4 -
p9
aVNick Anderson ORL 06/11/1995 ORL @ HOU L 37 12 4 14 28.6 4 12 33.3 0 0 - 0 10 10 3 0 0 0 3 -
p10
aVShaquille O'Neal ORL 06/11/1995 ORL @ HOU L 45 28 11 17 64.7 0 0 - 6 11 54.5 2 8 10 6 1 3 4 3 -
p11
aVBrian Shaw ORL 06/11/1995 ORL @ HOU L 20 14 6 12 50.0 2 5 40.0 0 0 - 0 1 1 3 0 0 1 3 -
p12
aVAnthony Bowie ORL 06/11/1995 ORL @ HOU L 7 4 2 3 66.7 0 0 - 0 0 - 0 0 0 2 0 0 0 1 -
p13
aVDennis Scott ORL 06/11/1995 ORL @ HOU L 39 8 2 11 18.2 1 9 11.1 3 3 100.0 1 5 6 0 1 0 1 5 -
p14
aVAnfernee Hardaway ORL 06/11/1995 ORL @ HOU L 41 19 4 10 40.0 1 4 25.0 10 11 90.9 1 3 4 14 1 2 3 4 -
p15
aVHorace Grant ORL 06/11/1995 ORL @ HOU L 40 18 9 13 69.2 0 0 - 0 0 - 3 7 10 1 1 1 3 3 -
p16
aVJeff Turner ORL 06/11/1995 ORL @ HOU L 11 0 0 1 0.0 0 1 0.0 0 0 - 0 0 0 1 0 0 0 1 -
p17
aVShaquille O'Neal ORL 06/09/1995 ORL vs. HOU L 45 33 12 22 54.5 0 0 - 9 14 64.3 3 9 12 7 0 0 4 5 -
p18
aVNick Anderson ORL 06/09/1995 ORL vs. HOU L 43 11 4 13 30.8 1 5 20.0 2 4 50.0 1 5 6 5 2 1 2 2 -
p19
aVDennis Scott ORL 06/09/1995 ORL vs. HOU L 35 9 3 10 30.0 2 7 28.6 1 1 100.0 1 2 3 1 0 0 1 2 -
p20
aVAnfernee Hardaway ORL 06/09/1995 ORL vs. HOU L 44 32 12 21 57.1 4 6 66.7 4 5 80.0 2 3 5 8 0 0 5 3 -
p21
aVBrian Shaw ORL 06/09/1995 ORL vs. HOU L 19 8 3 8 37.5 2 5 40.0 0 0 - 2 1 3 2 1 0 2 3 -
p22
aVAnthony Bowie ORL 06/09/1995 ORL vs. HOU L 3 0 0 0 - 0 0 - 0 0 - 0 1 1 0 0 0 1 2 -
p23
aVHorace Grant ORL 06/09/1995 ORL vs. HOU L 40 10 4 7 57.1 0 0 - 2 2 100.0 5 5 10 1 0 0 0 5 -
p24
aVJeff Turner ORL 06/09/1995 ORL vs. HOU L 11 3 1 4 25.0 1 3 33.3 0 0 - 0 1 1 0 0 0 0 4 -
p25
aVJeff Turner ORL 06/07/1995 ORL vs. HOU L 14 3 1 4 25.0 1 2 50.0 0 0 - 0 1 1 1 0 0 1 1 -
p26
aVShaquille O'Neal ORL 06/07/1995 ORL vs. HOU L 44 26 10 16 62.5 0 0 - 6 9 66.7 3 13 16 9 0 3 7 5 -
p27
aVBrian Shaw ORL 06/07/1995 ORL vs. HOU L 22 11 5 12 41.7 1 5 20.0 0 0 - 1 4 5 4 1 0 2 4 -
p28
aVNick Anderson ORL 06/07/1995 ORL vs. HOU L 50 22 9 18 50.0 4 10 40.0 0 4 0.0 3 8 11 5 3 1 2 0 -
p29
aVDennis Scott ORL 06/07/1995 ORL vs. HOU L 38 11 3 10 30.0 2 7 28.6 3 3 100.0 0 4 4 5 1 0 1 4 -
p30
aVAnfernee Hardaway ORL 06/07/1995 ORL vs. HOU L 45 26 11 25 44.0 1 6 16.7 3 3 100.0 2 2 4 5 2 1 3 3 -
p31
aVDonald Royal ORL 06/07/1995 ORL vs. HOU L 1 0 0 0 - 0 0 - 0 0 - 0 0 0 0 0 0 0 0 -
p32
aVHorace Grant ORL 06/07/1995 ORL vs. HOU L 47 15 7 15 46.7 0 0 - 1 1 100.0 7 9 16 2 0 1 1 2 -
p33
aVAnthony Bowie ORL 06/07/1995 ORL vs. HOU L 4 4 2 3 66.7 0 0 - 0 0 - 0 0 0 1 0 0 1 3 -
p34
aVHorace Grant ORL 06/04/1995 ORL vs. IND W 42 16 7 9 77.8 0 0 - 2 3 66.7 2 7 9 1 2 0 2 4 -
p35
aVBrian Shaw ORL 06/04/1995 ORL vs. IND W 18 6 2 6 33.3 1 2 50.0 1 2 50.0 2 4 6 3 0 1 0 1 -
p36
aVDennis Scott ORL 06/04/1995 ORL vs. IND W 44 19 7 11 63.6 5 7 71.4 0 0 - 0 5 5 3 1 0 1 2 -
p37
aVAnthony Avent ORL 06/04/1995 ORL vs. IND W 1 0 0 1 0.0 0 1 0.0 0 0 - 0 0 0 0 0 0 0 0 -
p38
aVJeff Turner ORL 06/04/1995 ORL vs. IND W 17 6 2 7 28.6 2 6 33.3 0 0 - 0 1 1 3 0 2 0 5 -
p39
aVAnthony Bowie ORL 06/04/1995 ORL vs. IND W 13 0 0 3 0.0 0 1 0.0 0 0 - 1 2 3 3 0 0 1 4 -
p40
aVAnfernee Hardaway ORL 06/04/1995 ORL vs. IND W 30 17 7 9 77.8 2 3 66.7 1 2 50.0 0 1 1 4 3 2 3 4 -
p41
aVShaquille O'Neal ORL 06/04/1995 ORL vs. IND W 35 25 11 15 73.3 0 0 - 3 11 27.3 3 8 11 2 0 2 4 4 -
p42
aVDonald Royal ORL 06/04/1995 ORL vs. IND W 1 0 0 0 - 0 0 - 0 0 - 0 0 0 0 0 0 0 0 -
p43
aVBrooks Thompson ORL 06/04/1995 ORL vs. IND W 1 4 1 1 100.0 1 1 100.0 1 2 50.0 1 0 1 0 0 0 0 0 -
p44
aVNick Anderson ORL 06/04/1995 ORL vs. IND W 38 12 4 10 40.0 2 6 33.3 2 4 50.0 0 3 3 7 3 1 1 4 -
p45
aVDonald Royal ORL 06/02/1995 ORL @ IND L 21 2 1 3 33.3 0 0 - 0 0 - 0 1 1 0 0 0 1 2 -
p46
aVTree Rollins ORL 06/02/1995 ORL @ IND L 2 0 0 0 - 0 0 - 0 0 - 0 0 0 0 0 0 0 1 -
p47
aVAnthony Bowie ORL 06/02/1995 ORL @ IND L 12 14 5 8 62.5 4 4 100.0 0 0 - 1 1 2 3 0 0 1 1 -
p48
aVAnfernee Hardaway ORL 06/02/1995 ORL @ IND L 36 11 4 14 28.6 3 10 30.0 0 0 - 0 2 2 3 2 0 3 3 -
p49
aVBrooks Thompson ORL 06/02/1995 ORL @ IND L 4 2 0 1 0.0 0 1 0.0 2 2 100.0 0 0 0 0 0 0 1 0 -
p50
aVAnthony Avent ORL 06/02/1995 ORL @ IND L 4 4 2 3 66.7 0 0 - 0 1 0.0 1 1 2 0 0 1 0 1 -
p51
aVDennis Scott ORL 06/02/1995 ORL @ IND L 28 15 6 11 54.5 3 7 42.9 0 0 - 1 1 2 2 0 1 0 2 -
p52
aVJeff Turner ORL 06/02/1995 ORL @ IND L 6 0 0 0 - 0 0 - 0 0 - 1 1 2 0 0 0 1 1 -
p53
aVBrian Shaw ORL 06/02/1995 ORL @ IND L 26 5 2 8 25.0 1 4 25.0 0 0 - 0 3 3 4 0 0 1 4 -
p54
aVShaquille O'Neal ORL 06/02/1995 ORL @ IND L 36 26 10 15 66.7 0 0 - 6 12 50.0 2 4 6 2 2 2 0 3 -
p55
aVHorace Grant ORL 06/02/1995 ORL @ IND L 35 5 2 8 25.0 0 0 - 1 1 100.0 2 7 9 3 1 0 1 2 -
p56
aVNick Anderson ORL 06/02/1995 ORL @ IND L 30 12 5 9 55.6 1 1 100.0 1 2 50.0 0 3 3 5 0 0 2 2 -
p57
aVJeff Turner ORL 05/31/1995 ORL vs. IND W 6 0 0 0 - 0 0 - 0 0 - 0 0 0 1 0 0 0 4 -
p58
aVDonald Royal ORL 05/31/1995 ORL vs. IND W 11 6 2 2 100.0 0 0 - 2 2 100.0 1 3 4 0 0 0 0 3 -
p59
aVAnthony Bowie ORL 05/31/1995 ORL vs. IND W 1 0 0 0 - 0 0 - 0 0 - 0 0 0 0 0 0 0 0 -
p60
aVNick Anderson ORL 05/31/1995 ORL vs. IND W 38 19 8 11 72.7 2 3 66.7 1 1 100.0 2 2 4 3 1 0 2 1 -
p61
aVDennis Scott ORL 05/31/1995 ORL vs. IND W 36 8 2 11 18.2 2 8 25.0 2 2 100.0 0 5 5 1 1 0 3 5 -
p62
aVBrian Shaw ORL 05/31/1995 ORL vs. IND W 21 15 5 8 62.5 3 4 75.0 2 5 40.0 2 1 3 3 1 0 1 1 -
p63
aVHorace Grant ORL 05/31/1995 ORL vs. IND W 44 10 4 9 44.4 0 0 - 2 2 100.0 3 3 6 0 1 2 2 4 -
p64
aVTree Rollins ORL 05/31/1995 ORL vs. IND W 2 0 0 0 - 0 0 - 0 0 - 0 0 0 0 0 0 0 1 -
p65
aVShaquille O'Neal ORL 05/31/1995 ORL vs. IND W 42 35 13 21 61.9 0 0 - 9 19 47.4 5 8 13 3 2 1 1 5 -
p66
aVAnfernee Hardaway ORL 05/31/1995 ORL vs. IND W 39 15 4 11 36.4 1 2 50.0 6 8 75.0 0 3 3 8 0 0 2 2 -
p67
aVJeff Turner ORL 05/29/1995 ORL @ IND L 12 3 1 1 100.0 1 1 100.0 0 0 - 0 0 0 0 1 0 0 3 -
p68
aVNick Anderson ORL 05/29/1995 ORL @ IND L 44 12 4 10 40.0 1 5 20.0 3 3 100.0 0 4 4 2 1 2 2 3 -
p69
aVAnfernee Hardaway ORL 05/29/1995 ORL @ IND L 46 26 11 21 52.4 2 7 28.6 2 2 100.0 0 4 4 3 4 1 3 0 -
p70
aVHorace Grant ORL 05/29/1995 ORL @ IND L 44 7 3 8 37.5 0 0 - 1 2 50.0 4 8 12 4 2 3 2 6 -
p71
aVAnthony Bowie ORL 05/29/1995 ORL @ IND L 4 0 0 1 0.0 0 0 - 0 0 - 0 0 0 0 0 0 0 0 -
p72
aVDonald Royal ORL 05/29/1995 ORL @ IND L 3 0 0 0 - 0 0 - 0 0 - 0 1 1 0 0 0 0 1 -
p73
aVTree Rollins ORL 05/29/1995 ORL @ IND L 6 0 0 0 - 0 0 - 0 0 - 0 0 0 0 0 0 0 2 -
p74
aVDennis Scott ORL 05/29/1995 ORL @ IND L 38 22 8 14 57.1 2 6 33.3 4 4 100.0 0 3 3 2 1 1 1 4 -
p75
aVShaquille O'Neal ORL 05/29/1995 ORL @ IND L 30 16 8 12 66.7 0 0 - 0 8 0.0 4 6 10 2 1 2 4 6 -
p76
aVBrian Shaw ORL 05/29/1995 ORL @ IND L 13 7 2 4 50.0 2 2 100.0 1 2 50.0 1 2 3 5 0 0 3 2 -
p77
aVShaquille O'Neal ORL 05/27/1995 ORL @ IND L 30 18 8 15 53.3 0 0 - 2 4 50.0 3 3 6 4 0 3 4 4 -
p78
aVDonald Royal ORL 05/27/1995 ORL @ IND L 5 4 1 2 50.0 0 0 - 2 2 100.0 0 0 0 0 0 0 0 1 -
p79
aVNick Anderson ORL 05/27/1995 ORL @ IND L 42 10 4 10 40.0 2 5 40.0 0 0 - 1 3 4 3 1 0 1 2 -
p80
aVJeff Turner ORL 05/27/1995 ORL @ IND L 20 10 4 5 80.0 2 2 100.0 0 0 - 1 6 7 2 1 0 0 3 -
p81
aVDennis Scott ORL 05/27/1995 ORL @ IND L 44 15 5 15 33.3 4 11 36.4 1 1 100.0 0 1 1 3 2 0 3 5 -
p82
aVBrian Shaw ORL 05/27/1995 ORL @ IND L 16 3 1 2 50.0 1 1 100.0 0 0 - 0 2 2 1 0 1 1 3 -
p83
aVHorace Grant ORL 05/27/1995 ORL @ IND L 39 11 5 8 62.5 0 0 - 1 2 50.0 1 1 2 4 2 2 0 3 -
p84
aVTree Rollins ORL 05/27/1995 ORL @ IND L 5 0 0 0 - 0 0 - 0 0 - 0 0 0 0 0 0 1 5 -
p85
aVAnfernee Hardaway ORL 05/27/1995 ORL @ IND L 39 29 8 14 57.1 4 7 57.1 9 11 81.8 1 3 4 4 3 0 4 5 -
p86
aVAnthony Bowie ORL 05/25/1995 ORL vs. IND W 4 0 0 0 - 0 0 - 0 0 - 0 0 0 1 0 0 0 1 -
p87
aVHorace Grant ORL 05/25/1995 ORL vs. IND W 44 9 4 9 44.4 0 0 - 1 1 100.0 6 6 12 1 0 0 1 3 -
p88
aVJeff Turner ORL 05/25/1995 ORL vs. IND W 4 3 1 2 50.0 0 1 0.0 1 1 100.0 0 0 0 0 0 0 1 0 -
p89
aVAnthony Avent ORL 05/25/1995 ORL vs. IND W 4 0 0 0 - 0 0 - 0 0 - 0 0 0 0 0 0 0 2 -
p90
aVAnfernee Hardaway ORL 05/25/1995 ORL vs. IND W 41 19 7 10 70.0 3 5 60.0 2 5 40.0 3 1 4 15 3 1 3 1 -
p91
aVDennis Scott ORL 05/25/1995 ORL vs. IND W 38 25 9 18 50.0 7 15 46.7 0 1 0.0 0 0 0 4 0 0 0 5 -
p92
aVDonald Royal ORL 05/25/1995 ORL vs. IND W 7 1 0 0 - 0 0 - 1 2 50.0 0 1 1 0 1 0 0 1 -
p93
aVBrian Shaw ORL 05/25/1995 ORL vs. IND W 18 6 1 4 25.0 0 2 0.0 4 4 100.0 0 2 2 4 0 0 1 2 -
p94
aVNick Anderson ORL 05/25/1995 ORL vs. IND W 37 17 6 11 54.5 2 6 33.3 3 4 75.0 1 5 6 4 0 1 2 3 -
p95
aVTree Rollins ORL 05/25/1995 ORL vs. IND W 8 0 0 0 - 0 0 - 0 0 - 0 0 0 0 0 1 0 2 -
p96
aVShaquille O'Neal ORL 05/25/1995 ORL vs. IND W 35 39 15 21 71.4 0 0 - 9 15 60.0 4 6 10 2 2 0 4 5 -
p97
aVJeff Turner ORL 05/23/1995 ORL vs. IND W 11 2 0 0 - 0 0 - 2 2 100.0 0 1 1 0 0 0 1 5 -
p98
aVAnfernee Hardaway ORL 05/23/1995 ORL vs. IND W 42 20 8 14 57.1 3 4 75.0 1 2 50.0 2 2 4 14 3 0 5 5 -
p99
aVBrian Shaw ORL 05/23/1995 ORL vs. IND W 16 0 0 3 0.0 0 2 0.0 0 0 - 0 1 1 5 2 0 0 3 -
p100
aVDennis Scott ORL 05/23/1995 ORL vs. IND W 41 19 7 14 50.0 5 11 45.5 0 0 - 0 2 2 1 4 0 1 2 -
p101
aVHorace Grant ORL 05/23/1995 ORL vs. IND W 43 15 5 12 41.7 0 0 - 5 6 83.3 3 9 12 2 2 1 2 1 -
p102
aVDonald Royal ORL 05/23/1995 ORL vs. IND W 4 0 0 0 - 0 0 - 0 0 - 0 0 0 0 0 0 1 2 -
p103
aVTree Rollins ORL 05/23/1995 ORL vs. IND W 5 1 0 0 - 0 0 - 1 2 50.0 0 0 0 0 0 1 0 0 -
p104
aVAnthony Bowie ORL 05/23/1995 ORL vs. IND W 3 0 0 1 0.0 0 0 - 0 0 - 0 0 0 0 0 0 0 0 -
p105
aVNick Anderson ORL 05/23/1995 ORL vs. IND W 38 16 6 11 54.5 3 6 50.0 1 2 50.0 0 1 1 2 0 2 2 1 -
p106
aVShaquille O'Neal ORL 05/23/1995 ORL vs. IND W 37 32 11 16 68.8 0 0 - 10 12 83.3 5 6 11 2 1 2 2 4 -
p107
aVTree Rollins ORL 05/18/1995 ORL @ CHI W 4 0 0 0 - 0 0 - 0 0 - 0 0 0 0 0 1 0 3 -
p108
aVBrian Shaw ORL 05/18/1995 ORL @ CHI W 13 4 1 3 33.3 0 1 0.0 2 2 100.0 1 4 5 3 2 0 3 1 -
p109
aVJeff Turner ORL 05/18/1995 ORL @ CHI W 8 2 1 1 100.0 0 0 - 0 0 - 0 3 3 0 0 0 0 0 -
p110
aVDennis Scott ORL 05/18/1995 ORL @ CHI W 40 21 7 15 46.7 4 9 44.4 3 4 75.0 0 6 6 2 1 0 0 0 -
p111
aVNick Anderson ORL 05/18/1995 ORL @ CHI W 39 18 6 13 46.2 4 6 66.7 2 2 100.0 0 4 4 0 1 0 2 4 -
p112
aVAnthony Bowie ORL 05/18/1995 ORL @ CHI W 11 9 4 4 100.0 0 0 - 1 1 100.0 1 0 1 0 0 0 1 2 -
p113
aVDonald Royal ORL 05/18/1995 ORL @ CHI W 6 0 0 1 0.0 0 0 - 0 0 - 0 0 0 1 0 0 1 0 -
p114
aVHorace Grant ORL 05/18/1995 ORL @ CHI W 37 6 2 8 25.0 0 0 - 2 2 100.0 3 3 6 3 0 0 2 3 -
p115
aVAnfernee Hardaway ORL 05/18/1995 ORL @ CHI W 42 21 6 13 46.2 4 8 50.0 5 5 100.0 1 1 2 7 2 1 4 3 -
p116
aVShaquille O'Neal ORL 05/18/1995 ORL @ CHI W 40 27 11 21 52.4 0 0 - 5 8 62.5 6 7 13 4 4 1 4 4 -
p117
aVBrian Shaw ORL 05/16/1995 ORL vs. CHI W 14 5 2 2 100.0 1 1 100.0 0 4 0.0 0 4 4 1 0 0 2 3 -
p118
aVHorace Grant ORL 05/16/1995 ORL vs. CHI W 42 24 10 13 76.9 0 1 0.0 4 4 100.0 3 8 11 2 0 1 1 3 -
p119
aVAnthony Bowie ORL 05/16/1995 ORL vs. CHI W 5 4 1 2 50.0 0 0 - 2 2 100.0 0 0 0 0 0 0 0 1 -
p120
aVTree Rollins ORL 05/16/1995 ORL vs. CHI W 5 0 0 0 - 0 0 - 0 0 - 0 0 0 0 0 0 0 0 -
p121
aVDennis Scott ORL 05/16/1995 ORL vs. CHI W 39 22 7 18 38.9 5 9 55.6 3 4 75.0 1 2 3 4 1 0 1 3 -
p122
aVJeff Turner ORL 05/16/1995 ORL vs. CHI W 3 0 0 0 - 0 0 - 0 0 - 0 0 0 0 0 0 0 1 -
p123
aVNick Anderson ORL 05/16/1995 ORL vs. CHI W 41 4 2 9 22.2 0 4 0.0 0 0 - 0 3 3 3 2 1 0 1 -
p124
aVShaquille O'Neal ORL 05/16/1995 ORL vs. CHI W 40 23 7 20 35.0 0 0 - 9 19 47.4 14 8 22 4 2 5 4 3 -
p125
aVAnthony Avent ORL 05/16/1995 ORL vs. CHI W 5 0 0 0 - 0 0 - 0 0 - 0 0 0 0 0 0 0 1 -
p126
aVDonald Royal ORL 05/16/1995 ORL vs. CHI W 7 2 0 3 0.0 0 0 - 2 2 100.0 1 0 1 0 0 0 0 0 -
p127
aVAnfernee Hardaway ORL 05/16/1995 ORL vs. CHI W 39 19 8 17 47.1 1 3 33.3 2 2 100.0 3 2 5 11 0 1 1 2 -
p128
aVBrian Shaw ORL 05/14/1995 ORL @ CHI L 18 4 1 7 14.3 0 3 0.0 2 2 100.0 2 1 3 1 0 0 1 4 -
p129
aVDennis Scott ORL 05/14/1995 ORL @ CHI L 39 20 8 16 50.0 4 9 44.4 0 1 0.0 0 4 4 1 1 0 4 3 -
p130
aVShaquille O'Neal ORL 05/14/1995 ORL @ CHI L 43 17 5 10 50.0 0 0 - 7 10 70.0 4 6 10 9 0 1 5 4 -
p131
aVDonald Royal ORL 05/14/1995 ORL @ CHI L 4 0 0 0 - 0 0 - 0 0 - 0 1 1 0 1 0 1 0 -
p132
aVAnthony Bowie ORL 05/14/1995 ORL @ CHI L 4 1 0 1 0.0 0 0 - 1 2 50.0 0 0 0 0 0 0 0 0 -
p133
aVHorace Grant ORL 05/14/1995 ORL @ CHI L 40 21 9 11 81.8 0 0 - 3 4 75.0 3 10 13 1 1 3 2 4 -
p134
aVAnfernee Hardaway ORL 05/14/1995 ORL @ CHI L 44 16 6 17 35.3 1 5 20.0 3 4 75.0 2 1 3 6 3 0 1 5 -
p135
aVNick Anderson ORL 05/14/1995 ORL @ CHI L 39 11 2 7 28.6 1 1 100.0 6 8 75.0 2 4 6 3 1 0 5 2 -
p136
aVAnthony Avent ORL 05/14/1995 ORL @ CHI L 9 5 1 1 100.0 0 0 - 3 3 100.0 2 1 3 0 0 0 1 2 -
p137
aVBrian Shaw ORL 05/12/1995 ORL @ CHI W 17 9 4 8 50.0 1 2 50.0 0 0 - 1 4 5 4 0 0 2 3 -
p138
aVNick Anderson ORL 05/12/1995 ORL @ CHI W 43 22 7 13 53.8 3 6 50.0 5 6 83.3 2 4 6 1 3 0 0 1 -
p139
aVShaquille O'Neal ORL 05/12/1995 ORL @ CHI W 42 28 10 18 55.6 0 0 - 8 10 80.0 3 7 10 3 0 3 3 3 -
p140
aVAnfernee Hardaway ORL 05/12/1995 ORL @ CHI W 39 19 6 14 42.9 1 2 50.0 6 8 75.0 3 3 6 8 0 0 3 4 -
p141
aVDennis Scott ORL 05/12/1995 ORL @ CHI W 29 10 3 9 33.3 1 5 20.0 3 3 100.0 0 1 1 1 0 0 1 4 -
p142
aVAnthony Bowie ORL 05/12/1995 ORL @ CHI W 7 2 0 1 0.0 0 0 - 2 2 100.0 0 0 0 1 0 0 2 3 -
p143
aVHorace Grant ORL 05/12/1995 ORL @ CHI W 44 18 7 10 70.0 0 0 - 4 6 66.7 1 13 14 2 0 1 1 4 -
p144
aVAnthony Avent ORL 05/12/1995 ORL @ CHI W 9 0 0 0 - 0 0 - 0 0 - 1 1 2 0 0 0 1 3 -
p145
aVDonald Royal ORL 05/12/1995 ORL @ CHI W 10 2 0 1 0.0 0 0 - 2 4 50.0 0 2 2 0 0 0 0 0 -
p146
aVTree Rollins ORL 05/10/1995 ORL vs. CHI L 7 0 0 0 - 0 0 - 0 0 - 0 0 0 0 0 1 0 1 -
p147
aVJeff Turner ORL 05/10/1995 ORL vs. CHI L 7 0 0 1 0.0 0 0 - 0 0 - 1 1 2 1 0 0 0 2 -
p148
aVBrian Shaw ORL 05/10/1995 ORL vs. CHI L 15 8 3 5 60.0 1 2 50.0 1 2 50.0 0 0 0 3 0 0 1 2 -
p149
aVShaquille O'Neal ORL 05/10/1995 ORL vs. CHI L 33 25 6 15 40.0 0 0 - 13 20 65.0 4 8 12 2 0 1 5 5 -
p150
aVNick Anderson ORL 05/10/1995 ORL vs. CHI L 45 16 6 14 42.9 1 6 16.7 3 5 60.0 1 4 5 5 2 0 2 3 -
p151
aVHorace Grant ORL 05/10/1995 ORL vs. CHI L 46 23 11 16 68.8 0 0 - 1 3 33.3 7 8 15 0 0 0 0 0 -
p152
aVDennis Scott ORL 05/10/1995 ORL vs. CHI L 28 2 1 9 11.1 0 5 0.0 0 0 - 1 0 1 1 1 0 1 4 -
p153
aVAnfernee Hardaway ORL 05/10/1995 ORL vs. CHI L 41 20 7 13 53.8 1 3 33.3 5 7 71.4 0 2 2 7 1 1 4 5 -
p154
aVDonald Royal ORL 05/10/1995 ORL vs. CHI L 18 0 0 3 0.0 0 0 - 0 0 - 1 0 1 2 0 0 2 3 -
p155
aVNick Anderson ORL 05/07/1995 ORL vs. CHI W 40 20 8 14 57.1 3 6 50.0 1 1 100.0 0 2 2 2 1 0 1 2 -
p156
aVTree Rollins ORL 05/07/1995 ORL vs. CHI W 6 0 0 1 0.0 0 0 - 0 0 - 1 0 1 0 0 0 0 0 -
p157
aVDonald Royal ORL 05/07/1995 ORL vs. CHI W 22 2 1 2 50.0 0 0 - 0 0 - 0 3 3 1 1 0 3 3 -
p158
aVAnfernee Hardaway ORL 05/07/1995 ORL vs. CHI W 41 16 5 12 41.7 0 1 0.0 6 9 66.7 2 2 4 6 5 1 4 5 -
p159
aVDennis Scott ORL 05/07/1995 ORL vs. CHI W 34 14 5 13 38.5 1 6 16.7 3 4 75.0 1 2 3 3 1 2 3 3 -
p160
aVShaquille O'Neal ORL 05/07/1995 ORL vs. CHI W 40 26 7 11 63.6 0 0 - 12 16 75.0 7 5 12 2 0 1 4 4 -
p161
aVHorace Grant ORL 05/07/1995 ORL vs. CHI W 42 16 5 10 50.0 0 0 - 6 9 66.7 1 6 7 2 3 1 0 4 -
p162
aVBrian Shaw ORL 05/07/1995 ORL vs. CHI W 15 0 0 4 0.0 0 0 - 0 0 - 0 1 1 6 0 0 0 3 -
p163
aVTree Rollins ORL 05/05/1995 ORL @ BOS W 2 0 0 0 - 0 0 - 0 0 - 0 1 1 0 0 0 0 0 -
p164
aVShaquille O'Neal ORL 05/05/1995 ORL @ BOS W 41 25 9 15 60.0 0 0 - 7 13 53.8 4 9 13 2 1 1 1 2 -
p165
aVAnfernee Hardaway ORL 05/05/1995 ORL @ BOS W 44 10 4 11 36.4 0 3 0.0 2 6 33.3 2 3 5 13 1 1 5 2 -
p166
aVAnthony Bowie ORL 05/05/1995 ORL @ BOS W 6 0 0 3 0.0 0 0 - 0 0 - 0 0 0 0 0 0 0 0 -
p167
aVDonald Royal ORL 05/05/1995 ORL @ BOS W 20 4 2 3 66.7 0 0 - 0 0 - 2 0 2 0 0 0 3 2 -
p168
aVJeff Turner ORL 05/05/1995 ORL @ BOS W 10 3 1 3 33.3 1 2 50.0 0 0 - 0 0 0 2 0 0 1 4 -
p169
aVHorace Grant ORL 05/05/1995 ORL @ BOS W 42 23 9 15 60.0 0 0 - 5 6 83.3 2 8 10 0 1 1 0 4 -
p170
aVDennis Scott ORL 05/05/1995 ORL @ BOS W 31 14 6 11 54.5 2 2 100.0 0 0 - 0 1 1 2 1 0 3 2 -
p171
aVNick Anderson ORL 05/05/1995 ORL @ BOS W 28 8 3 5 60.0 1 1 100.0 1 2 50.0 1 2 3 2 3 1 1 4 -
p172
aVBrian Shaw ORL 05/05/1995 ORL @ BOS W 16 8 2 4 50.0 0 1 0.0 4 6 66.7 0 1 1 2 2 0 0 0 -
p173
aVHorace Grant ORL 05/03/1995 ORL @ BOS W 45 6 3 11 27.3 0 1 0.0 0 0 - 4 1 5 1 1 4 1 3 -
p174
aVTree Rollins ORL 05/03/1995 ORL @ BOS W 9 0 0 0 - 0 0 - 0 0 - 0 0 0 0 0 1 1 2 -
p175
aVDonald Royal ORL 05/03/1995 ORL @ BOS W 16 2 1 3 33.3 0 0 - 0 0 - 1 0 1 2 0 0 1 1 -
p176
aVDennis Scott ORL 05/03/1995 ORL @ BOS W 32 11 5 13 38.5 0 3 0.0 1 2 50.0 1 4 5 1 3 0 1 1 -
p177
aVJeff Turner ORL 05/03/1995 ORL @ BOS W 8 0 0 1 0.0 0 0 - 0 0 - 0 2 2 0 0 0 0 3 -
p178
aVBrian Shaw ORL 05/03/1995 ORL @ BOS W 5 3 1 3 33.3 1 2 50.0 0 0 - 0 0 0 1 0 0 0 0 -
p179
aVNick Anderson ORL 05/03/1995 ORL @ BOS W 43 24 9 17 52.9 2 4 50.0 4 6 66.7 0 4 4 1 3 0 0 2 -
p180
aVAnfernee Hardaway ORL 05/03/1995 ORL @ BOS W 48 16 5 16 31.3 0 1 0.0 6 9 66.7 3 4 7 8 3 3 5 4 -
p181
aVShaquille O'Neal ORL 05/03/1995 ORL @ BOS W 34 20 7 12 58.3 0 0 - 6 14 42.9 8 13 21 0 0 2 3 3 -
p182
aVAnfernee Hardaway ORL 04/30/1995 ORL vs. BOS L 38 26 8 20 40.0 3 10 30.0 7 7 100.0 2 1 3 8 0 0 4 4 -
p183
aVDennis Scott ORL 04/30/1995 ORL vs. BOS L 28 16 6 12 50.0 2 4 50.0 2 2 100.0 1 2 3 1 0 0 1 4 -
p184
aVJeff Turner ORL 04/30/1995 ORL vs. BOS L 9 3 1 1 100.0 1 1 100.0 0 0 - 0 1 1 0 0 1 1 2 -
p185
aVNick Anderson ORL 04/30/1995 ORL vs. BOS L 37 8 4 16 25.0 0 4 0.0 0 0 - 3 2 5 2 1 0 2 3 -
p186
aVHorace Grant ORL 04/30/1995 ORL vs. BOS L 39 8 4 9 44.4 0 0 - 0 0 - 4 10 14 3 1 1 1 4 -
p187
aVShaquille O'Neal ORL 04/30/1995 ORL vs. BOS L 40 22 7 13 53.8 0 0 - 8 14 57.1 5 4 9 1 1 1 4 5 -
p188
aVTree Rollins ORL 04/30/1995 ORL vs. BOS L 8 0 0 1 0.0 0 0 - 0 2 0.0 1 0 1 0 0 0 0 0 -
p189
aVBrian Shaw ORL 04/30/1995 ORL vs. BOS L 15 5 1 4 25.0 0 2 0.0 3 3 100.0 2 1 3 3 1 0 1 0 -
p190
aVDonald Royal ORL 04/30/1995 ORL vs. BOS L 20 2 1 3 33.3 0 0 - 0 0 - 0 1 1 3 0 0 0 1 -
p191
aVAnthony Bowie ORL 04/30/1995 ORL vs. BOS L 6 2 0 0 - 0 0 - 2 2 100.0 0 1 1 1 1 0 1 0 -
p192
aVHorace Grant ORL 04/28/1995 ORL vs. BOS W 33 15 6 11 54.5 0 0 - 3 3 100.0 6 8 14 4 2 2 2 3 -
p193
aVBrian Shaw ORL 04/28/1995 ORL vs. BOS W 15 0 0 1 0.0 0 0 - 0 0 - 2 5 7 4 1 1 1 2 -
p194
aVAnfernee Hardaway ORL 04/28/1995 ORL vs. BOS W 28 10 5 9 55.6 0 1 0.0 0 1 0.0 0 1 1 5 3 0 4 1 -
p195
aVAnthony Bowie ORL 04/28/1995 ORL vs. BOS W 16 10 5 8 62.5 0 0 - 0 0 - 1 2 3 3 0 0 0 2 -
p196
aVAnthony Avent ORL 04/28/1995 ORL vs. BOS W 8 0 0 2 0.0 0 0 - 0 0 - 0 1 1 0 0 0 0 2 -
p197
aVNick Anderson ORL 04/28/1995 ORL vs. BOS W 31 20 5 9 55.6 3 6 50.0 7 7 100.0 2 1 3 3 2 0 1 2 -
p198
aVShaquille O'Neal ORL 04/28/1995 ORL vs. BOS W 27 23 6 14 42.9 0 0 - 11 14 78.6 3 8 11 1 1 2 0 2 -
p199
aVTree Rollins ORL 04/28/1995 ORL vs. BOS W 12 6 3 3 100.0 0 0 - 0 0 - 2 1 3 0 0 1 2 2 -
p200
aVDennis Scott ORL 04/28/1995 ORL vs. BOS W 27 13 4 12 33.3 2 5 40.0 3 3 100.0 1 3 4 4 0 0 2 1 -
p201
aVJeff Turner ORL 04/28/1995 ORL vs. BOS W 15 11 4 8 50.0 2 3 66.7 1 1 100.0 1 1 2 0 2 0 0 5 -
p202
aVBrooks Thompson ORL 04/28/1995 ORL vs. BOS W 6 6 2 2 100.0 2 2 100.0 0 0 - 0 1 1 3 0 1 1 1 -
p203
aVDonald Royal ORL 04/28/1995 ORL vs. BOS W 22 10 2 7 28.6 0 0 - 6 8 75.0 0 0 0 0 0 0 0 2 -
p204
a.