(lp0
VPLAYER TEAM DATE MATCHUP W/L MIN PTS FGM FGA FG% 3PM 3PA 3P% FTM FTA FT% OREB DREB REB AST STL BLK TOV PF +/-
p1
aVRik Smits IND 06/04/1995 IND @ ORL L 24 10 5 11 45.5 0 0 - 0 0 - 1 2 3 0 1 1 0 4 -
p2
aVGreg Kite IND 06/04/1995 IND @ ORL L 3 0 0 0 - 0 0 - 0 0 - 0 0 0 0 1 0 0 2 -
p3
aVDuane Ferrell IND 06/04/1995 IND @ ORL L 20 5 0 3 0.0 0 1 0.0 5 6 83.3 2 0 2 2 0 1 3 2 -
p4
aVReggie Miller IND 06/04/1995 IND @ ORL L 38 12 5 13 38.5 2 7 28.6 0 0 - 0 4 4 0 2 0 1 0 -
p5
aVAntonio Davis IND 06/04/1995 IND @ ORL L 29 6 2 6 33.3 0 0 - 2 4 50.0 2 6 8 1 1 0 2 4 -
p6
aVByron Scott IND 06/04/1995 IND @ ORL L 16 6 1 7 14.3 0 3 0.0 4 4 100.0 0 2 2 0 1 0 1 1 -
p7
aVSam Mitchell IND 06/04/1995 IND @ ORL L 6 5 2 4 50.0 0 0 - 1 2 50.0 0 2 2 0 0 0 0 1 -
p8
aVDerrick McKey IND 06/04/1995 IND @ ORL L 22 3 1 5 20.0 0 1 0.0 1 2 50.0 1 2 3 4 0 0 1 2 -
p9
aVMark Jackson IND 06/04/1995 IND @ ORL L 33 11 4 10 40.0 2 5 40.0 1 2 50.0 1 2 3 5 0 0 4 2 -
p10
aVDale Davis IND 06/04/1995 IND @ ORL L 34 15 5 9 55.6 0 0 - 5 9 55.6 9 5 14 0 2 2 0 2 -
p11
aVHaywoode Workman IND 06/04/1995 IND @ ORL L 15 8 2 5 40.0 0 2 0.0 4 4 100.0 1 2 3 2 0 0 0 3 -
p12
aVGreg Kite IND 06/02/1995 IND vs. ORL W 3 0 0 0 - 0 0 - 0 0 - 0 1 1 0 0 0 0 0 -
p13
aVDale Davis IND 06/02/1995 IND vs. ORL W 24 8 4 10 40.0 0 0 - 0 2 0.0 3 7 10 1 0 1 0 2 -
p14
aVMark Jackson IND 06/02/1995 IND vs. ORL W 34 11 4 10 40.0 1 3 33.3 2 3 66.7 1 5 6 12 1 0 2 1 -
p15
aVDuane Ferrell IND 06/02/1995 IND vs. ORL W 18 9 3 7 42.9 1 1 100.0 2 2 100.0 1 2 3 4 0 1 0 2 -
p16
aVByron Scott IND 06/02/1995 IND vs. ORL W 15 9 4 7 57.1 1 2 50.0 0 0 - 0 1 1 2 0 0 1 2 -
p17
aVAntonio Davis IND 06/02/1995 IND vs. ORL W 17 8 3 3 100.0 0 0 - 2 4 50.0 1 6 7 0 1 0 2 3 -
p18
aVHaywoode Workman IND 06/02/1995 IND vs. ORL W 18 4 2 2 100.0 0 0 - 0 0 - 0 1 1 4 1 0 0 0 -
p19
aVRik Smits IND 06/02/1995 IND vs. ORL W 28 22 9 14 64.3 0 0 - 4 5 80.0 2 8 10 0 0 0 3 5 -
p20
aVVern Fleming IND 06/02/1995 IND vs. ORL W 4 2 1 2 50.0 0 0 - 0 1 0.0 1 0 1 2 0 0 0 0 -
p21
aVSam Mitchell IND 06/02/1995 IND vs. ORL W 13 6 2 5 40.0 0 1 0.0 2 2 100.0 2 3 5 1 0 0 1 5 -
p22
aVReggie Miller IND 06/02/1995 IND vs. ORL W 35 36 13 19 68.4 6 10 60.0 4 4 100.0 1 6 7 2 2 0 2 2 -
p23
aVDerrick McKey IND 06/02/1995 IND vs. ORL W 31 8 2 5 40.0 0 1 0.0 4 4 100.0 1 1 2 6 2 0 1 2 -
p24
aVDuane Ferrell IND 05/31/1995 IND @ ORL L 4 1 0 0 - 0 0 - 1 2 50.0 0 0 0 0 0 0 1 1 -
p25
aVDale Davis IND 05/31/1995 IND @ ORL L 27 0 0 4 0.0 0 0 - 0 2 0.0 3 4 7 0 0 1 0 4 -
p26
aVAntonio Davis IND 05/31/1995 IND @ ORL L 21 7 2 6 33.3 0 0 - 3 5 60.0 3 1 4 0 0 2 0 4 -
p27
aVHaywoode Workman IND 05/31/1995 IND @ ORL L 9 6 2 5 40.0 0 0 - 2 2 100.0 0 0 0 2 1 0 0 2 -
p28
aVSam Mitchell IND 05/31/1995 IND @ ORL L 10 4 0 4 0.0 0 0 - 4 6 66.7 1 2 3 0 0 0 1 1 -
p29
aVMark Jackson IND 05/31/1995 IND @ ORL L 39 19 5 12 41.7 2 3 66.7 7 7 100.0 3 2 5 11 4 0 2 2 -
p30
aVGreg Kite IND 05/31/1995 IND @ ORL L 9 4 1 2 50.0 0 0 - 2 2 100.0 3 1 4 0 0 0 1 4 -
p31
aVDerrick McKey IND 05/31/1995 IND @ ORL L 36 21 7 16 43.8 1 2 50.0 6 6 100.0 4 5 9 3 1 0 1 4 -
p32
aVReggie Miller IND 05/31/1995 IND @ ORL L 40 21 8 16 50.0 3 6 50.0 2 2 100.0 0 0 0 1 0 0 4 3 -
p33
aVByron Scott IND 05/31/1995 IND @ ORL L 17 3 1 3 33.3 1 2 50.0 0 0 - 0 0 0 1 1 0 2 1 -
p34
aVRik Smits IND 05/31/1995 IND @ ORL L 28 20 9 11 81.8 0 0 - 2 2 100.0 2 6 8 4 1 2 0 6 -
p35
aVHaywoode Workman IND 05/29/1995 IND vs. ORL W 10 0 0 1 0.0 0 0 - 0 0 - 2 0 2 4 0 0 1 2 -
p36
aVByron Scott IND 05/29/1995 IND vs. ORL W 25 5 1 8 12.5 0 4 0.0 3 4 75.0 1 1 2 0 1 1 1 2 -
p37
aVMark Jackson IND 05/29/1995 IND vs. ORL W 38 13 5 9 55.6 3 5 60.0 0 0 - 3 4 7 6 1 0 0 1 -
p38
aVDerrick McKey IND 05/29/1995 IND vs. ORL W 34 14 3 9 33.3 0 3 0.0 8 8 100.0 0 4 4 2 4 1 3 4 -
p39
aVRik Smits IND 05/29/1995 IND vs. ORL W 36 21 6 16 37.5 0 0 - 9 11 81.8 0 7 7 7 1 2 2 4 -
p40
aVAntonio Davis IND 05/29/1995 IND vs. ORL W 12 4 2 3 66.7 0 0 - 0 2 0.0 2 1 3 0 0 0 1 4 -
p41
aVDale Davis IND 05/29/1995 IND vs. ORL W 25 6 3 5 60.0 0 0 - 0 0 - 3 1 4 1 0 0 3 1 -
p42
aVDuane Ferrell IND 05/29/1995 IND vs. ORL W 6 2 1 3 33.3 0 0 - 0 0 - 1 0 1 1 0 0 1 0 -
p43
aVSam Mitchell IND 05/29/1995 IND vs. ORL W 12 6 3 6 50.0 0 0 - 0 0 - 1 2 3 0 0 0 0 3 -
p44
aVReggie Miller IND 05/29/1995 IND vs. ORL W 42 23 8 16 50.0 5 9 55.6 2 3 66.7 1 4 5 0 0 0 3 1 -
p45
aVMark Jackson IND 05/27/1995 IND vs. ORL W 38 9 2 8 25.0 0 2 0.0 5 6 83.3 1 6 7 13 0 0 4 1 -
p46
aVByron Scott IND 05/27/1995 IND vs. ORL W 18 4 1 4 25.0 1 2 50.0 1 2 50.0 0 2 2 1 0 0 0 0 -
p47
aVAntonio Davis IND 05/27/1995 IND vs. ORL W 22 9 3 3 100.0 0 0 - 3 5 60.0 4 6 10 0 0 0 3 1 -
p48
aVDale Davis IND 05/27/1995 IND vs. ORL W 36 12 4 6 66.7 0 0 - 4 7 57.1 1 6 7 0 0 1 5 2 -
p49
aVReggie Miller IND 05/27/1995 IND vs. ORL W 40 26 7 17 41.2 3 10 30.0 9 9 100.0 0 2 2 1 0 0 3 2 -
p50
aVHaywoode Workman IND 05/27/1995 IND vs. ORL W 12 4 1 2 50.0 0 0 - 2 2 100.0 0 1 1 1 0 0 1 0 -
p51
aVSam Mitchell IND 05/27/1995 IND vs. ORL W 5 0 0 0 - 0 0 - 0 0 - 0 2 2 0 0 0 0 4 -
p52
aVDerrick McKey IND 05/27/1995 IND vs. ORL W 40 22 8 12 66.7 2 5 40.0 4 4 100.0 2 1 3 4 0 0 2 5 -
p53
aVRik Smits IND 05/27/1995 IND vs. ORL W 29 19 7 10 70.0 0 0 - 5 6 83.3 2 2 4 3 0 0 1 5 -
p54
aVByron Scott IND 05/25/1995 IND @ ORL L 16 11 1 6 16.7 0 1 0.0 9 9 100.0 1 1 2 3 1 0 1 0 -
p55
aVRik Smits IND 05/25/1995 IND @ ORL L 36 19 6 15 40.0 0 0 - 7 8 87.5 2 4 6 6 0 1 3 5 -
p56
aVAntonio Davis IND 05/25/1995 IND @ ORL L 16 4 2 4 50.0 0 0 - 0 1 0.0 1 2 3 0 0 0 1 5 -
p57
aVMark Jackson IND 05/25/1995 IND @ ORL L 29 8 3 9 33.3 2 4 50.0 0 0 - 4 2 6 2 0 0 2 3 -
p58
aVDerrick McKey IND 05/25/1995 IND @ ORL L 42 16 6 12 50.0 2 4 50.0 2 3 66.7 2 3 5 5 1 0 0 3 -
p59
aVSam Mitchell IND 05/25/1995 IND @ ORL L 4 2 1 1 100.0 0 0 - 0 0 - 0 0 0 0 0 0 0 1 -
p60
aVHaywoode Workman IND 05/25/1995 IND @ ORL L 19 5 1 5 20.0 1 3 33.3 2 2 100.0 0 1 1 3 1 0 0 5 -
p61
aVReggie Miller IND 05/25/1995 IND @ ORL L 40 37 12 18 66.7 4 8 50.0 9 11 81.8 0 0 0 2 2 0 2 4 -
p62
aVDale Davis IND 05/25/1995 IND @ ORL L 38 12 6 8 75.0 0 0 - 0 0 - 3 10 13 0 0 2 0 3 -
p63
aVMark Jackson IND 05/23/1995 IND @ ORL L 30 9 3 5 60.0 2 3 66.7 1 4 25.0 1 4 5 7 2 0 3 3 -
p64
aVReggie Miller IND 05/23/1995 IND @ ORL L 34 26 9 21 42.9 2 5 40.0 6 7 85.7 1 2 3 2 1 0 1 0 -
p65
aVDuane Ferrell IND 05/23/1995 IND @ ORL L 11 4 2 4 50.0 0 0 - 0 0 - 1 1 2 3 0 0 2 1 -
p66
aVAntonio Davis IND 05/23/1995 IND @ ORL L 17 5 1 4 25.0 0 0 - 3 4 75.0 4 2 6 1 1 0 1 4 -
p67
aVByron Scott IND 05/23/1995 IND @ ORL L 22 18 6 9 66.7 3 4 75.0 3 3 100.0 1 1 2 0 1 0 2 2 -
p68
aVGreg Kite IND 05/23/1995 IND @ ORL L 2 0 0 1 0.0 0 0 - 0 0 - 0 0 0 0 0 0 0 0 -
p69
aVSam Mitchell IND 05/23/1995 IND @ ORL L 15 1 0 2 0.0 0 0 - 1 2 50.0 1 0 1 1 1 0 0 0 -
p70
aVDale Davis IND 05/23/1995 IND @ ORL L 28 5 2 5 40.0 0 0 - 1 2 50.0 2 6 8 1 0 0 2 4 -
p71
aVDerrick McKey IND 05/23/1995 IND @ ORL L 30 14 6 11 54.5 1 3 33.3 1 2 50.0 0 2 2 4 1 0 3 2 -
p72
aVRik Smits IND 05/23/1995 IND @ ORL L 32 17 6 11 54.5 1 1 100.0 4 5 80.0 1 4 5 2 0 0 2 5 -
p73
aVHaywoode Workman IND 05/23/1995 IND @ ORL L 19 2 1 3 33.3 0 0 - 0 0 - 1 1 2 2 0 0 1 2 -
p74
aVMark Jackson IND 05/21/1995 IND @ NYK W 33 10 3 9 33.3 0 2 0.0 4 4 100.0 3 5 8 8 3 0 0 3 -
p75
aVHaywoode Workman IND 05/21/1995 IND @ NYK W 15 2 1 4 25.0 0 1 0.0 0 0 - 0 2 2 3 0 0 1 3 -
p76
aVAntonio Davis IND 05/21/1995 IND @ NYK W 32 5 1 4 25.0 0 0 - 3 4 75.0 0 4 4 1 1 0 1 5 -
p77
aVDerrick McKey IND 05/21/1995 IND @ NYK W 39 14 6 13 46.2 2 3 66.7 0 0 - 1 2 3 7 0 0 1 3 -
p78
aVByron Scott IND 05/21/1995 IND @ NYK W 9 2 1 2 50.0 0 0 - 0 0 - 0 0 0 0 0 0 1 1 -
p79
aVRik Smits IND 05/21/1995 IND @ NYK W 27 19 9 17 52.9 0 0 - 1 2 50.0 0 4 4 1 1 1 0 5 -
p80
aVSam Mitchell IND 05/21/1995 IND @ NYK W 12 2 0 3 0.0 0 0 - 2 2 100.0 0 2 2 1 1 0 1 3 -
p81
aVReggie Miller IND 05/21/1995 IND @ NYK W 40 29 10 18 55.6 3 5 60.0 6 9 66.7 0 1 1 3 0 1 1 1 -
p82
aVDale Davis IND 05/21/1995 IND @ NYK W 33 14 7 10 70.0 0 0 - 0 0 - 3 4 7 2 0 0 0 5 -
p83
aVByron Scott IND 05/19/1995 IND vs. NYK L 12 3 1 4 25.0 1 2 50.0 0 0 - 0 2 2 0 0 0 0 2 -
p84
aVAntonio Davis IND 05/19/1995 IND vs. NYK L 28 7 3 7 42.9 0 0 - 1 4 25.0 4 4 8 0 1 2 2 5 -
p85
aVRik Smits IND 05/19/1995 IND vs. NYK L 36 21 8 16 50.0 0 0 - 5 6 83.3 0 2 2 1 0 0 2 4 -
p86
aVHaywoode Workman IND 05/19/1995 IND vs. NYK L 10 4 0 4 0.0 0 3 0.0 4 4 100.0 0 0 0 0 1 0 2 5 -
p87
aVSam Mitchell IND 05/19/1995 IND vs. NYK L 22 7 2 8 25.0 0 0 - 3 4 75.0 3 1 4 0 1 0 2 2 -
p88
aVGreg Kite IND 05/19/1995 IND vs. NYK L 2 0 0 0 - 0 0 - 0 0 - 0 0 0 0 0 0 0 0 -
p89
aVMark Jackson IND 05/19/1995 IND vs. NYK L 38 10 3 9 33.3 1 4 25.0 3 4 75.0 2 5 7 5 2 0 1 2 -
p90
aVDale Davis IND 05/19/1995 IND vs. NYK L 17 2 1 3 33.3 0 0 - 0 0 - 1 3 4 0 1 0 0 2 -
p91
aVDerrick McKey IND 05/19/1995 IND vs. NYK L 38 10 4 10 40.0 0 3 0.0 2 2 100.0 2 5 7 6 1 0 3 5 -
p92
aVReggie Miller IND 05/19/1995 IND vs. NYK L 37 18 4 13 30.8 2 6 33.3 8 8 100.0 0 3 3 3 0 1 5 4 -
p93
aVMark Jackson IND 05/17/1995 IND @ NYK L 27 2 1 5 20.0 0 1 0.0 0 0 - 2 4 6 4 0 0 1 2 -
p94
aVHaywoode Workman IND 05/17/1995 IND @ NYK L 21 10 5 6 83.3 0 0 - 0 0 - 0 2 2 5 1 0 0 2 -
p95
aVByron Scott IND 05/17/1995 IND @ NYK L 13 5 2 4 50.0 1 2 50.0 0 0 - 0 1 1 1 0 0 0 0 -
p96
aVReggie Miller IND 05/17/1995 IND @ NYK L 37 23 8 20 40.0 3 11 27.3 4 6 66.7 0 5 5 6 1 0 1 1 -
p97
aVAntonio Davis IND 05/17/1995 IND @ NYK L 27 7 2 8 25.0 0 0 - 3 4 75.0 4 5 9 1 0 4 2 4 -
p98
aVDale Davis IND 05/17/1995 IND @ NYK L 28 2 1 2 50.0 0 0 - 0 0 - 1 4 5 0 0 1 1 3 -
p99
aVRik Smits IND 05/17/1995 IND @ NYK L 32 28 12 16 75.0 0 0 - 4 5 80.0 3 2 5 1 0 1 2 4 -
p100
aVSam Mitchell IND 05/17/1995 IND @ NYK L 15 4 0 4 0.0 0 0 - 4 4 100.0 2 0 2 0 0 0 2 4 -
p101
aVDuane Ferrell IND 05/17/1995 IND @ NYK L 9 3 1 4 25.0 0 0 - 1 2 50.0 2 0 2 3 0 0 2 0 -
p102
aVDerrick McKey IND 05/17/1995 IND @ NYK L 31 11 3 8 37.5 0 1 0.0 5 6 83.3 2 2 4 1 0 2 4 6 -
p103
aVMark Jackson IND 05/13/1995 IND vs. NYK W 29 9 3 6 50.0 1 3 33.3 2 2 100.0 0 3 3 11 0 0 2 2 -
p104
aVRik Smits IND 05/13/1995 IND vs. NYK W 34 25 9 16 56.3 0 0 - 7 8 87.5 1 10 11 2 0 2 2 4 -
p105
aVDale Davis IND 05/13/1995 IND vs. NYK W 18 8 4 6 66.7 0 0 - 0 0 - 1 5 6 0 2 0 1 2 -
p106
aVDerrick McKey IND 05/13/1995 IND vs. NYK W 38 11 4 9 44.4 0 1 0.0 3 3 100.0 2 4 6 4 2 3 2 2 -
p107
aVReggie Miller IND 05/13/1995 IND vs. NYK W 38 21 6 13 46.2 4 6 66.7 5 5 100.0 0 2 2 3 0 0 0 1 -
p108
aVGreg Kite IND 05/13/1995 IND vs. NYK W 1 0 0 0 - 0 0 - 0 0 - 0 0 0 0 0 0 0 1 -
p109
aVHaywoode Workman IND 05/13/1995 IND vs. NYK W 19 4 0 2 0.0 0 1 0.0 4 6 66.7 0 4 4 1 0 0 1 3 -
p110
aVAntonio Davis IND 05/13/1995 IND vs. NYK W 25 5 1 4 25.0 0 0 - 3 4 75.0 2 3 5 1 0 0 1 2 -
p111
aVByron Scott IND 05/13/1995 IND vs. NYK W 16 4 2 5 40.0 0 0 - 0 1 0.0 1 0 1 0 0 0 3 3 -
p112
aVSam Mitchell IND 05/13/1995 IND vs. NYK W 22 11 4 7 57.1 0 0 - 3 4 75.0 2 3 5 1 0 0 0 4 -
p113
aVDale Davis IND 05/11/1995 IND vs. NYK W 31 8 3 6 50.0 0 0 - 2 2 100.0 3 3 6 0 0 2 1 5 -
p114
aVDerrick McKey IND 05/11/1995 IND vs. NYK W 45 14 4 15 26.7 1 3 33.3 5 6 83.3 1 5 6 3 1 0 2 4 -
p115
aVReggie Miller IND 05/11/1995 IND vs. NYK W 44 26 11 21 52.4 0 3 0.0 4 4 100.0 3 8 11 1 1 0 6 4 -
p116
aVMark Jackson IND 05/11/1995 IND vs. NYK W 23 5 1 2 50.0 0 1 0.0 3 4 75.0 1 2 3 4 1 0 6 3 -
p117
aVGreg Kite IND 05/11/1995 IND vs. NYK W 5 0 0 0 - 0 0 - 0 0 - 0 2 2 0 0 0 1 1 -
p118
aVHaywoode Workman IND 05/11/1995 IND vs. NYK W 31 10 3 6 50.0 1 3 33.3 3 4 75.0 0 2 2 2 0 0 1 5 -
p119
aVAntonio Davis IND 05/11/1995 IND vs. NYK W 28 10 1 3 33.3 0 0 - 8 10 80.0 1 2 3 0 1 0 1 2 -
p120
aVSam Mitchell IND 05/11/1995 IND vs. NYK W 13 0 0 3 0.0 0 0 - 0 0 - 2 0 2 1 0 0 3 3 -
p121
aVByron Scott IND 05/11/1995 IND vs. NYK W 11 3 0 1 0.0 0 0 - 3 4 75.0 0 1 1 0 1 0 0 3 -
p122
aVRik Smits IND 05/11/1995 IND vs. NYK W 34 21 6 9 66.7 0 0 - 9 12 75.0 3 6 9 0 0 0 3 2 -
p123
aVGreg Kite IND 05/09/1995 IND @ NYK L 1 0 0 0 - 0 0 - 0 0 - 0 0 0 0 0 0 0 1 -
p124
aVSam Mitchell IND 05/09/1995 IND @ NYK L 21 8 3 6 50.0 0 1 0.0 2 2 100.0 0 5 5 0 0 0 2 2 -
p125
aVDerrick McKey IND 05/09/1995 IND @ NYK L 26 9 3 10 30.0 1 2 50.0 2 4 50.0 1 2 3 0 0 0 7 4 -
p126
aVReggie Miller IND 05/09/1995 IND @ NYK L 34 10 3 10 30.0 1 4 25.0 3 4 75.0 1 1 2 1 0 0 5 4 -
p127
aVDuane Ferrell IND 05/09/1995 IND @ NYK L 6 3 1 1 100.0 0 0 - 1 2 50.0 0 0 0 0 0 0 1 0 -
p128
aVAntonio Davis IND 05/09/1995 IND @ NYK L 28 8 4 5 80.0 0 0 - 0 0 - 3 4 7 1 0 0 2 3 -
p129
aVMark Jackson IND 05/09/1995 IND @ NYK L 25 6 3 3 100.0 0 0 - 0 1 0.0 1 4 5 4 0 0 2 2 -
p130
aVHaywoode Workman IND 05/09/1995 IND @ NYK L 23 8 2 7 28.6 0 2 0.0 4 6 66.7 1 2 3 4 4 0 3 4 -
p131
aVRik Smits IND 05/09/1995 IND @ NYK L 20 10 3 7 42.9 0 0 - 4 6 66.7 1 6 7 2 0 0 5 5 -
p132
aVByron Scott IND 05/09/1995 IND @ NYK L 19 2 0 2 0.0 0 1 0.0 2 2 100.0 0 0 0 1 0 0 4 2 -
p133
aVDale Davis IND 05/09/1995 IND @ NYK L 37 13 4 7 57.1 0 0 - 5 6 83.3 4 5 9 0 0 0 3 5 -
p134
aVReggie Miller IND 05/07/1995 IND @ NYK W 33 31 7 18 38.9 3 7 42.9 14 15 93.3 1 4 5 4 4 0 0 1 -
p135
aVDuane Ferrell IND 05/07/1995 IND @ NYK W 4 0 0 0 - 0 0 - 0 0 - 0 0 0 0 0 0 0 1 -
p136
aVHaywoode Workman IND 05/07/1995 IND @ NYK W 12 2 1 4 25.0 0 1 0.0 0 0 - 0 2 2 3 0 0 1 3 -
p137
aVMark Jackson IND 05/07/1995 IND @ NYK W 36 8 4 7 57.1 0 0 - 0 0 - 0 3 3 7 0 0 3 0 -
p138
aVSam Mitchell IND 05/07/1995 IND @ NYK W 18 6 3 4 75.0 0 0 - 0 0 - 1 1 2 1 0 0 1 4 -
p139
aVByron Scott IND 05/07/1995 IND @ NYK W 20 5 1 6 16.7 0 2 0.0 3 3 100.0 0 0 0 1 1 0 2 4 -
p140
aVAntonio Davis IND 05/07/1995 IND @ NYK W 10 1 0 1 0.0 0 0 - 1 2 50.0 2 1 3 0 0 0 0 3 -
p141
aVDale Davis IND 05/07/1995 IND @ NYK W 37 8 2 6 33.3 0 0 - 4 6 66.7 5 8 13 1 1 1 2 3 -
p142
aVDerrick McKey IND 05/07/1995 IND @ NYK W 35 12 5 13 38.5 0 1 0.0 2 2 100.0 4 3 7 5 0 0 1 6 -
p143
aVRik Smits IND 05/07/1995 IND @ NYK W 35 34 13 19 68.4 0 0 - 8 9 88.9 4 3 7 3 0 1 4 6 -
p144
aVDerrick McKey IND 05/02/1995 IND @ ATL W 35 11 4 10 40.0 1 1 100.0 2 2 100.0 1 3 4 3 0 2 1 4 -
p145
aVReggie Miller IND 05/02/1995 IND @ ATL W 38 32 8 20 40.0 4 10 40.0 12 12 100.0 1 4 5 1 0 0 1 3 -
p146
aVSam Mitchell IND 05/02/1995 IND @ ATL W 12 4 2 3 66.7 0 0 - 0 0 - 2 2 4 0 0 0 0 1 -
p147
aVRik Smits IND 05/02/1995 IND @ ATL W 39 17 5 10 50.0 0 0 - 7 10 70.0 1 13 14 2 1 0 0 1 -
p148
aVDale Davis IND 05/02/1995 IND @ ATL W 32 6 3 7 42.9 0 0 - 0 4 0.0 5 5 10 0 0 1 0 5 -
p149
aVMark Jackson IND 05/02/1995 IND @ ATL W 34 19 9 15 60.0 1 3 33.3 0 0 - 4 3 7 7 0 0 8 1 -
p150
aVByron Scott IND 05/02/1995 IND @ ATL W 21 8 3 7 42.9 1 3 33.3 1 1 100.0 0 0 0 1 2 0 0 3 -
p151
aVAntonio Davis IND 05/02/1995 IND @ ATL W 15 4 1 2 50.0 0 0 - 2 2 100.0 1 3 4 1 1 1 2 4 -
p152
aVHaywoode Workman IND 05/02/1995 IND @ ATL W 14 4 2 5 40.0 0 1 0.0 0 0 - 0 0 0 1 1 0 0 0 -
p153
aVByron Scott IND 04/29/1995 IND vs. ATL W 29 9 4 11 36.4 0 5 0.0 1 1 100.0 0 4 4 3 0 0 3 4 -
p154
aVSam Mitchell IND 04/29/1995 IND vs. ATL W 9 0 0 1 0.0 0 0 - 0 0 - 0 2 2 0 0 1 0 3 -
p155
aVMark Jackson IND 04/29/1995 IND vs. ATL W 33 9 2 5 40.0 0 0 - 5 7 71.4 0 6 6 7 1 0 1 5 -
p156
aVDuane Ferrell IND 04/29/1995 IND vs. ATL W 3 0 0 0 - 0 0 - 0 0 - 0 0 0 0 0 0 0 1 -
p157
aVReggie Miller IND 04/29/1995 IND vs. ATL W 38 39 12 20 60.0 7 11 63.6 8 12 66.7 0 4 4 1 2 1 2 2 -
p158
aVVern Fleming IND 04/29/1995 IND vs. ATL W 3 0 0 0 - 0 0 - 0 2 0.0 0 1 1 0 0 0 0 0 -
p159
aVDerrick McKey IND 04/29/1995 IND vs. ATL W 27 6 2 5 40.0 0 0 - 2 2 100.0 2 2 4 3 0 1 2 5 -
p160
aVDale Davis IND 04/29/1995 IND vs. ATL W 23 8 4 5 80.0 0 0 - 0 3 0.0 3 6 9 0 0 0 1 5 -
p161
aVAntonio Davis IND 04/29/1995 IND vs. ATL W 23 5 1 3 33.3 0 0 - 3 4 75.0 3 3 6 0 1 1 1 4 -
p162
aVRik Smits IND 04/29/1995 IND vs. ATL W 37 27 9 19 47.4 0 0 - 9 11 81.8 6 5 11 0 0 0 4 4 -
p163
aVHaywoode Workman IND 04/29/1995 IND vs. ATL W 15 2 1 4 25.0 0 0 - 0 0 - 0 3 3 5 1 0 2 3 -
p164
aVDale Davis IND 04/27/1995 IND vs. ATL W 22 8 3 6 50.0 0 0 - 2 4 50.0 3 1 4 0 1 2 3 3 -
p165
aVRik Smits IND 04/27/1995 IND vs. ATL W 39 11 5 15 33.3 0 0 - 1 1 100.0 3 3 6 0 0 3 1 4 -
p166
aVDerrick McKey IND 04/27/1995 IND vs. ATL W 43 21 8 11 72.7 0 1 0.0 5 6 83.3 3 6 9 4 4 2 2 4 -
p167
aVSam Mitchell IND 04/27/1995 IND vs. ATL W 14 2 1 3 33.3 0 0 - 0 0 - 0 4 4 0 0 0 1 0 -
p168
aVVern Fleming IND 04/27/1995 IND vs. ATL W 1 0 0 1 0.0 0 1 0.0 0 0 - 0 0 0 0 0 0 0 0 -
p169
aVAntonio Davis IND 04/27/1995 IND vs. ATL W 17 6 3 5 60.0 0 0 - 0 0 - 1 6 7 0 1 1 1 4 -
p170
aVMark Jackson IND 04/27/1995 IND vs. ATL W 35 10 4 6 66.7 1 1 100.0 1 2 50.0 0 2 2 9 0 0 0 1 -
p171
aVReggie Miller IND 04/27/1995 IND vs. ATL W 33 24 7 17 41.2 2 10 20.0 8 10 80.0 0 2 2 5 0 1 2 2 -
p172
aVDuane Ferrell IND 04/27/1995 IND vs. ATL W 4 0 0 2 0.0 0 0 - 0 2 0.0 1 0 1 0 0 0 0 2 -
p173
aVHaywoode Workman IND 04/27/1995 IND vs. ATL W 13 2 0 2 0.0 0 1 0.0 2 2 100.0 0 0 0 3 0 0 2 3 -
p174
aVByron Scott IND 04/27/1995 IND vs. ATL W 19 6 3 8 37.5 0 1 0.0 0 0 - 1 4 5 2 1 0 1 0 -
p175
a.