(lp0
VPLAYER TEAM DATE MATCHUP W/L MIN PTS FGM FGA FG% 3PM 3PA 3P% FTM FTA FT% OREB DREB REB AST STL BLK TOV PF +/-
p1
aVDoc Rivers SAN 06/01/1995 SAN @ HOU L 17 7 2 5 40.0 1 3 33.3 2 2 100.0 0 2 2 1 1 0 0 3 -
p2
aVVinny Del Negro SAN 06/01/1995 SAN @ HOU L 33 10 3 9 33.3 0 0 - 4 5 80.0 0 3 3 1 0 0 0 1 -
p3
aVDavid Robinson SAN 06/01/1995 SAN @ HOU L 42 19 6 17 35.3 0 0 - 7 12 58.3 2 8 10 5 4 1 6 5 -
p4
aVSean Elliott SAN 06/01/1995 SAN @ HOU L 42 18 6 15 40.0 1 3 33.3 5 6 83.3 2 2 4 2 0 2 1 2 -
p5
aVChuck Person SAN 06/01/1995 SAN @ HOU L 11 4 2 3 66.7 0 1 0.0 0 0 - 0 2 2 0 1 0 1 1 -
p6
aVDennis Rodman SAN 06/01/1995 SAN @ HOU L 38 14 7 9 77.8 0 0 - 0 0 - 7 10 17 1 1 0 2 5 -
p7
aVTerry Cummings SAN 06/01/1995 SAN @ HOU L 6 2 1 2 50.0 0 0 - 0 0 - 1 0 1 0 2 0 0 1 -
p8
aVJ.R. Reid SAN 06/01/1995 SAN @ HOU L 10 2 1 2 50.0 0 0 - 0 0 - 1 1 2 0 0 0 0 1 -
p9
aVAvery Johnson SAN 06/01/1995 SAN @ HOU L 41 19 8 12 66.7 0 0 - 3 6 50.0 1 0 1 10 0 1 2 3 -
p10
aVChuck Person SAN 05/30/1995 SAN vs. HOU L 13 0 0 2 0.0 0 1 0.0 0 0 - 0 2 2 1 0 2 0 2 -
p11
aVDavid Robinson SAN 05/30/1995 SAN vs. HOU L 39 22 7 15 46.7 0 1 0.0 8 10 80.0 2 10 12 0 1 3 7 4 -
p12
aVJ.R. Reid SAN 05/30/1995 SAN vs. HOU L 10 0 0 0 - 0 0 - 0 0 - 0 1 1 0 0 0 0 1 -
p13
aVAvery Johnson SAN 05/30/1995 SAN vs. HOU L 40 20 10 15 66.7 0 0 - 0 0 - 1 1 2 7 2 0 1 3 -
p14
aVTerry Cummings SAN 05/30/1995 SAN vs. HOU L 9 12 4 5 80.0 0 0 - 4 4 100.0 1 3 4 0 0 0 1 3 -
p15
aVWillie Anderson SAN 05/30/1995 SAN vs. HOU L 13 0 0 1 0.0 0 0 - 0 0 - 1 0 1 0 1 0 3 2 -
p16
aVDoc Rivers SAN 05/30/1995 SAN vs. HOU L 16 8 3 9 33.3 2 4 50.0 0 1 0.0 1 0 1 0 1 0 1 5 -
p17
aVJulius Nwosu SAN 05/30/1995 SAN vs. HOU L 4 0 0 0 - 0 0 - 0 0 - 1 0 1 0 0 0 1 1 -
p18
aVVinny Del Negro SAN 05/30/1995 SAN vs. HOU L 26 8 4 9 44.4 0 0 - 0 0 - 1 0 1 4 0 0 2 0 -
p19
aVSean Elliott SAN 05/30/1995 SAN vs. HOU L 34 14 5 10 50.0 0 1 0.0 4 4 100.0 0 0 0 4 0 0 4 4 -
p20
aVDennis Rodman SAN 05/30/1995 SAN vs. HOU L 34 5 1 2 50.0 0 0 - 3 4 75.0 2 10 12 1 2 0 2 3 -
p21
aVJack Haley SAN 05/30/1995 SAN vs. HOU L 2 1 0 2 0.0 0 0 - 1 2 50.0 0 1 1 0 0 0 0 1 -
p22
aVAvery Johnson SAN 05/28/1995 SAN @ HOU W 41 14 7 18 38.9 0 1 0.0 0 1 0.0 1 1 2 4 2 1 2 1 -
p23
aVVinny Del Negro SAN 05/28/1995 SAN @ HOU W 39 19 7 15 46.7 0 1 0.0 5 5 100.0 0 7 7 4 0 0 3 1 -
p24
aVDavid Robinson SAN 05/28/1995 SAN @ HOU W 40 20 6 16 37.5 0 1 0.0 8 10 80.0 4 12 16 3 0 5 1 5 -
p25
aVDoc Rivers SAN 05/28/1995 SAN @ HOU W 10 13 4 6 66.7 3 3 100.0 2 2 100.0 0 2 2 1 1 1 2 1 -
p26
aVTerry Cummings SAN 05/28/1995 SAN @ HOU W 8 7 2 4 50.0 0 0 - 3 6 50.0 1 1 2 0 0 1 0 1 -
p27
aVJack Haley SAN 05/28/1995 SAN @ HOU W 2 0 0 1 0.0 0 0 - 0 0 - 2 0 2 0 0 0 0 0 -
p28
aVWillie Anderson SAN 05/28/1995 SAN @ HOU W 6 0 0 1 0.0 0 0 - 0 0 - 0 0 0 1 1 0 0 2 -
p29
aVJ.R. Reid SAN 05/28/1995 SAN @ HOU W 9 2 1 3 33.3 0 0 - 0 0 - 1 4 5 1 0 0 1 3 -
p30
aVDennis Rodman SAN 05/28/1995 SAN @ HOU W 37 12 5 10 50.0 0 1 0.0 2 2 100.0 12 7 19 0 2 0 3 4 -
p31
aVSean Elliott SAN 05/28/1995 SAN @ HOU W 35 13 6 14 42.9 0 1 0.0 1 3 33.3 3 6 9 0 0 0 0 3 -
p32
aVChuck Person SAN 05/28/1995 SAN @ HOU W 13 3 1 6 16.7 1 5 20.0 0 0 - 0 0 0 0 2 1 0 1 -
p33
aVChuck Person SAN 05/26/1995 SAN @ HOU W 15 9 3 7 42.9 3 6 50.0 0 0 - 0 4 4 0 0 0 0 1 -
p34
aVVinny Del Negro SAN 05/26/1995 SAN @ HOU W 34 19 7 14 50.0 3 7 42.9 2 2 100.0 0 2 2 5 1 0 2 3 -
p35
aVDavid Robinson SAN 05/26/1995 SAN @ HOU W 45 29 10 15 66.7 0 0 - 9 9 100.0 3 6 9 4 4 1 1 4 -
p36
aVDoc Rivers SAN 05/26/1995 SAN @ HOU W 7 2 1 3 33.3 0 0 - 0 0 - 1 0 1 0 0 0 0 1 -
p37
aVSean Elliott SAN 05/26/1995 SAN @ HOU W 38 21 7 13 53.8 3 5 60.0 4 5 80.0 2 5 7 1 0 0 1 3 -
p38
aVWillie Anderson SAN 05/26/1995 SAN @ HOU W 9 2 1 2 50.0 0 0 - 0 0 - 0 2 2 2 0 0 0 0 -
p39
aVAvery Johnson SAN 05/26/1995 SAN @ HOU W 41 20 6 14 42.9 0 0 - 8 12 66.7 0 2 2 13 0 0 0 0 -
p40
aVTerry Cummings SAN 05/26/1995 SAN @ HOU W 3 0 0 2 0.0 0 1 0.0 0 0 - 0 0 0 0 0 0 0 1 -
p41
aVDennis Rodman SAN 05/26/1995 SAN @ HOU W 37 1 0 3 0.0 0 0 - 1 2 50.0 5 9 14 0 1 0 1 2 -
p42
aVJ.R. Reid SAN 05/26/1995 SAN @ HOU W 11 4 1 2 50.0 0 0 - 2 2 100.0 0 2 2 1 0 0 1 0 -
p43
aVDoc Rivers SAN 05/24/1995 SAN vs. HOU L 27 16 7 17 41.2 2 8 25.0 0 0 - 0 1 1 3 2 1 1 1 -
p44
aVVinny Del Negro SAN 05/24/1995 SAN vs. HOU L 17 4 2 5 40.0 0 0 - 0 0 - 0 1 1 1 1 0 0 1 -
p45
aVSean Elliott SAN 05/24/1995 SAN vs. HOU L 44 12 4 12 33.3 1 4 25.0 3 3 100.0 1 2 3 5 1 0 2 3 -
p46
aVChuck Person SAN 05/24/1995 SAN vs. HOU L 19 7 3 7 42.9 1 3 33.3 0 0 - 0 2 2 1 0 0 0 1 -
p47
aVWillie Anderson SAN 05/24/1995 SAN vs. HOU L 27 6 3 7 42.9 0 0 - 0 0 - 2 3 5 5 3 0 2 5 -
p48
aVTerry Cummings SAN 05/24/1995 SAN vs. HOU L 2 1 0 0 - 0 0 - 1 2 50.0 0 0 0 0 0 0 0 2 -
p49
aVDavid Robinson SAN 05/24/1995 SAN vs. HOU L 46 32 10 18 55.6 0 0 - 12 14 85.7 6 6 12 2 0 1 5 3 -
p50
aVJ.R. Reid SAN 05/24/1995 SAN vs. HOU L 20 8 3 8 37.5 0 0 - 2 2 100.0 3 3 6 1 0 0 0 2 -
p51
aVAvery Johnson SAN 05/24/1995 SAN vs. HOU L 21 6 3 6 50.0 0 0 - 0 0 - 0 1 1 2 1 0 1 1 -
p52
aVDennis Rodman SAN 05/24/1995 SAN vs. HOU L 17 4 2 6 33.3 0 3 0.0 0 0 - 0 8 8 1 1 0 0 1 -
p53
aVSean Elliott SAN 05/22/1995 SAN vs. HOU L 42 24 9 16 56.3 1 2 50.0 5 8 62.5 1 6 7 2 0 0 2 2 -
p54
aVAvery Johnson SAN 05/22/1995 SAN vs. HOU L 39 18 9 14 64.3 0 0 - 0 0 - 1 1 2 9 1 0 1 2 -
p55
aVWillie Anderson SAN 05/22/1995 SAN vs. HOU L 1 0 0 0 - 0 0 - 0 0 - 0 0 0 0 0 0 0 0 -
p56
aVChuck Person SAN 05/22/1995 SAN vs. HOU L 13 2 0 3 0.0 0 0 - 2 3 66.7 0 3 3 0 0 0 0 1 -
p57
aVDavid Robinson SAN 05/22/1995 SAN vs. HOU L 38 21 5 17 29.4 0 0 - 11 16 68.8 6 3 9 2 0 2 7 4 -
p58
aVJ.R. Reid SAN 05/22/1995 SAN vs. HOU L 12 4 2 3 66.7 0 0 - 0 0 - 0 0 0 1 1 1 0 1 -
p59
aVVinny Del Negro SAN 05/22/1995 SAN vs. HOU L 21 8 3 7 42.9 1 2 50.0 1 2 50.0 0 2 2 2 1 1 1 2 -
p60
aVDennis Rodman SAN 05/22/1995 SAN vs. HOU L 38 4 1 7 14.3 0 1 0.0 2 4 50.0 5 15 20 2 3 0 4 2 -
p61
aVDoc Rivers SAN 05/22/1995 SAN vs. HOU L 26 8 2 7 28.6 0 3 0.0 4 6 66.7 0 2 2 0 1 0 0 5 -
p62
aVTerry Cummings SAN 05/22/1995 SAN vs. HOU L 10 4 2 4 50.0 0 0 - 0 0 - 0 2 2 0 0 0 1 1 -
p63
aVJ.R. Reid SAN 05/18/1995 SAN @ LAL W 16 8 4 6 66.7 0 0 - 0 0 - 1 2 3 1 1 0 2 3 -
p64
aVDavid Robinson SAN 05/18/1995 SAN @ LAL W 42 31 10 19 52.6 0 0 - 11 12 91.7 3 12 15 0 0 2 3 5 -
p65
aVTerry Cummings SAN 05/18/1995 SAN @ LAL W 6 0 0 1 0.0 0 0 - 0 0 - 0 2 2 1 0 0 0 1 -
p66
aVDennis Rodman SAN 05/18/1995 SAN @ LAL W 32 12 6 8 75.0 0 0 - 0 0 - 6 10 16 5 0 0 2 5 -
p67
aVDoc Rivers SAN 05/18/1995 SAN @ LAL W 24 2 1 4 25.0 0 0 - 0 0 - 0 0 0 0 0 0 2 2 -
p68
aVSean Elliott SAN 05/18/1995 SAN @ LAL W 37 26 9 18 50.0 4 7 57.1 4 5 80.0 2 2 4 2 1 0 2 3 -
p69
aVAvery Johnson SAN 05/18/1995 SAN @ LAL W 40 13 5 9 55.6 0 0 - 3 3 100.0 0 0 0 11 0 0 3 1 -
p70
aVVinny Del Negro SAN 05/18/1995 SAN @ LAL W 24 6 3 10 30.0 0 1 0.0 0 1 0.0 0 0 0 3 1 0 0 1 -
p71
aVChuck Person SAN 05/18/1995 SAN @ LAL W 19 2 1 7 14.3 0 3 0.0 0 0 - 1 1 2 1 0 0 1 3 -
p72
aVTerry Cummings SAN 05/16/1995 SAN vs. LAL L 7 4 1 3 33.3 0 0 - 2 2 100.0 0 1 1 1 0 0 1 3 -
p73
aVAvery Johnson SAN 05/16/1995 SAN vs. LAL L 50 9 4 12 33.3 0 0 - 1 4 25.0 0 2 2 12 1 1 3 2 -
p74
aVVinny Del Negro SAN 05/16/1995 SAN vs. LAL L 19 4 2 4 50.0 0 0 - 0 0 - 0 1 1 1 2 1 2 3 -
p75
aVSean Elliott SAN 05/16/1995 SAN vs. LAL L 40 22 8 18 44.4 1 7 14.3 5 7 71.4 2 2 4 1 1 2 1 5 -
p76
aVChuck Person SAN 05/16/1995 SAN vs. LAL L 17 0 0 4 0.0 0 2 0.0 0 0 - 0 2 2 1 0 1 0 1 -
p77
aVDavid Robinson SAN 05/16/1995 SAN vs. LAL L 52 34 9 22 40.9 1 2 50.0 15 17 88.2 4 13 17 4 2 4 5 5 -
p78
aVJ.R. Reid SAN 05/16/1995 SAN vs. LAL L 12 2 1 1 100.0 0 0 - 0 0 - 2 2 4 0 0 0 3 4 -
p79
aVDennis Rodman SAN 05/16/1995 SAN vs. LAL L 35 11 5 9 55.6 0 0 - 1 1 100.0 3 12 15 0 0 0 2 5 -
p80
aVDoc Rivers SAN 05/16/1995 SAN vs. LAL L 33 10 4 9 44.4 2 4 50.0 0 0 - 0 3 3 2 0 1 1 3 -
p81
aVDoc Rivers SAN 05/14/1995 SAN @ LAL W 25 3 1 4 25.0 1 2 50.0 0 0 - 0 4 4 3 4 0 4 3 -
p82
aVAvery Johnson SAN 05/14/1995 SAN @ LAL W 38 12 5 9 55.6 0 0 - 2 4 50.0 1 1 2 7 0 0 3 3 -
p83
aVTerry Cummings SAN 05/14/1995 SAN @ LAL W 33 6 2 10 20.0 0 0 - 2 4 50.0 5 4 9 2 0 0 0 1 -
p84
aVDavid Robinson SAN 05/14/1995 SAN @ LAL W 45 26 11 25 44.0 0 0 - 4 6 66.7 10 12 22 5 3 3 5 6 -
p85
aVJ.R. Reid SAN 05/14/1995 SAN @ LAL W 17 15 5 6 83.3 0 0 - 5 6 83.3 2 0 2 0 1 1 0 3 -
p86
aVChuck Person SAN 05/14/1995 SAN @ LAL W 18 2 1 3 33.3 0 2 0.0 0 0 - 0 0 0 0 0 2 0 1 -
p87
aVVinny Del Negro SAN 05/14/1995 SAN @ LAL W 21 2 1 2 50.0 0 0 - 0 0 - 0 2 2 1 0 0 0 2 -
p88
aVSean Elliott SAN 05/14/1995 SAN @ LAL W 43 14 6 19 31.6 0 5 0.0 2 3 66.7 2 4 6 2 1 0 4 2 -
p89
aVDoc Rivers SAN 05/12/1995 SAN @ LAL L 26 14 4 8 50.0 2 5 40.0 4 4 100.0 0 2 2 1 1 0 3 3 -
p90
aVSean Elliott SAN 05/12/1995 SAN @ LAL L 36 16 6 16 37.5 2 6 33.3 2 3 66.7 3 6 9 3 0 0 4 3 -
p91
aVDennis Rodman SAN 05/12/1995 SAN @ LAL L 29 3 1 2 50.0 0 0 - 1 4 25.0 5 7 12 3 1 0 4 3 -
p92
aVAvery Johnson SAN 05/12/1995 SAN @ LAL L 38 3 1 9 11.1 0 0 - 1 2 50.0 2 3 5 8 3 1 4 2 -
p93
aVWillie Anderson SAN 05/12/1995 SAN @ LAL L 11 0 0 3 0.0 0 0 - 0 0 - 1 0 1 0 0 0 1 0 -
p94
aVTerry Cummings SAN 05/12/1995 SAN @ LAL L 4 3 1 2 50.0 0 0 - 1 2 50.0 0 1 1 0 1 0 0 1 -
p95
aVDavid Robinson SAN 05/12/1995 SAN @ LAL L 41 34 14 27 51.9 0 0 - 6 8 75.0 4 9 13 3 0 3 5 4 -
p96
aVJ.R. Reid SAN 05/12/1995 SAN @ LAL L 17 4 1 4 25.0 0 0 - 2 2 100.0 1 0 1 0 1 0 0 3 -
p97
aVVinny Del Negro SAN 05/12/1995 SAN @ LAL L 17 2 1 4 25.0 0 1 0.0 0 0 - 0 0 0 2 1 0 1 1 -
p98
aVChuck Person SAN 05/12/1995 SAN @ LAL L 21 6 2 7 28.6 1 4 25.0 1 1 100.0 0 2 2 0 1 0 1 3 -
p99
aVDavid Robinson SAN 05/08/1995 SAN vs. LAL W 45 22 6 26 23.1 0 0 - 10 10 100.0 7 9 16 6 2 5 3 5 -
p100
aVChuck Person SAN 05/08/1995 SAN vs. LAL W 16 7 2 7 28.6 2 6 33.3 1 2 50.0 0 2 2 0 0 0 0 0 -
p101
aVDennis Rodman SAN 05/08/1995 SAN vs. LAL W 37 22 10 13 76.9 0 0 - 2 4 50.0 6 16 22 1 0 0 1 6 -
p102
aVJ.R. Reid SAN 05/08/1995 SAN vs. LAL W 13 6 2 6 33.3 0 0 - 2 2 100.0 0 3 3 0 1 1 2 3 -
p103
aVDoc Rivers SAN 05/08/1995 SAN vs. LAL W 26 6 0 3 0.0 0 3 0.0 6 6 100.0 0 1 1 1 2 1 1 2 -
p104
aVWillie Anderson SAN 05/08/1995 SAN vs. LAL W 3 0 0 0 - 0 0 - 0 0 - 0 0 0 1 0 0 1 0 -
p105
aVVinny Del Negro SAN 05/08/1995 SAN vs. LAL W 19 6 2 7 28.6 0 0 - 2 2 100.0 1 1 2 1 0 0 0 3 -
p106
aVAvery Johnson SAN 05/08/1995 SAN vs. LAL W 49 12 5 12 41.7 0 0 - 2 5 40.0 1 7 8 9 0 0 2 2 -
p107
aVTerry Cummings SAN 05/08/1995 SAN vs. LAL W 8 3 1 3 33.3 0 0 - 1 2 50.0 2 0 2 0 1 0 2 1 -
p108
aVSean Elliott SAN 05/08/1995 SAN vs. LAL W 49 13 3 12 25.0 1 3 33.3 6 7 85.7 2 4 6 5 1 1 2 0 -
p109
aVDoc Rivers SAN 05/06/1995 SAN vs. LAL W 24 7 3 5 60.0 1 2 50.0 0 0 - 0 1 1 3 1 1 1 3 -
p110
aVDennis Rodman SAN 05/06/1995 SAN vs. LAL W 31 6 2 6 33.3 0 0 - 2 2 100.0 2 10 12 1 0 0 0 3 -
p111
aVTerry Cummings SAN 05/06/1995 SAN vs. LAL W 5 2 0 1 0.0 0 0 - 2 2 100.0 1 2 3 0 0 0 1 2 -
p112
aVDavid Robinson SAN 05/06/1995 SAN vs. LAL W 43 33 14 23 60.9 0 0 - 5 5 100.0 1 10 11 3 0 5 2 3 -
p113
aVJ.R. Reid SAN 05/06/1995 SAN vs. LAL W 17 10 3 7 42.9 0 0 - 4 5 80.0 1 3 4 1 1 1 1 4 -
p114
aVWillie Anderson SAN 05/06/1995 SAN vs. LAL W 4 2 1 1 100.0 0 0 - 0 0 - 0 0 0 1 0 0 0 0 -
p115
aVChuck Person SAN 05/06/1995 SAN vs. LAL W 21 11 4 5 80.0 3 4 75.0 0 0 - 1 1 2 0 0 0 1 1 -
p116
aVSean Elliott SAN 05/06/1995 SAN vs. LAL W 33 10 3 9 33.3 0 1 0.0 4 5 80.0 1 3 4 5 0 2 1 3 -
p117
aVVinny Del Negro SAN 05/06/1995 SAN vs. LAL W 22 10 4 7 57.1 2 3 66.7 0 0 - 0 1 1 2 0 0 1 1 -
p118
aVAvery Johnson SAN 05/06/1995 SAN vs. LAL W 40 19 7 12 58.3 0 0 - 5 6 83.3 0 2 2 12 3 0 2 1 -
p119
aVAvery Johnson SAN 05/02/1995 SAN @ DEN W 39 24 10 15 66.7 0 0 - 4 7 57.1 0 1 1 4 3 0 3 3 -
p120
aVChuck Person SAN 05/02/1995 SAN @ DEN W 15 3 1 3 33.3 1 2 50.0 0 0 - 0 0 0 0 0 0 0 1 -
p121
aVDoc Rivers SAN 05/02/1995 SAN @ DEN W 17 6 1 4 25.0 1 4 25.0 3 4 75.0 0 0 0 1 0 1 0 3 -
p122
aVDavid Robinson SAN 05/02/1995 SAN @ DEN W 41 24 10 23 43.5 0 1 0.0 4 6 66.7 3 5 8 5 2 2 1 4 -
p123
aVVinny Del Negro SAN 05/02/1995 SAN @ DEN W 26 7 2 5 40.0 1 2 50.0 2 2 100.0 0 1 1 2 0 0 1 2 -
p124
aVJ.R. Reid SAN 05/02/1995 SAN @ DEN W 12 7 2 3 66.7 0 0 - 3 5 60.0 1 2 3 0 1 0 1 2 -
p125
aVDennis Rodman SAN 05/02/1995 SAN @ DEN W 36 8 4 5 80.0 0 0 - 0 4 0.0 7 6 13 1 0 0 1 5 -
p126
aVTerry Cummings SAN 05/02/1995 SAN @ DEN W 6 0 0 1 0.0 0 0 - 0 0 - 0 0 0 0 0 0 0 1 -
p127
aVSean Elliott SAN 05/02/1995 SAN @ DEN W 43 18 2 9 22.2 0 3 0.0 14 16 87.5 2 3 5 4 2 0 2 1 -
p128
aVWillie Anderson SAN 05/02/1995 SAN @ DEN W 5 2 1 2 50.0 0 1 0.0 0 0 - 0 0 0 0 0 0 1 2 -
p129
aVVinny Del Negro SAN 04/30/1995 SAN vs. DEN W 30 8 3 7 42.9 2 3 66.7 0 1 0.0 0 3 3 3 0 0 2 1 -
p130
aVAvery Johnson SAN 04/30/1995 SAN vs. DEN W 30 14 5 7 71.4 0 0 - 4 4 100.0 0 0 0 9 4 2 2 3 -
p131
aVDavid Robinson SAN 04/30/1995 SAN vs. DEN W 34 19 6 14 42.9 0 0 - 7 8 87.5 0 4 4 4 2 0 2 3 -
p132
aVSean Elliott SAN 04/30/1995 SAN vs. DEN W 29 18 5 6 83.3 3 3 100.0 5 6 83.3 0 2 2 3 2 0 0 3 -
p133
aVJack Haley SAN 04/30/1995 SAN vs. DEN W 4 2 1 3 33.3 0 0 - 0 0 - 0 1 1 0 0 0 0 1 -
p134
aVChuck Person SAN 04/30/1995 SAN vs. DEN W 21 9 3 6 50.0 1 4 25.0 2 2 100.0 0 2 2 3 0 1 0 3 -
p135
aVWillie Anderson SAN 04/30/1995 SAN vs. DEN W 12 8 3 3 100.0 0 0 - 2 3 66.7 1 2 3 0 0 0 0 1 -
p136
aVTerry Cummings SAN 04/30/1995 SAN vs. DEN W 14 9 2 5 40.0 0 0 - 5 5 100.0 1 1 2 0 0 0 1 3 -
p137
aVJulius Nwosu SAN 04/30/1995 SAN vs. DEN W 3 0 0 2 0.0 0 0 - 0 0 - 0 1 1 0 0 0 0 0 -
p138
aVJ.R. Reid SAN 04/30/1995 SAN vs. DEN W 12 5 1 4 25.0 0 0 - 3 4 75.0 0 3 3 1 0 0 2 2 -
p139
aVDoc Rivers SAN 04/30/1995 SAN vs. DEN W 19 11 2 5 40.0 2 2 100.0 5 6 83.3 0 5 5 5 0 1 1 3 -
p140
aVDennis Rodman SAN 04/30/1995 SAN vs. DEN W 32 19 7 10 70.0 0 0 - 5 6 83.3 6 10 16 1 1 0 2 3 -
p141
aVJack Haley SAN 04/28/1995 SAN vs. DEN W 5 0 0 1 0.0 0 0 - 0 0 - 0 2 2 0 0 1 1 0 -
p142
aVSean Elliott SAN 04/28/1995 SAN vs. DEN W 29 21 8 13 61.5 3 4 75.0 2 4 50.0 0 2 2 1 1 0 1 1 -
p143
aVDavid Robinson SAN 04/28/1995 SAN vs. DEN W 30 14 5 12 41.7 0 0 - 4 6 66.7 2 6 8 1 2 2 3 3 -
p144
aVWillie Anderson SAN 04/28/1995 SAN vs. DEN W 6 0 0 0 - 0 0 - 0 0 - 0 0 0 0 0 0 0 0 -
p145
aVDennis Rodman SAN 04/28/1995 SAN vs. DEN W 26 3 1 6 16.7 0 0 - 1 2 50.0 3 8 11 1 0 0 1 4 -
p146
aVChuck Person SAN 04/28/1995 SAN vs. DEN W 26 10 4 7 57.1 0 2 0.0 2 3 66.7 0 2 2 1 0 0 2 2 -
p147
aVJ.R. Reid SAN 04/28/1995 SAN vs. DEN W 21 14 2 4 50.0 0 0 - 10 11 90.9 1 2 3 2 0 0 2 4 -
p148
aVAvery Johnson SAN 04/28/1995 SAN vs. DEN W 28 15 6 12 50.0 0 0 - 3 4 75.0 1 1 2 8 0 0 1 2 -
p149
aVVinny Del Negro SAN 04/28/1995 SAN vs. DEN W 34 18 7 13 53.8 0 0 - 4 4 100.0 2 4 6 5 1 0 1 1 -
p150
aVTerry Cummings SAN 04/28/1995 SAN vs. DEN W 14 5 2 5 40.0 0 0 - 1 1 100.0 0 2 2 0 1 0 0 3 -
p151
aVDoc Rivers SAN 04/28/1995 SAN vs. DEN W 21 4 2 6 33.3 0 3 0.0 0 0 - 1 3 4 3 0 2 1 2 -
p152
a.