(lp0
VPLAYER TEAM DATE MATCHUP W/L MIN PTS FGM FGA FG% 3PM 3PA 3P% FTM FTA FT% OREB DREB REB AST STL BLK TOV PF +/-
p1
aVDetlef Schrempf SEA 05/04/1995 SEA @ LAL L 38 17 6 16 37.5 3 4 75.0 2 3 66.7 0 4 4 6 1 0 1 5 -
p2
aVErvin Johnson SEA 05/04/1995 SEA @ LAL L 7 2 1 3 33.3 0 0 - 0 0 - 3 2 5 0 0 0 0 4 -
p3
aVGary Payton SEA 05/04/1995 SEA @ LAL L 45 27 12 16 75.0 0 1 0.0 3 7 42.9 3 2 5 6 2 0 3 5 -
p4
aVNate McMillan SEA 05/04/1995 SEA @ LAL L 24 5 2 7 28.6 1 3 33.3 0 0 - 1 0 1 6 3 0 1 4 -
p5
aVVincent Askew SEA 05/04/1995 SEA @ LAL L 26 12 5 7 71.4 2 2 100.0 0 0 - 2 0 2 3 0 0 2 4 -
p6
aVSam Perkins SEA 05/04/1995 SEA @ LAL L 36 15 6 12 50.0 3 4 75.0 0 0 - 1 6 7 4 0 1 2 4 -
p7
aVKendall Gill SEA 05/04/1995 SEA @ LAL L 18 6 2 6 33.3 1 2 50.0 1 2 50.0 0 0 0 2 1 0 1 2 -
p8
aVShawn Kemp SEA 05/04/1995 SEA @ LAL L 46 26 7 16 43.8 0 0 - 12 13 92.3 5 13 18 2 4 4 3 5 -
p9
aVKendall Gill SEA 05/01/1995 SEA @ LAL L 10 0 0 2 0.0 0 1 0.0 0 2 0.0 0 0 0 1 1 1 0 0 -
p10
aVDetlef Schrempf SEA 05/01/1995 SEA @ LAL L 42 19 7 14 50.0 1 4 25.0 4 5 80.0 2 6 8 4 0 0 3 2 -
p11
aVShawn Kemp SEA 05/01/1995 SEA @ LAL L 42 30 10 14 71.4 1 1 100.0 9 12 75.0 4 7 11 4 0 0 4 4 -
p12
aVErvin Johnson SEA 05/01/1995 SEA @ LAL L 11 2 0 3 0.0 0 0 - 2 2 100.0 0 4 4 0 0 1 0 5 -
p13
aVGary Payton SEA 05/01/1995 SEA @ LAL L 45 20 10 21 47.6 0 2 0.0 0 2 0.0 0 0 0 3 1 0 2 4 -
p14
aVVincent Askew SEA 05/01/1995 SEA @ LAL L 26 10 4 8 50.0 2 2 100.0 0 1 0.0 3 2 5 2 0 0 0 6 -
p15
aVSam Perkins SEA 05/01/1995 SEA @ LAL L 37 18 8 14 57.1 2 4 50.0 0 0 - 3 6 9 3 2 0 3 4 -
p16
aVNate McMillan SEA 05/01/1995 SEA @ LAL L 27 2 1 4 25.0 0 1 0.0 0 0 - 1 2 3 10 0 1 2 4 -
p17
aVGary Payton SEA 04/29/1995 SEA vs. LAL L 45 16 7 19 36.8 1 4 25.0 1 2 50.0 1 1 2 6 1 0 1 2 -
p18
aVVincent Askew SEA 04/29/1995 SEA vs. LAL L 20 2 1 8 12.5 0 1 0.0 0 0 - 4 1 5 1 2 0 0 1 -
p19
aVSam Perkins SEA 04/29/1995 SEA vs. LAL L 35 11 4 15 26.7 3 8 37.5 0 0 - 2 6 8 2 0 3 1 2 -
p20
aVShawn Kemp SEA 04/29/1995 SEA vs. LAL L 38 22 7 15 46.7 0 0 - 8 8 100.0 5 7 12 2 2 1 3 4 -
p21
aVDetlef Schrempf SEA 04/29/1995 SEA vs. LAL L 38 19 4 14 28.6 4 6 66.7 7 7 100.0 0 3 3 1 2 1 3 3 -
p22
aVNate McMillan SEA 04/29/1995 SEA vs. LAL L 32 6 3 7 42.9 0 2 0.0 0 0 - 4 4 8 5 2 0 2 2 -
p23
aVKendall Gill SEA 04/29/1995 SEA vs. LAL L 19 2 1 7 14.3 0 3 0.0 0 0 - 1 1 2 3 0 0 2 2 -
p24
aVErvin Johnson SEA 04/29/1995 SEA vs. LAL L 13 4 1 3 33.3 0 0 - 2 2 100.0 3 4 7 0 0 2 0 4 -
p25
aVGary Payton SEA 04/27/1995 SEA vs. LAL W 37 8 3 11 27.3 1 3 33.3 1 1 100.0 2 1 3 6 1 0 2 2 -
p26
aVShawn Kemp SEA 04/27/1995 SEA vs. LAL W 34 21 9 12 75.0 0 0 - 3 6 50.0 3 4 7 3 2 2 5 4 -
p27
aVSteve Scheffler SEA 04/27/1995 SEA vs. LAL W 1 2 1 1 100.0 0 0 - 0 0 - 0 1 1 0 0 0 0 0 -
p28
aVDetlef Schrempf SEA 04/27/1995 SEA vs. LAL W 35 20 6 13 46.2 2 4 50.0 6 9 66.7 0 4 4 1 0 1 4 2 -
p29
aVVincent Askew SEA 04/27/1995 SEA vs. LAL W 21 6 2 6 33.3 0 0 - 2 2 100.0 2 1 3 2 1 0 1 3 -
p30
aVSam Perkins SEA 04/27/1995 SEA vs. LAL W 33 10 3 7 42.9 2 6 33.3 2 2 100.0 0 7 7 4 1 1 3 2 -
p31
aVKendall Gill SEA 04/27/1995 SEA vs. LAL W 25 17 6 10 60.0 1 2 50.0 4 4 100.0 0 2 2 4 2 0 1 2 -
p32
aVErvin Johnson SEA 04/27/1995 SEA vs. LAL W 23 6 2 5 40.0 0 0 - 2 2 100.0 2 3 5 0 1 1 1 3 -
p33
aVByron Houston SEA 04/27/1995 SEA vs. LAL W 1 0 0 1 0.0 0 0 - 0 0 - 0 0 0 0 0 0 0 0 -
p34
aVNate McMillan SEA 04/27/1995 SEA vs. LAL W 30 6 2 5 40.0 0 2 0.0 2 2 100.0 1 5 6 8 5 1 2 3 -
p35
a.