(lp0
VPLAYER TEAM DATE MATCHUP W/L MIN PTS FGM FGA FG% 3PM 3PA 3P% FTM FTA FT% OREB DREB REB AST STL BLK TOV PF +/-
p1
aVKarl Malone UTH 05/07/1995 UTH vs. HOU L 45 35 10 21 47.6 1 2 50.0 14 20 70.0 1 9 10 3 2 0 3 4 -
p2
aVAntoine Carr UTH 05/07/1995 UTH vs. HOU L 25 7 1 6 16.7 0 0 - 5 6 83.3 2 3 5 2 0 0 0 6 -
p3
aVJeff Hornacek UTH 05/07/1995 UTH vs. HOU L 43 19 5 10 50.0 4 5 80.0 5 6 83.3 0 1 1 6 1 1 3 6 -
p4
aVJames Donaldson UTH 05/07/1995 UTH vs. HOU L 17 0 0 0 - 0 0 - 0 0 - 0 1 1 0 0 2 0 1 -
p5
aVAdam Keefe UTH 05/07/1995 UTH vs. HOU L 15 2 1 3 33.3 0 0 - 0 0 - 4 4 8 0 0 0 0 2 -
p6
aVTom Chambers UTH 05/07/1995 UTH vs. HOU L 9 4 1 2 50.0 0 0 - 2 2 100.0 1 3 4 1 0 0 1 4 -
p7
aVJohn Stockton UTH 05/07/1995 UTH vs. HOU L 41 12 4 14 28.6 1 6 16.7 3 4 75.0 0 1 1 5 2 0 1 4 -
p8
aVJamie Watson UTH 05/07/1995 UTH vs. HOU L 12 4 2 3 66.7 0 0 - 0 0 - 0 0 0 0 1 0 3 4 -
p9
aVDavid Benoit UTH 05/07/1995 UTH vs. HOU L 33 8 3 9 33.3 2 8 25.0 0 0 - 0 3 3 3 1 1 0 5 -
p10
aVJeff Hornacek UTH 05/05/1995 UTH @ HOU L 35 11 5 10 50.0 1 1 100.0 0 0 - 1 0 1 2 1 0 0 5 -
p11
aVJamie Watson UTH 05/05/1995 UTH @ HOU L 13 0 0 1 0.0 0 0 - 0 0 - 0 0 0 1 0 0 1 3 -
p12
aVAntoine Carr UTH 05/05/1995 UTH @ HOU L 23 8 2 4 50.0 0 0 - 4 5 80.0 1 0 1 1 1 1 0 6 -
p13
aVJohn Crotty UTH 05/05/1995 UTH @ HOU L 6 0 0 1 0.0 0 0 - 0 0 - 0 0 0 1 0 0 0 0 -
p14
aVBryon Russell UTH 05/05/1995 UTH @ HOU L 6 4 2 4 50.0 0 2 0.0 0 0 - 0 0 0 2 0 0 0 2 -
p15
aVTom Chambers UTH 05/05/1995 UTH @ HOU L 8 4 2 3 66.7 0 0 - 0 0 - 1 2 3 0 0 0 0 2 -
p16
aVJohn Stockton UTH 05/05/1995 UTH @ HOU L 39 26 11 18 61.1 1 3 33.3 3 4 75.0 2 1 3 11 1 0 2 5 -
p17
aVKarl Malone UTH 05/05/1995 UTH @ HOU L 44 31 7 17 41.2 0 0 - 17 21 81.0 0 6 6 5 2 1 1 4 -
p18
aVBlue Edwards UTH 05/05/1995 UTH @ HOU L 5 0 0 1 0.0 0 0 - 0 0 - 0 0 0 0 1 0 2 0 -
p19
aVJames Donaldson UTH 05/05/1995 UTH @ HOU L 13 2 0 0 - 0 0 - 2 2 100.0 1 0 1 0 0 1 0 1 -
p20
aVDavid Benoit UTH 05/05/1995 UTH @ HOU L 37 20 8 12 66.7 3 6 50.0 1 3 33.3 3 4 7 0 0 1 4 2 -
p21
aVAdam Keefe UTH 05/05/1995 UTH @ HOU L 11 0 0 1 0.0 0 0 - 0 0 - 0 2 2 0 1 0 0 1 -
p22
aVAntoine Carr UTH 05/03/1995 UTH @ HOU W 24 12 5 12 41.7 0 0 - 2 3 66.7 0 3 3 1 1 2 0 4 -
p23
aVDavid Benoit UTH 05/03/1995 UTH @ HOU W 46 14 5 10 50.0 3 4 75.0 1 2 50.0 3 7 10 1 1 1 3 0 -
p24
aVJohn Stockton UTH 05/03/1995 UTH @ HOU W 42 11 4 10 40.0 2 2 100.0 1 3 33.3 0 4 4 13 1 0 2 2 -
p25
aVJamie Watson UTH 05/03/1995 UTH @ HOU W 12 2 1 2 50.0 0 0 - 0 0 - 0 0 0 1 0 1 0 3 -
p26
aVBlue Edwards UTH 05/03/1995 UTH @ HOU W 2 0 0 1 0.0 0 0 - 0 0 - 0 0 0 0 0 0 0 0 -
p27
aVTom Chambers UTH 05/03/1995 UTH @ HOU W 9 4 2 3 66.7 0 0 - 0 1 0.0 0 1 1 0 0 0 0 2 -
p28
aVKarl Malone UTH 05/03/1995 UTH @ HOU W 46 32 13 26 50.0 0 0 - 6 10 60.0 5 14 19 5 0 1 2 3 -
p29
aVJeff Hornacek UTH 05/03/1995 UTH @ HOU W 43 14 6 12 50.0 0 2 0.0 2 3 66.7 0 2 2 5 2 0 0 4 -
p30
aVJames Donaldson UTH 05/03/1995 UTH @ HOU W 16 6 2 3 66.7 0 0 - 2 2 100.0 1 3 4 0 0 0 0 4 -
p31
aVJames Donaldson UTH 04/29/1995 UTH vs. HOU L 13 4 2 2 100.0 0 0 - 0 0 - 1 0 1 0 0 0 1 1 -
p32
aVJohn Crotty UTH 04/29/1995 UTH vs. HOU L 10 6 2 2 100.0 0 0 - 2 3 66.7 0 0 0 3 1 0 0 2 -
p33
aVJeff Hornacek UTH 04/29/1995 UTH vs. HOU L 30 21 8 9 88.9 2 2 100.0 3 3 100.0 0 0 0 3 1 0 1 4 -
p34
aVJamie Watson UTH 04/29/1995 UTH vs. HOU L 9 6 3 3 100.0 0 0 - 0 0 - 0 0 0 1 1 0 2 1 -
p35
aVDavid Benoit UTH 04/29/1995 UTH vs. HOU L 30 12 3 7 42.9 2 5 40.0 4 4 100.0 0 4 4 0 0 1 1 2 -
p36
aVAdam Keefe UTH 04/29/1995 UTH vs. HOU L 16 5 1 2 50.0 0 0 - 3 4 75.0 1 1 2 2 3 0 0 1 -
p37
aVAntoine Carr UTH 04/29/1995 UTH vs. HOU L 26 11 3 4 75.0 0 0 - 5 6 83.3 0 4 4 0 1 2 2 5 -
p38
aVJohn Stockton UTH 04/29/1995 UTH vs. HOU L 32 12 3 13 23.1 2 4 50.0 4 4 100.0 2 2 4 12 1 1 3 2 -
p39
aVBlue Edwards UTH 04/29/1995 UTH vs. HOU L 15 4 2 7 28.6 0 0 - 0 0 - 1 3 4 2 1 0 1 1 -
p40
aVKarl Malone UTH 04/29/1995 UTH vs. HOU L 37 28 10 20 50.0 0 0 - 8 13 61.5 4 13 17 2 0 0 4 3 -
p41
aVBryon Russell UTH 04/29/1995 UTH vs. HOU L 7 7 2 3 66.7 2 2 100.0 1 2 50.0 1 1 2 1 1 0 0 0 -
p42
aVTom Chambers UTH 04/29/1995 UTH vs. HOU L 15 10 2 7 28.6 1 3 33.3 5 5 100.0 0 0 0 0 0 0 1 4 -
p43
aVJohn Crotty UTH 04/27/1995 UTH vs. HOU W 8 1 0 0 - 0 0 - 1 2 50.0 0 0 0 2 0 0 0 0 -
p44
aVBlue Edwards UTH 04/27/1995 UTH vs. HOU W 11 5 2 3 66.7 1 1 100.0 0 0 - 0 2 2 1 0 0 0 2 -
p45
aVJames Donaldson UTH 04/27/1995 UTH vs. HOU W 17 2 1 1 100.0 0 0 - 0 0 - 0 2 2 0 0 0 1 1 -
p46
aVAntoine Carr UTH 04/27/1995 UTH vs. HOU W 16 10 3 5 60.0 0 0 - 4 4 100.0 0 2 2 3 0 0 2 5 -
p47
aVJohn Stockton UTH 04/27/1995 UTH vs. HOU W 39 28 12 19 63.2 2 5 40.0 2 2 100.0 2 3 5 10 2 0 6 0 -
p48
aVTom Chambers UTH 04/27/1995 UTH vs. HOU W 19 10 4 7 57.1 0 0 - 2 5 40.0 1 4 5 1 2 0 1 6 -
p49
aVDavid Benoit UTH 04/27/1995 UTH vs. HOU W 21 5 2 7 28.6 1 2 50.0 0 0 - 1 3 4 0 0 0 2 1 -
p50
aVKarl Malone UTH 04/27/1995 UTH vs. HOU W 44 25 8 19 42.1 0 1 0.0 9 14 64.3 5 9 14 4 3 0 4 4 -
p51
aVJamie Watson UTH 04/27/1995 UTH vs. HOU W 11 0 0 0 - 0 0 - 0 0 - 1 0 1 0 0 0 0 1 -
p52
aVAdam Keefe UTH 04/27/1995 UTH vs. HOU W 27 11 5 6 83.3 0 0 - 1 2 50.0 3 2 5 0 1 1 0 0 -
p53
aVJeff Hornacek UTH 04/27/1995 UTH vs. HOU W 27 5 2 10 20.0 0 3 0.0 1 2 50.0 2 0 2 4 3 0 3 0 -
p54
a.