(lp0
VPLAYER TEAM DATE MATCHUP W/L MIN PTS FGM FGA FG% 3PM 3PA 3P% FTM FTA FT% OREB DREB REB AST STL BLK TOV PF +/-
p1
aVEric Montross BOS 05/05/1995 BOS vs. ORL L 7 2 1 2 50.0 0 0 - 0 0 - 2 0 2 0 0 0 1 2 -
p2
aVGreg Minor BOS 05/05/1995 BOS vs. ORL L 5 0 0 1 0.0 0 0 - 0 0 - 0 0 0 2 0 0 0 0 -
p3
aVDee Brown BOS 05/05/1995 BOS vs. ORL L 38 18 6 14 42.9 3 8 37.5 3 3 100.0 0 4 4 5 1 1 3 6 -
p4
aVSherman Douglas BOS 05/05/1995 BOS vs. ORL L 46 21 9 22 40.9 2 4 50.0 1 2 50.0 2 4 6 5 0 0 7 2 -
p5
aVDominique Wilkins BOS 05/05/1995 BOS vs. ORL L 42 22 7 17 41.2 2 5 40.0 6 8 75.0 8 10 18 3 2 1 3 2 -
p6
aVPervis Ellison BOS 05/05/1995 BOS vs. ORL L 10 2 1 1 100.0 0 0 - 0 0 - 1 1 2 0 0 0 1 4 -
p7
aVDerek Strong BOS 05/05/1995 BOS vs. ORL L 31 4 2 5 40.0 0 0 - 0 0 - 3 5 8 0 1 0 2 4 -
p8
aVDino Radja BOS 05/05/1995 BOS vs. ORL L 47 17 7 16 43.8 0 0 - 3 6 50.0 1 5 6 2 1 1 1 5 -
p9
aVXavier McDaniel BOS 05/05/1995 BOS vs. ORL L 14 6 2 4 50.0 0 0 - 2 2 100.0 1 0 1 2 0 0 0 0 -
p10
aVGreg Minor BOS 05/03/1995 BOS vs. ORL L 5 0 0 2 0.0 0 0 - 0 0 - 1 0 1 0 0 0 0 1 -
p11
aVXavier McDaniel BOS 05/03/1995 BOS vs. ORL L 12 2 1 5 20.0 0 0 - 0 0 - 0 1 1 1 0 0 2 1 -
p12
aVPervis Ellison BOS 05/03/1995 BOS vs. ORL L 23 8 3 8 37.5 0 0 - 2 2 100.0 6 4 10 1 1 3 2 5 -
p13
aVSherman Douglas BOS 05/03/1995 BOS vs. ORL L 45 11 4 16 25.0 1 3 33.3 2 4 50.0 1 7 8 7 0 1 2 2 -
p14
aVDerek Strong BOS 05/03/1995 BOS vs. ORL L 16 6 2 3 66.7 0 0 - 2 2 100.0 5 3 8 1 0 1 1 1 -
p15
aVDino Radja BOS 05/03/1995 BOS vs. ORL L 42 15 4 13 30.8 0 0 - 7 10 70.0 1 7 8 2 1 3 4 5 -
p16
aVEric Montross BOS 05/03/1995 BOS vs. ORL L 13 3 1 2 50.0 0 0 - 1 2 50.0 1 0 1 0 0 0 2 3 -
p17
aVDee Brown BOS 05/03/1995 BOS vs. ORL L 47 16 6 17 35.3 3 9 33.3 1 1 100.0 1 3 4 6 2 0 2 4 -
p18
aVDominique Wilkins BOS 05/03/1995 BOS vs. ORL L 37 16 4 14 28.6 4 6 66.7 4 4 100.0 5 4 9 2 0 1 2 1 -
p19
aVGreg Minor BOS 04/30/1995 BOS @ ORL W 6 0 0 0 - 0 0 - 0 0 - 0 0 0 0 0 0 0 0 -
p20
aVDerek Strong BOS 04/30/1995 BOS @ ORL W 19 1 0 1 0.0 0 0 - 1 2 50.0 2 2 4 1 1 0 1 0 -
p21
aVDee Brown BOS 04/30/1995 BOS @ ORL W 48 21 7 16 43.8 2 5 40.0 5 7 71.4 4 4 8 4 1 0 1 2 -
p22
aVEric Montross BOS 04/30/1995 BOS @ ORL W 17 2 1 3 33.3 0 0 - 0 2 0.0 1 0 1 0 0 0 2 4 -
p23
aVXavier McDaniel BOS 04/30/1995 BOS @ ORL W 9 3 1 2 50.0 0 0 - 1 2 50.0 1 1 2 0 0 0 1 1 -
p24
aVPervis Ellison BOS 04/30/1995 BOS @ ORL W 23 10 5 8 62.5 0 0 - 0 0 - 2 0 2 0 1 2 0 6 -
p25
aVDominique Wilkins BOS 04/30/1995 BOS @ ORL W 39 24 10 17 58.8 2 5 40.0 2 2 100.0 2 5 7 2 0 1 2 2 -
p26
aVSherman Douglas BOS 04/30/1995 BOS @ ORL W 42 20 9 17 52.9 1 3 33.3 1 1 100.0 0 2 2 15 2 0 3 5 -
p27
aVDino Radja BOS 04/30/1995 BOS @ ORL W 37 18 6 11 54.5 0 0 - 6 6 100.0 0 8 8 3 1 0 3 5 -
p28
aVDerek Strong BOS 04/28/1995 BOS @ ORL L 15 0 0 3 0.0 0 0 - 0 2 0.0 3 1 4 1 1 0 1 2 -
p29
aVDino Radja BOS 04/28/1995 BOS @ ORL L 27 10 3 10 30.0 0 0 - 4 6 66.7 2 4 6 2 1 1 1 4 -
p30
aVSherman Douglas BOS 04/28/1995 BOS @ ORL L 35 8 2 13 15.4 0 2 0.0 4 4 100.0 1 3 4 6 2 0 5 3 -
p31
aVPervis Ellison BOS 04/28/1995 BOS @ ORL L 12 4 2 2 100.0 0 0 - 0 0 - 2 1 3 1 0 0 1 2 -
p32
aVDee Brown BOS 04/28/1995 BOS @ ORL L 39 20 7 15 46.7 1 4 25.0 5 5 100.0 1 3 4 4 1 0 1 1 -
p33
aVGreg Minor BOS 04/28/1995 BOS @ ORL L 21 11 5 10 50.0 0 0 - 1 1 100.0 0 0 0 0 1 1 1 2 -
p34
aVEric Montross BOS 04/28/1995 BOS @ ORL L 25 6 2 4 50.0 0 0 - 2 2 100.0 3 2 5 0 0 0 3 4 -
p35
aVXavier McDaniel BOS 04/28/1995 BOS @ ORL L 24 2 1 6 16.7 0 1 0.0 0 0 - 0 2 2 2 0 0 3 3 -
p36
aVAcie Earl BOS 04/28/1995 BOS @ ORL L 10 2 1 3 33.3 0 0 - 0 2 0.0 1 1 2 0 0 1 0 4 -
p37
aVDominique Wilkins BOS 04/28/1995 BOS @ ORL L 32 14 5 13 38.5 0 1 0.0 4 4 100.0 2 7 9 1 0 0 2 2 -
p38
a.