(lp0
VPLAYER TEAM DATE MATCHUP W/L MIN PTS FGM FGA FG% 3PM 3PA 3P% FTM FTA FT% OREB DREB REB AST STL BLK TOV PF +/-
p1
aVDan Schayes PHX 05/20/1995 PHX vs. HOU L 19 2 1 1 100.0 0 0 - 0 0 - 0 1 1 0 0 1 2 4 -
p2
aVElliot Perry PHX 05/20/1995 PHX vs. HOU L 6 5 2 4 50.0 0 1 0.0 1 2 50.0 0 1 1 0 0 0 1 0 -
p3
aVDan Majerle PHX 05/20/1995 PHX vs. HOU L 27 6 1 7 14.3 0 4 0.0 4 4 100.0 0 2 2 1 0 0 0 3 -
p4
aVDanny Ainge PHX 05/20/1995 PHX vs. HOU L 27 19 5 8 62.5 4 6 66.7 5 5 100.0 0 1 1 0 2 0 0 3 -
p5
aVA.C. Green PHX 05/20/1995 PHX vs. HOU L 24 8 3 4 75.0 0 1 0.0 2 4 50.0 2 3 5 1 0 1 0 3 -
p6
aVWesley Person PHX 05/20/1995 PHX vs. HOU L 23 3 1 6 16.7 1 4 25.0 0 0 - 0 0 0 1 0 0 0 5 -
p7
aVJoe Kleine PHX 05/20/1995 PHX vs. HOU L 19 4 2 2 100.0 0 0 - 0 0 - 2 6 8 0 1 1 2 5 -
p8
aVWayman Tisdale PHX 05/20/1995 PHX vs. HOU L 9 3 1 2 50.0 0 0 - 1 2 50.0 1 3 4 0 0 2 1 4 -
p9
aVCharles Barkley PHX 05/20/1995 PHX vs. HOU L 44 18 7 16 43.8 0 2 0.0 4 5 80.0 6 17 23 5 1 0 7 3 -
p10
aVKevin Johnson PHX 05/20/1995 PHX vs. HOU L 42 46 12 26 46.2 1 2 50.0 21 22 95.5 1 2 3 10 1 1 1 3 -
p11
aVWesley Person PHX 05/18/1995 PHX @ HOU L 36 15 6 10 60.0 3 5 60.0 0 0 - 1 0 1 2 0 0 2 3 -
p12
aVA.C. Green PHX 05/18/1995 PHX @ HOU L 33 10 2 7 28.6 0 0 - 6 6 100.0 4 5 9 0 0 0 0 4 -
p13
aVKevin Johnson PHX 05/18/1995 PHX @ HOU L 37 14 5 15 33.3 0 3 0.0 4 8 50.0 3 1 4 10 0 0 3 3 -
p14
aVDan Majerle PHX 05/18/1995 PHX @ HOU L 31 9 4 11 36.4 1 5 20.0 0 0 - 1 3 4 1 3 0 3 3 -
p15
aVDanny Ainge PHX 05/18/1995 PHX @ HOU L 6 0 0 1 0.0 0 0 - 0 0 - 0 0 0 2 0 0 0 0 -
p16
aVWayman Tisdale PHX 05/18/1995 PHX @ HOU L 13 7 3 6 50.0 0 0 - 1 1 100.0 0 4 4 1 0 1 0 1 -
p17
aVDan Schayes PHX 05/18/1995 PHX @ HOU L 13 0 0 4 0.0 0 1 0.0 0 0 - 1 3 4 0 1 0 0 3 -
p18
aVElliot Perry PHX 05/18/1995 PHX @ HOU L 11 4 2 4 50.0 0 0 - 0 0 - 0 0 0 3 0 0 1 0 -
p19
aVJoe Kleine PHX 05/18/1995 PHX @ HOU L 17 10 5 10 50.0 0 0 - 0 0 - 0 1 1 1 0 0 0 4 -
p20
aVCharles Barkley PHX 05/18/1995 PHX @ HOU L 43 34 12 22 54.5 2 5 40.0 8 10 80.0 3 11 14 3 3 1 1 0 -
p21
aVDanny Ainge PHX 05/16/1995 PHX vs. HOU L 3 0 0 2 0.0 0 2 0.0 0 0 - 1 1 2 1 0 0 2 0 -
p22
aVKevin Johnson PHX 05/16/1995 PHX vs. HOU L 47 28 10 17 58.8 0 1 0.0 8 11 72.7 1 7 8 8 0 2 4 2 -
p23
aVWesley Person PHX 05/16/1995 PHX vs. HOU L 35 15 6 14 42.9 3 9 33.3 0 0 - 3 2 5 2 0 0 1 2 -
p24
aVElliot Perry PHX 05/16/1995 PHX vs. HOU L 4 2 1 2 50.0 0 0 - 0 0 - 0 0 0 1 1 0 0 1 -
p25
aVDan Schayes PHX 05/16/1995 PHX vs. HOU L 24 8 3 8 37.5 0 0 - 2 2 100.0 1 3 4 1 0 0 1 5 -
p26
aVCharles Barkley PHX 05/16/1995 PHX vs. HOU L 42 17 8 22 36.4 0 3 0.0 1 6 16.7 8 12 20 2 0 1 6 4 -
p27
aVJoe Kleine PHX 05/16/1995 PHX vs. HOU L 21 6 3 9 33.3 0 0 - 0 0 - 0 4 4 2 0 1 0 3 -
p28
aVWayman Tisdale PHX 05/16/1995 PHX vs. HOU L 6 0 0 2 0.0 0 1 0.0 0 0 - 0 0 0 0 0 0 0 0 -
p29
aVDan Majerle PHX 05/16/1995 PHX vs. HOU L 37 10 3 8 37.5 2 4 50.0 2 3 66.7 3 2 5 2 5 1 0 4 -
p30
aVA.C. Green PHX 05/16/1995 PHX vs. HOU L 46 11 2 9 22.2 0 2 0.0 7 12 58.3 7 13 20 5 0 0 2 2 -
p31
aVA.C. Green PHX 05/14/1995 PHX @ HOU W 39 14 5 10 50.0 0 1 0.0 4 4 100.0 4 8 12 1 2 0 1 0 -
p32
aVWayman Tisdale PHX 05/14/1995 PHX @ HOU W 12 2 1 5 20.0 0 0 - 0 0 - 1 1 2 0 0 0 1 4 -
p33
aVJoe Kleine PHX 05/14/1995 PHX @ HOU W 20 2 1 4 25.0 0 1 0.0 0 0 - 1 1 2 1 0 0 2 5 -
p34
aVCharles Barkley PHX 05/14/1995 PHX @ HOU W 48 26 9 20 45.0 0 3 0.0 8 13 61.5 1 8 9 4 2 1 1 3 -
p35
aVDanny Ainge PHX 05/14/1995 PHX @ HOU W 6 4 1 1 100.0 0 0 - 2 2 100.0 0 0 0 1 0 0 0 0 -
p36
aVDan Majerle PHX 05/14/1995 PHX @ HOU W 33 0 0 6 0.0 0 4 0.0 0 0 - 1 2 3 2 0 0 0 3 -
p37
aVKevin Johnson PHX 05/14/1995 PHX @ HOU W 48 43 18 24 75.0 2 2 100.0 5 7 71.4 0 6 6 9 3 0 1 3 -
p38
aVWesley Person PHX 05/14/1995 PHX @ HOU W 23 16 5 10 50.0 3 6 50.0 3 4 75.0 2 1 3 1 0 0 0 1 -
p39
aVDan Schayes PHX 05/14/1995 PHX @ HOU W 11 7 2 5 40.0 0 0 - 3 4 75.0 1 3 4 1 1 0 0 4 -
p40
aVCharles Barkley PHX 05/13/1995 PHX @ HOU L 26 5 0 10 0.0 0 1 0.0 5 6 83.3 3 4 7 4 1 0 1 2 -
p41
aVWayman Tisdale PHX 05/13/1995 PHX @ HOU L 19 10 4 9 44.4 0 0 - 2 2 100.0 1 3 4 1 0 0 0 2 -
p42
aVKevin Johnson PHX 05/13/1995 PHX @ HOU L 26 14 4 8 50.0 0 0 - 6 6 100.0 0 1 1 4 0 0 3 1 -
p43
aVA.C. Green PHX 05/13/1995 PHX @ HOU L 31 12 3 8 37.5 0 1 0.0 6 6 100.0 2 7 9 0 2 0 1 2 -
p44
aVDan Majerle PHX 05/13/1995 PHX @ HOU L 20 3 1 4 25.0 0 2 0.0 1 2 50.0 0 1 1 1 0 0 1 1 -
p45
aVJoe Kleine PHX 05/13/1995 PHX @ HOU L 24 8 4 8 50.0 0 0 - 0 0 - 2 4 6 0 2 0 1 4 -
p46
aVDanny Ainge PHX 05/13/1995 PHX @ HOU L 27 12 5 8 62.5 2 5 40.0 0 0 - 1 0 1 4 0 0 1 2 -
p47
aVTrevor Ruffin PHX 05/13/1995 PHX @ HOU L 4 4 2 4 50.0 0 1 0.0 0 1 0.0 0 1 1 1 1 0 0 0 -
p48
aVDan Schayes PHX 05/13/1995 PHX @ HOU L 17 4 1 2 50.0 0 0 - 2 2 100.0 0 0 0 0 0 0 2 3 -
p49
aVElliot Perry PHX 05/13/1995 PHX @ HOU L 22 10 5 9 55.6 0 0 - 0 0 - 2 3 5 2 1 0 3 1 -
p50
aVWesley Person PHX 05/13/1995 PHX @ HOU L 24 3 1 6 16.7 1 4 25.0 0 0 - 0 0 0 2 1 0 3 2 -
p51
aVElliot Perry PHX 05/11/1995 PHX vs. HOU W 11 8 3 5 60.0 0 0 - 2 2 100.0 1 0 1 1 0 0 0 2 -
p52
aVJoe Kleine PHX 05/11/1995 PHX vs. HOU W 18 9 4 6 66.7 1 1 100.0 0 0 - 2 1 3 0 1 0 0 4 -
p53
aVDan Schayes PHX 05/11/1995 PHX vs. HOU W 15 2 1 1 100.0 0 0 - 0 0 - 0 1 1 2 0 0 0 5 -
p54
aVDanny Ainge PHX 05/11/1995 PHX vs. HOU W 12 6 2 5 40.0 2 4 50.0 0 0 - 0 1 1 1 0 0 0 0 -
p55
aVKevin Johnson PHX 05/11/1995 PHX vs. HOU W 34 29 12 18 66.7 2 2 100.0 3 3 100.0 0 4 4 12 1 0 7 2 -
p56
aVCharles Barkley PHX 05/11/1995 PHX vs. HOU W 33 30 10 17 58.8 1 3 33.3 9 10 90.0 1 8 9 2 0 1 2 4 -
p57
aVWesley Person PHX 05/11/1995 PHX vs. HOU W 24 12 4 10 40.0 3 7 42.9 1 1 100.0 0 5 5 1 0 0 0 2 -
p58
aVDan Majerle PHX 05/11/1995 PHX vs. HOU W 29 10 4 9 44.4 2 5 40.0 0 0 - 2 3 5 2 3 1 1 1 -
p59
aVA.C. Green PHX 05/11/1995 PHX vs. HOU W 38 4 1 6 16.7 0 2 0.0 2 2 100.0 5 9 14 2 0 1 1 2 -
p60
aVWayman Tisdale PHX 05/11/1995 PHX vs. HOU W 26 8 4 9 44.4 0 0 - 0 0 - 0 2 2 6 0 1 2 2 -
p61
aVWayman Tisdale PHX 05/09/1995 PHX vs. HOU W 21 12 6 10 60.0 0 0 - 0 2 0.0 1 3 4 1 0 0 0 3 -
p62
aVA.C. Green PHX 05/09/1995 PHX vs. HOU W 39 25 8 12 66.7 0 1 0.0 9 9 100.0 4 11 15 2 0 0 3 1 -
p63
aVTrevor Ruffin PHX 05/09/1995 PHX vs. HOU W 4 3 1 2 50.0 0 1 0.0 1 2 50.0 0 1 1 0 0 0 0 0 -
p64
aVKevin Johnson PHX 05/09/1995 PHX vs. HOU W 32 21 8 12 66.7 0 0 - 5 6 83.3 0 5 5 13 1 1 7 3 -
p65
aVCharles Barkley PHX 05/09/1995 PHX vs. HOU W 30 26 10 14 71.4 2 5 40.0 4 6 66.7 4 7 11 2 1 2 0 1 -
p66
aVJoe Kleine PHX 05/09/1995 PHX vs. HOU W 24 12 6 7 85.7 0 0 - 0 0 - 1 2 3 3 0 0 0 3 -
p67
aVDan Majerle PHX 05/09/1995 PHX vs. HOU W 26 5 2 5 40.0 0 1 0.0 1 2 50.0 0 3 3 2 2 1 0 4 -
p68
aVWesley Person PHX 05/09/1995 PHX vs. HOU W 23 6 1 6 16.7 0 2 0.0 4 4 100.0 1 1 2 0 0 1 0 0 -
p69
aVDan Schayes PHX 05/09/1995 PHX vs. HOU W 9 0 0 1 0.0 0 0 - 0 0 - 1 2 3 0 0 1 1 3 -
p70
aVDanny Ainge PHX 05/09/1995 PHX vs. HOU W 17 11 4 5 80.0 3 3 100.0 0 0 - 0 1 1 1 1 0 0 1 -
p71
aVElliot Perry PHX 05/09/1995 PHX vs. HOU W 15 9 3 7 42.9 0 0 - 3 4 75.0 0 0 0 3 2 0 1 1 -
p72
aVKevin Johnson PHX 05/02/1995 PHX @ POR W 27 13 3 7 42.9 0 0 - 7 9 77.8 0 0 0 11 0 0 1 3 -
p73
aVJoe Kleine PHX 05/02/1995 PHX @ POR W 12 10 5 5 100.0 0 0 - 0 0 - 0 2 2 0 1 0 1 4 -
p74
aVElliot Perry PHX 05/02/1995 PHX @ POR W 20 10 2 4 50.0 1 3 33.3 5 8 62.5 0 1 1 0 0 0 0 1 -
p75
aVCharles Barkley PHX 05/02/1995 PHX @ POR W 46 47 16 26 61.5 4 8 50.0 11 13 84.6 1 11 12 2 2 2 4 5 -
p76
aVA.C. Green PHX 05/02/1995 PHX @ POR W 38 12 3 5 60.0 1 2 50.0 5 6 83.3 3 7 10 0 0 0 0 4 -
p77
aVDan Schayes PHX 05/02/1995 PHX @ POR W 9 0 0 2 0.0 0 0 - 0 0 - 0 1 1 0 1 0 1 5 -
p78
aVWesley Person PHX 05/02/1995 PHX @ POR W 19 9 3 4 75.0 1 2 50.0 2 2 100.0 0 1 1 1 1 0 1 2 -
p79
aVDanny Ainge PHX 05/02/1995 PHX @ POR W 18 3 0 1 0.0 0 1 0.0 3 4 75.0 0 2 2 0 0 0 0 4 -
p80
aVWayman Tisdale PHX 05/02/1995 PHX @ POR W 14 3 1 5 20.0 0 0 - 1 2 50.0 0 1 1 0 0 0 2 6 -
p81
aVRichard Dumas PHX 05/02/1995 PHX @ POR W 1 2 1 2 50.0 0 0 - 0 0 - 0 0 0 0 0 0 0 0 -
p82
aVDan Majerle PHX 05/02/1995 PHX @ POR W 35 8 2 7 28.6 2 5 40.0 2 4 50.0 1 3 4 1 0 0 1 2 -
p83
aVTrevor Ruffin PHX 05/02/1995 PHX @ POR W 1 0 0 0 - 0 0 - 0 0 - 0 0 0 1 0 0 0 0 -
p84
aVWayman Tisdale PHX 04/30/1995 PHX vs. POR W 24 7 2 9 22.2 0 0 - 3 4 75.0 1 2 3 1 0 0 0 5 -
p85
aVRichard Dumas PHX 04/30/1995 PHX vs. POR W 1 0 0 1 0.0 0 0 - 0 0 - 0 0 0 0 0 0 0 0 -
p86
aVKevin Johnson PHX 04/30/1995 PHX vs. POR W 38 28 9 14 64.3 0 0 - 10 10 100.0 2 5 7 6 1 0 3 2 -
p87
aVDanny Ainge PHX 04/30/1995 PHX vs. POR W 12 3 1 4 25.0 1 3 33.3 0 0 - 0 2 2 0 1 0 2 3 -
p88
aVWesley Person PHX 04/30/1995 PHX vs. POR W 19 10 4 8 50.0 2 5 40.0 0 0 - 1 1 2 0 0 0 1 2 -
p89
aVA.C. Green PHX 04/30/1995 PHX vs. POR W 40 20 6 8 75.0 0 0 - 8 8 100.0 6 9 15 0 0 0 1 2 -
p90
aVCharles Barkley PHX 04/30/1995 PHX vs. POR W 40 25 7 17 41.2 0 3 0.0 11 14 78.6 6 7 13 4 2 2 2 2 -
p91
aVJoe Kleine PHX 04/30/1995 PHX vs. POR W 6 2 1 2 50.0 0 0 - 0 0 - 0 1 1 1 0 1 0 2 -
p92
aVDan Majerle PHX 04/30/1995 PHX vs. POR W 38 6 2 5 40.0 2 4 50.0 0 0 - 0 2 2 1 1 0 1 2 -
p93
aVDan Schayes PHX 04/30/1995 PHX vs. POR W 16 2 1 2 50.0 0 0 - 0 0 - 0 1 1 2 0 1 1 2 -
p94
aVTrevor Ruffin PHX 04/30/1995 PHX vs. POR W 1 0 0 0 - 0 0 - 0 2 0.0 0 0 0 0 0 0 0 0 -
p95
aVElliot Perry PHX 04/30/1995 PHX vs. POR W 5 0 0 2 0.0 0 0 - 0 0 - 0 1 1 0 0 0 3 1 -
p96
aVWesley Person PHX 04/28/1995 PHX vs. POR W 21 7 3 9 33.3 0 1 0.0 1 1 100.0 1 1 2 1 1 1 1 0 -
p97
aVCharles Barkley PHX 04/28/1995 PHX vs. POR W 38 29 12 18 66.7 0 2 0.0 5 7 71.4 6 10 16 4 1 1 1 4 -
p98
aVDanny Ainge PHX 04/28/1995 PHX vs. POR W 9 2 1 3 33.3 0 2 0.0 0 0 - 0 0 0 0 1 0 1 2 -
p99
aVKevin Johnson PHX 04/28/1995 PHX vs. POR W 40 12 5 9 55.6 0 0 - 2 2 100.0 0 3 3 10 2 0 4 3 -
p100
aVDan Schayes PHX 04/28/1995 PHX vs. POR W 13 4 2 3 66.7 0 0 - 0 0 - 0 1 1 2 0 0 0 4 -
p101
aVJoe Kleine PHX 04/28/1995 PHX vs. POR W 6 0 0 1 0.0 0 0 - 0 0 - 0 1 1 0 0 0 0 1 -
p102
aVElliot Perry PHX 04/28/1995 PHX vs. POR W 12 14 2 5 40.0 1 1 100.0 9 9 100.0 0 1 1 2 1 0 0 1 -
p103
aVTrevor Ruffin PHX 04/28/1995 PHX vs. POR W 1 3 1 2 50.0 1 2 50.0 0 0 - 0 1 1 0 0 0 0 0 -
p104
aVA.C. Green PHX 04/28/1995 PHX vs. POR W 40 12 3 9 33.3 0 2 0.0 6 6 100.0 1 10 11 2 2 0 1 2 -
p105
aVDan Majerle PHX 04/28/1995 PHX vs. POR W 31 25 8 11 72.7 7 10 70.0 2 2 100.0 0 2 2 4 0 0 2 1 -
p106
aVWayman Tisdale PHX 04/28/1995 PHX vs. POR W 26 21 10 14 71.4 0 0 - 1 1 100.0 1 5 6 1 0 0 0 5 -
p107
aVRichard Dumas PHX 04/28/1995 PHX vs. POR W 3 0 0 1 0.0 0 0 - 0 0 - 1 0 1 0 0 0 1 0 -
p108
a.