(lp0
VPLAYER TEAM DATE MATCHUP W/L MIN PTS FGM FGA FG% 3PM 3PA 3P% FTM FTA FT% OREB DREB REB AST STL BLK TOV PF +/-
p1
aVGrant Long ATL 05/15/1996 ATL @ ORL L 42 24 10 16 62.5 2 5 40.0 2 2 100.0 4 9 13 2 0 0 3 3 -
p2
aVSean Rooks ATL 05/15/1996 ATL @ ORL L 15 2 0 0 - 0 0 - 2 2 100.0 2 3 5 1 1 0 1 5 -
p3
aVStacey Augmon ATL 05/15/1996 ATL @ ORL L 38 17 6 8 75.0 0 0 - 5 5 100.0 0 3 3 4 0 1 0 2 -
p4
aVReggie Jordan ATL 05/15/1996 ATL @ ORL L 5 2 1 2 50.0 0 0 - 0 0 - 0 0 0 1 0 0 0 1 -
p5
aVSteven Smith ATL 05/15/1996 ATL @ ORL L 44 16 6 19 31.6 1 9 11.1 3 3 100.0 0 2 2 1 1 0 2 3 -
p6
aVMookie Blaylock ATL 05/15/1996 ATL @ ORL L 43 14 5 15 33.3 3 9 33.3 1 4 25.0 2 2 4 7 1 1 3 0 -
p7
aVChristian Laettner ATL 05/15/1996 ATL @ ORL L 33 11 5 11 45.5 0 0 - 1 4 25.0 3 5 8 3 1 2 1 4 -
p8
aVAlan Henderson ATL 05/15/1996 ATL @ ORL L 6 2 0 1 0.0 0 0 - 2 2 100.0 2 0 2 1 0 0 1 0 -
p9
aVCraig Ehlo ATL 05/15/1996 ATL @ ORL L 14 0 0 2 0.0 0 2 0.0 0 0 - 0 1 1 2 1 0 0 1 -
p10
aVAlan Henderson ATL 05/13/1996 ATL vs. ORL W 5 0 0 2 0.0 0 0 - 0 0 - 0 2 2 0 0 0 0 1 -
p11
aVGrant Long ATL 05/13/1996 ATL vs. ORL W 42 11 5 9 55.6 0 1 0.0 1 2 50.0 1 6 7 5 0 0 2 3 -
p12
aVCraig Ehlo ATL 05/13/1996 ATL vs. ORL W 24 7 3 4 75.0 1 1 100.0 0 0 - 1 3 4 1 1 1 1 3 -
p13
aVChristian Laettner ATL 05/13/1996 ATL vs. ORL W 30 17 6 11 54.5 0 0 - 5 7 71.4 1 5 6 2 1 0 1 5 -
p14
aVMookie Blaylock ATL 05/13/1996 ATL vs. ORL W 39 14 5 9 55.6 4 7 57.1 0 1 0.0 1 4 5 11 0 0 2 4 -
p15
aVSteven Smith ATL 05/13/1996 ATL vs. ORL W 45 35 12 31 38.7 7 14 50.0 4 6 66.7 4 2 6 2 2 2 0 2 -
p16
aVStacey Augmon ATL 05/13/1996 ATL vs. ORL W 28 13 4 8 50.0 0 0 - 5 6 83.3 1 4 5 4 1 0 4 0 -
p17
aVReggie Jordan ATL 05/13/1996 ATL vs. ORL W 9 2 1 1 100.0 0 0 - 0 1 0.0 0 0 0 0 0 0 0 1 -
p18
aVSean Rooks ATL 05/13/1996 ATL vs. ORL W 18 5 2 4 50.0 0 0 - 1 2 50.0 0 0 0 0 0 1 2 5 -
p19
aVSteven Smith ATL 05/12/1996 ATL vs. ORL L 44 16 5 11 45.5 1 4 25.0 5 6 83.3 1 2 3 5 0 0 3 3 -
p20
aVAlan Henderson ATL 05/12/1996 ATL vs. ORL L 6 2 1 1 100.0 0 0 - 0 0 - 1 0 1 0 0 1 0 0 -
p21
aVMatt Bullard ATL 05/12/1996 ATL vs. ORL L 5 0 0 0 - 0 0 - 0 0 - 0 0 0 0 0 0 0 1 -
p22
aVChristian Laettner ATL 05/12/1996 ATL vs. ORL L 35 26 11 20 55.0 0 0 - 4 7 57.1 1 3 4 3 0 0 1 4 -
p23
aVSean Rooks ATL 05/12/1996 ATL vs. ORL L 13 6 3 4 75.0 0 0 - 0 0 - 1 2 3 0 0 0 1 5 -
p24
aVGrant Long ATL 05/12/1996 ATL vs. ORL L 42 13 2 7 28.6 0 3 0.0 9 10 90.0 2 11 13 6 1 0 1 0 -
p25
aVMookie Blaylock ATL 05/12/1996 ATL vs. ORL L 44 20 8 17 47.1 4 9 44.4 0 0 - 0 3 3 8 3 2 0 0 -
p26
aVStacey Augmon ATL 05/12/1996 ATL vs. ORL L 30 12 4 7 57.1 0 0 - 4 5 80.0 0 2 2 1 0 0 1 4 -
p27
aVReggie Jordan ATL 05/12/1996 ATL vs. ORL L 4 0 0 0 - 0 0 - 0 0 - 0 1 1 1 1 0 1 0 -
p28
aVCraig Ehlo ATL 05/12/1996 ATL vs. ORL L 17 1 0 3 0.0 0 1 0.0 1 2 50.0 0 1 1 0 0 0 1 3 -
p29
aVGrant Long ATL 05/10/1996 ATL @ ORL L 21 5 2 9 22.2 1 3 33.3 0 0 - 2 2 4 3 2 1 0 0 -
p30
aVStacey Augmon ATL 05/10/1996 ATL @ ORL L 27 2 1 4 25.0 0 0 - 0 0 - 1 2 3 3 0 0 2 2 -
p31
aVChristian Laettner ATL 05/10/1996 ATL @ ORL L 32 20 8 12 66.7 1 3 33.3 3 3 100.0 1 5 6 0 2 1 2 6 -
p32
aVDonnie Boyce ATL 05/10/1996 ATL @ ORL L 2 0 0 2 0.0 0 2 0.0 0 0 - 0 0 0 0 0 0 0 0 -
p33
aVSean Rooks ATL 05/10/1996 ATL @ ORL L 16 8 2 4 50.0 0 0 - 4 4 100.0 1 3 4 1 2 0 0 5 -
p34
aVMookie Blaylock ATL 05/10/1996 ATL @ ORL L 42 25 8 14 57.1 6 10 60.0 3 4 75.0 1 2 3 3 0 1 5 1 -
p35
aVAlan Henderson ATL 05/10/1996 ATL @ ORL L 27 8 2 7 28.6 0 0 - 4 5 80.0 1 2 3 0 0 0 2 2 -
p36
aVMatt Bullard ATL 05/10/1996 ATL @ ORL L 8 3 1 4 25.0 1 3 33.3 0 0 - 0 2 2 0 0 0 0 1 -
p37
aVReggie Jordan ATL 05/10/1996 ATL @ ORL L 6 3 1 2 50.0 0 0 - 1 2 50.0 1 0 1 0 1 0 0 1 -
p38
aVCraig Ehlo ATL 05/10/1996 ATL @ ORL L 22 2 0 3 0.0 0 2 0.0 2 2 100.0 0 1 1 3 1 0 3 1 -
p39
aVSteven Smith ATL 05/10/1996 ATL @ ORL L 37 18 6 14 42.9 1 4 25.0 5 6 83.3 2 2 4 5 1 1 2 3 -
p40
aVGrant Long ATL 05/08/1996 ATL @ ORL L 27 11 5 11 45.5 1 1 100.0 0 0 - 3 4 7 0 1 0 2 5 -
p41
aVAlan Henderson ATL 05/08/1996 ATL @ ORL L 25 17 8 10 80.0 0 0 - 1 2 50.0 5 3 8 1 0 1 4 3 -
p42
aVSean Rooks ATL 05/08/1996 ATL @ ORL L 17 6 2 3 66.7 0 0 - 2 4 50.0 0 3 3 1 0 0 0 5 -
p43
aVMatt Bullard ATL 05/08/1996 ATL @ ORL L 13 3 1 3 33.3 1 2 50.0 0 0 - 0 1 1 0 0 0 1 0 -
p44
aVReggie Jordan ATL 05/08/1996 ATL @ ORL L 9 2 1 2 50.0 0 0 - 0 0 - 0 1 1 2 1 0 1 0 -
p45
aVSteven Smith ATL 05/08/1996 ATL @ ORL L 44 18 5 16 31.3 0 5 0.0 8 10 80.0 1 1 2 9 2 0 0 3 -
p46
aVStacey Augmon ATL 05/08/1996 ATL @ ORL L 39 23 7 14 50.0 0 1 0.0 9 11 81.8 2 5 7 4 3 1 2 3 -
p47
aVChristian Laettner ATL 05/08/1996 ATL @ ORL L 27 7 3 5 60.0 0 0 - 1 2 50.0 1 2 3 1 3 0 2 3 -
p48
aVMookie Blaylock ATL 05/08/1996 ATL @ ORL L 39 18 6 14 42.9 2 6 33.3 4 4 100.0 2 2 4 5 1 1 1 1 -
p49
aVStacey Augmon ATL 05/05/1996 ATL @ IND W 31 8 4 8 50.0 0 0 - 0 0 - 3 0 3 1 2 2 3 3 -
p50
aVAlan Henderson ATL 05/05/1996 ATL @ IND W 17 4 2 2 100.0 0 0 - 0 1 0.0 0 2 2 2 0 0 0 3 -
p51
aVSean Rooks ATL 05/05/1996 ATL @ IND W 18 10 4 8 50.0 0 0 - 2 2 100.0 2 1 3 2 1 0 0 2 -
p52
aVSteven Smith ATL 05/05/1996 ATL @ IND W 35 17 6 11 54.5 2 2 100.0 3 4 75.0 3 2 5 3 3 1 2 5 -
p53
aVChristian Laettner ATL 05/05/1996 ATL @ IND W 30 15 5 13 38.5 0 0 - 5 5 100.0 5 6 11 1 1 1 2 4 -
p54
aVCraig Ehlo ATL 05/05/1996 ATL @ IND W 5 0 0 1 0.0 0 1 0.0 0 0 - 0 1 1 0 0 1 0 0 -
p55
aVReggie Jordan ATL 05/05/1996 ATL @ IND W 4 0 0 0 - 0 0 - 0 0 - 0 0 0 3 0 0 0 1 -
p56
aVMookie Blaylock ATL 05/05/1996 ATL @ IND W 44 23 8 21 38.1 5 12 41.7 2 2 100.0 3 4 7 2 2 0 5 2 -
p57
aVMatt Bullard ATL 05/05/1996 ATL @ IND W 25 8 2 5 40.0 2 3 66.7 2 4 50.0 0 3 3 0 0 2 1 4 -
p58
aVGrant Long ATL 05/05/1996 ATL @ IND W 31 4 2 10 20.0 0 2 0.0 0 0 - 1 4 5 3 0 1 3 1 -
p59
aVSteven Smith ATL 05/02/1996 ATL vs. IND L 45 19 6 18 33.3 1 4 25.0 6 7 85.7 0 5 5 2 1 3 2 2 -
p60
aVSean Rooks ATL 05/02/1996 ATL vs. IND L 13 2 1 3 33.3 0 0 - 0 3 0.0 3 0 3 0 0 1 2 4 -
p61
aVReggie Jordan ATL 05/02/1996 ATL vs. IND L 5 3 1 1 100.0 0 0 - 1 2 50.0 0 0 0 0 2 0 1 0 -
p62
aVMookie Blaylock ATL 05/02/1996 ATL vs. IND L 43 17 7 18 38.9 3 10 30.0 0 0 - 2 4 6 5 2 1 4 2 -
p63
aVCraig Ehlo ATL 05/02/1996 ATL vs. IND L 22 6 2 6 33.3 1 3 33.3 1 1 100.0 0 2 2 0 1 0 2 1 -
p64
aVStacey Augmon ATL 05/02/1996 ATL vs. IND L 29 8 2 7 28.6 0 0 - 4 4 100.0 1 3 4 1 1 0 1 3 -
p65
aVAlan Henderson ATL 05/02/1996 ATL vs. IND L 10 2 1 3 33.3 0 0 - 0 0 - 2 1 3 0 0 0 0 2 -
p66
aVGrant Long ATL 05/02/1996 ATL vs. IND L 40 9 4 12 33.3 1 3 33.3 0 2 0.0 6 6 12 2 1 1 2 3 -
p67
aVChristian Laettner ATL 05/02/1996 ATL vs. IND L 33 9 3 9 33.3 0 0 - 3 6 50.0 3 5 8 1 1 1 3 5 -
p68
aVAlan Henderson ATL 04/29/1996 ATL vs. IND W 7 4 2 4 50.0 0 0 - 0 0 - 2 0 2 1 0 2 2 2 -
p69
aVMookie Blaylock ATL 04/29/1996 ATL vs. IND W 43 16 6 15 40.0 2 7 28.6 2 3 66.7 0 3 3 7 8 1 2 0 -
p70
aVStacey Augmon ATL 04/29/1996 ATL vs. IND W 41 6 2 7 28.6 0 0 - 2 4 50.0 0 4 4 6 1 0 3 4 -
p71
aVCraig Ehlo ATL 04/29/1996 ATL vs. IND W 13 0 0 3 0.0 0 1 0.0 0 0 - 0 2 2 0 1 0 1 1 -
p72
aVGrant Long ATL 04/29/1996 ATL vs. IND W 41 13 6 15 40.0 0 2 0.0 1 2 50.0 4 2 6 0 0 0 1 2 -
p73
aVSean Rooks ATL 04/29/1996 ATL vs. IND W 9 1 0 0 - 0 0 - 1 2 50.0 1 1 2 0 0 1 0 2 -
p74
aVSteven Smith ATL 04/29/1996 ATL vs. IND W 43 26 10 15 66.7 5 8 62.5 1 2 50.0 1 3 4 1 1 2 0 3 -
p75
aVChristian Laettner ATL 04/29/1996 ATL vs. IND W 39 24 7 17 41.2 0 0 - 10 11 90.9 5 3 8 2 2 1 1 1 -
p76
aVReggie Jordan ATL 04/29/1996 ATL vs. IND W 4 0 0 0 - 0 0 - 0 0 - 0 1 1 1 0 1 0 0 -
p77
aVAlan Henderson ATL 04/27/1996 ATL @ IND L 20 8 4 5 80.0 0 0 - 0 0 - 2 0 2 0 1 0 0 5 -
p78
aVStacey Augmon ATL 04/27/1996 ATL @ IND L 29 10 3 5 60.0 0 0 - 4 5 80.0 0 3 3 0 1 2 0 2 -
p79
aVSteven Smith ATL 04/27/1996 ATL @ IND L 45 25 9 21 42.9 3 5 60.0 4 4 100.0 3 5 8 1 1 2 3 4 -
p80
aVMookie Blaylock ATL 04/27/1996 ATL @ IND L 44 12 4 11 36.4 2 6 33.3 2 2 100.0 1 5 6 7 2 1 4 3 -
p81
aVCraig Ehlo ATL 04/27/1996 ATL @ IND L 29 8 3 9 33.3 1 5 20.0 1 2 50.0 0 3 3 1 2 0 0 2 -
p82
aVGrant Long ATL 04/27/1996 ATL @ IND L 36 11 4 11 36.4 0 2 0.0 3 3 100.0 2 3 5 3 2 0 3 6 -
p83
aVChristian Laettner ATL 04/27/1996 ATL @ IND L 44 14 5 10 50.0 0 0 - 4 6 66.7 4 5 9 1 0 3 5 4 -
p84
aVSean Rooks ATL 04/27/1996 ATL @ IND L 9 3 1 1 100.0 0 0 - 1 2 50.0 2 0 2 2 0 1 1 2 -
p85
aVReggie Jordan ATL 04/27/1996 ATL @ IND L 9 3 1 3 33.3 0 0 - 1 2 50.0 0 1 1 1 0 0 0 0 -
p86
aVAlan Henderson ATL 04/25/1996 ATL @ IND W 22 6 3 5 60.0 0 0 - 0 0 - 2 0 2 2 0 0 0 2 -
p87
aVGrant Long ATL 04/25/1996 ATL @ IND W 40 13 4 11 36.4 1 2 50.0 4 4 100.0 5 9 14 4 0 0 2 4 -
p88
aVCraig Ehlo ATL 04/25/1996 ATL @ IND W 25 12 4 10 40.0 4 7 57.1 0 0 - 0 3 3 2 2 0 1 2 -
p89
aVReggie Jordan ATL 04/25/1996 ATL @ IND W 4 2 1 2 50.0 0 0 - 0 0 - 0 1 1 0 0 0 0 3 -
p90
aVStacey Augmon ATL 04/25/1996 ATL @ IND W 22 4 2 4 50.0 0 0 - 0 0 - 1 1 2 3 2 0 1 3 -
p91
aVSean Rooks ATL 04/25/1996 ATL @ IND W 12 2 1 1 100.0 0 0 - 0 0 - 1 1 2 0 0 0 2 0 -
p92
aVMookie Blaylock ATL 04/25/1996 ATL @ IND W 45 12 4 11 36.4 2 8 25.0 2 4 50.0 1 1 2 9 3 0 3 2 -
p93
aVChristian Laettner ATL 04/25/1996 ATL @ IND W 31 14 6 14 42.9 0 0 - 2 3 66.7 3 3 6 1 1 1 3 5 -
p94
aVSteven Smith ATL 04/25/1996 ATL @ IND W 39 27 10 15 66.7 4 6 66.7 3 4 75.0 0 2 2 3 1 2 2 3 -
p95
a.