(lp0
VPLAYER TEAM DATE MATCHUP W/L MIN PTS FGM FGA FG% 3PM 3PA 3P% FTM FTA FT% OREB DREB REB AST STL BLK TOV PF +/-
p1
aVSteve Scheffler SEA 06/16/1996 SEA @ CHI L 1 0 0 0 - 0 0 - 0 0 - 0 0 0 0 0 0 0 0 -
p2
aVEric Snow SEA 06/16/1996 SEA @ CHI L 1 0 0 0 - 0 0 - 0 0 - 0 0 0 1 0 0 0 0 -
p3
aVShawn Kemp SEA 06/16/1996 SEA @ CHI L 40 18 8 17 47.1 0 0 - 2 2 100.0 6 8 14 3 3 2 4 6 -
p4
aVDetlef Schrempf SEA 06/16/1996 SEA @ CHI L 40 23 9 17 52.9 2 5 40.0 3 4 75.0 1 4 5 2 1 0 5 3 -
p5
aVSam Perkins SEA 06/16/1996 SEA @ CHI L 32 7 3 14 21.4 0 7 0.0 1 2 50.0 3 3 6 5 1 0 1 0 -
p6
aVGary Payton SEA 06/16/1996 SEA @ CHI L 47 19 7 10 70.0 3 5 60.0 2 2 100.0 0 4 4 7 2 0 5 3 -
p7
aVNate McMillan SEA 06/16/1996 SEA @ CHI L 10 0 0 3 0.0 0 1 0.0 0 0 - 0 1 1 0 1 0 1 0 -
p8
aVHersey Hawkins SEA 06/16/1996 SEA @ CHI L 41 4 2 6 33.3 0 4 0.0 0 0 - 1 3 4 0 2 0 3 4 -
p9
aVVincent Askew SEA 06/16/1996 SEA @ CHI L 5 0 0 1 0.0 0 0 - 0 0 - 0 0 0 0 0 0 0 0 -
p10
aVDavid Wingate SEA 06/16/1996 SEA @ CHI L 9 4 2 2 100.0 0 0 - 0 0 - 1 0 1 0 0 0 1 3 -
p11
aVFrank Brickowski SEA 06/16/1996 SEA @ CHI L 14 0 0 3 0.0 0 2 0.0 0 0 - 0 0 0 1 0 1 0 1 -
p12
aVHersey Hawkins SEA 06/14/1996 SEA vs. CHI W 38 21 7 14 50.0 2 4 50.0 5 5 100.0 3 2 5 1 1 1 2 3 -
p13
aVDetlef Schrempf SEA 06/14/1996 SEA vs. CHI W 39 13 5 12 41.7 1 1 100.0 2 2 100.0 1 4 5 1 0 1 2 2 -
p14
aVSam Perkins SEA 06/14/1996 SEA vs. CHI W 28 7 1 6 16.7 0 0 - 5 6 83.3 0 4 4 2 1 0 0 3 -
p15
aVSteve Scheffler SEA 06/14/1996 SEA vs. CHI W 1 0 0 0 - 0 0 - 0 0 - 0 0 0 0 0 0 0 0 -
p16
aVNate McMillan SEA 06/14/1996 SEA vs. CHI W 21 3 1 1 100.0 1 1 100.0 0 0 - 0 6 6 2 1 0 1 4 -
p17
aVDavid Wingate SEA 06/14/1996 SEA vs. CHI W 3 0 0 1 0.0 0 1 0.0 0 0 - 0 0 0 0 0 0 0 1 -
p18
aVGary Payton SEA 06/14/1996 SEA vs. CHI W 46 23 7 18 38.9 2 6 33.3 7 8 87.5 2 7 9 6 1 0 1 3 -
p19
aVShawn Kemp SEA 06/14/1996 SEA vs. CHI W 46 22 8 16 50.0 0 0 - 6 8 75.0 3 7 10 3 0 0 4 4 -
p20
aVFrank Brickowski SEA 06/14/1996 SEA vs. CHI W 17 0 0 1 0.0 0 1 0.0 0 0 - 0 2 2 2 0 0 0 3 -
p21
aVEric Snow SEA 06/14/1996 SEA vs. CHI W 1 0 0 0 - 0 0 - 0 0 - 0 0 0 0 0 0 0 0 -
p22
aVHersey Hawkins SEA 06/12/1996 SEA vs. CHI W 37 18 6 9 66.7 2 3 66.7 4 4 100.0 3 3 6 2 1 0 1 3 -
p23
aVEric Snow SEA 06/12/1996 SEA vs. CHI W 1 0 0 0 - 0 0 - 0 0 - 0 0 0 0 0 0 1 0 -
p24
aVFrank Brickowski SEA 06/12/1996 SEA vs. CHI W 16 0 0 0 - 0 0 - 0 0 - 0 2 2 0 1 0 2 5 -
p25
aVSteve Scheffler SEA 06/12/1996 SEA vs. CHI W 3 0 0 1 0.0 0 0 - 0 0 - 1 1 2 0 0 0 0 0 -
p26
aVDetlef Schrempf SEA 06/12/1996 SEA vs. CHI W 42 14 6 13 46.2 1 2 50.0 1 2 50.0 2 3 5 3 1 0 2 1 -
p27
aVSam Perkins SEA 06/12/1996 SEA vs. CHI W 33 17 7 13 53.8 1 3 33.3 2 2 100.0 0 3 3 3 0 0 2 2 -
p28
aVDavid Wingate SEA 06/12/1996 SEA vs. CHI W 17 4 1 2 50.0 0 0 - 2 2 100.0 0 0 0 0 0 0 1 3 -
p29
aVShawn Kemp SEA 06/12/1996 SEA vs. CHI W 33 25 12 17 70.6 0 0 - 1 1 100.0 3 8 11 3 2 1 1 4 -
p30
aVNate McMillan SEA 06/12/1996 SEA vs. CHI W 14 8 2 3 66.7 2 3 66.7 2 2 100.0 0 3 3 3 0 0 1 2 -
p31
aVGary Payton SEA 06/12/1996 SEA vs. CHI W 44 21 7 15 46.7 3 6 50.0 4 6 66.7 0 3 3 11 2 0 2 4 -
p32
aVSam Perkins SEA 06/09/1996 SEA vs. CHI L 27 9 2 4 50.0 0 1 0.0 5 6 83.3 1 5 6 0 0 0 1 2 -
p33
aVDetlef Schrempf SEA 06/09/1996 SEA vs. CHI L 41 20 7 15 46.7 1 5 20.0 5 6 83.3 1 4 5 3 0 0 3 3 -
p34
aVSteve Scheffler SEA 06/09/1996 SEA vs. CHI L 3 0 0 0 - 0 0 - 0 0 - 0 0 0 0 0 0 0 0 -
p35
aVErvin Johnson SEA 06/09/1996 SEA vs. CHI L 3 0 0 0 - 0 0 - 0 0 - 0 0 0 0 0 0 0 0 -
p36
aVHersey Hawkins SEA 06/09/1996 SEA vs. CHI L 40 12 2 6 33.3 1 3 33.3 7 7 100.0 0 1 1 2 1 0 2 4 -
p37
aVShawn Kemp SEA 06/09/1996 SEA vs. CHI L 42 14 4 7 57.1 0 0 - 6 6 100.0 1 3 4 0 0 4 5 5 -
p38
aVFrank Brickowski SEA 06/09/1996 SEA vs. CHI L 14 5 2 4 50.0 1 2 50.0 0 0 - 2 5 7 0 0 0 2 5 -
p39
aVGary Payton SEA 06/09/1996 SEA vs. CHI L 45 19 7 15 46.7 0 3 0.0 5 6 83.3 2 5 7 9 2 0 3 2 -
p40
aVVincent Askew SEA 06/09/1996 SEA vs. CHI L 10 2 1 3 33.3 0 1 0.0 0 0 - 0 0 0 0 0 0 3 3 -
p41
aVEric Snow SEA 06/09/1996 SEA vs. CHI L 3 0 0 1 0.0 0 0 - 0 0 - 0 2 2 0 0 0 0 2 -
p42
aVDavid Wingate SEA 06/09/1996 SEA vs. CHI L 12 5 2 5 40.0 1 1 100.0 0 0 - 0 0 0 0 0 0 1 3 -
p43
aVErvin Johnson SEA 06/07/1996 SEA @ CHI L 8 2 1 4 25.0 0 0 - 0 0 - 6 1 7 1 0 0 0 5 -
p44
aVDetlef Schrempf SEA 06/07/1996 SEA @ CHI L 41 15 5 14 35.7 1 3 33.3 4 4 100.0 1 1 2 3 0 0 2 5 -
p45
aVSam Perkins SEA 06/07/1996 SEA @ CHI L 33 13 5 10 50.0 0 1 0.0 3 4 75.0 1 3 4 0 0 0 3 3 -
p46
aVDavid Wingate SEA 06/07/1996 SEA @ CHI L 5 0 0 0 - 0 0 - 0 0 - 0 1 1 0 0 0 0 1 -
p47
aVEric Snow SEA 06/07/1996 SEA @ CHI L 2 0 0 1 0.0 0 0 - 0 0 - 0 0 0 0 0 0 0 0 -
p48
aVGary Payton SEA 06/07/1996 SEA @ CHI L 45 13 6 15 40.0 1 4 25.0 0 0 - 0 5 5 3 1 0 1 5 -
p49
aVHersey Hawkins SEA 06/07/1996 SEA @ CHI L 39 16 6 11 54.5 1 5 20.0 3 5 60.0 0 2 2 0 2 0 3 5 -
p50
aVFrank Brickowski SEA 06/07/1996 SEA @ CHI L 5 0 0 1 0.0 0 0 - 0 0 - 0 1 1 0 0 0 0 0 -
p51
aVShawn Kemp SEA 06/07/1996 SEA @ CHI L 40 29 8 18 44.4 0 1 0.0 13 16 81.3 8 5 13 2 1 4 3 3 -
p52
aVVincent Askew SEA 06/07/1996 SEA @ CHI L 22 0 0 1 0.0 0 1 0.0 0 0 - 0 4 4 1 2 0 4 3 -
p53
aVFrank Brickowski SEA 06/05/1996 SEA @ CHI L 2 0 0 0 - 0 0 - 0 0 - 0 0 0 0 0 0 0 2 -
p54
aVNate McMillan SEA 06/05/1996 SEA @ CHI L 6 0 0 0 - 0 0 - 0 0 - 0 1 1 1 0 0 0 0 -
p55
aVErvin Johnson SEA 06/05/1996 SEA @ CHI L 9 2 1 2 50.0 0 0 - 0 0 - 0 0 0 0 1 1 0 1 -
p56
aVShawn Kemp SEA 06/05/1996 SEA @ CHI L 41 32 9 14 64.3 0 0 - 14 16 87.5 5 3 8 2 2 1 7 6 -
p57
aVDavid Wingate SEA 06/05/1996 SEA @ CHI L 2 2 0 0 - 0 0 - 2 2 100.0 0 0 0 0 0 0 0 2 -
p58
aVGary Payton SEA 06/05/1996 SEA @ CHI L 47 13 6 17 35.3 0 3 0.0 1 4 25.0 2 8 10 6 1 0 3 5 -
p59
aVVincent Askew SEA 06/05/1996 SEA @ CHI L 25 5 1 4 25.0 1 3 33.3 2 2 100.0 0 6 6 1 0 0 1 4 -
p60
aVSam Perkins SEA 06/05/1996 SEA @ CHI L 37 14 5 14 35.7 3 5 60.0 1 1 100.0 4 1 5 2 1 0 3 3 -
p61
aVHersey Hawkins SEA 06/05/1996 SEA @ CHI L 35 9 2 9 22.2 0 3 0.0 5 5 100.0 0 3 3 1 0 0 1 2 -
p62
aVDetlef Schrempf SEA 06/05/1996 SEA @ CHI L 35 13 3 8 37.5 1 2 50.0 6 6 100.0 3 5 8 3 1 0 2 4 -
p63
aVEric Snow SEA 06/05/1996 SEA @ CHI L 1 0 0 0 - 0 0 - 0 0 - 0 0 0 0 0 0 0 0 -
p64
aVFrank Brickowski SEA 06/02/1996 SEA vs. UTH W 5 0 0 0 - 0 0 - 0 0 - 0 2 2 0 0 0 1 3 -
p65
aVDetlef Schrempf SEA 06/02/1996 SEA vs. UTH W 38 15 6 9 66.7 2 4 50.0 1 2 50.0 0 4 4 2 0 0 3 4 -
p66
aVErvin Johnson SEA 06/02/1996 SEA vs. UTH W 11 0 0 3 0.0 0 0 - 0 0 - 1 0 1 1 1 0 2 1 -
p67
aVGary Payton SEA 06/02/1996 SEA vs. UTH W 45 21 9 17 52.9 1 4 25.0 2 6 33.3 2 4 6 5 1 1 5 3 -
p68
aVHersey Hawkins SEA 06/02/1996 SEA vs. UTH W 35 14 3 5 60.0 2 4 50.0 6 8 75.0 0 2 2 3 2 2 2 3 -
p69
aVSam Perkins SEA 06/02/1996 SEA vs. UTH W 34 10 4 8 50.0 2 5 40.0 0 0 - 1 3 4 1 0 0 0 3 -
p70
aVShawn Kemp SEA 06/02/1996 SEA vs. UTH W 42 26 8 12 66.7 0 0 - 10 11 90.9 1 13 14 1 1 0 3 3 -
p71
aVVincent Askew SEA 06/02/1996 SEA vs. UTH W 18 2 1 2 50.0 0 1 0.0 0 0 - 0 4 4 1 1 0 1 2 -
p72
aVNate McMillan SEA 06/02/1996 SEA vs. UTH W 12 2 1 3 33.3 0 2 0.0 0 0 - 0 0 0 2 1 0 1 2 -
p73
aVGary Payton SEA 05/30/1996 SEA @ UTH L 44 10 3 7 42.9 1 2 50.0 3 4 75.0 2 7 9 7 0 1 5 4 -
p74
aVDetlef Schrempf SEA 05/30/1996 SEA @ UTH L 36 16 5 9 55.6 0 1 0.0 6 7 85.7 0 3 3 2 1 0 2 1 -
p75
aVShawn Kemp SEA 05/30/1996 SEA @ UTH L 37 26 10 15 66.7 0 1 0.0 6 10 60.0 5 9 14 0 0 1 5 5 -
p76
aVNate McMillan SEA 05/30/1996 SEA @ UTH L 12 0 0 2 0.0 0 0 - 0 0 - 1 2 3 2 3 0 2 1 -
p77
aVEric Snow SEA 05/30/1996 SEA @ UTH L 4 0 0 2 0.0 0 0 - 0 0 - 0 0 0 2 1 0 0 0 -
p78
aVErvin Johnson SEA 05/30/1996 SEA @ UTH L 15 1 0 2 0.0 0 0 - 1 2 50.0 0 1 1 0 0 0 1 1 -
p79
aVSam Perkins SEA 05/30/1996 SEA @ UTH L 25 14 5 10 50.0 3 7 42.9 1 1 100.0 0 2 2 2 0 1 3 2 -
p80
aVHersey Hawkins SEA 05/30/1996 SEA @ UTH L 27 7 0 8 0.0 0 4 0.0 7 8 87.5 1 0 1 3 1 1 1 2 -
p81
aVSteve Scheffler SEA 05/30/1996 SEA @ UTH L 4 0 0 0 - 0 0 - 0 0 - 0 0 0 0 0 0 0 0 -
p82
aVFrank Brickowski SEA 05/30/1996 SEA @ UTH L 10 2 1 3 33.3 0 2 0.0 0 0 - 0 1 1 0 1 0 1 4 -
p83
aVDavid Wingate SEA 05/30/1996 SEA @ UTH L 6 2 1 2 50.0 0 0 - 0 0 - 0 0 0 0 0 0 1 1 -
p84
aVVincent Askew SEA 05/30/1996 SEA @ UTH L 20 5 2 6 33.3 1 1 100.0 0 0 - 1 0 1 1 1 0 2 4 -
p85
aVSam Perkins SEA 05/28/1996 SEA vs. UTH L 38 9 4 8 50.0 0 3 0.0 1 1 100.0 0 1 1 0 0 0 2 4 -
p86
aVShawn Kemp SEA 05/28/1996 SEA vs. UTH L 48 24 9 14 64.3 0 0 - 6 9 66.7 3 10 13 5 2 2 2 4 -
p87
aVNate McMillan SEA 05/28/1996 SEA vs. UTH L 16 4 1 7 14.3 0 3 0.0 2 2 100.0 4 2 6 2 0 0 0 2 -
p88
aVDetlef Schrempf SEA 05/28/1996 SEA vs. UTH L 45 7 3 11 27.3 0 2 0.0 1 1 100.0 1 7 8 4 0 0 5 5 -
p89
aVGary Payton SEA 05/28/1996 SEA vs. UTH L 46 31 11 17 64.7 4 6 66.7 5 8 62.5 1 4 5 6 2 0 5 5 -
p90
aVVincent Askew SEA 05/28/1996 SEA vs. UTH L 15 6 2 4 50.0 0 1 0.0 2 2 100.0 0 1 1 1 0 0 1 2 -
p91
aVHersey Hawkins SEA 05/28/1996 SEA vs. UTH L 38 12 5 10 50.0 1 3 33.3 1 1 100.0 1 2 3 5 2 0 2 1 -
p92
aVErvin Johnson SEA 05/28/1996 SEA vs. UTH L 13 2 1 2 50.0 0 0 - 0 0 - 0 4 4 0 0 0 2 3 -
p93
aVFrank Brickowski SEA 05/28/1996 SEA vs. UTH L 6 0 0 1 0.0 0 0 - 0 0 - 0 1 1 0 0 0 0 0 -
p94
aVHersey Hawkins SEA 05/26/1996 SEA @ UTH W 34 12 2 6 33.3 1 2 50.0 7 7 100.0 1 4 5 5 1 0 2 2 -
p95
aVSam Perkins SEA 05/26/1996 SEA @ UTH W 33 20 5 8 62.5 3 5 60.0 7 9 77.8 1 5 6 1 0 0 1 1 -
p96
aVGary Payton SEA 05/26/1996 SEA @ UTH W 46 19 7 17 41.2 1 3 33.3 4 5 80.0 0 4 4 6 0 0 3 3 -
p97
aVShawn Kemp SEA 05/26/1996 SEA @ UTH W 23 18 6 8 75.0 0 0 - 6 6 100.0 2 6 8 2 1 2 2 6 -
p98
aVNate McMillan SEA 05/26/1996 SEA @ UTH W 19 2 1 2 50.0 0 0 - 0 0 - 1 2 3 0 1 0 2 3 -
p99
aVFrank Brickowski SEA 05/26/1996 SEA @ UTH W 17 4 2 3 66.7 0 1 0.0 0 0 - 0 1 1 0 1 1 2 2 -
p100
aVDetlef Schrempf SEA 05/26/1996 SEA @ UTH W 38 11 3 6 50.0 0 2 0.0 5 7 71.4 0 5 5 2 2 0 6 4 -
p101
aVErvin Johnson SEA 05/26/1996 SEA @ UTH W 16 2 0 1 0.0 0 0 - 2 2 100.0 2 2 4 1 0 1 1 2 -
p102
aVVincent Askew SEA 05/26/1996 SEA @ UTH W 14 0 0 2 0.0 0 2 0.0 0 0 - 0 1 1 0 1 0 3 3 -
p103
aVFrank Brickowski SEA 05/24/1996 SEA @ UTH L 8 0 0 3 0.0 0 2 0.0 0 0 - 0 3 3 1 1 1 2 2 -
p104
aVVincent Askew SEA 05/24/1996 SEA @ UTH L 23 3 1 2 50.0 0 0 - 1 2 50.0 0 2 2 2 1 0 3 4 -
p105
aVGary Payton SEA 05/24/1996 SEA @ UTH L 43 25 11 21 52.4 3 8 37.5 0 0 - 1 5 6 3 1 0 2 3 -
p106
aVSam Perkins SEA 05/24/1996 SEA @ UTH L 33 5 2 8 25.0 1 6 16.7 0 1 0.0 0 5 5 2 1 1 3 1 -
p107
aVDavid Wingate SEA 05/24/1996 SEA @ UTH L 1 0 0 0 - 0 0 - 0 0 - 0 0 0 0 0 0 0 0 -
p108
aVDetlef Schrempf SEA 05/24/1996 SEA @ UTH L 33 17 7 17 41.2 2 4 50.0 1 2 50.0 0 2 2 2 0 0 4 3 -
p109
aVShawn Kemp SEA 05/24/1996 SEA @ UTH L 26 10 2 4 50.0 0 0 - 6 7 85.7 0 4 4 0 0 2 8 5 -
p110
aVNate McMillan SEA 05/24/1996 SEA @ UTH L 24 0 0 5 0.0 0 3 0.0 0 2 0.0 1 3 4 2 0 0 2 3 -
p111
aVErvin Johnson SEA 05/24/1996 SEA @ UTH L 14 6 2 3 66.7 0 0 - 2 2 100.0 3 2 5 2 0 0 0 4 -
p112
aVHersey Hawkins SEA 05/24/1996 SEA @ UTH L 35 10 2 5 40.0 0 2 0.0 6 6 100.0 2 4 6 2 1 0 2 3 -
p113
aVVincent Askew SEA 05/20/1996 SEA vs. UTH W 24 5 1 4 25.0 0 1 0.0 3 6 50.0 0 4 4 4 1 3 1 3 -
p114
aVNate McMillan SEA 05/20/1996 SEA vs. UTH W 30 9 4 7 57.1 0 2 0.0 1 2 50.0 1 4 5 4 1 0 1 2 -
p115
aVDetlef Schrempf SEA 05/20/1996 SEA vs. UTH W 38 17 5 12 41.7 1 2 50.0 6 7 85.7 0 4 4 0 0 0 4 1 -
p116
aVErvin Johnson SEA 05/20/1996 SEA vs. UTH W 14 6 2 2 100.0 0 0 - 2 2 100.0 1 2 3 0 0 1 0 3 -
p117
aVDavid Wingate SEA 05/20/1996 SEA vs. UTH W 1 0 0 0 - 0 0 - 0 0 - 0 0 0 0 0 0 0 1 -
p118
aVShawn Kemp SEA 05/20/1996 SEA vs. UTH W 26 15 4 7 57.1 0 0 - 7 8 87.5 0 4 4 1 1 1 2 5 -
p119
aVSam Perkins SEA 05/20/1996 SEA vs. UTH W 36 15 6 7 85.7 3 4 75.0 0 0 - 0 3 3 0 2 1 2 2 -
p120
aVHersey Hawkins SEA 05/20/1996 SEA vs. UTH W 30 6 1 3 33.3 0 0 - 4 4 100.0 0 3 3 0 0 0 1 4 -
p121
aVFrank Brickowski SEA 05/20/1996 SEA vs. UTH W 5 0 0 1 0.0 0 1 0.0 0 0 - 0 0 0 1 0 0 1 4 -
p122
aVGary Payton SEA 05/20/1996 SEA vs. UTH W 36 18 7 16 43.8 2 5 40.0 2 4 50.0 0 2 2 8 4 0 4 3 -
p123
aVVincent Askew SEA 05/18/1996 SEA vs. UTH W 15 2 1 2 50.0 0 0 - 0 0 - 0 2 2 3 0 1 3 1 -
p124
aVNate McMillan SEA 05/18/1996 SEA vs. UTH W 27 3 1 3 33.3 1 2 50.0 0 0 - 1 3 4 5 2 1 2 3 -
p125
aVSam Perkins SEA 05/18/1996 SEA vs. UTH W 23 13 4 10 40.0 3 5 60.0 2 2 100.0 2 2 4 3 1 1 1 2 -
p126
aVFrank Brickowski SEA 05/18/1996 SEA vs. UTH W 15 3 1 3 33.3 1 3 33.3 0 0 - 0 1 1 1 1 0 1 3 -
p127
aVDavid Wingate SEA 05/18/1996 SEA vs. UTH W 5 0 0 2 0.0 0 0 - 0 0 - 0 0 0 0 0 0 0 0 -
p128
aVSteve Scheffler SEA 05/18/1996 SEA vs. UTH W 5 0 0 2 0.0 0 0 - 0 2 0.0 1 2 3 1 0 0 0 0 -
p129
aVEric Snow SEA 05/18/1996 SEA vs. UTH W 5 2 1 2 50.0 0 1 0.0 0 0 - 0 1 1 1 0 0 1 1 -
p130
aVErvin Johnson SEA 05/18/1996 SEA vs. UTH W 20 10 5 8 62.5 0 0 - 0 1 0.0 3 4 7 0 0 2 1 5 -
p131
aVHersey Hawkins SEA 05/18/1996 SEA vs. UTH W 29 13 6 8 75.0 1 1 100.0 0 0 - 0 0 0 1 2 0 0 1 -
p132
aVGary Payton SEA 05/18/1996 SEA vs. UTH W 35 21 8 16 50.0 2 4 50.0 3 6 50.0 1 3 4 7 3 0 2 3 -
p133
aVShawn Kemp SEA 05/18/1996 SEA vs. UTH W 33 21 10 11 90.9 0 0 - 1 3 33.3 3 8 11 0 1 1 2 2 -
p134
aVDetlef Schrempf SEA 05/18/1996 SEA vs. UTH W 28 14 4 8 50.0 2 4 50.0 4 6 66.7 0 2 2 5 1 0 1 1 -
p135
aVDetlef Schrempf SEA 05/12/1996 SEA @ HOU W 31 18 7 12 58.3 1 1 100.0 3 4 75.0 1 5 6 2 1 0 4 6 -
p136
aVHersey Hawkins SEA 05/12/1996 SEA @ HOU W 33 17 6 13 46.2 1 6 16.7 4 4 100.0 0 3 3 5 1 0 2 2 -
p137
aVNate McMillan SEA 05/12/1996 SEA @ HOU W 31 6 1 6 16.7 1 4 25.0 3 4 75.0 1 4 5 5 4 2 0 2 -
p138
aVSam Perkins SEA 05/12/1996 SEA @ HOU W 40 14 5 9 55.6 1 5 20.0 3 6 50.0 3 5 8 0 2 2 3 4 -
p139
aVVincent Askew SEA 05/12/1996 SEA @ HOU W 19 3 1 6 16.7 0 2 0.0 1 4 25.0 0 0 0 1 1 1 0 3 -
p140
aVFrank Brickowski SEA 05/12/1996 SEA @ HOU W 5 0 0 0 - 0 0 - 0 0 - 0 2 2 1 0 1 0 3 -
p141
aVGary Payton SEA 05/12/1996 SEA @ HOU W 49 24 9 19 47.4 1 4 25.0 5 10 50.0 1 3 4 11 3 0 1 2 -
p142
aVErvin Johnson SEA 05/12/1996 SEA @ HOU W 13 0 0 3 0.0 0 0 - 0 0 - 2 5 7 1 0 2 1 3 -
p143
aVShawn Kemp SEA 05/12/1996 SEA @ HOU W 44 32 13 19 68.4 0 1 0.0 6 7 85.7 4 11 15 0 0 3 4 5 -
p144
aVSam Perkins SEA 05/10/1996 SEA @ HOU W 33 17 5 8 62.5 2 3 66.7 5 6 83.3 0 4 4 2 2 0 0 3 -
p145
aVGary Payton SEA 05/10/1996 SEA @ HOU W 44 28 12 19 63.2 2 4 50.0 2 4 50.0 1 0 1 8 0 0 4 1 -
p146
aVFrank Brickowski SEA 05/10/1996 SEA @ HOU W 3 0 0 0 - 0 0 - 0 0 - 0 0 0 2 0 0 0 3 -
p147
aVNate McMillan SEA 05/10/1996 SEA @ HOU W 23 0 0 1 0.0 0 0 - 0 0 - 1 1 2 2 1 0 1 1 -
p148
aVErvin Johnson SEA 05/10/1996 SEA @ HOU W 12 0 0 3 0.0 0 0 - 0 0 - 1 0 1 0 0 1 0 0 -
p149
aVVincent Askew SEA 05/10/1996 SEA @ HOU W 18 11 3 5 60.0 1 2 50.0 4 6 66.7 1 2 3 3 1 1 0 5 -
p150
aVShawn Kemp SEA 05/10/1996 SEA @ HOU W 41 21 6 19 31.6 0 0 - 9 10 90.0 8 10 18 3 2 1 6 3 -
p151
aVHersey Hawkins SEA 05/10/1996 SEA @ HOU W 28 10 5 8 62.5 0 2 0.0 0 0 - 0 4 4 3 1 0 1 2 -
p152
aVDetlef Schrempf SEA 05/10/1996 SEA @ HOU W 38 28 10 15 66.7 1 2 50.0 7 8 87.5 0 5 5 5 3 1 2 4 -
p153
aVVincent Askew SEA 05/06/1996 SEA vs. HOU W 13 6 2 6 33.3 2 2 100.0 0 0 - 0 1 1 2 0 0 0 3 -
p154
aVFrank Brickowski SEA 05/06/1996 SEA vs. HOU W 7 6 2 2 100.0 2 2 100.0 0 0 - 0 1 1 0 0 0 1 1 -
p155
aVErvin Johnson SEA 05/06/1996 SEA vs. HOU W 14 2 1 1 100.0 0 0 - 0 0 - 0 0 0 0 0 1 1 2 -
p156
aVSam Perkins SEA 05/06/1996 SEA vs. HOU W 27 9 3 5 60.0 3 5 60.0 0 0 - 1 2 3 4 0 0 1 1 -
p157
aVHersey Hawkins SEA 05/06/1996 SEA vs. HOU W 32 11 3 6 50.0 3 3 100.0 2 2 100.0 0 4 4 4 1 0 2 3 -
p158
aVShawn Kemp SEA 05/06/1996 SEA vs. HOU W 35 17 5 13 38.5 0 0 - 7 8 87.5 2 8 10 2 0 2 4 3 -
p159
aVNate McMillan SEA 05/06/1996 SEA vs. HOU W 24 15 5 6 83.3 5 5 100.0 0 0 - 0 4 4 3 0 0 1 1 -
p160
aVGary Payton SEA 05/06/1996 SEA vs. HOU W 43 18 7 15 46.7 3 5 60.0 1 3 33.3 0 5 5 5 3 0 1 4 -
p161
aVDetlef Schrempf SEA 05/06/1996 SEA vs. HOU W 45 21 9 16 56.3 2 5 40.0 1 3 33.3 1 9 10 5 0 1 5 2 -
p162
aVDavid Wingate SEA 05/04/1996 SEA vs. HOU W 4 2 1 2 50.0 0 0 - 0 0 - 0 1 1 0 0 0 0 1 -
p163
aVShawn Kemp SEA 05/04/1996 SEA vs. HOU W 30 17 7 11 63.6 0 0 - 3 3 100.0 2 10 12 1 0 3 3 3 -
p164
aVNate McMillan SEA 05/04/1996 SEA vs. HOU W 23 6 2 5 40.0 2 5 40.0 0 0 - 0 7 7 5 4 0 2 1 -
p165
aVSam Perkins SEA 05/04/1996 SEA vs. HOU W 22 17 6 8 75.0 2 2 100.0 3 3 100.0 2 4 6 2 0 0 1 0 -
p166
aVHersey Hawkins SEA 05/04/1996 SEA vs. HOU W 30 9 3 9 33.3 1 3 33.3 2 2 100.0 0 3 3 2 4 0 2 0 -
p167
aVDetlef Schrempf SEA 05/04/1996 SEA vs. HOU W 33 13 6 13 46.2 0 2 0.0 1 2 50.0 3 4 7 3 0 0 0 2 -
p168
aVEric Snow SEA 05/04/1996 SEA vs. HOU W 4 0 0 1 0.0 0 1 0.0 0 0 - 0 1 1 2 1 0 1 0 -
p169
aVGary Payton SEA 05/04/1996 SEA vs. HOU W 40 28 11 22 50.0 5 12 41.7 1 1 100.0 1 3 4 7 2 0 4 1 -
p170
aVSteve Scheffler SEA 05/04/1996 SEA vs. HOU W 4 0 0 1 0.0 0 0 - 0 0 - 0 0 0 1 1 0 0 1 -
p171
aVVincent Askew SEA 05/04/1996 SEA vs. HOU W 23 4 2 3 66.7 0 1 0.0 0 0 - 1 2 3 3 2 0 2 0 -
p172
aVFrank Brickowski SEA 05/04/1996 SEA vs. HOU W 7 0 0 1 0.0 0 0 - 0 0 - 0 2 2 1 0 0 1 2 -
p173
aVErvin Johnson SEA 05/04/1996 SEA vs. HOU W 20 12 6 9 66.7 0 0 - 0 0 - 1 5 6 1 1 1 0 4 -
p174
aVGary Payton SEA 05/02/1996 SEA @ SAC W 41 29 10 18 55.6 4 5 80.0 5 8 62.5 1 5 6 5 2 0 3 3 -
p175
aVShawn Kemp SEA 05/02/1996 SEA @ SAC W 33 23 9 15 60.0 0 0 - 5 9 55.6 3 5 8 1 6 3 4 4 -
p176
aVSam Perkins SEA 05/02/1996 SEA @ SAC W 27 6 2 10 20.0 0 5 0.0 2 2 100.0 0 3 3 1 0 0 0 1 -
p177
aVNate McMillan SEA 05/02/1996 SEA @ SAC W 28 4 1 1 100.0 1 1 100.0 1 2 50.0 1 4 5 3 3 1 1 1 -
p178
aVSteve Scheffler SEA 05/02/1996 SEA @ SAC W 1 0 0 0 - 0 0 - 0 0 - 0 1 1 0 0 0 1 1 -
p179
aVEric Snow SEA 05/02/1996 SEA @ SAC W 2 0 0 0 - 0 0 - 0 0 - 0 0 0 0 0 0 1 0 -
p180
aVHersey Hawkins SEA 05/02/1996 SEA @ SAC W 23 17 6 10 60.0 3 4 75.0 2 2 100.0 3 1 4 2 1 0 2 4 -
p181
aVFrank Brickowski SEA 05/02/1996 SEA @ SAC W 13 4 2 4 50.0 0 2 0.0 0 0 - 0 0 0 0 0 0 3 2 -
p182
aVVincent Askew SEA 05/02/1996 SEA @ SAC W 22 2 1 6 16.7 0 2 0.0 0 0 - 1 3 4 0 0 1 1 2 -
p183
aVDavid Wingate SEA 05/02/1996 SEA @ SAC W 2 0 0 0 - 0 0 - 0 0 - 0 0 0 0 0 0 0 0 -
p184
aVErvin Johnson SEA 05/02/1996 SEA @ SAC W 15 3 1 5 20.0 0 0 - 1 1 100.0 0 4 4 0 0 1 1 3 -
p185
aVDetlef Schrempf SEA 05/02/1996 SEA @ SAC W 33 13 5 13 38.5 1 4 25.0 2 3 66.7 3 7 10 9 1 1 3 2 -
p186
aVDetlef Schrempf SEA 04/30/1996 SEA @ SAC W 37 16 6 11 54.5 2 3 66.7 2 4 50.0 0 5 5 6 0 0 5 3 -
p187
aVNate McMillan SEA 04/30/1996 SEA @ SAC W 20 7 3 5 60.0 1 2 50.0 0 0 - 0 4 4 1 0 0 0 3 -
p188
aVErvin Johnson SEA 04/30/1996 SEA @ SAC W 16 2 1 6 16.7 0 0 - 0 0 - 4 2 6 0 2 0 0 3 -
p189
aVHersey Hawkins SEA 04/30/1996 SEA @ SAC W 33 14 2 8 25.0 1 2 50.0 9 11 81.8 1 1 2 0 1 0 2 2 -
p190
aVShawn Kemp SEA 04/30/1996 SEA @ SAC W 22 7 3 8 37.5 0 0 - 1 5 20.0 3 6 9 0 2 2 2 5 -
p191
aVFrank Brickowski SEA 04/30/1996 SEA @ SAC W 17 12 5 6 83.3 2 3 66.7 0 0 - 0 2 2 0 1 0 0 3 -
p192
aVSam Perkins SEA 04/30/1996 SEA @ SAC W 31 17 5 13 38.5 2 5 40.0 5 8 62.5 2 3 5 1 1 0 1 3 -
p193
aVVincent Askew SEA 04/30/1996 SEA @ SAC W 19 6 1 5 20.0 1 3 33.3 3 3 100.0 1 1 2 2 0 0 0 3 -
p194
aVGary Payton SEA 04/30/1996 SEA @ SAC W 45 15 5 11 45.5 1 4 25.0 4 6 66.7 1 6 7 7 1 2 2 3 -
p195
aVVincent Askew SEA 04/28/1996 SEA vs. SAC L 17 8 4 5 80.0 0 0 - 0 1 0.0 0 1 1 1 1 0 1 1 -
p196
aVSam Perkins SEA 04/28/1996 SEA vs. SAC L 26 8 4 10 40.0 0 4 0.0 0 0 - 0 2 2 3 1 0 0 1 -
p197
aVShawn Kemp SEA 04/28/1996 SEA vs. SAC L 38 21 6 13 46.2 0 0 - 9 11 81.8 4 4 8 1 0 5 9 3 -
p198
aVGary Payton SEA 04/28/1996 SEA vs. SAC L 35 10 4 12 33.3 1 4 25.0 1 2 50.0 1 0 1 7 2 1 2 5 -
p199
aVFrank Brickowski SEA 04/28/1996 SEA vs. SAC L 8 3 0 0 - 0 0 - 3 4 75.0 0 2 2 1 0 0 0 1 -
p200
aVErvin Johnson SEA 04/28/1996 SEA vs. SAC L 15 0 0 3 0.0 0 0 - 0 0 - 1 3 4 0 1 3 2 2 -
p201
aVNate McMillan SEA 04/28/1996 SEA vs. SAC L 22 3 1 3 33.3 1 1 100.0 0 0 - 1 5 6 5 1 1 2 2 -
p202
aVDetlef Schrempf SEA 04/28/1996 SEA vs. SAC L 40 10 3 10 30.0 0 2 0.0 4 6 66.7 0 2 2 2 2 0 5 4 -
p203
aVHersey Hawkins SEA 04/28/1996 SEA vs. SAC L 39 18 6 9 66.7 2 4 50.0 4 5 80.0 1 1 2 0 0 0 0 2 -
p204
aVNate McMillan SEA 04/26/1996 SEA vs. SAC W 23 12 4 6 66.7 4 5 80.0 0 0 - 0 1 1 5 0 0 0 1 -
p205
aVDavid Wingate SEA 04/26/1996 SEA vs. SAC W 1 0 0 0 - 0 0 - 0 0 - 0 0 0 0 0 0 0 0 -
p206
aVVincent Askew SEA 04/26/1996 SEA vs. SAC W 23 1 0 3 0.0 0 0 - 1 2 50.0 0 2 2 0 1 1 2 4 -
p207
aVGary Payton SEA 04/26/1996 SEA vs. SAC W 45 29 8 17 47.1 1 3 33.3 12 16 75.0 0 6 6 9 4 2 4 4 -
p208
aVDetlef Schrempf SEA 04/26/1996 SEA vs. SAC W 38 22 9 18 50.0 0 1 0.0 4 6 66.7 1 1 2 3 0 1 2 3 -
p209
aVSam Perkins SEA 04/26/1996 SEA vs. SAC W 36 17 7 13 53.8 3 6 50.0 0 1 0.0 0 6 6 1 2 0 2 3 -
p210
aVErvin Johnson SEA 04/26/1996 SEA vs. SAC W 25 5 2 5 40.0 0 0 - 1 1 100.0 3 7 10 0 0 1 2 3 -
p211
aVFrank Brickowski SEA 04/26/1996 SEA vs. SAC W 12 2 1 2 50.0 0 1 0.0 0 0 - 0 0 0 0 1 1 3 6 -
p212
aVHersey Hawkins SEA 04/26/1996 SEA vs. SAC W 37 9 1 5 20.0 0 2 0.0 7 9 77.8 0 0 0 5 2 0 0 3 -
p213
a.