(lp0
VPLAYER TEAM DATE MATCHUP W/L MIN PTS FGM FGA FG% 3PM 3PA 3P% FTM FTA FT% OREB DREB REB AST STL BLK TOV PF +/-
p1
aVChris Morris UTH 06/02/1996 UTH @ SEA L 12 3 1 3 33.3 1 1 100.0 0 0 - 0 1 1 1 0 0 1 0 -
p2
aVFelton Spencer UTH 06/02/1996 UTH @ SEA L 13 2 1 1 100.0 0 0 - 0 0 - 0 1 1 0 0 0 0 3 -
p3
aVJeff Hornacek UTH 06/02/1996 UTH @ SEA L 40 10 3 10 30.0 0 1 0.0 4 6 66.7 1 2 3 4 0 0 2 2 -
p4
aVGreg Foster UTH 06/02/1996 UTH @ SEA L 18 4 2 3 66.7 0 0 - 0 0 - 0 2 2 1 0 0 0 3 -
p5
aVAdam Keefe UTH 06/02/1996 UTH @ SEA L 1 0 0 0 - 0 0 - 0 0 - 0 0 0 0 0 0 0 0 -
p6
aVKarl Malone UTH 06/02/1996 UTH @ SEA L 45 22 8 22 36.4 0 0 - 6 12 50.0 0 5 5 7 1 0 4 4 -
p7
aVAntoine Carr UTH 06/02/1996 UTH @ SEA L 19 4 2 3 66.7 0 0 - 0 0 - 1 2 3 0 0 0 1 6 -
p8
aVHoward Eisley UTH 06/02/1996 UTH @ SEA L 4 0 0 0 - 0 0 - 0 0 - 0 1 1 0 0 0 1 0 -
p9
aVJohn Stockton UTH 06/02/1996 UTH @ SEA L 44 22 9 15 60.0 2 4 50.0 2 3 66.7 3 5 8 7 4 0 3 3 -
p10
aVBryon Russell UTH 06/02/1996 UTH @ SEA L 36 13 3 10 30.0 2 6 33.3 5 5 100.0 1 3 4 2 2 0 1 2 -
p11
aVDavid Benoit UTH 06/02/1996 UTH @ SEA L 8 6 2 2 100.0 2 2 100.0 0 0 - 0 2 2 0 0 1 1 0 -
p12
aVAdam Keefe UTH 05/30/1996 UTH vs. SEA W 2 1 0 0 - 0 0 - 1 2 50.0 0 1 1 1 1 0 0 1 -
p13
aVJohn Stockton UTH 05/30/1996 UTH vs. SEA W 35 14 5 11 45.5 0 2 0.0 4 4 100.0 0 2 2 12 1 1 1 2 -
p14
aVBryon Russell UTH 05/30/1996 UTH vs. SEA W 29 12 5 6 83.3 2 3 66.7 0 0 - 1 3 4 2 2 2 0 4 -
p15
aVAntoine Carr UTH 05/30/1996 UTH vs. SEA W 13 8 3 4 75.0 0 0 - 2 3 66.7 0 0 0 1 0 0 0 4 -
p16
aVHoward Eisley UTH 05/30/1996 UTH vs. SEA W 14 2 1 2 50.0 0 0 - 0 0 - 0 1 1 4 1 0 2 1 -
p17
aVKarl Malone UTH 05/30/1996 UTH vs. SEA W 39 32 13 22 59.1 0 0 - 6 9 66.7 2 8 10 7 4 0 1 2 -
p18
aVDavid Benoit UTH 05/30/1996 UTH vs. SEA W 4 5 2 2 100.0 1 1 100.0 0 0 - 0 2 2 0 0 0 2 0 -
p19
aVFelton Spencer UTH 05/30/1996 UTH vs. SEA W 26 6 3 5 60.0 0 1 0.0 0 0 - 3 4 7 1 1 4 0 3 -
p20
aVJeff Hornacek UTH 05/30/1996 UTH vs. SEA W 35 23 6 10 60.0 3 6 50.0 8 8 100.0 0 2 2 3 3 0 3 3 -
p21
aVGreg Ostertag UTH 05/30/1996 UTH vs. SEA W 2 0 0 0 - 0 0 - 0 0 - 0 0 0 0 0 0 0 0 -
p22
aVChris Morris UTH 05/30/1996 UTH vs. SEA W 28 8 4 6 66.7 0 2 0.0 0 0 - 0 6 6 4 2 0 1 2 -
p23
aVGreg Foster UTH 05/30/1996 UTH vs. SEA W 13 7 2 5 40.0 0 0 - 3 4 75.0 1 1 2 0 0 0 1 3 -
p24
aVHoward Eisley UTH 05/28/1996 UTH @ SEA W 15 3 1 3 33.3 0 0 - 1 2 50.0 0 2 2 3 0 0 1 4 -
p25
aVAdam Keefe UTH 05/28/1996 UTH @ SEA W 7 2 1 1 100.0 0 0 - 0 0 - 1 0 1 0 0 0 0 1 -
p26
aVJohn Stockton UTH 05/28/1996 UTH @ SEA W 38 4 1 6 16.7 0 2 0.0 2 2 100.0 2 2 4 6 2 0 1 3 -
p27
aVChris Morris UTH 05/28/1996 UTH @ SEA W 8 0 0 2 0.0 0 1 0.0 0 0 - 0 1 1 0 0 0 1 0 -
p28
aVAntoine Carr UTH 05/28/1996 UTH @ SEA W 40 16 6 9 66.7 0 0 - 4 6 66.7 1 0 1 1 0 0 2 4 -
p29
aVFelton Spencer UTH 05/28/1996 UTH @ SEA W 7 0 0 1 0.0 0 0 - 0 0 - 0 1 1 0 0 1 2 2 -
p30
aVGreg Foster UTH 05/28/1996 UTH @ SEA W 10 2 1 3 33.3 0 0 - 0 0 - 0 0 0 0 1 1 2 2 -
p31
aVJeff Hornacek UTH 05/28/1996 UTH @ SEA W 46 27 8 16 50.0 4 5 80.0 7 10 70.0 1 3 4 3 2 1 0 3 -
p32
aVBryon Russell UTH 05/28/1996 UTH @ SEA W 45 15 4 13 30.8 2 5 40.0 5 7 71.4 0 7 7 2 0 0 0 3 -
p33
aVKarl Malone UTH 05/28/1996 UTH @ SEA W 49 29 11 22 50.0 0 0 - 7 13 53.8 5 10 15 2 2 0 1 3 -
p34
aVChris Morris UTH 05/26/1996 UTH vs. SEA L 15 0 0 4 0.0 0 2 0.0 0 0 - 3 0 3 1 0 0 1 1 -
p35
aVFelton Spencer UTH 05/26/1996 UTH vs. SEA L 13 4 2 5 40.0 0 0 - 0 1 0.0 1 1 2 0 1 0 0 3 -
p36
aVHoward Eisley UTH 05/26/1996 UTH vs. SEA L 12 2 1 3 33.3 0 1 0.0 0 0 - 0 0 0 4 0 1 0 1 -
p37
aVGreg Foster UTH 05/26/1996 UTH vs. SEA L 19 10 4 6 66.7 0 0 - 2 4 50.0 1 0 1 1 0 0 1 4 -
p38
aVBryon Russell UTH 05/26/1996 UTH vs. SEA L 38 9 3 8 37.5 1 4 25.0 2 4 50.0 2 4 6 0 2 1 1 3 -
p39
aVJohn Stockton UTH 05/26/1996 UTH vs. SEA L 36 7 3 9 33.3 1 4 25.0 0 0 - 1 1 2 8 3 1 4 3 -
p40
aVAntoine Carr UTH 05/26/1996 UTH vs. SEA L 19 10 5 7 71.4 0 0 - 0 0 - 1 2 3 1 2 0 1 4 -
p41
aVKarl Malone UTH 05/26/1996 UTH vs. SEA L 45 25 11 21 52.4 0 0 - 3 8 37.5 4 8 12 8 2 1 3 5 -
p42
aVJeff Hornacek UTH 05/26/1996 UTH vs. SEA L 43 19 7 12 58.3 1 3 33.3 4 5 80.0 0 3 3 4 2 0 2 2 -
p43
aVAntoine Carr UTH 05/24/1996 UTH vs. SEA W 28 4 1 2 50.0 0 0 - 2 2 100.0 1 4 5 3 0 3 1 3 -
p44
aVJohn Stockton UTH 05/24/1996 UTH vs. SEA W 37 7 2 9 22.2 0 2 0.0 3 8 37.5 0 2 2 6 0 0 2 3 -
p45
aVJeff Hornacek UTH 05/24/1996 UTH vs. SEA W 42 28 9 14 64.3 3 4 75.0 7 7 100.0 5 2 7 8 2 1 2 1 -
p46
aVKarl Malone UTH 05/24/1996 UTH vs. SEA W 44 28 12 29 41.4 0 0 - 4 6 66.7 7 11 18 4 2 2 6 3 -
p47
aVHoward Eisley UTH 05/24/1996 UTH vs. SEA W 11 0 0 0 - 0 0 - 0 0 - 0 0 0 2 1 0 1 2 -
p48
aVGreg Foster UTH 05/24/1996 UTH vs. SEA W 1 0 0 0 - 0 0 - 0 0 - 0 0 0 0 0 0 0 0 -
p49
aVGreg Ostertag UTH 05/24/1996 UTH vs. SEA W 4 0 0 1 0.0 0 0 - 0 0 - 0 0 0 0 0 1 0 0 -
p50
aVFelton Spencer UTH 05/24/1996 UTH vs. SEA W 17 2 1 1 100.0 0 0 - 0 2 0.0 1 0 1 0 0 1 3 2 -
p51
aVChris Morris UTH 05/24/1996 UTH vs. SEA W 12 3 1 6 16.7 0 3 0.0 1 2 50.0 1 1 2 0 1 0 2 0 -
p52
aVBryon Russell UTH 05/24/1996 UTH vs. SEA W 39 24 8 14 57.1 3 6 50.0 5 6 83.3 0 10 10 2 3 1 0 5 -
p53
aVDavid Benoit UTH 05/24/1996 UTH vs. SEA W 3 0 0 1 0.0 0 1 0.0 0 0 - 0 0 0 1 0 0 0 0 -
p54
aVAdam Keefe UTH 05/24/1996 UTH vs. SEA W 2 0 0 0 - 0 0 - 0 2 0.0 0 0 0 0 0 0 0 1 -
p55
aVJohn Stockton UTH 05/20/1996 UTH @ SEA L 41 11 5 8 62.5 1 2 50.0 0 1 0.0 0 0 0 7 1 0 7 4 -
p56
aVGreg Ostertag UTH 05/20/1996 UTH @ SEA L 5 0 0 0 - 0 0 - 0 0 - 0 0 0 0 0 1 0 0 -
p57
aVJeff Hornacek UTH 05/20/1996 UTH @ SEA L 43 22 6 16 37.5 2 6 33.3 8 9 88.9 2 2 4 4 1 0 1 2 -
p58
aVBryon Russell UTH 05/20/1996 UTH @ SEA L 7 0 0 4 0.0 0 1 0.0 0 0 - 0 1 1 1 0 0 0 2 -
p59
aVAntoine Carr UTH 05/20/1996 UTH @ SEA L 30 10 5 8 62.5 0 0 - 0 0 - 1 2 3 0 0 3 0 5 -
p60
aVChris Morris UTH 05/20/1996 UTH @ SEA L 22 8 3 7 42.9 0 2 0.0 2 2 100.0 1 5 6 2 0 0 0 3 -
p61
aVAdam Keefe UTH 05/20/1996 UTH @ SEA L 8 0 0 0 - 0 0 - 0 0 - 0 1 1 0 0 0 1 1 -
p62
aVKarl Malone UTH 05/20/1996 UTH @ SEA L 44 32 10 23 43.5 0 0 - 12 16 75.0 7 6 13 3 2 0 0 2 -
p63
aVHoward Eisley UTH 05/20/1996 UTH @ SEA L 7 0 0 0 - 0 0 - 0 0 - 0 2 2 2 0 0 0 0 -
p64
aVDavid Benoit UTH 05/20/1996 UTH @ SEA L 22 4 1 7 14.3 0 1 0.0 2 2 100.0 0 2 2 2 1 0 2 4 -
p65
aVFelton Spencer UTH 05/20/1996 UTH @ SEA L 11 0 0 2 0.0 0 0 - 0 0 - 0 2 2 0 0 1 2 3 -
p66
aVHoward Eisley UTH 05/18/1996 UTH @ SEA L 16 3 1 4 25.0 1 3 33.3 0 0 - 0 2 2 5 0 0 3 3 -
p67
aVGreg Ostertag UTH 05/18/1996 UTH @ SEA L 19 6 3 7 42.9 0 0 - 0 0 - 1 6 7 0 0 2 1 3 -
p68
aVJohn Stockton UTH 05/18/1996 UTH @ SEA L 32 4 2 10 20.0 0 4 0.0 0 1 0.0 1 1 2 7 1 0 0 2 -
p69
aVGreg Foster UTH 05/18/1996 UTH @ SEA L 3 0 0 0 - 0 0 - 0 0 - 0 0 0 0 0 0 0 1 -
p70
aVDavid Benoit UTH 05/18/1996 UTH @ SEA L 12 3 1 4 25.0 1 3 33.3 0 0 - 0 0 0 0 0 0 1 0 -
p71
aVAdam Keefe UTH 05/18/1996 UTH @ SEA L 14 0 0 0 - 0 0 - 0 0 - 0 0 0 0 0 0 2 1 -
p72
aVChris Morris UTH 05/18/1996 UTH @ SEA L 18 7 3 7 42.9 0 1 0.0 1 2 50.0 1 1 2 1 2 1 1 2 -
p73
aVFelton Spencer UTH 05/18/1996 UTH @ SEA L 17 6 2 5 40.0 0 0 - 2 2 100.0 2 1 3 0 0 1 2 3 -
p74
aVKarl Malone UTH 05/18/1996 UTH @ SEA L 33 21 10 19 52.6 0 0 - 1 6 16.7 1 7 8 5 2 0 4 1 -
p75
aVAntoine Carr UTH 05/18/1996 UTH @ SEA L 19 3 1 3 33.3 0 0 - 1 2 50.0 1 2 3 2 1 0 0 3 -
p76
aVBryon Russell UTH 05/18/1996 UTH @ SEA L 28 6 2 5 40.0 0 2 0.0 2 2 100.0 2 2 4 0 2 0 0 2 -
p77
aVJeff Hornacek UTH 05/18/1996 UTH @ SEA L 29 13 5 12 41.7 0 1 0.0 3 3 100.0 3 0 3 0 0 0 2 0 -
p78
aVFelton Spencer UTH 05/16/1996 UTH vs. SAN W 19 2 1 3 33.3 0 0 - 0 0 - 3 3 6 0 0 2 0 4 -
p79
aVChris Morris UTH 05/16/1996 UTH vs. SAN W 26 9 3 5 60.0 1 2 50.0 2 2 100.0 2 3 5 1 0 0 1 2 -
p80
aVGreg Foster UTH 05/16/1996 UTH vs. SAN W 2 0 0 1 0.0 0 0 - 0 0 - 0 0 0 0 0 0 0 0 -
p81
aVDavid Benoit UTH 05/16/1996 UTH vs. SAN W 11 7 3 5 60.0 1 1 100.0 0 0 - 0 1 1 2 0 0 0 0 -
p82
aVJohn Stockton UTH 05/16/1996 UTH vs. SAN W 35 9 4 6 66.7 1 3 33.3 0 0 - 1 5 6 13 0 1 3 4 -
p83
aVGreg Ostertag UTH 05/16/1996 UTH vs. SAN W 2 0 0 1 0.0 0 0 - 0 0 - 1 0 1 1 0 1 0 0 -
p84
aVAdam Keefe UTH 05/16/1996 UTH vs. SAN W 26 18 8 11 72.7 0 1 0.0 2 4 50.0 1 6 7 0 0 0 2 2 -
p85
aVAntoine Carr UTH 05/16/1996 UTH vs. SAN W 7 4 2 3 66.7 0 0 - 0 0 - 0 1 1 1 0 0 1 4 -
p86
aVKarl Malone UTH 05/16/1996 UTH vs. SAN W 40 25 9 24 37.5 0 0 - 7 10 70.0 5 8 13 6 0 0 1 4 -
p87
aVHoward Eisley UTH 05/16/1996 UTH vs. SAN W 14 7 2 4 50.0 0 0 - 3 4 75.0 0 2 2 1 0 1 0 3 -
p88
aVBryon Russell UTH 05/16/1996 UTH vs. SAN W 30 15 5 7 71.4 2 3 66.7 3 3 100.0 1 3 4 2 2 2 0 1 -
p89
aVJeff Hornacek UTH 05/16/1996 UTH vs. SAN W 28 12 4 9 44.4 2 3 66.7 2 2 100.0 1 0 1 2 1 0 2 2 -
p90
aVChris Morris UTH 05/14/1996 UTH @ SAN L 30 8 3 11 27.3 0 2 0.0 2 2 100.0 6 5 11 1 2 1 0 3 -
p91
aVGreg Foster UTH 05/14/1996 UTH @ SAN L 1 0 0 0 - 0 0 - 0 0 - 0 0 0 0 0 0 0 0 -
p92
aVAdam Keefe UTH 05/14/1996 UTH @ SAN L 4 0 0 0 - 0 0 - 0 0 - 0 0 0 0 0 0 0 1 -
p93
aVHoward Eisley UTH 05/14/1996 UTH @ SAN L 12 1 0 3 0.0 0 2 0.0 1 2 50.0 0 0 0 3 0 0 0 2 -
p94
aVKarl Malone UTH 05/14/1996 UTH @ SAN L 42 24 8 21 38.1 0 0 - 8 14 57.1 2 10 12 4 0 2 1 5 -
p95
aVAntoine Carr UTH 05/14/1996 UTH @ SAN L 18 1 0 2 0.0 0 0 - 1 2 50.0 1 0 1 2 0 0 1 4 -
p96
aVFelton Spencer UTH 05/14/1996 UTH @ SAN L 16 4 2 3 66.7 0 0 - 0 0 - 1 1 2 0 0 2 2 3 -
p97
aVJeff Hornacek UTH 05/14/1996 UTH @ SAN L 37 16 5 10 50.0 2 4 50.0 4 4 100.0 0 2 2 4 2 0 3 3 -
p98
aVDavid Benoit UTH 05/14/1996 UTH @ SAN L 14 8 3 4 75.0 1 2 50.0 1 3 33.3 1 1 2 0 0 0 0 0 -
p99
aVGreg Ostertag UTH 05/14/1996 UTH @ SAN L 13 2 0 0 - 0 0 - 2 2 100.0 0 2 2 0 0 1 0 1 -
p100
aVJohn Stockton UTH 05/14/1996 UTH @ SAN L 36 14 7 10 70.0 0 1 0.0 0 0 - 1 2 3 8 1 0 6 1 -
p101
aVBryon Russell UTH 05/14/1996 UTH @ SAN L 17 9 3 6 50.0 1 3 33.3 2 3 66.7 0 2 2 1 1 0 1 2 -
p102
aVDavid Benoit UTH 05/12/1996 UTH vs. SAN W 4 0 0 0 - 0 0 - 0 0 - 0 1 1 0 0 0 0 0 -
p103
aVAdam Keefe UTH 05/12/1996 UTH vs. SAN W 30 11 5 5 100.0 0 0 - 1 2 50.0 3 4 7 0 1 0 1 3 -
p104
aVBryon Russell UTH 05/12/1996 UTH vs. SAN W 20 7 2 6 33.3 1 3 33.3 2 2 100.0 0 2 2 0 0 0 0 3 -
p105
aVFelton Spencer UTH 05/12/1996 UTH vs. SAN W 9 1 0 0 - 0 0 - 1 2 50.0 0 1 1 0 0 1 1 2 -
p106
aVJohn Stockton UTH 05/12/1996 UTH vs. SAN W 36 13 5 9 55.6 1 1 100.0 2 2 100.0 2 3 5 10 3 0 6 2 -
p107
aVAntoine Carr UTH 05/12/1996 UTH vs. SAN W 9 4 2 4 50.0 0 0 - 0 0 - 0 0 0 1 0 0 2 2 -
p108
aVKarl Malone UTH 05/12/1996 UTH vs. SAN W 40 22 6 15 40.0 0 0 - 10 10 100.0 0 5 5 7 3 1 4 5 -
p109
aVGreg Ostertag UTH 05/12/1996 UTH vs. SAN W 10 0 0 1 0.0 0 0 - 0 0 - 0 0 0 0 0 0 0 1 -
p110
aVHoward Eisley UTH 05/12/1996 UTH vs. SAN W 12 8 2 4 50.0 2 2 100.0 2 2 100.0 0 1 1 2 0 0 0 3 -
p111
aVJeff Hornacek UTH 05/12/1996 UTH vs. SAN W 34 10 3 10 30.0 1 1 100.0 3 3 100.0 1 5 6 4 2 0 0 2 -
p112
aVChris Morris UTH 05/12/1996 UTH vs. SAN W 36 25 11 14 78.6 3 4 75.0 0 0 - 0 5 5 3 1 3 2 1 -
p113
aVAntoine Carr UTH 05/11/1996 UTH vs. SAN W 11 0 0 3 0.0 0 0 - 0 0 - 0 1 1 3 1 1 2 0 -
p114
aVAdam Keefe UTH 05/11/1996 UTH vs. SAN W 15 3 1 3 33.3 0 0 - 1 1 100.0 1 5 6 0 0 0 0 0 -
p115
aVChris Morris UTH 05/11/1996 UTH vs. SAN W 27 12 5 8 62.5 2 3 66.7 0 0 - 1 4 5 2 3 1 1 2 -
p116
aVGreg Ostertag UTH 05/11/1996 UTH vs. SAN W 12 2 1 2 50.0 0 0 - 0 0 - 1 0 1 0 0 0 0 4 -
p117
aVBryon Russell UTH 05/11/1996 UTH vs. SAN W 28 10 4 8 50.0 2 2 100.0 0 0 - 2 2 4 1 0 0 3 2 -
p118
aVFelton Spencer UTH 05/11/1996 UTH vs. SAN W 15 4 2 5 40.0 0 0 - 0 0 - 1 1 2 0 2 1 0 4 -
p119
aVJohn Stockton UTH 05/11/1996 UTH vs. SAN W 29 6 2 6 33.3 1 2 50.0 1 1 100.0 1 1 2 7 1 1 2 3 -
p120
aVGreg Foster UTH 05/11/1996 UTH vs. SAN W 3 0 0 1 0.0 0 0 - 0 0 - 1 1 2 0 0 0 1 1 -
p121
aVDavid Benoit UTH 05/11/1996 UTH vs. SAN W 12 5 2 4 50.0 1 2 50.0 0 0 - 0 2 2 1 0 0 1 1 -
p122
aVJeff Hornacek UTH 05/11/1996 UTH vs. SAN W 31 17 6 11 54.5 2 2 100.0 3 3 100.0 1 1 2 5 0 0 1 0 -
p123
aVKarl Malone UTH 05/11/1996 UTH vs. SAN W 33 32 14 24 58.3 0 1 0.0 4 7 57.1 5 6 11 6 1 1 0 2 -
p124
aVHoward Eisley UTH 05/11/1996 UTH vs. SAN W 24 14 6 6 100.0 0 0 - 2 2 100.0 1 1 2 4 0 0 1 0 -
p125
aVFelton Spencer UTH 05/09/1996 UTH @ SAN L 12 0 0 3 0.0 0 0 - 0 0 - 1 2 3 0 0 1 0 4 -
p126
aVGreg Ostertag UTH 05/09/1996 UTH @ SAN L 21 5 2 4 50.0 0 0 - 1 2 50.0 0 8 8 0 0 2 0 3 -
p127
aVHoward Eisley UTH 05/09/1996 UTH @ SAN L 7 4 2 3 66.7 0 0 - 0 0 - 0 1 1 1 0 0 0 0 -
p128
aVJohn Stockton UTH 05/09/1996 UTH @ SAN L 40 4 1 6 16.7 0 2 0.0 2 2 100.0 0 5 5 13 2 0 6 4 -
p129
aVAdam Keefe UTH 05/09/1996 UTH @ SAN L 21 11 5 5 100.0 1 1 100.0 0 0 - 1 3 4 0 1 0 0 1 -
p130
aVAntoine Carr UTH 05/09/1996 UTH @ SAN L 23 8 4 11 36.4 0 0 - 0 0 - 0 0 0 5 0 1 2 5 -
p131
aVJeff Hornacek UTH 05/09/1996 UTH @ SAN L 27 3 1 6 16.7 0 1 0.0 1 1 100.0 0 1 1 2 1 0 2 3 -
p132
aVBryon Russell UTH 05/09/1996 UTH @ SAN L 31 16 6 12 50.0 4 6 66.7 0 0 - 2 3 5 5 1 1 0 1 -
p133
aVKarl Malone UTH 05/09/1996 UTH @ SAN L 41 24 12 25 48.0 0 0 - 0 0 - 1 7 8 3 1 1 4 3 -
p134
aVChris Morris UTH 05/09/1996 UTH @ SAN L 17 2 1 3 33.3 0 1 0.0 0 0 - 2 1 3 1 0 0 1 3 -
p135
aVAntoine Carr UTH 05/07/1996 UTH @ SAN W 16 4 2 6 33.3 0 0 - 0 0 - 1 1 2 0 0 0 1 4 -
p136
aVBryon Russell UTH 05/07/1996 UTH @ SAN W 31 11 4 7 57.1 3 3 100.0 0 0 - 1 5 6 1 1 1 2 4 -
p137
aVFelton Spencer UTH 05/07/1996 UTH @ SAN W 22 6 3 6 50.0 0 0 - 0 0 - 5 1 6 1 0 3 2 3 -
p138
aVChris Morris UTH 05/07/1996 UTH @ SAN W 22 13 6 11 54.5 1 3 33.3 0 0 - 2 3 5 0 1 1 1 4 -
p139
aVJohn Stockton UTH 05/07/1996 UTH @ SAN W 39 13 5 10 50.0 1 3 33.3 2 2 100.0 0 5 5 19 1 0 3 2 -
p140
aVKarl Malone UTH 05/07/1996 UTH @ SAN W 35 23 10 23 43.5 0 0 - 3 5 60.0 3 4 7 2 3 0 3 5 -
p141
aVJeff Hornacek UTH 05/07/1996 UTH @ SAN W 35 17 7 12 58.3 2 5 40.0 1 1 100.0 2 3 5 3 0 0 0 3 -
p142
aVAdam Keefe UTH 05/07/1996 UTH @ SAN W 21 8 3 7 42.9 0 0 - 2 2 100.0 1 2 3 1 0 0 2 5 -
p143
aVHoward Eisley UTH 05/07/1996 UTH @ SAN W 9 0 0 2 0.0 0 0 - 0 0 - 2 2 4 4 1 0 0 0 -
p144
aVGreg Ostertag UTH 05/07/1996 UTH @ SAN W 10 0 0 4 0.0 0 0 - 0 0 - 1 1 2 0 0 0 0 0 -
p145
aVJeff Hornacek UTH 05/05/1996 UTH vs. POR W 29 11 3 7 42.9 0 1 0.0 5 5 100.0 2 5 7 4 0 1 2 0 -
p146
aVAntoine Carr UTH 05/05/1996 UTH vs. POR W 14 4 2 6 33.3 0 0 - 0 0 - 0 1 1 1 0 0 0 0 -
p147
aVFelton Spencer UTH 05/05/1996 UTH vs. POR W 12 2 1 2 50.0 0 0 - 0 0 - 1 0 1 0 0 2 1 3 -
p148
aVDavid Benoit UTH 05/05/1996 UTH vs. POR W 19 2 1 2 50.0 0 1 0.0 0 0 - 0 4 4 0 0 0 0 1 -
p149
aVChris Morris UTH 05/05/1996 UTH vs. POR W 19 8 3 7 42.9 2 5 40.0 0 0 - 1 4 5 2 0 1 0 0 -
p150
aVBryon Russell UTH 05/05/1996 UTH vs. POR W 29 10 4 8 50.0 1 4 25.0 1 1 100.0 4 4 8 2 4 0 0 4 -
p151
aVGreg Foster UTH 05/05/1996 UTH vs. POR W 4 3 1 2 50.0 0 0 - 1 2 50.0 2 2 4 0 0 1 0 0 -
p152
aVAdam Keefe UTH 05/05/1996 UTH vs. POR W 6 4 0 1 0.0 0 0 - 4 4 100.0 0 1 1 0 0 1 0 2 -
p153
aVHoward Eisley UTH 05/05/1996 UTH vs. POR W 11 4 0 3 0.0 0 1 0.0 4 4 100.0 0 1 1 2 0 0 1 2 -
p154
aVJohn Stockton UTH 05/05/1996 UTH vs. POR W 37 21 7 11 63.6 2 4 50.0 5 5 100.0 0 4 4 11 2 0 4 1 -
p155
aVKarl Malone UTH 05/05/1996 UTH vs. POR W 31 25 11 21 52.4 0 0 - 3 10 30.0 1 9 10 1 1 1 2 2 -
p156
aVGreg Ostertag UTH 05/05/1996 UTH vs. POR W 29 8 2 6 33.3 0 0 - 4 6 66.7 3 5 8 0 1 5 1 3 -
p157
aVBryon Russell UTH 05/01/1996 UTH @ POR L 10 0 0 2 0.0 0 1 0.0 0 0 - 0 1 1 0 1 0 0 2 -
p158
aVJeff Hornacek UTH 05/01/1996 UTH @ POR L 36 30 11 17 64.7 4 4 100.0 4 4 100.0 1 3 4 3 1 0 3 3 -
p159
aVAntoine Carr UTH 05/01/1996 UTH @ POR L 12 4 2 5 40.0 0 0 - 0 0 - 1 1 2 0 0 1 0 3 -
p160
aVGreg Ostertag UTH 05/01/1996 UTH @ POR L 24 9 3 5 60.0 0 0 - 3 4 75.0 3 2 5 0 1 1 1 5 -
p161
aVGreg Foster UTH 05/01/1996 UTH @ POR L 1 2 1 1 100.0 0 0 - 0 0 - 1 0 1 0 0 0 0 0 -
p162
aVHoward Eisley UTH 05/01/1996 UTH @ POR L 9 2 0 2 0.0 0 0 - 2 2 100.0 1 0 1 1 0 0 0 1 -
p163
aVChris Morris UTH 05/01/1996 UTH @ POR L 15 4 0 4 0.0 0 4 0.0 4 6 66.7 2 4 6 0 1 0 0 1 -
p164
aVFelton Spencer UTH 05/01/1996 UTH @ POR L 20 0 0 3 0.0 0 0 - 0 0 - 2 2 4 0 0 0 1 4 -
p165
aVAdam Keefe UTH 05/01/1996 UTH @ POR L 2 0 0 0 - 0 0 - 0 0 - 0 0 0 0 0 0 0 0 -
p166
aVKarl Malone UTH 05/01/1996 UTH @ POR L 38 15 4 16 25.0 0 0 - 7 12 58.3 2 4 6 6 6 0 2 4 -
p167
aVDavid Benoit UTH 05/01/1996 UTH @ POR L 34 13 5 9 55.6 3 5 60.0 0 0 - 0 2 2 0 0 0 1 3 -
p168
aVJohn Stockton UTH 05/01/1996 UTH @ POR L 39 11 3 13 23.1 0 1 0.0 5 5 100.0 1 1 2 11 4 0 1 2 -
p169
aVChris Morris UTH 04/29/1996 UTH @ POR L 4 0 0 2 0.0 0 1 0.0 0 0 - 0 1 1 0 0 0 1 1 -
p170
aVKarl Malone UTH 04/29/1996 UTH @ POR L 47 35 13 30 43.3 0 0 - 9 12 75.0 1 9 10 4 1 0 4 5 -
p171
aVGreg Ostertag UTH 04/29/1996 UTH @ POR L 21 7 3 6 50.0 0 0 - 1 1 100.0 7 1 8 0 0 4 0 4 -
p172
aVHoward Eisley UTH 04/29/1996 UTH @ POR L 7 0 0 2 0.0 0 0 - 0 0 - 0 2 2 1 0 0 1 3 -
p173
aVAdam Keefe UTH 04/29/1996 UTH @ POR L 3 0 0 0 - 0 0 - 0 0 - 0 0 0 0 0 0 0 0 -
p174
aVFelton Spencer UTH 04/29/1996 UTH @ POR L 14 6 3 5 60.0 0 0 - 0 0 - 3 2 5 0 0 0 1 4 -
p175
aVAntoine Carr UTH 04/29/1996 UTH @ POR L 23 10 4 8 50.0 0 0 - 2 2 100.0 2 5 7 0 0 1 1 4 -
p176
aVBryon Russell UTH 04/29/1996 UTH @ POR L 12 3 1 2 50.0 1 1 100.0 0 0 - 1 1 2 0 0 0 0 0 -
p177
aVDavid Benoit UTH 04/29/1996 UTH @ POR L 48 8 4 16 25.0 0 4 0.0 0 0 - 3 8 11 1 0 2 1 3 -
p178
aVJohn Stockton UTH 04/29/1996 UTH @ POR L 46 13 2 6 33.3 1 1 100.0 8 8 100.0 1 2 3 11 2 0 5 5 -
p179
aVJeff Hornacek UTH 04/29/1996 UTH @ POR L 40 9 4 13 30.8 0 3 0.0 1 1 100.0 1 4 5 2 0 0 0 6 -
p180
aVDavid Benoit UTH 04/27/1996 UTH vs. POR W 34 17 6 9 66.7 3 3 100.0 2 2 100.0 1 1 2 0 0 0 4 3 -
p181
aVKarl Malone UTH 04/27/1996 UTH vs. POR W 38 30 12 23 52.2 0 2 0.0 6 11 54.5 0 14 14 3 1 0 2 3 -
p182
aVBryon Russell UTH 04/27/1996 UTH vs. POR W 17 0 0 1 0.0 0 0 - 0 0 - 0 3 3 0 0 0 2 1 -
p183
aVAdam Keefe UTH 04/27/1996 UTH vs. POR W 8 0 0 0 - 0 0 - 0 0 - 0 1 1 0 0 0 0 2 -
p184
aVHoward Eisley UTH 04/27/1996 UTH vs. POR W 11 3 0 0 - 0 0 - 3 4 75.0 0 0 0 2 0 0 0 2 -
p185
aVJohn Stockton UTH 04/27/1996 UTH vs. POR W 38 15 5 8 62.5 0 0 - 5 7 71.4 0 1 1 16 1 3 3 4 -
p186
aVFelton Spencer UTH 04/27/1996 UTH vs. POR W 17 2 0 0 - 0 0 - 2 2 100.0 2 3 5 0 1 2 2 4 -
p187
aVAntoine Carr UTH 04/27/1996 UTH vs. POR W 17 6 2 6 33.3 0 0 - 2 4 50.0 0 1 1 0 0 3 1 5 -
p188
aVJeff Hornacek UTH 04/27/1996 UTH vs. POR W 32 18 6 9 66.7 4 4 100.0 2 2 100.0 1 3 4 2 0 0 0 4 -
p189
aVChris Morris UTH 04/27/1996 UTH vs. POR W 5 2 1 2 50.0 0 0 - 0 0 - 0 1 1 0 0 0 0 0 -
p190
aVGreg Ostertag UTH 04/27/1996 UTH vs. POR W 23 12 6 6 100.0 0 0 - 0 0 - 1 4 5 0 0 2 1 1 -
p191
aVChris Morris UTH 04/25/1996 UTH vs. POR W 5 0 0 4 0.0 0 0 - 0 0 - 2 0 2 0 0 0 0 0 -
p192
aVGreg Foster UTH 04/25/1996 UTH vs. POR W 1 0 0 0 - 0 0 - 0 0 - 0 0 0 0 0 0 0 2 -
p193
aVJeff Hornacek UTH 04/25/1996 UTH vs. POR W 37 30 10 13 76.9 4 4 100.0 6 8 75.0 0 2 2 3 2 0 2 2 -
p194
aVBryon Russell UTH 04/25/1996 UTH vs. POR W 12 12 4 5 80.0 0 0 - 4 5 80.0 0 2 2 1 2 1 0 1 -
p195
aVFelton Spencer UTH 04/25/1996 UTH vs. POR W 16 4 2 3 66.7 0 0 - 0 0 - 0 2 2 0 0 0 0 4 -
p196
aVKarl Malone UTH 04/25/1996 UTH vs. POR W 41 33 14 21 66.7 0 0 - 5 15 33.3 1 8 9 1 2 1 3 3 -
p197
aVJohn Stockton UTH 04/25/1996 UTH vs. POR W 41 11 2 4 50.0 0 0 - 7 8 87.5 0 2 2 23 0 0 1 2 -
p198
aVAdam Keefe UTH 04/25/1996 UTH vs. POR W 8 0 0 1 0.0 0 0 - 0 0 - 1 0 1 0 0 0 0 2 -
p199
aVDavid Benoit UTH 04/25/1996 UTH vs. POR W 34 9 3 5 60.0 1 2 50.0 2 2 100.0 1 5 6 0 0 0 1 2 -
p200
aVGreg Ostertag UTH 04/25/1996 UTH vs. POR W 17 2 0 2 0.0 0 0 - 2 6 33.3 0 3 3 0 0 1 0 3 -
p201
aVAntoine Carr UTH 04/25/1996 UTH vs. POR W 21 9 3 7 42.9 0 0 - 3 4 75.0 0 0 0 0 0 1 0 6 -
p202
aVHoward Eisley UTH 04/25/1996 UTH vs. POR W 7 0 0 1 0.0 0 0 - 0 0 - 0 0 0 3 0 0 0 2 -
p203
a.