(lp0
VPLAYER TEAM DATE MATCHUP W/L MIN PTS FGM FGA FG% 3PM 3PA 3P% FTM FTA FT% OREB DREB REB AST STL BLK TOV PF +/-
p1
aVBob Sura CLE 05/01/1996 CLE @ NYK L 8 4 2 3 66.7 0 0 - 0 0 - 0 0 0 1 1 0 2 3 -
p2
aVBobby Phills CLE 05/01/1996 CLE @ NYK L 22 10 4 10 40.0 1 4 25.0 1 3 33.3 1 4 5 1 0 0 2 1 -
p3
aVTerrell Brandon CLE 05/01/1996 CLE @ NYK L 44 19 6 14 42.9 0 4 0.0 7 8 87.5 0 2 2 7 1 0 5 5 -
p4
aVTyrone Hill CLE 05/01/1996 CLE @ NYK L 23 13 3 5 60.0 0 0 - 7 8 87.5 4 3 7 0 0 0 2 6 -
p5
aVDan Majerle CLE 05/01/1996 CLE @ NYK L 31 16 4 11 36.4 3 6 50.0 5 6 83.3 0 2 2 1 2 0 2 0 -
p6
aVDanny Ferry CLE 05/01/1996 CLE @ NYK L 34 6 3 12 25.0 0 4 0.0 0 0 - 0 6 6 2 1 1 2 6 -
p7
aVMichael Cage CLE 05/01/1996 CLE @ NYK L 37 0 0 1 0.0 0 0 - 0 0 - 6 6 12 1 0 1 0 4 -
p8
aVChris Mills CLE 05/01/1996 CLE @ NYK L 41 8 4 15 26.7 0 1 0.0 0 0 - 4 4 8 1 2 0 1 4 -
p9
aVBob Sura CLE 04/27/1996 CLE vs. NYK L 3 0 0 0 - 0 0 - 0 0 - 0 0 0 0 0 0 0 1 -
p10
aVDanny Ferry CLE 04/27/1996 CLE vs. NYK L 42 12 6 17 35.3 0 7 0.0 0 0 - 0 5 5 3 2 0 0 5 -
p11
aVChris Mills CLE 04/27/1996 CLE vs. NYK L 38 10 5 11 45.5 0 2 0.0 0 0 - 1 4 5 2 0 0 1 4 -
p12
aVTyrone Hill CLE 04/27/1996 CLE vs. NYK L 14 8 4 5 80.0 0 0 - 0 1 0.0 3 3 6 0 0 0 0 0 -
p13
aVJohn Crotty CLE 04/27/1996 CLE vs. NYK L 7 0 0 0 - 0 0 - 0 0 - 1 0 1 1 1 1 1 0 -
p14
aVDan Majerle CLE 04/27/1996 CLE vs. NYK L 26 11 4 12 33.3 3 10 30.0 0 0 - 0 5 5 3 1 2 1 5 -
p15
aVBobby Phills CLE 04/27/1996 CLE vs. NYK L 35 8 4 13 30.8 0 2 0.0 0 0 - 3 3 6 1 1 0 1 3 -
p16
aVTerrell Brandon CLE 04/27/1996 CLE vs. NYK L 41 21 7 16 43.8 1 2 50.0 6 7 85.7 0 1 1 12 2 1 4 2 -
p17
aVMichael Cage CLE 04/27/1996 CLE vs. NYK L 34 10 4 7 57.1 0 0 - 2 4 50.0 5 3 8 1 2 2 0 0 -
p18
aVMichael Cage CLE 04/25/1996 CLE vs. NYK L 30 9 4 6 66.7 0 0 - 1 1 100.0 2 6 8 0 0 2 0 1 -
p19
aVAntonio Lang CLE 04/25/1996 CLE vs. NYK L 2 0 0 0 - 0 0 - 0 0 - 0 0 0 0 0 0 0 0 -
p20
aVTyrone Hill CLE 04/25/1996 CLE vs. NYK L 16 4 2 2 100.0 0 0 - 0 0 - 0 2 2 0 0 0 1 5 -
p21
aVDanny Ferry CLE 04/25/1996 CLE vs. NYK L 41 11 5 12 41.7 1 5 20.0 0 0 - 1 3 4 4 0 1 2 2 -
p22
aVBob Sura CLE 04/25/1996 CLE vs. NYK L 7 0 0 0 - 0 0 - 0 0 - 0 1 1 2 0 0 2 0 -
p23
aVJohn Amaechi CLE 04/25/1996 CLE vs. NYK L 2 0 0 1 0.0 0 0 - 0 0 - 0 0 0 0 0 0 0 0 -
p24
aVBobby Phills CLE 04/25/1996 CLE vs. NYK L 39 11 5 12 41.7 1 4 25.0 0 1 0.0 1 2 3 4 1 1 2 0 -
p25
aVJohn Crotty CLE 04/25/1996 CLE vs. NYK L 2 2 0 0 - 0 0 - 2 2 100.0 0 0 0 0 0 0 0 0 -
p26
aVDan Majerle CLE 04/25/1996 CLE vs. NYK L 34 23 8 13 61.5 4 7 57.1 3 3 100.0 2 3 5 5 1 0 0 1 -
p27
aVTerrell Brandon CLE 04/25/1996 CLE vs. NYK L 40 18 8 17 47.1 2 3 66.7 0 0 - 1 5 6 5 1 0 2 3 -
p28
aVChris Mills CLE 04/25/1996 CLE vs. NYK L 26 5 2 7 28.6 0 2 0.0 1 1 100.0 0 3 3 2 0 2 1 2 -
p29
aVDonny Marshall CLE 04/25/1996 CLE vs. NYK L 1 0 0 0 - 0 0 - 0 0 - 0 0 0 0 0 0 0 0 -
p30
a.