(lp0
VPLAYER TEAM DATE MATCHUP W/L MIN PTS FGM FGA FG% 3PM 3PA 3P% FTM FTA FT% OREB DREB REB AST STL BLK TOV PF +/-
p1
aVClifford Robinson POR 05/05/1996 POR @ UTH L 33 13 4 9 44.4 0 3 0.0 5 5 100.0 0 3 3 1 2 2 2 4 -
p2
aVGary Trent POR 05/05/1996 POR @ UTH L 2 0 0 1 0.0 0 0 - 0 0 - 0 0 0 0 0 0 0 1 -
p3
aVChris Dudley POR 05/05/1996 POR @ UTH L 9 2 1 2 50.0 0 0 - 0 0 - 1 2 3 0 0 0 1 5 -
p4
aVAaron McKie POR 05/05/1996 POR @ UTH L 23 5 2 6 33.3 1 1 100.0 0 0 - 0 1 1 2 2 0 1 3 -
p5
aVRumeal Robinson POR 05/05/1996 POR @ UTH L 8 0 0 2 0.0 0 0 - 0 0 - 0 0 0 0 1 0 1 2 -
p6
aVElmore Spencer POR 05/05/1996 POR @ UTH L 1 0 0 0 - 0 0 - 0 2 0.0 0 0 0 0 0 0 0 0 -
p7
aVJames Robinson POR 05/05/1996 POR @ UTH L 12 5 2 5 40.0 1 3 33.3 0 0 - 0 0 0 2 1 0 2 0 -
p8
aVDontonio Wingfield POR 05/05/1996 POR @ UTH L 19 9 3 8 37.5 2 2 100.0 1 2 50.0 4 1 5 0 0 0 0 0 -
p9
aVArvydas Sabonis POR 05/05/1996 POR @ UTH L 34 14 6 16 37.5 0 0 - 2 2 100.0 0 8 8 1 0 0 1 1 -
p10
aVRod Strickland POR 05/05/1996 POR @ UTH L 40 10 5 16 31.3 0 1 0.0 0 0 - 0 2 2 8 2 0 3 3 -
p11
aVHarvey Grant POR 05/05/1996 POR @ UTH L 29 4 2 8 25.0 0 1 0.0 0 0 - 1 6 7 0 0 1 1 4 -
p12
aVBuck Williams POR 05/05/1996 POR @ UTH L 30 2 1 6 16.7 0 0 - 0 0 - 2 2 4 0 0 0 1 4 -
p13
aVRod Strickland POR 05/01/1996 POR vs. UTH W 38 27 10 16 62.5 2 3 66.7 5 6 83.3 2 4 6 7 1 0 2 1 -
p14
aVChris Dudley POR 05/01/1996 POR vs. UTH W 19 1 0 3 0.0 0 0 - 1 2 50.0 2 4 6 0 0 1 0 1 -
p15
aVClifford Robinson POR 05/01/1996 POR vs. UTH W 29 15 3 8 37.5 2 4 50.0 7 11 63.6 2 1 3 1 1 0 4 5 -
p16
aVArvydas Sabonis POR 05/01/1996 POR vs. UTH W 35 25 6 13 46.2 3 3 100.0 10 12 83.3 0 13 13 4 1 1 3 5 -
p17
aVRumeal Robinson POR 05/01/1996 POR vs. UTH W 10 7 3 4 75.0 1 2 50.0 0 0 - 0 1 1 1 0 0 2 2 -
p18
aVDontonio Wingfield POR 05/01/1996 POR vs. UTH W 15 1 0 3 0.0 0 2 0.0 1 2 50.0 2 2 4 3 0 0 2 3 -
p19
aVAaron McKie POR 05/01/1996 POR vs. UTH W 37 10 5 10 50.0 0 2 0.0 0 0 - 1 3 4 2 2 0 5 2 -
p20
aVBuck Williams POR 05/01/1996 POR vs. UTH W 26 4 1 2 50.0 0 0 - 2 2 100.0 1 3 4 0 0 2 1 3 -
p21
aVHarvey Grant POR 05/01/1996 POR vs. UTH W 31 8 4 7 57.1 0 1 0.0 0 0 - 1 1 2 0 0 1 0 2 -
p22
aVRumeal Robinson POR 04/29/1996 POR vs. UTH W 8 3 1 3 33.3 0 0 - 1 2 50.0 0 0 0 0 1 0 0 1 -
p23
aVArvydas Sabonis POR 04/29/1996 POR vs. UTH W 38 27 10 22 45.5 2 5 40.0 5 11 45.5 3 9 12 2 2 1 1 4 -
p24
aVHarvey Grant POR 04/29/1996 POR vs. UTH W 35 6 3 10 30.0 0 0 - 0 0 - 2 4 6 1 0 0 0 3 -
p25
aVRod Strickland POR 04/29/1996 POR vs. UTH W 45 19 6 19 31.6 0 2 0.0 7 11 63.6 3 5 8 8 0 0 2 2 -
p26
aVClifford Robinson POR 04/29/1996 POR vs. UTH W 44 11 3 12 25.0 0 3 0.0 5 7 71.4 1 3 4 1 2 3 3 2 -
p27
aVAaron McKie POR 04/29/1996 POR vs. UTH W 40 16 4 10 40.0 1 3 33.3 7 9 77.8 3 7 10 1 0 0 1 4 -
p28
aVBuck Williams POR 04/29/1996 POR vs. UTH W 32 5 2 8 25.0 0 0 - 1 2 50.0 6 4 10 1 1 0 0 3 -
p29
aVChris Dudley POR 04/29/1996 POR vs. UTH W 15 1 0 1 0.0 0 0 - 1 2 50.0 1 2 3 1 1 0 2 3 -
p30
aVDontonio Wingfield POR 04/29/1996 POR vs. UTH W 8 6 2 5 40.0 2 3 66.7 0 2 0.0 2 0 2 1 0 0 1 3 -
p31
aVBuck Williams POR 04/27/1996 POR @ UTH L 22 7 2 3 66.7 1 1 100.0 2 3 66.7 1 1 2 0 0 1 1 5 -
p32
aVArvydas Sabonis POR 04/27/1996 POR @ UTH L 36 26 8 19 42.1 0 1 0.0 10 15 66.7 7 5 12 1 1 0 3 4 -
p33
aVGary Trent POR 04/27/1996 POR @ UTH L 8 2 1 3 33.3 0 0 - 0 0 - 0 1 1 0 1 0 0 2 -
p34
aVChris Dudley POR 04/27/1996 POR @ UTH L 23 6 2 3 66.7 0 0 - 2 2 100.0 1 4 5 0 1 1 1 5 -
p35
aVAaron McKie POR 04/27/1996 POR @ UTH L 18 0 0 3 0.0 0 1 0.0 0 0 - 0 3 3 4 0 0 2 2 -
p36
aVRumeal Robinson POR 04/27/1996 POR @ UTH L 10 3 1 6 16.7 1 4 25.0 0 2 0.0 0 0 0 1 1 0 0 1 -
p37
aVHarvey Grant POR 04/27/1996 POR @ UTH L 32 5 2 8 25.0 1 4 25.0 0 0 - 0 1 1 2 0 0 0 3 -
p38
aVClifford Robinson POR 04/27/1996 POR @ UTH L 36 16 5 15 33.3 2 7 28.6 4 4 100.0 0 4 4 1 2 0 4 4 -
p39
aVDontonio Wingfield POR 04/27/1996 POR @ UTH L 17 5 2 4 50.0 1 2 50.0 0 0 - 1 1 2 0 0 0 0 3 -
p40
aVRod Strickland POR 04/27/1996 POR @ UTH L 38 20 8 17 47.1 2 2 100.0 2 8 25.0 5 3 8 7 1 0 2 4 -
p41
aVClifford Robinson POR 04/25/1996 POR @ UTH L 39 21 6 17 35.3 2 6 33.3 7 10 70.0 1 3 4 4 0 0 3 4 -
p42
aVAaron McKie POR 04/25/1996 POR @ UTH L 16 0 0 1 0.0 0 1 0.0 0 0 - 0 0 0 0 2 2 0 2 -
p43
aVChris Dudley POR 04/25/1996 POR @ UTH L 26 4 2 4 50.0 0 0 - 0 0 - 4 6 10 0 0 0 0 4 -
p44
aVBuck Williams POR 04/25/1996 POR @ UTH L 23 6 3 4 75.0 0 1 0.0 0 0 - 3 2 5 0 0 1 2 3 -
p45
aVHarvey Grant POR 04/25/1996 POR @ UTH L 37 4 2 5 40.0 0 1 0.0 0 4 0.0 1 3 4 1 0 0 2 4 -
p46
aVDontonio Wingfield POR 04/25/1996 POR @ UTH L 3 3 1 1 100.0 1 1 100.0 0 0 - 1 0 1 0 0 0 0 1 -
p47
aVRod Strickland POR 04/25/1996 POR @ UTH L 41 27 8 16 50.0 2 4 50.0 9 11 81.8 2 5 7 12 1 0 3 4 -
p48
aVJames Robinson POR 04/25/1996 POR @ UTH L 14 3 1 5 20.0 1 3 33.3 0 0 - 0 1 1 1 0 1 1 4 -
p49
aVRumeal Robinson POR 04/25/1996 POR @ UTH L 7 8 3 4 75.0 2 3 66.7 0 0 - 0 1 1 1 0 0 0 2 -
p50
aVArvydas Sabonis POR 04/25/1996 POR @ UTH L 34 26 5 11 45.5 0 0 - 16 20 80.0 2 4 6 1 0 1 2 3 -
p51
a.