(lp0
VPLAYER TEAM DATE MATCHUP W/L MIN PTS FGM FGA FG% 3PM 3PA 3P% FTM FTA FT% OREB DREB REB AST STL BLK TOV PF +/-
p1
aVLawrence Moten VAN 04/21/1996 VAN @ LAC W 7 4 2 5 40.0 0 0 - 0 0 - 2 0 2 1 1 0 0 0 -
p2
aVBlue Edwards VAN 04/21/1996 VAN @ LAC W 36 21 8 14 57.1 0 1 0.0 5 6 83.3 3 4 7 1 0 0 1 4 -
p3
aVAshraf Amaya VAN 04/21/1996 VAN @ LAC W 29 6 1 6 16.7 0 0 - 4 7 57.1 4 4 8 2 1 0 2 4 -
p4
aVAnthony Avent VAN 04/21/1996 VAN @ LAC W 29 12 6 12 50.0 0 0 - 0 0 - 2 8 10 0 0 3 3 5 -
p5
aVEric Murdock VAN 04/21/1996 VAN @ LAC W 19 8 3 7 42.9 0 2 0.0 2 2 100.0 0 3 3 2 2 0 2 2 -
p6
aVGreg Anthony VAN 04/21/1996 VAN @ LAC W 33 16 4 12 33.3 1 4 25.0 7 8 87.5 1 6 7 3 1 0 2 1 -
p7
aVByron Scott VAN 04/21/1996 VAN @ LAC W 26 11 3 8 37.5 0 1 0.0 5 6 83.3 1 2 3 0 1 0 2 2 -
p8
aVGerald Wilkins VAN 04/21/1996 VAN @ LAC W 23 10 4 10 40.0 0 1 0.0 2 2 100.0 1 1 2 2 1 0 0 4 -
p9
aVChris King VAN 04/21/1996 VAN @ LAC W 38 20 8 13 61.5 4 5 80.0 0 0 - 1 6 7 0 1 0 2 2 -
p10
aVEric Murdock VAN 04/19/1996 VAN @ DEN W 33 14 7 12 58.3 0 2 0.0 0 0 - 0 2 2 2 6 1 2 1 -
p11
aVChris King VAN 04/19/1996 VAN @ DEN W 30 11 4 11 36.4 0 3 0.0 3 5 60.0 0 4 4 1 1 1 1 4 -
p12
aVGreg Anthony VAN 04/19/1996 VAN @ DEN W 27 7 3 8 37.5 1 4 25.0 0 1 0.0 0 5 5 7 3 0 2 2 -
p13
aVLawrence Moten VAN 04/19/1996 VAN @ DEN W 31 11 5 9 55.6 1 1 100.0 0 0 - 1 4 5 1 4 2 3 1 -
p14
aVAnthony Avent VAN 04/19/1996 VAN @ DEN W 28 13 4 7 57.1 0 0 - 5 6 83.3 0 4 4 2 0 1 6 4 -
p15
aVBlue Edwards VAN 04/19/1996 VAN @ DEN W 33 13 6 10 60.0 0 1 0.0 1 2 50.0 2 4 6 0 1 0 2 4 -
p16
aVGerald Wilkins VAN 04/19/1996 VAN @ DEN W 32 15 6 11 54.5 3 4 75.0 0 0 - 0 4 4 2 3 1 1 3 -
p17
aVByron Scott VAN 04/19/1996 VAN @ DEN W 26 8 2 8 25.0 1 4 25.0 3 4 75.0 1 3 4 0 0 2 5 2 -
p18
aVCuonzo Martin VAN 04/18/1996 VAN vs. UTH L 3 3 1 1 100.0 1 1 100.0 0 0 - 1 0 1 0 0 0 1 0 -
p19
aVChris King VAN 04/18/1996 VAN vs. UTH L 43 21 7 18 38.9 5 7 71.4 2 2 100.0 4 10 14 2 1 3 1 2 -
p20
aVLawrence Moten VAN 04/18/1996 VAN vs. UTH L 12 6 3 6 50.0 0 1 0.0 0 0 - 1 0 1 2 1 1 2 1 -
p21
aVEric Murdock VAN 04/18/1996 VAN vs. UTH L 24 12 5 12 41.7 0 2 0.0 2 2 100.0 0 0 0 3 0 0 1 3 -
p22
aVAnthony Avent VAN 04/18/1996 VAN vs. UTH L 42 2 1 9 11.1 0 0 - 0 0 - 4 7 11 3 2 2 6 4 -
p23
aVBryant Reeves VAN 04/18/1996 VAN vs. UTH L 14 10 4 5 80.0 0 0 - 2 2 100.0 2 1 3 1 1 0 1 0 -
p24
aVGerald Wilkins VAN 04/18/1996 VAN vs. UTH L 22 2 1 6 16.7 0 3 0.0 0 0 - 0 1 1 2 0 0 1 1 -
p25
aVBlue Edwards VAN 04/18/1996 VAN vs. UTH L 29 9 4 11 36.4 0 1 0.0 1 2 50.0 1 3 4 1 0 0 1 2 -
p26
aVGreg Anthony VAN 04/18/1996 VAN vs. UTH L 20 8 2 5 40.0 2 3 66.7 2 2 100.0 1 5 6 3 0 0 2 0 -
p27
aVAshraf Amaya VAN 04/18/1996 VAN vs. UTH L 2 0 0 0 - 0 0 - 0 0 - 0 0 0 0 0 0 1 0 -
p28
aVByron Scott VAN 04/18/1996 VAN vs. UTH L 29 6 1 8 12.5 1 6 16.7 3 4 75.0 0 1 1 5 0 2 0 0 -
p29
aVByron Scott VAN 04/16/1996 VAN vs. SAN L 26 14 5 9 55.6 2 4 50.0 2 2 100.0 0 5 5 3 1 0 1 0 -
p30
aVRichard Manning VAN 04/16/1996 VAN vs. SAN L 12 6 3 5 60.0 0 0 - 0 0 - 0 1 1 1 0 0 0 1 -
p31
aVAshraf Amaya VAN 04/16/1996 VAN vs. SAN L 19 3 1 3 33.3 0 0 - 1 2 50.0 3 4 7 1 0 1 0 2 -
p32
aVGreg Anthony VAN 04/16/1996 VAN vs. SAN L 15 5 2 4 50.0 1 3 33.3 0 0 - 0 1 1 2 0 0 2 2 -
p33
aVChris King VAN 04/16/1996 VAN vs. SAN L 33 17 7 16 43.8 3 7 42.9 0 1 0.0 1 4 5 1 3 1 1 4 -
p34
aVBlue Edwards VAN 04/16/1996 VAN vs. SAN L 30 0 0 6 0.0 0 2 0.0 0 0 - 1 3 4 3 1 0 2 3 -
p35
aVEric Murdock VAN 04/16/1996 VAN vs. SAN L 33 16 7 12 58.3 0 3 0.0 2 2 100.0 0 5 5 10 2 0 3 3 -
p36
aVBryant Reeves VAN 04/16/1996 VAN vs. SAN L 9 4 2 7 28.6 0 0 - 0 0 - 1 1 2 0 0 0 0 1 -
p37
aVAnthony Avent VAN 04/16/1996 VAN vs. SAN L 27 4 2 10 20.0 0 0 - 0 0 - 0 2 2 1 0 0 1 1 -
p38
aVGerald Wilkins VAN 04/16/1996 VAN vs. SAN L 28 12 5 7 71.4 2 3 66.7 0 0 - 0 0 0 3 1 0 2 1 -
p39
aVLawrence Moten VAN 04/16/1996 VAN vs. SAN L 8 5 2 3 66.7 0 1 0.0 1 1 100.0 2 1 3 3 0 0 0 0 -
p40
aVAnthony Avent VAN 04/14/1996 VAN vs. POR L 30 4 2 7 28.6 0 0 - 0 0 - 0 9 9 2 1 2 2 3 -
p41
aVGerald Wilkins VAN 04/14/1996 VAN vs. POR L 9 0 0 2 0.0 0 0 - 0 0 - 0 0 0 2 0 0 1 0 -
p42
aVGreg Anthony VAN 04/14/1996 VAN vs. POR L 22 3 1 6 16.7 1 4 25.0 0 0 - 0 1 1 7 2 0 3 1 -
p43
aVAshraf Amaya VAN 04/14/1996 VAN vs. POR L 31 7 2 3 66.7 0 0 - 3 4 75.0 1 6 7 4 1 1 0 2 -
p44
aVLawrence Moten VAN 04/14/1996 VAN vs. POR L 23 6 2 9 22.2 0 4 0.0 2 2 100.0 0 1 1 3 1 0 1 3 -
p45
aVEric Murdock VAN 04/14/1996 VAN vs. POR L 26 18 6 9 66.7 0 0 - 6 6 100.0 0 0 0 4 5 0 3 2 -
p46
aVBryant Reeves VAN 04/14/1996 VAN vs. POR L 35 8 3 9 33.3 0 0 - 2 4 50.0 1 5 6 3 2 3 0 4 -
p47
aVBlue Edwards VAN 04/14/1996 VAN vs. POR L 36 21 9 19 47.4 2 3 66.7 1 2 50.0 2 3 5 3 2 0 2 0 -
p48
aVChris King VAN 04/14/1996 VAN vs. POR L 28 12 5 12 41.7 2 4 50.0 0 0 - 0 4 4 1 0 0 0 2 -
p49
aVByron Scott VAN 04/12/1996 VAN vs. SAC W 24 5 2 6 33.3 1 2 50.0 0 0 - 0 1 1 1 1 1 2 1 -
p50
aVBlue Edwards VAN 04/12/1996 VAN vs. SAC W 28 13 5 12 41.7 1 2 50.0 2 3 66.7 1 2 3 3 3 0 4 4 -
p51
aVEric Murdock VAN 04/12/1996 VAN vs. SAC W 20 13 6 8 75.0 0 0 - 1 2 50.0 0 2 2 8 3 0 1 0 -
p52
aVBryant Reeves VAN 04/12/1996 VAN vs. SAC W 38 20 9 15 60.0 0 0 - 2 3 66.7 2 6 8 3 0 7 2 3 -
p53
aVGerald Wilkins VAN 04/12/1996 VAN vs. SAC W 21 9 3 5 60.0 1 2 50.0 2 2 100.0 1 0 1 1 0 0 4 1 -
p54
aVChris King VAN 04/12/1996 VAN vs. SAC W 27 12 5 8 62.5 0 1 0.0 2 6 33.3 1 2 3 2 2 1 2 3 -
p55
aVGreg Anthony VAN 04/12/1996 VAN vs. SAC W 28 12 3 7 42.9 2 4 50.0 4 4 100.0 0 1 1 7 3 0 2 0 -
p56
aVAnthony Avent VAN 04/12/1996 VAN vs. SAC W 23 8 4 5 80.0 0 0 - 0 0 - 1 4 5 2 1 0 4 5 -
p57
aVAshraf Amaya VAN 04/12/1996 VAN vs. SAC W 31 7 3 6 50.0 0 0 - 1 2 50.0 3 10 13 0 1 1 1 2 -
p58
aVAnthony Avent VAN 04/10/1996 VAN @ SAN L 25 8 3 7 42.9 0 0 - 2 2 100.0 0 2 2 2 1 1 0 2 -
p59
aVByron Scott VAN 04/10/1996 VAN @ SAN L 17 7 2 6 33.3 1 3 33.3 2 2 100.0 0 2 2 1 0 0 0 0 -
p60
aVAshraf Amaya VAN 04/10/1996 VAN @ SAN L 34 8 2 9 22.2 0 1 0.0 4 8 50.0 6 10 16 1 0 0 0 5 -
p61
aVGerald Wilkins VAN 04/10/1996 VAN @ SAN L 23 6 1 6 16.7 1 3 33.3 3 3 100.0 0 2 2 3 0 0 1 1 -
p62
aVRichard Manning VAN 04/10/1996 VAN @ SAN L 11 4 2 5 40.0 0 0 - 0 0 - 2 0 2 0 0 0 2 3 -
p63
aVLawrence Moten VAN 04/10/1996 VAN @ SAN L 32 14 4 10 40.0 0 3 0.0 6 7 85.7 2 0 2 2 2 0 1 2 -
p64
aVCuonzo Martin VAN 04/10/1996 VAN @ SAN L 8 3 1 3 33.3 1 1 100.0 0 2 0.0 0 0 0 0 0 0 0 1 -
p65
aVGreg Anthony VAN 04/10/1996 VAN @ SAN L 18 6 2 5 40.0 1 2 50.0 1 2 50.0 0 1 1 2 2 0 1 1 -
p66
aVChris King VAN 04/10/1996 VAN @ SAN L 26 12 5 9 55.6 2 3 66.7 0 0 - 1 5 6 2 2 0 2 1 -
p67
aVBlue Edwards VAN 04/10/1996 VAN @ SAN L 23 6 3 10 30.0 0 1 0.0 0 0 - 0 1 1 0 1 1 1 2 -
p68
aVEric Murdock VAN 04/10/1996 VAN @ SAN L 23 8 4 9 44.4 0 2 0.0 0 0 - 0 0 0 2 2 1 4 3 -
p69
aVEric Murdock VAN 04/09/1996 VAN @ HOU L 38 19 7 17 41.2 1 5 20.0 4 5 80.0 0 7 7 9 1 0 1 1 -
p70
aVBlue Edwards VAN 04/09/1996 VAN @ HOU L 40 12 6 16 37.5 0 2 0.0 0 0 - 3 6 9 4 2 0 3 2 -
p71
aVGerald Wilkins VAN 04/09/1996 VAN @ HOU L 22 4 2 5 40.0 0 1 0.0 0 0 - 0 3 3 2 0 0 3 4 -
p72
aVAnthony Avent VAN 04/09/1996 VAN @ HOU L 40 6 3 7 42.9 0 0 - 0 0 - 2 8 10 7 2 2 2 1 -
p73
aVByron Scott VAN 04/09/1996 VAN @ HOU L 30 17 7 13 53.8 3 6 50.0 0 0 - 0 0 0 1 0 0 2 3 -
p74
aVChris King VAN 04/09/1996 VAN @ HOU L 34 15 6 14 42.9 0 5 0.0 3 5 60.0 4 2 6 0 2 1 1 2 -
p75
aVAshraf Amaya VAN 04/09/1996 VAN @ HOU L 28 9 4 7 57.1 0 0 - 1 2 50.0 2 2 4 1 2 0 2 2 -
p76
aVRichard Manning VAN 04/09/1996 VAN @ HOU L 8 2 1 3 33.3 0 0 - 0 0 - 1 0 1 0 0 0 2 3 -
p77
aVBryant Reeves VAN 04/07/1996 VAN vs. PHX L 28 13 6 13 46.2 0 0 - 1 2 50.0 2 7 9 0 0 1 1 0 -
p78
aVBlue Edwards VAN 04/07/1996 VAN vs. PHX L 31 12 5 10 50.0 1 2 50.0 1 4 25.0 0 3 3 3 3 1 2 2 -
p79
aVLawrence Moten VAN 04/07/1996 VAN vs. PHX L 17 2 1 5 20.0 0 0 - 0 2 0.0 2 0 2 1 0 0 2 1 -
p80
aVByron Scott VAN 04/07/1996 VAN vs. PHX L 24 10 4 10 40.0 2 5 40.0 0 0 - 0 2 2 0 0 0 1 3 -
p81
aVAshraf Amaya VAN 04/07/1996 VAN vs. PHX L 31 11 4 5 80.0 0 0 - 3 5 60.0 3 6 9 3 0 0 3 4 -
p82
aVRichard Manning VAN 04/07/1996 VAN vs. PHX L 15 4 2 3 66.7 0 0 - 0 0 - 0 0 0 1 1 0 1 2 -
p83
aVCuonzo Martin VAN 04/07/1996 VAN vs. PHX L 4 3 1 1 100.0 1 1 100.0 0 0 - 0 1 1 1 1 0 0 0 -
p84
aVGreg Anthony VAN 04/07/1996 VAN vs. PHX L 30 11 4 13 30.8 3 6 50.0 0 0 - 0 1 1 9 0 0 2 4 -
p85
aVEric Murdock VAN 04/07/1996 VAN vs. PHX L 18 7 3 9 33.3 1 3 33.3 0 0 - 1 1 2 5 0 0 0 1 -
p86
aVAnthony Avent VAN 04/07/1996 VAN vs. PHX L 22 6 3 8 37.5 0 0 - 0 0 - 4 6 10 1 0 1 1 5 -
p87
aVChris King VAN 04/07/1996 VAN vs. PHX L 20 13 5 9 55.6 1 1 100.0 2 3 66.7 0 2 2 0 0 0 2 1 -
p88
aVBryant Reeves VAN 04/05/1996 VAN @ LAL L 29 6 2 8 25.0 0 0 - 2 2 100.0 0 7 7 1 0 1 2 3 -
p89
aVLawrence Moten VAN 04/05/1996 VAN @ LAL L 25 21 8 12 66.7 3 4 75.0 2 2 100.0 2 0 2 3 0 0 2 0 -
p90
aVAnthony Avent VAN 04/05/1996 VAN @ LAL L 22 10 4 8 50.0 0 0 - 2 2 100.0 3 5 8 0 0 0 0 2 -
p91
aVBlue Edwards VAN 04/05/1996 VAN @ LAL L 30 5 1 7 14.3 0 1 0.0 3 3 100.0 0 0 0 0 0 0 3 1 -
p92
aVChris King VAN 04/05/1996 VAN @ LAL L 19 8 4 6 66.7 0 1 0.0 0 0 - 0 1 1 1 1 0 0 1 -
p93
aVByron Scott VAN 04/05/1996 VAN @ LAL L 22 8 3 10 30.0 0 2 0.0 2 3 66.7 2 6 8 2 0 0 2 3 -
p94
aVCuonzo Martin VAN 04/05/1996 VAN @ LAL L 4 0 0 0 - 0 0 - 0 0 - 0 0 0 1 0 0 0 0 -
p95
aVAshraf Amaya VAN 04/05/1996 VAN @ LAL L 25 4 2 4 50.0 0 0 - 0 2 0.0 1 6 7 0 0 1 1 2 -
p96
aVRichard Manning VAN 04/05/1996 VAN @ LAL L 16 6 3 8 37.5 0 0 - 0 0 - 0 1 1 0 0 1 0 2 -
p97
aVEric Murdock VAN 04/05/1996 VAN @ LAL L 20 14 5 8 62.5 4 5 80.0 0 0 - 0 2 2 6 1 1 0 1 -
p98
aVGreg Anthony VAN 04/05/1996 VAN @ LAL L 28 12 5 11 45.5 0 5 0.0 2 2 100.0 3 5 8 6 2 0 5 1 -
p99
aVByron Scott VAN 04/03/1996 VAN vs. MIN W 18 10 1 5 20.0 1 1 100.0 7 7 100.0 0 1 1 1 1 0 1 2 -
p100
aVAnthony Avent VAN 04/03/1996 VAN vs. MIN W 19 2 1 3 33.3 0 0 - 0 2 0.0 0 1 1 1 1 0 0 4 -
p101
aVEric Murdock VAN 04/03/1996 VAN vs. MIN W 31 11 4 10 40.0 1 1 100.0 2 2 100.0 0 2 2 8 4 0 1 3 -
p102
aVChris King VAN 04/03/1996 VAN vs. MIN W 11 0 0 1 0.0 0 0 - 0 0 - 0 0 0 0 0 0 1 0 -
p103
aVAshraf Amaya VAN 04/03/1996 VAN vs. MIN W 41 12 3 3 100.0 0 0 - 6 8 75.0 4 6 10 2 0 0 0 2 -
p104
aVBlue Edwards VAN 04/03/1996 VAN vs. MIN W 42 24 11 23 47.8 1 5 20.0 1 1 100.0 3 2 5 1 6 0 1 2 -
p105
aVBryant Reeves VAN 04/03/1996 VAN vs. MIN W 32 28 8 14 57.1 0 0 - 12 14 85.7 4 3 7 2 1 0 4 5 -
p106
aVGreg Anthony VAN 04/03/1996 VAN vs. MIN W 17 7 3 8 37.5 0 1 0.0 1 4 25.0 0 3 3 6 0 0 0 3 -
p107
aVGerald Wilkins VAN 04/03/1996 VAN vs. MIN W 29 11 3 7 42.9 0 3 0.0 5 5 100.0 0 2 2 1 1 1 3 2 -
p108
aVBryant Reeves VAN 04/02/1996 VAN @ POR L 28 13 6 13 46.2 0 0 - 1 2 50.0 1 2 3 0 0 1 2 4 -
p109
aVGerald Wilkins VAN 04/02/1996 VAN @ POR L 22 5 2 4 50.0 1 2 50.0 0 0 - 0 0 0 2 2 0 1 2 -
p110
aVEric Mobley VAN 04/02/1996 VAN @ POR L 14 2 1 3 33.3 0 0 - 0 2 0.0 2 1 3 0 0 0 2 1 -
p111
aVAnthony Avent VAN 04/02/1996 VAN @ POR L 19 10 4 9 44.4 0 0 - 2 2 100.0 2 6 8 1 0 0 1 1 -
p112
aVLawrence Moten VAN 04/02/1996 VAN @ POR L 24 7 1 8 12.5 0 1 0.0 5 6 83.3 2 2 4 3 2 0 2 1 -
p113
aVByron Scott VAN 04/02/1996 VAN @ POR L 8 6 2 4 50.0 0 0 - 2 2 100.0 0 0 0 0 0 0 0 0 -
p114
aVGreg Anthony VAN 04/02/1996 VAN @ POR L 26 16 6 10 60.0 2 4 50.0 2 4 50.0 0 1 1 6 3 0 1 0 -
p115
aVBlue Edwards VAN 04/02/1996 VAN @ POR L 26 2 0 9 0.0 0 0 - 2 2 100.0 2 1 3 0 1 0 3 1 -
p116
aVEric Murdock VAN 04/02/1996 VAN @ POR L 22 3 1 5 20.0 1 3 33.3 0 0 - 0 3 3 4 2 0 1 2 -
p117
aVChris King VAN 04/02/1996 VAN @ POR L 16 12 3 6 50.0 2 4 50.0 4 4 100.0 1 2 3 2 0 0 0 3 -
p118
aVAshraf Amaya VAN 04/02/1996 VAN @ POR L 20 7 2 5 40.0 0 0 - 3 4 75.0 1 3 4 1 0 0 2 4 -
p119
aVRichard Manning VAN 04/02/1996 VAN @ POR L 15 2 1 6 16.7 0 0 - 0 0 - 0 1 1 0 0 0 0 1 -
p120
aVRichard Manning VAN 03/31/1996 VAN vs. CHH L 15 0 0 3 0.0 0 1 0.0 0 0 - 0 3 3 1 0 0 0 2 -
p121
aVEric Mobley VAN 03/31/1996 VAN vs. CHH L 13 0 0 2 0.0 0 0 - 0 0 - 0 3 3 1 0 0 1 0 -
p122
aVByron Scott VAN 03/31/1996 VAN vs. CHH L 16 8 3 8 37.5 1 3 33.3 1 1 100.0 1 1 2 0 0 0 0 1 -
p123
aVGreg Anthony VAN 03/31/1996 VAN vs. CHH L 27 15 4 11 36.4 1 5 20.0 6 6 100.0 0 0 0 5 3 0 2 3 -
p124
aVChris King VAN 03/31/1996 VAN vs. CHH L 20 7 3 10 30.0 1 4 25.0 0 0 - 1 1 2 0 0 0 0 2 -
p125
aVBlue Edwards VAN 03/31/1996 VAN vs. CHH L 25 10 5 9 55.6 0 1 0.0 0 0 - 1 1 2 2 1 0 1 3 -
p126
aVAshraf Amaya VAN 03/31/1996 VAN vs. CHH L 28 8 4 9 44.4 0 0 - 0 0 - 6 6 12 0 0 0 0 3 -
p127
aVEric Murdock VAN 03/31/1996 VAN vs. CHH L 21 5 1 3 33.3 1 1 100.0 2 2 100.0 0 2 2 1 2 0 2 2 -
p128
aVGerald Wilkins VAN 03/31/1996 VAN vs. CHH L 26 2 1 6 16.7 0 2 0.0 0 0 - 0 1 1 3 0 0 1 2 -
p129
aVBryant Reeves VAN 03/31/1996 VAN vs. CHH L 31 17 5 14 35.7 0 0 - 7 8 87.5 3 6 9 3 1 0 1 3 -
p130
aVLawrence Moten VAN 03/31/1996 VAN vs. CHH L 18 16 7 11 63.6 2 3 66.7 0 0 - 3 0 3 0 0 0 1 2 -
p131
aVBlue Edwards VAN 03/29/1996 VAN @ UTH L 39 26 9 14 64.3 2 3 66.7 6 6 100.0 0 2 2 1 1 1 2 5 -
p132
aVGerald Wilkins VAN 03/29/1996 VAN @ UTH L 34 11 5 12 41.7 1 4 25.0 0 0 - 3 2 5 4 0 0 1 0 -
p133
aVRichard Manning VAN 03/29/1996 VAN @ UTH L 11 2 1 4 25.0 0 0 - 0 0 - 0 0 0 0 0 0 2 1 -
p134
aVAnthony Avent VAN 03/29/1996 VAN @ UTH L 11 0 0 4 0.0 0 0 - 0 0 - 0 2 2 2 0 0 0 1 -
p135
aVBryant Reeves VAN 03/29/1996 VAN @ UTH L 37 12 5 12 41.7 0 0 - 2 2 100.0 2 5 7 3 0 0 3 5 -
p136
aVByron Scott VAN 03/29/1996 VAN @ UTH L 23 17 6 10 60.0 0 1 0.0 5 6 83.3 1 4 5 2 2 2 1 1 -
p137
aVAshraf Amaya VAN 03/29/1996 VAN @ UTH L 14 3 0 5 0.0 0 0 - 3 4 75.0 3 2 5 1 0 0 0 5 -
p138
aVEric Mobley VAN 03/29/1996 VAN @ UTH L 23 1 0 1 0.0 0 0 - 1 2 50.0 0 5 5 0 1 0 1 3 -
p139
aVGreg Anthony VAN 03/29/1996 VAN @ UTH L 32 12 3 8 37.5 2 5 40.0 4 4 100.0 0 2 2 4 3 0 1 3 -
p140
aVEric Murdock VAN 03/29/1996 VAN @ UTH L 16 7 2 8 25.0 0 0 - 3 4 75.0 0 1 1 6 3 0 0 2 -
p141
aVBryant Reeves VAN 03/28/1996 VAN vs. DEN L 40 21 7 19 36.8 0 0 - 7 8 87.5 6 5 11 2 0 1 1 3 -
p142
aVBlue Edwards VAN 03/28/1996 VAN vs. DEN L 36 17 8 13 61.5 0 2 0.0 1 1 100.0 1 5 6 2 0 1 1 1 -
p143
aVGreg Anthony VAN 03/28/1996 VAN vs. DEN L 32 16 6 12 50.0 4 7 57.1 0 0 - 0 3 3 8 4 1 2 3 -
p144
aVEric Mobley VAN 03/28/1996 VAN vs. DEN L 16 2 1 3 33.3 0 0 - 0 0 - 3 1 4 1 0 3 1 2 -
p145
aVByron Scott VAN 03/28/1996 VAN vs. DEN L 22 10 4 12 33.3 2 7 28.6 0 0 - 2 2 4 1 1 1 1 4 -
p146
aVChris King VAN 03/28/1996 VAN vs. DEN L 1 0 0 0 - 0 0 - 0 0 - 0 0 0 0 0 0 0 0 -
p147
aVEric Murdock VAN 03/28/1996 VAN vs. DEN L 16 5 2 4 50.0 1 1 100.0 0 0 - 0 0 0 2 1 0 1 2 -
p148
aVAshraf Amaya VAN 03/28/1996 VAN vs. DEN L 21 8 3 8 37.5 0 0 - 2 2 100.0 1 4 5 2 1 0 1 4 -
p149
aVGerald Wilkins VAN 03/28/1996 VAN vs. DEN L 38 6 3 9 33.3 0 3 0.0 0 0 - 1 3 4 7 0 0 0 2 -
p150
aVAnthony Avent VAN 03/28/1996 VAN vs. DEN L 18 3 1 5 20.0 0 0 - 1 4 25.0 0 3 3 2 0 1 0 2 -
p151
aVGreg Anthony VAN 03/26/1996 VAN @ DET L 32 12 4 12 33.3 2 3 66.7 2 2 100.0 0 1 1 7 1 0 1 0 -
p152
aVAnthony Avent VAN 03/26/1996 VAN @ DET L 7 2 1 3 33.3 0 0 - 0 0 - 0 0 0 0 0 0 0 1 -
p153
aVEric Murdock VAN 03/26/1996 VAN @ DET L 25 3 1 4 25.0 0 0 - 1 2 50.0 0 4 4 3 1 0 1 0 -
p154
aVChris King VAN 03/26/1996 VAN @ DET L 24 3 1 8 12.5 0 1 0.0 1 2 50.0 1 3 4 1 0 1 2 1 -
p155
aVByron Scott VAN 03/26/1996 VAN @ DET L 33 13 3 11 27.3 2 5 40.0 5 9 55.6 2 3 5 3 0 1 1 1 -
p156
aVAshraf Amaya VAN 03/26/1996 VAN @ DET L 39 12 4 9 44.4 0 0 - 4 6 66.7 3 7 10 0 1 0 0 5 -
p157
aVBlue Edwards VAN 03/26/1996 VAN @ DET L 35 8 4 13 30.8 0 1 0.0 0 0 - 3 5 8 5 1 0 2 3 -
p158
aVBryant Reeves VAN 03/26/1996 VAN @ DET L 41 22 10 20 50.0 0 0 - 2 7 28.6 1 8 9 1 1 0 3 4 -
p159
aVLawrence Moten VAN 03/26/1996 VAN @ DET L 4 0 0 2 0.0 0 0 - 0 0 - 0 0 0 0 0 0 0 1 -
p160
aVChris King VAN 03/24/1996 VAN @ CLE L 32 20 6 14 42.9 3 4 75.0 5 6 83.3 1 6 7 1 4 1 0 3 -
p161
aVGerald Wilkins VAN 03/24/1996 VAN @ CLE L 38 10 4 9 44.4 2 4 50.0 0 0 - 1 0 1 2 1 0 2 1 -
p162
aVBlue Edwards VAN 03/24/1996 VAN @ CLE L 39 16 6 13 46.2 0 1 0.0 4 4 100.0 1 4 5 4 0 1 1 4 -
p163
aVAshraf Amaya VAN 03/24/1996 VAN @ CLE L 12 2 1 2 50.0 0 0 - 0 0 - 0 2 2 0 0 0 0 1 -
p164
aVBryant Reeves VAN 03/24/1996 VAN @ CLE L 38 10 4 10 40.0 0 0 - 2 4 50.0 4 8 12 2 0 1 1 1 -
p165
aVAnthony Avent VAN 03/24/1996 VAN @ CLE L 14 4 2 5 40.0 0 0 - 0 0 - 0 1 1 1 0 1 1 2 -
p166
aVByron Scott VAN 03/24/1996 VAN @ CLE L 19 16 5 11 45.5 1 3 33.3 5 5 100.0 0 2 2 1 2 0 2 2 -
p167
aVGreg Anthony VAN 03/24/1996 VAN @ CLE L 29 5 2 9 22.2 0 2 0.0 1 1 100.0 0 0 0 8 1 0 3 4 -
p168
aVEric Murdock VAN 03/24/1996 VAN @ CLE L 19 2 1 3 33.3 0 0 - 0 0 - 1 2 3 5 2 0 1 1 -
p169
aVChris King VAN 03/22/1996 VAN @ IND L 11 0 0 3 0.0 0 2 0.0 0 0 - 0 2 2 0 0 0 0 0 -
p170
aVGreg Anthony VAN 03/22/1996 VAN @ IND L 30 11 4 12 33.3 1 5 20.0 2 2 100.0 0 0 0 9 2 0 1 0 -
p171
aVEric Murdock VAN 03/22/1996 VAN @ IND L 18 9 3 7 42.9 1 3 33.3 2 4 50.0 0 0 0 3 4 0 1 5 -
p172
aVBryant Reeves VAN 03/22/1996 VAN @ IND L 39 19 7 13 53.8 0 0 - 5 7 71.4 5 4 9 3 0 0 2 5 -
p173
aVBlue Edwards VAN 03/22/1996 VAN @ IND L 23 15 7 10 70.0 1 1 100.0 0 0 - 2 2 4 3 0 0 0 2 -
p174
aVGerald Wilkins VAN 03/22/1996 VAN @ IND L 36 12 5 14 35.7 0 6 0.0 2 2 100.0 2 1 3 1 2 0 1 1 -
p175
aVLawrence Moten VAN 03/22/1996 VAN @ IND L 8 6 2 3 66.7 0 0 - 2 4 50.0 0 1 1 0 0 0 1 2 -
p176
aVAnthony Avent VAN 03/22/1996 VAN @ IND L 24 6 2 8 25.0 0 0 - 2 2 100.0 1 3 4 1 1 0 4 1 -
p177
aVAshraf Amaya VAN 03/22/1996 VAN @ IND L 23 10 4 6 66.7 0 0 - 2 3 66.7 1 4 5 0 1 0 1 5 -
p178
aVByron Scott VAN 03/22/1996 VAN @ IND L 19 2 1 5 20.0 0 1 0.0 0 0 - 0 1 1 2 2 0 0 1 -
p179
aVRichard Manning VAN 03/22/1996 VAN @ IND L 9 4 2 2 100.0 0 0 - 0 0 - 0 1 1 0 0 0 0 1 -
p180
aVLawrence Moten VAN 03/20/1996 VAN @ ATL L 20 10 3 10 30.0 0 3 0.0 4 4 100.0 0 0 0 2 2 1 0 1 -
p181
aVEric Murdock VAN 03/20/1996 VAN @ ATL L 38 13 5 8 62.5 1 2 50.0 2 2 100.0 1 2 3 9 5 0 3 3 -
p182
aVByron Scott VAN 03/20/1996 VAN @ ATL L 25 18 8 12 66.7 2 6 33.3 0 0 - 0 2 2 0 2 0 1 1 -
p183
aVChris King VAN 03/20/1996 VAN @ ATL L 19 9 4 7 57.1 1 2 50.0 0 0 - 1 1 2 1 1 1 0 2 -
p184
aVAshraf Amaya VAN 03/20/1996 VAN @ ATL L 18 8 4 6 66.7 0 0 - 0 0 - 2 3 5 0 0 0 0 2 -
p185
aVBlue Edwards VAN 03/20/1996 VAN @ ATL L 27 5 2 6 33.3 0 1 0.0 1 4 25.0 0 0 0 3 4 0 1 3 -
p186
aVGerald Wilkins VAN 03/20/1996 VAN @ ATL L 38 8 4 12 33.3 0 6 0.0 0 0 - 2 1 3 5 1 0 5 4 -
p187
aVBryant Reeves VAN 03/20/1996 VAN @ ATL L 39 20 8 16 50.0 0 0 - 4 5 80.0 3 8 11 0 1 0 2 3 -
p188
aVRichard Manning VAN 03/20/1996 VAN @ ATL L 9 2 1 3 33.3 0 0 - 0 0 - 2 1 3 0 1 0 2 1 -
p189
aVAnthony Avent VAN 03/20/1996 VAN @ ATL L 7 0 0 0 - 0 0 - 0 0 - 1 1 2 1 1 0 1 2 -
p190
aVByron Scott VAN 03/19/1996 VAN @ NJN L 21 3 1 8 12.5 1 3 33.3 0 0 - 0 3 3 1 1 0 1 1 -
p191
aVEric Murdock VAN 03/19/1996 VAN @ NJN L 22 13 5 8 62.5 1 2 50.0 2 2 100.0 1 3 4 0 1 1 3 2 -
p192
aVGerald Wilkins VAN 03/19/1996 VAN @ NJN L 36 15 7 12 58.3 1 3 33.3 0 0 - 3 0 3 6 2 0 1 2 -
p193
aVAnthony Avent VAN 03/19/1996 VAN @ NJN L 22 0 0 4 0.0 0 0 - 0 0 - 0 5 5 0 0 0 2 4 -
p194
aVAshraf Amaya VAN 03/19/1996 VAN @ NJN L 25 6 2 8 25.0 0 0 - 2 3 66.7 4 1 5 1 2 0 3 4 -
p195
aVRichard Manning VAN 03/19/1996 VAN @ NJN L 8 8 4 8 50.0 0 0 - 0 0 - 0 1 1 1 0 0 0 0 -
p196
aVBlue Edwards VAN 03/19/1996 VAN @ NJN L 34 9 4 16 25.0 1 3 33.3 0 0 - 4 5 9 2 3 0 1 1 -
p197
aVChris King VAN 03/19/1996 VAN @ NJN L 6 3 1 1 100.0 1 1 100.0 0 0 - 0 0 0 0 0 0 1 0 -
p198
aVBryant Reeves VAN 03/19/1996 VAN @ NJN L 40 15 7 18 38.9 0 0 - 1 3 33.3 5 5 10 1 1 0 4 3 -
p199
aVGreg Anthony VAN 03/19/1996 VAN @ NJN L 26 5 2 6 33.3 1 3 33.3 0 0 - 0 1 1 4 3 0 1 2 -
p200
aVChris King VAN 03/17/1996 VAN @ MIN L 12 4 2 3 66.7 0 1 0.0 0 0 - 1 1 2 0 1 1 0 2 -
p201
aVAnthony Avent VAN 03/17/1996 VAN @ MIN L 18 11 4 11 36.4 0 0 - 3 3 100.0 4 2 6 0 0 0 0 1 -
p202
aVBlue Edwards VAN 03/17/1996 VAN @ MIN L 32 20 8 12 66.7 3 4 75.0 1 2 50.0 0 3 3 4 2 0 2 3 -
p203
aVBryant Reeves VAN 03/17/1996 VAN @ MIN L 37 26 10 17 58.8 0 0 - 6 8 75.0 2 9 11 1 2 0 4 4 -
p204
aVGerald Wilkins VAN 03/17/1996 VAN @ MIN L 36 2 1 9 11.1 0 2 0.0 0 2 0.0 1 9 10 6 1 0 1 2 -
p205
aVAshraf Amaya VAN 03/17/1996 VAN @ MIN L 27 2 1 3 33.3 0 0 - 0 4 0.0 0 1 1 2 2 0 1 3 -
p206
aVEric Murdock VAN 03/17/1996 VAN @ MIN L 35 11 5 10 50.0 1 1 100.0 0 0 - 0 3 3 13 0 1 4 5 -
p207
aVRichard Manning VAN 03/17/1996 VAN @ MIN L 6 0 0 0 - 0 0 - 0 0 - 0 1 1 0 0 0 0 2 -
p208
aVByron Scott VAN 03/17/1996 VAN @ MIN L 24 2 1 8 12.5 0 3 0.0 0 0 - 0 2 2 2 1 0 1 1 -
p209
aVLawrence Moten VAN 03/17/1996 VAN @ MIN L 13 7 1 2 50.0 0 0 - 5 8 62.5 0 0 0 0 0 1 2 1 -
p210
aVAshraf Amaya VAN 03/15/1996 VAN vs. ORL L 21 12 6 9 66.7 0 0 - 0 0 - 3 4 7 0 0 0 2 4 -
p211
aVByron Scott VAN 03/15/1996 VAN vs. ORL L 31 7 2 9 22.2 2 7 28.6 1 1 100.0 0 3 3 4 0 0 2 1 -
p212
aVLawrence Moten VAN 03/15/1996 VAN vs. ORL L 15 5 2 2 100.0 1 1 100.0 0 0 - 0 2 2 0 3 0 2 3 -
p213
aVRichard Manning VAN 03/15/1996 VAN vs. ORL L 9 2 1 2 50.0 0 0 - 0 0 - 0 2 2 0 0 0 0 2 -
p214
aVGerald Wilkins VAN 03/15/1996 VAN vs. ORL L 35 9 3 8 37.5 1 2 50.0 2 2 100.0 1 2 3 3 1 0 1 3 -
p215
aVBlue Edwards VAN 03/15/1996 VAN vs. ORL L 40 12 5 15 33.3 0 4 0.0 2 3 66.7 0 3 3 3 1 0 1 1 -
p216
aVBryant Reeves VAN 03/15/1996 VAN vs. ORL L 43 14 7 16 43.8 0 0 - 0 0 - 1 17 18 3 2 1 1 4 -
p217
aVAnthony Avent VAN 03/15/1996 VAN vs. ORL L 22 8 3 10 30.0 0 0 - 2 2 100.0 3 3 6 3 0 0 0 2 -
p218
aVChris King VAN 03/15/1996 VAN vs. ORL L 11 2 1 5 20.0 0 0 - 0 0 - 4 1 5 0 0 1 1 2 -
p219
aVEric Murdock VAN 03/15/1996 VAN vs. ORL L 38 16 7 16 43.8 2 3 66.7 0 0 - 0 4 4 6 2 0 1 3 -
p220
aVLawrence Moten VAN 03/11/1996 VAN @ SAC L 6 2 1 2 50.0 0 0 - 0 0 - 0 0 0 1 0 0 0 2 -
p221
aVAnthony Avent VAN 03/11/1996 VAN @ SAC L 23 4 0 5 0.0 0 0 - 4 4 100.0 0 4 4 0 0 2 1 0 -
p222
aVBryant Reeves VAN 03/11/1996 VAN @ SAC L 39 26 10 21 47.6 0 0 - 6 6 100.0 5 7 12 0 0 1 1 1 -
p223
aVGerald Wilkins VAN 03/11/1996 VAN @ SAC L 30 0 0 4 0.0 0 1 0.0 0 0 - 0 2 2 2 2 0 1 5 -
p224
aVRichard Manning VAN 03/11/1996 VAN @ SAC L 9 6 3 5 60.0 0 0 - 0 0 - 0 1 1 0 0 0 0 0 -
p225
aVChris King VAN 03/11/1996 VAN @ SAC L 11 0 0 2 0.0 0 1 0.0 0 0 - 0 0 0 2 1 0 0 2 -
p226
aVAshraf Amaya VAN 03/11/1996 VAN @ SAC L 25 8 3 6 50.0 0 0 - 2 2 100.0 1 3 4 0 0 1 1 2 -
p227
aVByron Scott VAN 03/11/1996 VAN @ SAC L 26 13 2 6 33.3 1 3 33.3 8 8 100.0 0 1 1 3 0 0 2 1 -
p228
aVEric Murdock VAN 03/11/1996 VAN @ SAC L 42 18 7 14 50.0 1 3 33.3 3 3 100.0 0 4 4 7 5 0 6 4 -
p229
aVBlue Edwards VAN 03/11/1996 VAN @ SAC L 29 11 4 8 50.0 1 3 33.3 2 2 100.0 1 3 4 2 0 0 2 2 -
p230
aVGerald Wilkins VAN 03/10/1996 VAN vs. HOU L 27 8 3 9 33.3 0 1 0.0 2 2 100.0 0 3 3 3 0 0 2 2 -
p231
aVLawrence Moten VAN 03/10/1996 VAN vs. HOU L 17 13 6 12 50.0 1 3 33.3 0 0 - 0 0 0 2 0 0 2 3 -
p232
aVBlue Edwards VAN 03/10/1996 VAN vs. HOU L 21 11 5 13 38.5 0 1 0.0 1 1 100.0 2 0 2 0 1 1 0 0 -
p233
aVAshraf Amaya VAN 03/10/1996 VAN vs. HOU L 24 2 0 1 0.0 0 0 - 2 2 100.0 2 7 9 2 0 0 0 1 -
p234
aVRichard Manning VAN 03/10/1996 VAN vs. HOU L 16 2 1 2 50.0 0 0 - 0 0 - 0 5 5 0 0 0 0 0 -
p235
aVEric Murdock VAN 03/10/1996 VAN vs. HOU L 35 12 5 16 31.3 0 2 0.0 2 4 50.0 2 2 4 8 6 0 4 2 -
p236
aVBryant Reeves VAN 03/10/1996 VAN vs. HOU L 32 8 3 11 27.3 0 0 - 2 2 100.0 3 9 12 0 0 0 3 5 -
p237
aVByron Scott VAN 03/10/1996 VAN vs. HOU L 27 14 5 7 71.4 1 2 50.0 3 4 75.0 0 2 2 2 1 0 3 1 -
p238
aVAnthony Avent VAN 03/10/1996 VAN vs. HOU L 24 2 0 1 0.0 0 0 - 2 2 100.0 0 4 4 4 2 0 0 3 -
p239
aVChris King VAN 03/10/1996 VAN vs. HOU L 17 17 6 8 75.0 4 6 66.7 1 1 100.0 0 1 1 1 0 0 0 2 -
p240
aVByron Scott VAN 03/08/1996 VAN vs. IND L 19 4 2 7 28.6 0 0 - 0 0 - 0 1 1 1 2 0 1 2 -
p241
aVEric Murdock VAN 03/08/1996 VAN vs. IND L 22 11 3 6 50.0 1 3 33.3 4 4 100.0 0 2 2 6 4 0 2 3 -
p242
aVGreg Anthony VAN 03/08/1996 VAN vs. IND L 26 5 1 6 16.7 1 3 33.3 2 3 66.7 0 2 2 5 3 1 2 1 -
p243
aVBryant Reeves VAN 03/08/1996 VAN vs. IND L 36 12 5 9 55.6 0 0 - 2 2 100.0 0 2 2 2 2 0 2 4 -
p244
aVAnthony Avent VAN 03/08/1996 VAN vs. IND L 22 6 3 8 37.5 0 0 - 0 0 - 1 5 6 0 0 2 1 0 -
p245
aVChris King VAN 03/08/1996 VAN vs. IND L 14 4 1 4 25.0 0 3 0.0 2 2 100.0 0 3 3 0 0 0 2 1 -
p246
aVRichard Manning VAN 03/08/1996 VAN vs. IND L 12 4 2 2 100.0 0 0 - 0 1 0.0 0 2 2 0 0 0 0 3 -
p247
aVLawrence Moten VAN 03/08/1996 VAN vs. IND L 4 5 2 2 100.0 0 0 - 1 2 50.0 2 0 2 2 0 0 0 0 -
p248
aVAshraf Amaya VAN 03/08/1996 VAN vs. IND L 25 10 4 8 50.0 0 0 - 2 2 100.0 3 4 7 0 0 0 2 4 -
p249
aVGerald Wilkins VAN 03/08/1996 VAN vs. IND L 32 9 4 9 44.4 0 3 0.0 1 1 100.0 1 2 3 1 1 0 0 3 -
p250
aVBlue Edwards VAN 03/08/1996 VAN vs. IND L 28 10 5 14 35.7 0 6 0.0 0 0 - 1 0 1 5 1 1 2 2 -
p251
aVRichard Manning VAN 03/05/1996 VAN @ GOS L 17 0 0 6 0.0 0 0 - 0 0 - 1 3 4 0 0 0 2 1 -
p252
aVDoug Edwards VAN 03/05/1996 VAN @ GOS L 13 2 1 4 25.0 0 0 - 0 0 - 1 0 1 0 0 1 1 1 -
p253
aVChris King VAN 03/05/1996 VAN @ GOS L 16 2 1 5 20.0 0 0 - 0 0 - 0 2 2 2 1 0 1 0 -
p254
aVAshraf Amaya VAN 03/05/1996 VAN @ GOS L 35 16 7 16 43.8 0 0 - 2 3 66.7 8 4 12 0 0 1 2 5 -
p255
aVBryant Reeves VAN 03/05/1996 VAN @ GOS L 31 14 6 11 54.5 0 0 - 2 4 50.0 2 1 3 2 2 3 3 5 -
p256
aVEric Murdock VAN 03/05/1996 VAN @ GOS L 19 4 1 7 14.3 0 2 0.0 2 2 100.0 0 2 2 6 4 0 0 1 -
p257
aVBlue Edwards VAN 03/05/1996 VAN @ GOS L 30 11 5 9 55.6 1 1 100.0 0 0 - 2 4 6 2 1 1 1 3 -
p258
aVLawrence Moten VAN 03/05/1996 VAN @ GOS L 10 5 2 8 25.0 0 0 - 1 2 50.0 2 0 2 0 0 0 1 2 -
p259
aVGreg Anthony VAN 03/05/1996 VAN @ GOS L 29 9 3 9 33.3 1 3 33.3 2 2 100.0 0 1 1 6 2 0 2 3 -
p260
aVByron Scott VAN 03/05/1996 VAN @ GOS L 16 10 3 10 30.0 0 2 0.0 4 4 100.0 0 2 2 2 1 0 0 0 -
p261
aVGerald Wilkins VAN 03/05/1996 VAN @ GOS L 24 5 2 7 28.6 1 2 50.0 0 0 - 1 0 1 1 1 0 1 2 -
p262
aVByron Scott VAN 03/04/1996 VAN vs. WAS L 22 20 7 8 87.5 4 5 80.0 2 2 100.0 0 4 4 1 1 0 1 0 -
p263
aVAshraf Amaya VAN 03/04/1996 VAN vs. WAS L 37 12 5 7 71.4 0 0 - 2 2 100.0 4 12 16 0 0 0 2 4 -
p264
aVGerald Wilkins VAN 03/04/1996 VAN vs. WAS L 22 10 5 8 62.5 0 1 0.0 0 0 - 1 0 1 1 0 0 1 1 -
p265
aVBryant Reeves VAN 03/04/1996 VAN vs. WAS L 37 19 7 17 41.2 0 0 - 5 6 83.3 4 3 7 1 0 1 2 3 -
p266
aVChris King VAN 03/04/1996 VAN vs. WAS L 24 5 2 3 66.7 1 1 100.0 0 0 - 0 1 1 2 4 1 1 2 -
p267
aVRichard Manning VAN 03/04/1996 VAN vs. WAS L 11 2 1 4 25.0 0 0 - 0 0 - 1 0 1 0 0 0 0 2 -
p268
aVEric Murdock VAN 03/04/1996 VAN vs. WAS L 18 0 0 8 0.0 0 1 0.0 0 0 - 0 0 0 6 0 0 1 0 -
p269
aVDoug Edwards VAN 03/04/1996 VAN vs. WAS L 11 0 0 2 0.0 0 0 - 0 0 - 1 1 2 0 0 0 0 0 -
p270
aVBlue Edwards VAN 03/04/1996 VAN vs. WAS L 28 7 3 9 33.3 1 3 33.3 0 0 - 1 4 5 1 1 1 6 3 -
p271
aVGreg Anthony VAN 03/04/1996 VAN vs. WAS L 30 6 2 10 20.0 1 4 25.0 1 3 33.3 1 0 1 6 0 1 2 2 -
p272
aVAnthony Avent VAN 03/02/1996 VAN @ DEN L 2 0 0 1 0.0 0 0 - 0 0 - 0 0 0 0 0 0 0 0 -
p273
aVAshraf Amaya VAN 03/02/1996 VAN @ DEN L 33 14 5 11 45.5 0 0 - 4 6 66.7 4 0 4 0 0 0 2 4 -
p274
aVDoug Edwards VAN 03/02/1996 VAN @ DEN L 15 2 1 6 16.7 0 1 0.0 0 0 - 0 1 1 0 0 0 0 1 -
p275
aVChris King VAN 03/02/1996 VAN @ DEN L 27 8 2 9 22.2 0 2 0.0 4 4 100.0 0 6 6 3 1 2 2 4 -
p276
aVRichard Manning VAN 03/02/1996 VAN @ DEN L 18 13 6 9 66.7 0 0 - 1 2 50.0 1 3 4 0 1 0 3 2 -
p277
aVByron Scott VAN 03/02/1996 VAN @ DEN L 6 2 1 3 33.3 0 2 0.0 0 0 - 0 0 0 1 0 0 0 0 -
p278
aVGerald Wilkins VAN 03/02/1996 VAN @ DEN L 22 3 1 5 20.0 0 0 - 1 2 50.0 1 1 2 1 1 0 0 4 -
p279
aVLawrence Moten VAN 03/02/1996 VAN @ DEN L 27 8 3 12 25.0 1 5 20.0 1 2 50.0 1 1 2 3 2 1 3 4 -
p280
aVBlue Edwards VAN 03/02/1996 VAN @ DEN L 22 10 4 9 44.4 1 3 33.3 1 2 50.0 1 5 6 1 1 0 0 4 -
p281
aVEric Murdock VAN 03/02/1996 VAN @ DEN L 38 9 2 8 25.0 0 3 0.0 5 6 83.3 0 2 2 10 1 0 4 5 -
p282
aVBryant Reeves VAN 03/02/1996 VAN @ DEN L 30 13 6 12 50.0 0 0 - 1 3 33.3 2 8 10 1 1 1 1 2 -
p283
aVGerald Wilkins VAN 03/01/1996 VAN vs. DAL L 15 4 2 6 33.3 0 1 0.0 0 0 - 0 2 2 1 1 0 0 2 -
p284
aVChris King VAN 03/01/1996 VAN vs. DAL L 25 8 3 7 42.9 2 3 66.7 0 0 - 1 10 11 3 2 0 1 2 -
p285
aVLawrence Moten VAN 03/01/1996 VAN vs. DAL L 4 1 0 0 - 0 0 - 1 2 50.0 0 0 0 0 0 0 1 1 -
p286
aVGreg Anthony VAN 03/01/1996 VAN vs. DAL L 24 5 2 6 33.3 1 4 25.0 0 0 - 0 0 0 7 3 0 2 1 -
p287
aVEric Murdock VAN 03/01/1996 VAN vs. DAL L 29 20 9 15 60.0 1 3 33.3 1 1 100.0 0 3 3 3 1 0 3 4 -
p288
aVBryant Reeves VAN 03/01/1996 VAN vs. DAL L 40 23 9 14 64.3 0 0 - 5 6 83.3 3 4 7 3 0 1 6 3 -
p289
aVDoug Edwards VAN 03/01/1996 VAN vs. DAL L 10 2 1 1 100.0 0 0 - 0 0 - 1 1 2 2 0 0 1 2 -
p290
aVAshraf Amaya VAN 03/01/1996 VAN vs. DAL L 19 18 8 9 88.9 0 0 - 2 3 66.7 2 1 3 0 0 0 2 2 -
p291
aVByron Scott VAN 03/01/1996 VAN vs. DAL L 29 9 3 9 33.3 0 2 0.0 3 4 75.0 0 5 5 1 1 0 1 1 -
p292
aVBlue Edwards VAN 03/01/1996 VAN vs. DAL L 41 15 5 15 33.3 1 3 33.3 4 4 100.0 3 10 13 11 2 1 1 5 -
p293
aVRichard Manning VAN 03/01/1996 VAN vs. DAL L 4 6 3 5 60.0 0 0 - 0 0 - 1 0 1 0 0 0 1 1 -
p294
aVBlue Edwards VAN 02/28/1996 VAN vs. LAL L 32 11 4 12 33.3 3 5 60.0 0 0 - 1 3 4 0 1 1 0 1 -
p295
aVDoug Edwards VAN 02/28/1996 VAN vs. LAL L 9 4 1 3 33.3 0 0 - 2 2 100.0 2 1 3 1 0 0 1 1 -
p296
aVLawrence Moten VAN 02/28/1996 VAN vs. LAL L 4 6 3 4 75.0 0 0 - 0 0 - 0 1 1 0 0 0 1 1 -
p297
aVByron Scott VAN 02/28/1996 VAN vs. LAL L 24 11 4 7 57.1 0 1 0.0 3 4 75.0 1 1 2 0 3 0 0 2 -
p298
aVAshraf Amaya VAN 02/28/1996 VAN vs. LAL L 24 10 5 5 100.0 0 0 - 0 0 - 3 8 11 0 0 1 1 2 -
p299
aVEric Murdock VAN 02/28/1996 VAN vs. LAL L 12 3 1 3 33.3 0 1 0.0 1 2 50.0 0 1 1 3 0 0 0 0 -
p300
aVGreg Anthony VAN 02/28/1996 VAN vs. LAL L 36 9 3 12 25.0 0 4 0.0 3 4 75.0 0 2 2 8 2 0 0 1 -
p301
aVChris King VAN 02/28/1996 VAN vs. LAL L 21 2 0 6 0.0 0 1 0.0 2 2 100.0 1 2 3 2 0 0 1 3 -
p302
aVGerald Wilkins VAN 02/28/1996 VAN vs. LAL L 12 0 0 2 0.0 0 1 0.0 0 0 - 1 0 1 0 0 0 2 0 -
p303
aVAnthony Avent VAN 02/28/1996 VAN vs. LAL L 18 2 1 3 33.3 0 0 - 0 0 - 1 5 6 0 0 0 2 4 -
p304
aVRichard Manning VAN 02/28/1996 VAN vs. LAL L 6 0 0 3 0.0 0 0 - 0 0 - 0 2 2 0 0 0 0 2 -
p305
aVBryant Reeves VAN 02/28/1996 VAN vs. LAL L 42 22 9 21 42.9 0 0 - 4 4 100.0 3 2 5 1 1 3 6 3 -
p306
aVRichard Manning VAN 02/25/1996 VAN vs. SAN L 10 4 2 4 50.0 0 0 - 0 0 - 0 0 0 0 0 0 0 0 -
p307
aVBryant Reeves VAN 02/25/1996 VAN vs. SAN L 38 22 9 18 50.0 0 0 - 4 4 100.0 4 6 10 2 1 0 3 2 -
p308
aVEric Murdock VAN 02/25/1996 VAN vs. SAN L 11 2 1 3 33.3 0 0 - 0 0 - 1 0 1 1 0 0 1 0 -
p309
aVGerald Wilkins VAN 02/25/1996 VAN vs. SAN L 6 0 0 1 0.0 0 0 - 0 0 - 1 1 2 1 0 0 0 0 -
p310
aVBlue Edwards VAN 02/25/1996 VAN vs. SAN L 33 15 7 16 43.8 1 4 25.0 0 4 0.0 1 3 4 2 0 0 4 3 -
p311
aVByron Scott VAN 02/25/1996 VAN vs. SAN L 21 4 2 8 25.0 0 2 0.0 0 0 - 0 2 2 1 0 0 2 5 -
p312
aVDoug Edwards VAN 02/25/1996 VAN vs. SAN L 16 4 0 1 0.0 0 0 - 4 4 100.0 2 3 5 0 0 0 1 2 -
p313
aVChris King VAN 02/25/1996 VAN vs. SAN L 27 13 6 7 85.7 0 0 - 1 2 50.0 1 1 2 1 3 0 0 1 -
p314
aVAnthony Avent VAN 02/25/1996 VAN vs. SAN L 20 2 1 7 14.3 0 0 - 0 0 - 3 3 6 0 0 1 2 3 -
p315
aVGreg Anthony VAN 02/25/1996 VAN vs. SAN L 37 13 4 12 33.3 0 4 0.0 5 5 100.0 0 4 4 14 3 0 3 3 -
p316
aVAshraf Amaya VAN 02/25/1996 VAN vs. SAN L 21 5 2 6 33.3 0 0 - 1 2 50.0 3 4 7 1 0 0 0 3 -
p317
aVRichard Manning VAN 02/19/1996 VAN @ PHX L 13 4 1 2 50.0 0 0 - 2 2 100.0 0 1 1 1 0 5 0 3 -
p318
aVBryant Reeves VAN 02/19/1996 VAN @ PHX L 40 8 4 10 40.0 0 0 - 0 1 0.0 2 5 7 3 0 1 5 4 -
p319
aVChris King VAN 02/19/1996 VAN @ PHX L 21 11 5 7 71.4 1 1 100.0 0 0 - 1 2 3 4 1 0 1 3 -
p320
aVAshraf Amaya VAN 02/19/1996 VAN @ PHX L 24 10 4 4 100.0 0 0 - 2 3 66.7 1 4 5 0 0 0 0 3 -
p321
aVAnthony Avent VAN 02/19/1996 VAN @ PHX L 29 11 4 8 50.0 0 0 - 3 4 75.0 2 3 5 0 1 2 4 4 -
p322
aVByron Scott VAN 02/19/1996 VAN @ PHX L 31 14 4 12 33.3 2 6 33.3 4 4 100.0 0 4 4 4 0 0 1 3 -
p323
aVGreg Anthony VAN 02/19/1996 VAN @ PHX L 38 18 8 14 57.1 2 6 33.3 0 0 - 0 0 0 3 2 0 2 2 -
p324
aVEric Murdock VAN 02/19/1996 VAN @ PHX L 15 4 2 6 33.3 0 2 0.0 0 0 - 0 1 1 1 0 0 1 1 -
p325
aVBlue Edwards VAN 02/19/1996 VAN @ PHX L 35 12 3 14 21.4 1 4 25.0 5 5 100.0 0 3 3 2 0 1 0 6 -
p326
aVDoug Edwards VAN 02/19/1996 VAN @ PHX L 19 2 1 1 100.0 0 0 - 0 0 - 2 2 4 3 0 2 1 0 -
p327
aVDoug Edwards VAN 02/18/1996 VAN vs. SEA L 23 2 1 2 50.0 0 0 - 0 0 - 2 4 6 1 0 2 2 6 -
p328
aVAshraf Amaya VAN 02/18/1996 VAN vs. SEA L 18 7 2 3 66.7 0 0 - 3 4 75.0 1 3 4 2 0 0 3 4 -
p329
aVBryant Reeves VAN 02/18/1996 VAN vs. SEA L 39 18 8 13 61.5 0 0 - 2 4 50.0 5 2 7 1 0 0 1 2 -
p330
aVBlue Edwards VAN 02/18/1996 VAN vs. SEA L 36 23 7 13 53.8 3 8 37.5 6 7 85.7 0 2 2 4 5 0 2 3 -
p331
aVChris King VAN 02/18/1996 VAN vs. SEA L 17 6 3 4 75.0 0 0 - 0 0 - 1 2 3 1 1 0 0 1 -
p332
aVByron Scott VAN 02/18/1996 VAN vs. SEA L 25 18 5 8 62.5 2 4 50.0 6 6 100.0 1 1 2 0 0 0 2 1 -
p333
aVAnthony Avent VAN 02/18/1996 VAN vs. SEA L 24 9 4 8 50.0 0 0 - 1 1 100.0 3 5 8 1 0 0 1 3 -
p334
aVEric Murdock VAN 02/18/1996 VAN vs. SEA L 13 4 1 6 16.7 0 1 0.0 2 2 100.0 1 2 3 4 0 0 0 2 -
p335
aVRichard Manning VAN 02/18/1996 VAN vs. SEA L 9 2 1 4 25.0 0 0 - 0 0 - 1 1 2 0 0 0 1 1 -
p336
aVGreg Anthony VAN 02/18/1996 VAN vs. SEA L 36 20 5 18 27.8 1 8 12.5 9 9 100.0 0 4 4 10 4 0 4 1 -
p337
aVGreg Anthony VAN 02/16/1996 VAN vs. ATL L 30 9 4 13 30.8 1 5 20.0 0 0 - 0 2 2 13 2 1 5 2 -
p338
aVDoug Edwards VAN 02/16/1996 VAN vs. ATL L 25 11 4 6 66.7 0 1 0.0 3 5 60.0 4 3 7 1 1 1 1 3 -
p339
aVEric Murdock VAN 02/16/1996 VAN vs. ATL L 18 13 5 10 50.0 1 5 20.0 2 2 100.0 0 2 2 5 2 0 3 3 -
p340
aVAshraf Amaya VAN 02/16/1996 VAN vs. ATL L 31 10 3 4 75.0 0 0 - 4 5 80.0 2 5 7 1 0 0 2 6 -
p341
aVAnthony Avent VAN 02/16/1996 VAN vs. ATL L 17 2 1 5 20.0 0 0 - 0 0 - 2 1 3 0 0 1 3 5 -
p342
aVBryant Reeves VAN 02/16/1996 VAN vs. ATL L 48 26 13 18 72.2 0 0 - 0 1 0.0 1 10 11 3 4 0 2 1 -
p343
aVByron Scott VAN 02/16/1996 VAN vs. ATL L 29 14 4 11 36.4 2 5 40.0 4 5 80.0 1 1 2 5 1 2 4 0 -
p344
aVBlue Edwards VAN 02/16/1996 VAN vs. ATL L 23 7 3 5 60.0 1 1 100.0 0 0 - 0 0 0 3 0 0 3 4 -
p345
aVChris King VAN 02/16/1996 VAN vs. ATL L 19 8 3 3 100.0 1 1 100.0 1 1 100.0 0 2 2 1 1 0 0 1 -
p346
aVAnthony Avent VAN 02/14/1996 VAN vs. SAC W 28 4 2 9 22.2 0 0 - 0 0 - 2 4 6 1 0 2 3 3 -
p347
aVChris King VAN 02/14/1996 VAN vs. SAC W 26 6 3 6 50.0 0 0 - 0 0 - 2 1 3 1 1 2 3 1 -
p348
aVBlue Edwards VAN 02/14/1996 VAN vs. SAC W 37 13 3 11 27.3 0 0 - 7 7 100.0 1 3 4 4 2 2 2 3 -
p349
aVAshraf Amaya VAN 02/14/1996 VAN vs. SAC W 20 5 2 6 33.3 0 0 - 1 2 50.0 2 5 7 0 1 1 0 3 -
p350
aVDoug Edwards VAN 02/14/1996 VAN vs. SAC W 16 4 2 2 100.0 0 0 - 0 0 - 1 3 4 0 0 1 0 2 -
p351
aVRichard Manning VAN 02/14/1996 VAN vs. SAC W 8 5 1 2 50.0 0 0 - 3 4 75.0 1 4 5 0 0 0 0 0 -
p352
aVByron Scott VAN 02/14/1996 VAN vs. SAC W 18 15 2 8 25.0 0 2 0.0 11 16 68.8 1 1 2 1 1 0 0 2 -
p353
aVGreg Anthony VAN 02/14/1996 VAN vs. SAC W 32 21 7 13 53.8 4 7 57.1 3 4 75.0 1 0 1 7 3 0 2 1 -
p354
aVBryant Reeves VAN 02/14/1996 VAN vs. SAC W 39 14 5 13 38.5 0 0 - 4 4 100.0 2 9 11 2 1 1 1 1 -
p355
aVEric Murdock VAN 02/14/1996 VAN vs. SAC W 16 6 2 4 50.0 1 1 100.0 1 2 50.0 2 2 4 5 2 0 1 1 -
p356
aVRichard Manning VAN 02/07/1996 VAN @ UTH L 14 4 2 5 40.0 0 0 - 0 2 0.0 2 0 2 0 0 0 1 0 -
p357
aVGreg Anthony VAN 02/07/1996 VAN @ UTH L 21 7 3 10 30.0 1 4 25.0 0 0 - 0 1 1 6 4 0 4 1 -
p358
aVBryant Reeves VAN 02/07/1996 VAN @ UTH L 34 4 2 6 33.3 0 0 - 0 0 - 0 5 5 2 0 0 1 1 -
p359
aVBlue Edwards VAN 02/07/1996 VAN @ UTH L 34 14 6 12 50.0 0 4 0.0 2 2 100.0 2 1 3 1 0 3 3 2 -
p360
aVEric Murdock VAN 02/07/1996 VAN @ UTH L 27 16 5 13 38.5 1 5 20.0 5 9 55.6 0 1 1 2 3 0 2 1 -
p361
aVAshraf Amaya VAN 02/07/1996 VAN @ UTH L 20 5 1 1 100.0 0 0 - 3 4 75.0 1 3 4 0 0 0 2 4 -
p362
aVDoug Edwards VAN 02/07/1996 VAN @ UTH L 14 2 1 3 33.3 0 0 - 0 0 - 0 0 0 0 0 2 0 1 -
p363
aVLawrence Moten VAN 02/07/1996 VAN @ UTH L 9 1 0 4 0.0 0 0 - 1 2 50.0 0 0 0 1 0 0 0 1 -
p364
aVAnthony Avent VAN 02/07/1996 VAN @ UTH L 28 14 5 5 100.0 0 0 - 4 4 100.0 2 3 5 1 0 0 0 3 -
p365
aVByron Scott VAN 02/07/1996 VAN @ UTH L 22 10 4 9 44.4 0 3 0.0 2 2 100.0 0 5 5 0 0 0 2 1 -
p366
aVChris King VAN 02/07/1996 VAN @ UTH L 17 2 1 3 33.3 0 1 0.0 0 0 - 1 2 3 1 1 0 1 2 -
p367
aVBryant Reeves VAN 02/05/1996 VAN vs. UTH L 42 11 3 11 27.3 0 0 - 5 6 83.3 2 12 14 3 0 0 2 3 -
p368
aVAnthony Avent VAN 02/05/1996 VAN vs. UTH L 30 14 7 10 70.0 0 0 - 0 0 - 2 6 8 0 0 1 2 4 -
p369
aVDoug Edwards VAN 02/05/1996 VAN vs. UTH L 16 2 1 3 33.3 0 0 - 0 0 - 0 1 1 0 0 0 2 2 -
p370
aVEric Murdock VAN 02/05/1996 VAN vs. UTH L 15 8 4 7 57.1 0 0 - 0 0 - 1 0 1 2 1 0 1 2 -
p371
aVGreg Anthony VAN 02/05/1996 VAN vs. UTH L 33 12 3 7 42.9 2 4 50.0 4 4 100.0 0 2 2 5 1 0 5 3 -
p372
aVChris King VAN 02/05/1996 VAN vs. UTH L 26 5 2 4 50.0 0 1 0.0 1 2 50.0 0 2 2 1 1 0 0 1 -
p373
aVEric Mobley VAN 02/05/1996 VAN vs. UTH L 11 0 0 0 - 0 0 - 0 0 - 0 0 0 0 0 0 1 1 -
p374
aVByron Scott VAN 02/05/1996 VAN vs. UTH L 23 19 7 14 50.0 0 2 0.0 5 7 71.4 1 1 2 1 2 0 0 0 -
p375
aVBlue Edwards VAN 02/05/1996 VAN vs. UTH L 32 12 3 8 37.5 1 3 33.3 5 6 83.3 0 2 2 6 0 0 3 5 -
p376
aVAshraf Amaya VAN 02/05/1996 VAN vs. UTH L 12 0 0 1 0.0 0 0 - 0 0 - 0 2 2 0 0 0 0 2 -
p377
aVBryant Reeves VAN 02/02/1996 VAN vs. NJN L 45 12 6 16 37.5 0 0 - 0 0 - 1 9 10 1 0 1 2 2 -
p378
aVGreg Anthony VAN 02/02/1996 VAN vs. NJN L 32 19 7 18 38.9 1 6 16.7 4 6 66.7 2 2 4 6 2 0 1 3 -
p379
aVBlue Edwards VAN 02/02/1996 VAN vs. NJN L 35 15 6 15 40.0 2 7 28.6 1 3 33.3 1 5 6 3 0 1 1 2 -
p380
aVByron Scott VAN 02/02/1996 VAN vs. NJN L 27 27 10 13 76.9 4 6 66.7 3 5 60.0 0 1 1 4 1 0 0 3 -
p381
aVAnthony Avent VAN 02/02/1996 VAN vs. NJN L 26 4 2 7 28.6 0 0 - 0 0 - 2 0 2 2 0 0 1 3 -
p382
aVEric Murdock VAN 02/02/1996 VAN vs. NJN L 16 3 1 4 25.0 1 2 50.0 0 0 - 1 1 2 5 2 0 0 2 -
p383
aVEric Mobley VAN 02/02/1996 VAN vs. NJN L 7 0 0 1 0.0 0 0 - 0 2 0.0 0 0 0 0 0 0 1 0 -
p384
aVDoug Edwards VAN 02/02/1996 VAN vs. NJN L 21 0 0 2 0.0 0 0 - 0 0 - 0 2 2 3 0 1 0 6 -
p385
aVRichard Manning VAN 02/02/1996 VAN vs. NJN L 11 2 1 3 33.3 0 0 - 0 0 - 2 2 4 1 0 0 0 1 -
p386
aVChris King VAN 02/02/1996 VAN vs. NJN L 20 2 1 3 33.3 0 1 0.0 0 0 - 2 4 6 1 0 0 1 1 -
p387
aVAshraf Amaya VAN 01/31/1996 VAN @ BOS L 13 3 1 7 14.3 0 0 - 1 1 100.0 3 2 5 0 1 0 0 2 -
p388
aVBryant Reeves VAN 01/31/1996 VAN @ BOS L 34 16 7 11 63.6 0 0 - 2 3 66.7 4 4 8 4 0 0 2 2 -
p389
aVBlue Edwards VAN 01/31/1996 VAN @ BOS L 23 13 6 14 42.9 0 2 0.0 1 2 50.0 2 3 5 0 0 0 1 4 -
p390
aVEric Mobley VAN 01/31/1996 VAN @ BOS L 16 6 2 4 50.0 0 0 - 2 4 50.0 1 2 3 2 1 0 0 4 -
p391
aVGreg Anthony VAN 01/31/1996 VAN @ BOS L 30 9 2 10 20.0 2 6 33.3 3 4 75.0 0 3 3 8 1 0 4 2 -
p392
aVChris King VAN 01/31/1996 VAN @ BOS L 24 8 3 9 33.3 0 1 0.0 2 3 66.7 2 2 4 0 1 1 2 4 -
p393
aVAnthony Avent VAN 01/31/1996 VAN @ BOS L 15 4 2 4 50.0 0 0 - 0 0 - 0 4 4 0 0 0 1 4 -
p394
aVLawrence Moten VAN 01/31/1996 VAN @ BOS L 6 0 0 5 0.0 0 1 0.0 0 0 - 1 0 1 2 0 0 0 0 -
p395
aVDoug Edwards VAN 01/31/1996 VAN @ BOS L 16 0 0 2 0.0 0 0 - 0 0 - 0 0 0 0 0 1 0 0 -
p396
aVEric Murdock VAN 01/31/1996 VAN @ BOS L 27 16 6 14 42.9 2 5 40.0 2 2 100.0 0 5 5 1 0 0 4 2 -
p397
aVByron Scott VAN 01/31/1996 VAN @ BOS L 30 16 6 12 50.0 1 4 25.0 3 4 75.0 1 2 3 1 1 1 1 2 -
p398
aVRichard Manning VAN 01/31/1996 VAN @ BOS L 6 7 2 3 66.7 0 0 - 3 3 100.0 0 3 3 1 0 0 0 0 -
p399
aVEric Murdock VAN 01/29/1996 VAN @ PHL L 24 7 2 8 25.0 0 1 0.0 3 4 75.0 1 4 5 6 3 0 1 3 -
p400
aVAnthony Avent VAN 01/29/1996 VAN @ PHL L 9 4 2 4 50.0 0 0 - 0 0 - 2 1 3 0 0 0 0 2 -
p401
aVLawrence Moten VAN 01/29/1996 VAN @ PHL L 5 2 1 2 50.0 0 1 0.0 0 0 - 0 0 0 1 0 0 0 0 -
p402
aVChris King VAN 01/29/1996 VAN @ PHL L 15 2 1 4 25.0 0 1 0.0 0 2 0.0 1 0 1 0 0 0 4 2 -
p403
aVBlue Edwards VAN 01/29/1996 VAN @ PHL L 43 13 5 14 35.7 0 1 0.0 3 4 75.0 1 2 3 6 0 0 1 5 -
p404
aVEric Mobley VAN 01/29/1996 VAN @ PHL L 16 9 4 5 80.0 0 0 - 1 1 100.0 0 2 2 0 0 0 0 1 -
p405
aVBryant Reeves VAN 01/29/1996 VAN @ PHL L 39 16 6 14 42.9 0 0 - 4 4 100.0 2 4 6 1 4 1 4 2 -
p406
aVByron Scott VAN 01/29/1996 VAN @ PHL L 24 15 6 9 66.7 1 2 50.0 2 3 66.7 1 2 3 1 1 2 3 1 -
p407
aVGreg Anthony VAN 01/29/1996 VAN @ PHL L 33 18 6 14 42.9 5 8 62.5 1 2 50.0 1 2 3 6 0 0 3 3 -
p408
aVDoug Edwards VAN 01/29/1996 VAN @ PHL L 32 6 3 5 60.0 0 0 - 0 0 - 2 5 7 4 1 2 1 3 -
p409
aVEric Murdock VAN 01/27/1996 VAN @ WAS L 20 2 1 9 11.1 0 1 0.0 0 0 - 0 2 2 2 0 0 1 0 -
p410
aVLawrence Moten VAN 01/27/1996 VAN @ WAS L 9 6 2 5 40.0 1 1 100.0 1 2 50.0 1 1 2 1 1 0 1 0 -
p411
aVRichard Manning VAN 01/27/1996 VAN @ WAS L 3 4 2 2 100.0 0 0 - 0 0 - 1 0 1 0 0 0 0 0 -
p412
aVBlue Edwards VAN 01/27/1996 VAN @ WAS L 32 9 4 12 33.3 1 1 100.0 0 0 - 2 3 5 0 2 0 1 2 -
p413
aVByron Scott VAN 01/27/1996 VAN @ WAS L 17 6 2 7 28.6 1 3 33.3 1 2 50.0 1 2 3 2 0 0 3 2 -
p414
aVBryant Reeves VAN 01/27/1996 VAN @ WAS L 39 13 6 11 54.5 0 0 - 1 2 50.0 2 2 4 0 0 1 1 3 -
p415
aVChris King VAN 01/27/1996 VAN @ WAS L 21 9 3 6 50.0 1 2 50.0 2 3 66.7 2 1 3 1 0 0 1 1 -
p416
aVDoug Edwards VAN 01/27/1996 VAN @ WAS L 20 0 0 5 0.0 0 0 - 0 0 - 4 3 7 2 1 1 2 1 -
p417
aVAnthony Avent VAN 01/27/1996 VAN @ WAS L 28 12 6 10 60.0 0 0 - 0 2 0.0 2 3 5 1 0 1 1 2 -
p418
aVEric Mobley VAN 01/27/1996 VAN @ WAS L 21 6 3 6 50.0 0 0 - 0 1 0.0 2 1 3 0 1 2 0 1 -
p419
aVGreg Anthony VAN 01/27/1996 VAN @ WAS L 28 10 3 14 21.4 0 4 0.0 4 5 80.0 0 3 3 8 1 0 0 0 -
p420
aVAshraf Amaya VAN 01/27/1996 VAN @ WAS L 2 0 0 0 - 0 0 - 0 0 - 0 0 0 0 0 0 1 0 -
p421
aVByron Scott VAN 01/25/1996 VAN @ TOR W 26 16 4 8 50.0 2 3 66.7 6 6 100.0 0 4 4 2 2 0 1 2 -
p422
aVAnthony Avent VAN 01/25/1996 VAN @ TOR W 43 4 1 8 12.5 0 0 - 2 2 100.0 3 7 10 2 1 1 3 5 -
p423
aVBlue Edwards VAN 01/25/1996 VAN @ TOR W 38 17 5 13 38.5 1 5 20.0 6 6 100.0 2 3 5 1 2 2 2 3 -
p424
aVGreg Anthony VAN 01/25/1996 VAN @ TOR W 37 22 9 18 50.0 2 8 25.0 2 2 100.0 0 2 2 9 1 1 4 2 -
p425
aVEric Murdock VAN 01/25/1996 VAN @ TOR W 16 7 2 4 50.0 1 2 50.0 2 2 100.0 0 5 5 3 0 0 4 2 -
p426
aVEric Mobley VAN 01/25/1996 VAN @ TOR W 15 4 1 3 33.3 0 0 - 2 2 100.0 0 2 2 0 0 0 4 5 -
p427
aVChris King VAN 01/25/1996 VAN @ TOR W 26 10 3 5 60.0 2 4 50.0 2 2 100.0 1 1 2 2 0 1 1 2 -
p428
aVBryant Reeves VAN 01/25/1996 VAN @ TOR W 47 25 7 12 58.3 0 0 - 11 12 91.7 1 6 7 2 1 1 4 2 -
p429
aVDoug Edwards VAN 01/25/1996 VAN @ TOR W 17 1 0 2 0.0 0 0 - 1 2 50.0 2 1 3 2 0 0 0 0 -
p430
aVByron Scott VAN 01/24/1996 VAN @ CHI L 9 0 0 3 0.0 0 1 0.0 0 0 - 0 2 2 0 0 0 1 1 -
p431
aVLawrence Moten VAN 01/24/1996 VAN @ CHI L 10 3 1 3 33.3 0 0 - 1 2 50.0 1 0 1 1 0 0 1 0 -
p432
aVEric Mobley VAN 01/24/1996 VAN @ CHI L 28 12 5 6 83.3 0 0 - 2 4 50.0 0 5 5 0 1 0 4 5 -
p433
aVAnthony Avent VAN 01/24/1996 VAN @ CHI L 15 2 1 5 20.0 0 0 - 0 0 - 1 2 3 0 0 1 0 3 -
p434
aVAshraf Amaya VAN 01/24/1996 VAN @ CHI L 12 6 1 3 33.3 0 0 - 4 6 66.7 2 2 4 0 0 0 1 1 -
p435
aVBryant Reeves VAN 01/24/1996 VAN @ CHI L 36 23 9 18 50.0 0 0 - 5 5 100.0 2 3 5 1 1 1 0 0 -
p436
aVBlue Edwards VAN 01/24/1996 VAN @ CHI L 34 9 3 10 30.0 1 4 25.0 2 2 100.0 2 4 6 4 2 1 1 1 -
p437
aVChris King VAN 01/24/1996 VAN @ CHI L 24 7 3 8 37.5 1 2 50.0 0 0 - 2 2 4 2 0 0 1 3 -
p438
aVEric Murdock VAN 01/24/1996 VAN @ CHI L 27 6 2 7 28.6 1 2 50.0 1 2 50.0 0 2 2 5 3 1 4 1 -
p439
aVDoug Edwards VAN 01/24/1996 VAN @ CHI L 20 3 1 3 33.3 0 0 - 1 2 50.0 0 2 2 1 0 0 0 2 -
p440
aVGreg Anthony VAN 01/24/1996 VAN @ CHI L 25 13 4 10 40.0 1 3 33.3 4 6 66.7 1 4 5 3 0 0 4 1 -
p441
aVByron Scott VAN 01/22/1996 VAN @ MIL W 24 7 2 5 40.0 1 2 50.0 2 2 100.0 0 2 2 0 1 0 1 0 -
p442
aVBryant Reeves VAN 01/22/1996 VAN @ MIL W 39 22 7 13 53.8 0 0 - 8 13 61.5 3 8 11 2 0 0 2 1 -
p443
aVGreg Anthony VAN 01/22/1996 VAN @ MIL W 31 18 7 10 70.0 2 3 66.7 2 2 100.0 1 2 3 12 0 0 0 0 -
p444
aVKenny Gattison VAN 01/22/1996 VAN @ MIL W 5 2 1 2 50.0 0 0 - 0 2 0.0 0 1 1 0 0 0 0 1 -
p445
aVChris King VAN 01/22/1996 VAN @ MIL W 15 8 4 7 57.1 0 0 - 0 0 - 0 0 0 2 1 0 1 4 -
p446
aVEric Murdock VAN 01/22/1996 VAN @ MIL W 17 6 2 6 33.3 0 1 0.0 2 2 100.0 1 2 3 3 1 0 1 1 -
p447
aVDoug Edwards VAN 01/22/1996 VAN @ MIL W 22 6 2 7 28.6 0 0 - 2 4 50.0 1 2 3 2 0 0 1 3 -
p448
aVBlue Edwards VAN 01/22/1996 VAN @ MIL W 35 18 7 13 53.8 2 4 50.0 2 2 100.0 2 4 6 3 1 0 2 4 -
p449
aVAnthony Avent VAN 01/22/1996 VAN @ MIL W 38 4 2 7 28.6 0 0 - 0 0 - 1 6 7 1 1 0 3 6 -
p450
aVEric Mobley VAN 01/22/1996 VAN @ MIL W 14 9 3 5 60.0 0 0 - 3 7 42.9 2 0 2 1 0 0 0 4 -
p451
aVKenny Gattison VAN 01/20/1996 VAN vs. NYK W 17 8 3 6 50.0 0 0 - 2 4 50.0 0 0 0 0 1 1 1 4 -
p452
aVChris King VAN 01/20/1996 VAN vs. NYK W 19 2 0 1 0.0 0 1 0.0 2 2 100.0 2 3 5 1 0 0 1 1 -
p453
aVEric Murdock VAN 01/20/1996 VAN vs. NYK W 22 10 3 5 60.0 0 0 - 4 5 80.0 0 4 4 2 1 0 2 1 -
p454
aVByron Scott VAN 01/20/1996 VAN vs. NYK W 19 6 2 6 33.3 1 2 50.0 1 3 33.3 0 2 2 3 1 0 1 2 -
p455
aVEric Mobley VAN 01/20/1996 VAN vs. NYK W 14 7 3 5 60.0 0 0 - 1 4 25.0 4 4 8 0 1 1 2 3 -
p456
aVBlue Edwards VAN 01/20/1996 VAN vs. NYK W 33 13 4 10 40.0 3 6 50.0 2 2 100.0 0 1 1 6 1 0 4 2 -
p457
aVGreg Anthony VAN 01/20/1996 VAN vs. NYK W 32 14 4 11 36.4 1 4 25.0 5 7 71.4 1 2 3 4 4 0 1 2 -
p458
aVBryant Reeves VAN 01/20/1996 VAN vs. NYK W 37 14 6 12 50.0 0 0 - 2 2 100.0 2 8 10 3 0 0 3 2 -
p459
aVDoug Edwards VAN 01/20/1996 VAN vs. NYK W 20 4 1 1 100.0 0 0 - 2 4 50.0 0 3 3 0 1 0 1 1 -
p460
aVAnthony Avent VAN 01/20/1996 VAN vs. NYK W 27 6 2 9 22.2 0 0 - 2 4 50.0 0 2 2 1 1 0 0 1 -
p461
aVChris King VAN 01/18/1996 VAN vs. CLE L 20 3 1 4 25.0 0 0 - 1 2 50.0 1 0 1 3 2 0 2 2 -
p462
aVBryant Reeves VAN 01/18/1996 VAN vs. CLE L 44 17 6 10 60.0 0 0 - 5 6 83.3 3 10 13 3 0 3 4 3 -
p463
aVAnthony Avent VAN 01/18/1996 VAN vs. CLE L 20 8 4 6 66.7 0 0 - 0 0 - 1 4 5 0 1 0 3 2 -
p464
aVEric Murdock VAN 01/18/1996 VAN vs. CLE L 14 4 2 6 33.3 0 1 0.0 0 0 - 0 2 2 0 0 0 2 1 -
p465
aVBlue Edwards VAN 01/18/1996 VAN vs. CLE L 46 14 5 11 45.5 3 5 60.0 1 2 50.0 2 5 7 8 1 2 4 3 -
p466
aVEric Mobley VAN 01/18/1996 VAN vs. CLE L 4 2 0 0 - 0 0 - 2 4 50.0 0 0 0 0 0 0 0 1 -
p467
aVGreg Anthony VAN 01/18/1996 VAN vs. CLE L 34 27 8 16 50.0 6 10 60.0 5 7 71.4 1 1 2 5 2 1 3 2 -
p468
aVDoug Edwards VAN 01/18/1996 VAN vs. CLE L 25 4 2 3 66.7 0 0 - 0 0 - 2 2 4 3 0 1 2 2 -
p469
aVByron Scott VAN 01/18/1996 VAN vs. CLE L 33 11 3 5 60.0 1 3 33.3 4 6 66.7 1 2 3 0 2 1 2 4 -
p470
aVKenny Gattison VAN 01/13/1996 VAN vs. MIA W 23 5 2 6 33.3 0 0 - 1 4 25.0 0 4 4 0 1 0 1 3 -
p471
aVAnthony Avent VAN 01/13/1996 VAN vs. MIA W 21 4 2 7 28.6 0 0 - 0 0 - 2 5 7 0 0 1 1 1 -
p472
aVChris King VAN 01/13/1996 VAN vs. MIA W 20 6 3 7 42.9 0 1 0.0 0 0 - 0 0 0 2 0 0 2 3 -
p473
aVEric Murdock VAN 01/13/1996 VAN vs. MIA W 21 7 2 5 40.0 0 1 0.0 3 4 75.0 0 2 2 2 2 0 0 3 -
p474
aVDoug Edwards VAN 01/13/1996 VAN vs. MIA W 14 2 1 3 33.3 0 0 - 0 0 - 0 0 0 1 0 1 1 1 -
p475
aVGreg Anthony VAN 01/13/1996 VAN vs. MIA W 27 21 5 12 41.7 2 4 50.0 9 10 90.0 0 2 2 3 3 0 1 1 -
p476
aVBlue Edwards VAN 01/13/1996 VAN vs. MIA W 32 8 0 7 0.0 0 2 0.0 8 8 100.0 0 6 6 3 4 0 2 1 -
p477
aVEric Mobley VAN 01/13/1996 VAN vs. MIA W 20 6 3 6 50.0 0 0 - 0 2 0.0 4 2 6 1 0 0 1 3 -
p478
aVBryant Reeves VAN 01/13/1996 VAN vs. MIA W 33 2 1 6 16.7 0 0 - 0 0 - 2 5 7 2 0 2 0 3 -
p479
aVByron Scott VAN 01/13/1996 VAN vs. MIA W 29 8 3 10 30.0 0 1 0.0 2 3 66.7 0 1 1 2 0 0 3 1 -
p480
aVBlue Edwards VAN 01/12/1996 VAN vs. GOS L 44 20 6 9 66.7 2 4 50.0 6 8 75.0 0 4 4 2 4 1 4 5 -
p481
aVEric Murdock VAN 01/12/1996 VAN vs. GOS L 18 2 1 4 25.0 0 2 0.0 0 0 - 0 1 1 4 1 0 2 1 -
p482
aVEric Mobley VAN 01/12/1996 VAN vs. GOS L 26 9 4 4 100.0 0 0 - 1 4 25.0 0 5 5 2 1 1 2 1 -
p483
aVLawrence Moten VAN 01/12/1996 VAN vs. GOS L 20 7 3 7 42.9 0 1 0.0 1 2 50.0 1 0 1 1 1 0 1 3 -
p484
aVBryant Reeves VAN 01/12/1996 VAN vs. GOS L 26 14 5 10 50.0 0 0 - 4 5 80.0 1 5 6 2 0 0 3 6 -
p485
aVAnthony Avent VAN 01/12/1996 VAN vs. GOS L 15 5 2 7 28.6 0 0 - 1 1 100.0 1 1 2 1 0 1 0 2 -
p486
aVGreg Anthony VAN 01/12/1996 VAN vs. GOS L 35 14 5 9 55.6 1 3 33.3 3 6 50.0 0 4 4 13 1 0 5 1 -
p487
aVChris King VAN 01/12/1996 VAN vs. GOS L 27 7 3 7 42.9 0 0 - 1 2 50.0 0 2 2 1 0 1 0 3 -
p488
aVKenny Gattison VAN 01/12/1996 VAN vs. GOS L 29 17 8 11 72.7 0 0 - 1 2 50.0 1 5 6 2 0 1 2 5 -
p489
aVEric Mobley VAN 01/10/1996 VAN vs. DEN L 8 6 3 5 60.0 0 0 - 0 0 - 2 0 2 1 0 0 2 1 -
p490
aVGreg Anthony VAN 01/10/1996 VAN vs. DEN L 32 19 5 20 25.0 0 7 0.0 9 9 100.0 0 2 2 8 1 2 1 1 -
p491
aVChris King VAN 01/10/1996 VAN vs. DEN L 34 4 2 5 40.0 0 0 - 0 0 - 1 1 2 2 1 0 3 2 -
p492
aVBryant Reeves VAN 01/10/1996 VAN vs. DEN L 40 11 5 12 41.7 0 0 - 1 1 100.0 4 11 15 0 0 0 0 4 -
p493
aVKenny Gattison VAN 01/10/1996 VAN vs. DEN L 22 4 2 6 33.3 0 0 - 0 0 - 0 2 2 1 0 0 1 1 -
p494
aVAnthony Avent VAN 01/10/1996 VAN vs. DEN L 26 0 0 5 0.0 0 0 - 0 0 - 2 2 4 1 0 0 1 3 -
p495
aVByron Scott VAN 01/10/1996 VAN vs. DEN L 25 13 5 12 41.7 2 5 40.0 1 1 100.0 0 1 1 1 1 0 2 3 -
p496
aVEric Murdock VAN 01/10/1996 VAN vs. DEN L 16 8 3 8 37.5 0 1 0.0 2 2 100.0 0 2 2 5 1 0 2 1 -
p497
aVBlue Edwards VAN 01/10/1996 VAN vs. DEN L 37 20 9 14 64.3 1 1 100.0 1 2 50.0 2 4 6 0 2 0 2 3 -
p498
aVKenny Gattison VAN 01/09/1996 VAN @ GOS L 24 19 8 12 66.7 0 0 - 3 4 75.0 3 4 7 2 1 4 2 3 -
p499
aVByron Scott VAN 01/09/1996 VAN @ GOS L 22 11 5 8 62.5 1 2 50.0 0 0 - 1 3 4 1 1 0 2 2 -
p500
aVGreg Anthony VAN 01/09/1996 VAN @ GOS L 30 8 3 8 37.5 2 3 66.7 0 0 - 0 5 5 7 1 0 1 6 -
p501
aVBlue Edwards VAN 01/09/1996 VAN @ GOS L 40 8 4 14 28.6 0 2 0.0 0 2 0.0 2 3 5 4 0 1 3 2 -
p502
aVBryant Reeves VAN 01/09/1996 VAN @ GOS L 38 18 5 13 38.5 0 0 - 8 9 88.9 3 5 8 1 0 2 6 0 -
p503
aVAnthony Avent VAN 01/09/1996 VAN @ GOS L 31 4 2 9 22.2 0 0 - 0 0 - 5 4 9 2 0 0 0 4 -
p504
aVEric Murdock VAN 01/09/1996 VAN @ GOS L 23 19 7 11 63.6 3 4 75.0 2 2 100.0 0 1 1 8 1 0 2 0 -
p505
aVChris King VAN 01/09/1996 VAN @ GOS L 32 16 7 13 53.8 2 4 50.0 0 0 - 1 2 3 1 1 0 2 3 -
p506
aVKenny Gattison VAN 01/07/1996 VAN vs. LAC L 11 3 1 5 20.0 0 0 - 1 2 50.0 1 1 2 0 0 0 0 2 -
p507
aVByron Scott VAN 01/07/1996 VAN vs. LAC L 28 13 4 11 36.4 2 5 40.0 3 3 100.0 0 3 3 0 1 0 3 5 -
p508
aVDoug Edwards VAN 01/07/1996 VAN vs. LAC L 5 0 0 1 0.0 0 0 - 0 0 - 2 0 2 1 0 0 1 1 -
p509
aVEric Murdock VAN 01/07/1996 VAN vs. LAC L 8 5 2 2 100.0 1 1 100.0 0 0 - 0 2 2 1 1 0 1 2 -
p510
aVBlue Edwards VAN 01/07/1996 VAN vs. LAC L 40 12 4 16 25.0 0 6 0.0 4 4 100.0 2 5 7 3 0 0 6 3 -
p511
aVBryant Reeves VAN 01/07/1996 VAN vs. LAC L 34 16 7 12 58.3 0 0 - 2 3 66.7 4 4 8 3 0 0 4 4 -
p512
aVAnthony Avent VAN 01/07/1996 VAN vs. LAC L 27 9 4 7 57.1 0 0 - 1 1 100.0 1 3 4 0 1 0 3 2 -
p513
aVEric Mobley VAN 01/07/1996 VAN vs. LAC L 24 4 2 3 66.7 0 0 - 0 0 - 1 1 2 0 1 3 1 4 -
p514
aVChris King VAN 01/07/1996 VAN vs. LAC L 23 6 3 4 75.0 0 0 - 0 0 - 0 2 2 2 0 0 0 0 -
p515
aVGreg Anthony VAN 01/07/1996 VAN vs. LAC L 40 25 10 16 62.5 3 6 50.0 2 4 50.0 0 4 4 15 1 0 6 5 -
p516
aVGreg Anthony VAN 01/05/1996 VAN vs. PHL W 40 32 8 19 42.1 2 5 40.0 14 16 87.5 0 0 0 7 3 0 1 4 -
p517
aVEric Murdock VAN 01/05/1996 VAN vs. PHL W 22 6 3 9 33.3 0 1 0.0 0 0 - 2 4 6 4 5 0 0 1 -
p518
aVAnthony Avent VAN 01/05/1996 VAN vs. PHL W 32 7 3 7 42.9 0 0 - 1 2 50.0 3 11 14 3 0 2 1 2 -
p519
aVBlue Edwards VAN 01/05/1996 VAN vs. PHL W 34 19 9 21 42.9 0 5 0.0 1 5 20.0 0 3 3 1 1 0 1 4 -
p520
aVEric Mobley VAN 01/05/1996 VAN vs. PHL W 15 6 3 5 60.0 0 0 - 0 0 - 5 1 6 1 0 0 2 1 -
p521
aVKenny Gattison VAN 01/05/1996 VAN vs. PHL W 21 8 4 9 44.4 0 0 - 0 0 - 2 1 3 1 1 0 2 2 -
p522
aVByron Scott VAN 01/05/1996 VAN vs. PHL W 32 10 4 11 36.4 1 5 20.0 1 1 100.0 0 0 0 5 0 0 2 1 -
p523
aVBryant Reeves VAN 01/05/1996 VAN vs. PHL W 38 10 3 8 37.5 0 0 - 4 6 66.7 1 5 6 3 1 1 2 5 -
p524
aVChris King VAN 01/05/1996 VAN vs. PHL W 22 5 2 6 33.3 0 0 - 1 4 25.0 1 1 2 1 1 0 0 0 -
p525
aVDoug Edwards VAN 01/05/1996 VAN vs. PHL W 9 0 0 1 0.0 0 0 - 0 0 - 0 2 2 0 1 0 0 0 -
p526
aVEric Murdock VAN 12/30/1995 VAN vs. BOS W 19 10 4 6 66.7 0 0 - 2 2 100.0 1 2 3 1 1 0 3 1 -
p527
aVChris King VAN 12/30/1995 VAN vs. BOS W 27 4 2 6 33.3 0 0 - 0 0 - 2 0 2 1 0 0 2 4 -
p528
aVGreg Anthony VAN 12/30/1995 VAN vs. BOS W 38 20 6 15 40.0 0 3 0.0 8 11 72.7 2 3 5 14 2 0 3 2 -
p529
aVBryant Reeves VAN 12/30/1995 VAN vs. BOS W 23 10 4 5 80.0 0 0 - 2 3 66.7 4 9 13 0 0 0 0 5 -
p530
aVAnthony Avent VAN 12/30/1995 VAN vs. BOS W 25 7 1 8 12.5 0 0 - 5 6 83.3 2 4 6 1 0 3 2 4 -
p531
aVKenny Gattison VAN 12/30/1995 VAN vs. BOS W 23 13 6 10 60.0 0 0 - 1 2 50.0 2 5 7 0 0 1 3 5 -
p532
aVEric Mobley VAN 12/30/1995 VAN vs. BOS W 25 7 3 4 75.0 0 0 - 1 4 25.0 1 1 2 1 0 0 2 2 -
p533
aVBlue Edwards VAN 12/30/1995 VAN vs. BOS W 41 26 8 18 44.4 1 4 25.0 9 10 90.0 3 3 6 3 2 0 3 5 -
p534
aVByron Scott VAN 12/30/1995 VAN vs. BOS W 19 6 3 10 30.0 0 2 0.0 0 0 - 0 4 4 3 0 0 3 2 -
p535
aVBryant Reeves VAN 12/28/1995 VAN @ DAL L 49 18 7 19 36.8 0 0 - 4 8 50.0 2 12 14 1 1 1 2 5 -
p536
aVEric Mobley VAN 12/28/1995 VAN @ DAL L 14 6 3 4 75.0 0 0 - 0 1 0.0 3 1 4 0 0 1 2 2 -
p537
aVKenny Gattison VAN 12/28/1995 VAN @ DAL L 17 3 1 5 20.0 0 0 - 1 2 50.0 2 3 5 0 1 0 0 2 -
p538
aVBlue Edwards VAN 12/28/1995 VAN @ DAL L 49 12 4 11 36.4 1 1 100.0 3 4 75.0 0 6 6 4 1 4 4 5 -
p539
aVChris King VAN 12/28/1995 VAN @ DAL L 31 7 3 7 42.9 1 1 100.0 0 1 0.0 1 3 4 1 1 0 3 3 -
p540
aVGreg Anthony VAN 12/28/1995 VAN @ DAL L 42 18 7 17 41.2 2 6 33.3 2 3 66.7 0 2 2 7 1 1 1 3 -
p541
aVEric Murdock VAN 12/28/1995 VAN @ DAL L 16 12 3 3 100.0 1 1 100.0 5 5 100.0 0 2 2 3 1 1 6 2 -
p542
aVAnthony Avent VAN 12/28/1995 VAN @ DAL L 34 13 5 12 41.7 0 0 - 3 6 50.0 6 9 15 1 1 1 5 5 -
p543
aVByron Scott VAN 12/28/1995 VAN @ DAL L 38 12 4 9 44.4 2 2 100.0 2 2 100.0 2 0 2 1 1 2 1 3 -
p544
aVBryant Reeves VAN 12/26/1995 VAN @ HOU L 45 12 6 17 35.3 0 0 - 0 0 - 5 11 16 0 1 1 5 2 -
p545
aVAnthony Avent VAN 12/26/1995 VAN @ HOU L 7 4 2 3 66.7 0 0 - 0 0 - 1 0 1 0 0 0 1 4 -
p546
aVKenny Gattison VAN 12/26/1995 VAN @ HOU L 26 8 3 8 37.5 0 0 - 2 2 100.0 2 3 5 2 0 0 2 4 -
p547
aVEric Mobley VAN 12/26/1995 VAN @ HOU L 19 6 2 3 66.7 1 1 100.0 1 3 33.3 0 2 2 0 2 0 2 3 -
p548
aVGreg Anthony VAN 12/26/1995 VAN @ HOU L 27 9 3 9 33.3 1 4 25.0 2 2 100.0 2 1 3 2 0 0 2 1 -
p549
aVBlue Edwards VAN 12/26/1995 VAN @ HOU L 39 11 4 12 33.3 0 1 0.0 3 4 75.0 1 3 4 4 5 1 1 4 -
p550
aVByron Scott VAN 12/26/1995 VAN @ HOU L 23 12 2 7 28.6 0 2 0.0 8 8 100.0 0 2 2 2 2 0 1 1 -
p551
aVEric Murdock VAN 12/26/1995 VAN @ HOU L 24 16 7 10 70.0 2 3 66.7 0 1 0.0 1 1 2 2 0 0 4 4 -
p552
aVDoug Edwards VAN 12/26/1995 VAN @ HOU L 7 4 1 1 100.0 0 0 - 2 2 100.0 0 0 0 0 0 0 0 1 -
p553
aVChris King VAN 12/26/1995 VAN @ HOU L 23 2 0 9 0.0 0 0 - 2 2 100.0 2 4 6 1 1 2 0 1 -
p554
aVBryant Reeves VAN 12/22/1995 VAN vs. PHX L 37 19 6 17 35.3 0 0 - 7 9 77.8 3 1 4 1 1 0 3 3 -
p555
aVByron Scott VAN 12/22/1995 VAN vs. PHX L 22 9 2 5 40.0 0 0 - 5 5 100.0 1 4 5 1 0 0 0 0 -
p556
aVAnthony Avent VAN 12/22/1995 VAN vs. PHX L 29 7 3 7 42.9 0 0 - 1 2 50.0 1 5 6 2 3 0 4 2 -
p557
aVDoug Edwards VAN 12/22/1995 VAN vs. PHX L 15 0 0 3 0.0 0 0 - 0 0 - 0 0 0 1 0 0 1 1 -
p558
aVEric Murdock VAN 12/22/1995 VAN vs. PHX L 30 8 4 12 33.3 0 1 0.0 0 0 - 0 2 2 5 1 1 3 2 -
p559
aVChris King VAN 12/22/1995 VAN vs. PHX L 18 4 2 7 28.6 0 0 - 0 0 - 1 2 3 1 1 0 0 3 -
p560
aVDarrick Martin VAN 12/22/1995 VAN vs. PHX L 18 6 2 4 50.0 0 1 0.0 2 2 100.0 0 0 0 6 0 0 1 3 -
p561
aVEric Mobley VAN 12/22/1995 VAN vs. PHX L 18 12 4 6 66.7 0 0 - 4 6 66.7 3 5 8 0 0 1 0 3 -
p562
aVBlue Edwards VAN 12/22/1995 VAN vs. PHX L 30 2 1 7 14.3 0 3 0.0 0 0 - 0 3 3 2 4 0 2 3 -
p563
aVAshraf Amaya VAN 12/22/1995 VAN vs. PHX L 12 2 1 4 25.0 0 0 - 0 0 - 0 2 2 1 0 0 1 2 -
p564
aVLawrence Moten VAN 12/22/1995 VAN vs. PHX L 11 11 5 9 55.6 1 3 33.3 0 0 - 0 2 2 0 2 0 0 0 -
p565
aVEric Mobley VAN 12/21/1995 VAN @ SEA L 28 5 2 4 50.0 0 1 0.0 1 4 25.0 2 5 7 1 1 0 4 6 -
p566
aVDarrick Martin VAN 12/21/1995 VAN @ SEA L 23 10 3 5 60.0 0 0 - 4 4 100.0 1 2 3 2 3 0 4 4 -
p567
aVBlue Edwards VAN 12/21/1995 VAN @ SEA L 28 1 0 9 0.0 0 3 0.0 1 2 50.0 0 4 4 2 2 2 5 2 -
p568
aVDoug Edwards VAN 12/21/1995 VAN @ SEA L 24 9 4 7 57.1 0 1 0.0 1 2 50.0 2 2 4 4 1 2 5 1 -
p569
aVEric Murdock VAN 12/21/1995 VAN @ SEA L 25 11 3 8 37.5 1 4 25.0 4 4 100.0 0 4 4 2 2 0 2 1 -
p570
aVByron Scott VAN 12/21/1995 VAN @ SEA L 15 2 1 4 25.0 0 2 0.0 0 0 - 1 3 4 2 1 1 0 1 -
p571
aVLawrence Moten VAN 12/21/1995 VAN @ SEA L 15 3 1 4 25.0 0 0 - 1 2 50.0 0 1 1 0 1 0 3 1 -
p572
aVChris King VAN 12/21/1995 VAN @ SEA L 32 11 4 9 44.4 0 0 - 3 4 75.0 2 3 5 2 0 2 3 3 -
p573
aVAshraf Amaya VAN 12/21/1995 VAN @ SEA L 18 0 0 2 0.0 0 0 - 0 0 - 0 1 1 0 1 0 2 6 -
p574
aVAnthony Avent VAN 12/21/1995 VAN @ SEA L 32 16 8 13 61.5 0 0 - 0 0 - 2 7 9 0 0 0 1 6 -
p575
aVDoug Edwards VAN 12/19/1995 VAN vs. SEA W 19 4 0 4 0.0 0 1 0.0 4 4 100.0 1 1 2 2 2 0 2 1 -
p576
aVByron Scott VAN 12/19/1995 VAN vs. SEA W 25 18 5 10 50.0 2 2 100.0 6 6 100.0 0 2 2 3 0 0 0 1 -
p577
aVAnthony Avent VAN 12/19/1995 VAN vs. SEA W 23 13 6 13 46.2 0 0 - 1 1 100.0 5 2 7 1 0 3 1 3 -
p578
aVAshraf Amaya VAN 12/19/1995 VAN vs. SEA W 7 2 1 1 100.0 0 0 - 0 0 - 1 0 1 0 0 0 0 2 -
p579
aVEric Mobley VAN 12/19/1995 VAN vs. SEA W 21 2 1 3 33.3 0 0 - 0 0 - 1 5 6 2 0 1 1 2 -
p580
aVBlue Edwards VAN 12/19/1995 VAN vs. SEA W 33 22 8 13 61.5 4 4 100.0 2 2 100.0 1 4 5 2 2 0 1 5 -
p581
aVEric Murdock VAN 12/19/1995 VAN vs. SEA W 37 9 2 9 22.2 1 2 50.0 4 6 66.7 1 4 5 8 3 1 3 2 -
p582
aVBryant Reeves VAN 12/19/1995 VAN vs. SEA W 45 9 1 10 10.0 0 1 0.0 7 10 70.0 2 9 11 2 0 0 2 3 -
p583
aVChris King VAN 12/19/1995 VAN vs. SEA W 19 9 4 9 44.4 0 2 0.0 1 2 50.0 3 1 4 2 0 1 3 4 -
p584
aVDarrick Martin VAN 12/19/1995 VAN vs. SEA W 11 6 2 4 50.0 2 3 66.7 0 0 - 0 1 1 1 0 0 2 2 -
p585
aVDoug Edwards VAN 12/18/1995 VAN @ SAC L 16 4 1 2 50.0 0 0 - 2 2 100.0 0 3 3 2 1 0 1 3 -
p586
aVBryant Reeves VAN 12/18/1995 VAN @ SAC L 37 23 9 12 75.0 0 0 - 5 5 100.0 3 3 6 1 0 1 5 5 -
p587
aVChris King VAN 12/18/1995 VAN @ SAC L 24 12 5 8 62.5 1 1 100.0 1 2 50.0 0 5 5 2 1 0 1 2 -
p588
aVAshraf Amaya VAN 12/18/1995 VAN @ SAC L 24 3 1 4 25.0 0 0 - 1 2 50.0 3 4 7 0 0 0 5 2 -
p589
aVByron Scott VAN 12/18/1995 VAN @ SAC L 23 7 3 8 37.5 0 3 0.0 1 1 100.0 1 1 2 0 0 1 0 3 -
p590
aVAnthony Avent VAN 12/18/1995 VAN @ SAC L 19 5 2 6 33.3 0 0 - 1 2 50.0 2 2 4 1 1 0 2 5 -
p591
aVDarrick Martin VAN 12/18/1995 VAN @ SAC L 16 4 0 5 0.0 0 0 - 4 4 100.0 0 2 2 1 1 0 2 1 -
p592
aVEric Murdock VAN 12/18/1995 VAN @ SAC L 32 12 4 12 33.3 0 1 0.0 4 4 100.0 0 3 3 5 3 0 3 5 -
p593
aVEric Mobley VAN 12/18/1995 VAN @ SAC L 16 4 1 3 33.3 0 0 - 2 2 100.0 2 0 2 0 1 5 2 1 -
p594
aVBlue Edwards VAN 12/18/1995 VAN @ SAC L 33 11 4 5 80.0 3 3 100.0 0 0 - 1 1 2 3 1 0 4 2 -
p595
aVAnthony Avent VAN 12/16/1995 VAN vs. GOS L 23 10 5 10 50.0 0 0 - 0 0 - 0 1 1 1 2 0 2 3 -
p596
aVAshraf Amaya VAN 12/16/1995 VAN vs. GOS L 14 7 2 3 66.7 0 0 - 3 6 50.0 1 1 2 1 1 0 2 6 -
p597
aVLawrence Moten VAN 12/16/1995 VAN vs. GOS L 21 16 6 11 54.5 1 3 33.3 3 5 60.0 2 1 3 0 1 1 1 0 -
p598
aVEric Mobley VAN 12/16/1995 VAN vs. GOS L 24 6 1 4 25.0 0 0 - 4 4 100.0 2 2 4 1 0 1 0 1 -
p599
aVChris King VAN 12/16/1995 VAN vs. GOS L 30 9 4 8 50.0 0 1 0.0 1 2 50.0 1 2 3 3 0 1 3 2 -
p600
aVEric Murdock VAN 12/16/1995 VAN vs. GOS L 28 6 2 6 33.3 0 1 0.0 2 2 100.0 0 0 0 8 3 0 0 3 -
p601
aVDarrick Martin VAN 12/16/1995 VAN vs. GOS L 20 6 3 9 33.3 0 2 0.0 0 0 - 1 2 3 2 0 0 3 1 -
p602
aVDoug Edwards VAN 12/16/1995 VAN vs. GOS L 11 5 1 3 33.3 0 0 - 3 3 100.0 2 3 5 1 1 0 0 1 -
p603
aVByron Scott VAN 12/16/1995 VAN vs. GOS L 10 0 0 3 0.0 0 1 0.0 0 0 - 0 0 0 1 0 0 1 0 -
p604
aVBlue Edwards VAN 12/16/1995 VAN vs. GOS L 30 12 6 10 60.0 0 2 0.0 0 0 - 0 2 2 3 0 0 2 4 -
p605
aVBryant Reeves VAN 12/16/1995 VAN vs. GOS L 29 8 4 11 36.4 0 0 - 0 0 - 2 4 6 2 0 2 4 3 -
p606
aVBlue Edwards VAN 12/15/1995 VAN vs. POR W 40 11 4 15 26.7 0 7 0.0 3 4 75.0 1 3 4 3 2 0 3 2 -
p607
aVDarrick Martin VAN 12/15/1995 VAN vs. POR W 20 11 3 5 60.0 1 1 100.0 4 4 100.0 0 2 2 1 2 0 2 1 -
p608
aVAshraf Amaya VAN 12/15/1995 VAN vs. POR W 24 11 2 4 50.0 0 0 - 7 9 77.8 4 7 11 1 1 1 1 4 -
p609
aVByron Scott VAN 12/15/1995 VAN vs. POR W 24 5 2 8 25.0 0 1 0.0 1 2 50.0 1 2 3 1 2 0 2 2 -
p610
aVDoug Edwards VAN 12/15/1995 VAN vs. POR W 19 4 1 2 50.0 0 0 - 2 2 100.0 1 1 2 2 0 0 1 2 -
p611
aVAnthony Avent VAN 12/15/1995 VAN vs. POR W 29 13 6 13 46.2 0 0 - 1 2 50.0 0 5 5 2 0 1 0 3 -
p612
aVEric Mobley VAN 12/15/1995 VAN vs. POR W 12 8 3 5 60.0 0 0 - 2 4 50.0 1 0 1 0 0 2 0 2 -
p613
aVChris King VAN 12/15/1995 VAN vs. POR W 19 2 1 4 25.0 0 0 - 0 0 - 1 0 1 0 0 1 2 1 -
p614
aVEric Murdock VAN 12/15/1995 VAN vs. POR W 33 14 5 13 38.5 1 3 33.3 3 6 50.0 1 1 2 12 5 0 1 2 -
p615
aVBryant Reeves VAN 12/15/1995 VAN vs. POR W 45 25 10 20 50.0 0 0 - 5 10 50.0 9 8 17 1 1 1 3 5 -
p616
aVChris King VAN 12/13/1995 VAN vs. HOU L 25 6 3 8 37.5 0 0 - 0 0 - 3 3 6 2 1 0 3 3 -
p617
aVEric Mobley VAN 12/13/1995 VAN vs. HOU L 20 4 2 3 66.7 0 0 - 0 0 - 2 5 7 0 0 0 3 4 -
p618
aVByron Scott VAN 12/13/1995 VAN vs. HOU L 29 8 3 12 25.0 1 2 50.0 1 2 50.0 0 2 2 1 1 0 2 1 -
p619
aVLawrence Moten VAN 12/13/1995 VAN vs. HOU L 5 5 2 6 33.3 1 2 50.0 0 0 - 2 0 2 1 1 1 2 1 -
p620
aVAshraf Amaya VAN 12/13/1995 VAN vs. HOU L 29 13 5 9 55.6 0 0 - 3 5 60.0 6 5 11 1 2 0 2 2 -
p621
aVGreg Anthony VAN 12/13/1995 VAN vs. HOU L 32 18 5 17 29.4 2 4 50.0 6 8 75.0 2 5 7 8 3 0 5 1 -
p622
aVBlue Edwards VAN 12/13/1995 VAN vs. HOU L 38 19 7 18 38.9 3 9 33.3 2 2 100.0 1 3 4 1 5 1 0 4 -
p623
aVDarrick Martin VAN 12/13/1995 VAN vs. HOU L 15 6 3 8 37.5 0 2 0.0 0 0 - 2 3 5 2 2 1 0 4 -
p624
aVBryant Reeves VAN 12/13/1995 VAN vs. HOU L 34 8 2 9 22.2 0 0 - 4 4 100.0 3 5 8 2 1 1 2 1 -
p625
aVAnthony Avent VAN 12/13/1995 VAN vs. HOU L 13 2 1 2 50.0 0 0 - 0 0 - 0 3 3 0 0 0 0 3 -
p626
aVDarrick Martin VAN 12/10/1995 VAN vs. TOR L 28 11 4 9 44.4 0 0 - 3 5 60.0 2 1 3 5 0 0 1 3 -
p627
aVAshraf Amaya VAN 12/10/1995 VAN vs. TOR L 7 0 0 1 0.0 0 0 - 0 0 - 1 0 1 0 0 0 2 3 -
p628
aVBlue Edwards VAN 12/10/1995 VAN vs. TOR L 38 23 9 17 52.9 3 5 60.0 2 2 100.0 3 2 5 3 2 0 3 3 -
p629
aVEric Murdock VAN 12/10/1995 VAN vs. TOR L 12 4 2 6 33.3 0 2 0.0 0 0 - 0 1 1 2 4 0 0 1 -
p630
aVEric Mobley VAN 12/10/1995 VAN vs. TOR L 31 4 2 5 40.0 0 0 - 0 4 0.0 2 9 11 1 1 0 3 4 -
p631
aVAnthony Avent VAN 12/10/1995 VAN vs. TOR L 27 3 1 6 16.7 0 0 - 1 2 50.0 1 3 4 0 1 0 1 3 -
p632
aVGreg Anthony VAN 12/10/1995 VAN vs. TOR L 20 4 2 8 25.0 0 1 0.0 0 1 0.0 2 1 3 5 0 0 3 0 -
p633
aVBryant Reeves VAN 12/10/1995 VAN vs. TOR L 31 18 7 14 50.0 0 0 - 4 5 80.0 2 7 9 0 1 0 1 3 -
p634
aVByron Scott VAN 12/10/1995 VAN vs. TOR L 26 10 4 16 25.0 1 5 20.0 1 1 100.0 1 1 2 4 1 0 0 1 -
p635
aVChris King VAN 12/10/1995 VAN vs. TOR L 20 4 2 7 28.6 0 1 0.0 0 0 - 1 1 2 1 1 0 0 1 -
p636
aVGreg Anthony VAN 12/07/1995 VAN vs. DET L 39 31 11 19 57.9 3 6 50.0 6 12 50.0 0 0 0 10 2 0 0 2 -
p637
aVBryant Reeves VAN 12/07/1995 VAN vs. DET L 44 19 8 19 42.1 0 0 - 3 5 60.0 2 4 6 2 0 2 2 5 -
p638
aVAnthony Avent VAN 12/07/1995 VAN vs. DET L 19 2 1 5 20.0 0 0 - 0 0 - 1 2 3 0 0 0 0 5 -
p639
aVDarrick Martin VAN 12/07/1995 VAN vs. DET L 7 2 1 2 50.0 0 0 - 0 0 - 1 1 2 1 0 0 1 0 -
p640
aVEric Mobley VAN 12/07/1995 VAN vs. DET L 21 2 0 3 0.0 0 0 - 2 2 100.0 3 2 5 0 0 0 1 5 -
p641
aVAntonio Harvey VAN 12/07/1995 VAN vs. DET L 12 2 1 3 33.3 0 0 - 0 0 - 0 0 0 0 0 3 0 1 -
p642
aVBlue Edwards VAN 12/07/1995 VAN vs. DET L 39 6 1 7 14.3 0 2 0.0 4 6 66.7 0 4 4 3 1 1 2 2 -
p643
aVChris King VAN 12/07/1995 VAN vs. DET L 37 9 4 8 50.0 0 0 - 1 1 100.0 2 2 4 1 2 0 1 2 -
p644
aVByron Scott VAN 12/07/1995 VAN vs. DET L 22 11 4 6 66.7 0 0 - 3 4 75.0 1 1 2 0 0 0 1 1 -
p645
aVDarrick Martin VAN 12/05/1995 VAN @ PHX L 9 8 3 5 60.0 0 1 0.0 2 2 100.0 0 1 1 2 0 0 1 3 -
p646
aVBryant Reeves VAN 12/05/1995 VAN @ PHX L 11 4 2 4 50.0 0 0 - 0 0 - 1 1 2 0 0 0 1 5 -
p647
aVChris King VAN 12/05/1995 VAN @ PHX L 29 6 2 8 25.0 0 0 - 2 2 100.0 0 0 0 4 0 1 0 0 -
p648
aVByron Scott VAN 12/05/1995 VAN @ PHX L 26 14 5 9 55.6 2 4 50.0 2 2 100.0 0 2 2 2 3 1 1 1 -
p649
aVBlue Edwards VAN 12/05/1995 VAN @ PHX L 42 22 8 18 44.4 4 7 57.1 2 2 100.0 1 4 5 7 3 0 1 4 -
p650
aVEric Mobley VAN 12/05/1995 VAN @ PHX L 37 12 4 8 50.0 0 0 - 4 8 50.0 1 4 5 5 0 2 1 2 -
p651
aVAnthony Avent VAN 12/05/1995 VAN @ PHX L 29 12 6 8 75.0 0 0 - 0 0 - 2 6 8 2 0 0 6 6 -
p652
aVGreg Anthony VAN 12/05/1995 VAN @ PHX L 39 22 7 13 53.8 1 2 50.0 7 8 87.5 1 1 2 6 1 1 3 4 -
p653
aVAntonio Harvey VAN 12/05/1995 VAN @ PHX L 18 8 4 5 80.0 0 0 - 0 0 - 1 7 8 0 0 1 1 3 -
p654
aVChris King VAN 12/03/1995 VAN vs. MIL L 19 8 4 7 57.1 0 1 0.0 0 0 - 1 0 1 1 1 0 0 0 -
p655
aVAnthony Avent VAN 12/03/1995 VAN vs. MIL L 22 8 3 7 42.9 0 0 - 2 2 100.0 2 1 3 0 0 0 0 1 -
p656
aVByron Scott VAN 12/03/1995 VAN vs. MIL L 31 6 3 7 42.9 0 0 - 0 0 - 1 2 3 2 0 0 1 3 -
p657
aVAntonio Harvey VAN 12/03/1995 VAN vs. MIL L 26 13 5 10 50.0 0 0 - 3 7 42.9 2 4 6 1 1 1 1 5 -
p658
aVGreg Anthony VAN 12/03/1995 VAN vs. MIL L 23 13 4 9 44.4 1 1 100.0 4 5 80.0 0 2 2 7 0 0 3 3 -
p659
aVLawrence Moten VAN 12/03/1995 VAN vs. MIL L 15 0 0 2 0.0 0 1 0.0 0 0 - 0 1 1 2 0 0 0 2 -
p660
aVBryant Reeves VAN 12/03/1995 VAN vs. MIL L 37 13 5 9 55.6 0 0 - 3 6 50.0 3 5 8 4 0 1 1 3 -
p661
aVEric Murdock VAN 12/03/1995 VAN vs. MIL L 25 12 4 12 33.3 2 5 40.0 2 2 100.0 0 1 1 8 5 0 1 3 -
p662
aVBlue Edwards VAN 12/03/1995 VAN vs. MIL L 32 12 4 10 40.0 1 3 33.3 3 4 75.0 1 1 2 1 1 2 4 4 -
p663
aVEric Mobley VAN 12/03/1995 VAN vs. MIL L 10 10 5 6 83.3 0 0 - 0 0 - 2 0 2 1 1 0 0 1 -
p664
aVLawrence Moten VAN 12/01/1995 VAN @ LAL L 25 16 7 11 63.6 2 3 66.7 0 0 - 2 3 5 3 1 0 2 0 -
p665
aVByron Scott VAN 12/01/1995 VAN @ LAL L 23 0 0 7 0.0 0 0 - 0 0 - 2 0 2 1 0 0 1 1 -
p666
aVBryant Reeves VAN 12/01/1995 VAN @ LAL L 38 13 5 12 41.7 0 0 - 3 3 100.0 5 4 9 5 1 0 0 3 -
p667
aVGreg Anthony VAN 12/01/1995 VAN @ LAL L 30 20 9 12 75.0 1 2 50.0 1 2 50.0 0 2 2 7 1 0 3 1 -
p668
aVEric Murdock VAN 12/01/1995 VAN @ LAL L 23 6 3 7 42.9 0 1 0.0 0 0 - 1 2 3 5 2 0 3 1 -
p669
aVBlue Edwards VAN 12/01/1995 VAN @ LAL L 31 20 8 12 66.7 3 3 100.0 1 2 50.0 1 1 2 1 1 0 2 3 -
p670
aVEric Mobley VAN 12/01/1995 VAN @ LAL L 10 3 1 3 33.3 0 0 - 1 2 50.0 0 1 1 0 0 0 3 3 -
p671
aVAnthony Avent VAN 12/01/1995 VAN @ LAL L 25 12 6 10 60.0 0 0 - 0 0 - 0 2 2 1 1 0 4 1 -
p672
aVAntonio Harvey VAN 12/01/1995 VAN @ LAL L 35 10 3 11 27.3 0 1 0.0 4 8 50.0 4 4 8 2 3 0 0 1 -
p673
aVBryant Reeves VAN 11/30/1995 VAN vs. CHI L 37 11 3 7 42.9 0 1 0.0 5 6 83.3 0 7 7 1 2 1 5 4 -
p674
aVDarrick Martin VAN 11/30/1995 VAN vs. CHI L 14 7 3 8 37.5 1 2 50.0 0 1 0.0 0 0 0 0 1 0 1 1 -
p675
aVAnthony Avent VAN 11/30/1995 VAN vs. CHI L 22 4 2 5 40.0 0 0 - 0 0 - 1 3 4 2 0 1 2 4 -
p676
aVAntonio Harvey VAN 11/30/1995 VAN vs. CHI L 35 9 4 8 50.0 0 0 - 1 3 33.3 2 6 8 1 1 2 1 1 -
p677
aVGreg Anthony VAN 11/30/1995 VAN vs. CHI L 34 27 8 13 61.5 2 2 100.0 9 12 75.0 0 1 1 7 2 0 2 2 -
p678
aVChris King VAN 11/30/1995 VAN vs. CHI L 40 10 4 8 50.0 0 1 0.0 2 2 100.0 0 2 2 1 1 0 2 3 -
p679
aVByron Scott VAN 11/30/1995 VAN vs. CHI L 23 11 3 6 50.0 1 3 33.3 4 4 100.0 0 3 3 5 0 1 2 4 -
p680
aVBlue Edwards VAN 11/30/1995 VAN vs. CHI L 35 9 4 12 33.3 1 2 50.0 0 0 - 1 3 4 2 0 1 4 2 -
p681
aVByron Scott VAN 11/28/1995 VAN @ MIN L 24 7 3 11 27.3 0 4 0.0 1 1 100.0 1 1 2 1 0 0 2 3 -
p682
aVDarrick Martin VAN 11/28/1995 VAN @ MIN L 14 8 3 4 75.0 0 0 - 2 4 50.0 0 0 0 3 3 0 3 5 -
p683
aVChris King VAN 11/28/1995 VAN @ MIN L 23 4 2 9 22.2 0 0 - 0 0 - 3 4 7 2 0 0 0 3 -
p684
aVLawrence Moten VAN 11/28/1995 VAN @ MIN L 14 6 2 4 50.0 1 3 33.3 1 2 50.0 0 0 0 1 0 0 1 1 -
p685
aVBlue Edwards VAN 11/28/1995 VAN @ MIN L 35 9 3 9 33.3 2 4 50.0 1 1 100.0 2 3 5 2 3 0 2 5 -
p686
aVAntonio Harvey VAN 11/28/1995 VAN @ MIN L 26 10 4 9 44.4 0 0 - 2 3 66.7 1 3 4 0 0 0 1 2 -
p687
aVBryant Reeves VAN 11/28/1995 VAN @ MIN L 18 5 2 7 28.6 0 0 - 1 2 50.0 2 2 4 0 0 1 1 3 -
p688
aVAnthony Avent VAN 11/28/1995 VAN @ MIN L 22 6 2 3 66.7 0 0 - 2 2 100.0 2 0 2 1 1 0 1 5 -
p689
aVGreg Anthony VAN 11/28/1995 VAN @ MIN L 34 23 9 15 60.0 0 1 0.0 5 7 71.4 1 2 3 9 2 0 1 1 -
p690
aVKenny Gattison VAN 11/28/1995 VAN @ MIN L 30 20 9 13 69.2 0 0 - 2 5 40.0 3 6 9 1 0 0 5 5 -
p691
aVBlue Edwards VAN 11/25/1995 VAN @ MIA L 36 20 7 12 58.3 5 8 62.5 1 1 100.0 0 2 2 6 1 0 2 4 -
p692
aVChris King VAN 11/25/1995 VAN @ MIA L 34 8 3 6 50.0 0 0 - 2 4 50.0 2 4 6 2 1 1 4 3 -
p693
aVBryant Reeves VAN 11/25/1995 VAN @ MIA L 13 0 0 2 0.0 0 0 - 0 4 0.0 0 1 1 2 0 0 1 6 -
p694
aVAntonio Harvey VAN 11/25/1995 VAN @ MIA L 11 0 0 0 - 0 0 - 0 2 0.0 1 4 5 0 1 1 0 0 -
p695
aVBenoit Benjamin VAN 11/25/1995 VAN @ MIA L 35 22 8 12 66.7 0 0 - 6 7 85.7 3 7 10 0 2 0 1 4 -
p696
aVGreg Anthony VAN 11/25/1995 VAN @ MIA L 33 16 7 11 63.6 1 2 50.0 1 2 50.0 0 1 1 9 2 0 3 3 -
p697
aVByron Scott VAN 11/25/1995 VAN @ MIA L 21 2 1 6 16.7 0 0 - 0 0 - 0 0 0 1 2 0 1 3 -
p698
aVAnthony Avent VAN 11/25/1995 VAN @ MIA L 9 0 0 3 0.0 0 0 - 0 0 - 1 0 1 0 0 0 0 1 -
p699
aVKenny Gattison VAN 11/25/1995 VAN @ MIA L 20 5 2 5 40.0 0 0 - 1 2 50.0 0 1 1 1 0 0 0 4 -
p700
aVAshraf Amaya VAN 11/25/1995 VAN @ MIA L 4 3 0 0 - 0 0 - 3 4 75.0 0 1 1 0 1 0 0 1 -
p701
aVLawrence Moten VAN 11/25/1995 VAN @ MIA L 9 11 4 5 80.0 1 1 100.0 2 2 100.0 0 0 0 1 0 0 1 1 -
p702
aVDarrick Martin VAN 11/25/1995 VAN @ MIA L 15 4 1 4 25.0 0 1 0.0 2 2 100.0 0 1 1 2 1 0 3 0 -
p703
aVBlue Edwards VAN 11/24/1995 VAN @ CHH L 30 8 3 4 75.0 1 1 100.0 1 1 100.0 2 3 5 1 1 0 1 2 -
p704
aVLawrence Moten VAN 11/24/1995 VAN @ CHH L 9 13 5 7 71.4 1 2 50.0 2 2 100.0 2 1 3 0 1 0 0 1 -
p705
aVKenny Gattison VAN 11/24/1995 VAN @ CHH L 23 12 6 10 60.0 0 0 - 0 0 - 1 3 4 1 1 0 2 1 -
p706
aVBryant Reeves VAN 11/24/1995 VAN @ CHH L 18 9 3 8 37.5 0 0 - 3 4 75.0 0 2 2 0 0 0 0 4 -
p707
aVGreg Anthony VAN 11/24/1995 VAN @ CHH L 27 10 2 11 18.2 0 3 0.0 6 8 75.0 0 1 1 7 2 0 0 1 -
p708
aVBenoit Benjamin VAN 11/24/1995 VAN @ CHH L 27 18 7 13 53.8 0 0 - 4 7 57.1 3 4 7 1 0 0 0 3 -
p709
aVChris King VAN 11/24/1995 VAN @ CHH L 31 10 4 14 28.6 0 1 0.0 2 4 50.0 4 0 4 2 0 0 4 3 -
p710
aVByron Scott VAN 11/24/1995 VAN @ CHH L 24 7 3 7 42.9 1 1 100.0 0 0 - 0 1 1 1 0 0 1 1 -
p711
aVAnthony Avent VAN 11/24/1995 VAN @ CHH L 6 0 0 2 0.0 0 0 - 0 0 - 0 1 1 0 0 0 1 2 -
p712
aVAntonio Harvey VAN 11/24/1995 VAN @ CHH L 18 5 2 3 66.7 0 0 - 1 2 50.0 1 4 5 0 0 0 0 3 -
p713
aVAshraf Amaya VAN 11/24/1995 VAN @ CHH L 6 0 0 0 - 0 0 - 0 0 - 0 0 0 0 0 0 1 0 -
p714
aVDarrick Martin VAN 11/24/1995 VAN @ CHH L 21 12 4 8 50.0 0 0 - 4 4 100.0 2 1 3 3 2 0 1 4 -
p715
aVLawrence Moten VAN 11/22/1995 VAN @ ORL L 4 2 1 2 50.0 0 0 - 0 0 - 1 0 1 0 0 0 0 3 -
p716
aVGreg Anthony VAN 11/22/1995 VAN @ ORL L 36 11 5 11 45.5 1 2 50.0 0 0 - 0 3 3 10 1 0 4 2 -
p717
aVByron Scott VAN 11/22/1995 VAN @ ORL L 27 20 6 13 46.2 3 4 75.0 5 6 83.3 1 0 1 1 0 0 1 3 -
p718
aVKenny Gattison VAN 11/22/1995 VAN @ ORL L 22 10 4 8 50.0 0 0 - 2 4 50.0 2 2 4 0 0 0 2 3 -
p719
aVBlue Edwards VAN 11/22/1995 VAN @ ORL L 36 11 4 13 30.8 0 2 0.0 3 5 60.0 2 2 4 4 1 0 1 2 -
p720
aVChris King VAN 11/22/1995 VAN @ ORL L 33 15 6 8 75.0 0 0 - 3 4 75.0 0 8 8 0 0 3 0 3 -
p721
aVBenoit Benjamin VAN 11/22/1995 VAN @ ORL L 28 11 4 10 40.0 0 0 - 3 5 60.0 1 7 8 3 0 2 2 3 -
p722
aVAnthony Avent VAN 11/22/1995 VAN @ ORL L 26 8 4 6 66.7 0 0 - 0 0 - 4 3 7 1 2 0 1 2 -
p723
aVDarrick Martin VAN 11/22/1995 VAN @ ORL L 8 0 0 1 0.0 0 0 - 0 0 - 0 0 0 3 0 0 0 0 -
p724
aVBryant Reeves VAN 11/22/1995 VAN @ ORL L 20 5 2 6 33.3 0 0 - 1 1 100.0 1 4 5 2 0 0 0 1 -
p725
aVBlue Edwards VAN 11/19/1995 VAN @ NYK L 36 14 6 9 66.7 2 5 40.0 0 0 - 2 2 4 5 2 0 3 5 -
p726
aVLawrence Moten VAN 11/19/1995 VAN @ NYK L 6 3 1 2 50.0 0 0 - 1 2 50.0 0 0 0 1 0 0 1 1 -
p727
aVChris King VAN 11/19/1995 VAN @ NYK L 29 10 4 11 36.4 1 3 33.3 1 2 50.0 4 3 7 3 1 0 2 1 -
p728
aVGreg Anthony VAN 11/19/1995 VAN @ NYK L 35 18 8 12 66.7 2 4 50.0 0 0 - 0 1 1 7 0 0 0 2 -
p729
aVByron Scott VAN 11/19/1995 VAN @ NYK L 27 10 2 8 25.0 0 1 0.0 6 6 100.0 1 6 7 0 2 0 2 1 -
p730
aVBenoit Benjamin VAN 11/19/1995 VAN @ NYK L 36 13 6 15 40.0 0 0 - 1 2 50.0 5 3 8 1 1 1 1 2 -
p731
aVAntonio Harvey VAN 11/19/1995 VAN @ NYK L 25 6 2 4 50.0 0 0 - 2 4 50.0 1 3 4 1 0 2 1 0 -
p732
aVBryant Reeves VAN 11/19/1995 VAN @ NYK L 10 5 2 3 66.7 0 0 - 1 2 50.0 0 3 3 0 0 0 1 1 -
p733
aVKenny Gattison VAN 11/19/1995 VAN @ NYK L 23 10 2 7 28.6 0 0 - 6 6 100.0 0 3 3 0 1 1 2 4 -
p734
aVDarrick Martin VAN 11/19/1995 VAN @ NYK L 13 4 1 3 33.3 0 0 - 2 2 100.0 0 0 0 1 2 0 1 0 -
p735
aVBenoit Benjamin VAN 11/17/1995 VAN vs. LAL L 25 12 4 7 57.1 0 0 - 4 6 66.7 0 5 5 3 0 0 2 3 -
p736
aVBryant Reeves VAN 11/17/1995 VAN vs. LAL L 17 2 1 4 25.0 0 0 - 0 0 - 1 2 3 0 0 0 1 4 -
p737
aVGreg Anthony VAN 11/17/1995 VAN vs. LAL L 26 17 4 7 57.1 0 0 - 9 10 90.0 0 0 0 4 1 0 2 2 -
p738
aVByron Scott VAN 11/17/1995 VAN vs. LAL L 26 11 3 9 33.3 1 3 33.3 4 4 100.0 1 1 2 1 1 0 0 0 -
p739
aVLawrence Moten VAN 11/17/1995 VAN vs. LAL L 8 6 3 4 75.0 0 0 - 0 0 - 1 0 1 1 1 0 1 1 -
p740
aVKenny Gattison VAN 11/17/1995 VAN vs. LAL L 24 16 4 10 40.0 0 0 - 8 10 80.0 4 3 7 0 1 0 3 1 -
p741
aVBlue Edwards VAN 11/17/1995 VAN vs. LAL L 24 9 4 8 50.0 1 3 33.3 0 0 - 0 1 1 1 0 1 1 3 -
p742
aVChris King VAN 11/17/1995 VAN vs. LAL L 31 6 3 10 30.0 0 1 0.0 0 2 0.0 4 4 8 1 0 0 1 1 -
p743
aVAshraf Amaya VAN 11/17/1995 VAN vs. LAL L 7 4 2 3 66.7 0 0 - 0 0 - 0 1 1 0 0 1 0 3 -
p744
aVDarrick Martin VAN 11/17/1995 VAN vs. LAL L 22 3 1 6 16.7 0 3 0.0 1 2 50.0 2 0 2 5 0 0 3 2 -
p745
aVAntonio Harvey VAN 11/17/1995 VAN vs. LAL L 30 5 2 4 50.0 0 0 - 1 2 50.0 1 6 7 1 0 0 3 3 -
p746
aVKenny Gattison VAN 11/16/1995 VAN @ LAC L 22 3 1 2 50.0 0 0 - 1 3 33.3 0 2 2 0 1 0 1 3 -
p747
aVBlue Edwards VAN 11/16/1995 VAN @ LAC L 37 16 7 13 53.8 2 6 33.3 0 0 - 2 2 4 0 2 1 4 4 -
p748
aVByron Scott VAN 11/16/1995 VAN @ LAC L 30 18 6 10 60.0 3 4 75.0 3 4 75.0 1 1 2 1 0 0 1 0 -
p749
aVDarrick Martin VAN 11/16/1995 VAN @ LAC L 16 12 5 9 55.6 0 2 0.0 2 3 66.7 0 2 2 1 1 0 0 4 -
p750
aVBryant Reeves VAN 11/16/1995 VAN @ LAC L 20 10 4 8 50.0 0 0 - 2 3 66.7 1 2 3 0 0 0 0 3 -
p751
aVAntonio Harvey VAN 11/16/1995 VAN @ LAC L 26 4 2 2 100.0 0 0 - 0 2 0.0 1 5 6 0 2 1 1 3 -
p752
aVBenoit Benjamin VAN 11/16/1995 VAN @ LAC L 28 7 3 8 37.5 0 0 - 1 2 50.0 0 4 4 1 0 0 2 6 -
p753
aVChris King VAN 11/16/1995 VAN @ LAC L 29 11 4 6 66.7 0 0 - 3 6 50.0 2 3 5 0 1 0 2 1 -
p754
aVGreg Anthony VAN 11/16/1995 VAN @ LAC L 32 17 6 15 40.0 0 5 0.0 5 6 83.3 0 2 2 8 4 0 4 2 -
p755
aVKenny Gattison VAN 11/13/1995 VAN vs. DAL L 30 9 4 10 40.0 0 0 - 1 2 50.0 3 6 9 1 0 0 1 3 -
p756
aVDarrick Martin VAN 11/13/1995 VAN vs. DAL L 15 0 0 2 0.0 0 1 0.0 0 0 - 0 0 0 1 1 0 1 2 -
p757
aVBlue Edwards VAN 11/13/1995 VAN vs. DAL L 40 6 3 8 37.5 0 3 0.0 0 0 - 1 4 5 3 1 3 2 3 -
p758
aVBenoit Benjamin VAN 11/13/1995 VAN vs. DAL L 32 14 7 11 63.6 0 0 - 0 0 - 0 7 7 3 0 2 3 1 -
p759
aVBryant Reeves VAN 11/13/1995 VAN vs. DAL L 13 8 4 14 28.6 0 1 0.0 0 1 0.0 6 0 6 0 2 1 0 2 -
p760
aVByron Scott VAN 11/13/1995 VAN vs. DAL L 30 17 6 12 50.0 3 6 50.0 2 2 100.0 0 1 1 5 1 0 0 3 -
p761
aVChris King VAN 11/13/1995 VAN vs. DAL L 26 12 4 11 36.4 0 0 - 4 6 66.7 5 2 7 2 1 1 2 5 -
p762
aVGreg Anthony VAN 11/13/1995 VAN vs. DAL L 33 19 9 15 60.0 1 2 50.0 0 2 0.0 1 1 2 10 2 0 1 3 -
p763
aVAntonio Harvey VAN 11/13/1995 VAN vs. DAL L 21 4 1 8 12.5 0 0 - 2 2 100.0 0 8 8 0 0 1 0 4 -
p764
aVAntonio Harvey VAN 11/11/1995 VAN @ SEA L 18 5 2 9 22.2 0 1 0.0 1 2 50.0 4 1 5 0 1 0 0 3 -
p765
aVLawrence Moten VAN 11/11/1995 VAN @ SEA L 9 9 4 6 66.7 0 1 0.0 1 2 50.0 0 0 0 0 1 0 0 1 -
p766
aVDarrick Martin VAN 11/11/1995 VAN @ SEA L 21 4 2 6 33.3 0 1 0.0 0 0 - 1 1 2 1 1 0 0 0 -
p767
aVBlue Edwards VAN 11/11/1995 VAN @ SEA L 26 10 4 9 44.4 0 0 - 2 2 100.0 1 6 7 1 0 1 1 1 -
p768
aVBryant Reeves VAN 11/11/1995 VAN @ SEA L 10 2 1 5 20.0 0 0 - 0 0 - 1 1 2 0 0 0 1 2 -
p769
aVAnthony Avent VAN 11/11/1995 VAN @ SEA L 22 0 0 5 0.0 0 0 - 0 0 - 2 5 7 0 0 0 1 4 -
p770
aVChris King VAN 11/11/1995 VAN @ SEA L 29 11 5 9 55.6 0 0 - 1 3 33.3 3 1 4 1 0 0 4 3 -
p771
aVKenny Gattison VAN 11/11/1995 VAN @ SEA L 23 7 2 6 33.3 0 0 - 3 6 50.0 0 1 1 0 0 0 2 4 -
p772
aVByron Scott VAN 11/11/1995 VAN @ SEA L 21 9 3 7 42.9 0 4 0.0 3 3 100.0 0 0 0 1 0 0 1 1 -
p773
aVAshraf Amaya VAN 11/11/1995 VAN @ SEA L 6 0 0 3 0.0 0 0 - 0 0 - 2 1 3 1 0 0 0 1 -
p774
aVBenoit Benjamin VAN 11/11/1995 VAN @ SEA L 29 14 6 15 40.0 0 0 - 2 2 100.0 3 5 8 1 0 2 3 2 -
p775
aVGreg Anthony VAN 11/11/1995 VAN @ SEA L 26 10 3 6 50.0 0 1 0.0 4 7 57.1 1 2 3 3 3 0 1 4 -
p776
aVAshraf Amaya VAN 11/10/1995 VAN vs. LAC L 5 0 0 0 - 0 0 - 0 0 - 0 0 0 0 0 0 0 1 -
p777
aVDarrick Martin VAN 11/10/1995 VAN vs. LAC L 14 4 2 3 66.7 0 0 - 0 0 - 0 1 1 4 2 0 2 2 -
p778
aVAntonio Harvey VAN 11/10/1995 VAN vs. LAC L 20 2 1 3 33.3 0 0 - 0 0 - 1 1 2 2 2 2 0 2 -
p779
aVGreg Anthony VAN 11/10/1995 VAN vs. LAC L 34 28 8 14 57.1 1 3 33.3 11 12 91.7 0 3 3 8 1 1 5 4 -
p780
aVByron Scott VAN 11/10/1995 VAN vs. LAC L 22 10 3 4 75.0 0 1 0.0 4 5 80.0 1 2 3 1 2 1 1 2 -
p781
aVKenny Gattison VAN 11/10/1995 VAN vs. LAC L 30 11 5 8 62.5 0 0 - 1 1 100.0 0 2 2 1 1 0 3 3 -
p782
aVChris King VAN 11/10/1995 VAN vs. LAC L 34 10 3 11 27.3 0 0 - 4 4 100.0 2 1 3 3 0 0 3 4 -
p783
aVBenoit Benjamin VAN 11/10/1995 VAN vs. LAC L 36 10 4 12 33.3 0 0 - 2 3 66.7 2 9 11 1 3 1 5 4 -
p784
aVBlue Edwards VAN 11/10/1995 VAN vs. LAC L 40 15 3 6 50.0 2 3 66.7 7 8 87.5 0 3 3 2 3 2 2 4 -
p785
aVBryant Reeves VAN 11/10/1995 VAN vs. LAC L 5 1 0 0 - 0 0 - 1 2 50.0 0 1 1 0 0 0 2 2 -
p786
aVAshraf Amaya VAN 11/08/1995 VAN @ SAN L 12 6 1 4 25.0 0 0 - 4 6 66.7 2 2 4 0 1 0 0 0 -
p787
aVGreg Anthony VAN 11/08/1995 VAN @ SAN L 24 0 0 6 0.0 0 2 0.0 0 0 - 1 1 2 2 0 0 4 2 -
p788
aVAnthony Avent VAN 11/08/1995 VAN @ SAN L 13 4 2 5 40.0 0 0 - 0 0 - 2 2 4 0 0 1 1 2 -
p789
aVBryant Reeves VAN 11/08/1995 VAN @ SAN L 9 9 4 6 66.7 0 0 - 1 1 100.0 1 0 1 0 0 0 0 3 -
p790
aVDarrick Martin VAN 11/08/1995 VAN @ SAN L 24 4 2 7 28.6 0 1 0.0 0 0 - 1 1 2 3 0 0 1 1 -
p791
aVKenny Gattison VAN 11/08/1995 VAN @ SAN L 24 7 1 5 20.0 0 0 - 5 8 62.5 1 6 7 0 0 0 2 4 -
p792
aVLawrence Moten VAN 11/08/1995 VAN @ SAN L 14 4 1 4 25.0 0 0 - 2 4 50.0 0 0 0 1 0 0 1 4 -
p793
aVAntonio Harvey VAN 11/08/1995 VAN @ SAN L 18 3 1 5 20.0 0 0 - 1 2 50.0 4 5 9 0 0 2 2 0 -
p794
aVByron Scott VAN 11/08/1995 VAN @ SAN L 14 3 1 4 25.0 0 1 0.0 1 1 100.0 0 1 1 0 0 0 0 2 -
p795
aVBlue Edwards VAN 11/08/1995 VAN @ SAN L 28 4 2 8 25.0 0 1 0.0 0 0 - 0 2 2 1 0 0 5 3 -
p796
aVChris King VAN 11/08/1995 VAN @ SAN L 33 12 4 9 44.4 0 1 0.0 4 4 100.0 1 3 4 1 3 0 2 2 -
p797
aVBenoit Benjamin VAN 11/08/1995 VAN @ SAN L 27 6 3 15 20.0 0 0 - 0 0 - 5 6 11 0 0 0 5 3 -
p798
aVAntonio Harvey VAN 11/07/1995 VAN @ DAL L 18 6 2 3 66.7 0 0 - 2 2 100.0 1 2 3 0 1 1 2 0 -
p799
aVAshraf Amaya VAN 11/07/1995 VAN @ DAL L 15 2 0 0 - 0 0 - 2 4 50.0 1 4 5 1 1 0 0 1 -
p800
aVDarrick Martin VAN 11/07/1995 VAN @ DAL L 23 15 6 8 75.0 1 1 100.0 2 2 100.0 0 1 1 7 3 0 1 1 -
p801
aVBlue Edwards VAN 11/07/1995 VAN @ DAL L 29 10 5 8 62.5 0 0 - 0 0 - 2 3 5 0 1 0 1 3 -
p802
aVChris King VAN 11/07/1995 VAN @ DAL L 30 8 3 6 50.0 1 3 33.3 1 2 50.0 0 3 3 2 2 0 1 2 -
p803
aVLawrence Moten VAN 11/07/1995 VAN @ DAL L 10 4 2 4 50.0 0 1 0.0 0 0 - 0 0 0 0 0 0 0 1 -
p804
aVKenny Gattison VAN 11/07/1995 VAN @ DAL L 20 13 5 9 55.6 0 0 - 3 3 100.0 2 2 4 1 0 0 0 0 -
p805
aVBenoit Benjamin VAN 11/07/1995 VAN @ DAL L 34 16 4 15 26.7 0 0 - 8 10 80.0 2 3 5 1 1 3 4 3 -
p806
aVGreg Anthony VAN 11/07/1995 VAN @ DAL L 26 2 1 9 11.1 0 5 0.0 0 0 - 0 6 6 5 0 0 2 1 -
p807
aVByron Scott VAN 11/07/1995 VAN @ DAL L 21 8 3 11 27.3 0 1 0.0 2 4 50.0 0 0 0 1 0 0 0 1 -
p808
aVBryant Reeves VAN 11/07/1995 VAN @ DAL L 14 4 2 4 50.0 0 0 - 0 0 - 1 2 3 0 1 1 3 2 -
p809
aVAntonio Harvey VAN 11/05/1995 VAN vs. MIN W 23 4 2 4 50.0 0 0 - 0 0 - 0 2 2 1 1 3 2 3 -
p810
aVGreg Anthony VAN 11/05/1995 VAN vs. MIN W 38 17 4 12 33.3 1 3 33.3 8 10 80.0 2 7 9 8 0 0 4 3 -
p811
aVKenny Gattison VAN 11/05/1995 VAN vs. MIN W 38 13 6 10 60.0 0 0 - 1 3 33.3 4 9 13 0 0 2 3 4 -
p812
aVByron Scott VAN 11/05/1995 VAN vs. MIN W 31 18 6 12 50.0 1 4 25.0 5 7 71.4 3 5 8 1 2 0 1 0 -
p813
aVChris King VAN 11/05/1995 VAN vs. MIN W 38 9 3 10 30.0 0 1 0.0 3 5 60.0 3 2 5 1 2 0 1 2 -
p814
aVBlue Edwards VAN 11/05/1995 VAN vs. MIN W 46 16 6 15 40.0 1 2 50.0 3 8 37.5 3 5 8 6 2 1 2 4 -
p815
aVBenoit Benjamin VAN 11/05/1995 VAN vs. MIN W 29 9 4 9 44.4 0 0 - 1 2 50.0 4 2 6 0 1 1 2 3 -
p816
aVBryant Reeves VAN 11/05/1995 VAN vs. MIN W 7 0 0 1 0.0 0 0 - 0 0 - 0 0 0 0 0 0 1 2 -
p817
aVDarrick Martin VAN 11/05/1995 VAN vs. MIN W 15 14 5 6 83.3 0 0 - 4 5 80.0 0 2 2 4 2 0 3 3 -
p818
aVLawrence Moten VAN 11/03/1995 VAN @ POR W 10 3 1 3 33.3 0 1 0.0 1 2 50.0 0 2 2 3 0 0 1 0 -
p819
aVGreg Anthony VAN 11/03/1995 VAN @ POR W 38 15 5 11 45.5 0 1 0.0 5 7 71.4 0 4 4 6 3 0 3 4 -
p820
aVBlue Edwards VAN 11/03/1995 VAN @ POR W 31 10 4 11 36.4 1 2 50.0 1 1 100.0 0 3 3 0 1 0 1 3 -
p821
aVChris King VAN 11/03/1995 VAN @ POR W 26 12 4 11 36.4 0 1 0.0 4 4 100.0 3 2 5 0 3 0 3 4 -
p822
aVBryant Reeves VAN 11/03/1995 VAN @ POR W 10 4 2 2 100.0 0 0 - 0 0 - 0 1 1 0 0 0 0 2 -
p823
aVAnthony Avent VAN 11/03/1995 VAN @ POR W 3 0 0 0 - 0 0 - 0 0 - 0 1 1 0 0 0 0 1 -
p824
aVBenoit Benjamin VAN 11/03/1995 VAN @ POR W 38 29 11 19 57.9 0 0 - 7 10 70.0 3 10 13 1 2 3 4 3 -
p825
aVByron Scott VAN 11/03/1995 VAN @ POR W 31 14 4 7 57.1 0 0 - 6 6 100.0 0 0 0 4 2 0 3 3 -
p826
aVKenny Gattison VAN 11/03/1995 VAN @ POR W 23 3 1 7 14.3 0 0 - 1 1 100.0 2 4 6 0 0 1 0 4 -
p827
aVAntonio Harvey VAN 11/03/1995 VAN @ POR W 30 2 1 4 25.0 0 0 - 0 2 0.0 2 2 4 0 1 1 3 4 -
p828
a.