(lp0
VPLAYER TEAM DATE MATCHUP W/L MIN PTS FGM FGA FG% 3PM 3PA 3P% FTM FTA FT% OREB DREB REB AST STL BLK TOV PF +/-
p1
aVDonald Royal ORL 05/27/1996 ORL vs. CHI L 25 4 1 1 100.0 0 0 - 2 2 100.0 0 2 2 0 0 0 1 3 -
p2
aVAnfernee Hardaway ORL 05/27/1996 ORL vs. CHI L 45 28 9 21 42.9 1 6 16.7 9 12 75.0 0 3 3 8 0 1 3 3 -
p3
aVJoe Wolf ORL 05/27/1996 ORL vs. CHI L 12 5 1 1 100.0 1 1 100.0 2 2 100.0 0 0 0 0 0 0 0 2 -
p4
aVBrooks Thompson ORL 05/27/1996 ORL vs. CHI L 27 17 7 10 70.0 1 2 50.0 2 3 66.7 2 1 3 3 0 0 4 4 -
p5
aVJon Koncak ORL 05/27/1996 ORL vs. CHI L 19 2 1 1 100.0 0 0 - 0 0 - 1 1 2 1 1 0 0 4 -
p6
aVAnthony Bowie ORL 05/27/1996 ORL vs. CHI L 34 8 3 6 50.0 0 0 - 2 2 100.0 0 4 4 2 1 0 3 4 -
p7
aVShaquille O'Neal ORL 05/27/1996 ORL vs. CHI L 42 28 11 13 84.6 0 0 - 6 9 66.7 1 8 9 3 1 3 3 5 -
p8
aVDennis Scott ORL 05/27/1996 ORL vs. CHI L 36 9 4 13 30.8 1 6 16.7 0 2 0.0 1 0 1 3 2 0 1 5 -
p9
aVAnfernee Hardaway ORL 05/25/1996 ORL vs. CHI L 46 18 8 24 33.3 2 9 22.2 0 0 - 2 5 7 3 1 0 3 1 -
p10
aVAnthony Bonner ORL 05/25/1996 ORL vs. CHI L 6 0 0 1 0.0 0 0 - 0 0 - 1 0 1 0 0 0 0 2 -
p11
aVJon Koncak ORL 05/25/1996 ORL vs. CHI L 20 1 0 0 - 0 0 - 1 2 50.0 0 0 0 0 1 1 0 4 -
p12
aVShaquille O'Neal ORL 05/25/1996 ORL vs. CHI L 45 17 8 19 42.1 0 0 - 1 9 11.1 6 6 12 3 2 2 5 4 -
p13
aVJoe Wolf ORL 05/25/1996 ORL vs. CHI L 10 0 0 1 0.0 0 0 - 0 0 - 0 1 1 0 0 0 1 3 -
p14
aVDennis Scott ORL 05/25/1996 ORL vs. CHI L 37 7 1 9 11.1 1 7 14.3 4 6 66.7 1 3 4 0 2 0 0 5 -
p15
aVBrooks Thompson ORL 05/25/1996 ORL vs. CHI L 12 4 1 7 14.3 0 3 0.0 2 2 100.0 1 0 1 2 0 0 3 1 -
p16
aVNick Anderson ORL 05/25/1996 ORL vs. CHI L 40 14 6 11 54.5 2 4 50.0 0 2 0.0 2 5 7 0 4 0 3 2 -
p17
aVAnthony Bowie ORL 05/25/1996 ORL vs. CHI L 9 0 0 2 0.0 0 0 - 0 0 - 0 0 0 2 0 0 0 1 -
p18
aVDonald Royal ORL 05/25/1996 ORL vs. CHI L 15 6 2 3 66.7 0 0 - 2 3 66.7 1 0 1 0 0 1 0 0 -
p19
aVAnfernee Hardaway ORL 05/21/1996 ORL @ CHI L 44 18 6 15 40.0 1 5 20.0 5 7 71.4 0 2 2 3 0 0 3 6 -
p20
aVShaquille O'Neal ORL 05/21/1996 ORL @ CHI L 44 36 16 22 72.7 0 0 - 4 8 50.0 7 9 16 4 1 1 6 2 -
p21
aVBrian Shaw ORL 05/21/1996 ORL @ CHI L 28 7 3 9 33.3 1 3 33.3 0 0 - 3 3 6 6 1 0 2 4 -
p22
aVDonald Royal ORL 05/21/1996 ORL @ CHI L 7 0 0 2 0.0 0 0 - 0 0 - 0 0 0 0 0 0 0 2 -
p23
aVJon Koncak ORL 05/21/1996 ORL @ CHI L 22 3 1 2 50.0 0 0 - 1 2 50.0 2 3 5 1 0 1 1 4 -
p24
aVDennis Scott ORL 05/21/1996 ORL @ CHI L 42 13 4 9 44.4 1 4 25.0 4 5 80.0 1 2 3 3 1 0 1 1 -
p25
aVAnthony Bowie ORL 05/21/1996 ORL @ CHI L 11 2 1 1 100.0 0 0 - 0 0 - 0 1 1 0 0 0 0 2 -
p26
aVNick Anderson ORL 05/21/1996 ORL @ CHI L 42 9 3 11 27.3 1 7 14.3 2 3 66.7 1 3 4 0 1 0 4 4 -
p27
aVDonald Royal ORL 05/19/1996 ORL @ CHI L 14 4 2 2 100.0 0 0 - 0 2 0.0 1 1 2 1 0 0 1 0 -
p28
aVNick Anderson ORL 05/19/1996 ORL @ CHI L 30 2 0 7 0.0 0 4 0.0 2 6 33.3 1 4 5 2 1 0 1 1 -
p29
aVAnthony Bonner ORL 05/19/1996 ORL @ CHI L 3 0 0 0 - 0 0 - 0 0 - 1 0 1 0 0 0 0 0 -
p30
aVAnfernee Hardaway ORL 05/19/1996 ORL @ CHI L 40 38 15 21 71.4 4 6 66.7 4 7 57.1 1 2 3 3 3 0 4 1 -
p31
aVJon Koncak ORL 05/19/1996 ORL @ CHI L 4 0 0 1 0.0 0 0 - 0 0 - 1 0 1 0 1 0 1 1 -
p32
aVHorace Grant ORL 05/19/1996 ORL @ CHI L 28 0 0 1 0.0 0 0 - 0 0 - 0 1 1 0 0 0 1 1 -
p33
aVBrian Shaw ORL 05/19/1996 ORL @ CHI L 28 5 2 4 50.0 1 2 50.0 0 0 - 0 2 2 3 0 0 2 1 -
p34
aVAnthony Bowie ORL 05/19/1996 ORL @ CHI L 19 4 2 7 28.6 0 0 - 0 0 - 1 2 3 2 1 1 0 2 -
p35
aVJoe Wolf ORL 05/19/1996 ORL @ CHI L 3 1 0 4 0.0 0 2 0.0 1 2 50.0 0 1 1 0 0 0 1 0 -
p36
aVBrooks Thompson ORL 05/19/1996 ORL @ CHI L 5 2 1 2 50.0 0 0 - 0 0 - 0 1 1 0 0 0 1 1 -
p37
aVShaquille O'Neal ORL 05/19/1996 ORL @ CHI L 40 27 13 21 61.9 0 0 - 1 7 14.3 0 6 6 6 2 0 3 2 -
p38
aVDennis Scott ORL 05/19/1996 ORL @ CHI L 26 0 0 3 0.0 0 2 0.0 0 0 - 0 2 2 0 0 0 1 2 -
p39
aVAnthony Bowie ORL 05/15/1996 ORL vs. ATL W 6 2 1 1 100.0 0 0 - 0 0 - 0 2 2 1 1 0 0 1 -
p40
aVNick Anderson ORL 05/15/1996 ORL vs. ATL W 42 16 7 15 46.7 2 8 25.0 0 2 0.0 0 5 5 1 3 1 1 2 -
p41
aVShaquille O'Neal ORL 05/15/1996 ORL vs. ATL W 42 27 11 14 78.6 0 0 - 5 15 33.3 7 8 15 4 0 1 3 1 -
p42
aVDennis Scott ORL 05/15/1996 ORL vs. ATL W 32 7 2 8 25.0 2 6 33.3 1 1 100.0 1 3 4 4 0 0 0 3 -
p43
aVHorace Grant ORL 05/15/1996 ORL vs. ATL W 37 10 5 8 62.5 0 0 - 0 0 - 3 3 6 2 1 0 2 2 -
p44
aVBrian Shaw ORL 05/15/1996 ORL vs. ATL W 22 6 3 7 42.9 0 1 0.0 0 0 - 0 1 1 3 0 0 2 2 -
p45
aVAnfernee Hardaway ORL 05/15/1996 ORL vs. ATL W 42 24 9 23 39.1 2 5 40.0 4 6 66.7 7 4 11 3 1 0 3 2 -
p46
aVJon Koncak ORL 05/15/1996 ORL vs. ATL W 6 0 0 0 - 0 0 - 0 0 - 1 1 2 0 0 0 0 3 -
p47
aVJoe Wolf ORL 05/15/1996 ORL vs. ATL W 11 4 2 4 50.0 0 0 - 0 0 - 1 0 1 1 0 0 0 3 -
p48
aVJoe Wolf ORL 05/13/1996 ORL @ ATL L 4 0 0 1 0.0 0 0 - 0 0 - 0 0 0 0 0 0 0 1 -
p49
aVNick Anderson ORL 05/13/1996 ORL @ ATL L 36 5 2 9 22.2 1 6 16.7 0 0 - 2 3 5 2 0 1 0 3 -
p50
aVShaquille O'Neal ORL 05/13/1996 ORL @ ATL L 37 19 7 17 41.2 0 0 - 5 17 29.4 1 7 8 4 1 1 1 3 -
p51
aVJon Koncak ORL 05/13/1996 ORL @ ATL L 8 0 0 0 - 0 0 - 0 0 - 0 1 1 0 0 0 0 2 -
p52
aVDennis Scott ORL 05/13/1996 ORL @ ATL L 41 8 3 12 25.0 2 8 25.0 0 0 - 0 5 5 2 0 1 4 2 -
p53
aVAnfernee Hardaway ORL 05/13/1996 ORL @ ATL L 37 29 10 19 52.6 0 3 0.0 9 11 81.8 2 2 4 11 3 0 1 3 -
p54
aVBrian Shaw ORL 05/13/1996 ORL @ ATL L 21 7 2 7 28.6 2 4 50.0 1 2 50.0 0 2 2 2 0 0 2 4 -
p55
aVAnthony Bowie ORL 05/13/1996 ORL @ ATL L 12 2 1 2 50.0 0 0 - 0 0 - 1 1 2 0 0 0 2 0 -
p56
aVHorace Grant ORL 05/13/1996 ORL @ ATL L 44 29 14 17 82.4 0 0 - 1 2 50.0 9 11 20 1 2 0 0 2 -
p57
aVJoe Wolf ORL 05/12/1996 ORL @ ATL W 5 0 0 1 0.0 0 0 - 0 0 - 0 0 0 0 0 0 0 1 -
p58
aVNick Anderson ORL 05/12/1996 ORL @ ATL W 40 18 7 16 43.8 2 8 25.0 2 4 50.0 3 3 6 1 0 1 3 4 -
p59
aVBrian Shaw ORL 05/12/1996 ORL @ ATL W 22 5 2 7 28.6 1 2 50.0 0 0 - 1 1 2 3 2 0 2 3 -
p60
aVAnthony Bowie ORL 05/12/1996 ORL @ ATL W 5 0 0 0 - 0 0 - 0 0 - 0 1 1 0 0 0 0 1 -
p61
aVAnfernee Hardaway ORL 05/12/1996 ORL @ ATL W 39 21 9 19 47.4 1 2 50.0 2 4 50.0 2 0 2 6 2 0 2 1 -
p62
aVDennis Scott ORL 05/12/1996 ORL @ ATL W 40 15 5 8 62.5 4 6 66.7 1 1 100.0 0 6 6 2 0 0 1 3 -
p63
aVShaquille O'Neal ORL 05/12/1996 ORL @ ATL W 37 24 10 16 62.5 0 0 - 4 13 30.8 6 6 12 4 0 2 3 5 -
p64
aVJon Koncak ORL 05/12/1996 ORL @ ATL W 10 0 0 0 - 0 0 - 0 0 - 1 2 3 0 0 0 0 5 -
p65
aVHorace Grant ORL 05/12/1996 ORL @ ATL W 42 20 6 9 66.7 0 0 - 8 8 100.0 1 6 7 4 1 0 0 2 -
p66
aVShaquille O'Neal ORL 05/10/1996 ORL vs. ATL W 32 28 11 15 73.3 0 0 - 6 8 75.0 4 5 9 5 1 1 5 3 -
p67
aVAnthony Bowie ORL 05/10/1996 ORL vs. ATL W 16 2 1 3 33.3 0 0 - 0 0 - 1 2 3 1 0 1 0 3 -
p68
aVHorace Grant ORL 05/10/1996 ORL vs. ATL W 32 14 7 13 53.8 0 0 - 0 0 - 3 8 11 2 1 0 1 2 -
p69
aVDennis Scott ORL 05/10/1996 ORL vs. ATL W 35 17 7 12 58.3 3 6 50.0 0 0 - 2 5 7 1 0 0 0 2 -
p70
aVNick Anderson ORL 05/10/1996 ORL vs. ATL W 31 22 6 11 54.5 2 4 50.0 8 8 100.0 1 2 3 5 6 0 2 1 -
p71
aVJon Koncak ORL 05/10/1996 ORL vs. ATL W 13 0 0 1 0.0 0 0 - 0 0 - 1 1 2 1 0 0 0 3 -
p72
aVBrian Shaw ORL 05/10/1996 ORL vs. ATL W 22 8 3 6 50.0 2 3 66.7 0 0 - 1 3 4 6 0 0 1 0 -
p73
aVBrooks Thompson ORL 05/10/1996 ORL vs. ATL W 3 2 1 2 50.0 0 1 0.0 0 0 - 0 0 0 2 0 1 1 1 -
p74
aVAnthony Bonner ORL 05/10/1996 ORL vs. ATL W 3 3 1 2 50.0 0 0 - 1 2 50.0 0 0 0 0 0 0 0 0 -
p75
aVDonald Royal ORL 05/10/1996 ORL vs. ATL W 8 5 1 2 50.0 0 0 - 3 4 75.0 1 1 2 0 0 0 0 0 -
p76
aVJoe Wolf ORL 05/10/1996 ORL vs. ATL W 16 4 2 5 40.0 0 0 - 0 0 - 0 2 2 0 0 0 0 4 -
p77
aVAnfernee Hardaway ORL 05/10/1996 ORL vs. ATL W 29 15 5 13 38.5 1 3 33.3 4 4 100.0 1 2 3 7 2 0 2 1 -
p78
aVJon Koncak ORL 05/08/1996 ORL vs. ATL W 6 0 0 0 - 0 0 - 0 0 - 0 1 1 0 1 0 0 1 -
p79
aVShaquille O'Neal ORL 05/08/1996 ORL vs. ATL W 36 41 18 28 64.3 0 0 - 5 11 45.5 9 4 13 6 0 1 2 2 -
p80
aVDennis Scott ORL 05/08/1996 ORL vs. ATL W 37 5 2 8 25.0 1 5 20.0 0 0 - 0 1 1 2 1 0 2 4 -
p81
aVNick Anderson ORL 05/08/1996 ORL vs. ATL W 41 21 8 16 50.0 2 7 28.6 3 3 100.0 0 4 4 4 3 0 2 1 -
p82
aVAnfernee Hardaway ORL 05/08/1996 ORL vs. ATL W 36 32 12 19 63.2 2 3 66.7 6 9 66.7 3 3 6 6 2 0 2 4 -
p83
aVDonald Royal ORL 05/08/1996 ORL vs. ATL W 11 1 0 0 - 0 0 - 1 2 50.0 0 3 3 0 0 0 0 2 -
p84
aVHorace Grant ORL 05/08/1996 ORL vs. ATL W 35 17 8 11 72.7 0 0 - 1 1 100.0 2 8 10 1 1 2 1 3 -
p85
aVBrian Shaw ORL 05/08/1996 ORL vs. ATL W 18 0 0 1 0.0 0 1 0.0 0 0 - 1 0 1 5 0 0 4 5 -
p86
aVAnthony Bowie ORL 05/08/1996 ORL vs. ATL W 12 0 0 0 - 0 0 - 0 0 - 0 0 0 2 0 0 0 1 -
p87
aVJoe Wolf ORL 05/08/1996 ORL vs. ATL W 8 0 0 0 - 0 0 - 0 0 - 0 0 0 0 1 0 0 0 -
p88
aVBrian Shaw ORL 04/30/1996 ORL @ DET W 14 0 0 4 0.0 0 2 0.0 0 0 - 0 1 1 3 1 0 1 3 -
p89
aVAnthony Bowie ORL 04/30/1996 ORL @ DET W 6 2 1 1 100.0 0 0 - 0 0 - 0 0 0 1 0 0 0 1 -
p90
aVNick Anderson ORL 04/30/1996 ORL @ DET W 41 22 7 14 50.0 2 5 40.0 6 10 60.0 3 4 7 1 1 0 1 3 -
p91
aVAnfernee Hardaway ORL 04/30/1996 ORL @ DET W 41 24 7 17 41.2 2 5 40.0 8 9 88.9 2 3 5 5 2 1 3 2 -
p92
aVDennis Scott ORL 04/30/1996 ORL @ DET W 45 18 6 10 60.0 3 6 50.0 3 4 75.0 1 3 4 2 1 0 2 4 -
p93
aVHorace Grant ORL 04/30/1996 ORL @ DET W 40 16 7 10 70.0 0 0 - 2 2 100.0 5 11 16 1 0 1 0 5 -
p94
aVJon Koncak ORL 04/30/1996 ORL @ DET W 11 2 1 1 100.0 0 0 - 0 0 - 1 1 2 0 0 0 1 4 -
p95
aVJoe Wolf ORL 04/30/1996 ORL @ DET W 10 4 2 3 66.7 0 0 - 0 0 - 0 0 0 1 0 0 1 5 -
p96
aVShaquille O'Neal ORL 04/30/1996 ORL @ DET W 32 13 4 13 30.8 0 0 - 5 9 55.6 1 4 5 3 1 1 6 5 -
p97
aVJon Koncak ORL 04/28/1996 ORL vs. DET W 16 3 1 1 100.0 0 0 - 1 3 33.3 0 4 4 0 1 1 0 6 -
p98
aVAnfernee Hardaway ORL 04/28/1996 ORL vs. DET W 39 15 5 14 35.7 1 4 25.0 4 5 80.0 0 4 4 8 2 0 0 1 -
p99
aVShaquille O'Neal ORL 04/28/1996 ORL vs. DET W 36 29 13 19 68.4 0 0 - 3 6 50.0 3 4 7 6 0 1 5 5 -
p100
aVNick Anderson ORL 04/28/1996 ORL vs. DET W 38 15 5 10 50.0 4 8 50.0 1 2 50.0 2 4 6 4 1 1 1 0 -
p101
aVJoe Wolf ORL 04/28/1996 ORL vs. DET W 1 0 0 0 - 0 0 - 0 0 - 0 0 0 0 0 0 1 0 -
p102
aVDennis Scott ORL 04/28/1996 ORL vs. DET W 40 14 6 10 60.0 2 4 50.0 0 2 0.0 1 3 4 2 2 0 2 3 -
p103
aVBrian Shaw ORL 04/28/1996 ORL vs. DET W 18 0 0 2 0.0 0 2 0.0 0 0 - 0 1 1 4 1 0 1 1 -
p104
aVHorace Grant ORL 04/28/1996 ORL vs. DET W 42 14 7 15 46.7 0 0 - 0 0 - 4 6 10 1 1 2 1 3 -
p105
aVAnthony Bowie ORL 04/28/1996 ORL vs. DET W 10 2 1 2 50.0 0 0 - 0 0 - 0 1 1 1 0 0 0 0 -
p106
aVAnfernee Hardaway ORL 04/26/1996 ORL vs. DET W 35 18 6 12 50.0 3 4 75.0 3 4 75.0 0 6 6 9 2 2 0 2 -
p107
aVDennis Scott ORL 04/26/1996 ORL vs. DET W 35 23 8 14 57.1 6 9 66.7 1 1 100.0 1 1 2 2 0 0 1 3 -
p108
aVShaquille O'Neal ORL 04/26/1996 ORL vs. DET W 36 21 9 19 47.4 0 0 - 3 10 30.0 4 4 8 7 0 1 2 3 -
p109
aVBrooks Thompson ORL 04/26/1996 ORL vs. DET W 1 1 0 0 - 0 0 - 1 2 50.0 0 0 0 0 0 0 0 0 -
p110
aVJon Koncak ORL 04/26/1996 ORL vs. DET W 5 0 0 0 - 0 0 - 0 0 - 0 0 0 0 0 1 0 2 -
p111
aVNick Anderson ORL 04/26/1996 ORL vs. DET W 37 12 4 7 57.1 0 2 0.0 4 5 80.0 1 2 3 1 1 1 3 1 -
p112
aVAnthony Bowie ORL 04/26/1996 ORL vs. DET W 12 6 2 2 100.0 0 0 - 2 2 100.0 0 0 0 2 0 0 0 0 -
p113
aVDonald Royal ORL 04/26/1996 ORL vs. DET W 12 5 1 2 50.0 0 0 - 3 3 100.0 1 0 1 0 0 0 0 0 -
p114
aVHorace Grant ORL 04/26/1996 ORL vs. DET W 34 15 7 10 70.0 0 0 - 1 2 50.0 4 9 13 1 0 1 0 3 -
p115
aVAnthony Bonner ORL 04/26/1996 ORL vs. DET W 4 0 0 0 - 0 0 - 0 0 - 0 0 0 1 0 0 0 1 -
p116
aVBrian Shaw ORL 04/26/1996 ORL vs. DET W 24 9 3 5 60.0 1 2 50.0 2 2 100.0 0 1 1 11 0 0 2 4 -
p117
aVJoe Wolf ORL 04/26/1996 ORL vs. DET W 5 2 1 3 33.3 0 0 - 0 0 - 0 1 1 0 0 0 0 0 -
p118
a.