(lp0
VPLAYER TEAM DATE MATCHUP W/L MIN PTS FGM FGA FG% 3PM 3PA 3P% FTM FTA FT% OREB DREB REB AST STL BLK TOV PF +/-
p1
aVBilly Owens SAC 05/02/1996 SAC vs. SEA L 25 4 2 7 28.6 0 0 - 0 0 - 0 3 3 2 1 0 2 6 -
p2
aVOlden Polynice SAC 05/02/1996 SAC vs. SEA L 36 10 3 8 37.5 0 0 - 4 4 100.0 1 8 9 2 0 3 0 3 -
p3
aVMitch Richmond SAC 05/02/1996 SAC vs. SEA L 11 5 1 2 50.0 0 1 0.0 3 3 100.0 0 0 0 2 0 0 0 0 -
p4
aVSarunas Marciulionis SAC 05/02/1996 SAC vs. SEA L 29 7 2 7 28.6 0 4 0.0 3 4 75.0 0 2 2 2 3 0 4 2 -
p5
aVKevin Gamble SAC 05/02/1996 SAC vs. SEA L 2 0 0 0 - 0 0 - 0 0 - 0 0 0 0 0 0 0 0 -
p6
aVBobby Hurley SAC 05/02/1996 SAC vs. SEA L 2 0 0 0 - 0 0 - 0 0 - 0 0 0 0 0 0 0 0 -
p7
aVTyus Edney SAC 05/02/1996 SAC vs. SEA L 37 14 4 10 40.0 1 2 50.0 5 6 83.3 0 3 3 2 3 0 4 1 -
p8
aVMichael Smith SAC 05/02/1996 SAC vs. SEA L 22 7 2 5 40.0 0 0 - 3 6 50.0 3 6 9 1 1 2 1 3 -
p9
aVDuane Causwell SAC 05/02/1996 SAC vs. SEA L 13 2 1 2 50.0 0 1 0.0 0 0 - 0 3 3 1 0 0 2 2 -
p10
aVBrian Grant SAC 05/02/1996 SAC vs. SEA L 26 13 6 12 50.0 0 0 - 1 2 50.0 1 1 2 0 1 1 4 2 -
p11
aVCorliss Williamson SAC 05/02/1996 SAC vs. SEA L 2 1 0 1 0.0 0 0 - 1 1 100.0 0 0 0 0 0 0 0 0 -
p12
aVLionel Simmons SAC 05/02/1996 SAC vs. SEA L 35 24 9 20 45.0 2 4 50.0 4 5 80.0 3 3 6 3 2 1 2 3 -
p13
aVBrian Grant SAC 04/30/1996 SAC vs. SEA L 36 8 4 13 30.8 0 0 - 0 4 0.0 3 4 7 2 0 2 2 6 -
p14
aVMichael Smith SAC 04/30/1996 SAC vs. SEA L 18 3 1 2 50.0 0 0 - 1 2 50.0 0 1 1 2 0 0 0 3 -
p15
aVSarunas Marciulionis SAC 04/30/1996 SAC vs. SEA L 16 6 2 5 40.0 1 3 33.3 1 2 50.0 2 0 2 3 3 0 0 0 -
p16
aVBilly Owens SAC 04/30/1996 SAC vs. SEA L 36 8 3 9 33.3 0 2 0.0 2 2 100.0 2 8 10 6 0 1 2 5 -
p17
aVLionel Simmons SAC 04/30/1996 SAC vs. SEA L 10 5 2 4 50.0 0 1 0.0 1 2 50.0 0 0 0 1 2 0 0 3 -
p18
aVOlden Polynice SAC 04/30/1996 SAC vs. SEA L 41 18 8 16 50.0 0 0 - 2 2 100.0 5 9 14 0 0 2 1 5 -
p19
aVTyus Edney SAC 04/30/1996 SAC vs. SEA L 35 17 7 13 53.8 1 3 33.3 2 2 100.0 1 5 6 5 2 0 2 0 -
p20
aVMitch Richmond SAC 04/30/1996 SAC vs. SEA L 48 24 6 17 35.3 4 10 40.0 8 11 72.7 0 5 5 2 0 0 1 3 -
p21
aVBrian Grant SAC 04/28/1996 SAC @ SEA W 39 9 4 10 40.0 0 0 - 1 2 50.0 2 5 7 2 0 3 2 3 -
p22
aVMichael Smith SAC 04/28/1996 SAC @ SEA W 30 5 2 3 66.7 0 0 - 1 3 33.3 3 5 8 3 0 0 1 5 -
p23
aVLionel Simmons SAC 04/28/1996 SAC @ SEA W 10 2 1 3 33.3 0 1 0.0 0 0 - 1 1 2 2 1 0 1 2 -
p24
aVBilly Owens SAC 04/28/1996 SAC @ SEA W 39 12 6 9 66.7 0 1 0.0 0 1 0.0 2 4 6 5 2 0 5 4 -
p25
aVSarunas Marciulionis SAC 04/28/1996 SAC @ SEA W 28 12 4 11 36.4 3 7 42.9 1 2 50.0 1 0 1 5 2 0 4 0 -
p26
aVTyus Edney SAC 04/28/1996 SAC @ SEA W 20 1 0 7 0.0 0 1 0.0 1 2 50.0 1 0 1 2 3 0 1 4 -
p27
aVOlden Polynice SAC 04/28/1996 SAC @ SEA W 26 12 6 11 54.5 0 0 - 0 2 0.0 6 10 16 1 1 0 0 3 -
p28
aVMitch Richmond SAC 04/28/1996 SAC @ SEA W 48 37 13 22 59.1 3 10 30.0 8 9 88.9 1 3 4 4 2 0 7 3 -
p29
aVSarunas Marciulionis SAC 04/26/1996 SAC @ SEA L 28 4 0 6 0.0 0 4 0.0 4 7 57.1 1 1 2 4 2 0 2 2 -
p30
aVKevin Gamble SAC 04/26/1996 SAC @ SEA L 1 0 0 0 - 0 0 - 0 0 - 0 0 0 0 0 0 0 0 -
p31
aVLionel Simmons SAC 04/26/1996 SAC @ SEA L 22 7 3 6 50.0 1 3 33.3 0 0 - 0 4 4 2 1 1 3 4 -
p32
aVMitch Richmond SAC 04/26/1996 SAC @ SEA L 39 18 4 13 30.8 1 2 50.0 9 12 75.0 2 6 8 4 1 0 7 5 -
p33
aVTyus Edney SAC 04/26/1996 SAC @ SEA L 29 16 7 12 58.3 0 2 0.0 2 2 100.0 0 2 2 2 0 0 2 6 -
p34
aVBilly Owens SAC 04/26/1996 SAC @ SEA L 31 9 4 9 44.4 0 1 0.0 1 3 33.3 1 6 7 1 1 0 2 2 -
p35
aVBrian Grant SAC 04/26/1996 SAC @ SEA L 23 9 2 7 28.6 0 0 - 5 6 83.3 1 3 4 0 1 1 5 3 -
p36
aVMichael Smith SAC 04/26/1996 SAC @ SEA L 17 4 2 2 100.0 0 0 - 0 0 - 1 3 4 2 0 0 0 3 -
p37
aVOlden Polynice SAC 04/26/1996 SAC @ SEA L 38 15 7 11 63.6 1 1 100.0 0 1 0.0 4 5 9 0 0 2 2 4 -
p38
aVDuane Causwell SAC 04/26/1996 SAC @ SEA L 12 3 0 1 0.0 0 0 - 3 4 75.0 1 1 2 0 0 0 0 1 -
p39
a.