(lp0
VPLAYER TEAM DATE MATCHUP W/L MIN PTS FGM FGA FG% 3PM 3PA 3P% FTM FTA FT% OREB DREB REB AST STL BLK TOV PF +/-
p1
aVGreg Anderson SAN 05/16/1996 SAN @ UTH L 10 1 0 1 0.0 0 0 - 1 2 50.0 1 2 3 0 1 0 1 2 -
p2
aVDavid Robinson SAN 05/16/1996 SAN @ UTH L 29 17 7 14 50.0 0 0 - 3 7 42.9 3 5 8 1 3 2 3 4 -
p3
aVCory Alexander SAN 05/16/1996 SAN @ UTH L 8 6 2 6 33.3 1 3 33.3 1 1 100.0 1 0 1 1 0 0 0 1 -
p4
aVWill Perdue SAN 05/16/1996 SAN @ UTH L 23 6 1 4 25.0 0 0 - 4 4 100.0 3 4 7 0 1 2 3 2 -
p5
aVChuck Person SAN 05/16/1996 SAN @ UTH L 31 3 1 5 20.0 1 4 25.0 0 0 - 0 3 3 1 0 0 2 5 -
p6
aVVinny Del Negro SAN 05/16/1996 SAN @ UTH L 45 17 6 12 50.0 5 7 71.4 0 1 0.0 1 1 2 0 2 0 0 3 -
p7
aVAvery Johnson SAN 05/16/1996 SAN @ UTH L 40 9 3 13 23.1 0 2 0.0 3 4 75.0 1 4 5 8 1 0 1 3 -
p8
aVMonty Williams SAN 05/16/1996 SAN @ UTH L 4 2 1 1 100.0 0 0 - 0 0 - 0 1 1 0 0 0 0 0 -
p9
aVSean Elliott SAN 05/16/1996 SAN @ UTH L 41 16 5 13 38.5 1 4 25.0 5 7 71.4 1 3 4 2 0 0 1 3 -
p10
aVCharles Smith SAN 05/16/1996 SAN @ UTH L 6 2 1 1 100.0 0 0 - 0 0 - 0 0 0 0 0 0 0 3 -
p11
aVCarl Herrera SAN 05/16/1996 SAN @ UTH L 3 2 0 0 - 0 0 - 2 2 100.0 1 0 1 0 0 1 1 1 -
p12
aVMonty Williams SAN 05/14/1996 SAN vs. UTH W 1 1 0 0 - 0 0 - 1 2 50.0 0 1 1 0 0 0 0 0 -
p13
aVAvery Johnson SAN 05/14/1996 SAN vs. UTH W 36 21 8 14 57.1 0 0 - 5 6 83.3 1 0 1 1 3 0 2 1 -
p14
aVCory Alexander SAN 05/14/1996 SAN vs. UTH W 12 1 0 2 0.0 0 0 - 1 2 50.0 0 0 0 3 1 0 1 1 -
p15
aVChuck Person SAN 05/14/1996 SAN vs. UTH W 24 14 4 7 57.1 4 7 57.1 2 2 100.0 1 2 3 1 0 0 0 4 -
p16
aVVinny Del Negro SAN 05/14/1996 SAN vs. UTH W 33 21 8 14 57.1 2 2 100.0 3 5 60.0 0 1 1 2 1 0 0 4 -
p17
aVDavid Robinson SAN 05/14/1996 SAN vs. UTH W 38 24 7 21 33.3 0 0 - 10 15 66.7 8 7 15 1 3 1 1 5 -
p18
aVCharles Smith SAN 05/14/1996 SAN vs. UTH W 13 3 1 1 100.0 0 0 - 1 2 50.0 1 2 3 2 1 1 0 3 -
p19
aVGreg Anderson SAN 05/14/1996 SAN vs. UTH W 4 0 0 0 - 0 0 - 0 0 - 0 1 1 0 0 0 1 1 -
p20
aVWill Perdue SAN 05/14/1996 SAN vs. UTH W 38 9 4 4 100.0 0 0 - 1 2 50.0 4 8 12 0 0 0 0 4 -
p21
aVSean Elliott SAN 05/14/1996 SAN vs. UTH W 41 4 2 11 18.2 0 5 0.0 0 0 - 2 3 5 8 2 1 5 2 -
p22
aVDavid Robinson SAN 05/12/1996 SAN @ UTH L 24 11 2 3 66.7 0 0 - 7 10 70.0 1 3 4 2 0 1 3 6 -
p23
aVVinny Del Negro SAN 05/12/1996 SAN @ UTH L 41 9 4 11 36.4 0 0 - 1 2 50.0 1 1 2 0 1 0 0 1 -
p24
aVAvery Johnson SAN 05/12/1996 SAN @ UTH L 34 14 5 10 50.0 0 0 - 4 5 80.0 0 0 0 8 6 0 6 4 -
p25
aVGreg Anderson SAN 05/12/1996 SAN @ UTH L 2 0 0 0 - 0 0 - 0 0 - 0 1 1 0 0 0 0 1 -
p26
aVWill Perdue SAN 05/12/1996 SAN @ UTH L 24 0 0 2 0.0 0 0 - 0 0 - 2 5 7 0 1 0 2 3 -
p27
aVCory Alexander SAN 05/12/1996 SAN @ UTH L 14 6 3 6 50.0 0 0 - 0 0 - 0 2 2 2 0 0 2 2 -
p28
aVCarl Herrera SAN 05/12/1996 SAN @ UTH L 2 0 0 1 0.0 0 0 - 0 0 - 0 0 0 0 0 0 0 0 -
p29
aVSean Elliott SAN 05/12/1996 SAN @ UTH L 41 22 6 15 40.0 2 4 50.0 8 10 80.0 0 3 3 1 0 0 4 2 -
p30
aVChuck Person SAN 05/12/1996 SAN @ UTH L 39 17 6 9 66.7 2 5 40.0 3 3 100.0 1 6 7 2 0 0 1 2 -
p31
aVCharles Smith SAN 05/12/1996 SAN @ UTH L 17 6 3 5 60.0 0 0 - 0 0 - 1 2 3 0 1 1 2 2 -
p32
aVMonty Williams SAN 05/12/1996 SAN @ UTH L 2 1 0 1 0.0 0 0 - 1 2 50.0 1 0 1 0 0 0 0 0 -
p33
aVCory Alexander SAN 05/11/1996 SAN @ UTH L 18 8 3 6 50.0 0 2 0.0 2 2 100.0 0 0 0 2 1 0 2 3 -
p34
aVVinny Del Negro SAN 05/11/1996 SAN @ UTH L 41 15 6 12 50.0 2 2 100.0 1 1 100.0 0 2 2 0 2 1 1 2 -
p35
aVGreg Anderson SAN 05/11/1996 SAN @ UTH L 11 0 0 4 0.0 0 0 - 0 0 - 1 1 2 0 0 0 2 1 -
p36
aVChuck Person SAN 05/11/1996 SAN @ UTH L 21 5 2 5 40.0 1 2 50.0 0 0 - 0 1 1 1 0 0 2 4 -
p37
aVWill Perdue SAN 05/11/1996 SAN @ UTH L 14 8 3 4 75.0 0 0 - 2 2 100.0 4 2 6 0 0 0 1 1 -
p38
aVMonty Williams SAN 05/11/1996 SAN @ UTH L 15 2 1 4 25.0 0 0 - 0 0 - 1 1 2 0 0 0 2 2 -
p39
aVAvery Johnson SAN 05/11/1996 SAN @ UTH L 35 7 2 9 22.2 0 0 - 3 4 75.0 0 2 2 10 1 0 2 2 -
p40
aVSean Elliott SAN 05/11/1996 SAN @ UTH L 31 17 5 11 45.5 1 4 25.0 6 6 100.0 1 4 5 0 0 0 2 3 -
p41
aVCarl Herrera SAN 05/11/1996 SAN @ UTH L 9 0 0 0 - 0 0 - 0 0 - 1 0 1 0 2 0 0 0 -
p42
aVDavid Robinson SAN 05/11/1996 SAN @ UTH L 35 11 4 10 40.0 0 0 - 3 9 33.3 4 5 9 1 0 3 1 1 -
p43
aVCharles Smith SAN 05/11/1996 SAN @ UTH L 10 2 1 2 50.0 0 0 - 0 0 - 0 4 4 0 0 0 3 4 -
p44
aVAvery Johnson SAN 05/09/1996 SAN vs. UTH W 42 8 4 11 36.4 0 0 - 0 0 - 1 2 3 10 3 0 2 1 -
p45
aVSean Elliott SAN 05/09/1996 SAN vs. UTH W 37 12 2 9 22.2 0 2 0.0 8 10 80.0 0 4 4 0 2 0 4 3 -
p46
aVCharles Smith SAN 05/09/1996 SAN vs. UTH W 22 10 5 8 62.5 0 0 - 0 0 - 3 2 5 2 0 2 0 2 -
p47
aVWill Perdue SAN 05/09/1996 SAN vs. UTH W 34 8 2 4 50.0 0 0 - 4 6 66.7 1 6 7 4 0 0 0 1 -
p48
aVChuck Person SAN 05/09/1996 SAN vs. UTH W 27 16 6 11 54.5 3 6 50.0 1 1 100.0 1 5 6 0 1 0 2 1 -
p49
aVDavid Robinson SAN 05/09/1996 SAN vs. UTH W 40 24 9 20 45.0 0 0 - 6 10 60.0 4 8 12 3 2 3 2 3 -
p50
aVCory Alexander SAN 05/09/1996 SAN vs. UTH W 6 0 0 0 - 0 0 - 0 0 - 1 2 3 1 0 0 0 0 -
p51
aVVinny Del Negro SAN 05/09/1996 SAN vs. UTH W 32 10 4 11 36.4 0 1 0.0 2 2 100.0 0 6 6 2 1 0 2 1 -
p52
aVCarl Herrera SAN 05/07/1996 SAN vs. UTH L 4 0 0 1 0.0 0 0 - 0 0 - 0 1 1 0 0 0 0 1 -
p53
aVAvery Johnson SAN 05/07/1996 SAN vs. UTH L 43 6 3 8 37.5 0 0 - 0 0 - 0 4 4 5 1 0 4 2 -
p54
aVChuck Person SAN 05/07/1996 SAN vs. UTH L 31 8 3 6 50.0 1 2 50.0 1 2 50.0 0 4 4 2 0 1 1 2 -
p55
aVGreg Anderson SAN 05/07/1996 SAN vs. UTH L 3 0 0 0 - 0 0 - 0 0 - 0 0 0 0 0 0 0 0 -
p56
aVCharles Smith SAN 05/07/1996 SAN vs. UTH L 12 4 2 5 40.0 0 0 - 0 0 - 1 2 3 0 1 1 0 0 -
p57
aVDavid Robinson SAN 05/07/1996 SAN vs. UTH L 43 29 9 12 75.0 0 0 - 11 18 61.1 2 4 6 4 2 5 4 3 -
p58
aVVinny Del Negro SAN 05/07/1996 SAN vs. UTH L 36 3 1 11 9.1 0 2 0.0 1 1 100.0 0 2 2 4 0 0 1 1 -
p59
aVCory Alexander SAN 05/07/1996 SAN vs. UTH L 5 3 1 2 50.0 0 0 - 1 2 50.0 0 0 0 0 0 0 1 0 -
p60
aVSean Elliott SAN 05/07/1996 SAN vs. UTH L 37 14 2 7 28.6 1 1 100.0 9 13 69.2 0 1 1 4 2 1 4 5 -
p61
aVWill Perdue SAN 05/07/1996 SAN vs. UTH L 22 8 4 6 66.7 0 0 - 0 0 - 3 4 7 0 0 1 1 2 -
p62
aVMonty Williams SAN 05/07/1996 SAN vs. UTH L 4 0 0 2 0.0 0 0 - 0 0 - 1 1 2 0 0 0 0 0 -
p63
aVWill Perdue SAN 05/03/1996 SAN @ PHX W 17 4 2 2 100.0 0 0 - 0 0 - 0 7 7 1 0 0 0 3 -
p64
aVDavid Robinson SAN 05/03/1996 SAN @ PHX W 36 30 12 21 57.1 0 0 - 6 7 85.7 5 8 13 6 0 1 5 6 -
p65
aVAvery Johnson SAN 05/03/1996 SAN @ PHX W 45 15 7 15 46.7 0 0 - 1 2 50.0 1 2 3 13 1 1 1 2 -
p66
aVVinny Del Negro SAN 05/03/1996 SAN @ PHX W 43 25 10 15 66.7 5 7 71.4 0 0 - 0 2 2 6 1 1 1 2 -
p67
aVSean Elliott SAN 05/03/1996 SAN @ PHX W 45 15 4 7 57.1 2 3 66.7 5 6 83.3 4 4 8 1 1 1 3 0 -
p68
aVCory Alexander SAN 05/03/1996 SAN @ PHX W 3 2 1 1 100.0 0 0 - 0 0 - 1 1 2 0 0 0 0 1 -
p69
aVCharles Smith SAN 05/03/1996 SAN @ PHX W 25 12 6 13 46.2 0 0 - 0 4 0.0 2 4 6 2 1 2 1 2 -
p70
aVChuck Person SAN 05/03/1996 SAN @ PHX W 25 13 5 8 62.5 3 6 50.0 0 0 - 2 4 6 1 0 0 1 4 -
p71
aVMonty Williams SAN 05/03/1996 SAN @ PHX W 1 0 0 0 - 0 0 - 0 0 - 0 0 0 0 0 0 0 1 -
p72
aVCharles Smith SAN 05/01/1996 SAN @ PHX L 19 4 1 3 33.3 0 0 - 2 2 100.0 0 2 2 0 1 0 1 5 -
p73
aVDavid Robinson SAN 05/01/1996 SAN @ PHX L 35 22 8 18 44.4 0 0 - 6 6 100.0 4 3 7 4 1 3 4 4 -
p74
aVWill Perdue SAN 05/01/1996 SAN @ PHX L 21 4 2 2 100.0 0 0 - 0 0 - 4 5 9 0 0 1 1 2 -
p75
aVCory Alexander SAN 05/01/1996 SAN @ PHX L 2 0 0 1 0.0 0 0 - 0 0 - 0 0 0 0 0 0 0 0 -
p76
aVSean Elliott SAN 05/01/1996 SAN @ PHX L 45 20 9 21 42.9 2 7 28.6 0 0 - 2 1 3 5 3 0 2 1 -
p77
aVAvery Johnson SAN 05/01/1996 SAN @ PHX L 46 19 9 16 56.3 0 0 - 1 2 50.0 1 7 8 6 0 0 2 2 -
p78
aVVinny Del Negro SAN 05/01/1996 SAN @ PHX L 40 6 3 12 25.0 0 4 0.0 0 0 - 1 5 6 8 3 0 1 1 -
p79
aVChuck Person SAN 05/01/1996 SAN @ PHX L 28 18 6 10 60.0 4 5 80.0 2 2 100.0 0 3 3 1 0 1 0 4 -
p80
aVCarl Herrera SAN 05/01/1996 SAN @ PHX L 4 0 0 1 0.0 0 0 - 0 0 - 0 1 1 1 0 0 0 2 -
p81
aVDavid Robinson SAN 04/28/1996 SAN vs. PHX W 42 40 14 25 56.0 0 0 - 12 16 75.0 4 17 21 1 2 3 1 4 -
p82
aVVinny Del Negro SAN 04/28/1996 SAN vs. PHX W 25 8 2 7 28.6 0 0 - 4 4 100.0 1 0 1 2 2 0 0 3 -
p83
aVSean Elliott SAN 04/28/1996 SAN vs. PHX W 46 19 5 14 35.7 0 3 0.0 9 10 90.0 1 2 3 1 0 1 4 1 -
p84
aVDoc Rivers SAN 04/28/1996 SAN vs. PHX W 8 3 1 1 100.0 1 1 100.0 0 0 - 0 1 1 0 0 0 0 1 -
p85
aVCharles Smith SAN 04/28/1996 SAN vs. PHX W 15 2 1 4 25.0 0 0 - 0 0 - 1 3 4 1 1 2 0 4 -
p86
aVWill Perdue SAN 04/28/1996 SAN vs. PHX W 25 10 3 5 60.0 0 0 - 4 4 100.0 3 5 8 0 0 0 2 4 -
p87
aVAvery Johnson SAN 04/28/1996 SAN vs. PHX W 47 12 5 12 41.7 0 0 - 2 4 50.0 0 5 5 15 3 0 1 3 -
p88
aVChuck Person SAN 04/28/1996 SAN vs. PHX W 31 16 5 10 50.0 3 5 60.0 3 3 100.0 0 3 3 2 1 1 1 4 -
p89
aVCarl Herrera SAN 04/28/1996 SAN vs. PHX W 1 0 0 0 - 0 0 - 0 0 - 0 0 0 0 0 0 0 0 -
p90
aVSean Elliott SAN 04/26/1996 SAN vs. PHX W 25 16 7 9 77.8 1 1 100.0 1 2 50.0 0 3 3 3 1 0 1 4 -
p91
aVAvery Johnson SAN 04/26/1996 SAN vs. PHX W 39 12 6 13 46.2 0 0 - 0 0 - 1 4 5 18 1 0 3 1 -
p92
aVGreg Anderson SAN 04/26/1996 SAN vs. PHX W 4 0 0 0 - 0 0 - 0 0 - 0 2 2 0 1 1 0 0 -
p93
aVWill Perdue SAN 04/26/1996 SAN vs. PHX W 24 17 8 9 88.9 0 0 - 1 2 50.0 2 7 9 0 0 0 1 2 -
p94
aVCarl Herrera SAN 04/26/1996 SAN vs. PHX W 5 0 0 0 - 0 0 - 0 0 - 0 0 0 0 0 0 2 3 -
p95
aVCory Alexander SAN 04/26/1996 SAN vs. PHX W 2 0 0 0 - 0 0 - 0 0 - 1 0 1 0 0 0 0 0 -
p96
aVVinny Del Negro SAN 04/26/1996 SAN vs. PHX W 43 29 13 19 68.4 2 2 100.0 1 3 33.3 0 2 2 5 0 1 0 1 -
p97
aVCharles Smith SAN 04/26/1996 SAN vs. PHX W 26 6 3 6 50.0 0 0 - 0 0 - 2 5 7 3 1 1 1 3 -
p98
aVDoc Rivers SAN 04/26/1996 SAN vs. PHX W 12 0 0 2 0.0 0 1 0.0 0 0 - 0 0 0 0 0 0 1 2 -
p99
aVMonty Williams SAN 04/26/1996 SAN vs. PHX W 2 1 0 1 0.0 0 0 - 1 2 50.0 0 0 0 0 0 0 2 1 -
p100
aVDavid Robinson SAN 04/26/1996 SAN vs. PHX W 31 28 11 17 64.7 0 0 - 6 7 85.7 2 4 6 1 2 3 0 2 -
p101
aVChuck Person SAN 04/26/1996 SAN vs. PHX W 27 11 3 6 50.0 3 5 60.0 2 4 50.0 0 4 4 5 0 0 1 2 -
p102
a.