(lp0
VPLAYER TEAM DATE MATCHUP W/L MIN PTS FGM FGA FG% 3PM 3PA 3P% FTM FTA FT% OREB DREB REB AST STL BLK TOV PF +/-
p1
aVAlonzo Mourning MIA 05/01/1996 MIA vs. CHI L 41 30 11 19 57.9 0 0 - 8 8 100.0 2 6 8 2 1 2 3 3 -
p2
aVTim Hardaway MIA 05/01/1996 MIA vs. CHI L 38 14 6 15 40.0 2 8 25.0 0 0 - 1 1 2 6 0 0 4 3 -
p3
aVRex Chapman MIA 05/01/1996 MIA vs. CHI L 30 6 3 9 33.3 0 3 0.0 0 0 - 0 4 4 2 1 0 1 1 -
p4
aVKeith Askins MIA 05/01/1996 MIA vs. CHI L 30 13 4 7 57.1 2 4 50.0 3 3 100.0 1 2 3 1 1 0 3 5 -
p5
aVChris Gatling MIA 05/01/1996 MIA vs. CHI L 20 3 1 8 12.5 0 0 - 1 3 33.3 2 2 4 1 1 0 1 1 -
p6
aVWalt Williams MIA 05/01/1996 MIA vs. CHI L 19 2 1 3 33.3 0 2 0.0 0 0 - 1 2 3 2 0 0 0 2 -
p7
aVKurt Thomas MIA 05/01/1996 MIA vs. CHI L 17 6 2 5 40.0 0 0 - 2 2 100.0 3 5 8 2 0 0 1 5 -
p8
aVSasha Danilovic MIA 05/01/1996 MIA vs. CHI L 15 7 3 6 50.0 1 4 25.0 0 0 - 0 0 0 2 0 0 0 1 -
p9
aVTyrone Corbin MIA 05/01/1996 MIA vs. CHI L 8 0 0 2 0.0 0 0 - 0 0 - 3 1 4 1 1 0 0 1 -
p10
aVTony Smith MIA 05/01/1996 MIA vs. CHI L 22 10 4 10 40.0 2 6 33.3 0 0 - 2 0 2 3 2 0 1 0 -
p11
aVKeith Askins MIA 04/28/1996 MIA @ CHI L 8 0 0 1 0.0 0 1 0.0 0 0 - 0 2 2 0 0 0 0 2 -
p12
aVTyrone Corbin MIA 04/28/1996 MIA @ CHI L 26 5 1 3 33.3 0 0 - 3 4 75.0 1 2 3 0 1 0 1 2 -
p13
aVChris Gatling MIA 04/28/1996 MIA @ CHI L 22 5 1 6 16.7 0 0 - 3 6 50.0 3 8 11 0 0 0 2 1 -
p14
aVWalt Williams MIA 04/28/1996 MIA @ CHI L 17 0 0 4 0.0 0 2 0.0 0 0 - 1 0 1 2 0 0 1 1 -
p15
aVDan Schayes MIA 04/28/1996 MIA @ CHI L 7 5 2 3 66.7 0 0 - 1 2 50.0 2 1 3 0 0 0 1 0 -
p16
aVRex Chapman MIA 04/28/1996 MIA @ CHI L 24 11 5 10 50.0 1 5 20.0 0 0 - 0 1 1 2 2 0 0 4 -
p17
aVStacey King MIA 04/28/1996 MIA @ CHI L 12 1 0 3 0.0 0 0 - 1 2 50.0 0 3 3 1 0 0 0 1 -
p18
aVTony Smith MIA 04/28/1996 MIA @ CHI L 26 10 4 8 50.0 2 4 50.0 0 0 - 1 1 2 3 1 0 1 3 -
p19
aVAlonzo Mourning MIA 04/28/1996 MIA @ CHI L 30 14 3 8 37.5 0 0 - 8 14 57.1 1 7 8 2 1 1 7 4 -
p20
aVTim Hardaway MIA 04/28/1996 MIA @ CHI L 28 9 2 9 22.2 1 4 25.0 4 5 80.0 0 0 0 4 0 0 2 5 -
p21
aVSasha Danilovic MIA 04/28/1996 MIA @ CHI L 23 15 5 9 55.6 2 4 50.0 3 3 100.0 1 0 1 1 0 0 3 4 -
p22
aVKurt Thomas MIA 04/28/1996 MIA @ CHI L 17 0 0 1 0.0 0 0 - 0 0 - 0 2 2 0 1 0 2 2 -
p23
aVTony Smith MIA 04/26/1996 MIA @ CHI L 13 2 1 1 100.0 0 0 - 0 0 - 0 0 0 2 1 0 1 4 -
p24
aVTim Hardaway MIA 04/26/1996 MIA @ CHI L 44 30 12 19 63.2 5 10 50.0 1 2 50.0 0 3 3 7 3 0 9 2 -
p25
aVWalt Williams MIA 04/26/1996 MIA @ CHI L 34 12 5 11 45.5 1 5 20.0 1 2 50.0 1 7 8 1 1 1 2 1 -
p26
aVRex Chapman MIA 04/26/1996 MIA @ CHI L 34 10 4 9 44.4 2 5 40.0 0 0 - 0 1 1 1 0 0 0 1 -
p27
aVKurt Thomas MIA 04/26/1996 MIA @ CHI L 26 6 2 4 50.0 0 0 - 2 2 100.0 1 5 6 1 1 1 2 6 -
p28
aVAlonzo Mourning MIA 04/26/1996 MIA @ CHI L 21 10 3 8 37.5 0 0 - 4 6 66.7 0 2 2 0 0 0 6 6 -
p29
aVDan Schayes MIA 04/26/1996 MIA @ CHI L 10 2 1 1 100.0 0 0 - 0 0 - 0 1 1 0 0 0 1 1 -
p30
aVKeith Askins MIA 04/26/1996 MIA @ CHI L 10 0 0 3 0.0 0 1 0.0 0 0 - 2 1 3 1 0 0 1 2 -
p31
aVChris Gatling MIA 04/26/1996 MIA @ CHI L 26 10 4 8 50.0 0 0 - 2 3 66.7 5 4 9 0 1 0 5 6 -
p32
aVSasha Danilovic MIA 04/26/1996 MIA @ CHI L 22 3 1 3 33.3 1 2 50.0 0 0 - 0 0 0 1 1 0 0 3 -
p33
a.