(lp0
VPLAYER TEAM DATE MATCHUP W/L MIN PTS FGM FGA FG% 3PM 3PA 3P% FTM FTA FT% OREB DREB REB AST STL BLK TOV PF +/-
p1
aVToni Kukoc CHI 06/16/1996 CHI vs. SEA W 22 10 4 11 36.4 2 7 28.6 0 0 - 3 0 3 1 1 1 2 0 -
p2
aVScottie Pippen CHI 06/16/1996 CHI vs. SEA W 42 17 7 17 41.2 3 7 42.9 0 0 - 2 6 8 5 4 0 3 4 -
p3
aVBill Wennington CHI 06/16/1996 CHI vs. SEA W 2 0 0 0 - 0 0 - 0 0 - 0 0 0 0 0 0 0 0 -
p4
aVMichael Jordan CHI 06/16/1996 CHI vs. SEA W 43 22 5 19 26.3 1 3 33.3 11 12 91.7 3 6 9 7 2 0 5 3 -
p5
aVSteve Kerr CHI 06/16/1996 CHI vs. SEA W 17 7 3 4 75.0 1 2 50.0 0 0 - 1 0 1 0 0 0 1 1 -
p6
aVRon Harper CHI 06/16/1996 CHI vs. SEA W 38 10 3 11 27.3 2 5 40.0 2 2 100.0 0 3 3 2 2 1 2 1 -
p7
aVLuc Longley CHI 06/16/1996 CHI vs. SEA W 32 12 5 6 83.3 0 0 - 2 3 66.7 4 4 8 0 1 1 6 0 -
p8
aVJud Buechler CHI 06/16/1996 CHI vs. SEA W 1 0 0 0 - 0 0 - 0 0 - 0 0 0 0 0 0 0 0 -
p9
aVDennis Rodman CHI 06/16/1996 CHI vs. SEA W 38 9 4 9 44.4 0 0 - 1 3 33.3 11 8 19 5 3 1 0 4 -
p10
aVRandy Brown CHI 06/16/1996 CHI vs. SEA W 5 0 0 1 0.0 0 1 0.0 0 0 - 0 0 0 0 1 0 0 2 -
p11
aVJud Buechler CHI 06/14/1996 CHI @ SEA L 3 0 0 1 0.0 0 1 0.0 0 0 - 0 0 0 0 0 0 0 0 -
p12
aVSteve Kerr CHI 06/14/1996 CHI @ SEA L 24 7 2 8 25.0 1 7 14.3 2 3 66.7 0 1 1 2 0 0 1 3 -
p13
aVScottie Pippen CHI 06/14/1996 CHI @ SEA L 44 14 5 20 25.0 1 8 12.5 3 4 75.0 5 3 8 5 1 1 2 4 -
p14
aVRandy Brown CHI 06/14/1996 CHI @ SEA L 10 0 0 2 0.0 0 1 0.0 0 0 - 0 0 0 1 0 0 0 3 -
p15
aVJohn Salley CHI 06/14/1996 CHI @ SEA L 1 0 0 1 0.0 0 0 - 0 0 - 1 0 1 0 0 0 0 0 -
p16
aVLuc Longley CHI 06/14/1996 CHI @ SEA L 34 11 3 3 100.0 0 0 - 5 7 71.4 0 5 5 4 0 1 2 4 -
p17
aVToni Kukoc CHI 06/14/1996 CHI @ SEA L 37 11 5 13 38.5 1 5 20.0 0 0 - 2 7 9 3 1 0 2 3 -
p18
aVBill Wennington CHI 06/14/1996 CHI @ SEA L 6 3 1 2 50.0 0 0 - 1 2 50.0 0 0 0 0 0 0 2 2 -
p19
aVDennis Rodman CHI 06/14/1996 CHI @ SEA L 37 6 2 5 40.0 0 0 - 2 2 100.0 5 7 12 2 0 0 2 5 -
p20
aVRon Harper CHI 06/14/1996 CHI @ SEA L 1 0 0 0 - 0 0 - 0 0 - 0 0 0 0 0 0 0 0 -
p21
aVMichael Jordan CHI 06/14/1996 CHI @ SEA L 43 26 11 22 50.0 0 4 0.0 4 5 80.0 2 2 4 1 1 0 2 3 -
p22
aVLuc Longley CHI 06/12/1996 CHI @ SEA L 25 12 5 8 62.5 0 0 - 2 2 100.0 1 2 3 3 0 1 1 5 -
p23
aVSteve Kerr CHI 06/12/1996 CHI @ SEA L 22 5 1 6 16.7 1 4 25.0 2 2 100.0 1 0 1 1 0 0 1 0 -
p24
aVRon Harper CHI 06/12/1996 CHI @ SEA L 13 2 1 3 33.3 0 1 0.0 0 0 - 0 1 1 0 0 0 0 1 -
p25
aVDennis Rodman CHI 06/12/1996 CHI @ SEA L 41 8 4 6 66.7 0 0 - 0 0 - 8 6 14 4 0 0 1 5 -
p26
aVMichael Jordan CHI 06/12/1996 CHI @ SEA L 41 23 6 19 31.6 0 2 0.0 11 13 84.6 1 2 3 2 1 0 4 3 -
p27
aVToni Kukoc CHI 06/12/1996 CHI @ SEA L 30 14 6 11 54.5 2 5 40.0 0 0 - 0 1 1 1 1 0 6 3 -
p28
aVRandy Brown CHI 06/12/1996 CHI @ SEA L 13 9 3 5 60.0 2 3 66.7 1 2 50.0 1 1 2 2 1 0 0 1 -
p29
aVJud Buechler CHI 06/12/1996 CHI @ SEA L 7 0 0 1 0.0 0 1 0.0 0 0 - 0 0 0 0 1 0 1 0 -
p30
aVJohn Salley CHI 06/12/1996 CHI @ SEA L 1 0 0 0 - 0 0 - 0 0 - 0 0 0 1 0 0 0 0 -
p31
aVScottie Pippen CHI 06/12/1996 CHI @ SEA L 40 9 4 17 23.5 1 8 12.5 0 0 - 3 8 11 8 1 2 3 5 -
p32
aVBill Wennington CHI 06/12/1996 CHI @ SEA L 7 4 2 4 50.0 0 0 - 0 0 - 0 0 0 0 0 0 0 1 -
p33
aVBill Wennington CHI 06/09/1996 CHI @ SEA W 15 6 3 4 75.0 0 0 - 0 0 - 0 0 0 1 0 0 0 4 -
p34
aVToni Kukoc CHI 06/09/1996 CHI @ SEA W 37 14 4 11 36.4 1 3 33.3 5 5 100.0 1 6 7 7 1 0 0 3 -
p35
aVDennis Rodman CHI 06/09/1996 CHI @ SEA W 31 5 1 3 33.3 0 0 - 3 6 50.0 3 7 10 2 1 0 2 5 -
p36
aVScottie Pippen CHI 06/09/1996 CHI @ SEA W 40 12 5 14 35.7 1 4 25.0 1 3 33.3 2 6 8 9 3 0 0 3 -
p37
aVJud Buechler CHI 06/09/1996 CHI @ SEA W 8 2 1 2 50.0 0 1 0.0 0 2 0.0 0 0 0 0 1 0 0 1 -
p38
aVJohn Salley CHI 06/09/1996 CHI @ SEA W 4 0 0 0 - 0 0 - 0 0 - 0 0 0 0 0 0 0 2 -
p39
aVRandy Brown CHI 06/09/1996 CHI @ SEA W 10 6 2 2 100.0 1 1 100.0 1 2 50.0 0 0 0 0 0 0 1 3 -
p40
aVSteve Kerr CHI 06/09/1996 CHI @ SEA W 25 8 3 4 75.0 1 2 50.0 1 1 100.0 0 2 2 2 1 0 1 2 -
p41
aVLuc Longley CHI 06/09/1996 CHI @ SEA W 28 19 8 13 61.5 0 0 - 3 4 75.0 2 1 3 2 0 2 2 5 -
p42
aVRon Harper CHI 06/09/1996 CHI @ SEA W 1 0 0 0 - 0 0 - 0 0 - 0 0 0 0 0 0 0 0 -
p43
aVMichael Jordan CHI 06/09/1996 CHI @ SEA W 41 36 11 23 47.8 3 4 75.0 11 11 100.0 2 1 3 5 2 0 3 1 -
p44
aVSteve Kerr CHI 06/07/1996 CHI vs. SEA W 13 3 1 6 16.7 0 4 0.0 1 1 100.0 0 0 0 0 0 0 0 2 -
p45
aVRon Harper CHI 06/07/1996 CHI vs. SEA W 33 12 2 8 25.0 1 4 25.0 7 8 87.5 1 3 4 1 0 0 0 2 -
p46
aVRandy Brown CHI 06/07/1996 CHI vs. SEA W 8 2 1 1 100.0 0 0 - 0 0 - 0 0 0 2 2 0 2 1 -
p47
aVScottie Pippen CHI 06/07/1996 CHI vs. SEA W 38 21 8 16 50.0 0 4 0.0 5 8 62.5 3 4 7 2 2 2 3 3 -
p48
aVToni Kukoc CHI 06/07/1996 CHI vs. SEA W 24 11 4 12 33.3 2 7 28.6 1 2 50.0 3 2 5 5 0 1 1 2 -
p49
aVLuc Longley CHI 06/07/1996 CHI vs. SEA W 25 2 1 5 20.0 0 0 - 0 1 0.0 0 3 3 3 2 2 3 5 -
p50
aVMichael Jordan CHI 06/07/1996 CHI vs. SEA W 43 29 9 22 40.9 1 2 50.0 10 16 62.5 2 4 6 8 2 0 2 3 -
p51
aVJohn Salley CHI 06/07/1996 CHI vs. SEA W 7 0 0 0 - 0 0 - 0 0 - 0 0 0 1 0 0 0 4 -
p52
aVBill Wennington CHI 06/07/1996 CHI vs. SEA W 2 0 0 0 - 0 0 - 0 0 - 0 0 0 0 0 0 0 0 -
p53
aVJud Buechler CHI 06/07/1996 CHI vs. SEA W 5 2 1 1 100.0 0 0 - 0 0 - 0 0 0 0 2 0 0 1 -
p54
aVDennis Rodman CHI 06/07/1996 CHI vs. SEA W 42 10 3 6 50.0 0 0 - 4 6 66.7 11 9 20 0 0 0 4 4 -
p55
aVBill Wennington CHI 06/05/1996 CHI vs. SEA W 10 4 2 2 100.0 0 0 - 0 0 - 2 1 3 0 0 0 0 0 -
p56
aVJohn Salley CHI 06/05/1996 CHI vs. SEA W 2 0 0 0 - 0 0 - 0 0 - 0 0 0 0 0 0 0 2 -
p57
aVJud Buechler CHI 06/05/1996 CHI vs. SEA W 9 0 0 4 0.0 0 3 0.0 0 0 - 0 0 0 1 0 0 1 2 -
p58
aVSteve Kerr CHI 06/05/1996 CHI vs. SEA W 12 0 0 5 0.0 0 3 0.0 0 0 - 0 0 0 0 0 0 0 0 -
p59
aVRon Harper CHI 06/05/1996 CHI vs. SEA W 30 15 6 10 60.0 1 3 33.3 2 2 100.0 3 2 5 7 2 1 1 4 -
p60
aVMichael Jordan CHI 06/05/1996 CHI vs. SEA W 41 28 9 18 50.0 1 4 25.0 9 10 90.0 0 7 7 2 2 1 2 4 -
p61
aVScottie Pippen CHI 06/05/1996 CHI vs. SEA W 44 21 5 15 33.3 3 8 37.5 8 9 88.9 5 2 7 3 3 3 0 3 -
p62
aVDennis Rodman CHI 06/05/1996 CHI vs. SEA W 36 7 3 6 50.0 0 0 - 1 2 50.0 3 10 13 2 1 0 2 5 -
p63
aVRandy Brown CHI 06/05/1996 CHI vs. SEA W 3 0 0 1 0.0 0 0 - 0 0 - 0 0 0 0 0 0 0 0 -
p64
aVToni Kukoc CHI 06/05/1996 CHI vs. SEA W 27 18 7 13 53.8 2 5 40.0 2 3 66.7 3 1 4 4 1 0 0 3 -
p65
aVLuc Longley CHI 06/05/1996 CHI vs. SEA W 26 14 5 12 41.7 0 0 - 4 5 80.0 1 0 1 1 0 4 1 4 -
p66
aVJames Edwards CHI 05/27/1996 CHI @ ORL W 3 0 0 0 - 0 0 - 0 0 - 0 0 0 0 0 0 0 2 -
p67
aVJohn Salley CHI 05/27/1996 CHI @ ORL W 1 0 0 1 0.0 0 0 - 0 0 - 1 0 1 0 0 0 0 0 -
p68
aVScottie Pippen CHI 05/27/1996 CHI @ ORL W 42 12 4 11 36.4 1 5 20.0 3 6 50.0 2 3 5 8 2 0 2 4 -
p69
aVRandy Brown CHI 05/27/1996 CHI @ ORL W 1 0 0 0 - 0 0 - 0 0 - 0 0 0 0 0 0 0 0 -
p70
aVSteve Kerr CHI 05/27/1996 CHI @ ORL W 27 9 3 5 60.0 1 3 33.3 2 2 100.0 0 1 1 1 3 0 0 4 -
p71
aVRon Harper CHI 05/27/1996 CHI @ ORL W 26 12 4 8 50.0 1 3 33.3 3 5 60.0 0 2 2 2 3 1 2 2 -
p72
aVJud Buechler CHI 05/27/1996 CHI @ ORL W 7 6 2 2 100.0 2 2 100.0 0 0 - 0 0 0 0 1 0 0 1 -
p73
aVLuc Longley CHI 05/27/1996 CHI @ ORL W 22 6 3 6 50.0 0 0 - 0 0 - 2 3 5 1 0 0 5 6 -
p74
aVDennis Rodman CHI 05/27/1996 CHI @ ORL W 41 9 2 6 33.3 0 0 - 5 8 62.5 7 7 14 2 1 1 1 3 -
p75
aVMichael Jordan CHI 05/27/1996 CHI @ ORL W 44 45 16 23 69.6 3 4 75.0 10 14 71.4 2 1 3 5 1 1 4 5 -
p76
aVToni Kukoc CHI 05/27/1996 CHI @ ORL W 24 7 2 6 33.3 1 5 20.0 2 2 100.0 0 0 0 3 1 1 2 2 -
p77
aVBill Wennington CHI 05/27/1996 CHI @ ORL W 2 0 0 2 0.0 0 0 - 0 0 - 0 0 0 1 0 0 0 0 -
p78
aVRandy Brown CHI 05/25/1996 CHI @ ORL W 4 0 0 0 - 0 0 - 0 0 - 0 0 0 0 0 0 0 2 -
p79
aVDennis Rodman CHI 05/25/1996 CHI @ ORL W 40 9 2 6 33.3 0 0 - 5 8 62.5 6 10 16 0 0 1 4 4 -
p80
aVToni Kukoc CHI 05/25/1996 CHI @ ORL W 20 3 1 5 20.0 1 2 50.0 0 0 - 1 4 5 1 1 0 3 1 -
p81
aVScottie Pippen CHI 05/25/1996 CHI @ ORL W 41 27 11 14 78.6 3 4 75.0 2 4 50.0 2 4 6 7 2 1 4 1 -
p82
aVBill Wennington CHI 05/25/1996 CHI @ ORL W 8 4 2 3 66.7 0 0 - 0 0 - 0 1 1 0 0 0 0 4 -
p83
aVSteve Kerr CHI 05/25/1996 CHI @ ORL W 15 8 3 6 50.0 2 5 40.0 0 1 0.0 0 0 0 2 1 0 2 0 -
p84
aVRon Harper CHI 05/25/1996 CHI @ ORL W 26 8 3 9 33.3 1 3 33.3 1 2 50.0 2 2 4 0 2 2 0 2 -
p85
aVMichael Jordan CHI 05/25/1996 CHI @ ORL W 39 17 5 14 35.7 1 1 100.0 6 11 54.5 3 4 7 4 2 1 2 1 -
p86
aVJud Buechler CHI 05/25/1996 CHI @ ORL W 12 0 0 1 0.0 0 1 0.0 0 0 - 0 0 0 0 1 0 1 1 -
p87
aVJohn Salley CHI 05/25/1996 CHI @ ORL W 5 0 0 0 - 0 0 - 0 0 - 0 1 1 0 0 0 0 2 -
p88
aVLuc Longley CHI 05/25/1996 CHI @ ORL W 30 10 3 11 27.3 0 0 - 4 5 80.0 1 4 5 1 0 2 2 5 -
p89
aVJud Buechler CHI 05/21/1996 CHI vs. ORL W 6 5 2 2 100.0 1 1 100.0 0 0 - 0 0 0 2 0 0 0 0 -
p90
aVMichael Jordan CHI 05/21/1996 CHI vs. ORL W 43 35 9 21 42.9 2 4 50.0 15 16 93.8 1 4 5 6 4 1 2 2 -
p91
aVRandy Brown CHI 05/21/1996 CHI vs. ORL W 1 2 0 0 - 0 0 - 2 2 100.0 0 0 0 0 0 0 0 1 -
p92
aVBill Wennington CHI 05/21/1996 CHI vs. ORL W 10 2 1 2 50.0 0 0 - 0 0 - 0 2 2 0 0 0 0 1 -
p93
aVRon Harper CHI 05/21/1996 CHI vs. ORL W 32 8 3 9 33.3 1 4 25.0 1 2 50.0 1 2 3 2 2 0 1 3 -
p94
aVScottie Pippen CHI 05/21/1996 CHI vs. ORL W 46 17 7 19 36.8 1 7 14.3 2 6 33.3 6 4 10 9 3 0 2 2 -
p95
aVLuc Longley CHI 05/21/1996 CHI vs. ORL W 24 0 0 5 0.0 0 0 - 0 0 - 2 6 8 1 0 1 0 5 -
p96
aVDennis Rodman CHI 05/21/1996 CHI vs. ORL W 35 15 6 8 75.0 0 0 - 3 6 50.0 6 6 12 1 2 0 0 2 -
p97
aVToni Kukoc CHI 05/21/1996 CHI vs. ORL W 28 6 1 7 14.3 0 2 0.0 4 4 100.0 1 1 2 5 1 0 2 5 -
p98
aVSteve Kerr CHI 05/21/1996 CHI vs. ORL W 15 3 1 2 50.0 0 1 0.0 1 2 50.0 1 1 2 1 0 0 0 0 -
p99
aVDennis Rodman CHI 05/19/1996 CHI vs. ORL W 32 13 6 10 60.0 0 0 - 1 1 100.0 7 14 21 1 0 1 3 4 -
p100
aVLuc Longley CHI 05/19/1996 CHI vs. ORL W 13 14 7 9 77.8 0 0 - 0 0 - 2 1 3 1 2 0 0 4 -
p101
aVScottie Pippen CHI 05/19/1996 CHI vs. ORL W 35 18 7 20 35.0 1 7 14.3 3 4 75.0 3 5 8 4 1 0 1 2 -
p102
aVToni Kukoc CHI 05/19/1996 CHI vs. ORL W 32 12 5 10 50.0 0 3 0.0 2 2 100.0 0 6 6 10 2 0 2 0 -
p103
aVJud Buechler CHI 05/19/1996 CHI vs. ORL W 14 5 2 3 66.7 1 1 100.0 0 0 - 1 0 1 2 0 0 0 0 -
p104
aVBill Wennington CHI 05/19/1996 CHI vs. ORL W 15 6 3 7 42.9 0 0 - 0 0 - 0 2 2 0 0 0 0 2 -
p105
aVSteve Kerr CHI 05/19/1996 CHI vs. ORL W 17 14 5 7 71.4 4 5 80.0 0 0 - 0 4 4 6 3 0 0 2 -
p106
aVJohn Salley CHI 05/19/1996 CHI vs. ORL W 7 8 4 4 100.0 0 0 - 0 2 0.0 1 1 2 2 0 1 1 3 -
p107
aVMichael Jordan CHI 05/19/1996 CHI vs. ORL W 37 21 9 17 52.9 1 2 50.0 2 3 66.7 2 5 7 4 2 0 3 3 -
p108
aVRon Harper CHI 05/19/1996 CHI vs. ORL W 30 8 4 7 57.1 0 1 0.0 0 0 - 4 3 7 6 2 0 2 1 -
p109
aVRandy Brown CHI 05/19/1996 CHI vs. ORL W 8 2 1 2 50.0 0 0 - 0 0 - 0 1 1 1 0 0 1 1 -
p110
aVJud Buechler CHI 05/14/1996 CHI vs. NYK W 5 5 2 4 50.0 1 2 50.0 0 0 - 0 0 0 0 0 0 1 0 -
p111
aVMichael Jordan CHI 05/14/1996 CHI vs. NYK W 43 35 13 29 44.8 1 2 50.0 8 9 88.9 1 1 2 5 2 0 2 5 -
p112
aVSteve Kerr CHI 05/14/1996 CHI vs. NYK W 17 4 1 1 100.0 0 0 - 2 2 100.0 0 1 1 2 0 0 1 0 -
p113
aVJohn Salley CHI 05/14/1996 CHI vs. NYK W 6 0 0 0 - 0 0 - 0 0 - 0 0 0 1 0 0 0 2 -
p114
aVScottie Pippen CHI 05/14/1996 CHI vs. NYK W 42 15 5 12 41.7 2 4 50.0 3 4 75.0 3 8 11 2 5 0 1 4 -
p115
aVBill Wennington CHI 05/14/1996 CHI vs. NYK W 24 4 2 7 28.6 0 1 0.0 0 0 - 1 3 4 3 0 1 1 3 -
p116
aVRandy Brown CHI 05/14/1996 CHI vs. NYK W 13 4 1 2 50.0 0 0 - 2 2 100.0 2 3 5 1 0 0 2 1 -
p117
aVDennis Rodman CHI 05/14/1996 CHI vs. NYK W 31 11 5 9 55.6 0 0 - 1 2 50.0 4 8 12 3 0 0 1 6 -
p118
aVRon Harper CHI 05/14/1996 CHI vs. NYK W 36 12 4 7 57.1 1 2 50.0 3 4 75.0 1 4 5 5 2 0 0 1 -
p119
aVLuc Longley CHI 05/14/1996 CHI vs. NYK W 23 4 1 7 14.3 0 0 - 2 2 100.0 1 2 3 1 0 1 3 6 -
p120
aVMichael Jordan CHI 05/12/1996 CHI @ NYK W 40 27 7 23 30.4 2 7 28.6 11 13 84.6 2 6 8 8 2 1 0 5 -
p121
aVScottie Pippen CHI 05/12/1996 CHI @ NYK W 39 9 3 11 27.3 1 4 25.0 2 4 50.0 4 3 7 5 2 0 3 3 -
p122
aVJames Edwards CHI 05/12/1996 CHI @ NYK W 4 2 1 4 25.0 0 0 - 0 0 - 0 0 0 0 0 0 0 2 -
p123
aVJohn Salley CHI 05/12/1996 CHI @ NYK W 8 2 1 1 100.0 0 0 - 0 0 - 1 1 2 0 0 0 0 0 -
p124
aVRon Harper CHI 05/12/1996 CHI @ NYK W 40 18 6 15 40.0 3 9 33.3 3 3 100.0 3 2 5 2 0 0 2 2 -
p125
aVRandy Brown CHI 05/12/1996 CHI @ NYK W 12 8 3 4 75.0 0 0 - 2 2 100.0 0 1 1 0 0 1 1 1 -
p126
aVJud Buechler CHI 05/12/1996 CHI @ NYK W 5 6 3 3 100.0 0 0 - 0 0 - 0 0 0 0 0 0 0 2 -
p127
aVBill Wennington CHI 05/12/1996 CHI @ NYK W 7 4 2 3 66.7 0 0 - 0 0 - 0 0 0 1 0 0 0 1 -
p128
aVLuc Longley CHI 05/12/1996 CHI @ NYK W 21 5 2 5 40.0 0 0 - 1 2 50.0 3 1 4 3 0 3 3 6 -
p129
aVSteve Kerr CHI 05/12/1996 CHI @ NYK W 23 7 2 2 100.0 0 0 - 3 3 100.0 0 0 0 0 1 0 0 1 -
p130
aVDennis Rodman CHI 05/12/1996 CHI @ NYK W 41 6 3 10 30.0 0 0 - 0 2 0.0 10 9 19 3 2 1 6 5 -
p131
aVBill Wennington CHI 05/11/1996 CHI @ NYK L 15 4 2 4 50.0 0 0 - 0 0 - 2 1 3 0 0 0 1 3 -
p132
aVSteve Kerr CHI 05/11/1996 CHI @ NYK L 24 6 3 5 60.0 0 1 0.0 0 0 - 0 0 0 3 2 0 1 1 -
p133
aVJud Buechler CHI 05/11/1996 CHI @ NYK L 7 2 0 0 - 0 0 - 2 2 100.0 0 1 1 0 0 0 0 2 -
p134
aVJames Edwards CHI 05/11/1996 CHI @ NYK L 1 0 0 0 - 0 0 - 0 0 - 0 0 0 0 0 0 0 0 -
p135
aVMichael Jordan CHI 05/11/1996 CHI @ NYK L 51 46 17 35 48.6 2 5 40.0 10 13 76.9 3 1 4 2 2 0 4 2 -
p136
aVScottie Pippen CHI 05/11/1996 CHI @ NYK L 49 24 10 29 34.5 4 11 36.4 0 0 - 4 4 8 6 3 0 4 4 -
p137
aVLuc Longley CHI 05/11/1996 CHI @ NYK L 26 6 3 7 42.9 0 0 - 0 0 - 0 1 1 1 0 0 0 5 -
p138
aVDennis Rodman CHI 05/11/1996 CHI @ NYK L 52 7 2 4 50.0 0 0 - 3 3 100.0 2 14 16 3 3 1 3 4 -
p139
aVJohn Salley CHI 05/11/1996 CHI @ NYK L 4 0 0 0 - 0 0 - 0 0 - 0 0 0 0 0 0 0 2 -
p140
aVRon Harper CHI 05/11/1996 CHI @ NYK L 36 4 1 8 12.5 1 4 25.0 1 2 50.0 1 2 3 1 2 1 0 5 -
p141
aVMichael Jordan CHI 05/07/1996 CHI vs. NYK W 40 28 11 25 44.0 1 3 33.3 5 5 100.0 3 2 5 5 3 0 2 0 -
p142
aVLuc Longley CHI 05/07/1996 CHI vs. NYK W 25 6 3 6 50.0 0 0 - 0 0 - 4 5 9 0 0 3 3 5 -
p143
aVToni Kukoc CHI 05/07/1996 CHI vs. NYK W 25 6 2 7 28.6 0 4 0.0 2 2 100.0 0 0 0 2 1 0 0 3 -
p144
aVRon Harper CHI 05/07/1996 CHI vs. NYK W 33 15 5 13 38.5 2 3 66.7 3 4 75.0 4 5 9 3 0 0 2 4 -
p145
aVBill Wennington CHI 05/07/1996 CHI vs. NYK W 14 3 1 1 100.0 0 0 - 1 2 50.0 0 3 3 1 1 0 0 3 -
p146
aVJud Buechler CHI 05/07/1996 CHI vs. NYK W 4 0 0 2 0.0 0 2 0.0 0 0 - 0 2 2 0 0 0 2 0 -
p147
aVSteve Kerr CHI 05/07/1996 CHI vs. NYK W 19 5 2 5 40.0 1 2 50.0 0 0 - 0 0 0 1 0 0 1 1 -
p148
aVDennis Rodman CHI 05/07/1996 CHI vs. NYK W 31 6 3 4 75.0 0 0 - 0 0 - 5 14 19 1 0 2 5 4 -
p149
aVJames Edwards CHI 05/07/1996 CHI vs. NYK W 5 2 1 2 50.0 0 0 - 0 0 - 0 2 2 0 0 0 0 2 -
p150
aVScottie Pippen CHI 05/07/1996 CHI vs. NYK W 41 19 7 21 33.3 3 7 42.9 2 2 100.0 2 3 5 6 4 1 2 4 -
p151
aVJohn Salley CHI 05/07/1996 CHI vs. NYK W 3 1 0 0 - 0 0 - 1 2 50.0 0 0 0 0 0 0 0 0 -
p152
aVSteve Kerr CHI 05/05/1996 CHI vs. NYK W 15 8 3 6 50.0 2 4 50.0 0 0 - 0 1 1 0 0 0 2 0 -
p153
aVRandy Brown CHI 05/05/1996 CHI vs. NYK W 2 2 1 2 50.0 0 0 - 0 0 - 0 0 0 0 0 0 0 1 -
p154
aVDennis Rodman CHI 05/05/1996 CHI vs. NYK W 33 3 0 3 0.0 0 0 - 3 4 75.0 3 9 12 2 1 0 3 4 -
p155
aVJohn Salley CHI 05/05/1996 CHI vs. NYK W 2 0 0 0 - 0 0 - 0 0 - 0 0 0 0 0 0 0 0 -
p156
aVLuc Longley CHI 05/05/1996 CHI vs. NYK W 35 8 4 10 40.0 0 0 - 0 0 - 5 3 8 2 2 2 1 5 -
p157
aVScottie Pippen CHI 05/05/1996 CHI vs. NYK W 43 11 4 15 26.7 0 4 0.0 3 3 100.0 5 5 10 7 2 1 1 0 -
p158
aVToni Kukoc CHI 05/05/1996 CHI vs. NYK W 28 7 1 8 12.5 0 4 0.0 5 6 83.3 1 1 2 5 2 0 0 2 -
p159
aVMichael Jordan CHI 05/05/1996 CHI vs. NYK W 41 44 17 35 48.6 1 5 20.0 9 9 100.0 1 4 5 2 0 0 1 4 -
p160
aVBill Wennington CHI 05/05/1996 CHI vs. NYK W 4 2 1 1 100.0 0 0 - 0 0 - 1 2 3 0 0 0 0 2 -
p161
aVJames Edwards CHI 05/05/1996 CHI vs. NYK W 7 2 0 0 - 0 0 - 2 2 100.0 0 0 0 0 0 0 0 2 -
p162
aVRon Harper CHI 05/05/1996 CHI vs. NYK W 30 4 2 7 28.6 0 2 0.0 0 0 - 2 5 7 3 1 1 0 3 -
p163
aVJud Buechler CHI 05/01/1996 CHI @ MIA W 14 7 3 7 42.9 1 3 33.3 0 0 - 1 3 4 0 0 0 2 1 -
p164
aVScottie Pippen CHI 05/01/1996 CHI @ MIA W 39 22 6 12 50.0 2 4 50.0 8 11 72.7 8 10 18 10 1 3 5 3 -
p165
aVJohn Salley CHI 05/01/1996 CHI @ MIA W 8 0 0 2 0.0 0 0 - 0 0 - 0 2 2 0 0 0 0 1 -
p166
aVSteve Kerr CHI 05/01/1996 CHI @ MIA W 23 7 2 5 40.0 1 3 33.3 2 2 100.0 0 1 1 3 1 0 1 0 -
p167
aVDennis Rodman CHI 05/01/1996 CHI @ MIA W 18 6 3 4 75.0 0 0 - 0 0 - 2 1 3 3 0 0 0 4 -
p168
aVRandy Brown CHI 05/01/1996 CHI @ MIA W 7 1 0 0 - 0 0 - 1 2 50.0 0 1 1 0 0 0 0 1 -
p169
aVToni Kukoc CHI 05/01/1996 CHI @ MIA W 30 14 4 8 50.0 0 3 0.0 6 7 85.7 1 4 5 4 1 0 1 2 -
p170
aVLuc Longley CHI 05/01/1996 CHI @ MIA W 21 10 4 8 50.0 0 0 - 2 2 100.0 2 3 5 1 0 0 1 2 -
p171
aVBill Wennington CHI 05/01/1996 CHI @ MIA W 13 6 3 5 60.0 0 0 - 0 0 - 2 2 4 1 2 0 1 1 -
p172
aVMichael Jordan CHI 05/01/1996 CHI @ MIA W 33 26 10 23 43.5 3 6 50.0 3 3 100.0 1 2 3 2 3 0 0 0 -
p173
aVRon Harper CHI 05/01/1996 CHI @ MIA W 34 13 5 6 83.3 1 1 100.0 2 2 100.0 0 2 2 3 0 0 1 2 -
p174
aVMichael Jordan CHI 04/28/1996 CHI vs. MIA W 32 29 9 17 52.9 2 3 66.7 9 12 75.0 0 4 4 4 1 0 0 0 -
p175
aVBill Wennington CHI 04/28/1996 CHI vs. MIA W 8 0 0 0 - 0 0 - 0 0 - 2 1 3 1 1 0 0 3 -
p176
aVRon Harper CHI 04/28/1996 CHI vs. MIA W 29 6 3 5 60.0 0 1 0.0 0 4 0.0 3 3 6 6 3 0 2 3 -
p177
aVSteve Kerr CHI 04/28/1996 CHI vs. MIA W 22 13 3 7 42.9 1 4 25.0 6 6 100.0 0 2 2 4 0 0 1 3 -
p178
aVScottie Pippen CHI 04/28/1996 CHI vs. MIA W 35 24 10 14 71.4 3 6 50.0 1 4 25.0 2 6 8 8 3 1 2 1 -
p179
aVJud Buechler CHI 04/28/1996 CHI vs. MIA W 13 3 1 2 50.0 1 1 100.0 0 0 - 0 2 2 1 1 0 0 2 -
p180
aVJames Edwards CHI 04/28/1996 CHI vs. MIA W 8 5 2 3 66.7 0 0 - 1 2 50.0 0 2 2 0 0 0 1 2 -
p181
aVDennis Rodman CHI 04/28/1996 CHI vs. MIA W 14 2 0 1 0.0 0 0 - 2 4 50.0 0 5 5 2 0 0 2 4 -
p182
aVLuc Longley CHI 04/28/1996 CHI vs. MIA W 15 7 3 6 50.0 0 0 - 1 2 50.0 2 3 5 1 0 0 2 5 -
p183
aVRandy Brown CHI 04/28/1996 CHI vs. MIA W 10 6 3 4 75.0 0 0 - 0 0 - 0 0 0 0 0 0 0 0 -
p184
aVJohn Salley CHI 04/28/1996 CHI vs. MIA W 17 3 1 2 50.0 0 0 - 1 3 33.3 0 1 1 0 0 1 2 3 -
p185
aVToni Kukoc CHI 04/28/1996 CHI vs. MIA W 37 8 4 12 33.3 0 6 0.0 0 0 - 2 5 7 4 0 1 2 3 -
p186
aVJohn Salley CHI 04/26/1996 CHI vs. MIA W 9 0 0 0 - 0 0 - 0 0 - 0 1 1 1 1 0 1 4 -
p187
aVBill Wennington CHI 04/26/1996 CHI vs. MIA W 7 2 1 3 33.3 0 0 - 0 0 - 1 1 2 0 0 0 0 0 -
p188
aVRon Harper CHI 04/26/1996 CHI vs. MIA W 26 11 5 8 62.5 0 1 0.0 1 2 50.0 1 0 1 2 4 0 3 2 -
p189
aVMichael Jordan CHI 04/26/1996 CHI vs. MIA W 38 35 13 22 59.1 0 1 0.0 9 12 75.0 2 2 4 2 1 1 4 5 -
p190
aVJud Buechler CHI 04/26/1996 CHI vs. MIA W 7 3 1 3 33.3 1 2 50.0 0 0 - 0 0 0 0 0 0 0 0 -
p191
aVToni Kukoc CHI 04/26/1996 CHI vs. MIA W 38 21 9 17 52.9 1 7 14.3 2 4 50.0 1 6 7 3 0 0 3 1 -
p192
aVSteve Kerr CHI 04/26/1996 CHI vs. MIA W 27 8 1 3 33.3 1 3 33.3 5 6 83.3 0 1 1 3 2 0 0 1 -
p193
aVLuc Longley CHI 04/26/1996 CHI vs. MIA W 14 4 1 3 33.3 0 0 - 2 2 100.0 2 1 3 2 0 2 3 6 -
p194
aVScottie Pippen CHI 04/26/1996 CHI vs. MIA W 42 13 4 10 40.0 0 3 0.0 5 8 62.5 1 7 8 3 5 1 3 1 -
p195
aVDennis Rodman CHI 04/26/1996 CHI vs. MIA W 27 3 1 3 33.3 0 0 - 1 2 50.0 5 5 10 1 0 0 2 4 -
p196
aVRandy Brown CHI 04/26/1996 CHI vs. MIA W 5 2 1 2 50.0 0 0 - 0 0 - 0 0 0 0 1 0 0 0 -
p197
a.