(lp0
VPLAYER TEAM DATE MATCHUP W/L MIN PTS FGM FGA FG% 3PM 3PA 3P% FTM FTA FT% OREB DREB REB AST STL BLK TOV PF +/-
p1
aVSam Cassell HOU 05/12/1996 HOU vs. SEA L 35 15 5 16 31.3 4 10 40.0 1 1 100.0 0 0 0 6 0 0 3 4 -
p2
aVRobert Horry HOU 05/12/1996 HOU vs. SEA L 45 20 7 17 41.2 5 11 45.5 1 4 25.0 4 8 12 4 3 1 3 6 -
p3
aVChucky Brown HOU 05/12/1996 HOU vs. SEA L 13 4 0 2 0.0 0 0 - 4 4 100.0 3 1 4 0 1 0 0 2 -
p4
aVMark Bryant HOU 05/12/1996 HOU vs. SEA L 26 10 3 4 75.0 0 0 - 4 5 80.0 1 4 5 0 0 0 1 4 -
p5
aVKenny Smith HOU 05/12/1996 HOU vs. SEA L 19 2 0 4 0.0 0 4 0.0 2 2 100.0 0 1 1 2 1 0 1 2 -
p6
aVMario Elie HOU 05/12/1996 HOU vs. SEA L 37 15 5 14 35.7 1 4 25.0 4 4 100.0 2 3 5 2 2 0 1 4 -
p7
aVSam Mack HOU 05/12/1996 HOU vs. SEA L 4 0 0 2 0.0 0 1 0.0 0 0 - 0 1 1 0 0 0 0 0 -
p8
aVClyde Drexler HOU 05/12/1996 HOU vs. SEA L 36 15 4 14 28.6 0 3 0.0 7 8 87.5 4 11 15 6 2 0 5 4 -
p9
aVHakeem Olajuwon HOU 05/12/1996 HOU vs. SEA L 50 26 11 19 57.9 0 1 0.0 4 8 50.0 3 3 6 3 1 0 4 5 -
p10
aVMario Elie HOU 05/10/1996 HOU vs. SEA L 23 13 4 10 40.0 2 4 50.0 3 3 100.0 0 0 0 0 0 1 0 5 -
p11
aVSam Cassell HOU 05/10/1996 HOU vs. SEA L 10 2 0 4 0.0 0 1 0.0 2 2 100.0 0 1 1 1 0 0 2 1 -
p12
aVClyde Drexler HOU 05/10/1996 HOU vs. SEA L 37 28 10 21 47.6 3 8 37.5 5 6 83.3 1 2 3 2 2 0 0 5 -
p13
aVKenny Smith HOU 05/10/1996 HOU vs. SEA L 48 27 8 15 53.3 5 10 50.0 6 6 100.0 2 2 4 11 2 0 2 5 -
p14
aVChucky Brown HOU 05/10/1996 HOU vs. SEA L 27 11 5 8 62.5 0 0 - 1 2 50.0 1 4 5 1 0 0 2 2 -
p15
aVMark Bryant HOU 05/10/1996 HOU vs. SEA L 15 0 0 1 0.0 0 0 - 0 0 - 1 2 3 1 0 0 0 1 -
p16
aVRobert Horry HOU 05/10/1996 HOU vs. SEA L 34 7 3 8 37.5 1 4 25.0 0 0 - 1 4 5 0 2 2 3 5 -
p17
aVHakeem Olajuwon HOU 05/10/1996 HOU vs. SEA L 46 24 7 12 58.3 0 0 - 10 11 90.9 2 11 13 9 2 3 7 3 -
p18
aVSam Mack HOU 05/06/1996 HOU @ SEA L 6 3 1 1 100.0 1 1 100.0 0 0 - 0 0 0 0 0 0 0 0 -
p19
aVKenny Smith HOU 05/06/1996 HOU @ SEA L 27 11 3 11 27.3 3 8 37.5 2 2 100.0 2 1 3 7 0 0 1 3 -
p20
aVRobert Horry HOU 05/06/1996 HOU @ SEA L 37 14 4 9 44.4 4 7 57.1 2 4 50.0 1 3 4 5 2 1 0 3 -
p21
aVClyde Drexler HOU 05/06/1996 HOU @ SEA L 37 19 7 11 63.6 3 4 75.0 2 2 100.0 2 7 9 4 2 0 3 3 -
p22
aVMario Elie HOU 05/06/1996 HOU @ SEA L 25 5 2 6 33.3 1 4 25.0 0 0 - 0 2 2 1 1 0 1 2 -
p23
aVHakeem Olajuwon HOU 05/06/1996 HOU @ SEA L 41 17 8 21 38.1 0 0 - 1 1 100.0 4 12 16 4 2 4 5 2 -
p24
aVMark Bryant HOU 05/06/1996 HOU @ SEA L 17 12 5 7 71.4 0 0 - 2 3 66.7 0 2 2 1 0 0 1 3 -
p25
aVChucky Brown HOU 05/06/1996 HOU @ SEA L 23 11 5 10 50.0 0 0 - 1 2 50.0 1 1 2 1 0 0 0 1 -
p26
aVSam Cassell HOU 05/06/1996 HOU @ SEA L 26 9 1 5 20.0 1 3 33.3 6 8 75.0 0 0 0 5 1 0 1 3 -
p27
aVCharles Jones HOU 05/06/1996 HOU @ SEA L 1 0 0 0 - 0 0 - 0 0 - 0 0 0 0 0 0 0 0 -
p28
aVClyde Drexler HOU 05/04/1996 HOU @ SEA L 30 15 7 15 46.7 1 5 20.0 0 0 - 5 4 9 2 3 0 3 2 -
p29
aVCharles Jones HOU 05/04/1996 HOU @ SEA L 6 0 0 1 0.0 0 0 - 0 0 - 0 1 1 0 0 0 0 0 -
p30
aVRobert Horry HOU 05/04/1996 HOU @ SEA L 33 18 7 14 50.0 4 10 40.0 0 2 0.0 2 3 5 3 2 0 3 1 -
p31
aVChucky Brown HOU 05/04/1996 HOU @ SEA L 25 5 2 4 50.0 0 0 - 1 2 50.0 0 3 3 2 1 0 0 2 -
p32
aVKenny Smith HOU 05/04/1996 HOU @ SEA L 16 0 0 3 0.0 0 1 0.0 0 0 - 0 0 0 5 0 0 1 1 -
p33
aVEldridge Recasner HOU 05/04/1996 HOU @ SEA L 8 0 0 3 0.0 0 1 0.0 0 0 - 0 1 1 2 0 0 1 0 -
p34
aVSam Mack HOU 05/04/1996 HOU @ SEA L 18 9 4 8 50.0 1 5 20.0 0 1 0.0 0 2 2 1 1 0 0 1 -
p35
aVMario Elie HOU 05/04/1996 HOU @ SEA L 23 9 3 7 42.9 2 3 66.7 1 2 50.0 2 1 3 2 1 1 2 2 -
p36
aVSam Cassell HOU 05/04/1996 HOU @ SEA L 24 11 3 12 25.0 1 4 25.0 4 4 100.0 0 3 3 4 3 0 4 2 -
p37
aVPete Chilcutt HOU 05/04/1996 HOU @ SEA L 10 2 1 4 25.0 0 1 0.0 0 2 0.0 2 1 3 0 0 0 1 0 -
p38
aVMark Bryant HOU 05/04/1996 HOU @ SEA L 13 0 0 3 0.0 0 0 - 0 0 - 0 2 2 1 0 0 0 0 -
p39
aVHakeem Olajuwon HOU 05/04/1996 HOU @ SEA L 34 6 3 9 33.3 0 0 - 0 0 - 0 4 4 1 0 1 1 2 -
p40
aVClyde Drexler HOU 05/02/1996 HOU vs. LAL W 36 6 2 11 18.2 0 2 0.0 2 2 100.0 0 6 6 7 3 2 4 2 -
p41
aVHakeem Olajuwon HOU 05/02/1996 HOU vs. LAL W 42 25 12 22 54.5 0 0 - 1 2 50.0 4 7 11 7 4 2 5 4 -
p42
aVRobert Horry HOU 05/02/1996 HOU vs. LAL W 40 17 7 13 53.8 3 8 37.5 0 2 0.0 1 5 6 4 4 0 1 4 -
p43
aVMario Elie HOU 05/02/1996 HOU vs. LAL W 30 9 4 8 50.0 0 2 0.0 1 1 100.0 1 2 3 2 0 0 0 1 -
p44
aVKenny Smith HOU 05/02/1996 HOU vs. LAL W 24 17 6 6 100.0 4 4 100.0 1 1 100.0 0 2 2 6 1 0 2 1 -
p45
aVCharles Jones HOU 05/02/1996 HOU vs. LAL W 1 0 0 0 - 0 0 - 0 0 - 0 0 0 0 0 0 0 0 -
p46
aVMark Bryant HOU 05/02/1996 HOU vs. LAL W 8 2 1 1 100.0 0 0 - 0 0 - 0 1 1 0 0 0 0 2 -
p47
aVSam Cassell HOU 05/02/1996 HOU vs. LAL W 24 10 1 6 16.7 0 1 0.0 8 9 88.9 0 2 2 2 0 0 2 3 -
p48
aVSam Mack HOU 05/02/1996 HOU vs. LAL W 6 0 0 1 0.0 0 1 0.0 0 0 - 0 1 1 0 0 0 2 0 -
p49
aVChucky Brown HOU 05/02/1996 HOU vs. LAL W 29 16 6 7 85.7 0 0 - 4 4 100.0 0 2 2 1 0 0 2 4 -
p50
aVMark Bryant HOU 04/30/1996 HOU vs. LAL W 20 8 4 6 66.7 0 0 - 0 0 - 2 3 5 0 0 1 1 5 -
p51
aVMario Elie HOU 04/30/1996 HOU vs. LAL W 30 14 5 9 55.6 2 3 66.7 2 2 100.0 1 0 1 4 1 1 0 0 -
p52
aVChucky Brown HOU 04/30/1996 HOU vs. LAL W 20 8 4 7 57.1 0 0 - 0 0 - 0 4 4 0 1 0 0 3 -
p53
aVSam Cassell HOU 04/30/1996 HOU vs. LAL W 31 9 4 10 40.0 0 3 0.0 1 2 50.0 0 3 3 6 1 1 1 1 -
p54
aVRobert Horry HOU 04/30/1996 HOU vs. LAL W 41 15 6 12 50.0 3 7 42.9 0 0 - 2 8 10 3 2 2 0 3 -
p55
aVKenny Smith HOU 04/30/1996 HOU vs. LAL W 17 4 2 5 40.0 0 1 0.0 0 0 - 0 1 1 2 0 0 0 0 -
p56
aVClyde Drexler HOU 04/30/1996 HOU vs. LAL W 39 16 6 12 50.0 0 2 0.0 4 8 50.0 1 6 7 11 3 1 1 1 -
p57
aVHakeem Olajuwon HOU 04/30/1996 HOU vs. LAL W 42 30 12 27 44.4 0 0 - 6 7 85.7 2 6 8 3 0 2 2 2 -
p58
aVMark Bryant HOU 04/27/1996 HOU @ LAL L 27 10 3 6 50.0 0 0 - 4 5 80.0 1 3 4 1 0 0 0 3 -
p59
aVMario Elie HOU 04/27/1996 HOU @ LAL L 34 6 3 7 42.9 0 2 0.0 0 0 - 0 1 1 2 1 0 1 1 -
p60
aVKenny Smith HOU 04/27/1996 HOU @ LAL L 13 3 1 3 33.3 0 1 0.0 1 1 100.0 0 0 0 1 0 0 1 1 -
p61
aVHakeem Olajuwon HOU 04/27/1996 HOU @ LAL L 32 18 8 11 72.7 0 0 - 2 4 50.0 1 6 7 2 1 4 1 6 -
p62
aVChucky Brown HOU 04/27/1996 HOU @ LAL L 16 8 2 3 66.7 0 0 - 4 4 100.0 0 2 2 0 0 0 0 1 -
p63
aVClyde Drexler HOU 04/27/1996 HOU @ LAL L 37 13 6 16 37.5 1 6 16.7 0 0 - 1 5 6 4 4 0 2 2 -
p64
aVSam Mack HOU 04/27/1996 HOU @ LAL L 5 0 0 1 0.0 0 1 0.0 0 0 - 0 1 1 0 0 0 0 0 -
p65
aVSam Cassell HOU 04/27/1996 HOU @ LAL L 35 22 10 20 50.0 2 6 33.3 0 0 - 1 4 5 8 1 0 3 3 -
p66
aVRobert Horry HOU 04/27/1996 HOU @ LAL L 41 14 3 10 30.0 1 4 25.0 7 11 63.6 1 6 7 4 2 4 3 2 -
p67
aVSam Mack HOU 04/25/1996 HOU @ LAL W 8 0 0 2 0.0 0 0 - 0 2 0.0 0 4 4 0 0 0 0 0 -
p68
aVMark Bryant HOU 04/25/1996 HOU @ LAL W 19 12 5 7 71.4 0 0 - 2 2 100.0 2 3 5 0 1 1 0 3 -
p69
aVHakeem Olajuwon HOU 04/25/1996 HOU @ LAL W 42 33 14 26 53.8 0 0 - 5 7 71.4 1 7 8 2 5 1 4 4 -
p70
aVMario Elie HOU 04/25/1996 HOU @ LAL W 31 7 3 5 60.0 1 2 50.0 0 0 - 0 7 7 1 1 0 0 2 -
p71
aVRobert Horry HOU 04/25/1996 HOU @ LAL W 37 0 0 8 0.0 0 2 0.0 0 0 - 3 5 8 1 4 3 2 5 -
p72
aVChucky Brown HOU 04/25/1996 HOU @ LAL W 15 2 1 4 25.0 0 0 - 0 0 - 1 1 2 0 0 0 0 2 -
p73
aVClyde Drexler HOU 04/25/1996 HOU @ LAL W 40 21 7 18 38.9 1 4 25.0 6 8 75.0 1 6 7 4 2 1 2 3 -
p74
aVSam Cassell HOU 04/25/1996 HOU @ LAL W 21 5 2 8 25.0 0 1 0.0 1 3 33.3 0 3 3 2 0 0 2 3 -
p75
aVKenny Smith HOU 04/25/1996 HOU @ LAL W 27 7 3 6 50.0 0 2 0.0 1 1 100.0 0 1 1 4 1 0 0 1 -
p76
a.