(lp0
VPLAYER TEAM DATE MATCHUP W/L MIN PTS FGM FGA FG% 3PM 3PA 3P% FTM FTA FT% OREB DREB REB AST STL BLK TOV PF +/-
p1
aVPatrick Ewing NYK 05/14/1996 NYK @ CHI L 38 22 7 14 50.0 0 0 - 8 11 72.7 1 6 7 1 0 3 5 4 -
p2
aVAnthony Mason NYK 05/14/1996 NYK @ CHI L 41 16 6 8 75.0 0 0 - 4 7 57.1 1 5 6 2 0 0 4 3 -
p3
aVWillie Anderson NYK 05/14/1996 NYK @ CHI L 22 6 3 9 33.3 0 1 0.0 0 0 - 1 4 5 1 2 0 1 3 -
p4
aVCharles Oakley NYK 05/14/1996 NYK @ CHI L 41 14 5 8 62.5 0 0 - 4 7 57.1 3 10 13 2 1 0 3 4 -
p5
aVRonnie Grandison NYK 05/14/1996 NYK @ CHI L 1 0 0 1 0.0 0 1 0.0 0 0 - 0 0 0 0 0 0 0 0 -
p6
aVHubert Davis NYK 05/14/1996 NYK @ CHI L 17 4 2 4 50.0 0 1 0.0 0 0 - 0 0 0 0 0 0 1 1 -
p7
aVDerek Harper NYK 05/14/1996 NYK @ CHI L 33 6 3 9 33.3 0 3 0.0 0 0 - 0 2 2 6 0 0 3 4 -
p8
aVCharlie Ward NYK 05/14/1996 NYK @ CHI L 15 3 1 4 25.0 1 3 33.3 0 0 - 0 2 2 3 4 0 0 1 -
p9
aVJohn Starks NYK 05/14/1996 NYK @ CHI L 32 10 3 10 30.0 1 4 25.0 3 5 60.0 0 1 1 0 0 0 2 3 -
p10
aVHerb Williams NYK 05/12/1996 NYK vs. CHI L 4 0 0 0 - 0 0 - 0 0 - 0 0 0 0 0 1 1 2 -
p11
aVCharles Oakley NYK 05/12/1996 NYK vs. CHI L 38 17 6 9 66.7 0 1 0.0 5 6 83.3 3 2 5 0 3 0 3 5 -
p12
aVCharlie Ward NYK 05/12/1996 NYK vs. CHI L 9 3 1 2 50.0 0 1 0.0 1 3 33.3 0 0 0 1 1 0 1 1 -
p13
aVJohn Starks NYK 05/12/1996 NYK vs. CHI L 39 13 4 11 36.4 1 5 20.0 4 5 80.0 0 3 3 3 2 0 5 3 -
p14
aVHubert Davis NYK 05/12/1996 NYK vs. CHI L 19 8 2 4 50.0 0 0 - 4 4 100.0 1 0 1 1 0 0 0 0 -
p15
aVWillie Anderson NYK 05/12/1996 NYK vs. CHI L 14 5 1 1 100.0 1 1 100.0 2 2 100.0 0 1 1 0 0 0 2 3 -
p16
aVAnthony Mason NYK 05/12/1996 NYK vs. CHI L 38 1 0 2 0.0 0 0 - 1 2 50.0 0 5 5 3 0 0 4 4 -
p17
aVPatrick Ewing NYK 05/12/1996 NYK vs. CHI L 42 29 10 21 47.6 0 0 - 9 10 90.0 0 10 10 1 0 4 4 5 -
p18
aVDerek Harper NYK 05/12/1996 NYK vs. CHI L 37 15 5 8 62.5 3 6 50.0 2 2 100.0 0 3 3 5 1 0 0 4 -
p19
aVPatrick Ewing NYK 05/11/1996 NYK vs. CHI W 45 22 8 15 53.3 0 0 - 6 8 75.0 2 11 13 3 0 3 1 2 -
p20
aVCharles Oakley NYK 05/11/1996 NYK vs. CHI W 44 13 4 8 50.0 0 1 0.0 5 6 83.3 4 9 13 2 2 0 7 4 -
p21
aVJohn Starks NYK 05/11/1996 NYK vs. CHI W 43 30 11 18 61.1 5 8 62.5 3 5 60.0 0 4 4 6 3 0 3 5 -
p22
aVCharlie Ward NYK 05/11/1996 NYK vs. CHI W 20 12 5 6 83.3 0 1 0.0 2 4 50.0 1 2 3 2 1 0 1 1 -
p23
aVHubert Davis NYK 05/11/1996 NYK vs. CHI W 7 0 0 1 0.0 0 0 - 0 0 - 0 1 1 0 0 0 0 1 -
p24
aVAnthony Mason NYK 05/11/1996 NYK vs. CHI W 49 18 7 10 70.0 0 0 - 4 6 66.7 3 7 10 2 1 0 3 2 -
p25
aVDerek Harper NYK 05/11/1996 NYK vs. CHI W 39 3 1 11 9.1 0 5 0.0 1 1 100.0 0 1 1 2 1 0 2 2 -
p26
aVWillie Anderson NYK 05/11/1996 NYK vs. CHI W 18 4 1 6 16.7 0 2 0.0 2 3 66.7 0 1 1 0 1 0 3 2 -
p27
aVHubert Davis NYK 05/07/1996 NYK @ CHI L 19 1 0 4 0.0 0 4 0.0 1 2 50.0 0 0 0 2 0 0 0 3 -
p28
aVAnthony Mason NYK 05/07/1996 NYK @ CHI L 44 10 5 10 50.0 0 0 - 0 0 - 3 5 8 1 1 0 3 2 -
p29
aVHerb Williams NYK 05/07/1996 NYK @ CHI L 9 2 1 2 50.0 0 0 - 0 0 - 0 0 0 0 0 0 0 0 -
p30
aVDerek Harper NYK 05/07/1996 NYK @ CHI L 40 11 4 13 30.8 3 8 37.5 0 0 - 0 1 1 5 1 0 5 4 -
p31
aVCharles Oakley NYK 05/07/1996 NYK @ CHI L 39 9 3 10 30.0 0 1 0.0 3 6 50.0 6 5 11 0 0 0 4 4 -
p32
aVJohn Starks NYK 05/07/1996 NYK @ CHI L 32 12 2 5 40.0 0 1 0.0 8 8 100.0 0 3 3 4 4 0 3 4 -
p33
aVGary Grant NYK 05/07/1996 NYK @ CHI L 8 6 2 5 40.0 2 3 66.7 0 0 - 2 1 3 0 1 0 1 0 -
p34
aVWillie Anderson NYK 05/07/1996 NYK @ CHI L 10 6 2 6 33.3 0 2 0.0 2 2 100.0 1 1 2 0 1 0 0 2 -
p35
aVPatrick Ewing NYK 05/07/1996 NYK @ CHI L 39 23 9 19 47.4 0 0 - 5 9 55.6 1 9 10 1 0 4 4 2 -
p36
aVHubert Davis NYK 05/05/1996 NYK @ CHI L 15 8 3 4 75.0 2 3 66.7 0 0 - 0 3 3 0 0 0 3 2 -
p37
aVAnthony Mason NYK 05/05/1996 NYK @ CHI L 45 12 5 11 45.5 0 0 - 2 2 100.0 1 4 5 2 0 0 3 4 -
p38
aVDerek Harper NYK 05/05/1996 NYK @ CHI L 40 19 8 17 47.1 2 5 40.0 1 2 50.0 0 0 0 5 2 0 1 2 -
p39
aVJ.R. Reid NYK 05/05/1996 NYK @ CHI L 7 2 1 1 100.0 0 0 - 0 0 - 0 1 1 1 0 0 1 2 -
p40
aVCharlie Ward NYK 05/05/1996 NYK @ CHI L 8 4 2 5 40.0 0 2 0.0 0 0 - 0 0 0 1 1 0 0 0 -
p41
aVPatrick Ewing NYK 05/05/1996 NYK @ CHI L 43 21 9 23 39.1 0 0 - 3 5 60.0 3 13 16 1 1 0 5 3 -
p42
aVCharles Oakley NYK 05/05/1996 NYK @ CHI L 43 14 4 9 44.4 0 0 - 6 7 85.7 6 7 13 2 0 0 3 4 -
p43
aVJohn Starks NYK 05/05/1996 NYK @ CHI L 39 4 0 9 0.0 0 5 0.0 4 4 100.0 2 0 2 2 0 0 1 4 -
p44
aVPatrick Ewing NYK 05/01/1996 NYK vs. CLE W 42 16 5 10 50.0 0 0 - 6 14 42.9 2 8 10 1 0 4 6 2 -
p45
aVDerek Harper NYK 05/01/1996 NYK vs. CLE W 35 6 2 5 40.0 0 0 - 2 4 50.0 0 4 4 3 3 0 1 3 -
p46
aVCharlie Ward NYK 05/01/1996 NYK vs. CLE W 13 0 0 3 0.0 0 2 0.0 0 0 - 1 0 1 2 2 0 3 1 -
p47
aVHerb Williams NYK 05/01/1996 NYK vs. CLE W 6 4 2 2 100.0 0 0 - 0 0 - 0 0 0 0 0 1 0 0 -
p48
aVCharles Oakley NYK 05/01/1996 NYK vs. CLE W 32 13 5 10 50.0 1 1 100.0 2 4 50.0 3 3 6 4 1 0 4 6 -
p49
aVJohn Starks NYK 05/01/1996 NYK vs. CLE W 39 22 7 11 63.6 5 7 71.4 3 6 50.0 0 5 5 4 0 0 4 3 -
p50
aVHubert Davis NYK 05/01/1996 NYK vs. CLE W 28 9 2 4 50.0 1 3 33.3 4 5 80.0 1 2 3 1 0 0 1 2 -
p51
aVAnthony Mason NYK 05/01/1996 NYK vs. CLE W 45 11 4 10 40.0 0 0 - 3 4 75.0 1 8 9 4 2 0 2 3 -
p52
aVHerb Williams NYK 04/27/1996 NYK @ CLE W 6 1 0 0 - 0 0 - 1 2 50.0 0 0 0 0 0 0 0 1 -
p53
aVAnthony Mason NYK 04/27/1996 NYK @ CLE W 48 23 10 15 66.7 0 0 - 3 5 60.0 4 8 12 5 0 0 1 1 -
p54
aVHubert Davis NYK 04/27/1996 NYK @ CLE W 18 8 3 4 75.0 2 2 100.0 0 0 - 2 0 2 0 0 0 1 1 -
p55
aVCharles Oakley NYK 04/27/1996 NYK @ CLE W 37 8 4 9 44.4 0 1 0.0 0 0 - 2 3 5 2 1 0 4 3 -
p56
aVPatrick Ewing NYK 04/27/1996 NYK @ CLE W 39 16 8 20 40.0 0 1 0.0 0 0 - 1 11 12 2 0 5 4 2 -
p57
aVJohn Starks NYK 04/27/1996 NYK @ CLE W 44 16 5 11 45.5 3 6 50.0 3 4 75.0 1 3 4 7 1 0 5 1 -
p58
aVDerek Harper NYK 04/27/1996 NYK @ CLE W 34 8 3 9 33.3 1 5 20.0 1 2 50.0 0 4 4 5 2 1 2 4 -
p59
aVCharlie Ward NYK 04/27/1996 NYK @ CLE W 14 4 2 4 50.0 0 1 0.0 0 0 - 0 0 0 4 1 0 1 3 -
p60
aVHerb Williams NYK 04/25/1996 NYK @ CLE W 8 2 0 1 0.0 0 0 - 2 2 100.0 0 0 0 0 0 0 0 0 -
p61
aVAnthony Mason NYK 04/25/1996 NYK @ CLE W 40 10 4 12 33.3 0 0 - 2 2 100.0 4 3 7 7 0 1 0 1 -
p62
aVPatrick Ewing NYK 04/25/1996 NYK @ CLE W 40 23 9 15 60.0 1 1 100.0 4 6 66.7 1 6 7 5 0 2 1 2 -
p63
aVRonnie Grandison NYK 04/25/1996 NYK @ CLE W 2 0 0 0 - 0 0 - 0 0 - 0 0 0 0 0 0 0 1 -
p64
aVCharlie Ward NYK 04/25/1996 NYK @ CLE W 13 6 2 3 66.7 2 2 100.0 0 0 - 0 3 3 4 1 0 0 2 -
p65
aVJohn Starks NYK 04/25/1996 NYK @ CLE W 46 21 7 12 58.3 6 9 66.7 1 2 50.0 0 7 7 7 3 1 2 3 -
p66
aVDerek Harper NYK 04/25/1996 NYK @ CLE W 35 12 3 10 30.0 2 3 66.7 4 4 100.0 0 2 2 7 0 0 0 1 -
p67
aVCharles Oakley NYK 04/25/1996 NYK @ CLE W 34 17 8 15 53.3 1 1 100.0 0 0 - 1 2 3 2 0 0 0 3 -
p68
aVHubert Davis NYK 04/25/1996 NYK @ CLE W 22 15 5 6 83.3 5 6 83.3 0 0 - 0 2 2 0 0 0 1 2 -
p69
a.