(lp0
VPLAYER TEAM DATE MATCHUP W/L MIN PTS FGM FGA FG% 3PM 3PA 3P% FTM FTA FT% OREB DREB REB AST STL BLK TOV PF +/-
p1
aVElliot Perry PHX 05/03/1996 PHX vs. SAN L 23 8 4 7 57.1 0 0 - 0 1 0.0 0 1 1 6 0 0 0 1 -
p2
aVHot Rod Williams PHX 05/03/1996 PHX vs. SAN L 34 15 6 13 46.2 0 0 - 3 5 60.0 3 2 5 0 0 4 2 3 -
p3
aVWesley Person PHX 05/03/1996 PHX vs. SAN L 45 7 3 10 30.0 1 5 20.0 0 0 - 2 3 5 0 2 0 1 0 -
p4
aVJoe Kleine PHX 05/03/1996 PHX vs. SAN L 3 0 0 1 0.0 0 0 - 0 0 - 0 0 0 0 1 0 0 0 -
p5
aVA.C. Green PHX 05/03/1996 PHX vs. SAN L 17 2 1 3 33.3 0 1 0.0 0 0 - 1 1 2 1 0 0 0 1 -
p6
aVWayman Tisdale PHX 05/03/1996 PHX vs. SAN L 8 2 1 4 25.0 0 0 - 0 0 - 0 0 0 0 0 0 0 0 -
p7
aVCharles Barkley PHX 05/03/1996 PHX vs. SAN L 41 21 6 15 40.0 1 3 33.3 8 11 72.7 3 6 9 5 2 1 0 4 -
p8
aVDanny Manning PHX 05/03/1996 PHX vs. SAN L 20 8 4 9 44.4 0 0 - 0 0 - 0 2 2 3 1 0 1 4 -
p9
aVMario Bennett PHX 05/03/1996 PHX vs. SAN L 3 2 1 1 100.0 0 0 - 0 0 - 0 0 0 0 0 0 0 0 -
p10
aVKevin Johnson PHX 05/03/1996 PHX vs. SAN L 26 16 7 14 50.0 0 1 0.0 2 2 100.0 0 2 2 8 1 0 0 3 -
p11
aVChris Carr PHX 05/03/1996 PHX vs. SAN L 20 17 6 9 66.7 2 3 66.7 3 3 100.0 1 3 4 3 0 0 3 3 -
p12
aVWayman Tisdale PHX 05/01/1996 PHX vs. SAN W 20 6 3 8 37.5 0 0 - 0 0 - 2 0 2 2 0 0 0 0 -
p13
aVA.C. Green PHX 05/01/1996 PHX vs. SAN W 21 2 0 3 0.0 0 1 0.0 2 2 100.0 2 4 6 0 0 0 1 3 -
p14
aVDanny Manning PHX 05/01/1996 PHX vs. SAN W 19 14 7 14 50.0 0 0 - 0 0 - 1 3 4 0 2 0 2 1 -
p15
aVElliot Perry PHX 05/01/1996 PHX vs. SAN W 7 0 0 1 0.0 0 0 - 0 0 - 0 0 0 4 0 0 0 1 -
p16
aVWesley Person PHX 05/01/1996 PHX vs. SAN W 48 23 9 19 47.4 3 7 42.9 2 2 100.0 4 5 9 1 0 1 2 1 -
p17
aVChris Carr PHX 05/01/1996 PHX vs. SAN W 6 2 1 2 50.0 0 0 - 0 0 - 1 1 2 0 0 0 0 0 -
p18
aVHot Rod Williams PHX 05/01/1996 PHX vs. SAN W 38 4 2 9 22.2 0 0 - 0 0 - 6 5 11 0 0 1 2 5 -
p19
aVKevin Johnson PHX 05/01/1996 PHX vs. SAN W 41 18 8 18 44.4 0 0 - 2 3 66.7 2 4 6 8 0 0 4 2 -
p20
aVCharles Barkley PHX 05/01/1996 PHX vs. SAN W 40 25 6 12 50.0 1 3 33.3 12 15 80.0 2 11 13 3 1 1 2 3 -
p21
aVWesley Person PHX 04/28/1996 PHX @ SAN L 47 14 5 13 38.5 3 8 37.5 1 1 100.0 0 4 4 1 1 0 1 4 -
p22
aVElliot Perry PHX 04/28/1996 PHX @ SAN L 1 0 0 0 - 0 0 - 0 0 - 0 0 0 0 0 0 0 0 -
p23
aVDanny Manning PHX 04/28/1996 PHX @ SAN L 31 16 6 16 37.5 0 1 0.0 4 4 100.0 3 0 3 1 0 0 3 4 -
p24
aVWayman Tisdale PHX 04/28/1996 PHX @ SAN L 20 11 5 9 55.6 0 0 - 1 2 50.0 0 1 1 0 0 0 1 5 -
p25
aVKevin Johnson PHX 04/28/1996 PHX @ SAN L 48 21 7 17 41.2 1 3 33.3 6 8 75.0 0 7 7 16 0 2 5 2 -
p26
aVHot Rod Williams PHX 04/28/1996 PHX @ SAN L 26 6 2 3 66.7 0 0 - 2 4 50.0 1 5 6 1 0 2 0 6 -
p27
aVCharles Barkley PHX 04/28/1996 PHX @ SAN L 45 30 12 26 46.2 0 4 0.0 6 9 66.7 8 12 20 4 1 1 2 3 -
p28
aVA.C. Green PHX 04/28/1996 PHX @ SAN L 22 7 3 5 60.0 0 1 0.0 1 2 50.0 2 3 5 1 0 0 1 3 -
p29
aVMario Bennett PHX 04/26/1996 PHX @ SAN L 5 2 1 3 33.3 0 0 - 0 0 - 2 1 3 0 0 0 2 0 -
p30
aVWesley Person PHX 04/26/1996 PHX @ SAN L 43 13 5 14 35.7 2 9 22.2 1 2 50.0 2 3 5 1 0 0 1 2 -
p31
aVHot Rod Williams PHX 04/26/1996 PHX @ SAN L 17 11 4 7 57.1 0 0 - 3 3 100.0 1 3 4 0 0 0 2 3 -
p32
aVCharles Barkley PHX 04/26/1996 PHX @ SAN L 38 26 7 17 41.2 1 2 50.0 11 12 91.7 5 7 12 3 0 1 2 5 -
p33
aVJoe Kleine PHX 04/26/1996 PHX @ SAN L 5 0 0 1 0.0 0 0 - 0 0 - 1 0 1 0 0 0 1 1 -
p34
aVElliot Perry PHX 04/26/1996 PHX @ SAN L 20 6 3 6 50.0 0 0 - 0 0 - 0 1 1 2 2 0 0 1 -
p35
aVWayman Tisdale PHX 04/26/1996 PHX @ SAN L 19 2 1 9 11.1 0 0 - 0 0 - 1 0 1 0 1 1 0 2 -
p36
aVA.C. Green PHX 04/26/1996 PHX @ SAN L 27 8 2 6 33.3 0 0 - 4 4 100.0 1 4 5 0 1 0 0 0 -
p37
aVDanny Manning PHX 04/26/1996 PHX @ SAN L 20 11 5 9 55.6 0 0 - 1 4 25.0 0 2 2 1 1 1 0 6 -
p38
aVKevin Johnson PHX 04/26/1996 PHX @ SAN L 36 14 5 8 62.5 0 0 - 4 4 100.0 0 2 2 11 1 0 2 1 -
p39
aVChris Carr PHX 04/26/1996 PHX @ SAN L 10 5 2 3 66.7 0 0 - 1 2 50.0 1 0 1 1 2 1 1 3 -
p40
a.