(lp0
VPLAYER TEAM DATE MATCHUP W/L MIN PTS FGM FGA FG% 3PM 3PA 3P% FTM FTA FT% OREB DREB REB AST STL BLK TOV PF +/-
p1
aVKenny Anderson POR 05/02/1997 POR vs. LAL L 42 6 1 8 12.5 0 4 0.0 4 4 100.0 0 5 5 5 0 1 3 2 -4
p2
aVClifford Robinson POR 05/02/1997 POR vs. LAL L 42 12 5 13 38.5 1 4 25.0 1 2 50.0 3 1 4 3 1 0 4 5 -1
p3
aVChris Dudley POR 05/02/1997 POR vs. LAL L 10 2 0 2 0.0 0 0 - 2 2 100.0 2 1 3 0 0 1 0 4 0
p4
aVIsaiah Rider POR 05/02/1997 POR vs. LAL L 40 16 4 10 40.0 1 3 33.3 7 7 100.0 1 0 1 3 0 0 2 3 -3
p5
aVArvydas Sabonis POR 05/02/1997 POR vs. LAL L 40 23 10 16 62.5 1 3 33.3 2 2 100.0 3 7 10 3 1 0 5 4 -11
p6
aVRumeal Robinson POR 05/02/1997 POR vs. LAL L 5 0 0 0 - 0 0 - 0 0 - 0 1 1 2 0 0 0 1 0
p7
aVRasheed Wallace POR 05/02/1997 POR vs. LAL L 31 21 10 14 71.4 1 1 100.0 0 0 - 5 4 9 2 0 0 4 6 4
p8
aVStacey Augmon POR 05/02/1997 POR vs. LAL L 7 2 1 3 33.3 0 0 - 0 0 - 1 0 1 0 0 0 0 1 -3
p9
aVGary Trent POR 05/02/1997 POR vs. LAL L 19 9 2 6 33.3 0 1 0.0 5 7 71.4 0 2 2 2 0 1 3 4 -2
p10
aVKenny Anderson POR 04/30/1997 POR vs. LAL W 41 30 9 11 81.8 3 4 75.0 9 10 90.0 1 4 5 5 2 0 2 3 9
p11
aVClifford Robinson POR 04/30/1997 POR vs. LAL W 37 18 5 11 45.5 1 3 33.3 7 8 87.5 2 4 6 1 1 2 3 3 9
p12
aVArvydas Sabonis POR 04/30/1997 POR vs. LAL W 16 0 0 7 0.0 0 0 - 0 0 - 1 4 5 2 2 0 2 6 -13
p13
aVRasheed Wallace POR 04/30/1997 POR vs. LAL W 43 20 7 13 53.8 1 2 50.0 5 8 62.5 1 5 6 2 2 1 0 2 10
p14
aVGary Trent POR 04/30/1997 POR vs. LAL W 19 9 4 8 50.0 0 0 - 1 3 33.3 4 2 6 2 0 0 2 4 5
p15
aVRumeal Robinson POR 04/30/1997 POR vs. LAL W 6 3 1 3 33.3 0 0 - 1 1 100.0 0 0 0 1 1 0 0 3 1
p16
aVIsaiah Rider POR 04/30/1997 POR vs. LAL W 40 12 4 15 26.7 2 7 28.6 2 4 50.0 0 2 2 3 0 0 2 2 13
p17
aVDontonio Wingfield POR 04/30/1997 POR vs. LAL W 5 4 0 0 - 0 0 - 4 4 100.0 0 1 1 0 0 0 0 1 0
p18
aVChris Dudley POR 04/30/1997 POR vs. LAL W 16 0 0 3 0.0 0 0 - 0 0 - 1 6 7 0 0 0 0 6 11
p19
aVStacey Augmon POR 04/30/1997 POR vs. LAL W 11 2 0 1 0.0 0 0 - 2 2 100.0 0 0 0 1 0 0 0 3 -5
p20
aVGary Trent POR 04/27/1997 POR @ LAL L 9 4 2 5 40.0 0 0 - 0 1 0.0 1 0 1 0 0 0 0 1 -9
p21
aVArvydas Sabonis POR 04/27/1997 POR @ LAL L 18 4 2 5 40.0 0 1 0.0 0 0 - 1 1 2 1 0 0 0 5 -2
p22
aVIsaiah Rider POR 04/27/1997 POR @ LAL L 40 18 6 14 42.9 2 4 50.0 4 4 100.0 0 2 2 6 2 0 2 4 -18
p23
aVStacey Augmon POR 04/27/1997 POR @ LAL L 7 3 1 2 50.0 0 0 - 1 2 50.0 0 0 0 0 0 0 1 1 4
p24
aVJermaine O'Neal POR 04/27/1997 POR @ LAL L 2 0 0 1 0.0 0 1 0.0 0 2 0.0 0 1 1 0 0 1 0 0 2
p25
aVMitchell Butler POR 04/27/1997 POR @ LAL L 2 2 1 1 100.0 0 0 - 0 0 - 0 1 1 0 0 0 0 0 2
p26
aVRumeal Robinson POR 04/27/1997 POR @ LAL L 5 0 0 1 0.0 0 1 0.0 0 0 - 0 0 0 2 0 0 0 1 3
p27
aVChris Dudley POR 04/27/1997 POR @ LAL L 22 8 4 4 100.0 0 0 - 0 0 - 2 5 7 2 2 2 0 4 -15
p28
aVDontonio Wingfield POR 04/27/1997 POR @ LAL L 8 4 2 2 100.0 0 0 - 0 0 - 0 1 1 1 1 0 2 2 7
p29
aVClifford Robinson POR 04/27/1997 POR @ LAL L 39 12 4 11 36.4 1 5 20.0 3 4 75.0 5 5 10 4 0 1 1 2 -20
p30
aVRasheed Wallace POR 04/27/1997 POR @ LAL L 39 20 9 14 64.3 0 1 0.0 2 3 66.7 1 4 5 1 0 0 2 4 -7
p31
aVKenny Anderson POR 04/27/1997 POR @ LAL L 42 18 7 15 46.7 1 5 20.0 3 3 100.0 1 3 4 7 3 0 5 2 -17
p32
aVDontonio Wingfield POR 04/25/1997 POR @ LAL L 0 0 0 0 - 0 0 - 0 0 - 0 0 0 0 0 0 0 0 -2
p33
aVGary Trent POR 04/25/1997 POR @ LAL L 14 10 5 10 50.0 0 0 - 0 0 - 0 3 3 0 0 0 1 2 -6
p34
aVKenny Anderson POR 04/25/1997 POR @ LAL L 42 14 5 12 41.7 1 6 16.7 3 3 100.0 0 3 3 2 2 0 1 3 -15
p35
aVChris Dudley POR 04/25/1997 POR @ LAL L 18 2 1 2 50.0 0 0 - 0 4 0.0 5 6 11 1 0 2 0 5 -1
p36
aVClifford Robinson POR 04/25/1997 POR @ LAL L 41 6 3 12 25.0 0 4 0.0 0 2 0.0 2 5 7 4 0 1 2 3 -16
p37
aVRasheed Wallace POR 04/25/1997 POR @ LAL L 35 18 7 15 46.7 0 1 0.0 4 9 44.4 1 3 4 1 0 1 0 5 -14
p38
aVJermaine O'Neal POR 04/25/1997 POR @ LAL L 0 0 0 1 0.0 0 0 - 0 0 - 0 0 0 0 0 0 0 0 -2
p39
aVMitchell Butler POR 04/25/1997 POR @ LAL L 0 0 0 1 0.0 0 0 - 0 0 - 0 0 0 0 0 0 0 0 -2
p40
aVStacey Augmon POR 04/25/1997 POR @ LAL L 9 0 0 0 - 0 0 - 0 0 - 0 0 0 2 1 0 0 1 -5
p41
aVRumeal Robinson POR 04/25/1997 POR @ LAL L 5 2 1 2 50.0 0 1 0.0 0 0 - 0 0 0 0 0 0 1 1 -3
p42
aVIsaiah Rider POR 04/25/1997 POR @ LAL L 38 7 2 4 50.0 1 2 50.0 2 2 100.0 0 3 3 5 1 0 6 2 -13
p43
aVArvydas Sabonis POR 04/25/1997 POR @ LAL L 31 18 6 14 42.9 1 4 25.0 5 6 83.3 3 6 9 3 0 3 2 4 -11
p44
a.