(lp0
VPLAYER TEAM DATE MATCHUP W/L MIN PTS FGM FGA FG% 3PM 3PA 3P% FTM FTA FT% OREB DREB REB AST STL BLK TOV PF +/-
p1
aVHarvey Grant WAS 04/30/1997 WAS vs. CHI L 4 0 0 0 - 0 0 - 0 0 - 0 1 1 0 0 0 0 2 -7
p2
aVChris Whitney WAS 04/30/1997 WAS vs. CHI L 8 6 2 3 66.7 2 3 66.7 0 0 - 0 1 1 1 0 0 4 1 -3
p3
aVTim Legler WAS 04/30/1997 WAS vs. CHI L 3 0 0 0 - 0 0 - 0 0 - 0 0 0 0 0 0 0 0 0
p4
aVRod Strickland WAS 04/30/1997 WAS vs. CHI L 39 24 9 18 50.0 1 1 100.0 5 7 71.4 1 2 3 9 2 0 4 3 2
p5
aVChris Webber WAS 04/30/1997 WAS vs. CHI L 42 18 8 10 80.0 0 2 0.0 2 2 100.0 1 7 8 1 1 4 5 6 10
p6
aVGheorghe Muresan WAS 04/30/1997 WAS vs. CHI L 21 2 0 2 0.0 0 0 - 2 2 100.0 1 5 6 0 0 0 3 1 -5
p7
aVJaren Jackson WAS 04/30/1997 WAS vs. CHI L 5 0 0 0 - 0 0 - 0 0 - 0 0 0 0 0 0 1 2 2
p8
aVJuwan Howard WAS 04/30/1997 WAS vs. CHI L 44 17 7 14 50.0 0 0 - 3 3 100.0 4 3 7 3 1 0 2 3 -1
p9
aVCalbert Cheaney WAS 04/30/1997 WAS vs. CHI L 39 8 3 9 33.3 0 0 - 2 4 50.0 2 1 3 2 0 1 0 5 -3
p10
aVTracy Murray WAS 04/30/1997 WAS vs. CHI L 30 20 8 11 72.7 2 3 66.7 2 2 100.0 0 1 1 0 1 1 0 3 0
p11
aVRod Strickland WAS 04/27/1997 WAS @ CHI L 41 16 5 18 27.8 0 1 0.0 6 6 100.0 2 3 5 8 1 0 3 3 -12
p12
aVGheorghe Muresan WAS 04/27/1997 WAS @ CHI L 13 1 0 2 0.0 0 0 - 1 2 50.0 1 2 3 0 0 0 2 3 -1
p13
aVHarvey Grant WAS 04/27/1997 WAS @ CHI L 10 0 0 2 0.0 0 1 0.0 0 0 - 0 1 1 0 0 0 0 2 -6
p14
aVJaren Jackson WAS 04/27/1997 WAS @ CHI L 2 0 0 0 - 0 0 - 0 0 - 0 1 1 1 0 0 0 4 -2
p15
aVJuwan Howard WAS 04/27/1997 WAS @ CHI L 44 18 6 14 42.9 0 0 - 6 6 100.0 4 2 6 0 1 1 0 3 -9
p16
aVChris Whitney WAS 04/27/1997 WAS @ CHI L 6 0 0 0 - 0 0 - 0 0 - 0 1 1 1 0 0 1 0 9
p17
aVChris Webber WAS 04/27/1997 WAS @ CHI L 39 21 8 13 61.5 3 5 60.0 2 6 33.3 5 7 12 6 1 2 6 6 -3
p18
aVTracy Murray WAS 04/27/1997 WAS @ CHI L 31 22 6 14 42.9 0 3 0.0 10 11 90.9 3 2 5 0 1 0 0 3 -5
p19
aVLorenzo Williams WAS 04/27/1997 WAS @ CHI L 1 0 0 0 - 0 0 - 0 0 - 0 0 0 0 0 0 0 0 3
p20
aVCalbert Cheaney WAS 04/27/1997 WAS @ CHI L 41 26 10 18 55.6 0 2 0.0 6 6 100.0 2 3 5 1 2 1 0 0 -7
p21
aVTim Legler WAS 04/27/1997 WAS @ CHI L 5 0 0 0 - 0 0 - 0 0 - 0 1 1 1 0 0 0 2 8
p22
aVChris Whitney WAS 04/25/1997 WAS @ CHI L 4 1 0 2 0.0 0 1 0.0 1 1 100.0 0 0 0 0 0 0 0 0 -2
p23
aVHarvey Grant WAS 04/25/1997 WAS @ CHI L 12 0 0 1 0.0 0 0 - 0 0 - 0 2 2 0 0 2 0 1 -4
p24
aVTracy Murray WAS 04/25/1997 WAS @ CHI L 25 13 3 5 60.0 3 4 75.0 4 4 100.0 0 3 3 2 2 1 0 4 2
p25
aVJuwan Howard WAS 04/25/1997 WAS @ CHI L 39 21 7 15 46.7 0 0 - 7 9 77.8 2 3 5 2 0 1 1 3 -11
p26
aVTim Legler WAS 04/25/1997 WAS @ CHI L 9 1 0 2 0.0 0 1 0.0 1 2 50.0 0 0 0 1 0 0 0 0 1
p27
aVJaren Jackson WAS 04/25/1997 WAS @ CHI L 1 0 0 0 - 0 0 - 0 2 0.0 1 0 1 0 0 0 1 1 -4
p28
aVGheorghe Muresan WAS 04/25/1997 WAS @ CHI L 34 12 4 5 80.0 0 0 - 4 4 100.0 0 9 9 0 0 4 6 2 -13
p29
aVRod Strickland WAS 04/25/1997 WAS @ CHI L 43 19 8 16 50.0 0 0 - 3 6 50.0 2 8 10 8 0 0 4 2 -10
p30
aVLorenzo Williams WAS 04/25/1997 WAS @ CHI L 4 0 0 0 - 0 0 - 0 0 - 0 0 0 0 0 0 0 1 2
p31
aVChris Webber WAS 04/25/1997 WAS @ CHI L 24 8 3 7 42.9 2 4 50.0 0 0 - 1 3 4 3 0 1 5 6 -8
p32
aVCalbert Cheaney WAS 04/25/1997 WAS @ CHI L 39 11 5 14 35.7 0 0 - 1 2 50.0 2 1 3 1 1 0 5 5 -13
p33
a.