(lp0
VPLAYER TEAM DATE MATCHUP W/L MIN PTS FGM FGA FG% 3PM 3PA 3P% FTM FTA FT% OREB DREB REB AST STL BLK TOV PF +/-
p1
aVRick Mahorn DET 05/04/1997 DET @ ATL L 14 0 0 2 0.0 0 0 - 0 0 - 1 0 1 0 0 0 0 4 4
p2
aVAaron McKie DET 05/04/1997 DET @ ATL L 10 0 0 5 0.0 0 2 0.0 0 0 - 0 2 2 1 0 0 1 3 -5
p3
aVJoe Dumars DET 05/04/1997 DET @ ATL L 42 16 6 11 54.5 1 5 20.0 3 3 100.0 2 0 2 3 0 0 1 2 -6
p4
aVTerry Mills DET 05/04/1997 DET @ ATL L 40 13 5 13 38.5 3 9 33.3 0 0 - 0 8 8 1 1 0 0 3 2
p5
aVLindsey Hunter DET 05/04/1997 DET @ ATL L 45 17 7 17 41.2 2 8 25.0 1 1 100.0 3 6 9 0 2 0 0 3 -3
p6
aVGrant Long DET 05/04/1997 DET @ ATL L 6 2 1 2 50.0 0 0 - 0 0 - 0 0 0 0 0 0 0 1 -8
p7
aVGrant Hill DET 05/04/1997 DET @ ATL L 45 21 9 24 37.5 0 0 - 3 6 50.0 3 5 8 6 3 0 3 2 -3
p8
aVOtis Thorpe DET 05/04/1997 DET @ ATL L 32 10 4 7 57.1 0 0 - 2 2 100.0 3 2 5 0 0 0 2 4 -6
p9
aVTheo Ratliff DET 05/02/1997 DET vs. ATL L 8 5 2 3 66.7 0 0 - 1 2 50.0 1 2 3 1 0 4 3 1 1
p10
aVOtis Thorpe DET 05/02/1997 DET vs. ATL L 30 2 1 3 33.3 0 0 - 0 0 - 2 4 6 0 0 0 0 5 -20
p11
aVGrant Hill DET 05/02/1997 DET vs. ATL L 34 28 11 22 50.0 0 0 - 6 8 75.0 1 2 3 3 0 0 1 3 -11
p12
aVMichael Curry DET 05/02/1997 DET vs. ATL L 6 2 1 2 50.0 0 0 - 0 1 0.0 0 1 1 0 0 0 0 1 8
p13
aVAaron McKie DET 05/02/1997 DET vs. ATL L 23 2 1 4 25.0 0 1 0.0 0 0 - 0 1 1 3 2 0 2 2 -3
p14
aVJerome Williams DET 05/02/1997 DET vs. ATL L 5 4 2 2 100.0 0 0 - 0 0 - 0 3 3 0 1 0 1 0 6
p15
aVTerry Mills DET 05/02/1997 DET vs. ATL L 36 11 5 10 50.0 1 3 33.3 0 0 - 0 10 10 2 1 0 3 2 -13
p16
aVLindsey Hunter DET 05/02/1997 DET vs. ATL L 39 10 3 13 23.1 1 5 20.0 3 4 75.0 1 1 2 1 0 0 0 0 -20
p17
aVGrant Long DET 05/02/1997 DET vs. ATL L 13 0 0 2 0.0 0 0 - 0 2 0.0 2 2 4 0 0 0 0 4 0
p18
aVJoe Dumars DET 05/02/1997 DET vs. ATL L 37 14 3 13 23.1 2 5 40.0 6 6 100.0 0 1 1 3 0 0 0 1 -12
p19
aVDon Reid DET 05/02/1997 DET vs. ATL L 3 4 0 0 - 0 0 - 4 4 100.0 0 1 1 0 0 0 0 0 4
p20
aVJoe Dumars DET 04/29/1997 DET vs. ATL W 44 10 1 8 12.5 1 3 33.3 7 7 100.0 0 1 1 3 3 0 1 2 13
p21
aVTerry Mills DET 04/29/1997 DET vs. ATL W 41 17 7 14 50.0 3 6 50.0 0 0 - 1 6 7 2 0 0 0 2 7
p22
aVLindsey Hunter DET 04/29/1997 DET vs. ATL W 43 26 11 17 64.7 4 5 80.0 0 0 - 0 5 5 3 1 1 1 2 9
p23
aVGrant Long DET 04/29/1997 DET vs. ATL W 21 2 1 3 33.3 0 0 - 0 0 - 0 0 0 1 1 0 0 2 11
p24
aVGrant Hill DET 04/29/1997 DET vs. ATL W 43 24 10 19 52.6 0 0 - 4 7 57.1 1 3 4 8 1 2 4 4 5
p25
aVOtis Thorpe DET 04/29/1997 DET vs. ATL W 31 16 7 9 77.8 0 0 - 2 3 66.7 1 2 3 0 0 0 2 4 -4
p26
aVAaron McKie DET 04/29/1997 DET vs. ATL W 13 2 1 3 33.3 0 0 - 0 0 - 0 1 1 1 1 0 0 3 -1
p27
aVTheo Ratliff DET 04/29/1997 DET vs. ATL W 0 2 1 1 100.0 0 0 - 0 0 - 0 0 0 0 0 0 0 0 0
p28
aVOtis Thorpe DET 04/27/1997 DET @ ATL W 22 12 5 9 55.6 0 0 - 2 2 100.0 2 6 8 2 1 0 2 3 0
p29
aVGrant Hill DET 04/27/1997 DET @ ATL W 37 25 7 19 36.8 0 0 - 11 13 84.6 2 3 5 3 0 2 7 5 6
p30
aVGrant Long DET 04/27/1997 DET @ ATL W 32 17 4 7 57.1 0 1 0.0 9 9 100.0 2 4 6 2 2 0 0 2 11
p31
aVAaron McKie DET 04/27/1997 DET @ ATL W 25 7 3 5 60.0 1 1 100.0 0 0 - 1 2 3 2 1 1 0 2 18
p32
aVLindsey Hunter DET 04/27/1997 DET @ ATL W 39 13 5 10 50.0 3 5 60.0 0 0 - 0 2 2 1 3 0 0 1 6
p33
aVTerry Mills DET 04/27/1997 DET @ ATL W 40 7 3 8 37.5 1 5 20.0 0 0 - 2 4 6 1 3 0 0 4 8
p34
aVJoe Dumars DET 04/27/1997 DET @ ATL W 43 12 5 13 38.5 1 4 25.0 1 1 100.0 0 4 4 0 1 0 4 3 16
p35
aVTerry Mills DET 04/25/1997 DET @ ATL L 36 11 4 10 40.0 1 3 33.3 2 4 50.0 1 3 4 1 1 0 1 3 -2
p36
aVGrant Hill DET 04/25/1997 DET @ ATL L 42 20 8 19 42.1 0 0 - 4 5 80.0 6 8 14 7 0 1 4 0 -12
p37
aVLindsey Hunter DET 04/25/1997 DET @ ATL L 33 9 3 9 33.3 2 6 33.3 1 2 50.0 0 0 0 1 0 0 0 3 -20
p38
aVMichael Curry DET 04/25/1997 DET @ ATL L 1 0 0 0 - 0 0 - 0 0 - 0 0 0 0 0 0 0 0 -2
p39
aVGrant Long DET 04/25/1997 DET @ ATL L 13 4 2 4 50.0 0 1 0.0 0 0 - 0 1 1 0 1 0 0 2 -2
p40
aVTheo Ratliff DET 04/25/1997 DET @ ATL L 8 1 0 0 - 0 0 - 1 2 50.0 1 0 1 0 1 0 0 4 -5
p41
aVOtis Thorpe DET 04/25/1997 DET @ ATL L 33 9 4 13 30.8 0 0 - 1 2 50.0 4 6 10 2 1 0 3 5 -11
p42
aVAaron McKie DET 04/25/1997 DET @ ATL L 22 4 2 3 66.7 0 1 0.0 0 0 - 0 3 3 3 2 1 0 2 2
p43
aVJoe Dumars DET 04/25/1997 DET @ ATL L 44 17 7 16 43.8 1 6 16.7 2 3 66.7 0 1 1 1 1 0 0 1 -11
p44
aVRick Mahorn DET 04/25/1997 DET @ ATL L 3 0 0 0 - 0 0 - 0 0 - 0 0 0 0 0 0 0 1 -7
p45
a.