(lp0
VPLAYER TEAM DATE MATCHUP W/L MIN PTS FGM FGA FG% 3PM 3PA 3P% FTM FTA FT% OREB DREB REB AST STL BLK TOV PF +/-
p1
aVRicky Pierce CHH 04/28/1997 CHH vs. NYK W 23 11 5 11 45.5 1 2 50.0 0 0 - 1 4 5 2 1 0 1 3 -11
p2
aVMalik Rose CHH 04/28/1997 CHH vs. NYK W 7 2 1 3 33.3 0 0 - 0 0 - 3 0 3 1 0 0 1 1 -2
p3
aVTony Delk CHH 04/28/1997 CHH vs. NYK W 16 3 1 7 14.3 1 3 33.3 0 0 - 0 0 0 0 1 0 0 4 -8
p4
aVMatt Geiger CHH 04/28/1997 CHH vs. NYK W 3 2 1 1 100.0 0 0 - 0 0 - 1 1 2 0 0 0 1 0 -9
p5
aVGlen Rice CHH 04/28/1997 CHH vs. NYK W 45 22 8 17 47.1 2 6 33.3 4 4 100.0 1 3 4 9 3 0 1 4 0
p6
aVDell Curry CHH 04/28/1997 CHH vs. NYK W 18 9 4 7 57.1 1 1 100.0 0 0 - 0 0 0 3 3 0 0 1 0
p7
aVAnthony Mason CHH 04/28/1997 CHH vs. NYK W 43 14 7 15 46.7 0 0 - 0 2 0.0 3 8 11 2 1 1 1 3 -11
p8
aVVlade Divac CHH 04/28/1997 CHH vs. NYK W 38 13 4 11 36.4 0 0 - 5 7 71.4 2 3 5 4 2 3 1 4 6
p9
aVDonald Royal CHH 04/28/1997 CHH vs. NYK W 4 0 0 1 0.0 0 0 - 0 0 - 0 2 2 0 0 0 0 1 -9
p10
aVMuggsy Bogues CHH 04/28/1997 CHH vs. NYK W 37 19 7 13 53.8 3 4 75.0 2 2 100.0 0 1 1 3 0 0 4 1 -1
p11
aVDell Curry CHH 04/26/1997 CHH @ NYK W 8 1 0 2 0.0 0 0 - 1 1 100.0 0 0 0 0 0 0 1 1 -9
p12
aVRicky Pierce CHH 04/26/1997 CHH @ NYK W 38 10 5 8 62.5 0 2 0.0 0 0 - 0 2 2 1 1 0 1 3 2
p13
aVTony Smith CHH 04/26/1997 CHH @ NYK W 7 1 0 1 0.0 0 1 0.0 1 2 50.0 0 1 1 2 1 0 3 1 4
p14
aVMatt Geiger CHH 04/26/1997 CHH @ NYK W 13 0 0 0 - 0 0 - 0 0 - 1 2 3 1 0 1 1 2 -5
p15
aVGlen Rice CHH 04/26/1997 CHH @ NYK W 48 39 11 23 47.8 2 6 33.3 15 17 88.2 0 5 5 0 1 1 1 4 -7
p16
aVAnthony Mason CHH 04/26/1997 CHH @ NYK W 44 13 4 11 36.4 0 0 - 5 9 55.6 3 9 12 2 0 0 5 1 -6
p17
aVVlade Divac CHH 04/26/1997 CHH @ NYK W 38 14 6 17 35.3 0 2 0.0 2 2 100.0 6 6 12 2 1 2 1 3 -3
p18
aVTony Delk CHH 04/26/1997 CHH @ NYK W 40 15 7 15 46.7 1 5 20.0 0 0 - 3 4 7 2 0 0 2 3 -11
p19
aVTony Delk CHH 04/24/1997 CHH @ NYK L 26 13 5 9 55.6 3 5 60.0 0 0 - 2 1 3 4 1 0 0 3 -8
p20
aVMatt Geiger CHH 04/24/1997 CHH @ NYK L 13 4 1 2 50.0 0 0 - 2 2 100.0 2 1 3 1 2 0 0 3 -21
p21
aVAnthony Mason CHH 04/24/1997 CHH @ NYK L 44 12 5 12 41.7 0 0 - 2 2 100.0 2 11 13 5 0 0 3 2 -4
p22
aVVlade Divac CHH 04/24/1997 CHH @ NYK L 39 27 11 18 61.1 0 1 0.0 5 6 83.3 5 4 9 4 0 1 4 4 2
p23
aVMuggsy Bogues CHH 04/24/1997 CHH @ NYK L 19 13 4 6 66.7 3 3 100.0 2 2 100.0 1 1 2 2 1 0 2 2 3
p24
aVRicky Pierce CHH 04/24/1997 CHH @ NYK L 24 2 1 5 20.0 0 3 0.0 0 0 - 0 1 1 1 0 0 1 2 12
p25
aVGlen Rice CHH 04/24/1997 CHH @ NYK L 42 22 9 17 52.9 2 4 50.0 2 2 100.0 0 2 2 2 0 0 2 3 -3
p26
aVDell Curry CHH 04/24/1997 CHH @ NYK L 23 4 1 8 12.5 0 3 0.0 2 2 100.0 1 0 1 2 1 0 0 3 -22
p27
aVTony Smith CHH 04/24/1997 CHH @ NYK L 1 0 0 0 - 0 0 - 0 0 - 0 0 0 0 0 0 0 0 -5
p28
aVMalik Rose CHH 04/24/1997 CHH @ NYK L 4 2 1 1 100.0 0 0 - 0 0 - 1 1 2 0 0 0 1 1 -4
p29
a.