(lp0
VPLAYER TEAM DATE MATCHUP W/L MIN PTS FGM FGA FG% 3PM 3PA 3P% FTM FTA FT% OREB DREB REB AST STL BLK TOV PF +/-
p1
aVEldridge Recasner ATL 05/13/1997 ATL @ CHI L 10 2 1 2 50.0 0 1 0.0 0 0 - 0 0 0 1 0 0 0 0 -17
p2
aVMookie Blaylock ATL 05/13/1997 ATL @ CHI L 41 20 8 17 47.1 3 8 37.5 1 1 100.0 0 5 5 8 3 0 3 3 -10
p3
aVSteven Smith ATL 05/13/1997 ATL @ CHI L 42 13 5 14 35.7 2 8 25.0 1 2 50.0 1 1 2 6 0 0 3 5 -16
p4
aVTyrone Corbin ATL 05/13/1997 ATL @ CHI L 43 19 8 11 72.7 3 5 60.0 0 0 - 0 3 3 0 0 0 3 4 -8
p5
aVChristian Laettner ATL 05/13/1997 ATL @ CHI L 43 23 6 14 42.9 1 3 33.3 10 12 83.3 0 7 7 2 0 0 5 3 -15
p6
aVAlan Henderson ATL 05/13/1997 ATL @ CHI L 10 4 1 1 100.0 0 0 - 2 2 100.0 1 0 1 0 1 0 0 3 -10
p7
aVDikembe Mutombo ATL 05/13/1997 ATL @ CHI L 47 11 4 8 50.0 0 0 - 3 3 100.0 1 11 12 2 1 2 3 4 -14
p8
aVChristian Laettner ATL 05/11/1997 ATL vs. CHI L 45 21 8 25 32.0 1 4 25.0 4 6 66.7 8 4 12 1 5 1 3 3 -5
p9
aVDarrin Hancock ATL 05/11/1997 ATL vs. CHI L 2 0 0 1 0.0 0 0 - 0 0 - 0 0 0 0 0 0 0 1 -11
p10
aVSteven Smith ATL 05/11/1997 ATL vs. CHI L 39 16 2 13 15.4 2 5 40.0 10 11 90.9 2 2 4 2 1 0 2 5 -12
p11
aVTyrone Corbin ATL 05/11/1997 ATL vs. CHI L 17 0 0 5 0.0 0 1 0.0 0 0 - 2 0 2 1 0 1 1 1 -11
p12
aVEldridge Recasner ATL 05/11/1997 ATL vs. CHI L 16 11 3 7 42.9 2 3 66.7 3 4 75.0 0 2 2 1 0 0 0 2 12
p13
aVAlan Henderson ATL 05/11/1997 ATL vs. CHI L 17 6 2 5 40.0 0 0 - 2 2 100.0 2 2 4 0 0 0 0 5 -8
p14
aVHenry James ATL 05/11/1997 ATL vs. CHI L 17 3 1 3 33.3 1 2 50.0 0 0 - 0 0 0 1 1 0 2 3 -1
p15
aVMookie Blaylock ATL 05/11/1997 ATL vs. CHI L 45 16 7 19 36.8 2 8 25.0 0 0 - 3 4 7 4 0 0 5 0 -6
p16
aVDikembe Mutombo ATL 05/11/1997 ATL vs. CHI L 37 7 2 3 66.7 0 0 - 3 6 50.0 4 6 10 1 0 3 3 4 -3
p17
aVSteven Smith ATL 05/10/1997 ATL vs. CHI L 33 13 3 13 23.1 3 9 33.3 4 5 80.0 2 1 3 0 0 0 1 2 -16
p18
aVDikembe Mutombo ATL 05/10/1997 ATL vs. CHI L 42 16 4 10 40.0 0 0 - 8 11 72.7 7 6 13 2 0 4 3 1 -18
p19
aVHenry James ATL 05/10/1997 ATL vs. CHI L 4 0 0 1 0.0 0 0 - 0 0 - 0 0 0 0 0 0 0 0 -4
p20
aVEldridge Recasner ATL 05/10/1997 ATL vs. CHI L 17 4 1 3 33.3 1 1 100.0 1 1 100.0 0 0 0 1 0 0 2 0 -11
p21
aVJon Barry ATL 05/10/1997 ATL vs. CHI L 1 0 0 0 - 0 0 - 0 0 - 0 0 0 0 0 0 0 0 -4
p22
aVChristian Laettner ATL 05/10/1997 ATL vs. CHI L 33 13 3 11 27.3 0 1 0.0 7 7 100.0 1 5 6 3 0 1 4 4 -8
p23
aVTyrone Corbin ATL 05/10/1997 ATL vs. CHI L 31 9 4 8 50.0 1 4 25.0 0 0 - 2 4 6 0 1 0 0 3 -21
p24
aVAlan Henderson ATL 05/10/1997 ATL vs. CHI L 24 13 5 8 62.5 0 0 - 3 4 75.0 1 4 5 0 0 0 3 5 -5
p25
aVDarrin Hancock ATL 05/10/1997 ATL vs. CHI L 9 2 1 2 50.0 0 1 0.0 0 1 0.0 1 0 1 1 0 0 1 1 2
p26
aVMookie Blaylock ATL 05/10/1997 ATL vs. CHI L 39 10 3 10 30.0 1 6 16.7 3 4 75.0 0 2 2 6 1 0 4 2 -11
p27
aVPriest Lauderdale ATL 05/10/1997 ATL vs. CHI L 3 0 0 0 - 0 0 - 0 0 - 0 0 0 0 0 0 0 0 -4
p28
aVSteven Smith ATL 05/08/1997 ATL @ CHI W 39 27 9 19 47.4 1 4 25.0 8 11 72.7 0 2 2 0 1 0 1 3 8
p29
aVEldridge Recasner ATL 05/08/1997 ATL @ CHI W 10 6 3 5 60.0 0 0 - 0 2 0.0 0 0 0 1 0 0 1 0 2
p30
aVAlan Henderson ATL 05/08/1997 ATL @ CHI W 18 3 1 2 50.0 0 0 - 1 2 50.0 0 5 5 0 0 1 1 4 4
p31
aVDarrin Hancock ATL 05/08/1997 ATL @ CHI W 7 0 0 0 - 0 0 - 0 2 0.0 0 3 3 0 1 1 0 0 5
p32
aVTyrone Corbin ATL 05/08/1997 ATL @ CHI W 36 4 1 4 25.0 0 0 - 2 2 100.0 1 3 4 1 0 0 0 2 -5
p33
aVChristian Laettner ATL 05/08/1997 ATL @ CHI W 39 18 6 16 37.5 0 1 0.0 6 9 66.7 0 5 5 1 0 0 2 4 8
p34
aVHenry James ATL 05/08/1997 ATL @ CHI W 2 0 0 1 0.0 0 1 0.0 0 0 - 0 0 0 0 0 0 0 1 0
p35
aVMookie Blaylock ATL 05/08/1997 ATL @ CHI W 46 26 9 13 69.2 8 9 88.9 0 0 - 0 7 7 9 3 0 5 1 10
p36
aVDikembe Mutombo ATL 05/08/1997 ATL @ CHI W 39 19 8 11 72.7 0 0 - 3 6 50.0 6 9 15 1 0 2 2 3 8
p37
aVAlan Henderson ATL 05/06/1997 ATL @ CHI L 18 13 4 8 50.0 0 0 - 5 6 83.3 3 4 7 0 0 0 0 3 7
p38
aVDikembe Mutombo ATL 05/06/1997 ATL @ CHI L 37 10 3 7 42.9 0 0 - 4 6 66.7 2 7 9 2 0 2 1 4 -8
p39
aVSteven Smith ATL 05/06/1997 ATL @ CHI L 41 19 4 13 30.8 1 3 33.3 10 11 90.9 1 1 2 0 0 0 3 4 -3
p40
aVEldridge Recasner ATL 05/06/1997 ATL @ CHI L 8 2 1 1 100.0 0 0 - 0 0 - 0 0 0 0 0 0 0 1 -2
p41
aVTyrone Corbin ATL 05/06/1997 ATL @ CHI L 37 14 6 12 50.0 2 5 40.0 0 0 - 2 4 6 2 1 0 2 2 -4
p42
aVDarrin Hancock ATL 05/06/1997 ATL @ CHI L 5 0 0 0 - 0 0 - 0 0 - 0 0 0 0 0 0 0 3 0
p43
aVMookie Blaylock ATL 05/06/1997 ATL @ CHI L 45 31 11 25 44.0 5 15 33.3 4 5 80.0 2 10 12 5 2 0 3 2 -1
p44
aVHenry James ATL 05/06/1997 ATL @ CHI L 5 2 1 4 25.0 0 0 - 0 0 - 1 0 1 0 0 0 0 1 -1
p45
aVChristian Laettner ATL 05/06/1997 ATL @ CHI L 38 6 3 7 42.9 0 1 0.0 0 0 - 3 3 6 6 1 2 3 3 -3
p46
aVAlan Henderson ATL 05/04/1997 ATL vs. DET W 6 2 0 1 0.0 0 0 - 2 2 100.0 1 1 2 0 0 0 0 0 -4
p47
aVMookie Blaylock ATL 05/04/1997 ATL vs. DET W 44 15 5 17 29.4 3 12 25.0 2 4 50.0 2 7 9 5 5 1 3 0 7
p48
aVTyrone Corbin ATL 05/04/1997 ATL vs. DET W 40 11 5 10 50.0 1 1 100.0 0 0 - 1 5 6 5 0 0 0 5 4
p49
aVSteven Smith ATL 05/04/1997 ATL vs. DET W 44 13 2 9 22.2 1 7 14.3 8 9 88.9 1 6 7 3 0 1 3 5 9
p50
aVDikembe Mutombo ATL 05/04/1997 ATL vs. DET W 44 17 7 11 63.6 0 0 - 3 8 37.5 2 7 9 2 0 6 1 3 8
p51
aVChristian Laettner ATL 05/04/1997 ATL vs. DET W 44 23 9 17 52.9 1 2 50.0 4 4 100.0 2 6 8 2 0 2 4 1 4
p52
aVEldridge Recasner ATL 05/04/1997 ATL vs. DET W 15 3 1 2 50.0 0 1 0.0 1 1 100.0 0 2 2 0 0 0 1 1 -3
p53
aVDikembe Mutombo ATL 05/02/1997 ATL @ DET W 40 16 5 6 83.3 0 0 - 6 6 100.0 4 8 12 0 0 1 2 2 16
p54
aVEldridge Recasner ATL 05/02/1997 ATL @ DET W 10 3 1 3 33.3 1 3 33.3 0 0 - 1 0 1 1 1 0 0 3 -7
p55
aVHenry James ATL 05/02/1997 ATL @ DET W 2 3 1 2 50.0 1 2 50.0 0 0 - 0 0 0 0 0 0 0 1 -6
p56
aVAlan Henderson ATL 05/02/1997 ATL @ DET W 16 9 3 3 100.0 0 0 - 3 6 50.0 1 4 5 0 0 1 1 3 16
p57
aVDarrin Hancock ATL 05/02/1997 ATL @ DET W 4 2 1 1 100.0 0 0 - 0 0 - 0 0 0 0 0 0 0 0 2
p58
aVMookie Blaylock ATL 05/02/1997 ATL @ DET W 43 10 5 14 35.7 0 6 0.0 0 0 - 0 10 10 9 1 0 4 2 19
p59
aVTyrone Corbin ATL 05/02/1997 ATL @ DET W 36 12 5 10 50.0 1 3 33.3 1 1 100.0 0 0 0 3 1 0 1 3 17
p60
aVSteven Smith ATL 05/02/1997 ATL @ DET W 41 28 7 12 58.3 5 6 83.3 9 10 90.0 2 5 7 3 1 0 4 3 13
p61
aVJon Barry ATL 05/02/1997 ATL @ DET W 6 0 0 3 0.0 0 3 0.0 0 0 - 0 0 0 0 0 0 0 0 -8
p62
aVPriest Lauderdale ATL 05/02/1997 ATL @ DET W 2 0 0 2 0.0 0 0 - 0 0 - 1 1 2 0 0 0 3 1 -6
p63
aVChristian Laettner ATL 05/02/1997 ATL @ DET W 34 11 5 19 26.3 0 3 0.0 1 2 50.0 3 9 12 2 0 0 1 2 4
p64
aVIvano Newbill ATL 05/02/1997 ATL @ DET W 1 0 0 0 - 0 0 - 0 0 - 0 1 1 1 0 0 0 1 0
p65
aVChristian Laettner ATL 04/29/1997 ATL @ DET L 44 25 9 18 50.0 1 4 25.0 6 6 100.0 1 7 8 3 3 2 2 3 -6
p66
aVEldridge Recasner ATL 04/29/1997 ATL @ DET L 6 0 0 0 - 0 0 - 0 0 - 0 0 0 1 0 0 1 1 -3
p67
aVTyrone Corbin ATL 04/29/1997 ATL @ DET L 43 12 5 12 41.7 0 4 0.0 2 2 100.0 2 0 2 1 1 1 5 5 -6
p68
aVDikembe Mutombo ATL 04/29/1997 ATL @ DET L 44 15 6 7 85.7 0 0 - 3 4 75.0 3 18 21 1 0 2 3 3 1
p69
aVAlan Henderson ATL 04/29/1997 ATL @ DET L 3 2 1 2 50.0 0 0 - 0 0 - 0 1 1 0 0 0 0 0 -2
p70
aVMookie Blaylock ATL 04/29/1997 ATL @ DET L 45 16 5 13 38.5 3 10 30.0 3 5 60.0 2 2 4 10 1 1 1 1 -12
p71
aVSteven Smith ATL 04/29/1997 ATL @ DET L 44 21 7 14 50.0 1 5 20.0 6 8 75.0 1 4 5 0 0 0 5 4 -2
p72
aVHenry James ATL 04/29/1997 ATL @ DET L 4 0 0 0 - 0 0 - 0 0 - 0 0 0 1 0 0 1 2 -2
p73
aVIvano Newbill ATL 04/29/1997 ATL @ DET L 2 0 0 0 - 0 0 - 0 0 - 0 0 0 0 0 0 1 1 -8
p74
aVChristian Laettner ATL 04/27/1997 ATL vs. DET L 42 18 8 13 61.5 0 1 0.0 2 2 100.0 0 4 4 2 1 0 6 5 -2
p75
aVMookie Blaylock ATL 04/27/1997 ATL vs. DET L 44 7 3 12 25.0 1 6 16.7 0 0 - 2 7 9 7 4 0 2 2 -8
p76
aVDikembe Mutombo ATL 04/27/1997 ATL vs. DET L 36 17 5 9 55.6 0 0 - 7 8 87.5 3 4 7 1 0 3 1 3 -9
p77
aVIvano Newbill ATL 04/27/1997 ATL vs. DET L 1 0 0 0 - 0 0 - 0 0 - 0 0 0 0 0 0 0 0 0
p78
aVTyrone Corbin ATL 04/27/1997 ATL vs. DET L 40 14 5 11 45.5 4 10 40.0 0 0 - 2 3 5 6 0 0 1 2 -6
p79
aVHenry James ATL 04/27/1997 ATL vs. DET L 3 0 0 1 0.0 0 0 - 0 0 - 0 0 0 0 0 0 0 2 -7
p80
aVEldridge Recasner ATL 04/27/1997 ATL vs. DET L 14 0 0 3 0.0 0 2 0.0 0 0 - 1 1 2 1 1 0 2 0 -10
p81
aVSteven Smith ATL 04/27/1997 ATL vs. DET L 46 22 10 19 52.6 1 4 25.0 1 3 33.3 2 4 6 1 1 0 5 4 -14
p82
aVPriest Lauderdale ATL 04/27/1997 ATL vs. DET L 0 0 0 1 0.0 0 0 - 0 0 - 0 0 0 0 0 0 0 0 0
p83
aVAlan Henderson ATL 04/27/1997 ATL vs. DET L 9 2 0 1 0.0 0 0 - 2 2 100.0 1 0 1 0 0 1 1 2 -9
p84
aVSteven Smith ATL 04/25/1997 ATL vs. DET W 46 17 6 13 46.2 1 4 25.0 4 4 100.0 0 1 1 2 0 0 1 3 13
p85
aVTyrone Corbin ATL 04/25/1997 ATL vs. DET W 39 11 3 9 33.3 1 4 25.0 4 4 100.0 0 9 9 1 0 0 1 2 9
p86
aVMookie Blaylock ATL 04/25/1997 ATL vs. DET W 45 13 5 14 35.7 2 5 40.0 1 2 50.0 1 4 5 2 1 0 5 2 16
p87
aVChristian Laettner ATL 04/25/1997 ATL vs. DET W 35 18 5 13 38.5 0 1 0.0 8 8 100.0 1 3 4 4 0 0 1 4 23
p88
aVDikembe Mutombo ATL 04/25/1997 ATL vs. DET W 43 26 10 14 71.4 0 0 - 6 6 100.0 5 10 15 1 0 1 1 3 12
p89
aVDarrin Hancock ATL 04/25/1997 ATL vs. DET W 3 0 0 1 0.0 0 0 - 0 0 - 1 0 1 0 0 0 0 0 -2
p90
aVHenry James ATL 04/25/1997 ATL vs. DET W 4 0 0 1 0.0 0 1 0.0 0 0 - 0 0 0 0 0 0 1 2 -2
p91
aVEldridge Recasner ATL 04/25/1997 ATL vs. DET W 10 0 0 0 - 0 0 - 0 0 - 1 3 4 2 0 0 0 1 7
p92
aVAlan Henderson ATL 04/25/1997 ATL vs. DET W 11 4 2 3 66.7 0 0 - 0 0 - 1 1 2 0 0 0 1 1 -6
p93
a.