(lp0
VPLAYER TEAM DATE MATCHUP W/L MIN PTS FGM FGA FG% 3PM 3PA 3P% FTM FTA FT% OREB DREB REB AST STL BLK TOV PF +/-
p1
aVJerome Williams DET 04/20/1997 DET @ IND W 3 2 1 2 50.0 0 0 - 0 0 - 2 0 2 0 1 0 0 1 -4
p2
aVTheo Ratliff DET 04/20/1997 DET @ IND W 22 4 1 4 25.0 0 0 - 2 2 100.0 1 1 2 0 0 3 1 4 10
p3
aVTerry Mills DET 04/20/1997 DET @ IND W 35 24 9 14 64.3 6 11 54.5 0 0 - 0 7 7 0 0 0 3 4 11
p4
aVGrant Hill DET 04/20/1997 DET @ IND W 39 38 12 20 60.0 0 0 - 14 21 66.7 0 7 7 7 1 0 3 3 6
p5
aVLitterial Green DET 04/20/1997 DET @ IND W 0 0 0 0 - 0 0 - 0 0 - 0 0 0 0 0 0 0 1 -4
p6
aVRick Mahorn DET 04/20/1997 DET @ IND W 13 4 2 3 66.7 0 0 - 0 0 - 1 1 2 0 0 0 0 3 -3
p7
aVAaron McKie DET 04/20/1997 DET @ IND W 48 11 4 9 44.4 1 2 50.0 2 2 100.0 2 6 8 7 2 0 1 4 5
p8
aVLindsey Hunter DET 04/20/1997 DET @ IND W 47 30 10 17 58.8 3 3 100.0 7 8 87.5 0 1 1 3 1 0 1 2 5
p9
aVOtis Thorpe DET 04/20/1997 DET @ IND W 34 8 3 9 33.3 0 0 - 2 3 66.7 1 5 6 1 1 1 0 3 -2
p10
aVMichael Curry DET 04/20/1997 DET @ IND W 22 3 0 1 0.0 0 0 - 3 3 100.0 0 1 1 1 0 0 2 0 0
p11
aVDon Reid DET 04/20/1997 DET @ IND W 3 0 0 1 0.0 0 0 - 0 0 - 1 0 1 0 0 0 1 0 -4
p12
aVTerry Mills DET 04/18/1997 DET vs. CLE L 27 14 4 7 57.1 3 3 100.0 3 3 100.0 1 2 3 2 1 0 1 1 7
p13
aVMichael Curry DET 04/18/1997 DET vs. CLE L 20 9 3 6 50.0 0 1 0.0 3 4 75.0 1 2 3 0 0 0 0 5 0
p14
aVGrant Hill DET 04/18/1997 DET vs. CLE L 31 14 4 12 33.3 0 0 - 6 6 100.0 2 4 6 7 2 0 1 0 -4
p15
aVTheo Ratliff DET 04/18/1997 DET vs. CLE L 18 4 2 4 50.0 0 0 - 0 0 - 0 0 0 1 0 1 3 1 -11
p16
aVGrant Long DET 04/18/1997 DET vs. CLE L 12 2 1 2 50.0 0 1 0.0 0 0 - 2 1 3 0 0 0 1 2 2
p17
aVLitterial Green DET 04/18/1997 DET vs. CLE L 14 7 1 2 50.0 0 0 - 5 6 83.3 0 0 0 1 1 0 1 2 2
p18
aVAaron McKie DET 04/18/1997 DET vs. CLE L 27 4 2 7 28.6 0 2 0.0 0 0 - 0 3 3 1 2 0 4 5 -14
p19
aVLindsey Hunter DET 04/18/1997 DET vs. CLE L 34 6 3 9 33.3 0 3 0.0 0 0 - 0 3 3 1 0 0 3 3 -9
p20
aVOtis Thorpe DET 04/18/1997 DET vs. CLE L 32 11 4 6 66.7 0 0 - 3 4 75.0 1 4 5 1 2 0 5 1 -11
p21
aVJerome Williams DET 04/18/1997 DET vs. CLE L 18 4 1 3 33.3 0 0 - 2 2 100.0 1 4 5 0 0 0 1 0 4
p22
aVDon Reid DET 04/18/1997 DET vs. CLE L 7 0 0 1 0.0 0 0 - 0 0 - 0 3 3 0 0 0 0 1 -1
p23
aVMichael Curry DET 04/16/1997 DET vs. MIL W 21 2 1 4 25.0 0 1 0.0 0 0 - 1 0 1 0 0 0 0 1 7
p24
aVLindsey Hunter DET 04/16/1997 DET vs. MIL W 45 17 7 21 33.3 0 3 0.0 3 4 75.0 1 2 3 4 4 0 3 2 5
p25
aVTheo Ratliff DET 04/16/1997 DET vs. MIL W 41 25 7 13 53.8 0 0 - 11 12 91.7 7 5 12 1 1 5 1 3 4
p26
aVJoe Dumars DET 04/16/1997 DET vs. MIL W 36 9 3 10 30.0 1 2 50.0 2 2 100.0 1 3 4 3 2 0 3 1 7
p27
aVAaron McKie DET 04/16/1997 DET vs. MIL W 42 18 7 14 50.0 0 2 0.0 4 5 80.0 3 9 12 8 1 1 2 2 6
p28
aVLitterial Green DET 04/16/1997 DET vs. MIL W 0 0 0 1 0.0 0 1 0.0 0 0 - 0 0 0 0 0 0 0 0 -2
p29
aVOtis Thorpe DET 04/16/1997 DET vs. MIL W 36 19 9 15 60.0 0 0 - 1 2 50.0 3 6 9 2 1 0 3 4 8
p30
aVJerome Williams DET 04/16/1997 DET vs. MIL W 14 2 1 5 20.0 0 0 - 0 0 - 2 2 4 1 3 0 1 0 1
p31
aVGrant Long DET 04/16/1997 DET vs. MIL W 5 0 0 0 - 0 0 - 0 0 - 0 0 0 1 0 0 0 2 -1
p32
aVTheo Ratliff DET 04/14/1997 DET @ ORL L 24 14 6 7 85.7 0 0 - 2 5 40.0 1 0 1 0 0 0 1 6 0
p33
aVJoe Dumars DET 04/14/1997 DET @ ORL L 32 10 4 9 44.4 2 6 33.3 0 0 - 0 2 2 1 0 0 2 2 -9
p34
aVOtis Thorpe DET 04/14/1997 DET @ ORL L 43 12 6 11 54.5 0 0 - 0 0 - 6 5 11 4 2 0 3 4 -16
p35
aVDon Reid DET 04/14/1997 DET @ ORL L 9 2 1 1 100.0 0 0 - 0 0 - 0 2 2 0 0 0 1 2 -1
p36
aVJerome Williams DET 04/14/1997 DET @ ORL L 13 2 1 3 33.3 0 0 - 0 0 - 1 1 2 0 0 1 0 2 1
p37
aVLindsey Hunter DET 04/14/1997 DET @ ORL L 36 17 7 18 38.9 2 8 25.0 1 2 50.0 1 2 3 2 1 1 2 3 0
p38
aVGrant Hill DET 04/14/1997 DET @ ORL L 43 12 5 10 50.0 0 0 - 2 4 50.0 3 12 15 13 0 2 8 4 -12
p39
aVGrant Long DET 04/14/1997 DET @ ORL L 4 4 2 2 100.0 0 0 - 0 0 - 1 0 1 0 0 0 0 0 -2
p40
aVMichael Curry DET 04/14/1997 DET @ ORL L 5 2 1 3 33.3 0 1 0.0 0 0 - 0 0 0 0 0 0 0 0 2
p41
aVAaron McKie DET 04/14/1997 DET @ ORL L 31 16 7 13 53.8 2 4 50.0 0 0 - 0 2 2 3 2 0 1 3 -8
p42
aVOtis Thorpe DET 04/13/1997 DET vs. CHI W 30 14 6 13 46.2 0 0 - 2 2 100.0 2 5 7 0 2 0 2 5 11
p43
aVDon Reid DET 04/13/1997 DET vs. CHI W 1 0 0 1 0.0 0 0 - 0 0 - 0 0 0 0 0 0 0 0 0
p44
aVJerome Williams DET 04/13/1997 DET vs. CHI W 1 0 0 0 - 0 0 - 0 0 - 1 1 2 0 0 0 1 0 0
p45
aVMichael Curry DET 04/13/1997 DET vs. CHI W 14 4 2 3 66.7 0 0 - 0 1 0.0 0 1 1 1 0 0 0 0 -3
p46
aVTerry Mills DET 04/13/1997 DET vs. CHI W 39 29 11 16 68.8 5 9 55.6 2 2 100.0 0 9 9 1 0 0 1 4 25
p47
aVJoe Dumars DET 04/13/1997 DET vs. CHI W 41 10 3 10 30.0 3 7 42.9 1 1 100.0 0 2 2 9 1 0 0 1 19
p48
aVAaron McKie DET 04/13/1997 DET vs. CHI W 9 6 3 5 60.0 0 0 - 0 0 - 3 1 4 0 1 0 1 2 -2
p49
aVTheo Ratliff DET 04/13/1997 DET vs. CHI W 21 8 4 6 66.7 0 0 - 0 0 - 2 0 2 0 0 3 0 4 3
p50
aVLitterial Green DET 04/13/1997 DET vs. CHI W 1 0 0 0 - 0 0 - 0 0 - 0 0 0 0 0 0 0 0 0
p51
aVLindsey Hunter DET 04/13/1997 DET vs. CHI W 39 10 4 10 40.0 0 3 0.0 2 2 100.0 0 2 2 2 2 0 0 2 13
p52
aVGrant Hill DET 04/13/1997 DET vs. CHI W 43 27 11 23 47.8 0 1 0.0 5 6 83.3 4 8 12 10 1 0 2 3 19
p53
aVGrant Long DET 04/11/1997 DET vs. CHH L 6 0 0 0 - 0 0 - 0 0 - 0 0 0 0 0 0 0 0 -14
p54
aVMichael Curry DET 04/11/1997 DET vs. CHH L 6 2 1 2 50.0 0 0 - 0 0 - 0 0 0 0 0 0 0 2 2
p55
aVGrant Hill DET 04/11/1997 DET vs. CHH L 46 20 7 13 53.8 0 0 - 6 9 66.7 2 12 14 10 4 0 4 3 -8
p56
aVOtis Thorpe DET 04/11/1997 DET vs. CHH L 36 11 5 6 83.3 0 0 - 1 2 50.0 2 6 8 2 1 0 1 4 10
p57
aVAaron McKie DET 04/11/1997 DET vs. CHH L 14 7 3 3 100.0 0 0 - 1 2 50.0 1 0 1 0 0 0 0 2 -1
p58
aVLindsey Hunter DET 04/11/1997 DET vs. CHH L 36 9 4 11 36.4 1 4 25.0 0 0 - 0 1 1 0 1 0 0 3 -8
p59
aVTheo Ratliff DET 04/11/1997 DET vs. CHH L 20 7 3 5 60.0 0 0 - 1 2 50.0 0 0 0 1 0 0 2 3 -8
p60
aVTerry Mills DET 04/11/1997 DET vs. CHH L 30 8 3 11 27.3 2 8 25.0 0 0 - 0 3 3 1 0 1 0 1 -4
p61
aVJoe Dumars DET 04/11/1997 DET vs. CHH L 46 21 8 19 42.1 3 7 42.9 2 2 100.0 0 3 3 3 0 0 1 2 -9
p62
aVJerome Williams DET 04/10/1997 DET @ MIA L 9 2 1 1 100.0 0 0 - 0 0 - 0 1 1 0 0 0 1 2 -8
p63
aVAaron McKie DET 04/10/1997 DET @ MIA L 11 0 0 1 0.0 0 0 - 0 0 - 1 1 2 0 0 0 1 1 -3
p64
aVTheo Ratliff DET 04/10/1997 DET @ MIA L 12 4 2 4 50.0 0 0 - 0 0 - 1 1 2 1 0 3 1 4 -7
p65
aVLitterial Green DET 04/10/1997 DET @ MIA L 2 0 0 1 0.0 0 0 - 0 0 - 0 0 0 0 0 0 0 0 -1
p66
aVTerry Mills DET 04/10/1997 DET @ MIA L 32 24 11 19 57.9 2 6 33.3 0 0 - 3 3 6 1 1 0 0 2 -6
p67
aVMichael Curry DET 04/10/1997 DET @ MIA L 24 6 1 3 33.3 0 1 0.0 4 4 100.0 0 2 2 0 2 0 0 1 -3
p68
aVJoe Dumars DET 04/10/1997 DET @ MIA L 28 0 0 3 0.0 0 2 0.0 0 0 - 0 2 2 1 0 0 1 0 3
p69
aVLindsey Hunter DET 04/10/1997 DET @ MIA L 39 10 3 10 30.0 0 2 0.0 4 4 100.0 1 4 5 1 2 1 0 1 -18
p70
aVGrant Long DET 04/10/1997 DET @ MIA L 4 0 0 2 0.0 0 0 - 0 0 - 0 0 0 0 0 0 0 0 7
p71
aVOtis Thorpe DET 04/10/1997 DET @ MIA L 38 16 7 14 50.0 0 0 - 2 3 66.7 4 2 6 4 0 0 2 4 -5
p72
aVGrant Hill DET 04/10/1997 DET @ MIA L 42 21 7 13 53.8 0 0 - 7 12 58.3 1 8 9 8 2 0 4 2 -9
p73
aVOtis Thorpe DET 04/07/1997 DET vs. MIA L 43 23 11 18 61.1 0 1 0.0 1 1 100.0 4 10 14 3 1 0 2 5 2
p74
aVAaron McKie DET 04/07/1997 DET vs. MIA L 12 0 0 1 0.0 0 0 - 0 0 - 0 1 1 0 0 0 1 1 4
p75
aVMichael Curry DET 04/07/1997 DET vs. MIA L 9 2 1 1 100.0 0 0 - 0 0 - 0 1 1 0 0 0 1 3 6
p76
aVGrant Hill DET 04/07/1997 DET vs. MIA L 40 21 5 15 33.3 0 0 - 11 18 61.1 0 5 5 7 1 1 5 4 -18
p77
aVLindsey Hunter DET 04/07/1997 DET vs. MIA L 42 15 5 11 45.5 4 6 66.7 1 2 50.0 0 1 1 2 3 0 2 3 -6
p78
aVTheo Ratliff DET 04/07/1997 DET vs. MIA L 9 4 1 1 100.0 0 0 - 2 2 100.0 1 0 1 0 1 0 1 4 -1
p79
aVTerry Mills DET 04/07/1997 DET vs. MIA L 28 11 4 10 40.0 2 6 33.3 1 2 50.0 1 4 5 0 0 0 0 4 1
p80
aVJoe Dumars DET 04/07/1997 DET vs. MIA L 41 8 3 10 30.0 0 3 0.0 2 2 100.0 2 1 3 4 2 0 1 3 -9
p81
aVGrant Long DET 04/07/1997 DET vs. MIA L 15 2 1 2 50.0 0 0 - 0 0 - 0 0 0 0 1 1 2 1 -12
p82
aVLitterial Green DET 04/07/1997 DET vs. MIA L 1 2 1 1 100.0 0 0 - 0 0 - 1 0 1 0 0 0 0 0 3
p83
aVJoe Dumars DET 04/04/1997 DET @ ATL L 41 12 4 10 40.0 3 7 42.9 1 1 100.0 0 1 1 4 0 0 0 2 -10
p84
aVLitterial Green DET 04/04/1997 DET @ ATL L 1 0 0 1 0.0 0 0 - 0 0 - 0 0 0 0 0 0 0 0 -1
p85
aVGrant Long DET 04/04/1997 DET @ ATL L 24 10 3 4 75.0 1 2 50.0 3 4 75.0 5 3 8 1 0 0 0 2 4
p86
aVTerry Mills DET 04/04/1997 DET @ ATL L 14 3 1 5 20.0 1 2 50.0 0 0 - 2 2 4 0 0 1 1 4 -6
p87
aVJerome Williams DET 04/04/1997 DET @ ATL L 1 1 0 1 0.0 0 0 - 1 2 50.0 1 0 1 0 1 0 0 0 -1
p88
aVMichael Curry DET 04/04/1997 DET @ ATL L 3 0 0 0 - 0 0 - 0 0 - 0 0 0 0 0 0 0 2 -2
p89
aVGrant Hill DET 04/04/1997 DET @ ATL L 43 22 9 17 52.9 0 0 - 4 6 66.7 2 10 12 12 3 2 1 1 -13
p90
aVAaron McKie DET 04/04/1997 DET @ ATL L 22 6 3 9 33.3 0 2 0.0 0 0 - 1 2 3 0 0 0 2 1 -3
p91
aVTheo Ratliff DET 04/04/1997 DET @ ATL L 24 10 4 7 57.1 0 0 - 2 3 66.7 2 3 5 0 0 5 1 5 -6
p92
aVOtis Thorpe DET 04/04/1997 DET @ ATL L 33 19 6 9 66.7 0 0 - 7 8 87.5 2 1 3 2 1 0 3 4 -17
p93
aVLindsey Hunter DET 04/04/1997 DET @ ATL L 33 6 2 11 18.2 1 6 16.7 1 2 50.0 1 1 2 2 1 1 1 3 -15
p94
aVOtis Thorpe DET 04/02/1997 DET @ SAS W 42 17 6 11 54.5 0 0 - 5 9 55.6 4 4 8 1 1 0 0 3 3
p95
aVTheo Ratliff DET 04/02/1997 DET @ SAS W 20 7 3 6 50.0 0 0 - 1 1 100.0 2 1 3 0 0 1 0 2 -6
p96
aVGrant Long DET 04/02/1997 DET @ SAS W 7 2 1 4 25.0 0 0 - 0 0 - 0 0 0 0 0 0 0 0 4
p97
aVAaron McKie DET 04/02/1997 DET @ SAS W 14 6 3 4 75.0 0 0 - 0 0 - 2 1 3 0 0 0 0 1 2
p98
aVTerry Mills DET 04/02/1997 DET @ SAS W 25 10 3 9 33.3 2 7 28.6 2 2 100.0 1 2 3 5 1 0 0 2 18
p99
aVMichael Curry DET 04/02/1997 DET @ SAS W 13 4 2 3 66.7 0 1 0.0 0 0 - 0 1 1 0 0 0 0 0 1
p100
aVJoe Dumars DET 04/02/1997 DET @ SAS W 37 14 5 12 41.7 4 6 66.7 0 0 - 0 1 1 2 0 0 3 0 2
p101
aVLindsey Hunter DET 04/02/1997 DET @ SAS W 38 8 3 6 50.0 1 3 33.3 1 2 50.0 0 3 3 1 1 0 2 0 4
p102
aVGrant Hill DET 04/02/1997 DET @ SAS W 43 31 13 22 59.1 0 0 - 5 7 71.4 0 11 11 10 2 0 0 3 7
p103
aVLitterial Green DET 04/01/1997 DET @ DAL W 1 0 0 0 - 0 0 - 0 0 - 0 0 0 0 0 0 0 0 -1
p104
aVJoe Dumars DET 04/01/1997 DET @ DAL W 41 18 6 11 54.5 3 7 42.9 3 3 100.0 0 0 0 4 0 0 2 0 17
p105
aVLindsey Hunter DET 04/01/1997 DET @ DAL W 36 11 4 7 57.1 3 6 50.0 0 0 - 1 3 4 4 0 0 0 4 15
p106
aVTerry Mills DET 04/01/1997 DET @ DAL W 16 8 3 10 30.0 0 4 0.0 2 3 66.7 1 1 2 0 0 1 3 4 -2
p107
aVTheo Ratliff DET 04/01/1997 DET @ DAL W 30 11 4 7 57.1 0 0 - 3 4 75.0 4 2 6 0 0 1 1 6 13
p108
aVAaron McKie DET 04/01/1997 DET @ DAL W 13 3 0 2 0.0 0 0 - 3 4 75.0 0 2 2 0 0 0 0 1 5
p109
aVMichael Curry DET 04/01/1997 DET @ DAL W 17 4 2 4 50.0 0 0 - 0 0 - 0 4 4 2 0 0 0 2 5
p110
aVOtis Thorpe DET 04/01/1997 DET @ DAL W 38 10 4 10 40.0 0 0 - 2 4 50.0 0 9 9 3 1 0 1 4 22
p111
aVJerome Williams DET 04/01/1997 DET @ DAL W 5 0 0 1 0.0 0 0 - 0 0 - 0 0 0 0 0 0 0 1 0
p112
aVGrant Hill DET 04/01/1997 DET @ DAL W 43 35 12 19 63.2 0 0 - 11 14 78.6 3 15 18 6 2 2 4 2 16
p113
aVTheo Ratliff DET 03/30/1997 DET vs. PHI L 17 2 1 4 25.0 0 0 - 0 0 - 2 1 3 0 0 2 1 3 -12
p114
aVMichael Curry DET 03/30/1997 DET vs. PHI L 7 0 0 1 0.0 0 0 - 0 0 - 0 1 1 1 0 0 0 1 5
p115
aVJoe Dumars DET 03/30/1997 DET vs. PHI L 42 19 7 19 36.8 2 9 22.2 3 3 100.0 2 1 3 3 0 0 2 3 -8
p116
aVLindsey Hunter DET 03/30/1997 DET vs. PHI L 30 5 2 8 25.0 1 4 25.0 0 0 - 0 1 1 4 1 1 3 2 -2
p117
aVOtis Thorpe DET 03/30/1997 DET vs. PHI L 44 24 9 16 56.3 0 0 - 6 10 60.0 5 5 10 1 0 0 1 5 -5
p118
aVGrant Hill DET 03/30/1997 DET vs. PHI L 43 22 7 17 41.2 0 0 - 8 12 66.7 4 12 16 10 1 0 3 5 -13
p119
aVTerry Mills DET 03/30/1997 DET vs. PHI L 24 8 3 9 33.3 2 6 33.3 0 0 - 0 4 4 0 0 0 1 4 2
p120
aVAaron McKie DET 03/30/1997 DET vs. PHI L 22 10 4 6 66.7 0 2 0.0 2 2 100.0 1 5 6 2 3 0 1 1 6
p121
aVJerome Williams DET 03/30/1997 DET vs. PHI L 10 2 1 1 100.0 0 0 - 0 0 - 0 3 3 1 1 0 0 2 7
p122
aVTheo Ratliff DET 03/28/1997 DET vs. LAC W 35 12 5 7 71.4 0 0 - 2 2 100.0 1 5 6 0 1 2 1 3 26
p123
aVJoe Dumars DET 03/28/1997 DET vs. LAC W 36 26 9 16 56.3 3 6 50.0 5 5 100.0 1 2 3 8 1 0 0 3 30
p124
aVMichael Curry DET 03/28/1997 DET vs. LAC W 9 2 1 3 33.3 0 0 - 0 0 - 0 1 1 2 0 0 1 0 -4
p125
aVJerome Williams DET 03/28/1997 DET vs. LAC W 13 9 4 4 100.0 0 0 - 1 2 50.0 3 2 5 0 0 0 2 0 7
p126
aVLindsey Hunter DET 03/28/1997 DET vs. LAC W 33 25 8 13 61.5 5 8 62.5 4 4 100.0 0 2 2 4 5 0 3 4 17
p127
aVDon Reid DET 03/28/1997 DET vs. LAC W 1 0 0 2 0.0 0 0 - 0 0 - 0 0 0 0 0 0 0 0 -2
p128
aVGrant Hill DET 03/28/1997 DET vs. LAC W 36 21 9 11 81.8 0 0 - 3 5 60.0 1 9 10 6 1 1 3 3 30
p129
aVAaron McKie DET 03/28/1997 DET vs. LAC W 19 4 2 3 66.7 0 0 - 0 0 - 0 4 4 1 0 0 3 3 9
p130
aVGrant Long DET 03/28/1997 DET vs. LAC W 7 0 0 1 0.0 0 1 0.0 0 0 - 0 1 1 0 1 0 1 1 -1
p131
aVLitterial Green DET 03/28/1997 DET vs. LAC W 12 0 0 2 0.0 0 1 0.0 0 0 - 0 1 1 1 0 0 0 1 2
p132
aVOtis Thorpe DET 03/28/1997 DET vs. LAC W 40 14 5 10 50.0 0 0 - 4 7 57.1 2 7 9 1 1 0 1 4 26
p133
aVJoe Dumars DET 03/26/1997 DET @ NYK L 37 9 2 8 25.0 0 2 0.0 5 7 71.4 1 2 3 6 0 0 1 1 -23
p134
aVMichael Curry DET 03/26/1997 DET @ NYK L 14 6 3 6 50.0 0 1 0.0 0 0 - 1 1 2 0 0 0 0 2 -2
p135
aVOtis Thorpe DET 03/26/1997 DET @ NYK L 29 13 5 14 35.7 0 0 - 3 5 60.0 1 6 7 0 0 1 2 6 -21
p136
aVDon Reid DET 03/26/1997 DET @ NYK L 9 1 0 1 0.0 0 0 - 1 2 50.0 0 0 0 0 0 0 0 5 -12
p137
aVTheo Ratliff DET 03/26/1997 DET @ NYK L 19 8 3 6 50.0 0 0 - 2 2 100.0 4 2 6 0 0 0 0 4 1
p138
aVGrant Long DET 03/26/1997 DET @ NYK L 20 2 1 2 50.0 0 0 - 0 0 - 0 1 1 0 0 0 0 2 -2
p139
aVTerry Mills DET 03/26/1997 DET @ NYK L 20 12 4 10 40.0 2 5 40.0 2 2 100.0 1 2 3 0 0 0 2 2 4
p140
aVLindsey Hunter DET 03/26/1997 DET @ NYK L 43 19 5 13 38.5 1 4 25.0 8 9 88.9 3 3 6 0 1 0 1 3 -13
p141
aVLitterial Green DET 03/26/1997 DET @ NYK L 4 3 1 1 100.0 0 0 - 1 2 50.0 0 1 1 0 0 0 0 0 6
p142
aVAaron McKie DET 03/26/1997 DET @ NYK L 12 0 0 0 - 0 0 - 0 0 - 0 2 2 3 0 0 0 0 8
p143
aVGrant Hill DET 03/26/1997 DET @ NYK L 30 18 8 18 44.4 0 0 - 2 4 50.0 0 9 9 1 1 0 4 3 -7
p144
aVJerome Williams DET 03/26/1997 DET @ NYK L 4 3 1 3 33.3 0 0 - 1 2 50.0 1 1 2 0 1 0 0 1 6
p145
aVOtis Thorpe DET 03/22/1997 DET @ CHI L 26 14 5 11 45.5 0 0 - 4 7 57.1 2 4 6 0 1 0 2 4 2
p146
aVMichael Curry DET 03/22/1997 DET @ CHI L 11 2 1 3 33.3 0 0 - 0 0 - 0 1 1 0 0 0 0 1 1
p147
aVLindsey Hunter DET 03/22/1997 DET @ CHI L 30 13 4 11 36.4 1 4 25.0 4 4 100.0 1 1 2 0 4 1 1 2 -9
p148
aVTerry Mills DET 03/22/1997 DET @ CHI L 14 3 0 5 0.0 0 3 0.0 3 4 75.0 0 0 0 1 0 0 0 0 -24
p149
aVJoe Dumars DET 03/22/1997 DET @ CHI L 35 13 4 10 40.0 2 5 40.0 3 3 100.0 0 0 0 1 2 0 2 1 -19
p150
aVLitterial Green DET 03/22/1997 DET @ CHI L 7 2 1 1 100.0 0 0 - 0 3 0.0 0 1 1 0 0 0 0 0 3
p151
aVGrant Long DET 03/22/1997 DET @ CHI L 9 8 2 4 50.0 0 0 - 4 5 80.0 0 0 0 0 1 0 0 0 5
p152
aVAaron McKie DET 03/22/1997 DET @ CHI L 20 5 2 2 100.0 1 1 100.0 0 0 - 0 2 2 4 0 0 0 2 -1
p153
aVTheo Ratliff DET 03/22/1997 DET @ CHI L 6 0 0 3 0.0 0 0 - 0 0 - 0 2 2 0 0 0 0 1 2
p154
aVDon Reid DET 03/22/1997 DET @ CHI L 29 10 4 8 50.0 0 1 0.0 2 2 100.0 3 5 8 0 1 1 0 5 -15
p155
aVGrant Hill DET 03/22/1997 DET @ CHI L 37 16 5 14 35.7 0 0 - 6 11 54.5 1 5 6 8 1 0 2 1 -16
p156
aVJerome Williams DET 03/22/1997 DET @ CHI L 16 2 1 4 25.0 0 0 - 0 0 - 2 3 5 1 1 0 2 1 -4
p157
aVTheo Ratliff DET 03/21/1997 DET vs. MIN W 1 0 0 0 - 0 0 - 0 0 - 0 0 0 0 0 0 0 0 4
p158
aVLitterial Green DET 03/21/1997 DET vs. MIN W 0 2 1 1 100.0 0 0 - 0 0 - 0 0 0 0 0 0 0 0 2
p159
aVGrant Hill DET 03/21/1997 DET vs. MIN W 40 22 7 13 53.8 0 0 - 8 11 72.7 1 10 11 10 2 0 3 3 10
p160
aVMichael Curry DET 03/21/1997 DET vs. MIN W 12 2 1 3 33.3 0 1 0.0 0 0 - 0 0 0 1 0 0 1 2 6
p161
aVDon Reid DET 03/21/1997 DET vs. MIN W 29 14 5 7 71.4 0 0 - 4 4 100.0 4 6 10 1 1 0 0 5 11
p162
aVAaron McKie DET 03/21/1997 DET vs. MIN W 20 16 5 9 55.6 2 4 50.0 4 6 66.7 1 0 1 1 2 0 0 1 15
p163
aVJoe Dumars DET 03/21/1997 DET vs. MIN W 39 18 7 15 46.7 4 7 57.1 0 0 - 0 0 0 5 0 0 0 2 4
p164
aVOtis Thorpe DET 03/21/1997 DET vs. MIN W 38 20 7 11 63.6 0 0 - 6 10 60.0 2 6 8 4 3 0 2 5 6
p165
aVJerome Williams DET 03/21/1997 DET vs. MIN W 0 0 0 0 - 0 0 - 0 0 - 0 0 0 0 0 0 0 0 2
p166
aVLindsey Hunter DET 03/21/1997 DET vs. MIN W 34 10 3 9 33.3 2 5 40.0 2 2 100.0 0 4 4 2 0 0 0 2 5
p167
aVTerry Mills DET 03/21/1997 DET vs. MIN W 27 8 3 11 27.3 2 6 33.3 0 0 - 0 6 6 5 1 2 1 3 5
p168
aVDon Reid DET 03/19/1997 DET vs. TOR L 12 8 3 3 100.0 0 0 - 2 4 50.0 1 3 4 1 2 1 0 0 -4
p169
aVLindsey Hunter DET 03/19/1997 DET vs. TOR L 42 15 6 11 54.5 3 7 42.9 0 0 - 0 1 1 2 1 0 2 4 0
p170
aVGrant Hill DET 03/19/1997 DET vs. TOR L 40 17 7 14 50.0 1 2 50.0 2 6 33.3 0 5 5 8 2 0 4 5 1
p171
aVMichael Curry DET 03/19/1997 DET vs. TOR L 9 2 1 2 50.0 0 1 0.0 0 0 - 0 1 1 0 0 1 0 1 -7
p172
aVJoe Dumars DET 03/19/1997 DET vs. TOR L 38 8 1 6 16.7 1 5 20.0 5 5 100.0 1 0 1 8 0 0 1 0 6
p173
aVAaron McKie DET 03/19/1997 DET vs. TOR L 15 4 2 2 100.0 0 0 - 0 0 - 0 1 1 2 1 0 1 0 -6
p174
aVTheo Ratliff DET 03/19/1997 DET vs. TOR L 9 2 1 3 33.3 0 0 - 0 0 - 0 1 1 0 0 0 0 2 -8
p175
aVGrant Long DET 03/19/1997 DET vs. TOR L 4 0 0 1 0.0 0 1 0.0 0 0 - 0 1 1 0 0 0 3 2 -4
p176
aVOtis Thorpe DET 03/19/1997 DET vs. TOR L 44 21 7 12 58.3 0 0 - 7 9 77.8 0 6 6 1 1 0 2 3 2
p177
aVTerry Mills DET 03/19/1997 DET vs. TOR L 27 20 6 11 54.5 2 4 50.0 6 6 100.0 2 3 5 1 0 0 1 2 10
p178
aVMichael Curry DET 03/17/1997 DET @ CLE L 22 5 2 4 50.0 1 3 33.3 0 1 0.0 0 2 2 0 0 0 1 1 -10
p179
aVLindsey Hunter DET 03/17/1997 DET @ CLE L 35 16 5 10 50.0 5 7 71.4 1 2 50.0 2 0 2 4 1 0 0 3 -1
p180
aVAaron McKie DET 03/17/1997 DET @ CLE L 8 0 0 1 0.0 0 0 - 0 0 - 1 0 1 0 2 0 1 0 -5
p181
aVOtis Thorpe DET 03/17/1997 DET @ CLE L 39 20 3 7 42.9 0 0 - 14 17 82.4 1 1 2 3 2 1 2 6 11
p182
aVJoe Dumars DET 03/17/1997 DET @ CLE L 35 11 3 6 50.0 2 4 50.0 3 5 60.0 0 1 1 5 0 0 1 1 -2
p183
aVGrant Hill DET 03/17/1997 DET @ CLE L 42 19 8 17 47.1 0 1 0.0 3 6 50.0 1 10 11 7 4 0 4 3 1
p184
aVTheo Ratliff DET 03/17/1997 DET @ CLE L 18 4 2 4 50.0 0 0 - 0 0 - 2 2 4 0 2 0 1 4 11
p185
aVGrant Long DET 03/17/1997 DET @ CLE L 12 2 1 3 33.3 0 0 - 0 0 - 0 0 0 0 1 0 1 1 -9
p186
aVLitterial Green DET 03/17/1997 DET @ CLE L 3 0 0 0 - 0 0 - 0 0 - 0 0 0 0 0 0 0 1 1
p187
aVTerry Mills DET 03/17/1997 DET @ CLE L 25 5 1 8 12.5 1 4 25.0 2 4 50.0 0 5 5 0 0 1 2 2 -12
p188
aVMichael Curry DET 03/16/1997 DET vs. SEA W 5 7 1 2 50.0 1 2 50.0 4 4 100.0 2 1 3 0 0 0 0 2 -1
p189
aVLindsey Hunter DET 03/16/1997 DET vs. SEA W 34 6 2 14 14.3 0 4 0.0 2 4 50.0 1 0 1 2 1 1 1 0 6
p190
aVGrant Long DET 03/16/1997 DET vs. SEA W 4 0 0 1 0.0 0 0 - 0 0 - 0 0 0 1 0 0 0 1 1
p191
aVGrant Hill DET 03/16/1997 DET vs. SEA W 36 11 3 9 33.3 0 0 - 5 7 71.4 2 9 11 5 3 2 2 4 -8
p192
aVOtis Thorpe DET 03/16/1997 DET vs. SEA W 36 10 4 10 40.0 0 0 - 2 3 66.7 2 6 8 2 0 0 2 3 -8
p193
aVTheo Ratliff DET 03/16/1997 DET vs. SEA W 15 0 0 1 0.0 0 0 - 0 0 - 1 1 2 0 0 1 1 4 -10
p194
aVJoe Dumars DET 03/16/1997 DET vs. SEA W 43 21 6 13 46.2 6 10 60.0 3 4 75.0 0 4 4 7 1 0 2 2 0
p195
aVTerry Mills DET 03/16/1997 DET vs. SEA W 37 25 10 17 58.8 4 9 44.4 1 1 100.0 2 2 4 3 0 2 0 4 19
p196
aVAaron McKie DET 03/16/1997 DET vs. SEA W 30 6 2 8 25.0 0 1 0.0 2 2 100.0 1 6 7 0 5 0 1 0 16
p197
aVMichael Curry DET 03/13/1997 DET @ DEN W 21 3 1 3 33.3 1 1 100.0 0 0 - 1 3 4 1 0 2 0 4 8
p198
aVGrant Hill DET 03/13/1997 DET @ DEN W 41 28 13 21 61.9 0 0 - 2 4 50.0 0 14 14 7 4 0 3 1 19
p199
aVTerry Mills DET 03/13/1997 DET @ DEN W 21 2 1 5 20.0 0 4 0.0 0 0 - 0 1 1 3 1 0 0 1 7
p200
aVJoe Dumars DET 03/13/1997 DET @ DEN W 32 19 8 13 61.5 1 2 50.0 2 2 100.0 0 2 2 3 1 0 0 1 15
p201
aVAaron McKie DET 03/13/1997 DET @ DEN W 17 0 0 3 0.0 0 1 0.0 0 0 - 1 2 3 3 0 0 2 1 2
p202
aVDon Reid DET 03/13/1997 DET @ DEN W 2 0 0 1 0.0 0 0 - 0 0 - 0 2 2 0 0 0 0 0 2
p203
aVLindsey Hunter DET 03/13/1997 DET @ DEN W 27 8 3 9 33.3 2 4 50.0 0 0 - 1 2 3 1 1 0 2 1 11
p204
aVLitterial Green DET 03/13/1997 DET @ DEN W 2 0 0 0 - 0 0 - 0 0 - 0 0 0 0 0 0 0 0 1
p205
aVGrant Long DET 03/13/1997 DET @ DEN W 16 10 5 6 83.3 0 0 - 0 0 - 0 1 1 0 1 0 1 5 2
p206
aVOtis Thorpe DET 03/13/1997 DET @ DEN W 35 22 9 12 75.0 0 0 - 4 7 57.1 2 5 7 1 2 0 3 4 22
p207
aVTheo Ratliff DET 03/13/1997 DET @ DEN W 25 8 3 5 60.0 0 0 - 2 2 100.0 2 2 4 2 1 3 0 2 9
p208
aVJerome Williams DET 03/13/1997 DET @ DEN W 2 2 1 2 50.0 0 0 - 0 0 - 2 1 3 0 0 0 0 0 2
p209
aVTerry Mills DET 03/11/1997 DET @ SEA L 21 5 2 6 33.3 1 4 25.0 0 0 - 0 7 7 1 0 0 1 4 0
p210
aVLindsey Hunter DET 03/11/1997 DET @ SEA L 39 16 6 15 40.0 3 9 33.3 1 2 50.0 1 1 2 1 0 0 1 2 -17
p211
aVJoe Dumars DET 03/11/1997 DET @ SEA L 33 13 5 10 50.0 3 6 50.0 0 0 - 0 0 0 2 0 0 5 2 -17
p212
aVJerome Williams DET 03/11/1997 DET @ SEA L 3 2 1 3 33.3 0 0 - 0 0 - 1 1 2 0 0 0 0 1 3
p213
aVDon Reid DET 03/11/1997 DET @ SEA L 1 0 0 0 - 0 0 - 0 0 - 0 1 1 0 0 0 0 0 -1
p214
aVTheo Ratliff DET 03/11/1997 DET @ SEA L 24 2 0 4 0.0 0 0 - 2 2 100.0 0 3 3 0 2 4 0 2 -9
p215
aVGrant Long DET 03/11/1997 DET @ SEA L 19 5 2 4 50.0 1 2 50.0 0 0 - 0 2 2 1 1 1 2 0 4
p216
aVOtis Thorpe DET 03/11/1997 DET @ SEA L 23 7 3 6 50.0 0 0 - 1 1 100.0 4 2 6 2 0 0 4 3 -20
p217
aVLitterial Green DET 03/11/1997 DET @ SEA L 3 2 0 1 0.0 0 0 - 2 2 100.0 0 0 0 2 1 0 0 1 3
p218
aVAaron McKie DET 03/11/1997 DET @ SEA L 22 4 2 5 40.0 0 1 0.0 0 0 - 0 2 2 2 2 1 0 2 1
p219
aVGrant Hill DET 03/11/1997 DET @ SEA L 39 18 6 16 37.5 0 2 0.0 6 8 75.0 0 6 6 8 0 0 2 3 -14
p220
aVMichael Curry DET 03/11/1997 DET @ SEA L 12 6 2 2 100.0 1 1 100.0 1 2 50.0 0 3 3 0 1 0 0 4 2
p221
aVGrant Hill DET 03/08/1997 DET @ LAC W 42 19 7 14 50.0 0 0 - 5 6 83.3 0 10 10 8 1 1 4 2 11
p222
aVLindsey Hunter DET 03/08/1997 DET @ LAC W 30 6 3 10 30.0 0 4 0.0 0 0 - 0 0 0 0 2 1 2 2 -2
p223
aVJoe Dumars DET 03/08/1997 DET @ LAC W 36 23 7 14 50.0 5 8 62.5 4 4 100.0 0 4 4 2 2 0 2 3 14
p224
aVAaron McKie DET 03/08/1997 DET @ LAC W 18 6 2 5 40.0 1 2 50.0 1 2 50.0 0 2 2 0 0 0 1 0 -2
p225
aVGrant Long DET 03/08/1997 DET @ LAC W 18 5 2 2 100.0 0 0 - 1 2 50.0 2 2 4 1 0 0 0 2 8
p226
aVOtis Thorpe DET 03/08/1997 DET @ LAC W 35 15 6 9 66.7 0 0 - 3 7 42.9 2 6 8 3 0 0 2 4 6
p227
aVMichael Curry DET 03/08/1997 DET @ LAC W 19 12 4 5 80.0 1 2 50.0 3 3 100.0 0 1 1 1 0 0 0 2 -7
p228
aVTheo Ratliff DET 03/08/1997 DET @ LAC W 20 2 0 2 0.0 0 0 - 2 2 100.0 1 3 4 1 1 1 1 3 -4
p229
aVTerry Mills DET 03/08/1997 DET @ LAC W 22 3 1 5 20.0 1 3 33.3 0 0 - 0 6 6 0 0 0 1 4 6
p230
aVDon Reid DET 03/07/1997 DET @ UTA L 2 0 0 0 - 0 0 - 0 0 - 0 0 0 0 0 0 0 3 -2
p231
aVLindsey Hunter DET 03/07/1997 DET @ UTA L 40 15 5 14 35.7 5 12 41.7 0 0 - 1 0 1 4 2 0 0 4 -11
p232
aVTheo Ratliff DET 03/07/1997 DET @ UTA L 11 1 0 3 0.0 0 0 - 1 2 50.0 1 2 3 0 1 0 0 2 -8
p233
aVJoe Dumars DET 03/07/1997 DET @ UTA L 40 18 8 15 53.3 1 5 20.0 1 2 50.0 1 0 1 6 0 0 0 1 0
p234
aVAaron McKie DET 03/07/1997 DET @ UTA L 24 7 3 7 42.9 1 1 100.0 0 0 - 0 2 2 0 1 0 2 2 5
p235
aVGrant Hill DET 03/07/1997 DET @ UTA L 40 29 10 21 47.6 0 1 0.0 9 12 75.0 1 4 5 8 1 0 3 2 -15
p236
aVMichael Curry DET 03/07/1997 DET @ UTA L 0 0 0 0 - 0 0 - 0 0 - 0 0 0 0 0 0 0 0 -2
p237
aVGrant Long DET 03/07/1997 DET @ UTA L 20 5 2 3 66.7 0 0 - 1 1 100.0 0 3 3 0 1 0 0 5 1
p238
aVOtis Thorpe DET 03/07/1997 DET @ UTA L 26 0 0 2 0.0 0 0 - 0 0 - 2 7 9 0 0 0 4 4 -6
p239
aVTerry Mills DET 03/07/1997 DET @ UTA L 37 13 5 9 55.6 3 6 50.0 0 0 - 2 4 6 0 2 3 0 4 3
p240
aVTheo Ratliff DET 03/05/1997 DET @ MIN W 27 6 3 9 33.3 0 0 - 0 0 - 1 4 5 0 0 2 0 3 4
p241
aVGrant Long DET 03/05/1997 DET @ MIN W 18 5 2 4 50.0 0 0 - 1 2 50.0 2 4 6 0 0 0 0 1 -7
p242
aVLindsey Hunter DET 03/05/1997 DET @ MIN W 40 21 7 13 53.8 2 5 40.0 5 5 100.0 1 2 3 3 2 1 1 2 7
p243
aVOtis Thorpe DET 03/05/1997 DET @ MIN W 36 14 5 9 55.6 0 0 - 4 6 66.7 2 7 9 1 1 0 0 1 17
p244
aVTerry Mills DET 03/05/1997 DET @ MIN W 15 3 1 4 25.0 1 3 33.3 0 0 - 0 3 3 0 0 1 0 1 -6
p245
aVAaron McKie DET 03/05/1997 DET @ MIN W 21 9 3 8 37.5 1 4 25.0 2 2 100.0 0 4 4 5 0 0 1 0 10
p246
aVMichael Curry DET 03/05/1997 DET @ MIN W 11 2 1 1 100.0 0 0 - 0 0 - 0 1 1 1 0 0 1 0 -1
p247
aVGrant Hill DET 03/05/1997 DET @ MIN W 37 19 7 19 36.8 0 0 - 5 5 100.0 1 7 8 2 4 0 4 4 -7
p248
aVJoe Dumars DET 03/05/1997 DET @ MIN W 35 13 6 13 46.2 1 4 25.0 0 0 - 0 1 1 3 1 0 0 1 3
p249
aVGrant Hill DET 03/04/1997 DET vs. MIA L 38 16 7 12 58.3 0 0 - 2 4 50.0 1 6 7 9 2 0 3 4 -7
p250
aVJoe Dumars DET 03/04/1997 DET vs. MIA L 38 21 7 11 63.6 4 7 57.1 3 4 75.0 0 1 1 3 0 0 5 0 -11
p251
aVAaron McKie DET 03/04/1997 DET vs. MIA L 30 8 2 4 50.0 0 1 0.0 4 4 100.0 1 1 2 3 0 0 1 3 0
p252
aVGrant Long DET 03/04/1997 DET vs. MIA L 14 7 2 5 40.0 0 0 - 3 3 100.0 4 0 4 1 0 0 1 2 3
p253
aVTheo Ratliff DET 03/04/1997 DET vs. MIA L 28 9 4 8 50.0 0 0 - 1 2 50.0 1 3 4 0 2 3 1 1 -11
p254
aVMichael Curry DET 03/04/1997 DET vs. MIA L 1 2 1 1 100.0 0 0 - 0 0 - 0 0 0 0 0 0 0 0 2
p255
aVJerome Williams DET 03/04/1997 DET vs. MIA L 1 0 0 0 - 0 0 - 0 0 - 0 0 0 0 0 0 0 0 2
p256
aVTerry Mills DET 03/04/1997 DET vs. MIA L 13 0 0 1 0.0 0 0 - 0 0 - 0 3 3 1 0 0 0 0 1
p257
aVLindsey Hunter DET 03/04/1997 DET vs. MIA L 45 26 9 17 52.9 3 9 33.3 5 6 83.3 2 2 4 2 2 0 1 2 -15
p258
aVLitterial Green DET 03/04/1997 DET vs. MIA L 1 0 0 0 - 0 0 - 0 0 - 0 0 0 0 0 0 0 0 2
p259
aVOtis Thorpe DET 03/04/1997 DET vs. MIA L 33 10 5 9 55.6 0 0 - 0 5 0.0 3 6 9 2 1 0 1 6 -11
p260
aVOtis Thorpe DET 03/02/1997 DET vs. ATL W 43 11 4 9 44.4 0 0 - 3 4 75.0 6 6 12 0 0 1 0 3 9
p261
aVMichael Curry DET 03/02/1997 DET vs. ATL W 4 0 0 0 - 0 0 - 0 0 - 0 0 0 0 0 0 0 0 -1
p262
aVGrant Hill DET 03/02/1997 DET vs. ATL W 42 23 9 19 47.4 0 0 - 5 7 71.4 1 6 7 10 2 2 3 2 6
p263
aVTerry Mills DET 03/02/1997 DET vs. ATL W 30 3 1 7 14.3 1 7 14.3 0 0 - 2 5 7 1 1 0 0 4 10
p264
aVJoe Dumars DET 03/02/1997 DET vs. ATL W 44 22 7 14 50.0 3 6 50.0 5 5 100.0 0 7 7 4 0 0 3 1 6
p265
aVGrant Long DET 03/02/1997 DET vs. ATL W 6 4 2 4 50.0 0 1 0.0 0 0 - 0 0 0 1 1 0 1 1 1
p266
aVLindsey Hunter DET 03/02/1997 DET vs. ATL W 43 10 5 12 41.7 0 2 0.0 0 0 - 1 1 2 2 0 0 0 2 12
p267
aVTheo Ratliff DET 03/02/1997 DET vs. ATL W 16 7 3 5 60.0 0 0 - 1 1 100.0 0 1 1 0 0 2 1 1 -4
p268
aVAaron McKie DET 03/02/1997 DET vs. ATL W 12 2 1 3 33.3 0 1 0.0 0 0 - 0 1 1 0 2 0 0 1 -4
p269
aVAaron McKie DET 02/28/1997 DET @ BOS W 17 4 1 3 33.3 1 3 33.3 1 2 50.0 0 3 3 2 1 0 1 1 -9
p270
aVGrant Hill DET 02/28/1997 DET @ BOS W 46 29 11 21 52.4 0 2 0.0 7 11 63.6 2 10 12 12 1 2 6 2 7
p271
aVTerry Mills DET 02/28/1997 DET @ BOS W 21 5 2 9 22.2 1 6 16.7 0 0 - 0 4 4 1 1 0 2 0 1
p272
aVJoe Dumars DET 02/28/1997 DET @ BOS W 42 17 3 10 30.0 1 6 16.7 10 10 100.0 1 2 3 4 1 0 1 1 7
p273
aVLindsey Hunter DET 02/28/1997 DET @ BOS W 45 21 8 15 53.3 1 5 20.0 4 5 80.0 1 0 1 1 3 0 4 1 14
p274
aVLitterial Green DET 02/28/1997 DET @ BOS W 4 0 0 0 - 0 0 - 0 0 - 0 0 0 0 0 0 0 0 -7
p275
aVOtis Thorpe DET 02/28/1997 DET @ BOS W 34 14 7 9 77.8 0 0 - 0 0 - 2 8 10 2 1 0 3 6 8
p276
aVTheo Ratliff DET 02/28/1997 DET @ BOS W 38 12 5 6 83.3 0 0 - 2 2 100.0 0 8 8 0 1 3 3 3 23
p277
aVMichael Curry DET 02/28/1997 DET @ BOS W 11 2 1 2 50.0 0 1 0.0 0 0 - 0 0 0 0 0 0 0 2 -5
p278
aVGrant Long DET 02/28/1997 DET @ BOS W 8 2 1 1 100.0 0 0 - 0 0 - 0 2 2 0 0 0 0 1 -9
p279
aVLitterial Green DET 02/26/1997 DET vs. GSW W 5 4 1 1 100.0 0 0 - 2 2 100.0 0 0 0 0 0 0 0 0 1
p280
aVOtis Thorpe DET 02/26/1997 DET vs. GSW W 19 2 1 2 50.0 0 0 - 0 0 - 0 3 3 1 0 0 0 3 2
p281
aVTerry Mills DET 02/26/1997 DET vs. GSW W 25 21 7 10 70.0 5 8 62.5 2 2 100.0 0 4 4 0 1 0 0 2 28
p282
aVJerome Williams DET 02/26/1997 DET vs. GSW W 4 1 0 3 0.0 0 0 - 1 2 50.0 1 0 1 0 0 0 0 1 3
p283
aVLindsey Hunter DET 02/26/1997 DET vs. GSW W 38 21 9 17 52.9 1 6 16.7 2 2 100.0 0 5 5 1 2 1 1 2 16
p284
aVMichael Curry DET 02/26/1997 DET vs. GSW W 17 6 1 1 100.0 0 0 - 4 4 100.0 0 2 2 0 1 0 0 2 24
p285
aVJoe Dumars DET 02/26/1997 DET vs. GSW W 28 19 8 12 66.7 3 7 42.9 0 0 - 1 1 2 2 2 0 1 0 6
p286
aVDon Reid DET 02/26/1997 DET vs. GSW W 5 2 1 2 50.0 0 0 - 0 0 - 0 2 2 0 0 0 0 1 1
p287
aVAaron McKie DET 02/26/1997 DET vs. GSW W 25 13 4 8 50.0 2 2 100.0 3 3 100.0 0 3 3 4 2 0 2 2 31
p288
aVTheo Ratliff DET 02/26/1997 DET vs. GSW W 24 9 4 8 50.0 0 0 - 1 2 50.0 2 3 5 0 0 4 0 2 11
p289
aVGrant Hill DET 02/26/1997 DET vs. GSW W 32 13 5 11 45.5 0 0 - 3 5 60.0 2 5 7 10 2 1 0 0 21
p290
aVGrant Long DET 02/26/1997 DET vs. GSW W 19 6 3 3 100.0 0 0 - 0 0 - 0 1 1 1 1 0 0 3 21
p291
aVLindsey Hunter DET 02/24/1997 DET @ ORL L 37 10 4 18 22.2 2 9 22.2 0 0 - 0 2 2 1 1 0 2 3 -6
p292
aVJoe Dumars DET 02/24/1997 DET @ ORL L 29 12 5 10 50.0 2 4 50.0 0 0 - 2 1 3 4 0 0 2 3 -4
p293
aVTheo Ratliff DET 02/24/1997 DET @ ORL L 26 17 8 10 80.0 0 0 - 1 3 33.3 4 3 7 0 2 1 3 4 15
p294
aVGrant Hill DET 02/24/1997 DET @ ORL L 40 14 5 11 45.5 0 0 - 4 7 57.1 1 7 8 6 1 0 2 0 -4
p295
aVTerry Mills DET 02/24/1997 DET @ ORL L 18 3 1 7 14.3 1 3 33.3 0 2 0.0 1 2 3 1 0 0 3 1 -21
p296
aVGrant Long DET 02/24/1997 DET @ ORL L 15 4 2 6 33.3 0 0 - 0 0 - 2 2 4 0 1 0 0 0 -4
p297
aVMichael Curry DET 02/24/1997 DET @ ORL L 13 4 1 4 25.0 1 2 50.0 1 2 50.0 1 1 2 1 0 0 2 4 -15
p298
aVOtis Thorpe DET 02/24/1997 DET @ ORL L 32 7 3 7 42.9 0 0 - 1 2 50.0 4 3 7 3 2 1 3 4 -5
p299
aVAaron McKie DET 02/24/1997 DET @ ORL L 28 13 3 3 100.0 3 3 100.0 4 4 100.0 0 6 6 2 1 0 1 2 -1
p300
aVTheo Ratliff DET 02/23/1997 DET @ WAS W 7 2 1 2 50.0 0 0 - 0 0 - 0 0 0 0 0 1 1 2 -4
p301
aVGrant Hill DET 02/23/1997 DET @ WAS W 38 13 5 13 38.5 0 1 0.0 3 6 50.0 1 5 6 5 2 0 5 2 -6
p302
aVGrant Long DET 02/23/1997 DET @ WAS W 10 6 1 2 50.0 0 0 - 4 4 100.0 1 0 1 0 0 0 0 0 4
p303
aVOtis Thorpe DET 02/23/1997 DET @ WAS W 39 7 3 11 27.3 0 0 - 1 2 50.0 3 4 7 1 0 0 2 4 6
p304
aVMichael Curry DET 02/23/1997 DET @ WAS W 9 2 1 1 100.0 0 0 - 0 0 - 0 0 0 0 0 0 0 0 -3
p305
aVTerry Mills DET 02/23/1997 DET @ WAS W 35 14 5 11 45.5 4 7 57.1 0 0 - 0 14 14 3 0 2 1 1 12
p306
aVJoe Dumars DET 02/23/1997 DET @ WAS W 40 14 5 12 41.7 2 4 50.0 2 3 66.7 0 3 3 5 4 0 1 2 1
p307
aVLindsey Hunter DET 02/23/1997 DET @ WAS W 39 11 5 12 41.7 0 4 0.0 1 1 100.0 0 2 2 3 0 0 0 3 1
p308
aVAaron McKie DET 02/23/1997 DET @ WAS W 24 16 5 7 71.4 1 1 100.0 5 6 83.3 0 6 6 1 0 1 1 3 19
p309
aVTheo Ratliff DET 02/21/1997 DET vs. NJN W 25 13 6 8 75.0 0 0 - 1 2 50.0 1 4 5 0 0 5 1 4 9
p310
aVDon Reid DET 02/21/1997 DET vs. NJN W 2 0 0 0 - 0 0 - 0 0 - 0 0 0 1 0 0 1 2 -5
p311
aVJerome Williams DET 02/21/1997 DET vs. NJN W 2 2 1 1 100.0 0 0 - 0 0 - 0 0 0 1 0 0 1 1 -5
p312
aVTerry Mills DET 02/21/1997 DET vs. NJN W 18 5 2 9 22.2 1 6 16.7 0 0 - 0 1 1 2 1 1 0 3 2
p313
aVLitterial Green DET 02/21/1997 DET vs. NJN W 2 2 0 0 - 0 0 - 2 2 100.0 0 0 0 0 0 0 1 1 -5
p314
aVAaron McKie DET 02/21/1997 DET vs. NJN W 24 2 1 5 20.0 0 1 0.0 0 0 - 0 3 3 2 0 1 0 1 2
p315
aVGrant Long DET 02/21/1997 DET vs. NJN W 16 8 4 6 66.7 0 1 0.0 0 0 - 1 2 3 0 1 0 0 2 6
p316
aVGrant Hill DET 02/21/1997 DET vs. NJN W 42 19 9 14 64.3 0 0 - 1 2 50.0 0 9 9 13 1 0 4 0 19
p317
aVOtis Thorpe DET 02/21/1997 DET vs. NJN W 35 15 4 8 50.0 0 0 - 7 8 87.5 2 6 8 4 2 0 0 3 16
p318
aVJoe Dumars DET 02/21/1997 DET vs. NJN W 29 15 5 12 41.7 3 7 42.9 2 2 100.0 1 3 4 3 1 0 2 0 12
p319
aVLindsey Hunter DET 02/21/1997 DET vs. NJN W 31 16 5 10 50.0 4 7 57.1 2 2 100.0 0 4 4 0 2 0 0 3 9
p320
aVMichael Curry DET 02/21/1997 DET vs. NJN W 15 1 0 0 - 0 0 - 1 1 100.0 0 0 0 1 2 0 1 2 10
p321
aVJerome Williams DET 02/19/1997 DET vs. WAS W 2 0 0 1 0.0 0 0 - 0 0 - 1 0 1 0 0 0 0 0 -5
p322
aVJoe Dumars DET 02/19/1997 DET vs. WAS W 41 19 5 13 38.5 3 8 37.5 6 6 100.0 0 1 1 7 0 0 2 1 18
p323
aVLindsey Hunter DET 02/19/1997 DET vs. WAS W 36 25 8 14 57.1 4 7 57.1 5 8 62.5 0 2 2 1 2 2 0 2 3
p324
aVDon Reid DET 02/19/1997 DET vs. WAS W 13 2 1 2 50.0 0 0 - 0 0 - 2 1 3 1 0 0 0 3 8
p325
aVMichael Curry DET 02/19/1997 DET vs. WAS W 20 0 0 4 0.0 0 1 0.0 0 0 - 0 2 2 0 1 1 0 1 5
p326
aVTerry Mills DET 02/19/1997 DET vs. WAS W 37 15 6 12 50.0 1 4 25.0 2 2 100.0 2 7 9 0 0 0 1 0 17
p327
aVGrant Hill DET 02/19/1997 DET vs. WAS W 40 24 10 16 62.5 0 0 - 4 8 50.0 2 6 8 7 2 0 2 3 17
p328
aVLitterial Green DET 02/19/1997 DET vs. WAS W 2 1 0 0 - 0 0 - 1 2 50.0 0 0 0 0 0 0 0 0 -5
p329
aVGrant Long DET 02/19/1997 DET vs. WAS W 27 9 2 4 50.0 1 2 50.0 4 6 66.7 0 3 3 1 1 0 0 2 19
p330
aVAaron McKie DET 02/19/1997 DET vs. WAS W 5 2 1 1 100.0 0 0 - 0 0 - 0 0 0 1 0 0 0 0 9
p331
aVTheo Ratliff DET 02/19/1997 DET vs. WAS W 17 3 1 4 25.0 0 0 - 1 2 50.0 3 3 6 0 0 2 2 3 -11
p332
aVDon Reid DET 02/16/1997 DET @ TOR W 7 0 0 0 - 0 0 - 0 0 - 0 0 0 0 0 1 0 1 -12
p333
aVLindsey Hunter DET 02/16/1997 DET @ TOR W 41 19 7 14 50.0 3 8 37.5 2 3 66.7 0 1 1 0 1 1 2 3 5
p334
aVGrant Hill DET 02/16/1997 DET @ TOR W 47 23 7 11 63.6 0 0 - 9 12 75.0 3 15 18 5 1 0 4 1 5
p335
aVJoe Dumars DET 02/16/1997 DET @ TOR W 41 15 4 12 33.3 3 6 50.0 4 6 66.7 0 2 2 7 0 0 1 1 -9
p336
aVAaron McKie DET 02/16/1997 DET @ TOR W 21 2 0 5 0.0 0 2 0.0 2 2 100.0 1 3 4 2 2 0 6 2 4
p337
aVTerry Mills DET 02/16/1997 DET @ TOR W 33 14 6 12 50.0 0 6 0.0 2 3 66.7 1 3 4 3 0 0 0 0 20
p338
aVTheo Ratliff DET 02/16/1997 DET @ TOR W 22 8 4 6 66.7 0 0 - 0 0 - 4 1 5 0 2 1 1 4 -19
p339
aVMichael Curry DET 02/16/1997 DET @ TOR W 29 11 3 5 60.0 0 1 0.0 5 5 100.0 2 1 3 1 0 2 0 5 21
p340
aVAaron McKie DET 02/14/1997 DET @ CHH W 24 7 3 5 60.0 1 1 100.0 0 0 - 0 1 1 4 4 0 1 3 11
p341
aVDon Reid DET 02/14/1997 DET @ CHH W 31 13 6 9 66.7 0 0 - 1 1 100.0 3 1 4 1 0 0 1 4 5
p342
aVJoe Dumars DET 02/14/1997 DET @ CHH W 39 20 4 12 33.3 3 6 50.0 9 12 75.0 0 1 1 6 1 0 3 1 7
p343
aVTheo Ratliff DET 02/14/1997 DET @ CHH W 32 4 2 4 50.0 0 0 - 0 0 - 1 3 4 1 0 2 0 4 6
p344
aVLindsey Hunter DET 02/14/1997 DET @ CHH W 37 20 7 17 41.2 4 8 50.0 2 4 50.0 1 5 6 1 2 0 1 2 11
p345
aVTerry Mills DET 02/14/1997 DET @ CHH W 28 14 5 9 55.6 4 7 57.1 0 0 - 1 10 11 2 0 0 2 4 -1
p346
aVMichael Curry DET 02/14/1997 DET @ CHH W 10 2 1 2 50.0 0 1 0.0 0 0 - 0 0 0 0 0 0 1 1 -7
p347
aVGrant Hill DET 02/14/1997 DET @ CHH W 38 29 8 16 50.0 0 0 - 13 19 68.4 1 4 5 5 2 0 1 4 -2
p348
aVMichael Curry DET 02/12/1997 DET vs. ORL W 25 9 1 6 16.7 0 0 - 7 7 100.0 2 0 2 3 2 0 1 2 4
p349
aVTerry Mills DET 02/12/1997 DET vs. ORL W 25 11 4 8 50.0 2 4 50.0 1 1 100.0 0 7 7 1 0 1 2 2 4
p350
aVAaron McKie DET 02/12/1997 DET vs. ORL W 18 6 3 7 42.9 0 1 0.0 0 0 - 3 4 7 1 1 1 0 1 4
p351
aVGrant Hill DET 02/12/1997 DET vs. ORL W 43 31 11 19 57.9 0 1 0.0 9 12 75.0 4 6 10 10 2 0 5 2 10
p352
aVJerome Williams DET 02/12/1997 DET vs. ORL W 3 0 0 1 0.0 0 0 - 0 2 0.0 1 0 1 0 0 0 0 0 -1
p353
aVJoe Dumars DET 02/12/1997 DET vs. ORL W 39 21 8 14 57.1 5 8 62.5 0 0 - 0 4 4 3 0 0 2 0 5
p354
aVTheo Ratliff DET 02/12/1997 DET vs. ORL W 26 11 5 9 55.6 0 0 - 1 2 50.0 4 4 8 0 0 3 0 2 3
p355
aVOtis Thorpe DET 02/12/1997 DET vs. ORL W 12 0 0 1 0.0 0 0 - 0 0 - 1 2 3 0 1 0 1 1 6
p356
aVLindsey Hunter DET 02/12/1997 DET vs. ORL W 36 7 2 6 33.3 2 3 66.7 1 2 50.0 0 0 0 2 3 0 3 4 11
p357
aVDon Reid DET 02/12/1997 DET vs. ORL W 12 0 0 3 0.0 0 0 - 0 0 - 1 2 3 1 2 0 0 2 -1
p358
aVTheo Ratliff DET 02/11/1997 DET @ MIA L 27 9 3 5 60.0 0 0 - 3 4 75.0 0 4 4 0 0 1 2 5 12
p359
aVTerry Mills DET 02/11/1997 DET @ MIA L 28 15 6 10 60.0 3 4 75.0 0 0 - 1 4 5 2 0 0 2 2 -6
p360
aVGrant Hill DET 02/11/1997 DET @ MIA L 34 17 7 18 38.9 0 0 - 3 4 75.0 0 7 7 5 1 0 4 5 -16
p361
aVLitterial Green DET 02/11/1997 DET @ MIA L 3 0 0 0 - 0 0 - 0 2 0.0 0 0 0 2 0 0 0 1 7
p362
aVLindsey Hunter DET 02/11/1997 DET @ MIA L 38 14 6 16 37.5 1 5 20.0 1 1 100.0 2 4 6 2 4 0 1 3 -17
p363
aVJoe Dumars DET 02/11/1997 DET @ MIA L 34 11 4 10 40.0 2 3 66.7 1 2 50.0 0 2 2 5 0 0 1 0 -26
p364
aVDon Reid DET 02/11/1997 DET @ MIA L 16 4 2 6 33.3 0 0 - 0 0 - 2 4 6 0 1 0 1 5 -14
p365
aVAaron McKie DET 02/11/1997 DET @ MIA L 20 2 1 2 50.0 0 0 - 0 0 - 0 0 0 1 0 0 0 0 0
p366
aVJerome Williams DET 02/11/1997 DET @ MIA L 3 2 1 1 100.0 0 0 - 0 0 - 0 1 1 0 0 0 0 1 7
p367
aVOtis Thorpe DET 02/11/1997 DET @ MIA L 26 9 3 7 42.9 0 0 - 3 6 50.0 6 1 7 1 0 0 1 5 -18
p368
aVMichael Curry DET 02/11/1997 DET @ MIA L 12 8 2 4 50.0 0 1 0.0 4 4 100.0 1 1 2 1 1 0 0 0 6
p369
aVDon Reid DET 02/06/1997 DET vs. HOU W 5 0 0 1 0.0 0 0 - 0 0 - 1 0 1 0 0 0 0 1 -11
p370
aVLindsey Hunter DET 02/06/1997 DET vs. HOU W 22 10 4 12 33.3 1 5 20.0 1 2 50.0 0 2 2 3 4 1 0 1 13
p371
aVGrant Hill DET 02/06/1997 DET vs. HOU W 32 16 7 14 50.0 0 1 0.0 2 3 66.7 1 4 5 8 2 1 3 1 16
p372
aVAaron McKie DET 02/06/1997 DET vs. HOU W 26 12 5 12 41.7 0 2 0.0 2 3 66.7 1 2 3 4 1 1 2 5 5
p373
aVJerome Williams DET 02/06/1997 DET vs. HOU W 6 0 0 1 0.0 0 0 - 0 0 - 0 0 0 0 0 0 0 1 -14
p374
aVOtis Thorpe DET 02/06/1997 DET vs. HOU W 32 14 7 10 70.0 0 0 - 0 0 - 4 8 12 2 0 0 2 4 15
p375
aVTerry Mills DET 02/06/1997 DET vs. HOU W 30 16 6 8 75.0 4 4 100.0 0 0 - 2 7 9 0 0 1 1 1 11
p376
aVRandolph Childress DET 02/06/1997 DET vs. HOU W 7 2 1 2 50.0 0 0 - 0 0 - 0 1 1 1 0 0 2 3 -13
p377
aVTheo Ratliff DET 02/06/1997 DET vs. HOU W 27 12 6 9 66.7 0 0 - 0 0 - 0 2 2 0 3 0 2 1 6
p378
aVJoe Dumars DET 02/06/1997 DET vs. HOU W 28 3 1 8 12.5 1 5 20.0 0 0 - 1 1 2 7 0 0 0 1 20
p379
aVMichael Curry DET 02/06/1997 DET vs. HOU W 25 11 4 5 80.0 0 0 - 3 4 75.0 0 5 5 1 0 0 1 1 -3
p380
aVGrant Hill DET 02/02/1997 DET vs. PHX L 40 17 7 14 50.0 0 0 - 3 5 60.0 1 7 8 6 3 1 6 1 -12
p381
aVAaron McKie DET 02/02/1997 DET vs. PHX L 19 0 0 1 0.0 0 0 - 0 0 - 1 0 1 4 2 0 1 3 5
p382
aVOtis Thorpe DET 02/02/1997 DET vs. PHX L 42 27 11 15 73.3 0 0 - 5 8 62.5 4 2 6 3 0 0 4 5 -9
p383
aVTerry Mills DET 02/02/1997 DET vs. PHX L 24 14 5 11 45.5 4 8 50.0 0 0 - 2 0 2 3 0 0 2 2 7
p384
aVRandolph Childress DET 02/02/1997 DET vs. PHX L 5 0 0 0 - 0 0 - 0 0 - 0 0 0 0 1 0 1 1 3
p385
aVTheo Ratliff DET 02/02/1997 DET vs. PHX L 28 14 7 10 70.0 0 0 - 0 2 0.0 0 4 4 1 0 2 1 2 -16
p386
aVLindsey Hunter DET 02/02/1997 DET vs. PHX L 39 11 4 16 25.0 1 9 11.1 2 2 100.0 0 2 2 3 3 0 1 2 -6
p387
aVMichael Curry DET 02/02/1997 DET vs. PHX L 1 0 0 0 - 0 0 - 0 0 - 0 0 0 0 0 0 0 0 -2
p388
aVJoe Dumars DET 02/02/1997 DET vs. PHX L 41 14 5 8 62.5 1 3 33.3 3 3 100.0 0 1 1 7 1 0 2 1 -15
p389
aVTheo Ratliff DET 02/01/1997 DET @ NJN W 34 11 3 7 42.9 0 0 - 5 6 83.3 0 5 5 0 0 4 1 2 15
p390
aVAaron McKie DET 02/01/1997 DET @ NJN W 21 6 2 4 50.0 0 0 - 2 2 100.0 0 3 3 1 0 0 0 2 4
p391
aVJoe Dumars DET 02/01/1997 DET @ NJN W 37 11 4 11 36.4 1 4 25.0 2 2 100.0 1 1 2 1 1 0 0 3 16
p392
aVLindsey Hunter DET 02/01/1997 DET @ NJN W 35 11 4 6 66.7 3 3 100.0 0 0 - 1 3 4 3 2 0 4 0 18
p393
aVGrant Hill DET 02/01/1997 DET @ NJN W 43 22 7 14 50.0 0 0 - 8 8 100.0 0 11 11 11 1 1 1 3 8
p394
aVMichael Curry DET 02/01/1997 DET @ NJN W 10 0 0 3 0.0 0 1 0.0 0 0 - 0 1 1 0 0 0 0 0 1
p395
aVOtis Thorpe DET 02/01/1997 DET @ NJN W 39 23 10 12 83.3 0 0 - 3 7 42.9 1 9 10 0 0 0 1 3 13
p396
aVTerry Mills DET 02/01/1997 DET @ NJN W 22 6 3 7 42.9 0 3 0.0 0 0 - 0 3 3 1 0 1 1 1 0
p397
aVTheo Ratliff DET 01/29/1997 DET vs. POR W 25 9 2 5 40.0 0 0 - 5 6 83.3 4 2 6 1 3 0 2 3 -3
p398
aVOtis Thorpe DET 01/29/1997 DET vs. POR W 40 7 2 4 50.0 0 0 - 3 4 75.0 6 6 12 1 1 1 2 5 -2
p399
aVTerry Mills DET 01/29/1997 DET vs. POR W 30 13 6 16 37.5 1 5 20.0 0 0 - 1 4 5 1 1 0 1 2 23
p400
aVGrant Hill DET 01/29/1997 DET vs. POR W 43 27 9 15 60.0 1 1 100.0 8 10 80.0 1 7 8 3 2 0 8 3 12
p401
aVAaron McKie DET 01/29/1997 DET vs. POR W 14 6 1 2 50.0 0 0 - 4 4 100.0 1 2 3 0 1 0 0 1 10
p402
aVLindsey Hunter DET 01/29/1997 DET vs. POR W 40 14 5 15 33.3 2 8 25.0 2 2 100.0 1 1 2 1 2 0 0 4 0
p403
aVJoe Dumars DET 01/29/1997 DET vs. POR W 42 20 4 10 40.0 1 3 33.3 11 12 91.7 0 2 2 6 0 0 1 2 2
p404
aVMichael Curry DET 01/29/1997 DET vs. POR W 5 2 0 0 - 0 0 - 2 2 100.0 0 1 1 0 0 0 0 0 3
p405
aVJoe Dumars DET 01/28/1997 DET @ MIL W 38 8 3 8 37.5 0 3 0.0 2 2 100.0 1 2 3 8 0 0 3 0 9
p406
aVGrant Hill DET 01/28/1997 DET @ MIL W 39 22 10 20 50.0 0 0 - 2 2 100.0 0 8 8 5 3 1 1 1 6
p407
aVLindsey Hunter DET 01/28/1997 DET @ MIL W 31 17 5 9 55.6 3 6 50.0 4 4 100.0 0 3 3 0 1 0 3 2 8
p408
aVMichael Curry DET 01/28/1997 DET @ MIL W 9 0 0 1 0.0 0 0 - 0 0 - 0 2 2 0 1 0 0 3 -2
p409
aVTheo Ratliff DET 01/28/1997 DET @ MIL W 17 11 5 7 71.4 0 0 - 1 2 50.0 3 2 5 0 0 0 1 5 6
p410
aVTerry Mills DET 01/28/1997 DET @ MIL W 33 12 4 10 40.0 4 9 44.4 0 0 - 0 2 2 0 0 0 0 0 5
p411
aVOtis Thorpe DET 01/28/1997 DET @ MIL W 43 10 3 7 42.9 0 0 - 4 7 57.1 2 7 9 2 2 0 1 4 9
p412
aVAaron McKie DET 01/28/1997 DET @ MIL W 22 13 5 7 71.4 1 1 100.0 2 2 100.0 1 2 3 0 2 0 0 3 1
p413
aVRandolph Childress DET 01/28/1997 DET @ MIL W 8 0 0 2 0.0 0 0 - 0 0 - 0 0 0 0 1 0 1 0 3
p414
aVOtis Thorpe DET 01/25/1997 DET vs. PHI W 24 9 3 8 37.5 0 0 - 3 4 75.0 2 5 7 0 0 0 4 4 8
p415
aVRandolph Childress DET 01/25/1997 DET vs. PHI W 10 8 3 6 50.0 2 3 66.7 0 0 - 0 0 0 1 0 0 1 1 -3
p416
aVMichael Curry DET 01/25/1997 DET vs. PHI W 14 2 1 2 50.0 0 0 - 0 0 - 0 1 1 1 0 0 1 4 -1
p417
aVDon Reid DET 01/25/1997 DET vs. PHI W 0 0 0 0 - 0 0 - 0 0 - 0 0 0 0 0 0 0 0 0
p418
aVLindsey Hunter DET 01/25/1997 DET vs. PHI W 37 17 5 14 35.7 1 5 20.0 6 6 100.0 1 4 5 1 3 1 1 4 11
p419
aVGrant Hill DET 01/25/1997 DET vs. PHI W 45 21 10 22 45.5 0 0 - 1 2 50.0 6 10 16 10 1 2 5 3 9
p420
aVTheo Ratliff DET 01/25/1997 DET vs. PHI W 37 16 7 12 58.3 0 0 - 2 3 66.7 7 3 10 0 0 8 0 5 15
p421
aVJoe Dumars DET 01/25/1997 DET vs. PHI W 33 17 5 11 45.5 4 7 57.1 3 5 60.0 0 1 1 4 0 0 0 0 10
p422
aVTerry Mills DET 01/25/1997 DET vs. PHI W 28 13 5 9 55.6 3 5 60.0 0 0 - 1 5 6 1 1 0 1 2 7
p423
aVAaron McKie DET 01/25/1997 DET vs. PHI W 11 1 0 3 0.0 0 0 - 1 2 50.0 0 1 1 3 0 1 0 1 -11
p424
aVGrant Hill DET 01/23/1997 DET @ GSW W 40 13 6 10 60.0 0 0 - 1 2 50.0 1 5 6 7 3 0 6 2 21
p425
aVTheo Ratliff DET 01/23/1997 DET @ GSW W 32 18 9 12 75.0 0 0 - 0 1 0.0 2 5 7 1 0 1 2 3 8
p426
aVLindsey Hunter DET 01/23/1997 DET @ GSW W 41 19 7 13 53.8 5 8 62.5 0 0 - 2 5 7 4 3 0 0 1 19
p427
aVMichael Curry DET 01/23/1997 DET @ GSW W 17 0 0 3 0.0 0 1 0.0 0 0 - 0 1 1 1 1 1 0 4 -14
p428
aVOtis Thorpe DET 01/23/1997 DET @ GSW W 34 6 3 9 33.3 0 0 - 0 0 - 2 2 4 3 0 0 2 4 13
p429
aVTerry Mills DET 01/23/1997 DET @ GSW W 30 22 7 15 46.7 5 9 55.6 3 3 100.0 3 8 11 3 0 0 1 0 9
p430
aVLitterial Green DET 01/23/1997 DET @ GSW W 3 2 1 1 100.0 0 0 - 0 0 - 0 0 0 0 0 0 0 0 -2
p431
aVJoe Dumars DET 01/23/1997 DET @ GSW W 44 14 6 17 35.3 1 9 11.1 1 1 100.0 1 2 3 8 2 0 2 4 21
p432
aVJerome Williams DET 01/23/1997 DET @ GSW W 0 0 0 0 - 0 0 - 0 0 - 0 1 1 0 0 0 0 0 0
p433
aVTheo Ratliff DET 01/22/1997 DET @ SAC L 18 5 1 3 33.3 0 0 - 3 3 100.0 1 0 1 0 1 3 2 4 -3
p434
aVOtis Thorpe DET 01/22/1997 DET @ SAC L 48 24 8 12 66.7 0 0 - 8 10 80.0 5 8 13 1 1 0 1 5 -5
p435
aVLitterial Green DET 01/22/1997 DET @ SAC L 8 5 2 2 100.0 0 0 - 1 2 50.0 0 0 0 3 0 0 0 1 -2
p436
aVMichael Curry DET 01/22/1997 DET @ SAC L 44 12 4 8 50.0 1 5 20.0 3 3 100.0 0 3 3 2 2 1 1 3 1
p437
aVTerry Mills DET 01/22/1997 DET @ SAC L 30 10 3 9 33.3 2 7 28.6 2 2 100.0 0 3 3 0 1 1 1 1 -2
p438
aVGrant Hill DET 01/22/1997 DET @ SAC L 44 33 12 27 44.4 0 0 - 9 9 100.0 1 9 10 4 3 0 4 3 -9
p439
aVJerome Williams DET 01/22/1997 DET @ SAC L 9 1 0 0 - 0 0 - 1 2 50.0 0 1 1 0 0 0 0 0 -2
p440
aVLindsey Hunter DET 01/22/1997 DET @ SAC L 40 2 1 11 9.1 0 3 0.0 0 0 - 1 2 3 1 0 1 0 3 -3
p441
aVGrant Hill DET 01/20/1997 DET @ PHX L 44 19 7 15 46.7 0 0 - 5 6 83.3 0 7 7 11 3 1 4 3 6
p442
aVGrant Long DET 01/20/1997 DET @ PHX L 9 3 1 1 100.0 1 1 100.0 0 0 - 0 0 0 0 0 0 0 3 -5
p443
aVTheo Ratliff DET 01/20/1997 DET @ PHX L 7 1 0 1 0.0 0 0 - 1 2 50.0 0 1 1 0 0 1 0 1 4
p444
aVTerry Mills DET 01/20/1997 DET @ PHX L 32 10 4 9 44.4 2 6 33.3 0 0 - 1 6 7 1 0 0 3 4 1
p445
aVJoe Dumars DET 01/20/1997 DET @ PHX L 41 18 7 16 43.8 3 6 50.0 1 2 50.0 2 2 4 2 0 0 2 1 -6
p446
aVOtis Thorpe DET 01/20/1997 DET @ PHX L 44 8 3 8 37.5 0 0 - 2 2 100.0 3 10 13 1 2 0 1 4 4
p447
aVLitterial Green DET 01/20/1997 DET @ PHX L 1 0 0 1 0.0 0 1 0.0 0 0 - 0 0 0 0 0 0 0 0 -4
p448
aVLindsey Hunter DET 01/20/1997 DET @ PHX L 44 23 9 20 45.0 5 8 62.5 0 0 - 2 1 3 1 5 0 2 3 -5
p449
aVDon Reid DET 01/20/1997 DET @ PHX L 7 3 1 3 33.3 0 0 - 1 1 100.0 1 2 3 0 0 0 1 3 -4
p450
aVMichael Curry DET 01/20/1997 DET @ PHX L 12 1 0 1 0.0 0 1 0.0 1 1 100.0 0 1 1 0 0 0 0 0 -6
p451
aVGrant Hill DET 01/18/1997 DET @ LAL W 53 34 12 23 52.2 1 1 100.0 9 11 81.8 6 9 15 14 1 0 3 3 7
p452
aVJoe Dumars DET 01/18/1997 DET @ LAL W 48 12 3 11 27.3 1 2 50.0 5 5 100.0 1 3 4 2 0 0 2 1 7
p453
aVGrant Long DET 01/18/1997 DET @ LAL W 16 3 1 3 33.3 0 0 - 1 2 50.0 1 1 2 1 2 1 0 2 4
p454
aVOtis Thorpe DET 01/18/1997 DET @ LAL W 46 22 10 21 47.6 0 0 - 2 5 40.0 5 6 11 4 0 0 1 6 -5
p455
aVMichael Curry DET 01/18/1997 DET @ LAL W 16 0 0 1 0.0 0 0 - 0 0 - 0 1 1 0 0 0 1 2 -8
p456
aVTheo Ratliff DET 01/18/1997 DET @ LAL W 8 2 1 2 50.0 0 0 - 0 0 - 1 0 1 0 0 0 0 0 3
p457
aVDon Reid DET 01/18/1997 DET @ LAL W 14 4 2 4 50.0 0 0 - 0 0 - 1 0 1 0 0 0 0 3 -4
p458
aVLitterial Green DET 01/18/1997 DET @ LAL W 0 0 0 0 - 0 0 - 0 0 - 0 0 0 0 0 0 0 0 0
p459
aVLindsey Hunter DET 01/18/1997 DET @ LAL W 46 14 6 17 35.3 2 10 20.0 0 0 - 3 6 9 2 4 0 3 2 2
p460
aVTerry Mills DET 01/18/1997 DET @ LAL W 44 9 3 10 30.0 1 6 16.7 2 2 100.0 0 8 8 2 0 1 0 5 9
p461
aVLindsey Hunter DET 01/15/1997 DET @ VAN W 31 16 6 11 54.5 2 3 66.7 2 2 100.0 0 4 4 2 2 0 0 2 22
p462
aVTheo Ratliff DET 01/15/1997 DET @ VAN W 6 0 0 1 0.0 0 0 - 0 0 - 0 0 0 0 0 0 0 0 -3
p463
aVJoe Dumars DET 01/15/1997 DET @ VAN W 26 9 4 9 44.4 1 3 33.3 0 0 - 0 1 1 3 1 0 1 1 7
p464
aVOtis Thorpe DET 01/15/1997 DET @ VAN W 25 11 4 7 57.1 0 0 - 3 6 50.0 4 3 7 1 1 0 2 3 25
p465
aVDon Reid DET 01/15/1997 DET @ VAN W 12 0 0 3 0.0 0 0 - 0 0 - 0 1 1 0 0 0 2 4 2
p466
aVGrant Long DET 01/15/1997 DET @ VAN W 25 12 5 9 55.6 0 0 - 2 2 100.0 0 2 2 1 1 2 1 3 3
p467
aVGrant Hill DET 01/15/1997 DET @ VAN W 37 31 11 15 73.3 0 1 0.0 9 13 69.2 0 11 11 9 0 1 2 1 25
p468
aVTerry Mills DET 01/15/1997 DET @ VAN W 31 14 4 9 44.4 4 8 50.0 2 4 50.0 2 4 6 2 1 0 1 1 12
p469
aVLitterial Green DET 01/15/1997 DET @ VAN W 18 6 0 2 0.0 0 1 0.0 6 6 100.0 0 1 1 3 2 0 0 1 0
p470
aVJerome Williams DET 01/15/1997 DET @ VAN W 5 4 2 3 66.7 0 0 - 0 1 0.0 1 1 2 0 0 0 0 0 -5
p471
aVMichael Curry DET 01/15/1997 DET @ VAN W 24 0 0 1 0.0 0 0 - 0 0 - 0 3 3 0 2 1 1 2 22
p472
aVLitterial Green DET 01/14/1997 DET @ POR L 5 2 0 1 0.0 0 1 0.0 2 2 100.0 0 0 0 1 0 0 0 0 7
p473
aVGrant Long DET 01/14/1997 DET @ POR L 15 5 1 3 33.3 0 1 0.0 3 4 75.0 0 3 3 0 0 0 1 0 0
p474
aVMichael Curry DET 01/14/1997 DET @ POR L 11 4 2 4 50.0 0 0 - 0 0 - 0 0 0 1 0 0 0 0 6
p475
aVTerry Mills DET 01/14/1997 DET @ POR L 38 24 8 18 44.4 6 14 42.9 2 2 100.0 1 4 5 0 0 0 0 2 -11
p476
aVDon Reid DET 01/14/1997 DET @ POR L 9 3 1 3 33.3 0 0 - 1 1 100.0 0 3 3 0 1 1 1 1 0
p477
aVOtis Thorpe DET 01/14/1997 DET @ POR L 29 5 2 8 25.0 0 0 - 1 2 50.0 1 1 2 0 1 0 1 4 -17
p478
aVJoe Dumars DET 01/14/1997 DET @ POR L 41 7 2 10 20.0 0 1 0.0 3 3 100.0 3 4 7 6 1 0 1 2 -14
p479
aVTheo Ratliff DET 01/14/1997 DET @ POR L 14 4 2 4 50.0 0 0 - 0 0 - 2 1 3 0 1 2 0 0 7
p480
aVLindsey Hunter DET 01/14/1997 DET @ POR L 43 12 4 12 33.3 2 6 33.3 2 2 100.0 2 1 3 2 3 1 1 4 -16
p481
aVGrant Hill DET 01/14/1997 DET @ POR L 36 20 6 21 28.6 0 0 - 8 10 80.0 2 8 10 9 2 0 3 3 -7
p482
aVGrant Long DET 01/11/1997 DET vs. UTA W 17 2 0 7 0.0 0 1 0.0 2 2 100.0 2 4 6 0 0 0 0 2 3
p483
aVMichael Curry DET 01/11/1997 DET vs. UTA W 22 10 1 4 25.0 0 3 0.0 8 8 100.0 1 1 2 0 1 0 0 0 4
p484
aVLindsey Hunter DET 01/11/1997 DET vs. UTA W 44 19 5 18 27.8 3 11 27.3 6 8 75.0 1 2 3 2 3 1 2 2 15
p485
aVGrant Hill DET 01/11/1997 DET vs. UTA W 42 19 6 9 66.7 0 0 - 7 11 63.6 4 7 11 7 1 0 5 1 11
p486
aVJoe Dumars DET 01/11/1997 DET vs. UTA W 31 8 3 9 33.3 2 2 100.0 0 0 - 1 1 2 3 0 0 1 1 7
p487
aVJerome Williams DET 01/11/1997 DET vs. UTA W 0 0 0 0 - 0 0 - 0 0 - 0 0 0 0 0 0 0 0 0
p488
aVOtis Thorpe DET 01/11/1997 DET vs. UTA W 35 11 5 8 62.5 0 0 - 1 2 50.0 2 9 11 3 2 0 1 4 10
p489
aVTerry Mills DET 01/11/1997 DET vs. UTA W 37 18 7 12 58.3 4 7 57.1 0 0 - 1 4 5 4 0 1 1 3 9
p490
aVLitterial Green DET 01/11/1997 DET vs. UTA W 6 0 0 0 - 0 0 - 0 0 - 1 0 1 0 0 0 1 0 -7
p491
aVDon Reid DET 01/11/1997 DET vs. UTA W 6 0 0 0 - 0 0 - 0 0 - 0 0 0 0 0 0 0 3 -2
p492
aVDon Reid DET 01/10/1997 DET vs. SAS W 15 2 1 3 33.3 0 0 - 0 0 - 2 4 6 0 1 1 0 1 -4
p493
aVLitterial Green DET 01/10/1997 DET vs. SAS W 15 3 1 3 33.3 0 0 - 1 2 50.0 0 1 1 2 0 0 2 3 3
p494
aVMichael Curry DET 01/10/1997 DET vs. SAS W 21 4 0 3 0.0 0 2 0.0 4 5 80.0 1 1 2 1 0 0 2 2 0
p495
aVTheo Ratliff DET 01/10/1997 DET vs. SAS W 3 0 0 0 - 0 0 - 0 0 - 0 0 0 0 0 0 0 1 -7
p496
aVOtis Thorpe DET 01/10/1997 DET vs. SAS W 34 17 6 13 46.2 0 0 - 5 6 83.3 5 7 12 0 0 0 1 3 2
p497
aVJoe Dumars DET 01/10/1997 DET vs. SAS W 31 6 1 8 12.5 1 3 33.3 3 3 100.0 1 1 2 4 0 0 0 0 -4
p498
aVGrant Hill DET 01/10/1997 DET vs. SAS W 39 19 8 10 80.0 1 1 100.0 2 2 100.0 2 8 10 7 1 0 5 2 25
p499
aVTerry Mills DET 01/10/1997 DET vs. SAS W 33 18 6 11 54.5 3 6 50.0 3 3 100.0 0 4 4 0 0 0 2 3 11
p500
aVGrant Long DET 01/10/1997 DET vs. SAS W 15 4 2 3 66.7 0 0 - 0 1 0.0 1 4 5 0 0 0 1 1 15
p501
aVLindsey Hunter DET 01/10/1997 DET vs. SAS W 35 11 4 11 36.4 2 5 40.0 1 4 25.0 0 1 1 5 2 0 0 4 -11
p502
aVJerome Williams DET 01/07/1997 DET vs. MIL L 1 2 1 2 50.0 0 0 - 0 0 - 0 0 0 0 0 0 0 0 0
p503
aVTerry Mills DET 01/07/1997 DET vs. MIL L 21 2 1 7 14.3 0 2 0.0 0 0 - 3 2 5 2 1 0 2 1 -5
p504
aVLindsey Hunter DET 01/07/1997 DET vs. MIL L 29 4 2 13 15.4 0 5 0.0 0 0 - 0 0 0 1 0 0 0 2 -16
p505
aVTheo Ratliff DET 01/07/1997 DET vs. MIL L 5 3 1 1 100.0 0 0 - 1 1 100.0 0 2 2 0 0 0 0 2 -2
p506
aVMichael Curry DET 01/07/1997 DET vs. MIL L 24 0 0 1 0.0 0 1 0.0 0 0 - 0 3 3 1 2 1 0 2 3
p507
aVLitterial Green DET 01/07/1997 DET vs. MIL L 8 2 1 2 50.0 0 0 - 0 0 - 1 1 2 1 0 0 0 0 1
p508
aVGrant Hill DET 01/07/1997 DET vs. MIL L 42 24 7 18 38.9 0 0 - 10 14 71.4 1 7 8 9 0 1 2 3 -8
p509
aVGrant Long DET 01/07/1997 DET vs. MIL L 19 7 3 4 75.0 1 1 100.0 0 0 - 1 2 3 0 0 0 2 3 6
p510
aVJoe Dumars DET 01/07/1997 DET vs. MIL L 37 13 4 10 40.0 0 2 0.0 5 7 71.4 1 4 5 2 0 0 2 2 -12
p511
aVOtis Thorpe DET 01/07/1997 DET vs. MIL L 39 15 7 12 58.3 0 0 - 1 1 100.0 7 3 10 0 1 1 1 3 -9
p512
aVDon Reid DET 01/07/1997 DET vs. MIL L 16 4 1 3 33.3 0 0 - 2 3 66.7 1 1 2 1 1 1 2 2 -8
p513
aVLitterial Green DET 01/04/1997 DET vs. TOR W 22 8 4 8 50.0 0 2 0.0 0 0 - 2 2 4 5 5 0 1 2 20
p514
aVOtis Thorpe DET 01/04/1997 DET vs. TOR W 20 14 7 9 77.8 0 0 - 0 0 - 3 4 7 1 0 0 0 4 14
p515
aVDon Reid DET 01/04/1997 DET vs. TOR W 19 11 4 6 66.7 0 0 - 3 4 75.0 0 4 4 2 0 2 1 5 20
p516
aVTerry Mills DET 01/04/1997 DET vs. TOR W 15 5 2 5 40.0 1 3 33.3 0 0 - 0 3 3 2 1 0 1 2 10
p517
aVJerome Williams DET 01/04/1997 DET vs. TOR W 12 2 0 0 - 0 0 - 2 2 100.0 0 1 1 1 3 0 1 2 11
p518
aVLindsey Hunter DET 01/04/1997 DET vs. TOR W 29 15 4 7 57.1 1 2 50.0 6 7 85.7 0 5 5 3 2 0 0 2 28
p519
aVStacey Augmon DET 01/04/1997 DET vs. TOR W 12 11 4 7 57.1 0 0 - 3 6 50.0 3 2 5 0 0 0 3 2 11
p520
aVMichael Curry DET 01/04/1997 DET vs. TOR W 16 17 5 5 100.0 3 3 100.0 4 4 100.0 0 0 0 1 0 0 0 1 23
p521
aVTheo Ratliff DET 01/04/1997 DET vs. TOR W 17 6 2 8 25.0 0 0 - 2 2 100.0 3 2 5 0 0 1 3 1 12
p522
aVGrant Hill DET 01/04/1997 DET vs. TOR W 26 6 3 6 50.0 0 0 - 0 0 - 2 6 8 7 1 3 4 2 25
p523
aVJoe Dumars DET 01/04/1997 DET vs. TOR W 26 14 5 10 50.0 2 5 40.0 2 2 100.0 0 2 2 7 0 0 4 0 22
p524
aVGrant Long DET 01/04/1997 DET vs. TOR W 26 9 4 4 100.0 0 0 - 1 2 50.0 1 6 7 1 5 0 2 2 24
p525
aVLindsey Hunter DET 01/02/1997 DET vs. BOS W 30 14 5 11 45.5 3 6 50.0 1 2 50.0 0 0 0 3 2 0 2 2 3
p526
aVJoe Dumars DET 01/02/1997 DET vs. BOS W 36 19 5 16 31.3 3 6 50.0 6 6 100.0 0 4 4 4 1 0 3 2 14
p527
aVLitterial Green DET 01/02/1997 DET vs. BOS W 13 6 3 4 75.0 0 0 - 0 0 - 0 0 0 0 0 0 0 1 5
p528
aVTheo Ratliff DET 01/02/1997 DET vs. BOS W 14 2 1 4 25.0 0 0 - 0 0 - 2 4 6 0 0 2 1 2 3
p529
aVGrant Hill DET 01/02/1997 DET vs. BOS W 39 20 6 17 35.3 0 0 - 8 10 80.0 3 5 8 8 2 2 1 1 8
p530
aVDon Reid DET 01/02/1997 DET vs. BOS W 11 4 2 3 66.7 0 0 - 0 0 - 2 2 4 0 1 1 0 2 -4
p531
aVGrant Long DET 01/02/1997 DET vs. BOS W 6 2 1 3 33.3 0 2 0.0 0 0 - 0 1 1 0 0 0 0 1 1
p532
aVRick Mahorn DET 01/02/1997 DET vs. BOS W 4 0 0 2 0.0 0 0 - 0 0 - 1 0 1 0 0 0 0 0 2
p533
aVOtis Thorpe DET 01/02/1997 DET vs. BOS W 33 12 6 10 60.0 0 0 - 0 1 0.0 3 4 7 2 0 0 1 2 5
p534
aVMichael Curry DET 01/02/1997 DET vs. BOS W 21 7 2 4 50.0 1 2 50.0 2 2 100.0 0 5 5 1 2 0 0 3 6
p535
aVTerry Mills DET 01/02/1997 DET vs. BOS W 32 13 5 8 62.5 3 3 100.0 0 0 - 0 6 6 1 1 1 0 0 17
p536
aVGrant Hill DET 12/30/1996 DET vs. ORL W 40 25 9 17 52.9 0 0 - 7 10 70.0 2 5 7 8 2 0 3 2 11
p537
aVLindsey Hunter DET 12/30/1996 DET vs. ORL W 36 11 3 10 30.0 2 4 50.0 3 4 75.0 3 3 6 1 1 0 2 1 12
p538
aVTheo Ratliff DET 12/30/1996 DET vs. ORL W 21 5 2 3 66.7 0 0 - 1 2 50.0 3 0 3 1 0 0 2 4 -3
p539
aVOtis Thorpe DET 12/30/1996 DET vs. ORL W 27 22 10 13 76.9 0 0 - 2 2 100.0 4 5 9 1 0 0 1 5 18
p540
aVGrant Long DET 12/30/1996 DET vs. ORL W 10 2 0 2 0.0 0 1 0.0 2 2 100.0 0 2 2 0 0 0 0 0 0
p541
aVLitterial Green DET 12/30/1996 DET vs. ORL W 11 4 0 2 0.0 0 1 0.0 4 6 66.7 0 2 2 1 1 0 1 1 -5
p542
aVJoe Dumars DET 12/30/1996 DET vs. ORL W 32 5 1 8 12.5 1 6 16.7 2 2 100.0 0 0 0 4 2 0 2 0 12
p543
aVDon Reid DET 12/30/1996 DET vs. ORL W 4 0 0 0 - 0 0 - 0 0 - 0 0 0 0 0 0 0 1 -1
p544
aVRick Mahorn DET 12/30/1996 DET vs. ORL W 13 0 0 1 0.0 0 0 - 0 0 - 0 4 4 0 0 1 1 2 4
p545
aVMichael Curry DET 12/30/1996 DET vs. ORL W 23 11 3 6 50.0 1 2 50.0 4 4 100.0 1 2 3 1 0 0 0 1 3
p546
aVTerry Mills DET 12/30/1996 DET vs. ORL W 23 12 5 11 45.5 2 8 25.0 0 0 - 1 6 7 1 1 0 0 1 9
p547
aVDon Reid DET 12/28/1996 DET vs. CHH W 13 6 3 5 60.0 0 0 - 0 0 - 2 2 4 0 2 1 1 1 13
p548
aVJoe Dumars DET 12/28/1996 DET vs. CHH W 38 12 5 9 55.6 0 3 0.0 2 3 66.7 1 2 3 2 0 0 1 2 17
p549
aVMichael Curry DET 12/28/1996 DET vs. CHH W 14 4 2 4 50.0 0 1 0.0 0 0 - 0 1 1 1 1 0 0 1 11
p550
aVLitterial Green DET 12/28/1996 DET vs. CHH W 6 2 1 1 100.0 0 0 - 0 0 - 1 1 2 1 1 0 0 1 5
p551
aVLindsey Hunter DET 12/28/1996 DET vs. CHH W 38 10 4 8 50.0 1 2 50.0 1 2 50.0 2 1 3 0 3 1 1 0 15
p552
aVGrant Long DET 12/28/1996 DET vs. CHH W 10 4 1 5 20.0 0 2 0.0 2 2 100.0 0 3 3 0 0 0 1 1 -1
p553
aVRick Mahorn DET 12/28/1996 DET vs. CHH W 9 2 1 4 25.0 0 0 - 0 0 - 0 0 0 0 1 0 1 2 2
p554
aVOtis Thorpe DET 12/28/1996 DET vs. CHH W 35 11 5 12 41.7 0 0 - 1 2 50.0 8 7 15 5 0 0 2 3 10
p555
aVGrant Hill DET 12/28/1996 DET vs. CHH W 38 29 11 16 68.8 0 0 - 7 9 77.8 1 7 8 6 3 1 4 2 19
p556
aVTerry Mills DET 12/28/1996 DET vs. CHH W 22 6 2 10 20.0 2 7 28.6 0 0 - 0 1 1 0 2 0 0 0 18
p557
aVTheo Ratliff DET 12/28/1996 DET vs. CHH W 16 11 5 6 83.3 0 0 - 1 2 50.0 3 1 4 0 2 2 0 3 1
p558
aVStacey Augmon DET 12/26/1996 DET vs. IND L 5 0 0 1 0.0 0 0 - 0 0 - 0 0 0 0 0 0 0 0 -3
p559
aVMichael Curry DET 12/26/1996 DET vs. IND L 31 17 5 10 50.0 4 6 66.7 3 4 75.0 1 2 3 1 2 0 0 4 3
p560
aVGrant Long DET 12/26/1996 DET vs. IND L 14 0 0 2 0.0 0 1 0.0 0 0 - 0 2 2 0 2 0 0 1 -7
p561
aVGrant Hill DET 12/26/1996 DET vs. IND L 45 19 6 20 30.0 0 1 0.0 7 10 70.0 7 9 16 7 1 0 4 0 -5
p562
aVJoe Dumars DET 12/26/1996 DET vs. IND L 33 3 1 9 11.1 1 6 16.7 0 0 - 0 2 2 3 1 0 0 3 -7
p563
aVOtis Thorpe DET 12/26/1996 DET vs. IND L 28 9 4 11 36.4 0 0 - 1 2 50.0 0 3 3 1 1 0 1 6 -3
p564
aVLitterial Green DET 12/26/1996 DET vs. IND L 12 4 2 4 50.0 0 0 - 0 0 - 0 0 0 1 1 0 0 1 4
p565
aVRick Mahorn DET 12/26/1996 DET vs. IND L 19 13 4 6 66.7 0 0 - 5 5 100.0 1 1 2 0 0 0 1 3 -17
p566
aVLindsey Hunter DET 12/26/1996 DET vs. IND L 41 16 7 21 33.3 1 11 9.1 1 1 100.0 1 2 3 4 1 0 0 3 -15
p567
aVTerry Mills DET 12/26/1996 DET vs. IND L 26 6 3 7 42.9 0 4 0.0 0 2 0.0 3 7 10 2 1 0 1 2 5
p568
aVTheo Ratliff DET 12/26/1996 DET vs. IND L 11 2 0 2 0.0 0 0 - 2 2 100.0 0 1 1 0 0 3 0 3 5
p569
aVGrant Hill DET 12/25/1996 DET @ CHI L 42 27 12 24 50.0 0 1 0.0 3 4 75.0 3 5 8 2 1 1 3 2 -9
p570
aVLindsey Hunter DET 12/25/1996 DET @ CHI L 41 17 7 21 33.3 3 10 30.0 0 2 0.0 3 3 6 1 1 0 3 3 -9
p571
aVGrant Long DET 12/25/1996 DET @ CHI L 41 5 2 5 40.0 0 2 0.0 1 2 50.0 3 8 11 1 1 0 2 2 -13
p572
aVTerry Mills DET 12/25/1996 DET @ CHI L 9 0 0 1 0.0 0 1 0.0 0 0 - 1 0 1 1 0 0 0 0 -5
p573
aVOtis Thorpe DET 12/25/1996 DET @ CHI L 32 17 8 14 57.1 0 1 0.0 1 4 25.0 2 5 7 2 0 0 1 3 -7
p574
aVTheo Ratliff DET 12/25/1996 DET @ CHI L 4 2 1 1 100.0 0 0 - 0 0 - 0 1 1 0 0 0 0 0 2
p575
aVMichael Curry DET 12/25/1996 DET @ CHI L 8 1 0 0 - 0 0 - 1 1 100.0 0 0 0 0 0 0 1 0 -2
p576
aVLitterial Green DET 12/25/1996 DET @ CHI L 9 0 0 1 0.0 0 0 - 0 0 - 0 0 0 1 0 0 1 0 -6
p577
aVJoe Dumars DET 12/25/1996 DET @ CHI L 42 10 3 8 37.5 0 3 0.0 4 5 80.0 0 1 1 3 0 0 1 2 -12
p578
aVDon Reid DET 12/25/1996 DET @ CHI L 12 4 1 2 50.0 0 0 - 2 2 100.0 0 2 2 0 0 0 1 5 1
p579
aVJoe Dumars DET 12/21/1996 DET @ NYK L 41 16 6 17 35.3 0 3 0.0 4 6 66.7 0 4 4 4 1 0 3 1 -5
p580
aVGrant Long DET 12/21/1996 DET @ NYK L 5 2 1 2 50.0 0 0 - 0 0 - 2 0 2 0 0 0 1 1 -7
p581
aVTerry Mills DET 12/21/1996 DET @ NYK L 23 9 3 6 50.0 3 3 100.0 0 0 - 0 5 5 0 0 0 0 1 8
p582
aVRick Mahorn DET 12/21/1996 DET @ NYK L 14 2 1 3 33.3 0 0 - 0 0 - 2 0 2 0 0 1 1 1 -16
p583
aVTheo Ratliff DET 12/21/1996 DET @ NYK L 11 7 3 3 100.0 0 0 - 1 2 50.0 0 2 2 0 0 0 0 2 8
p584
aVOtis Thorpe DET 12/21/1996 DET @ NYK L 37 11 5 9 55.6 0 0 - 1 2 50.0 3 5 8 4 1 1 3 6 -1
p585
aVMichael Curry DET 12/21/1996 DET @ NYK L 15 5 2 2 100.0 1 1 100.0 0 0 - 0 2 2 1 0 0 0 0 8
p586
aVDon Reid DET 12/21/1996 DET @ NYK L 6 0 0 0 - 0 0 - 0 0 - 0 1 1 0 0 0 0 5 -1
p587
aVLitterial Green DET 12/21/1996 DET @ NYK L 9 2 1 2 50.0 0 1 0.0 0 0 - 0 0 0 4 0 0 1 1 3
p588
aVLindsey Hunter DET 12/21/1996 DET @ NYK L 41 13 4 12 33.3 3 6 50.0 2 2 100.0 1 1 2 0 1 0 3 2 -9
p589
aVGrant Hill DET 12/21/1996 DET @ NYK L 39 25 6 15 40.0 1 1 100.0 12 15 80.0 2 6 8 4 1 0 3 3 -3
p590
aVGrant Long DET 12/20/1996 DET @ IND W 21 2 0 6 0.0 0 1 0.0 2 2 100.0 2 1 3 0 0 0 1 2 -5
p591
aVTheo Ratliff DET 12/20/1996 DET @ IND W 5 0 0 0 - 0 0 - 0 0 - 0 0 0 0 0 0 0 1 -3
p592
aVRick Mahorn DET 12/20/1996 DET @ IND W 2 0 0 3 0.0 0 0 - 0 0 - 1 1 2 0 0 0 0 0 -2
p593
aVOtis Thorpe DET 12/20/1996 DET @ IND W 41 16 7 9 77.8 0 0 - 2 2 100.0 7 8 15 2 3 0 1 4 11
p594
aVJoe Dumars DET 12/20/1996 DET @ IND W 40 13 6 11 54.5 0 4 0.0 1 2 50.0 1 0 1 1 0 0 2 2 14
p595
aVMichael Curry DET 12/20/1996 DET @ IND W 19 5 2 3 66.7 1 1 100.0 0 0 - 1 0 1 1 0 0 0 3 8
p596
aVLindsey Hunter DET 12/20/1996 DET @ IND W 39 20 8 17 47.1 3 7 42.9 1 4 25.0 1 2 3 1 2 0 2 3 5
p597
aVGrant Hill DET 12/20/1996 DET @ IND W 39 18 5 11 45.5 0 0 - 8 12 66.7 2 7 9 6 3 1 6 2 6
p598
aVLitterial Green DET 12/20/1996 DET @ IND W 6 0 0 2 0.0 0 0 - 0 0 - 0 1 1 0 0 0 1 0 -3
p599
aVTerry Mills DET 12/20/1996 DET @ IND W 27 10 4 10 40.0 2 6 33.3 0 0 - 0 5 5 1 0 0 0 4 14
p600
aVTerry Mills DET 12/18/1996 DET vs. NYK W 23 14 5 9 55.6 4 8 50.0 0 0 - 0 4 4 1 1 0 2 1 24
p601
aVTheo Ratliff DET 12/18/1996 DET vs. NYK W 14 0 0 3 0.0 0 0 - 0 0 - 1 2 3 0 0 1 0 1 4
p602
aVDon Reid DET 12/18/1996 DET vs. NYK W 8 3 1 1 100.0 0 0 - 1 2 50.0 0 0 0 2 0 0 0 0 0
p603
aVOtis Thorpe DET 12/18/1996 DET vs. NYK W 30 12 6 8 75.0 0 0 - 0 0 - 2 5 7 4 0 0 1 1 35
p604
aVLindsey Hunter DET 12/18/1996 DET vs. NYK W 34 28 11 17 64.7 4 6 66.7 2 2 100.0 0 1 1 1 2 0 0 3 32
p605
aVGrant Long DET 12/18/1996 DET vs. NYK W 12 9 3 6 50.0 3 4 75.0 0 0 - 1 3 4 0 3 0 1 2 1
p606
aVGrant Hill DET 12/18/1996 DET vs. NYK W 34 17 6 13 46.2 0 0 - 5 10 50.0 1 9 10 11 5 0 1 3 37
p607
aVMichael Curry DET 12/18/1996 DET vs. NYK W 13 2 1 1 100.0 0 0 - 0 0 - 0 1 1 1 0 0 0 0 2
p608
aVLitterial Green DET 12/18/1996 DET vs. NYK W 17 2 1 2 50.0 0 0 - 0 0 - 0 1 1 3 0 0 1 1 7
p609
aVJoe Dumars DET 12/18/1996 DET vs. NYK W 31 21 7 13 53.8 2 4 50.0 5 5 100.0 1 1 2 2 2 0 1 1 28
p610
aVRick Mahorn DET 12/18/1996 DET vs. NYK W 14 0 0 2 0.0 0 0 - 0 2 0.0 3 1 4 1 1 0 0 0 2
p611
aVStacey Augmon DET 12/18/1996 DET vs. NYK W 11 4 1 5 20.0 0 0 - 2 2 100.0 1 0 1 1 0 1 0 2 -2
p612
aVTerry Mills DET 12/16/1996 DET @ TOR W 23 10 3 6 50.0 3 5 60.0 1 1 100.0 2 1 3 0 2 0 3 1 4
p613
aVGrant Hill DET 12/16/1996 DET @ TOR W 44 27 11 18 61.1 1 3 33.3 4 5 80.0 3 9 12 5 4 2 3 1 13
p614
aVTheo Ratliff DET 12/16/1996 DET @ TOR W 16 10 5 7 71.4 0 0 - 0 0 - 2 5 7 0 1 2 2 3 4
p615
aVLindsey Hunter DET 12/16/1996 DET @ TOR W 31 14 4 11 36.4 2 5 40.0 4 4 100.0 1 1 2 3 0 0 1 4 1
p616
aVJoe Dumars DET 12/16/1996 DET @ TOR W 40 21 7 15 46.7 4 7 57.1 3 3 100.0 0 0 0 4 3 0 3 3 1
p617
aVMichael Curry DET 12/16/1996 DET @ TOR W 12 0 0 1 0.0 0 1 0.0 0 0 - 0 0 0 2 1 0 2 3 -8
p618
aVLitterial Green DET 12/16/1996 DET @ TOR W 17 0 0 2 0.0 0 0 - 0 0 - 0 1 1 2 0 0 0 2 10
p619
aVGrant Long DET 12/16/1996 DET @ TOR W 20 2 0 6 0.0 0 0 - 2 2 100.0 3 0 3 1 0 0 1 1 0
p620
aVOtis Thorpe DET 12/16/1996 DET @ TOR W 36 14 4 8 50.0 0 0 - 6 9 66.7 3 8 11 3 0 0 1 3 5
p621
aVGrant Hill DET 12/15/1996 DET vs. BOS W 41 25 9 17 52.9 0 1 0.0 7 9 77.8 3 8 11 8 3 0 2 2 -1
p622
aVLindsey Hunter DET 12/15/1996 DET vs. BOS W 38 7 2 14 14.3 1 6 16.7 2 2 100.0 0 3 3 5 1 0 1 4 -1
p623
aVOtis Thorpe DET 12/15/1996 DET vs. BOS W 25 16 7 8 87.5 0 0 - 2 3 66.7 0 4 4 3 0 0 2 5 3
p624
aVGrant Long DET 12/15/1996 DET vs. BOS W 26 8 3 5 60.0 0 1 0.0 2 2 100.0 1 3 4 2 1 0 3 2 -2
p625
aVJoe Dumars DET 12/15/1996 DET vs. BOS W 39 15 5 10 50.0 2 4 50.0 3 3 100.0 0 1 1 3 0 0 3 1 10
p626
aVTheo Ratliff DET 12/15/1996 DET vs. BOS W 9 4 2 3 66.7 0 0 - 0 0 - 0 2 2 0 0 2 0 2 4
p627
aVTerry Mills DET 12/15/1996 DET vs. BOS W 29 13 5 11 45.5 3 7 42.9 0 0 - 1 6 7 2 3 1 2 3 15
p628
aVMichael Curry DET 12/15/1996 DET vs. BOS W 19 7 3 3 100.0 1 1 100.0 0 0 - 0 1 1 1 0 1 0 3 11
p629
aVRick Mahorn DET 12/15/1996 DET vs. BOS W 4 0 0 0 - 0 0 - 0 2 0.0 1 0 1 0 1 0 0 1 2
p630
aVLitterial Green DET 12/15/1996 DET vs. BOS W 11 4 1 1 100.0 0 0 - 2 2 100.0 0 1 1 0 0 0 2 1 9
p631
aVLitterial Green DET 12/12/1996 DET @ HOU L 16 7 3 4 75.0 0 0 - 1 2 50.0 0 1 1 3 1 1 0 0 4
p632
aVGrant Hill DET 12/12/1996 DET @ HOU L 29 13 5 10 50.0 0 0 - 3 4 75.0 1 0 1 6 2 1 3 2 -21
p633
aVDon Reid DET 12/12/1996 DET @ HOU L 16 4 1 4 25.0 0 0 - 2 2 100.0 0 1 1 0 0 0 2 5 5
p634
aVLindsey Hunter DET 12/12/1996 DET @ HOU L 27 19 6 13 46.2 4 8 50.0 3 3 100.0 0 0 0 2 1 0 2 1 -19
p635
aVJoe Dumars DET 12/12/1996 DET @ HOU L 29 8 4 10 40.0 0 3 0.0 0 0 - 2 1 3 4 1 0 1 1 -27
p636
aVGrant Long DET 12/12/1996 DET @ HOU L 25 12 5 11 45.5 1 2 50.0 1 1 100.0 2 4 6 0 1 1 0 0 -12
p637
aVRick Mahorn DET 12/12/1996 DET @ HOU L 9 5 2 3 66.7 0 0 - 1 2 50.0 2 2 4 1 0 0 1 2 -5
p638
aVTheo Ratliff DET 12/12/1996 DET @ HOU L 20 11 4 6 66.7 0 0 - 3 4 75.0 3 5 8 0 0 0 0 3 3
p639
aVStacey Augmon DET 12/12/1996 DET @ HOU L 5 6 2 2 100.0 0 0 - 2 6 33.3 0 1 1 0 1 0 0 0 1
p640
aVTerry Mills DET 12/12/1996 DET @ HOU L 25 5 2 7 28.6 1 4 25.0 0 0 - 2 3 5 3 0 1 0 3 -3
p641
aVMichael Curry DET 12/12/1996 DET @ HOU L 18 0 0 3 0.0 0 0 - 0 0 - 1 1 2 1 1 1 0 3 -2
p642
aVOtis Thorpe DET 12/12/1996 DET @ HOU L 22 6 3 7 42.9 0 0 - 0 0 - 0 3 3 0 0 0 3 2 -19
p643
aVTheo Ratliff DET 12/10/1996 DET @ MIL W 4 0 0 0 - 0 0 - 0 0 - 0 1 1 0 0 1 0 1 6
p644
aVTerry Mills DET 12/10/1996 DET @ MIL W 32 5 2 4 50.0 1 2 50.0 0 0 - 1 2 3 1 1 0 0 3 9
p645
aVDon Reid DET 12/10/1996 DET @ MIL W 9 0 0 0 - 0 0 - 0 0 - 0 2 2 0 0 1 0 6 6
p646
aVOtis Thorpe DET 12/10/1996 DET @ MIL W 33 6 2 6 33.3 0 0 - 2 2 100.0 1 4 5 3 1 0 0 3 -6
p647
aVMichael Curry DET 12/10/1996 DET @ MIL W 27 9 2 3 66.7 1 2 50.0 4 4 100.0 0 2 2 1 1 0 0 1 10
p648
aVGrant Long DET 12/10/1996 DET @ MIL W 19 6 3 5 60.0 0 0 - 0 0 - 3 2 5 0 1 0 0 0 1
p649
aVLitterial Green DET 12/10/1996 DET @ MIL W 4 2 1 2 50.0 0 0 - 0 0 - 0 0 0 1 1 0 1 1 3
p650
aVLindsey Hunter DET 12/10/1996 DET @ MIL W 32 10 4 12 33.3 2 5 40.0 0 0 - 0 2 2 1 0 0 0 3 -5
p651
aVJoe Dumars DET 12/10/1996 DET @ MIL W 39 29 11 16 68.8 2 3 66.7 5 7 71.4 0 3 3 3 0 0 1 2 6
p652
aVGrant Hill DET 12/10/1996 DET @ MIL W 41 26 11 25 44.0 0 0 - 4 5 80.0 2 2 4 9 1 0 4 2 10
p653
aVOtis Thorpe DET 12/07/1996 DET @ NJN W 26 6 3 8 37.5 0 0 - 0 0 - 4 1 5 0 0 0 3 2 10
p654
aVDon Reid DET 12/07/1996 DET @ NJN W 9 2 1 2 50.0 0 0 - 0 0 - 0 0 0 0 0 1 0 1 -3
p655
aVLitterial Green DET 12/07/1996 DET @ NJN W 19 4 2 4 50.0 0 1 0.0 0 4 0.0 0 0 0 3 2 0 0 1 10
p656
aVTheo Ratliff DET 12/07/1996 DET @ NJN W 16 5 1 2 50.0 0 0 - 3 4 75.0 3 5 8 0 0 2 0 1 14
p657
aVLindsey Hunter DET 12/07/1996 DET @ NJN W 30 17 7 15 46.7 1 2 50.0 2 2 100.0 2 3 5 3 0 1 0 1 6
p658
aVMichael Curry DET 12/07/1996 DET @ NJN W 24 9 4 7 57.1 1 3 33.3 0 0 - 0 2 2 0 1 0 0 2 30
p659
aVJoe Dumars DET 12/07/1996 DET @ NJN W 26 13 4 6 66.7 4 4 100.0 1 2 50.0 2 0 2 1 2 0 3 0 12
p660
aVGrant Long DET 12/07/1996 DET @ NJN W 18 4 2 8 25.0 0 1 0.0 0 0 - 2 3 5 0 2 0 1 1 -5
p661
aVGrant Hill DET 12/07/1996 DET @ NJN W 32 12 5 11 45.5 0 0 - 2 2 100.0 0 4 4 6 1 1 1 3 21
p662
aVStacey Augmon DET 12/07/1996 DET @ NJN W 7 7 2 5 40.0 0 0 - 3 3 100.0 0 1 1 0 0 0 0 0 1
p663
aVRick Mahorn DET 12/07/1996 DET @ NJN W 11 0 0 3 0.0 0 1 0.0 0 0 - 0 2 2 0 0 0 1 1 -2
p664
aVTerry Mills DET 12/07/1996 DET @ NJN W 22 16 6 11 54.5 4 8 50.0 0 0 - 1 5 6 2 1 0 2 1 36
p665
aVMichael Curry DET 12/06/1996 DET vs. CLE W 21 12 4 6 66.7 1 2 50.0 3 4 75.0 0 3 3 0 0 0 0 1 7
p666
aVRick Mahorn DET 12/06/1996 DET vs. CLE W 10 4 1 1 100.0 0 0 - 2 2 100.0 0 5 5 1 0 0 0 3 7
p667
aVJoe Dumars DET 12/06/1996 DET vs. CLE W 43 11 4 8 50.0 2 3 66.7 1 2 50.0 0 2 2 2 1 0 0 0 14
p668
aVLitterial Green DET 12/06/1996 DET vs. CLE W 4 0 0 0 - 0 0 - 0 0 - 0 0 0 0 0 0 1 1 -4
p669
aVLindsey Hunter DET 12/06/1996 DET vs. CLE W 40 6 2 7 28.6 0 2 0.0 2 4 50.0 0 2 2 0 1 2 0 4 8
p670
aVOtis Thorpe DET 12/06/1996 DET vs. CLE W 37 19 9 16 56.3 0 0 - 1 1 100.0 2 4 6 2 0 4 1 5 5
p671
aVGrant Long DET 12/06/1996 DET vs. CLE W 18 4 1 2 50.0 1 1 100.0 1 4 25.0 1 2 3 0 0 0 0 1 -7
p672
aVTerry Mills DET 12/06/1996 DET vs. CLE W 29 23 7 9 77.8 6 6 100.0 3 3 100.0 0 5 5 9 1 1 1 3 20
p673
aVGrant Hill DET 12/06/1996 DET vs. CLE W 40 14 5 13 38.5 0 0 - 4 9 44.4 1 4 5 8 2 2 3 3 10
p674
aVOtis Thorpe DET 12/04/1996 DET vs. ATL W 35 14 7 14 50.0 0 0 - 0 0 - 4 3 7 2 3 0 2 3 1
p675
aVRick Mahorn DET 12/04/1996 DET vs. ATL W 8 2 1 1 100.0 0 0 - 0 0 - 0 1 1 0 0 0 0 0 2
p676
aVGrant Long DET 12/04/1996 DET vs. ATL W 30 4 1 2 50.0 0 1 0.0 2 2 100.0 0 4 4 3 0 0 1 1 3
p677
aVStacey Augmon DET 12/04/1996 DET vs. ATL W 9 0 0 0 - 0 0 - 0 0 - 0 1 1 0 0 0 1 2 4
p678
aVLindsey Hunter DET 12/04/1996 DET vs. ATL W 44 11 5 13 38.5 1 6 16.7 0 0 - 0 1 1 3 0 0 0 2 9
p679
aVMichael Curry DET 12/04/1996 DET vs. ATL W 5 0 0 2 0.0 0 0 - 0 0 - 0 1 1 0 0 0 0 1 -8
p680
aVGrant Hill DET 12/04/1996 DET vs. ATL W 45 22 9 15 60.0 0 0 - 4 6 66.7 0 11 11 8 2 1 3 2 14
p681
aVJoe Dumars DET 12/04/1996 DET vs. ATL W 39 22 8 11 72.7 4 5 80.0 2 2 100.0 0 1 1 7 1 1 2 0 16
p682
aVTerry Mills DET 12/04/1996 DET vs. ATL W 25 25 9 11 81.8 7 8 87.5 0 0 - 1 2 3 0 0 0 3 3 9
p683
aVTheo Ratliff DET 12/01/1996 DET vs. SAC W 12 2 1 2 50.0 0 0 - 0 4 0.0 1 1 2 0 1 0 1 2 3
p684
aVOtis Thorpe DET 12/01/1996 DET vs. SAC W 24 11 2 4 50.0 0 0 - 7 8 87.5 0 0 0 1 0 0 2 4 16
p685
aVGrant Hill DET 12/01/1996 DET vs. SAC W 31 23 9 18 50.0 0 0 - 5 6 83.3 2 12 14 2 2 1 2 3 27
p686
aVTerry Mills DET 12/01/1996 DET vs. SAC W 9 4 2 5 40.0 0 1 0.0 0 0 - 0 0 0 0 0 0 0 1 6
p687
aVGrant Long DET 12/01/1996 DET vs. SAC W 26 15 6 7 85.7 1 1 100.0 2 3 66.7 0 4 4 1 0 0 1 2 14
p688
aVJerome Williams DET 12/01/1996 DET vs. SAC W 7 2 1 4 25.0 0 0 - 0 0 - 1 3 4 2 1 0 2 0 -1
p689
aVLindsey Hunter DET 12/01/1996 DET vs. SAC W 36 13 6 11 54.5 1 3 33.3 0 0 - 0 3 3 3 1 0 1 2 30
p690
aVStacey Augmon DET 12/01/1996 DET vs. SAC W 15 6 2 5 40.0 0 0 - 2 2 100.0 1 8 9 0 0 2 4 4 6
p691
aVMichael Curry DET 12/01/1996 DET vs. SAC W 22 0 0 2 0.0 0 1 0.0 0 0 - 0 1 1 0 0 0 2 3 0
p692
aVJoe Dumars DET 12/01/1996 DET vs. SAC W 32 8 1 2 50.0 0 0 - 6 6 100.0 1 4 5 7 0 0 3 1 25
p693
aVDon Reid DET 12/01/1996 DET vs. SAC W 8 5 2 3 66.7 0 0 - 1 2 50.0 2 1 3 2 0 0 0 1 1
p694
aVRick Mahorn DET 12/01/1996 DET vs. SAC W 17 6 2 4 50.0 0 0 - 2 2 100.0 3 3 6 0 0 0 2 4 18
p695
aVMichael Curry DET 11/29/1996 DET vs. LAL L 12 2 0 0 - 0 0 - 2 2 100.0 1 0 1 0 0 0 1 1 -4
p696
aVLindsey Hunter DET 11/29/1996 DET vs. LAL L 44 12 5 18 27.8 2 12 16.7 0 0 - 1 2 3 1 1 0 0 3 -11
p697
aVJerome Williams DET 11/29/1996 DET vs. LAL L 0 0 0 0 - 0 0 - 0 0 - 0 0 0 0 0 0 0 0 0
p698
aVGrant Hill DET 11/29/1996 DET vs. LAL L 45 20 6 15 40.0 0 1 0.0 8 8 100.0 2 5 7 7 3 1 5 3 -6
p699
aVOtis Thorpe DET 11/29/1996 DET vs. LAL L 38 14 4 9 44.4 0 0 - 6 10 60.0 4 8 12 3 2 0 2 5 1
p700
aVJoe Dumars DET 11/29/1996 DET vs. LAL L 40 16 5 16 31.3 4 8 50.0 2 2 100.0 1 2 3 1 3 0 1 1 -3
p701
aVDon Reid DET 11/29/1996 DET vs. LAL L 1 2 1 1 100.0 0 0 - 0 0 - 0 0 0 0 0 0 0 0 -2
p702
aVRick Mahorn DET 11/29/1996 DET vs. LAL L 17 2 1 3 33.3 0 0 - 0 0 - 1 4 5 1 0 0 1 4 -4
p703
aVTheo Ratliff DET 11/29/1996 DET vs. LAL L 8 0 0 1 0.0 0 0 - 0 0 - 0 0 0 0 0 1 0 2 -2
p704
aVGrant Long DET 11/29/1996 DET vs. LAL L 16 5 2 4 50.0 0 1 0.0 1 2 50.0 1 2 3 0 1 0 1 2 -1
p705
aVTerry Mills DET 11/29/1996 DET vs. LAL L 19 3 1 6 16.7 1 4 25.0 0 0 - 4 0 4 2 0 0 3 2 -8
p706
aVOtis Thorpe DET 11/27/1996 DET vs. VAN W 35 17 6 11 54.5 0 0 - 5 8 62.5 6 8 14 2 0 0 2 3 -3
p707
aVStacey Augmon DET 11/27/1996 DET vs. VAN W 9 2 1 3 33.3 0 0 - 0 0 - 0 0 0 1 0 0 0 1 -4
p708
aVMichael Curry DET 11/27/1996 DET vs. VAN W 13 0 0 2 0.0 0 2 0.0 0 0 - 0 1 1 0 0 0 0 1 0
p709
aVGrant Hill DET 11/27/1996 DET vs. VAN W 42 15 4 12 33.3 0 0 - 7 10 70.0 0 6 6 8 1 0 3 3 8
p710
aVDon Reid DET 11/27/1996 DET vs. VAN W 4 0 0 0 - 0 0 - 0 0 - 1 2 3 0 0 0 0 0 -3
p711
aVLindsey Hunter DET 11/27/1996 DET vs. VAN W 39 24 7 17 41.2 4 8 50.0 6 7 85.7 2 5 7 0 1 2 1 2 13
p712
aVTheo Ratliff DET 11/27/1996 DET vs. VAN W 9 2 1 3 33.3 0 0 - 0 0 - 3 1 4 0 0 0 2 0 -6
p713
aVTerry Mills DET 11/27/1996 DET vs. VAN W 16 13 5 10 50.0 3 7 42.9 0 0 - 0 3 3 1 0 1 2 0 17
p714
aVJoe Dumars DET 11/27/1996 DET vs. VAN W 41 7 2 5 40.0 1 3 33.3 2 2 100.0 0 2 2 4 0 0 6 1 12
p715
aVRick Mahorn DET 11/27/1996 DET vs. VAN W 8 0 0 1 0.0 0 0 - 0 0 - 0 2 2 1 0 1 0 0 12
p716
aVGrant Long DET 11/27/1996 DET vs. VAN W 24 7 3 4 75.0 1 1 100.0 0 0 - 2 3 5 1 1 0 1 2 -1
p717
aVTerry Mills DET 11/23/1996 DET @ CHH L 25 9 3 8 37.5 3 5 60.0 0 0 - 0 3 3 1 1 0 2 6 2
p718
aVMichael Curry DET 11/23/1996 DET @ CHH L 28 5 2 6 33.3 0 2 0.0 1 1 100.0 0 0 0 1 0 0 0 4 -1
p719
aVJerome Williams DET 11/23/1996 DET @ CHH L 0 0 0 0 - 0 0 - 0 0 - 0 0 0 0 0 0 0 1 0
p720
aVTheo Ratliff DET 11/23/1996 DET @ CHH L 9 2 1 2 50.0 0 0 - 0 0 - 1 0 1 0 0 0 0 0 -3
p721
aVStacey Augmon DET 11/23/1996 DET @ CHH L 12 4 1 4 25.0 0 0 - 2 2 100.0 0 1 1 0 0 1 1 1 -9
p722
aVOtis Thorpe DET 11/23/1996 DET @ CHH L 37 18 7 13 53.8 0 0 - 4 5 80.0 4 9 13 1 0 0 4 2 -12
p723
aVGrant Hill DET 11/23/1996 DET @ CHH L 12 4 2 3 66.7 0 0 - 0 2 0.0 2 5 7 2 0 0 1 0 1
p724
aVDon Reid DET 11/23/1996 DET @ CHH L 3 0 0 0 - 0 0 - 0 0 - 0 0 0 0 0 0 0 2 2
p725
aVLindsey Hunter DET 11/23/1996 DET @ CHH L 43 18 7 16 43.8 3 8 37.5 1 2 50.0 1 3 4 2 0 0 2 6 0
p726
aVJoe Dumars DET 11/23/1996 DET @ CHH L 43 20 7 16 43.8 2 4 50.0 4 5 80.0 0 3 3 6 0 0 0 0 -15
p727
aVGrant Long DET 11/23/1996 DET @ CHH L 28 5 2 5 40.0 1 2 50.0 0 0 - 0 4 4 2 1 0 1 5 -5
p728
aVTheo Ratliff DET 11/21/1996 DET vs. NJN W 13 0 0 3 0.0 0 0 - 0 0 - 1 2 3 0 0 1 1 2 2
p729
aVLindsey Hunter DET 11/21/1996 DET vs. NJN W 36 15 5 11 45.5 2 5 40.0 3 4 75.0 0 4 4 2 3 1 0 3 7
p730
aVMichael Curry DET 11/21/1996 DET vs. NJN W 15 4 0 1 0.0 0 1 0.0 4 4 100.0 0 4 4 0 1 0 1 1 5
p731
aVGrant Long DET 11/21/1996 DET vs. NJN W 27 10 4 6 66.7 2 2 100.0 0 0 - 2 3 5 1 0 0 1 2 11
p732
aVOtis Thorpe DET 11/21/1996 DET vs. NJN W 30 14 7 15 46.7 0 0 - 0 0 - 3 5 8 1 0 0 2 4 6
p733
aVGrant Hill DET 11/21/1996 DET vs. NJN W 38 17 7 13 53.8 0 1 0.0 3 4 75.0 1 7 8 9 2 0 3 0 20
p734
aVKenny Smith DET 11/21/1996 DET vs. NJN W 7 0 0 1 0.0 0 0 - 0 0 - 0 2 2 1 0 0 0 0 -6
p735
aVDon Reid DET 11/21/1996 DET vs. NJN W 14 7 3 5 60.0 0 0 - 1 2 50.0 2 1 3 0 1 1 0 1 -1
p736
aVTerry Mills DET 11/21/1996 DET vs. NJN W 12 2 1 4 25.0 0 2 0.0 0 0 - 0 3 3 0 0 0 2 1 -7
p737
aVStacey Augmon DET 11/21/1996 DET vs. NJN W 12 4 1 3 33.3 0 0 - 2 2 100.0 2 0 2 3 0 1 4 1 -7
p738
aVJoe Dumars DET 11/21/1996 DET vs. NJN W 36 23 5 12 41.7 3 5 60.0 10 11 90.9 0 1 1 2 0 0 0 1 10
p739
aVOtis Thorpe DET 11/20/1996 DET @ BOS W 24 13 5 14 35.7 0 0 - 3 4 75.0 2 2 4 0 0 2 2 4 11
p740
aVJoe Dumars DET 11/20/1996 DET @ BOS W 26 12 4 6 66.7 1 3 33.3 3 3 100.0 0 4 4 9 0 0 3 1 17
p741
aVKenny Smith DET 11/20/1996 DET @ BOS W 10 5 2 2 100.0 1 1 100.0 0 0 - 0 0 0 4 0 0 0 1 3
p742
aVStacey Augmon DET 11/20/1996 DET @ BOS W 19 4 1 2 50.0 0 0 - 2 2 100.0 1 4 5 1 1 1 1 2 10
p743
aVRick Mahorn DET 11/20/1996 DET @ BOS W 5 2 1 2 50.0 0 0 - 0 0 - 0 1 1 1 0 0 0 1 -4
p744
aVTerry Mills DET 11/20/1996 DET @ BOS W 23 9 4 8 50.0 1 5 20.0 0 0 - 1 3 4 0 0 0 1 1 8
p745
aVLindsey Hunter DET 11/20/1996 DET @ BOS W 31 22 7 11 63.6 2 5 40.0 6 7 85.7 0 2 2 5 4 0 2 2 32
p746
aVMichael Curry DET 11/20/1996 DET @ BOS W 13 6 2 4 50.0 0 1 0.0 2 2 100.0 0 0 0 0 1 0 0 2 -6
p747
aVTheo Ratliff DET 11/20/1996 DET @ BOS W 19 4 2 5 40.0 0 0 - 0 0 - 2 3 5 1 0 1 0 1 23
p748
aVDon Reid DET 11/20/1996 DET @ BOS W 20 6 3 8 37.5 0 0 - 0 0 - 2 0 2 0 2 0 3 4 10
p749
aVGrant Hill DET 11/20/1996 DET @ BOS W 31 23 8 11 72.7 1 1 100.0 6 7 85.7 0 5 5 3 2 1 1 1 19
p750
aVGrant Long DET 11/20/1996 DET @ BOS W 20 2 0 3 0.0 0 0 - 2 2 100.0 2 3 5 0 2 0 1 0 2
p751
aVStacey Augmon DET 11/16/1996 DET @ CLE W 12 0 0 2 0.0 0 0 - 0 0 - 0 1 1 0 1 1 1 2 -3
p752
aVDon Reid DET 11/16/1996 DET @ CLE W 16 2 1 1 100.0 0 0 - 0 0 - 2 1 3 1 0 2 0 4 -10
p753
aVJoe Dumars DET 11/16/1996 DET @ CLE W 38 10 2 6 33.3 0 2 0.0 6 6 100.0 0 6 6 2 0 0 1 2 4
p754
aVGrant Long DET 11/16/1996 DET @ CLE W 20 5 2 4 50.0 0 0 - 1 2 50.0 4 0 4 1 0 0 0 4 1
p755
aVKenny Smith DET 11/16/1996 DET @ CLE W 0 0 0 0 - 0 0 - 0 0 - 0 0 0 0 0 0 0 0 2
p756
aVMichael Curry DET 11/16/1996 DET @ CLE W 6 2 0 1 0.0 0 1 0.0 2 2 100.0 0 1 1 0 0 0 0 1 -5
p757
aVTerry Mills DET 11/16/1996 DET @ CLE W 22 13 4 7 57.1 2 4 50.0 3 3 100.0 0 1 1 2 0 0 1 1 5
p758
aVTheo Ratliff DET 11/16/1996 DET @ CLE W 4 2 1 3 33.3 0 0 - 0 1 0.0 1 0 1 0 0 1 0 3 4
p759
aVOtis Thorpe DET 11/16/1996 DET @ CLE W 32 18 7 11 63.6 0 0 - 4 5 80.0 3 3 6 2 0 0 1 4 8
p760
aVLindsey Hunter DET 11/16/1996 DET @ CLE W 45 23 6 14 42.9 4 7 57.1 7 8 87.5 1 3 4 3 1 0 2 3 9
p761
aVGrant Hill DET 11/16/1996 DET @ CLE W 44 27 8 15 53.3 1 1 100.0 10 13 76.9 0 5 5 7 2 0 3 2 5
p762
aVMichael Curry DET 11/15/1996 DET vs. WAS W 7 0 0 0 - 0 0 - 0 0 - 0 0 0 0 0 0 0 0 -16
p763
aVKenny Smith DET 11/15/1996 DET vs. WAS W 1 0 0 0 - 0 0 - 0 0 - 0 0 0 0 0 0 0 0 -2
p764
aVOtis Thorpe DET 11/15/1996 DET vs. WAS W 39 20 10 14 71.4 0 0 - 0 0 - 3 9 12 2 0 0 2 4 18
p765
aVRick Mahorn DET 11/15/1996 DET vs. WAS W 3 0 0 1 0.0 0 0 - 0 0 - 0 0 0 0 0 0 0 3 -8
p766
aVJoe Dumars DET 11/15/1996 DET vs. WAS W 39 25 9 13 69.2 4 7 57.1 3 3 100.0 0 2 2 5 0 0 2 1 24
p767
aVTerry Mills DET 11/15/1996 DET vs. WAS W 35 9 3 5 60.0 1 1 100.0 2 2 100.0 1 1 2 1 1 0 3 2 20
p768
aVLindsey Hunter DET 11/15/1996 DET vs. WAS W 27 2 1 6 16.7 0 1 0.0 0 0 - 0 1 1 3 1 0 1 2 -6
p769
aVTheo Ratliff DET 11/15/1996 DET vs. WAS W 2 2 0 0 - 0 0 - 2 2 100.0 0 0 0 0 0 0 0 2 -1
p770
aVGrant Long DET 11/15/1996 DET vs. WAS W 38 10 5 10 50.0 0 0 - 0 0 - 2 9 11 2 2 0 1 3 17
p771
aVGrant Hill DET 11/15/1996 DET vs. WAS W 41 27 10 18 55.6 0 1 0.0 7 8 87.5 0 2 2 4 1 0 3 2 17
p772
aVStacey Augmon DET 11/15/1996 DET vs. WAS W 8 0 0 1 0.0 0 0 - 0 0 - 0 0 0 1 0 0 0 0 -8
p773
aVLindsey Hunter DET 11/13/1996 DET vs. DEN W 39 16 8 13 61.5 0 2 0.0 0 1 0.0 0 5 5 2 0 0 0 5 5
p774
aVJoe Dumars DET 11/13/1996 DET vs. DEN W 45 17 6 11 54.5 2 3 66.7 3 3 100.0 0 3 3 5 1 0 2 2 -2
p775
aVStacey Augmon DET 11/13/1996 DET vs. DEN W 14 0 0 4 0.0 0 0 - 0 0 - 0 1 1 0 0 0 2 2 -5
p776
aVOtis Thorpe DET 11/13/1996 DET vs. DEN W 45 15 7 15 46.7 0 0 - 1 1 100.0 6 8 14 1 0 0 4 2 2
p777
aVGrant Long DET 11/13/1996 DET vs. DEN W 34 7 2 10 20.0 0 0 - 3 6 50.0 6 3 9 2 1 0 2 3 5
p778
aVTerry Mills DET 11/13/1996 DET vs. DEN W 19 6 2 4 50.0 2 3 66.7 0 0 - 1 5 6 0 1 0 1 3 -2
p779
aVGrant Hill DET 11/13/1996 DET vs. DEN W 43 27 9 22 40.9 1 1 100.0 8 10 80.0 1 5 6 2 2 1 0 2 3
p780
aVMichael Curry DET 11/13/1996 DET vs. DEN W 9 0 0 1 0.0 0 1 0.0 0 0 - 1 0 1 0 0 0 0 0 0
p781
aVKenny Smith DET 11/13/1996 DET vs. DEN W 9 5 2 4 50.0 1 2 50.0 0 0 - 0 0 0 2 0 0 0 0 2
p782
aVDon Reid DET 11/13/1996 DET vs. DEN W 8 2 1 2 50.0 0 0 - 0 0 - 0 1 1 0 0 0 0 2 -3
p783
aVStacey Augmon DET 11/12/1996 DET @ WAS W 14 2 1 2 50.0 0 0 - 0 0 - 0 1 1 0 0 0 1 1 6
p784
aVLindsey Hunter DET 11/12/1996 DET @ WAS W 29 12 6 10 60.0 0 3 0.0 0 0 - 1 0 1 0 2 0 1 4 18
p785
aVTerry Mills DET 11/12/1996 DET @ WAS W 34 19 7 14 50.0 5 10 50.0 0 0 - 0 5 5 3 0 0 1 2 2
p786
aVJoe Dumars DET 11/12/1996 DET @ WAS W 37 13 4 10 40.0 4 6 66.7 1 2 50.0 0 8 8 4 3 0 0 2 11
p787
aVDon Reid DET 11/12/1996 DET @ WAS W 5 2 1 1 100.0 0 0 - 0 0 - 0 2 2 0 0 0 4 3 5
p788
aVGrant Long DET 11/12/1996 DET @ WAS W 43 12 4 11 36.4 1 2 50.0 3 4 75.0 8 3 11 2 2 0 1 1 6
p789
aVOtis Thorpe DET 11/12/1996 DET @ WAS W 26 5 2 7 28.6 0 0 - 1 1 100.0 2 1 3 1 0 0 3 3 13
p790
aVGrant Hill DET 11/12/1996 DET @ WAS W 35 24 7 15 46.7 1 1 100.0 9 11 81.8 0 9 9 7 0 2 3 3 14
p791
aVKenny Smith DET 11/12/1996 DET @ WAS W 17 3 1 5 20.0 1 2 50.0 0 0 - 0 2 2 2 1 0 1 1 -10
p792
aVOtis Thorpe DET 11/08/1996 DET vs. CHI L 25 4 2 6 33.3 0 0 - 0 0 - 0 2 2 0 0 0 4 2 -13
p793
aVGrant Hill DET 11/08/1996 DET vs. CHI L 38 21 9 19 47.4 0 0 - 3 6 50.0 1 5 6 5 0 0 3 3 -16
p794
aVRick Mahorn DET 11/08/1996 DET vs. CHI L 11 2 1 2 50.0 0 0 - 0 1 0.0 0 0 0 0 0 0 0 1 -2
p795
aVKenny Smith DET 11/08/1996 DET vs. CHI L 4 3 1 2 50.0 1 2 50.0 0 0 - 0 1 1 0 0 0 0 0 4
p796
aVLindsey Hunter DET 11/08/1996 DET vs. CHI L 33 3 1 7 14.3 0 3 0.0 1 2 50.0 0 2 2 1 0 0 0 3 -19
p797
aVMichael Curry DET 11/08/1996 DET vs. CHI L 20 2 1 2 50.0 0 0 - 0 0 - 1 2 3 0 0 0 1 4 -7
p798
aVTheo Ratliff DET 11/08/1996 DET vs. CHI L 8 2 1 4 25.0 0 0 - 0 0 - 1 2 3 0 0 2 0 1 2
p799
aVGrant Long DET 11/08/1996 DET vs. CHI L 24 8 2 4 50.0 0 0 - 4 4 100.0 1 3 4 1 0 0 2 2 -8
p800
aVStacey Augmon DET 11/08/1996 DET vs. CHI L 28 8 4 9 44.4 0 0 - 0 0 - 3 3 6 1 1 0 2 1 -3
p801
aVJoe Dumars DET 11/08/1996 DET vs. CHI L 33 22 8 12 66.7 6 7 85.7 0 1 0.0 0 0 0 1 0 0 1 0 -16
p802
aVTerry Mills DET 11/08/1996 DET vs. CHI L 14 5 2 8 25.0 1 3 33.3 0 0 - 3 3 6 0 0 0 1 1 -12
p803
aVOtis Thorpe DET 11/06/1996 DET vs. DAL W 33 17 8 13 61.5 0 0 - 1 1 100.0 3 10 13 2 1 2 1 2 19
p804
aVJoe Dumars DET 11/06/1996 DET vs. DAL W 35 18 6 10 60.0 3 4 75.0 3 4 75.0 1 1 2 8 0 0 2 1 20
p805
aVTerry Mills DET 11/06/1996 DET vs. DAL W 23 7 3 8 37.5 1 3 33.3 0 0 - 0 4 4 0 0 0 0 2 24
p806
aVJerome Williams DET 11/06/1996 DET vs. DAL W 4 0 0 1 0.0 0 0 - 0 0 - 0 0 0 0 1 0 0 0 -7
p807
aVTheo Ratliff DET 11/06/1996 DET vs. DAL W 4 2 1 2 50.0 0 0 - 0 0 - 1 0 1 0 0 1 0 0 -7
p808
aVLindsey Hunter DET 11/06/1996 DET vs. DAL W 39 16 6 15 40.0 4 9 44.4 0 0 - 0 5 5 3 1 0 2 1 17
p809
aVMichael Curry DET 11/06/1996 DET vs. DAL W 19 9 2 4 50.0 1 2 50.0 4 6 66.7 1 1 2 0 0 0 1 1 6
p810
aVRick Mahorn DET 11/06/1996 DET vs. DAL W 8 6 1 5 20.0 0 0 - 4 4 100.0 2 4 6 0 0 0 1 1 -10
p811
aVKenny Smith DET 11/06/1996 DET vs. DAL W 14 7 2 5 40.0 1 2 50.0 2 2 100.0 0 0 0 1 0 0 2 0 1
p812
aVGrant Long DET 11/06/1996 DET vs. DAL W 28 9 4 9 44.4 1 2 50.0 0 0 - 4 0 4 2 0 0 1 2 12
p813
aVStacey Augmon DET 11/06/1996 DET vs. DAL W 33 12 3 4 75.0 0 0 - 6 6 100.0 0 3 3 3 3 1 2 2 20
p814
aVTheo Ratliff DET 11/05/1996 DET @ PHI W 9 1 0 0 - 0 0 - 1 2 50.0 1 2 3 0 0 2 1 1 -2
p815
aVMichael Curry DET 11/05/1996 DET @ PHI W 15 0 0 1 0.0 0 0 - 0 0 - 1 1 2 0 0 0 0 1 -11
p816
aVTerry Mills DET 11/05/1996 DET @ PHI W 18 10 4 9 44.4 2 2 100.0 0 0 - 2 5 7 1 0 0 3 1 10
p817
aVGrant Hill DET 11/05/1996 DET @ PHI W 41 22 9 22 40.9 0 1 0.0 4 8 50.0 3 11 14 9 3 1 5 3 14
p818
aVLindsey Hunter DET 11/05/1996 DET @ PHI W 38 17 6 15 40.0 4 7 57.1 1 1 100.0 1 1 2 1 0 0 1 5 -6
p819
aVRick Mahorn DET 11/05/1996 DET @ PHI W 4 2 1 2 50.0 0 0 - 0 0 - 0 2 2 0 0 0 0 0 6
p820
aVKenny Smith DET 11/05/1996 DET @ PHI W 0 0 0 1 0.0 0 1 0.0 0 0 - 0 0 0 0 0 0 0 0 -2
p821
aVGrant Long DET 11/05/1996 DET @ PHI W 31 8 3 8 37.5 0 1 0.0 2 2 100.0 3 3 6 2 0 0 0 2 -13
p822
aVOtis Thorpe DET 11/05/1996 DET @ PHI W 26 4 2 4 50.0 0 0 - 0 0 - 2 3 5 1 0 0 4 5 7
p823
aVStacey Augmon DET 11/05/1996 DET @ PHI W 18 4 1 5 20.0 0 0 - 2 4 50.0 1 2 3 2 1 0 1 2 -2
p824
aVJoe Dumars DET 11/05/1996 DET @ PHI W 41 15 6 12 50.0 3 7 42.9 0 0 - 1 2 3 0 2 0 4 1 9
p825
aVGrant Hill DET 11/02/1996 DET @ ATL W 38 22 7 14 50.0 0 1 0.0 8 8 100.0 4 11 15 9 3 1 4 4 29
p826
aVOtis Thorpe DET 11/02/1996 DET @ ATL W 44 12 3 13 23.1 0 0 - 6 8 75.0 3 3 6 2 2 1 1 3 18
p827
aVJoe Dumars DET 11/02/1996 DET @ ATL W 41 14 5 12 41.7 2 5 40.0 2 2 100.0 0 2 2 3 2 0 1 1 16
p828
aVGrant Long DET 11/02/1996 DET @ ATL W 31 2 1 6 16.7 0 1 0.0 0 0 - 5 2 7 2 2 0 0 2 1
p829
aVJerome Williams DET 11/02/1996 DET @ ATL W 2 0 0 0 - 0 0 - 0 0 - 0 0 0 0 0 0 1 0 -6
p830
aVTerry Mills DET 11/02/1996 DET @ ATL W 20 15 5 10 50.0 3 7 42.9 2 2 100.0 0 4 4 0 0 0 0 5 3
p831
aVMichael Curry DET 11/02/1996 DET @ ATL W 16 0 0 2 0.0 0 1 0.0 0 0 - 0 2 2 2 1 0 0 1 -10
p832
aVLindsey Hunter DET 11/02/1996 DET @ ATL W 25 15 5 9 55.6 3 5 60.0 2 2 100.0 1 0 1 0 0 0 2 3 5
p833
aVStacey Augmon DET 11/02/1996 DET @ ATL W 22 10 5 9 55.6 0 0 - 0 0 - 1 1 2 2 1 0 3 3 4
p834
aVJoe Dumars DET 11/01/1996 DET vs. IND W 39 27 7 15 46.7 3 6 50.0 10 10 100.0 0 3 3 1 3 0 2 1 18
p835
aVLindsey Hunter DET 11/01/1996 DET vs. IND W 40 16 5 13 38.5 3 10 30.0 3 4 75.0 0 3 3 1 0 0 1 1 18
p836
aVTheo Ratliff DET 11/01/1996 DET vs. IND W 2 0 0 0 - 0 0 - 0 0 - 1 0 1 0 0 0 0 1 -4
p837
aVOtis Thorpe DET 11/01/1996 DET vs. IND W 27 11 5 8 62.5 0 0 - 1 4 25.0 3 2 5 2 3 0 3 5 6
p838
aVGrant Hill DET 11/01/1996 DET vs. IND W 41 25 10 18 55.6 0 1 0.0 5 7 71.4 1 7 8 5 1 0 5 3 3
p839
aVStacey Augmon DET 11/01/1996 DET vs. IND W 28 6 2 4 50.0 0 0 - 2 6 33.3 1 5 6 0 1 2 1 1 -2
p840
aVTerry Mills DET 11/01/1996 DET vs. IND W 15 2 0 3 0.0 0 1 0.0 2 2 100.0 2 4 6 1 1 1 2 1 1
p841
aVRick Mahorn DET 11/01/1996 DET vs. IND W 15 4 1 2 50.0 0 0 - 2 2 100.0 1 0 1 0 1 0 0 2 6
p842
aVMichael Curry DET 11/01/1996 DET vs. IND W 10 2 1 3 33.3 0 2 0.0 0 0 - 0 1 1 1 0 0 0 3 -15
p843
aVGrant Long DET 11/01/1996 DET vs. IND W 23 2 1 2 50.0 0 0 - 0 0 - 2 3 5 1 0 0 3 4 -1
p844
a.