(lp0
VPLAYER TEAM DATE MATCHUP W/L MIN PTS FGM FGA FG% 3PM 3PA 3P% FTM FTA FT% OREB DREB REB AST STL BLK TOV PF +/-
p1
aVSteven Smith ATL 05/01/1998 ATL vs. CHH L 39 27 11 18 61.1 2 6 33.3 3 4 75.0 1 1 2 3 0 0 4 4 -11
p2
aVDikembe Mutombo ATL 05/01/1998 ATL vs. CHH L 37 8 3 5 60.0 0 0 - 2 4 50.0 2 14 16 0 0 3 2 0 -6
p3
aVAlan Henderson ATL 05/01/1998 ATL vs. CHH L 27 11 4 7 57.1 0 0 - 3 4 75.0 1 1 2 0 1 0 0 3 1
p4
aVEldridge Recasner ATL 05/01/1998 ATL vs. CHH L 19 5 2 6 33.3 1 3 33.3 0 0 - 0 0 0 1 0 0 0 3 0
p5
aVChucky Brown ATL 05/01/1998 ATL vs. CHH L 9 2 1 4 25.0 0 0 - 0 0 - 1 2 3 1 0 0 1 0 5
p6
aVTyrone Corbin ATL 05/01/1998 ATL vs. CHH L 34 0 0 4 0.0 0 0 - 0 0 - 2 3 5 0 1 0 0 3 -16
p7
aVAnthony Miller ATL 05/01/1998 ATL vs. CHH L 7 2 0 0 - 0 0 - 2 2 100.0 0 1 1 0 0 0 1 1 -2
p8
aVMookie Blaylock ATL 05/01/1998 ATL vs. CHH L 40 17 6 18 33.3 3 9 33.3 2 2 100.0 1 2 3 4 3 0 2 5 -5
p9
aVChristian Laettner ATL 05/01/1998 ATL vs. CHH L 23 10 3 8 37.5 0 1 0.0 4 4 100.0 1 6 7 1 1 1 3 4 -11
p10
aVDrew Barry ATL 04/28/1998 ATL vs. CHH W 4 0 0 1 0.0 0 1 0.0 0 0 - 0 1 1 0 0 0 0 0 -4
p11
aVChris Crawford ATL 04/28/1998 ATL vs. CHH W 4 2 0 0 - 0 0 - 2 2 100.0 1 1 2 0 0 1 2 2 -4
p12
aVTyrone Corbin ATL 04/28/1998 ATL vs. CHH W 30 9 4 9 44.4 1 4 25.0 0 0 - 1 3 4 0 2 0 1 1 21
p13
aVDikembe Mutombo ATL 04/28/1998 ATL vs. CHH W 29 10 3 6 50.0 0 0 - 4 4 100.0 2 9 11 0 1 1 1 3 25
p14
aVChristian Laettner ATL 04/28/1998 ATL vs. CHH W 21 11 2 8 25.0 0 0 - 7 8 87.5 0 2 2 1 3 0 1 2 20
p15
aVGreg Anderson ATL 04/28/1998 ATL vs. CHH W 4 0 0 0 - 0 0 - 0 2 0.0 0 2 2 0 0 1 1 1 -4
p16
aVAlan Henderson ATL 04/28/1998 ATL vs. CHH W 28 11 4 9 44.4 0 0 - 3 4 75.0 1 5 6 2 0 1 1 3 21
p17
aVAnthony Miller ATL 04/28/1998 ATL vs. CHH W 12 4 2 5 40.0 0 0 - 0 0 - 3 1 4 1 1 1 2 2 2
p18
aVEldridge Recasner ATL 04/28/1998 ATL vs. CHH W 26 8 2 4 50.0 2 2 100.0 2 2 100.0 0 1 1 4 2 0 1 3 11
p19
aVChucky Brown ATL 04/28/1998 ATL vs. CHH W 16 10 4 6 66.7 1 2 50.0 1 2 50.0 0 2 2 2 0 0 0 2 13
p20
aVSteven Smith ATL 04/28/1998 ATL vs. CHH W 35 15 6 11 54.5 1 1 100.0 2 4 50.0 0 2 2 2 0 0 1 2 30
p21
aVMookie Blaylock ATL 04/28/1998 ATL vs. CHH W 26 16 6 7 85.7 2 2 100.0 2 2 100.0 2 2 4 7 1 0 2 0 29
p22
aVAnthony Miller ATL 04/25/1998 ATL @ CHH L 9 0 0 2 0.0 0 0 - 0 0 - 2 2 4 0 0 0 0 1 7
p23
aVAlan Henderson ATL 04/25/1998 ATL @ CHH L 44 22 9 15 60.0 0 1 0.0 4 6 66.7 5 4 9 1 2 0 2 4 -11
p24
aVChucky Brown ATL 04/25/1998 ATL @ CHH L 15 4 2 4 50.0 0 0 - 0 0 - 0 0 0 1 0 0 0 1 -6
p25
aVTyrone Corbin ATL 04/25/1998 ATL @ CHH L 28 6 3 7 42.9 0 1 0.0 0 0 - 0 4 4 0 0 0 1 5 3
p26
aVSteven Smith ATL 04/25/1998 ATL @ CHH L 39 22 9 17 52.9 2 5 40.0 2 2 100.0 1 3 4 2 0 3 0 5 -2
p27
aVChristian Laettner ATL 04/25/1998 ATL @ CHH L 14 8 3 7 42.9 0 0 - 2 2 100.0 0 4 4 1 1 0 4 6 -3
p28
aVMookie Blaylock ATL 04/25/1998 ATL @ CHH L 39 7 2 12 16.7 0 7 0.0 3 4 75.0 2 5 7 13 1 0 1 1 -8
p29
aVEldridge Recasner ATL 04/25/1998 ATL @ CHH L 21 12 4 9 44.4 4 5 80.0 0 0 - 0 1 1 2 0 0 1 1 -7
p30
aVDikembe Mutombo ATL 04/25/1998 ATL @ CHH L 25 4 1 6 16.7 0 0 - 2 4 50.0 4 5 9 0 0 0 2 4 -8
p31
aVTyrone Corbin ATL 04/23/1998 ATL @ CHH L 19 0 0 5 0.0 0 1 0.0 0 0 - 0 2 2 4 3 1 1 1 -6
p32
aVAnthony Miller ATL 04/23/1998 ATL @ CHH L 2 2 1 1 100.0 0 0 - 0 0 - 0 0 0 0 1 0 0 1 1
p33
aVSteven Smith ATL 04/23/1998 ATL @ CHH L 44 35 13 22 59.1 5 8 62.5 4 6 66.7 0 3 3 2 2 0 0 6 -12
p34
aVAlan Henderson ATL 04/23/1998 ATL @ CHH L 26 7 3 7 42.9 0 0 - 1 4 25.0 3 2 5 1 0 0 3 3 -3
p35
aVDrew Barry ATL 04/23/1998 ATL @ CHH L 0 0 0 0 - 0 0 - 0 0 - 0 0 0 0 0 0 0 0 0
p36
aVDikembe Mutombo ATL 04/23/1998 ATL @ CHH L 42 10 4 7 57.1 0 0 - 2 4 50.0 5 10 15 1 0 5 3 3 -14
p37
aVChucky Brown ATL 04/23/1998 ATL @ CHH L 7 0 0 1 0.0 0 0 - 0 0 - 0 1 1 0 0 0 1 2 6
p38
aVMookie Blaylock ATL 04/23/1998 ATL @ CHH L 46 19 8 16 50.0 3 9 33.3 0 4 0.0 1 5 6 9 4 1 4 2 -9
p39
aVChristian Laettner ATL 04/23/1998 ATL @ CHH L 28 10 4 12 33.3 0 2 0.0 2 3 66.7 2 2 4 1 1 0 0 4 -8
p40
aVEldridge Recasner ATL 04/23/1998 ATL @ CHH L 22 4 2 6 33.3 0 2 0.0 0 0 - 0 2 2 1 0 0 0 0 -5
p41
a.