(lp0
VPLAYER TEAM DATE MATCHUP W/L MIN PTS FGM FGA FG% 3PM 3PA 3P% FTM FTA FT% OREB DREB REB AST STL BLK TOV PF +/-
p1
aVEddie Jones LAL 05/24/1998 LAL vs. UTA L 46 19 8 16 50.0 1 5 20.0 2 2 100.0 1 3 4 6 1 3 1 2 1
p2
aVCorie Blount LAL 05/24/1998 LAL vs. UTA L 24 0 0 0 - 0 0 - 0 0 - 1 4 5 0 1 1 0 4 -7
p3
aVRobert Horry LAL 05/24/1998 LAL vs. UTA L 21 2 0 1 0.0 0 0 - 2 2 100.0 3 5 8 2 0 1 2 3 -3
p4
aVNick Van Exel LAL 05/24/1998 LAL vs. UTA L 29 11 3 8 37.5 2 4 50.0 3 4 75.0 0 0 0 5 1 0 1 2 -1
p5
aVKobe Bryant LAL 05/24/1998 LAL vs. UTA L 18 6 2 2 100.0 0 0 - 2 3 66.7 0 1 1 0 1 1 3 3 0
p6
aVElden Campbell LAL 05/24/1998 LAL vs. UTA L 12 5 1 7 14.3 0 0 - 3 4 75.0 3 3 6 0 1 1 0 3 -7
p7
aVRick Fox LAL 05/24/1998 LAL vs. UTA L 29 8 3 9 33.3 2 5 40.0 0 0 - 1 4 5 3 1 0 0 4 -1
p8
aVShaquille O'Neal LAL 05/24/1998 LAL vs. UTA L 38 38 14 24 58.3 0 0 - 10 18 55.6 3 4 7 1 1 1 0 4 1
p9
aVDerek Fisher LAL 05/24/1998 LAL vs. UTA L 18 3 1 7 14.3 1 2 50.0 0 0 - 1 0 1 1 1 0 0 4 -3
p10
aVEddie Jones LAL 05/22/1998 LAL vs. UTA L 45 16 6 19 31.6 2 5 40.0 2 2 100.0 1 4 5 3 5 2 1 4 -8
p11
aVRick Fox LAL 05/22/1998 LAL vs. UTA L 36 9 3 7 42.9 2 4 50.0 1 2 50.0 2 1 3 1 1 0 1 6 -14
p12
aVRobert Horry LAL 05/22/1998 LAL vs. UTA L 33 8 2 4 50.0 0 1 0.0 4 6 66.7 2 3 5 2 0 0 3 3 -4
p13
aVCorie Blount LAL 05/22/1998 LAL vs. UTA L 12 0 0 2 0.0 0 0 - 0 0 - 0 2 2 1 0 0 0 0 -2
p14
aVNick Van Exel LAL 05/22/1998 LAL vs. UTA L 30 10 2 13 15.4 1 8 12.5 5 6 83.3 2 4 6 7 0 0 1 3 -13
p15
aVShaquille O'Neal LAL 05/22/1998 LAL vs. UTA L 41 39 17 30 56.7 0 0 - 5 13 38.5 7 8 15 2 0 1 5 6 -9
p16
aVElden Campbell LAL 05/22/1998 LAL vs. UTA L 8 3 1 2 50.0 0 0 - 1 2 50.0 2 2 4 0 0 1 0 0 -7
p17
aVDerek Fisher LAL 05/22/1998 LAL vs. UTA L 17 4 2 4 50.0 0 0 - 0 0 - 0 2 2 4 1 0 0 3 4
p18
aVKobe Bryant LAL 05/22/1998 LAL vs. UTA L 15 9 2 4 50.0 0 1 0.0 5 7 71.4 0 0 0 1 0 0 2 4 -2
p19
aVElden Campbell LAL 05/18/1998 LAL @ UTA L 6 0 0 1 0.0 0 0 - 0 0 - 1 1 2 1 0 1 2 1 -7
p20
aVRick Fox LAL 05/18/1998 LAL @ UTA L 37 7 2 7 28.6 2 6 33.3 1 2 50.0 1 3 4 7 1 0 1 5 6
p21
aVShaquille O'Neal LAL 05/18/1998 LAL @ UTA L 41 31 14 21 66.7 0 0 - 3 8 37.5 2 5 7 1 1 0 2 4 3
p22
aVDerek Fisher LAL 05/18/1998 LAL @ UTA L 21 12 4 9 44.4 0 3 0.0 4 5 80.0 0 2 2 4 1 0 3 5 14
p23
aVKobe Bryant LAL 05/18/1998 LAL @ UTA L 21 9 3 10 30.0 0 1 0.0 3 4 75.0 1 1 2 1 0 0 2 3 -6
p24
aVCorie Blount LAL 05/18/1998 LAL @ UTA L 28 7 2 2 100.0 0 0 - 3 4 75.0 2 8 10 0 1 1 3 6 5
p25
aVNick Van Exel LAL 05/18/1998 LAL @ UTA L 28 9 4 12 33.3 1 4 25.0 0 0 - 1 0 1 1 1 0 2 4 -21
p26
aVRobert Horry LAL 05/18/1998 LAL @ UTA L 20 1 0 2 0.0 0 0 - 1 2 50.0 1 4 5 1 1 0 2 3 -10
p27
aVEddie Jones LAL 05/18/1998 LAL @ UTA L 31 19 5 10 50.0 1 2 50.0 8 9 88.9 1 5 6 4 1 1 1 3 -1
p28
aVJon Barry LAL 05/18/1998 LAL @ UTA L 1 0 0 0 - 0 0 - 0 0 - 0 0 0 0 0 0 0 0 -3
p29
aVKobe Bryant LAL 05/16/1998 LAL @ UTA L 31 16 4 14 28.6 0 5 0.0 8 12 66.7 2 2 4 2 0 1 0 0 -20
p30
aVElden Campbell LAL 05/16/1998 LAL @ UTA L 14 3 1 4 25.0 0 0 - 1 2 50.0 0 1 1 0 0 1 2 1 -12
p31
aVJon Barry LAL 05/16/1998 LAL @ UTA L 8 0 0 6 0.0 0 4 0.0 0 0 - 0 2 2 0 1 0 0 0 -9
p32
aVCorie Blount LAL 05/16/1998 LAL @ UTA L 16 2 1 2 50.0 0 0 - 0 0 - 6 3 9 1 0 0 0 3 -10
p33
aVDerek Fisher LAL 05/16/1998 LAL @ UTA L 25 3 1 3 33.3 0 1 0.0 1 4 25.0 0 1 1 2 1 0 0 0 -13
p34
aVEddie Jones LAL 05/16/1998 LAL @ UTA L 24 6 2 6 33.3 0 2 0.0 2 2 100.0 0 1 1 0 3 1 1 4 -21
p35
aVRobert Horry LAL 05/16/1998 LAL @ UTA L 21 7 2 4 50.0 1 1 100.0 2 2 100.0 3 2 5 2 0 1 0 5 -5
p36
aVSean Rooks LAL 05/16/1998 LAL @ UTA L 5 0 0 4 0.0 0 0 - 0 0 - 1 0 1 0 0 1 0 1 -5
p37
aVRick Fox LAL 05/16/1998 LAL @ UTA L 32 15 5 9 55.6 3 5 60.0 2 2 100.0 1 2 3 2 0 1 0 2 -20
p38
aVNick Van Exel LAL 05/16/1998 LAL @ UTA L 22 6 1 9 11.1 0 5 0.0 4 6 66.7 0 1 1 3 2 0 1 3 -22
p39
aVMario Bennett LAL 05/16/1998 LAL @ UTA L 4 0 0 1 0.0 0 0 - 0 0 - 1 2 3 0 0 0 0 0 -5
p40
aVShaquille O'Neal LAL 05/16/1998 LAL @ UTA L 34 19 6 16 37.5 0 0 - 7 16 43.8 5 3 8 0 0 2 7 4 -33
p41
aVNick Van Exel LAL 05/12/1998 LAL @ SEA W 31 15 4 13 30.8 4 9 44.4 3 4 75.0 2 2 4 3 0 0 3 1 -1
p42
aVEddie Jones LAL 05/12/1998 LAL @ SEA W 36 17 3 7 42.9 2 3 66.7 9 9 100.0 3 0 3 3 0 0 0 3 21
p43
aVCorie Blount LAL 05/12/1998 LAL @ SEA W 18 2 1 2 50.0 0 0 - 0 0 - 0 4 4 0 0 0 0 1 -9
p44
aVRobert Horry LAL 05/12/1998 LAL @ SEA W 36 13 5 7 71.4 1 2 50.0 2 3 66.7 1 10 11 5 1 1 1 4 20
p45
aVDerek Fisher LAL 05/12/1998 LAL @ SEA W 16 2 1 3 33.3 0 1 0.0 0 0 - 0 2 2 6 0 0 1 1 16
p46
aVRick Fox LAL 05/12/1998 LAL @ SEA W 40 17 5 10 50.0 5 8 62.5 2 2 100.0 1 5 6 3 2 0 4 4 19
p47
aVShaquille O'Neal LAL 05/12/1998 LAL @ SEA W 39 31 12 17 70.6 0 0 - 7 12 58.3 1 8 9 4 0 8 5 3 20
p48
aVElden Campbell LAL 05/12/1998 LAL @ SEA W 8 6 2 2 100.0 0 0 - 2 5 40.0 0 0 0 0 0 0 1 3 -5
p49
aVKobe Bryant LAL 05/12/1998 LAL @ SEA W 11 7 3 3 100.0 1 1 100.0 0 0 - 0 1 1 0 0 1 1 2 -6
p50
aVNick Van Exel LAL 05/10/1998 LAL vs. SEA W 31 13 4 10 40.0 3 5 60.0 2 2 100.0 1 1 2 7 1 0 3 1 10
p51
aVElden Campbell LAL 05/10/1998 LAL vs. SEA W 11 2 1 4 25.0 0 0 - 0 0 - 1 2 3 1 0 1 1 1 8
p52
aVShaquille O'Neal LAL 05/10/1998 LAL vs. SEA W 36 39 15 20 75.0 0 0 - 9 12 75.0 3 5 8 7 0 5 0 1 4
p53
aVRobert Horry LAL 05/10/1998 LAL vs. SEA W 42 13 5 9 55.6 2 3 66.7 1 4 25.0 4 3 7 2 0 3 0 3 14
p54
aVEddie Jones LAL 05/10/1998 LAL vs. SEA W 42 32 12 21 57.1 3 6 50.0 5 7 71.4 4 1 5 6 4 0 1 3 14
p55
aVKobe Bryant LAL 05/10/1998 LAL vs. SEA W 3 0 0 0 - 0 0 - 0 0 - 0 0 0 0 0 0 0 0 1
p56
aVJon Barry LAL 05/10/1998 LAL vs. SEA W 0 0 0 0 - 0 0 - 0 0 - 0 0 0 0 0 0 0 1 2
p57
aVCorie Blount LAL 05/10/1998 LAL vs. SEA W 28 6 3 5 60.0 0 0 - 0 3 0.0 4 3 7 1 3 0 0 2 0
p58
aVRick Fox LAL 05/10/1998 LAL vs. SEA W 22 0 0 5 0.0 0 3 0.0 0 0 - 1 4 5 3 0 1 1 3 7
p59
aVDerek Fisher LAL 05/10/1998 LAL vs. SEA W 21 7 3 6 50.0 1 2 50.0 0 0 - 1 1 2 3 1 0 3 3 0
p60
aVCorie Blount LAL 05/08/1998 LAL vs. SEA W 23 4 1 4 25.0 0 0 - 2 2 100.0 4 3 7 2 0 0 0 0 8
p61
aVMario Bennett LAL 05/08/1998 LAL vs. SEA W 1 2 1 1 100.0 0 0 - 0 0 - 1 0 1 0 0 0 0 0 0
p62
aVRobert Horry LAL 05/08/1998 LAL vs. SEA W 40 19 7 7 100.0 1 1 100.0 4 6 66.7 2 7 9 4 1 4 3 3 22
p63
aVElden Campbell LAL 05/08/1998 LAL vs. SEA W 14 2 1 4 25.0 0 0 - 0 2 0.0 2 2 4 1 0 1 1 2 4
p64
aVJon Barry LAL 05/08/1998 LAL vs. SEA W 0 0 0 0 - 0 0 - 0 0 - 0 0 0 0 0 0 0 0 -2
p65
aVNick Van Exel LAL 05/08/1998 LAL vs. SEA W 28 22 8 17 47.1 2 7 28.6 4 4 100.0 1 1 2 4 0 0 0 2 13
p66
aVShaquille O'Neal LAL 05/08/1998 LAL vs. SEA W 33 30 10 18 55.6 0 0 - 10 20 50.0 6 4 10 4 0 3 1 4 14
p67
aVRick Fox LAL 05/08/1998 LAL vs. SEA W 31 6 2 4 50.0 0 2 0.0 2 2 100.0 0 3 3 4 0 0 4 2 2
p68
aVDerek Fisher LAL 05/08/1998 LAL vs. SEA W 27 5 2 5 40.0 0 0 - 1 2 50.0 0 6 6 7 2 0 1 2 -1
p69
aVEddie Jones LAL 05/08/1998 LAL vs. SEA W 39 29 12 17 70.6 4 7 57.1 1 1 100.0 1 3 4 0 1 4 1 2 22
p70
aVSean Rooks LAL 05/08/1998 LAL vs. SEA W 0 0 0 0 - 0 0 - 0 0 - 0 0 0 0 0 0 0 0 -2
p71
aVNick Van Exel LAL 05/06/1998 LAL @ SEA W 23 16 6 13 46.2 3 6 50.0 1 2 50.0 0 3 3 5 0 0 4 0 16
p72
aVEddie Jones LAL 05/06/1998 LAL @ SEA W 38 23 7 13 53.8 3 5 60.0 6 8 75.0 0 5 5 0 0 0 4 1 17
p73
aVDerek Fisher LAL 05/06/1998 LAL @ SEA W 33 6 2 9 22.2 1 4 25.0 1 2 50.0 0 4 4 7 2 0 0 4 15
p74
aVShaquille O'Neal LAL 05/06/1998 LAL @ SEA W 35 26 10 17 58.8 0 0 - 6 6 100.0 3 7 10 1 1 4 3 2 19
p75
aVElden Campbell LAL 05/06/1998 LAL @ SEA W 20 2 1 4 25.0 0 0 - 0 0 - 1 6 7 0 0 2 3 4 18
p76
aVMario Bennett LAL 05/06/1998 LAL @ SEA W 4 2 0 0 - 0 0 - 2 2 100.0 0 2 2 0 0 1 0 2 1
p77
aVCorie Blount LAL 05/06/1998 LAL @ SEA W 16 2 0 2 0.0 0 0 - 2 2 100.0 5 3 8 0 0 0 0 5 9
p78
aVSean Rooks LAL 05/06/1998 LAL @ SEA W 4 4 2 2 100.0 0 0 - 0 0 - 0 0 0 0 0 2 0 1 1
p79
aVRick Fox LAL 05/06/1998 LAL @ SEA W 25 2 1 4 25.0 0 2 0.0 0 0 - 2 3 5 4 1 0 0 2 5
p80
aVJon Barry LAL 05/06/1998 LAL @ SEA W 3 0 0 1 0.0 0 0 - 0 0 - 0 0 0 0 0 0 0 0 2
p81
aVRobert Horry LAL 05/06/1998 LAL @ SEA W 33 9 3 9 33.3 0 2 0.0 3 3 100.0 8 2 10 4 3 0 2 4 17
p82
aVEddie Jones LAL 05/04/1998 LAL @ SEA L 39 9 3 10 30.0 1 1 100.0 2 2 100.0 0 6 6 2 1 2 1 3 -19
p83
aVRick Fox LAL 05/04/1998 LAL @ SEA L 40 14 6 13 46.2 2 3 66.7 0 0 - 1 3 4 10 3 0 2 6 4
p84
aVElden Campbell LAL 05/04/1998 LAL @ SEA L 15 11 5 5 100.0 0 0 - 1 1 100.0 2 1 3 0 1 0 1 1 0
p85
aVRobert Horry LAL 05/04/1998 LAL @ SEA L 32 7 3 5 60.0 0 1 0.0 1 1 100.0 5 2 7 2 2 0 1 4 -1
p86
aVCorie Blount LAL 05/04/1998 LAL @ SEA L 9 0 0 1 0.0 0 0 - 0 0 - 0 0 0 2 0 0 0 0 -5
p87
aVKobe Bryant LAL 05/04/1998 LAL @ SEA L 16 4 1 5 20.0 0 2 0.0 2 4 50.0 1 0 1 0 1 1 0 2 -16
p88
aVNick Van Exel LAL 05/04/1998 LAL @ SEA L 31 14 6 15 40.0 2 6 33.3 0 0 - 0 3 3 6 1 0 3 4 -13
p89
aVDerek Fisher LAL 05/04/1998 LAL @ SEA L 16 6 3 4 75.0 0 1 0.0 0 0 - 0 0 0 2 0 0 3 3 -1
p90
aVShaquille O'Neal LAL 05/04/1998 LAL @ SEA L 37 27 11 20 55.0 0 0 - 5 12 41.7 5 6 11 4 0 0 4 3 -19
p91
aVCorie Blount LAL 04/30/1998 LAL @ POR W 18 6 3 3 100.0 0 0 - 0 0 - 2 4 6 0 0 1 0 4 8
p92
aVEddie Jones LAL 04/30/1998 LAL @ POR W 19 4 1 3 33.3 0 0 - 2 2 100.0 0 2 2 5 2 1 1 3 -18
p93
aVRobert Horry LAL 04/30/1998 LAL @ POR W 24 8 3 5 60.0 0 1 0.0 2 4 50.0 2 3 5 1 1 2 0 3 -2
p94
aVElden Campbell LAL 04/30/1998 LAL @ POR W 12 6 2 2 100.0 0 0 - 2 2 100.0 1 3 4 0 0 0 1 4 -3
p95
aVShaquille O'Neal LAL 04/30/1998 LAL @ POR W 39 31 13 17 76.5 0 0 - 5 9 55.6 1 14 15 5 1 4 4 3 19
p96
aVNick Van Exel LAL 04/30/1998 LAL @ POR W 32 14 5 13 38.5 0 3 0.0 4 5 80.0 0 3 3 7 1 0 2 2 28
p97
aVKobe Bryant LAL 04/30/1998 LAL @ POR W 36 22 9 16 56.3 1 1 100.0 3 4 75.0 0 3 3 4 0 1 1 4 21
p98
aVRick Fox LAL 04/30/1998 LAL @ POR W 39 16 7 13 53.8 1 1 100.0 1 2 50.0 4 5 9 4 0 0 0 2 19
p99
aVDerek Fisher LAL 04/30/1998 LAL @ POR W 15 3 0 2 0.0 0 0 - 3 4 75.0 0 0 0 1 0 0 3 0 -17
p100
aVEddie Jones LAL 04/28/1998 LAL @ POR L 39 12 3 11 27.3 0 4 0.0 6 8 75.0 0 0 0 2 2 1 1 2 -9
p101
aVRick Fox LAL 04/28/1998 LAL @ POR L 40 15 6 12 50.0 1 5 20.0 2 2 100.0 1 2 3 4 0 0 1 3 11
p102
aVDerek Fisher LAL 04/28/1998 LAL @ POR L 28 13 4 9 44.4 2 5 40.0 3 6 50.0 0 2 2 4 4 0 1 4 7
p103
aVShaquille O'Neal LAL 04/28/1998 LAL @ POR L 42 36 16 23 69.6 0 0 - 4 12 33.3 5 11 16 4 1 1 4 1 0
p104
aVRobert Horry LAL 04/28/1998 LAL @ POR L 35 6 3 6 50.0 0 1 0.0 0 0 - 0 5 5 7 0 0 1 5 -3
p105
aVCorie Blount LAL 04/28/1998 LAL @ POR L 4 2 1 1 100.0 0 0 - 0 0 - 0 2 2 0 0 1 0 2 0
p106
aVElden Campbell LAL 04/28/1998 LAL @ POR L 13 4 1 6 16.7 0 0 - 2 3 66.7 1 2 3 1 0 0 0 2 -8
p107
aVNick Van Exel LAL 04/28/1998 LAL @ POR L 19 2 1 6 16.7 0 3 0.0 0 2 0.0 0 2 2 4 0 0 0 2 -12
p108
aVKobe Bryant LAL 04/28/1998 LAL @ POR L 15 4 1 6 16.7 0 2 0.0 2 2 100.0 3 2 5 0 0 0 1 3 -11
p109
aVEddie Jones LAL 04/26/1998 LAL vs. POR W 36 21 5 6 83.3 3 3 100.0 8 14 57.1 0 3 3 1 3 0 2 4 9
p110
aVSean Rooks LAL 04/26/1998 LAL vs. POR W 0 0 0 0 - 0 0 - 0 0 - 0 0 0 0 0 0 0 0 -2
p111
aVElden Campbell LAL 04/26/1998 LAL vs. POR W 19 10 2 4 50.0 0 0 - 6 8 75.0 1 4 5 2 1 3 0 2 -3
p112
aVDerek Fisher LAL 04/26/1998 LAL vs. POR W 22 10 2 3 66.7 1 1 100.0 5 6 83.3 0 1 1 7 2 0 0 2 23
p113
aVKobe Bryant LAL 04/26/1998 LAL vs. POR W 24 4 2 7 28.6 0 0 - 0 0 - 0 3 3 4 0 1 1 2 -3
p114
aVJon Barry LAL 04/26/1998 LAL vs. POR W 0 0 0 1 0.0 0 1 0.0 0 0 - 0 0 0 0 0 0 0 0 -2
p115
aVRobert Horry LAL 04/26/1998 LAL vs. POR W 38 15 5 8 62.5 1 3 33.3 4 6 66.7 0 1 1 3 3 1 1 3 18
p116
aVNick Van Exel LAL 04/26/1998 LAL vs. POR W 25 5 2 9 22.2 1 3 33.3 0 0 - 1 1 2 1 0 0 0 1 -14
p117
aVMario Bennett LAL 04/26/1998 LAL vs. POR W 0 0 0 0 - 0 0 - 0 0 - 0 0 0 0 0 0 0 0 -2
p118
aVShaquille O'Neal LAL 04/26/1998 LAL vs. POR W 36 19 7 15 46.7 0 0 - 5 11 45.5 5 4 9 2 0 2 3 3 7
p119
aVRick Fox LAL 04/26/1998 LAL vs. POR W 34 24 8 14 57.1 2 6 33.3 6 7 85.7 2 3 5 3 2 1 3 3 14
p120
aVShaquille O'Neal LAL 04/24/1998 LAL vs. POR W 40 30 13 20 65.0 0 0 - 4 10 40.0 2 5 7 3 2 3 5 3 6
p121
aVDerek Fisher LAL 04/24/1998 LAL vs. POR W 15 4 2 4 50.0 0 0 - 0 0 - 0 2 2 1 2 0 0 2 -7
p122
aVElden Campbell LAL 04/24/1998 LAL vs. POR W 22 14 5 6 83.3 0 0 - 4 5 80.0 2 1 3 2 0 1 1 3 -7
p123
aVKobe Bryant LAL 04/24/1998 LAL vs. POR W 27 15 4 9 44.4 1 1 100.0 6 9 66.7 0 1 1 4 1 2 0 5 2
p124
aVJon Barry LAL 04/24/1998 LAL vs. POR W 0 0 0 0 - 0 0 - 0 0 - 0 0 0 0 0 0 0 0 2
p125
aVRick Fox LAL 04/24/1998 LAL vs. POR W 19 9 3 7 42.9 1 3 33.3 2 2 100.0 1 2 3 3 0 0 4 5 -4
p126
aVNick Van Exel LAL 04/24/1998 LAL vs. POR W 32 14 4 13 30.8 3 7 42.9 3 5 60.0 1 2 3 1 1 1 2 5 9
p127
aVEddie Jones LAL 04/24/1998 LAL vs. POR W 34 14 2 9 22.2 0 5 0.0 10 10 100.0 1 6 7 0 3 6 2 3 6
p128
aVCorie Blount LAL 04/24/1998 LAL vs. POR W 7 0 0 0 - 0 0 - 0 0 - 0 4 4 0 1 0 0 0 -2
p129
aVRobert Horry LAL 04/24/1998 LAL vs. POR W 38 4 1 3 33.3 0 1 0.0 2 2 100.0 3 3 6 5 2 1 2 2 5
p130
a.