(lp0
VPLAYER TEAM DATE MATCHUP W/L MIN PTS FGM FGA FG% 3PM 3PA 3P% FTM FTA FT% OREB DREB REB AST STL BLK TOV PF +/-
p1
aVDavid Vaughn NJN 04/29/1998 NJN vs. CHI L 0 0 0 0 - 0 0 - 0 0 - 0 0 0 0 0 1 0 0 0
p2
aVChris Gatling NJN 04/29/1998 NJN vs. CHI L 27 18 7 12 58.3 0 0 - 4 6 66.7 2 1 3 1 1 0 3 3 -14
p3
aVSam Cassell NJN 04/29/1998 NJN vs. CHI L 2 2 1 1 100.0 0 0 - 0 0 - 0 0 0 0 0 1 0 0 -3
p4
aVJayson Williams NJN 04/29/1998 NJN vs. CHI L 36 3 1 3 33.3 0 0 - 1 2 50.0 4 6 10 3 2 2 1 2 -8
p5
aVKeith Van Horn NJN 04/29/1998 NJN vs. CHI L 32 18 5 9 55.6 0 0 - 8 11 72.7 0 0 0 0 0 0 1 2 -10
p6
aVBrian Evans NJN 04/29/1998 NJN vs. CHI L 1 0 0 0 - 0 0 - 0 0 - 0 1 1 0 0 0 0 0 -1
p7
aVKendall Gill NJN 04/29/1998 NJN vs. CHI L 24 17 8 13 61.5 0 0 - 1 2 50.0 1 2 3 0 0 0 2 4 -9
p8
aVSherman Douglas NJN 04/29/1998 NJN vs. CHI L 45 19 9 15 60.0 1 2 50.0 0 0 - 0 0 0 8 1 0 2 1 -12
p9
aVLucious Harris NJN 04/29/1998 NJN vs. CHI L 15 4 2 3 66.7 0 1 0.0 0 0 - 0 0 0 1 2 0 0 3 0
p10
aVKerry Kittles NJN 04/29/1998 NJN vs. CHI L 44 16 5 8 62.5 2 5 40.0 4 4 100.0 0 3 3 4 1 1 2 1 -15
p11
aVRony Seikaly NJN 04/29/1998 NJN vs. CHI L 9 4 1 1 100.0 0 0 - 2 3 66.7 0 1 1 0 0 0 1 1 -3
p12
aVSherman Douglas NJN 04/26/1998 NJN @ CHI L 43 20 7 18 38.9 1 2 50.0 5 6 83.3 1 1 2 12 4 0 5 2 -2
p13
aVSam Cassell NJN 04/26/1998 NJN @ CHI L 6 0 0 2 0.0 0 0 - 0 0 - 0 2 2 2 0 0 1 2 -2
p14
aVKendall Gill NJN 04/26/1998 NJN @ CHI L 30 12 5 13 38.5 0 0 - 2 2 100.0 2 5 7 1 2 0 1 5 4
p15
aVLucious Harris NJN 04/26/1998 NJN @ CHI L 16 2 0 2 0.0 0 1 0.0 2 2 100.0 0 2 2 0 0 0 2 4 -5
p16
aVBrian Evans NJN 04/26/1998 NJN @ CHI L 0 0 0 0 - 0 0 - 0 0 - 0 0 0 0 0 0 0 0 -1
p17
aVKeith Van Horn NJN 04/26/1998 NJN @ CHI L 28 10 4 12 33.3 0 0 - 2 2 100.0 2 3 5 0 0 0 1 4 1
p18
aVJayson Williams NJN 04/26/1998 NJN @ CHI L 36 10 4 9 44.4 0 0 - 2 2 100.0 5 6 11 0 0 1 0 2 1
p19
aVKerry Kittles NJN 04/26/1998 NJN @ CHI L 43 23 9 15 60.0 3 5 60.0 2 3 66.7 0 7 7 1 1 0 3 6 -5
p20
aVRony Seikaly NJN 04/26/1998 NJN @ CHI L 18 10 5 6 83.3 0 0 - 0 0 - 3 1 4 0 0 0 2 2 0
p21
aVChris Gatling NJN 04/26/1998 NJN @ CHI L 16 4 2 8 25.0 0 0 - 0 0 - 2 2 4 1 0 0 0 4 -16
p22
aVLucious Harris NJN 04/24/1998 NJN @ CHI L 19 3 0 1 0.0 0 0 - 3 4 75.0 1 5 6 0 0 0 0 4 7
p23
aVSherman Douglas NJN 04/24/1998 NJN @ CHI L 37 16 7 11 63.6 0 1 0.0 2 4 50.0 0 6 6 5 1 0 6 2 4
p24
aVKendall Gill NJN 04/24/1998 NJN @ CHI L 44 14 5 14 35.7 0 0 - 4 4 100.0 0 3 3 2 2 1 1 6 -12
p25
aVBrian Evans NJN 04/24/1998 NJN @ CHI L 0 0 0 0 - 0 0 - 0 0 - 0 0 0 0 0 0 0 0 0
p26
aVChris Gatling NJN 04/24/1998 NJN @ CHI L 36 24 10 18 55.6 0 0 - 4 6 66.7 2 1 3 0 1 2 0 2 0
p27
aVRony Seikaly NJN 04/24/1998 NJN @ CHI L 10 4 1 2 50.0 0 0 - 2 3 66.7 0 4 4 0 1 0 1 1 -1
p28
aVKeith Van Horn NJN 04/24/1998 NJN @ CHI L 15 10 4 8 50.0 0 2 0.0 2 2 100.0 0 4 4 1 0 0 0 1 0
p29
aVJayson Williams NJN 04/24/1998 NJN @ CHI L 44 8 4 9 44.4 0 0 - 0 2 0.0 11 10 21 2 0 0 1 4 -5
p30
aVSam Cassell NJN 04/24/1998 NJN @ CHI L 17 4 2 6 33.3 0 0 - 0 0 - 1 0 1 3 0 0 1 5 -8
p31
aVKerry Kittles NJN 04/24/1998 NJN @ CHI L 38 10 3 17 17.6 0 3 0.0 4 4 100.0 0 5 5 3 2 1 2 5 0
p32
a.