(lp0
VPLAYER TEAM DATE MATCHUP W/L MIN PTS FGM FGA FG% 3PM 3PA 3P% FTM FTA FT% OREB DREB REB AST STL BLK TOV PF +/-
p1
aVRik Smits IND 05/31/1998 IND @ CHI L 27 13 3 7 42.9 0 0 - 7 8 87.5 0 4 4 3 0 0 2 5 3
p2
aVReggie Miller IND 05/31/1998 IND @ CHI L 40 22 7 13 53.8 4 7 57.1 4 4 100.0 0 0 0 4 2 0 2 3 -1
p3
aVAntonio Davis IND 05/31/1998 IND @ CHI L 22 7 2 4 50.0 0 0 - 3 4 75.0 2 8 10 0 0 0 2 6 -4
p4
aVJalen Rose IND 05/31/1998 IND @ CHI L 15 7 3 4 75.0 0 0 - 1 3 33.3 0 1 1 0 0 0 1 1 -9
p5
aVTravis Best IND 05/31/1998 IND @ CHI L 17 4 2 5 40.0 0 2 0.0 0 1 0.0 0 1 1 1 1 0 1 4 -5
p6
aVChris Mullin IND 05/31/1998 IND @ CHI L 20 7 3 5 60.0 0 1 0.0 1 1 100.0 0 3 3 1 0 0 1 4 6
p7
aVDale Davis IND 05/31/1998 IND @ CHI L 36 9 3 6 50.0 0 0 - 3 10 30.0 2 7 9 3 1 2 0 2 -5
p8
aVDerrick McKey IND 05/31/1998 IND @ CHI L 27 3 1 4 25.0 0 2 0.0 1 2 50.0 0 2 2 0 0 0 1 5 -10
p9
aVMark Jackson IND 05/31/1998 IND @ CHI L 31 11 3 8 37.5 2 4 50.0 3 4 75.0 0 4 4 6 1 0 2 3 0
p10
aVDale Davis IND 05/29/1998 IND vs. CHI W 32 19 7 9 77.8 0 0 - 5 10 50.0 4 4 8 0 1 3 0 1 -3
p11
aVRik Smits IND 05/29/1998 IND vs. CHI W 31 25 11 12 91.7 0 0 - 3 4 75.0 0 2 2 1 0 0 1 5 0
p12
aVDerrick McKey IND 05/29/1998 IND vs. CHI W 15 5 1 3 33.3 0 0 - 3 4 75.0 2 2 4 0 1 0 1 4 3
p13
aVChris Mullin IND 05/29/1998 IND vs. CHI W 13 2 1 3 33.3 0 2 0.0 0 0 - 0 0 0 0 0 0 0 2 -1
p14
aVJalen Rose IND 05/29/1998 IND vs. CHI W 26 8 3 10 30.0 0 2 0.0 2 4 50.0 0 3 3 2 1 1 0 5 8
p15
aVAntonio Davis IND 05/29/1998 IND vs. CHI W 31 6 2 4 50.0 0 0 - 2 6 33.3 3 3 6 3 0 2 1 4 9
p16
aVMark Jackson IND 05/29/1998 IND vs. CHI W 27 13 4 10 40.0 3 6 50.0 2 2 100.0 1 3 4 3 1 0 3 0 1
p17
aVTravis Best IND 05/29/1998 IND vs. CHI W 20 6 2 6 33.3 0 1 0.0 2 2 100.0 0 0 0 3 2 0 0 1 2
p18
aVReggie Miller IND 05/29/1998 IND vs. CHI W 41 8 2 13 15.4 1 7 14.3 3 3 100.0 0 2 2 0 1 0 1 1 -4
p19
aVMark West IND 05/27/1998 IND @ CHI L 4 2 1 1 100.0 0 0 - 0 1 0.0 1 0 1 0 0 0 0 2 9
p20
aVMark Jackson IND 05/27/1998 IND @ CHI L 26 5 2 7 28.6 1 2 50.0 0 1 0.0 1 2 3 5 2 0 2 2 -22
p21
aVAntonio Davis IND 05/27/1998 IND @ CHI L 28 12 2 7 28.6 0 0 - 8 11 72.7 1 6 7 1 0 0 2 6 -16
p22
aVReggie Miller IND 05/27/1998 IND @ CHI L 31 14 5 10 50.0 2 4 50.0 2 3 66.7 0 1 1 2 0 0 2 1 -17
p23
aVRik Smits IND 05/27/1998 IND @ CHI L 30 12 3 11 27.3 0 0 - 6 6 100.0 2 5 7 0 1 0 1 3 -15
p24
aVMark Pope IND 05/27/1998 IND @ CHI L 8 0 0 0 - 0 0 - 0 0 - 0 0 0 0 0 0 1 3 4
p25
aVFred Hoiberg IND 05/27/1998 IND @ CHI L 16 6 2 7 28.6 0 1 0.0 2 2 100.0 1 2 3 1 1 0 0 2 -2
p26
aVDerrick McKey IND 05/27/1998 IND @ CHI L 22 6 2 5 40.0 0 0 - 2 2 100.0 0 2 2 2 0 0 1 2 -11
p27
aVChris Mullin IND 05/27/1998 IND @ CHI L 19 8 2 6 33.3 1 2 50.0 3 3 100.0 2 2 4 1 1 0 1 3 -18
p28
aVDale Davis IND 05/27/1998 IND @ CHI L 30 8 3 5 60.0 0 0 - 2 4 50.0 2 2 4 0 0 5 3 4 -10
p29
aVTravis Best IND 05/27/1998 IND @ CHI L 21 14 1 8 12.5 1 2 50.0 11 12 91.7 0 3 3 1 0 0 0 1 3
p30
aVMark Jackson IND 05/25/1998 IND vs. CHI W 25 8 3 9 33.3 2 2 100.0 0 0 - 3 0 3 7 1 0 1 2 -1
p31
aVDale Davis IND 05/25/1998 IND vs. CHI W 20 12 6 8 75.0 0 0 - 0 0 - 4 1 5 1 0 0 1 1 -5
p32
aVJalen Rose IND 05/25/1998 IND vs. CHI W 14 8 3 5 60.0 2 2 100.0 0 0 - 0 4 4 1 0 0 0 3 -9
p33
aVRik Smits IND 05/25/1998 IND vs. CHI W 37 26 10 17 58.8 0 0 - 6 7 85.7 3 2 5 2 0 2 1 2 9
p34
aVChris Mullin IND 05/25/1998 IND vs. CHI W 19 3 1 10 10.0 1 3 33.3 0 0 - 5 4 9 0 0 0 1 4 0
p35
aVTravis Best IND 05/25/1998 IND vs. CHI W 22 10 4 8 50.0 2 4 50.0 0 0 - 0 1 1 3 1 0 1 3 3
p36
aVReggie Miller IND 05/25/1998 IND vs. CHI W 42 15 5 11 45.5 3 5 60.0 2 2 100.0 0 2 2 3 2 0 0 1 7
p37
aVDerrick McKey IND 05/25/1998 IND vs. CHI W 27 6 2 6 33.3 1 2 50.0 1 1 100.0 0 0 0 3 0 0 1 3 2
p38
aVAntonio Davis IND 05/25/1998 IND vs. CHI W 29 8 4 7 57.1 0 0 - 0 2 0.0 0 3 3 3 1 0 1 1 4
p39
aVDale Davis IND 05/23/1998 IND vs. CHI W 28 6 2 4 50.0 0 0 - 2 2 100.0 3 5 8 0 0 1 2 3 6
p40
aVChris Mullin IND 05/23/1998 IND vs. CHI W 19 5 2 4 50.0 1 1 100.0 0 1 0.0 0 0 0 2 1 0 0 1 6
p41
aVMark Pope IND 05/23/1998 IND vs. CHI W 4 2 1 1 100.0 0 0 - 0 0 - 0 0 0 0 1 0 0 0 -1
p42
aVReggie Miller IND 05/23/1998 IND vs. CHI W 33 28 9 15 60.0 4 7 57.1 6 6 100.0 0 1 1 2 1 0 1 3 -1
p43
aVJalen Rose IND 05/23/1998 IND vs. CHI W 28 15 6 11 54.5 1 1 100.0 2 2 100.0 0 2 2 6 1 1 4 4 0
p44
aVTravis Best IND 05/23/1998 IND vs. CHI W 24 11 2 6 33.3 0 1 0.0 7 8 87.5 0 1 1 4 0 1 2 5 -1
p45
aVMark Jackson IND 05/23/1998 IND vs. CHI W 23 13 6 8 75.0 1 2 50.0 0 0 - 0 0 0 6 2 0 2 2 3
p46
aVDerrick McKey IND 05/23/1998 IND vs. CHI W 22 5 2 7 28.6 0 0 - 1 2 50.0 2 0 2 0 0 0 0 3 -5
p47
aVAntonio Davis IND 05/23/1998 IND vs. CHI W 27 10 3 5 60.0 0 0 - 4 6 66.7 6 6 12 1 1 1 1 6 1
p48
aVRik Smits IND 05/23/1998 IND vs. CHI W 28 12 3 6 50.0 0 0 - 6 7 85.7 0 3 3 1 0 1 1 4 2
p49
aVDale Davis IND 05/19/1998 IND @ CHI L 21 9 3 4 75.0 0 0 - 3 5 60.0 4 5 9 2 0 0 0 4 2
p50
aVJalen Rose IND 05/19/1998 IND @ CHI L 8 2 1 2 50.0 0 0 - 0 0 - 1 0 1 2 0 0 1 4 -12
p51
aVReggie Miller IND 05/19/1998 IND @ CHI L 41 19 4 13 30.8 1 3 33.3 10 11 90.9 1 2 3 3 0 0 1 1 -3
p52
aVAntonio Davis IND 05/19/1998 IND @ CHI L 32 14 5 9 55.6 0 0 - 4 5 80.0 2 5 7 2 1 1 3 3 -3
p53
aVMark Jackson IND 05/19/1998 IND @ CHI L 32 8 4 9 44.4 0 1 0.0 0 0 - 2 6 8 8 1 0 7 1 -1
p54
aVChris Mullin IND 05/19/1998 IND @ CHI L 31 18 6 10 60.0 1 5 20.0 5 5 100.0 0 5 5 2 0 1 4 5 3
p55
aVDerrick McKey IND 05/19/1998 IND @ CHI L 17 9 3 7 42.9 1 2 50.0 2 2 100.0 0 2 2 1 0 0 1 4 -4
p56
aVRik Smits IND 05/19/1998 IND @ CHI L 30 17 7 11 63.6 0 0 - 3 4 75.0 1 7 8 0 0 0 1 5 2
p57
aVMark Pope IND 05/19/1998 IND @ CHI L 7 0 0 0 - 0 0 - 0 0 - 0 1 1 0 0 0 0 1 -9
p58
aVTravis Best IND 05/19/1998 IND @ CHI L 15 2 1 4 25.0 0 1 0.0 0 0 - 0 2 2 2 0 0 1 2 -5
p59
aVTravis Best IND 05/17/1998 IND @ CHI L 14 7 3 6 50.0 0 1 0.0 1 2 50.0 0 0 0 3 0 0 1 3 -1
p60
aVChris Mullin IND 05/17/1998 IND @ CHI L 25 2 1 4 25.0 0 2 0.0 0 0 - 1 2 3 1 0 0 2 1 -21
p61
aVDerrick McKey IND 05/17/1998 IND @ CHI L 16 4 1 3 33.3 0 0 - 2 4 50.0 0 2 2 1 3 0 1 4 6
p62
aVRik Smits IND 05/17/1998 IND @ CHI L 33 9 4 10 40.0 0 0 - 1 2 50.0 0 7 7 1 0 1 4 4 -9
p63
aVMark Jackson IND 05/17/1998 IND @ CHI L 33 12 5 12 41.7 0 2 0.0 2 2 100.0 0 7 7 6 3 0 7 3 -5
p64
aVAntonio Davis IND 05/17/1998 IND @ CHI L 30 12 3 3 100.0 0 0 - 6 8 75.0 3 8 11 1 0 3 3 4 5
p65
aVReggie Miller IND 05/17/1998 IND @ CHI L 38 16 5 14 35.7 2 6 33.3 4 5 80.0 0 2 2 0 1 0 1 2 -1
p66
aVMark Pope IND 05/17/1998 IND @ CHI L 4 0 0 0 - 0 0 - 0 0 - 0 1 1 0 0 0 0 2 2
p67
aVDale Davis IND 05/17/1998 IND @ CHI L 23 10 5 6 83.3 0 0 - 0 2 0.0 3 5 8 0 0 0 4 4 -15
p68
aVJalen Rose IND 05/17/1998 IND @ CHI L 19 7 3 8 37.5 1 1 100.0 0 0 - 0 3 3 2 0 0 2 1 9
p69
aVDerrick McKey IND 05/13/1998 IND vs. NYK W 15 2 1 7 14.3 0 1 0.0 0 0 - 0 1 1 0 0 1 0 2 -7
p70
aVTravis Best IND 05/13/1998 IND vs. NYK W 11 2 1 3 33.3 0 1 0.0 0 0 - 0 0 0 0 0 0 2 1 -3
p71
aVDale Davis IND 05/13/1998 IND vs. NYK W 30 5 2 5 40.0 0 0 - 1 2 50.0 2 6 8 0 0 0 1 2 6
p72
aVAntonio Davis IND 05/13/1998 IND vs. NYK W 29 12 2 5 40.0 0 0 - 8 12 66.7 2 4 6 1 1 3 2 2 0
p73
aVMark Jackson IND 05/13/1998 IND vs. NYK W 37 22 6 12 50.0 0 2 0.0 10 10 100.0 3 11 14 13 0 0 4 1 14
p74
aVRik Smits IND 05/13/1998 IND vs. NYK W 31 22 10 15 66.7 0 0 - 2 2 100.0 3 6 9 2 0 0 0 2 21
p75
aVReggie Miller IND 05/13/1998 IND vs. NYK W 42 24 7 14 50.0 2 5 40.0 8 8 100.0 3 2 5 4 1 2 0 2 11
p76
aVChris Mullin IND 05/13/1998 IND vs. NYK W 30 8 3 9 33.3 2 4 50.0 0 0 - 0 3 3 1 1 0 3 3 18
p77
aVJalen Rose IND 05/13/1998 IND vs. NYK W 10 2 1 1 100.0 0 0 - 0 0 - 0 0 0 2 1 0 2 1 -5
p78
aVMark West IND 05/10/1998 IND @ NYK W 0 0 0 0 - 0 0 - 0 0 - 0 0 0 0 0 0 0 0 -1
p79
aVReggie Miller IND 05/10/1998 IND @ NYK W 47 38 10 26 38.5 5 13 38.5 13 14 92.9 0 0 0 1 2 0 1 3 15
p80
aVMark Jackson IND 05/10/1998 IND @ NYK W 41 16 6 10 60.0 3 3 100.0 1 2 50.0 1 5 6 15 1 0 2 0 17
p81
aVRik Smits IND 05/10/1998 IND @ NYK W 34 23 11 18 61.1 0 0 - 1 2 50.0 1 7 8 2 0 1 2 5 17
p82
aVChris Mullin IND 05/10/1998 IND @ NYK W 46 18 7 12 58.3 2 6 33.3 2 4 50.0 2 3 5 4 5 0 4 0 19
p83
aVJalen Rose IND 05/10/1998 IND @ NYK W 13 6 2 5 40.0 0 1 0.0 2 2 100.0 0 2 2 1 0 0 1 1 -9
p84
aVTravis Best IND 05/10/1998 IND @ NYK W 11 4 1 1 100.0 0 0 - 2 2 100.0 0 0 0 0 1 0 2 1 -6
p85
aVMark Pope IND 05/10/1998 IND @ NYK W 7 2 1 2 50.0 0 0 - 0 0 - 1 0 1 0 0 0 0 1 1
p86
aVDale Davis IND 05/10/1998 IND @ NYK W 29 5 2 4 50.0 0 0 - 1 2 50.0 2 4 6 0 1 0 1 4 -5
p87
aVAntonio Davis IND 05/10/1998 IND @ NYK W 31 6 1 6 16.7 0 0 - 4 4 100.0 4 5 9 0 2 2 1 6 7
p88
aVJalen Rose IND 05/09/1998 IND @ NYK L 14 7 3 8 37.5 0 2 0.0 1 1 100.0 0 2 2 0 1 0 3 2 -14
p89
aVRik Smits IND 05/09/1998 IND @ NYK L 21 9 4 7 57.1 0 0 - 1 2 50.0 1 2 3 0 0 0 0 6 3
p90
aVMark Jackson IND 05/09/1998 IND @ NYK L 34 8 3 9 33.3 0 1 0.0 2 2 100.0 0 4 4 9 2 0 4 2 8
p91
aVAntonio Davis IND 05/09/1998 IND @ NYK L 32 5 2 4 50.0 0 0 - 1 4 25.0 2 2 4 1 1 0 1 2 -19
p92
aVChris Mullin IND 05/09/1998 IND @ NYK L 38 16 5 9 55.6 2 5 40.0 4 4 100.0 0 3 3 4 2 0 2 1 2
p93
aVDale Davis IND 05/09/1998 IND @ NYK L 33 6 2 5 40.0 0 0 - 2 10 20.0 2 7 9 0 0 0 4 1 11
p94
aVReggie Miller IND 05/09/1998 IND @ NYK L 38 23 7 13 53.8 1 5 20.0 8 9 88.9 0 2 2 0 0 0 2 3 8
p95
aVDerrick McKey IND 05/09/1998 IND @ NYK L 12 0 0 3 0.0 0 0 - 0 0 - 0 0 0 1 0 1 0 4 -19
p96
aVTravis Best IND 05/09/1998 IND @ NYK L 13 2 1 3 33.3 0 0 - 0 0 - 0 0 0 1 0 0 1 0 -15
p97
aVTravis Best IND 05/07/1998 IND vs. NYK W 20 4 1 3 33.3 0 0 - 2 2 100.0 0 2 2 2 1 0 0 1 8
p98
aVReggie Miller IND 05/07/1998 IND vs. NYK W 41 21 8 18 44.4 2 5 40.0 3 4 75.0 0 1 1 1 2 0 1 1 8
p99
aVDale Davis IND 05/07/1998 IND vs. NYK W 29 4 2 4 50.0 0 0 - 0 0 - 3 6 9 3 0 1 0 0 2
p100
aVChris Mullin IND 05/07/1998 IND vs. NYK W 20 8 3 10 30.0 2 5 40.0 0 0 - 0 2 2 3 0 1 0 4 -12
p101
aVJalen Rose IND 05/07/1998 IND vs. NYK W 18 7 2 6 33.3 0 1 0.0 3 3 100.0 0 2 2 0 1 0 0 2 0
p102
aVAntonio Davis IND 05/07/1998 IND vs. NYK W 26 9 2 3 66.7 0 0 - 5 9 55.6 1 5 6 0 1 1 1 2 9
p103
aVMark Jackson IND 05/07/1998 IND vs. NYK W 27 2 0 3 0.0 0 1 0.0 2 2 100.0 0 2 2 5 0 0 4 1 0
p104
aVRik Smits IND 05/07/1998 IND vs. NYK W 37 22 8 18 44.4 0 0 - 6 6 100.0 0 4 4 1 2 3 1 3 7
p105
aVDerrick McKey IND 05/07/1998 IND vs. NYK W 19 8 3 6 50.0 0 1 0.0 2 2 100.0 1 6 7 0 0 1 1 2 18
p106
aVTravis Best IND 05/05/1998 IND vs. NYK W 27 18 4 8 50.0 0 1 0.0 10 10 100.0 0 1 1 5 3 0 4 3 18
p107
aVChris Mullin IND 05/05/1998 IND vs. NYK W 21 5 2 5 40.0 1 4 25.0 0 0 - 0 4 4 0 1 0 1 1 -21
p108
aVJalen Rose IND 05/05/1998 IND vs. NYK W 26 18 6 8 75.0 1 1 100.0 5 5 100.0 0 2 2 2 2 2 2 2 31
p109
aVMark Jackson IND 05/05/1998 IND vs. NYK W 20 3 1 4 25.0 0 2 0.0 1 2 50.0 2 4 6 6 3 0 0 1 -8
p110
aVRik Smits IND 05/05/1998 IND vs. NYK W 23 8 3 19 15.8 0 0 - 2 2 100.0 2 3 5 1 1 1 3 2 -6
p111
aVReggie Miller IND 05/05/1998 IND vs. NYK W 34 17 6 13 46.2 3 4 75.0 2 2 100.0 1 1 2 0 0 1 3 1 -8
p112
aVDale Davis IND 05/05/1998 IND vs. NYK W 31 4 1 3 33.3 0 0 - 2 4 50.0 3 8 11 0 0 0 1 1 7
p113
aVAntonio Davis IND 05/05/1998 IND vs. NYK W 30 14 5 9 55.6 0 0 - 4 6 66.7 4 3 7 0 2 1 1 4 25
p114
aVDerrick McKey IND 05/05/1998 IND vs. NYK W 23 6 2 5 40.0 0 0 - 2 2 100.0 0 6 6 0 0 0 1 3 12
p115
aVMark Jackson IND 04/30/1998 IND @ CLE W 30 2 1 5 20.0 0 1 0.0 0 0 - 1 2 3 6 1 0 5 3 -1
p116
aVTravis Best IND 04/30/1998 IND @ CLE W 17 6 2 5 40.0 2 3 66.7 0 0 - 1 1 2 3 0 0 3 4 7
p117
aVDerrick McKey IND 04/30/1998 IND @ CLE W 15 4 1 1 100.0 0 0 - 2 2 100.0 1 3 4 1 1 2 1 5 16
p118
aVJalen Rose IND 04/30/1998 IND @ CLE W 19 4 2 5 40.0 0 1 0.0 0 0 - 0 2 2 3 0 0 3 3 6
p119
aVMark West IND 04/30/1998 IND @ CLE W 2 1 0 0 - 0 0 - 1 2 50.0 0 0 0 0 0 0 0 1 -2
p120
aVChris Mullin IND 04/30/1998 IND @ CLE W 38 12 5 6 83.3 1 1 100.0 1 1 100.0 0 4 4 2 2 2 1 2 0
p121
aVMark Pope IND 04/30/1998 IND @ CLE W 4 0 0 0 - 0 0 - 0 0 - 0 0 0 0 0 0 0 1 -3
p122
aVAntonio Davis IND 04/30/1998 IND @ CLE W 29 11 3 7 42.9 0 0 - 5 5 100.0 6 3 9 1 1 1 1 5 9
p123
aVRik Smits IND 04/30/1998 IND @ CLE W 26 17 7 15 46.7 0 1 0.0 3 4 75.0 2 4 6 3 1 1 1 5 -7
p124
aVReggie Miller IND 04/30/1998 IND @ CLE W 37 19 7 16 43.8 2 5 40.0 3 4 75.0 0 3 3 3 2 0 8 2 6
p125
aVDale Davis IND 04/30/1998 IND @ CLE W 17 4 2 2 100.0 0 0 - 0 0 - 0 2 2 0 1 1 1 4 -1
p126
aVDale Davis IND 04/27/1998 IND @ CLE L 33 11 4 5 80.0 0 0 - 3 4 75.0 5 4 9 0 0 1 1 5 -5
p127
aVDerrick McKey IND 04/27/1998 IND @ CLE L 12 4 2 5 40.0 0 0 - 0 0 - 0 2 2 0 0 1 1 3 -19
p128
aVChris Mullin IND 04/27/1998 IND @ CLE L 20 6 2 5 40.0 1 3 33.3 1 1 100.0 0 1 1 0 0 1 1 1 7
p129
aVMark Jackson IND 04/27/1998 IND @ CLE L 34 3 1 6 16.7 0 3 0.0 1 2 50.0 0 1 1 17 4 0 1 3 4
p130
aVReggie Miller IND 04/27/1998 IND @ CLE L 43 18 7 16 43.8 2 8 25.0 2 2 100.0 0 2 2 3 1 0 4 0 -6
p131
aVAntonio Davis IND 04/27/1998 IND @ CLE L 21 2 0 4 0.0 0 0 - 2 2 100.0 0 3 3 0 1 1 0 5 -5
p132
aVJalen Rose IND 04/27/1998 IND @ CLE L 27 7 3 10 30.0 1 3 33.3 0 0 - 0 1 1 3 1 0 3 3 -18
p133
aVRik Smits IND 04/27/1998 IND @ CLE L 32 26 11 17 64.7 0 0 - 4 4 100.0 0 8 8 1 0 1 2 6 10
p134
aVTravis Best IND 04/27/1998 IND @ CLE L 13 0 0 1 0.0 0 0 - 0 0 - 0 2 2 1 1 1 1 1 -13
p135
aVAntonio Davis IND 04/25/1998 IND vs. CLE W 24 10 5 8 62.5 0 0 - 0 0 - 1 3 4 0 0 1 3 6 10
p136
aVDale Davis IND 04/25/1998 IND vs. CLE W 37 17 8 9 88.9 0 0 - 1 4 25.0 4 6 10 1 0 1 2 4 7
p137
aVChris Mullin IND 04/25/1998 IND vs. CLE W 24 4 1 6 16.7 1 3 33.3 1 1 100.0 3 2 5 1 1 3 0 0 3
p138
aVMark Jackson IND 04/25/1998 IND vs. CLE W 36 12 5 11 45.5 2 4 50.0 0 0 - 2 2 4 11 1 0 1 1 12
p139
aVTravis Best IND 04/25/1998 IND vs. CLE W 11 0 0 1 0.0 0 0 - 0 0 - 0 0 0 0 0 0 0 1 -6
p140
aVRik Smits IND 04/25/1998 IND vs. CLE W 24 14 6 15 40.0 0 0 - 2 2 100.0 1 2 3 1 1 2 0 6 -2
p141
aVReggie Miller IND 04/25/1998 IND vs. CLE W 43 18 5 16 31.3 2 5 40.0 6 6 100.0 0 1 1 2 2 0 0 0 9
p142
aVJalen Rose IND 04/25/1998 IND vs. CLE W 24 17 7 8 87.5 0 0 - 3 4 75.0 0 1 1 3 1 1 1 2 3
p143
aVDerrick McKey IND 04/25/1998 IND vs. CLE W 14 0 0 4 0.0 0 1 0.0 0 0 - 1 0 1 0 1 1 1 4 -6
p144
aVChris Mullin IND 04/23/1998 IND vs. CLE W 22 20 8 9 88.9 4 5 80.0 0 0 - 0 6 6 1 1 1 3 0 18
p145
aVMark Pope IND 04/23/1998 IND vs. CLE W 4 5 2 3 66.7 0 1 0.0 1 1 100.0 1 1 2 1 0 0 0 0 5
p146
aVReggie Miller IND 04/23/1998 IND vs. CLE W 30 19 4 9 44.4 2 6 33.3 9 11 81.8 0 1 1 4 2 0 0 2 24
p147
aVDerrick McKey IND 04/23/1998 IND vs. CLE W 21 5 2 3 66.7 1 1 100.0 0 0 - 1 4 5 2 3 1 0 2 5
p148
aVJalen Rose IND 04/23/1998 IND vs. CLE W 23 7 3 9 33.3 0 1 0.0 1 3 33.3 0 1 1 1 2 1 2 3 10
p149
aVFred Hoiberg IND 04/23/1998 IND vs. CLE W 3 3 1 1 100.0 1 1 100.0 0 0 - 0 1 1 0 0 0 0 0 5
p150
aVRik Smits IND 04/23/1998 IND vs. CLE W 23 10 4 11 36.4 0 0 - 2 2 100.0 1 2 3 1 2 1 1 4 6
p151
aVDale Davis IND 04/23/1998 IND vs. CLE W 29 12 4 7 57.1 0 0 - 4 5 80.0 1 4 5 2 1 3 0 2 21
p152
aVAntonio Davis IND 04/23/1998 IND vs. CLE W 28 9 1 6 16.7 0 0 - 7 10 70.0 0 4 4 0 0 1 2 3 17
p153
aVMark West IND 04/23/1998 IND vs. CLE W 3 0 0 1 0.0 0 0 - 0 0 - 0 0 0 0 0 0 0 1 5
p154
aVTravis Best IND 04/23/1998 IND vs. CLE W 16 7 2 4 50.0 0 1 0.0 3 4 75.0 0 1 1 2 1 1 0 5 3
p155
aVMark Jackson IND 04/23/1998 IND vs. CLE W 31 9 3 4 75.0 0 1 0.0 3 5 60.0 2 2 4 10 0 0 2 3 26
p156
a.