(lp0
VPLAYER TEAM DATE MATCHUP W/L MIN PTS FGM FGA FG% 3PM 3PA 3P% FTM FTA FT% OREB DREB REB AST STL BLK TOV PF +/-
p1
aVVitaly Potapenko CLE 04/30/1998 CLE vs. IND L 14 0 0 3 0.0 0 0 - 0 0 - 1 0 1 0 0 0 0 4 -10
p2
aVBrevin Knight CLE 04/30/1998 CLE vs. IND L 38 0 0 4 0.0 0 0 - 0 1 0.0 0 5 5 6 4 0 3 4 0
p3
aVDerek Anderson CLE 04/30/1998 CLE vs. IND L 30 18 5 8 62.5 0 0 - 8 10 80.0 0 2 2 3 1 0 0 1 -7
p4
aVDanny Ferry CLE 04/30/1998 CLE vs. IND L 2 0 0 0 - 0 0 - 0 0 - 0 0 0 0 0 0 0 0 -2
p5
aVBob Sura CLE 04/30/1998 CLE vs. IND L 3 0 0 0 - 0 0 - 0 0 - 0 0 0 0 0 0 1 0 -5
p6
aVShawn Kemp CLE 04/30/1998 CLE vs. IND L 40 21 6 16 37.5 0 0 - 9 12 75.0 5 7 12 4 3 1 6 4 -2
p7
aVZydrunas Ilgauskas CLE 04/30/1998 CLE vs. IND L 34 15 6 12 50.0 0 0 - 3 5 60.0 3 2 5 0 0 2 5 6 2
p8
aVWesley Person CLE 04/30/1998 CLE vs. IND L 41 15 5 10 50.0 4 8 50.0 1 2 50.0 1 2 3 3 2 0 0 2 4
p9
aVCedric Henderson CLE 04/30/1998 CLE vs. IND L 34 5 0 3 0.0 0 0 - 5 8 62.5 0 1 1 2 4 0 7 4 -10
p10
aVDerek Anderson CLE 04/27/1998 CLE vs. IND W 32 11 2 4 50.0 0 0 - 7 8 87.5 0 5 5 5 2 0 5 2 15
p11
aVZydrunas Ilgauskas CLE 04/27/1998 CLE vs. IND W 34 13 5 12 41.7 0 0 - 3 8 37.5 2 3 5 0 1 1 0 5 4
p12
aVWesley Person CLE 04/27/1998 CLE vs. IND W 35 7 2 5 40.0 1 4 25.0 2 2 100.0 1 1 2 4 1 0 0 2 -5
p13
aVBob Sura CLE 04/27/1998 CLE vs. IND W 1 0 0 1 0.0 0 1 0.0 0 0 - 0 0 0 0 0 0 0 0 -2
p14
aVVitaly Potapenko CLE 04/27/1998 CLE vs. IND W 17 4 2 4 50.0 0 0 - 0 0 - 1 3 4 0 1 0 1 1 2
p15
aVBrevin Knight CLE 04/27/1998 CLE vs. IND W 32 11 4 8 50.0 0 0 - 3 6 50.0 0 7 7 5 3 0 3 3 12
p16
aVCedric Henderson CLE 04/27/1998 CLE vs. IND W 44 9 4 9 44.4 0 0 - 1 3 33.3 1 5 6 5 2 0 1 4 9
p17
aVShawn Kemp CLE 04/27/1998 CLE vs. IND W 43 31 11 21 52.4 0 0 - 9 10 90.0 3 4 7 2 0 1 3 1 10
p18
aVBrevin Knight CLE 04/25/1998 CLE @ IND L 42 4 1 6 16.7 0 0 - 2 2 100.0 0 4 4 7 3 1 1 3 -6
p19
aVZydrunas Ilgauskas CLE 04/25/1998 CLE @ IND L 40 25 10 14 71.4 0 0 - 5 8 62.5 6 4 10 0 0 0 4 6 -7
p20
aVDerek Anderson CLE 04/25/1998 CLE @ IND L 22 4 1 4 25.0 0 0 - 2 2 100.0 0 1 1 2 1 0 3 2 -5
p21
aVCedric Henderson CLE 04/25/1998 CLE @ IND L 38 8 4 7 57.1 0 0 - 0 0 - 2 4 6 4 0 0 0 3 -2
p22
aVWesley Person CLE 04/25/1998 CLE @ IND L 40 10 4 10 40.0 2 5 40.0 0 0 - 0 1 1 2 0 0 1 1 -5
p23
aVVitaly Potapenko CLE 04/25/1998 CLE @ IND L 22 8 3 5 60.0 0 0 - 2 2 100.0 1 1 2 2 1 0 2 2 -9
p24
aVShawn Kemp CLE 04/25/1998 CLE @ IND L 32 27 7 12 58.3 0 0 - 13 16 81.3 1 8 9 0 0 1 4 4 3
p25
aVDanny Ferry CLE 04/25/1998 CLE @ IND L 0 0 0 1 0.0 0 1 0.0 0 0 - 0 0 0 0 0 0 0 0 1
p26
aVBob Sura CLE 04/23/1998 CLE @ IND L 25 4 1 4 25.0 0 1 0.0 2 3 66.7 0 3 3 4 1 0 1 4 -21
p27
aVDerek Anderson CLE 04/23/1998 CLE @ IND L 18 10 2 6 33.3 0 0 - 6 6 100.0 0 1 1 1 1 1 4 5 -22
p28
aVWesley Person CLE 04/23/1998 CLE @ IND L 18 0 0 4 0.0 0 2 0.0 0 0 - 0 3 3 1 0 0 0 0 -11
p29
aVZydrunas Ilgauskas CLE 04/23/1998 CLE @ IND L 37 16 7 11 63.6 0 0 - 2 4 50.0 3 7 10 2 1 2 1 5 -21
p30
aVVitaly Potapenko CLE 04/23/1998 CLE @ IND L 17 5 1 3 33.3 0 0 - 3 8 37.5 0 4 4 1 0 0 3 1 -2
p31
aVShawn Kemp CLE 04/23/1998 CLE @ IND L 35 25 9 22 40.9 0 0 - 7 7 100.0 7 6 13 2 2 1 3 3 -31
p32
aVScott Brooks CLE 04/23/1998 CLE @ IND L 8 2 0 1 0.0 0 0 - 2 2 100.0 0 0 0 2 0 0 0 1 -7
p33
aVDanny Ferry CLE 04/23/1998 CLE @ IND L 5 0 0 1 0.0 0 1 0.0 0 0 - 0 1 1 0 0 0 0 1 -3
p34
aVCarl Thomas CLE 04/23/1998 CLE @ IND L 10 2 0 1 0.0 0 0 - 2 3 66.7 1 0 1 0 0 0 0 2 -2
p35
aVCedric Henderson CLE 04/23/1998 CLE @ IND L 39 8 3 9 33.3 0 1 0.0 2 2 100.0 1 3 4 0 0 0 5 3 -21
p36
aVBrevin Knight CLE 04/23/1998 CLE @ IND L 19 3 1 3 33.3 0 0 - 1 1 100.0 0 0 0 5 0 0 1 6 -2
p37
aVShawnelle Scott CLE 04/23/1998 CLE @ IND L 3 2 1 2 50.0 0 0 - 0 0 - 0 0 0 0 0 1 1 0 -2
p38
a.