(lp0
VPLAYER TEAM DATE MATCHUP W/L MIN PTS FGM FGA FG% 3PM 3PA 3P% FTM FTA FT% OREB DREB REB AST STL BLK TOV PF +/-
p1
aVKevin Garnett MIN 05/15/1999 MIN vs. SAS L 46 20 6 20 30.0 0 2 0.0 8 12 66.7 5 11 16 6 2 0 1 3 -6
p2
aVRasho Nesterovic MIN 05/15/1999 MIN vs. SAS L 17 4 2 5 40.0 0 0 - 0 0 - 2 2 4 2 0 0 1 4 -6
p3
aVBobby Jackson MIN 05/15/1999 MIN vs. SAS L 8 2 1 4 25.0 0 2 0.0 0 0 - 1 1 2 0 0 0 1 1 -6
p4
aVJoe Smith MIN 05/15/1999 MIN vs. SAS L 26 12 5 14 35.7 0 0 - 2 2 100.0 1 6 7 0 0 3 1 4 -6
p5
aVTom Hammonds MIN 05/15/1999 MIN vs. SAS L 5 0 0 0 - 0 0 - 0 0 - 0 1 1 0 0 0 0 2 4
p6
aVSam Mitchell MIN 05/15/1999 MIN vs. SAS L 34 8 3 12 25.0 0 1 0.0 2 2 100.0 3 2 5 1 0 1 3 5 -11
p7
aVAnthony Peeler MIN 05/15/1999 MIN vs. SAS L 27 4 2 6 33.3 0 3 0.0 0 0 - 1 3 4 4 1 0 0 6 -5
p8
aVMalik Sealy MIN 05/15/1999 MIN vs. SAS L 20 6 3 5 60.0 0 0 - 0 0 - 0 0 0 0 0 0 0 2 -2
p9
aVJames Robinson MIN 05/15/1999 MIN vs. SAS L 0 0 0 0 - 0 0 - 0 0 - 0 0 0 0 0 0 0 0 2
p10
aVTerrell Brandon MIN 05/15/1999 MIN vs. SAS L 39 27 10 17 58.8 3 5 60.0 4 4 100.0 2 7 9 6 1 0 5 4 -1
p11
aVDean Garrett MIN 05/15/1999 MIN vs. SAS L 13 2 1 2 50.0 0 0 - 0 0 - 1 1 2 0 0 2 0 4 2
p12
aVAndrae Patterson MIN 05/13/1999 MIN vs. SAS L 1 0 0 0 - 0 0 - 0 0 - 1 1 2 1 0 0 0 0 5
p13
aVSam Mitchell MIN 05/13/1999 MIN vs. SAS L 28 4 1 7 14.3 0 2 0.0 2 4 50.0 1 2 3 2 0 0 0 3 -11
p14
aVDean Garrett MIN 05/13/1999 MIN vs. SAS L 23 6 3 4 75.0 0 0 - 0 0 - 2 1 3 1 1 0 0 1 -14
p15
aVTom Hammonds MIN 05/13/1999 MIN vs. SAS L 10 2 0 0 - 0 0 - 2 2 100.0 0 0 0 0 0 0 0 1 4
p16
aVMalik Sealy MIN 05/13/1999 MIN vs. SAS L 20 1 0 8 0.0 0 0 - 1 2 50.0 0 1 1 1 1 1 0 2 2
p17
aVAnthony Peeler MIN 05/13/1999 MIN vs. SAS L 31 5 2 7 28.6 1 1 100.0 0 0 - 1 3 4 1 1 0 2 2 -18
p18
aVKevin Garnett MIN 05/13/1999 MIN vs. SAS L 40 23 9 19 47.4 0 0 - 5 6 83.3 5 7 12 2 1 1 3 1 -21
p19
aVBobby Jackson MIN 05/13/1999 MIN vs. SAS L 9 2 1 4 25.0 0 1 0.0 0 0 - 0 1 1 1 0 0 0 1 5
p20
aVJames Robinson MIN 05/13/1999 MIN vs. SAS L 2 3 1 3 33.3 1 2 50.0 0 0 - 0 0 0 0 0 0 0 0 3
p21
aVJoe Smith MIN 05/13/1999 MIN vs. SAS L 28 7 2 9 22.2 0 0 - 3 4 75.0 3 1 4 1 1 2 2 1 -12
p22
aVRasho Nesterovic MIN 05/13/1999 MIN vs. SAS L 4 2 1 2 50.0 0 0 - 0 0 - 0 1 1 1 0 0 0 0 6
p23
aVTerrell Brandon MIN 05/13/1999 MIN vs. SAS L 38 16 8 17 47.1 0 0 - 0 0 - 0 6 6 2 4 0 4 2 -19
p24
aVJames Robinson MIN 05/11/1999 MIN @ SAS W 0 0 0 0 - 0 0 - 0 0 - 0 0 0 0 0 0 2 3 -3
p25
aVKevin Garnett MIN 05/11/1999 MIN @ SAS W 46 23 11 22 50.0 0 0 - 1 2 50.0 3 9 12 6 3 2 4 2 14
p26
aVSam Mitchell MIN 05/11/1999 MIN @ SAS W 31 9 4 10 40.0 0 2 0.0 1 2 50.0 0 0 0 3 1 0 3 1 13
p27
aVTom Hammonds MIN 05/11/1999 MIN @ SAS W 0 0 0 0 - 0 0 - 0 0 - 0 1 1 0 0 0 0 0 -3
p28
aVBobby Jackson MIN 05/11/1999 MIN @ SAS W 0 0 0 0 - 0 0 - 0 0 - 0 0 0 0 0 0 0 0 -2
p29
aVTerrell Brandon MIN 05/11/1999 MIN @ SAS W 47 18 7 17 41.2 0 0 - 4 5 80.0 0 7 7 9 0 1 2 1 12
p30
aVJoe Smith MIN 05/11/1999 MIN @ SAS W 31 4 1 8 12.5 0 0 - 2 2 100.0 6 4 10 3 1 2 1 5 -4
p31
aVDean Garrett MIN 05/11/1999 MIN @ SAS W 33 7 3 8 37.5 0 0 - 1 3 33.3 5 4 9 1 1 1 0 6 9
p32
aVAnthony Peeler MIN 05/11/1999 MIN @ SAS W 30 11 4 13 30.8 3 6 50.0 0 0 - 3 2 5 0 1 0 0 3 14
p33
aVMalik Sealy MIN 05/11/1999 MIN @ SAS W 17 8 4 8 50.0 0 0 - 0 0 - 2 0 2 2 0 0 2 0 -5
p34
aVRasho Nesterovic MIN 05/09/1999 MIN @ SAS L 6 2 1 1 100.0 0 0 - 0 0 - 2 0 2 0 0 0 0 0 0
p35
aVAnthony Peeler MIN 05/09/1999 MIN @ SAS L 34 7 3 9 33.3 1 3 33.3 0 0 - 2 1 3 1 1 0 2 1 -11
p36
aVJoe Smith MIN 05/09/1999 MIN @ SAS L 33 7 3 6 50.0 0 0 - 1 3 33.3 0 5 5 1 0 1 1 5 -8
p37
aVDean Garrett MIN 05/09/1999 MIN @ SAS L 21 7 3 4 75.0 0 0 - 1 2 50.0 1 1 2 3 0 0 2 5 -12
p38
aVMalik Sealy MIN 05/09/1999 MIN @ SAS L 12 5 1 2 50.0 0 0 - 3 3 100.0 0 3 3 0 0 0 0 0 -3
p39
aVJames Robinson MIN 05/09/1999 MIN @ SAS L 5 0 0 1 0.0 0 1 0.0 0 0 - 0 1 1 0 0 0 1 0 -3
p40
aVSam Mitchell MIN 05/09/1999 MIN @ SAS L 37 19 7 11 63.6 1 1 100.0 4 4 100.0 1 5 6 0 0 1 2 4 -5
p41
aVBobby Jackson MIN 05/09/1999 MIN @ SAS L 7 0 0 2 0.0 0 0 - 0 0 - 0 1 1 1 0 0 0 1 -1
p42
aVKevin Garnett MIN 05/09/1999 MIN @ SAS L 37 21 9 18 50.0 0 0 - 3 3 100.0 3 5 8 1 1 5 5 4 -15
p43
aVAndrae Patterson MIN 05/09/1999 MIN @ SAS L 4 0 0 0 - 0 0 - 0 0 - 0 2 2 1 0 0 1 1 0
p44
aVTom Hammonds MIN 05/09/1999 MIN @ SAS L 2 2 0 0 - 0 0 - 2 2 100.0 0 0 0 0 0 0 1 1 0
p45
aVTerrell Brandon MIN 05/09/1999 MIN @ SAS L 36 16 6 18 33.3 0 0 - 4 4 100.0 0 8 8 11 4 1 3 4 -7
p46
a.