(lp0
VPLAYER TEAM DATE MATCHUP W/L MIN PTS FGM FGA FG% 3PM 3PA 3P% FTM FTA FT% OREB DREB REB AST STL BLK TOV PF +/-
p1
aVBo Outlaw ORL 05/15/1999 ORL @ PHI L 16 2 1 2 50.0 0 0 - 0 2 0.0 1 1 2 0 0 0 0 1 -16
p2
aVMatt Harpring ORL 05/15/1999 ORL @ PHI L 11 9 4 5 80.0 0 1 0.0 1 2 50.0 1 1 2 0 0 0 1 2 -6
p3
aVIke Austin ORL 05/15/1999 ORL @ PHI L 29 6 1 3 33.3 0 1 0.0 4 6 66.7 3 5 8 1 0 1 1 2 4
p4
aVMichael Doleac ORL 05/15/1999 ORL @ PHI L 6 2 1 3 33.3 0 0 - 0 0 - 0 2 2 0 0 0 1 1 -1
p5
aVNick Anderson ORL 05/15/1999 ORL @ PHI L 43 29 10 26 38.5 4 13 30.8 5 7 71.4 3 2 5 3 3 0 4 6 -7
p6
aVDarrell Armstrong ORL 05/15/1999 ORL @ PHI L 44 14 4 10 40.0 4 7 57.1 2 2 100.0 3 3 6 8 4 0 4 4 -10
p7
aVAnfernee Hardaway ORL 05/15/1999 ORL @ PHI L 43 17 3 17 17.6 2 4 50.0 9 12 75.0 3 3 6 7 1 0 1 2 -7
p8
aVHorace Grant ORL 05/15/1999 ORL @ PHI L 43 12 4 10 40.0 0 0 - 4 4 100.0 4 4 8 2 1 1 0 3 -7
p9
aVDarrell Armstrong ORL 05/13/1999 ORL @ PHI L 43 15 4 14 28.6 1 6 16.7 6 6 100.0 0 5 5 7 3 0 9 2 -12
p10
aVAnfernee Hardaway ORL 05/13/1999 ORL @ PHI L 40 18 6 12 50.0 4 6 66.7 2 2 100.0 0 2 2 5 3 0 5 4 -13
p11
aVHorace Grant ORL 05/13/1999 ORL @ PHI L 23 4 2 6 33.3 0 0 - 0 0 - 3 1 4 1 0 1 2 3 -18
p12
aVBo Outlaw ORL 05/13/1999 ORL @ PHI L 29 7 2 4 50.0 0 0 - 3 5 60.0 2 5 7 2 0 3 3 1 2
p13
aVMichael Doleac ORL 05/13/1999 ORL @ PHI L 6 2 0 1 0.0 0 0 - 2 4 50.0 2 1 3 0 0 0 0 3 -3
p14
aVNick Anderson ORL 05/13/1999 ORL @ PHI L 35 23 8 19 42.1 4 11 36.4 3 4 75.0 1 7 8 2 2 0 3 1 -10
p15
aVB.J. Armstrong ORL 05/13/1999 ORL @ PHI L 1 0 0 0 - 0 0 - 0 0 - 0 0 0 0 0 0 0 0 0
p16
aVDominique Wilkins ORL 05/13/1999 ORL @ PHI L 2 2 1 2 50.0 0 0 - 0 0 - 0 0 0 0 0 0 0 0 -6
p17
aVIke Austin ORL 05/13/1999 ORL @ PHI L 22 4 2 5 40.0 0 1 0.0 0 0 - 1 3 4 2 0 1 4 3 -7
p18
aVMatt Harpring ORL 05/13/1999 ORL @ PHI L 25 10 2 7 28.6 0 1 0.0 6 7 85.7 4 6 10 3 0 0 0 3 2
p19
aVDan Schayes ORL 05/13/1999 ORL @ PHI L 8 0 0 1 0.0 0 0 - 0 0 - 0 0 0 0 0 0 0 0 5
p20
aVIke Austin ORL 05/11/1999 ORL vs. PHI W 33 8 4 9 44.4 0 0 - 0 0 - 1 0 1 4 1 1 2 4 19
p21
aVHorace Grant ORL 05/11/1999 ORL vs. PHI W 33 7 3 7 42.9 0 0 - 1 4 25.0 2 4 6 1 1 0 0 1 3
p22
aVDarrell Armstrong ORL 05/11/1999 ORL vs. PHI W 32 12 3 8 37.5 0 3 0.0 6 6 100.0 1 3 4 4 0 0 5 4 6
p23
aVBo Outlaw ORL 05/11/1999 ORL vs. PHI W 22 5 2 3 66.7 0 0 - 1 2 50.0 0 4 4 0 0 4 3 4 1
p24
aVMatt Harpring ORL 05/11/1999 ORL vs. PHI W 25 10 4 11 36.4 1 3 33.3 1 2 50.0 1 6 7 2 1 0 2 3 7
p25
aVAnfernee Hardaway ORL 05/11/1999 ORL vs. PHI W 43 22 7 15 46.7 0 2 0.0 8 9 88.9 4 3 7 4 2 0 5 4 9
p26
aVNick Anderson ORL 05/11/1999 ORL vs. PHI W 38 13 5 12 41.7 1 6 16.7 2 2 100.0 0 8 8 0 2 0 3 2 14
p27
aVMichael Doleac ORL 05/11/1999 ORL vs. PHI W 10 2 0 5 0.0 0 1 0.0 2 2 100.0 1 2 3 0 0 0 0 1 -4
p28
aVB.J. Armstrong ORL 05/09/1999 ORL vs. PHI L 2 0 0 1 0.0 0 0 - 0 0 - 0 0 0 1 0 0 1 1 1
p29
aVMatt Harpring ORL 05/09/1999 ORL vs. PHI L 18 4 2 3 66.7 0 0 - 0 0 - 1 0 1 2 0 0 2 1 -5
p30
aVIke Austin ORL 05/09/1999 ORL vs. PHI L 26 8 2 6 33.3 0 0 - 4 6 66.7 2 1 3 1 3 0 1 5 -11
p31
aVMichael Doleac ORL 05/09/1999 ORL vs. PHI L 19 11 4 9 44.4 0 0 - 3 3 100.0 2 2 4 0 0 1 2 1 1
p32
aVDerek Strong ORL 05/09/1999 ORL vs. PHI L 16 4 1 2 50.0 0 0 - 2 2 100.0 0 0 0 0 1 0 1 2 -7
p33
aVNick Anderson ORL 05/09/1999 ORL vs. PHI L 33 18 6 22 27.3 2 12 16.7 4 6 66.7 3 3 6 4 2 0 0 3 -10
p34
aVHorace Grant ORL 05/09/1999 ORL vs. PHI L 28 4 2 7 28.6 0 0 - 0 0 - 5 5 10 1 0 0 0 5 -5
p35
aVDarrell Armstrong ORL 05/09/1999 ORL vs. PHI L 41 18 6 14 42.9 4 8 50.0 2 2 100.0 2 3 5 6 2 0 7 6 -15
p36
aVAnfernee Hardaway ORL 05/09/1999 ORL vs. PHI L 38 19 4 13 30.8 0 1 0.0 11 16 68.8 2 3 5 6 3 1 1 3 -15
p37
aVBo Outlaw ORL 05/09/1999 ORL vs. PHI L 14 4 1 1 100.0 0 0 - 2 4 50.0 0 2 2 0 1 1 0 3 -4
p38
a.