(lp0
VPLAYER TEAM DATE MATCHUP W/L MIN PTS FGM FGA FG% 3PM 3PA 3P% FTM FTA FT% OREB DREB REB AST STL BLK TOV PF +/-
p1
aVJermaine O'Neal POR 06/06/1999 POR vs. SAS L 6 0 0 1 0.0 0 0 - 0 0 - 0 1 1 0 0 0 0 1 -1
p2
aVIsaiah Rider POR 06/06/1999 POR vs. SAS L 38 12 5 13 38.5 0 0 - 2 2 100.0 1 3 4 0 1 0 2 2 -9
p3
aVArvydas Sabonis POR 06/06/1999 POR vs. SAS L 31 10 4 9 44.4 0 1 0.0 2 2 100.0 1 6 7 2 1 0 0 3 -11
p4
aVBrian Grant POR 06/06/1999 POR vs. SAS L 32 10 4 7 57.1 0 0 - 2 2 100.0 2 3 5 2 1 1 0 4 -6
p5
aVGreg Anthony POR 06/06/1999 POR vs. SAS L 15 4 1 5 20.0 0 3 0.0 2 2 100.0 0 0 0 4 1 0 0 1 -10
p6
aVJim Jackson POR 06/06/1999 POR vs. SAS L 14 0 0 1 0.0 0 1 0.0 0 0 - 0 2 2 0 0 0 1 1 -6
p7
aVDamon Stoudamire POR 06/06/1999 POR vs. SAS L 36 21 9 13 69.2 3 3 100.0 0 0 - 2 4 6 4 2 1 4 3 -3
p8
aVStacey Augmon POR 06/06/1999 POR vs. SAS L 3 0 0 0 - 0 0 - 0 0 - 0 1 1 0 0 0 0 0 -7
p9
aVWalt Williams POR 06/06/1999 POR vs. SAS L 12 5 2 4 50.0 1 1 100.0 0 0 - 0 2 2 1 0 0 1 2 -5
p10
aVKelvin Cato POR 06/06/1999 POR vs. SAS L 4 1 0 0 - 0 0 - 1 2 50.0 0 0 0 1 0 1 0 0 1
p11
aVRasheed Wallace POR 06/06/1999 POR vs. SAS L 44 17 5 13 38.5 0 1 0.0 7 9 77.8 0 2 2 4 1 1 2 4 -13
p12
aVRasheed Wallace POR 06/04/1999 POR vs. SAS L 28 22 7 11 63.6 0 0 - 8 10 80.0 2 3 5 1 1 0 3 6 -7
p13
aVDamon Stoudamire POR 06/04/1999 POR vs. SAS L 29 2 1 12 8.3 0 1 0.0 0 0 - 1 2 3 3 0 0 1 1 -6
p14
aVKelvin Cato POR 06/04/1999 POR vs. SAS L 3 0 0 2 0.0 0 0 - 0 0 - 1 0 1 0 0 0 0 1 -6
p15
aVJim Jackson POR 06/04/1999 POR vs. SAS L 20 5 1 6 16.7 1 3 33.3 2 2 100.0 1 1 2 0 0 0 2 2 -12
p16
aVJermaine O'Neal POR 06/04/1999 POR vs. SAS L 6 2 1 3 33.3 0 0 - 0 0 - 0 1 1 0 0 1 1 1 -5
p17
aVGreg Anthony POR 06/04/1999 POR vs. SAS L 18 5 2 8 25.0 1 5 20.0 0 0 - 1 1 2 2 1 0 1 1 -16
p18
aVWalt Williams POR 06/04/1999 POR vs. SAS L 13 2 1 6 16.7 0 3 0.0 0 2 0.0 1 0 1 3 1 0 0 0 -15
p19
aVArvydas Sabonis POR 06/04/1999 POR vs. SAS L 29 6 2 9 22.2 0 0 - 2 2 100.0 1 6 7 1 2 1 1 4 -9
p20
aVIsaiah Rider POR 06/04/1999 POR vs. SAS L 36 10 3 11 27.3 1 2 50.0 3 3 100.0 3 2 5 1 0 0 2 3 -12
p21
aVStacey Augmon POR 06/04/1999 POR vs. SAS L 14 4 1 4 25.0 0 0 - 2 2 100.0 1 0 1 2 0 0 0 3 -10
p22
aVBrian Grant POR 06/04/1999 POR vs. SAS L 40 5 0 5 0.0 0 0 - 5 8 62.5 2 11 13 0 1 0 4 3 -12
p23
aVRasheed Wallace POR 05/31/1999 POR @ SAS L 30 13 6 15 40.0 0 1 0.0 1 2 50.0 1 3 4 2 1 0 2 4 0
p24
aVStacey Augmon POR 05/31/1999 POR @ SAS L 16 8 2 3 66.7 0 0 - 4 4 100.0 1 5 6 0 3 0 0 0 -3
p25
aVJim Jackson POR 05/31/1999 POR @ SAS L 29 7 3 6 50.0 1 1 100.0 0 0 - 0 3 3 1 1 0 0 1 -1
p26
aVKelvin Cato POR 05/31/1999 POR @ SAS L 9 0 0 1 0.0 0 0 - 0 2 0.0 1 0 1 1 1 0 1 4 0
p27
aVWalt Williams POR 05/31/1999 POR @ SAS L 15 3 1 7 14.3 0 3 0.0 1 2 50.0 2 1 3 1 2 1 1 4 -6
p28
aVGreg Anthony POR 05/31/1999 POR @ SAS L 14 4 1 1 100.0 1 1 100.0 1 2 50.0 0 0 0 1 1 0 1 2 -3
p29
aVDamon Stoudamire POR 05/31/1999 POR @ SAS L 33 15 7 15 46.7 0 1 0.0 1 2 50.0 1 5 6 7 1 0 7 1 2
p30
aVArvydas Sabonis POR 05/31/1999 POR @ SAS L 29 17 5 14 35.7 0 0 - 7 7 100.0 1 6 7 4 1 1 1 2 6
p31
aVIsaiah Rider POR 05/31/1999 POR @ SAS L 22 3 1 4 25.0 0 0 - 1 1 100.0 1 0 1 1 0 0 1 0 -1
p32
aVBrian Grant POR 05/31/1999 POR @ SAS L 28 10 5 9 55.6 0 0 - 0 0 - 4 3 7 0 0 1 1 4 -7
p33
aVJermaine O'Neal POR 05/31/1999 POR @ SAS L 9 5 1 1 100.0 0 0 - 3 6 50.0 3 1 4 0 0 0 0 4 8
p34
aVRasheed Wallace POR 05/29/1999 POR @ SAS L 41 28 12 20 60.0 0 1 0.0 4 4 100.0 2 6 8 1 0 2 0 2 2
p35
aVJim Jackson POR 05/29/1999 POR @ SAS L 15 2 1 4 25.0 0 1 0.0 0 0 - 1 2 3 1 0 0 2 2 -10
p36
aVWalt Williams POR 05/29/1999 POR @ SAS L 16 8 3 3 100.0 2 2 100.0 0 0 - 1 1 2 1 0 0 1 1 2
p37
aVGreg Anthony POR 05/29/1999 POR @ SAS L 18 10 3 3 100.0 2 2 100.0 2 2 100.0 0 0 0 6 1 0 1 3 -4
p38
aVArvydas Sabonis POR 05/29/1999 POR @ SAS L 25 5 2 7 28.6 0 1 0.0 1 2 50.0 1 5 6 3 0 2 4 2 -13
p39
aVBrian Grant POR 05/29/1999 POR @ SAS L 43 8 4 9 44.4 0 0 - 0 0 - 2 5 7 2 1 2 3 4 -3
p40
aVDamon Stoudamire POR 05/29/1999 POR @ SAS L 29 2 1 6 16.7 0 0 - 0 0 - 0 3 3 8 0 0 0 1 0
p41
aVStacey Augmon POR 05/29/1999 POR @ SAS L 17 0 0 3 0.0 0 0 - 0 0 - 0 2 2 0 0 0 0 1 2
p42
aVIsaiah Rider POR 05/29/1999 POR @ SAS L 32 13 6 14 42.9 0 0 - 1 1 100.0 2 2 4 4 0 0 2 1 4
p43
aVArvydas Sabonis POR 05/27/1999 POR vs. UTA W 31 14 5 7 71.4 1 1 100.0 3 3 100.0 1 5 6 2 1 1 0 4 18
p44
aVStacey Augmon POR 05/27/1999 POR vs. UTA W 14 2 0 2 0.0 0 0 - 2 2 100.0 1 1 2 0 0 0 0 0 6
p45
aVDamon Stoudamire POR 05/27/1999 POR vs. UTA W 29 3 1 8 12.5 0 1 0.0 1 3 33.3 0 2 2 4 0 0 1 3 11
p46
aVWalt Williams POR 05/27/1999 POR vs. UTA W 13 8 3 7 42.9 2 4 50.0 0 0 - 0 1 1 0 1 0 1 2 -3
p47
aVRasheed Wallace POR 05/27/1999 POR vs. UTA W 29 14 7 13 53.8 0 0 - 0 0 - 1 3 4 1 3 1 1 3 0
p48
aVGreg Anthony POR 05/27/1999 POR vs. UTA W 18 3 1 8 12.5 1 6 16.7 0 0 - 1 1 2 2 0 1 1 4 1
p49
aVIsaiah Rider POR 05/27/1999 POR vs. UTA W 31 24 5 11 45.5 0 1 0.0 14 14 100.0 1 6 7 3 1 0 4 4 11
p50
aVJermaine O'Neal POR 05/27/1999 POR vs. UTA W 4 0 0 1 0.0 0 0 - 0 0 - 0 3 3 0 0 1 0 1 3
p51
aVJim Jackson POR 05/27/1999 POR vs. UTA W 26 17 4 7 57.1 1 2 50.0 8 8 100.0 1 2 3 6 0 0 3 3 11
p52
aVBrian Grant POR 05/27/1999 POR vs. UTA W 40 7 2 5 40.0 0 0 - 3 4 75.0 2 10 12 0 0 2 0 5 2
p53
aVDamon Stoudamire POR 05/25/1999 POR @ UTA L 31 12 5 14 35.7 0 2 0.0 2 2 100.0 1 3 4 6 0 0 2 5 -13
p54
aVArvydas Sabonis POR 05/25/1999 POR @ UTA L 21 2 0 4 0.0 0 0 - 2 2 100.0 1 4 5 0 0 0 1 2 -15
p55
aVJermaine O'Neal POR 05/25/1999 POR @ UTA L 3 0 0 1 0.0 0 0 - 0 0 - 1 0 1 0 0 0 0 1 -2
p56
aVGreg Anthony POR 05/25/1999 POR @ UTA L 16 5 1 4 25.0 0 2 0.0 3 4 75.0 1 0 1 2 0 0 0 3 -4
p57
aVRasheed Wallace POR 05/25/1999 POR @ UTA L 40 15 7 13 53.8 0 2 0.0 1 2 50.0 2 2 4 0 1 1 0 2 -19
p58
aVBrian Grant POR 05/25/1999 POR @ UTA L 38 8 1 7 14.3 0 0 - 6 10 60.0 3 7 10 1 0 3 2 3 -14
p59
aVIsaiah Rider POR 05/25/1999 POR @ UTA L 32 16 5 11 45.5 1 3 33.3 5 5 100.0 1 1 2 1 0 0 2 2 -14
p60
aVStacey Augmon POR 05/25/1999 POR @ UTA L 9 0 0 0 - 0 0 - 0 0 - 0 2 2 0 1 0 0 1 2
p61
aVJim Jackson POR 05/25/1999 POR @ UTA L 18 6 2 5 40.0 0 1 0.0 2 3 66.7 0 1 1 0 1 0 2 3 -9
p62
aVWalt Williams POR 05/25/1999 POR @ UTA L 24 7 2 6 33.3 1 4 25.0 2 2 100.0 0 1 1 0 0 0 0 3 6
p63
aVKelvin Cato POR 05/25/1999 POR @ UTA L 2 0 0 2 0.0 0 0 - 0 0 - 0 0 0 0 0 0 0 1 -3
p64
aVStacey Augmon POR 05/23/1999 POR vs. UTA W 18 4 0 1 0.0 0 0 - 4 6 66.7 3 0 3 0 1 1 1 2 -5
p65
aVRasheed Wallace POR 05/23/1999 POR vs. UTA W 25 2 1 5 20.0 0 0 - 0 0 - 1 2 3 1 1 0 1 5 10
p66
aVBrian Grant POR 05/23/1999 POR vs. UTA W 36 7 3 9 33.3 0 0 - 1 5 20.0 2 5 7 1 1 0 3 4 3
p67
aVArvydas Sabonis POR 05/23/1999 POR vs. UTA W 34 14 5 8 62.5 0 0 - 4 4 100.0 0 15 15 0 2 1 1 2 5
p68
aVJermaine O'Neal POR 05/23/1999 POR vs. UTA W 8 2 0 0 - 0 0 - 2 2 100.0 2 1 3 0 0 1 1 1 0
p69
aVWalt Williams POR 05/23/1999 POR vs. UTA W 14 4 0 3 0.0 0 2 0.0 4 4 100.0 0 1 1 0 0 0 0 2 1
p70
aVDamon Stoudamire POR 05/23/1999 POR vs. UTA W 25 10 2 7 28.6 1 1 100.0 5 6 83.3 0 1 1 2 0 0 4 2 4
p71
aVJim Jackson POR 05/23/1999 POR vs. UTA W 19 9 3 9 33.3 0 2 0.0 3 3 100.0 1 3 4 2 0 1 0 1 5
p72
aVIsaiah Rider POR 05/23/1999 POR vs. UTA W 33 24 6 18 33.3 2 3 66.7 10 12 83.3 1 4 5 1 2 0 5 2 5
p73
aVGreg Anthony POR 05/23/1999 POR vs. UTA W 22 5 2 4 50.0 1 2 50.0 0 0 - 0 2 2 3 0 0 1 1 2
p74
aVBrian Grant POR 05/22/1999 POR vs. UTA W 42 16 6 11 54.5 0 0 - 4 6 66.7 5 10 15 3 2 1 2 4 7
p75
aVGreg Anthony POR 05/22/1999 POR vs. UTA W 19 10 2 6 33.3 1 3 33.3 5 7 71.4 0 0 0 1 4 0 3 3 10
p76
aVIsaiah Rider POR 05/22/1999 POR vs. UTA W 30 13 2 7 28.6 1 3 33.3 8 10 80.0 3 3 6 8 0 0 3 3 1
p77
aVArvydas Sabonis POR 05/22/1999 POR vs. UTA W 29 15 5 12 41.7 0 0 - 5 6 83.3 1 7 8 1 0 0 0 0 12
p78
aVWalt Williams POR 05/22/1999 POR vs. UTA W 19 9 3 6 50.0 3 6 50.0 0 0 - 1 1 2 2 2 0 1 5 4
p79
aVStacey Augmon POR 05/22/1999 POR vs. UTA W 11 2 1 2 50.0 0 0 - 0 0 - 0 2 2 0 0 0 0 2 12
p80
aVDamon Stoudamire POR 05/22/1999 POR vs. UTA W 28 11 3 7 42.9 1 1 100.0 4 6 66.7 0 1 1 1 2 0 1 3 0
p81
aVJim Jackson POR 05/22/1999 POR vs. UTA W 24 1 0 4 0.0 0 1 0.0 1 2 50.0 0 0 0 3 0 0 1 0 4
p82
aVRasheed Wallace POR 05/22/1999 POR vs. UTA W 34 20 6 11 54.5 0 1 0.0 8 13 61.5 3 4 7 2 0 0 0 5 0
p83
aVJermaine O'Neal POR 05/20/1999 POR @ UTA W 2 0 0 0 - 0 0 - 0 0 - 0 0 0 0 0 0 0 1 -1
p84
aVWalt Williams POR 05/20/1999 POR @ UTA W 9 0 0 3 0.0 0 0 - 0 0 - 0 0 0 0 0 0 1 1 1
p85
aVIsaiah Rider POR 05/20/1999 POR @ UTA W 34 27 9 19 47.4 4 6 66.7 5 6 83.3 2 1 3 1 2 0 1 4 5
p86
aVGreg Anthony POR 05/20/1999 POR @ UTA W 21 3 0 1 0.0 0 1 0.0 3 6 50.0 0 1 1 5 0 0 0 1 1
p87
aVJim Jackson POR 05/20/1999 POR @ UTA W 25 8 3 10 30.0 0 1 0.0 2 2 100.0 1 1 2 2 2 0 0 2 -3
p88
aVKelvin Cato POR 05/20/1999 POR @ UTA W 0 0 0 0 - 0 0 - 0 0 - 0 0 0 0 0 0 0 0 0
p89
aVDamon Stoudamire POR 05/20/1999 POR @ UTA W 26 2 1 5 20.0 0 1 0.0 0 0 - 0 2 2 6 0 0 3 3 2
p90
aVArvydas Sabonis POR 05/20/1999 POR @ UTA W 38 10 5 13 38.5 0 0 - 0 1 0.0 1 13 14 0 3 0 1 3 6
p91
aVRasheed Wallace POR 05/20/1999 POR @ UTA W 32 11 5 10 50.0 1 2 50.0 0 0 - 2 5 7 1 3 3 1 4 5
p92
aVBrian Grant POR 05/20/1999 POR @ UTA W 33 23 7 12 58.3 0 0 - 9 13 69.2 3 6 9 1 1 1 1 2 -1
p93
aVStacey Augmon POR 05/20/1999 POR @ UTA W 16 0 0 1 0.0 0 0 - 0 0 - 0 3 3 1 0 0 0 2 0
p94
aVGreg Anthony POR 05/18/1999 POR @ UTA L 11 6 2 7 28.6 0 2 0.0 2 3 66.7 1 1 2 1 3 0 0 1 1
p95
aVJermaine O'Neal POR 05/18/1999 POR @ UTA L 2 0 0 0 - 0 0 - 0 0 - 0 1 1 0 0 0 0 0 2
p96
aVRasheed Wallace POR 05/18/1999 POR @ UTA L 33 10 3 8 37.5 0 0 - 4 5 80.0 1 2 3 3 2 1 0 5 -20
p97
aVIsaiah Rider POR 05/18/1999 POR @ UTA L 35 12 6 14 42.9 0 2 0.0 0 0 - 1 1 2 3 0 0 1 2 -11
p98
aVJim Jackson POR 05/18/1999 POR @ UTA L 18 3 1 4 25.0 0 1 0.0 1 2 50.0 0 2 2 1 1 0 0 1 -7
p99
aVStacey Augmon POR 05/18/1999 POR @ UTA L 22 4 2 3 66.7 0 0 - 0 0 - 1 4 5 1 0 0 1 1 2
p100
aVDamon Stoudamire POR 05/18/1999 POR @ UTA L 36 15 7 14 50.0 1 3 33.3 0 1 0.0 0 3 3 5 1 0 7 5 -11
p101
aVArvydas Sabonis POR 05/18/1999 POR @ UTA L 24 9 3 9 33.3 0 1 0.0 3 4 75.0 3 8 11 0 2 1 2 4 2
p102
aVBrian Grant POR 05/18/1999 POR @ UTA L 30 19 8 13 61.5 0 0 - 3 4 75.0 3 3 6 1 1 1 0 6 4
p103
aVKelvin Cato POR 05/18/1999 POR @ UTA L 14 1 0 0 - 0 0 - 1 4 25.0 1 0 1 0 0 0 0 2 -5
p104
aVWalt Williams POR 05/18/1999 POR @ UTA L 10 4 1 3 33.3 1 2 50.0 1 2 50.0 0 0 0 0 0 1 0 3 -7
p105
aVJim Jackson POR 05/12/1999 POR @ PHX W 20 13 2 4 50.0 0 1 0.0 9 9 100.0 0 1 1 1 0 0 4 2 -5
p106
aVJermaine O'Neal POR 05/12/1999 POR @ PHX W 11 5 2 3 66.7 0 0 - 1 4 25.0 2 1 3 1 0 0 0 1 -4
p107
aVRasheed Wallace POR 05/12/1999 POR @ PHX W 39 13 5 7 71.4 0 0 - 3 3 100.0 1 4 5 2 5 1 2 4 21
p108
aVArvydas Sabonis POR 05/12/1999 POR @ PHX W 35 14 4 9 44.4 0 0 - 6 6 100.0 1 10 11 6 0 4 2 5 14
p109
aVDamon Stoudamire POR 05/12/1999 POR @ PHX W 27 9 3 9 33.3 0 3 0.0 3 4 75.0 1 2 3 7 1 0 3 0 -2
p110
aVIsaiah Rider POR 05/12/1999 POR @ PHX W 28 18 6 13 46.2 1 2 50.0 5 8 62.5 0 1 1 2 1 0 6 5 15
p111
aVBrian Grant POR 05/12/1999 POR @ PHX W 36 20 8 12 66.7 0 0 - 4 4 100.0 3 7 10 0 1 1 3 3 1
p112
aVGreg Anthony POR 05/12/1999 POR @ PHX W 20 8 2 3 66.7 1 2 50.0 3 6 50.0 0 1 1 0 1 0 0 2 12
p113
aVStacey Augmon POR 05/12/1999 POR @ PHX W 7 0 0 1 0.0 0 0 - 0 0 - 0 0 0 0 1 0 0 1 2
p114
aVWalt Williams POR 05/12/1999 POR @ PHX W 13 3 1 1 100.0 1 1 100.0 0 0 - 0 1 1 1 0 1 1 1 -4
p115
aVRasheed Wallace POR 05/10/1999 POR vs. PHX W 43 21 8 10 80.0 0 0 - 5 8 62.5 0 4 4 2 1 0 3 4 14
p116
aVWalt Williams POR 05/10/1999 POR vs. PHX W 11 3 1 3 33.3 1 3 33.3 0 0 - 0 1 1 1 0 0 0 3 -4
p117
aVStacey Augmon POR 05/10/1999 POR vs. PHX W 18 9 3 5 60.0 0 0 - 3 4 75.0 3 2 5 1 2 1 1 1 6
p118
aVKelvin Cato POR 05/10/1999 POR vs. PHX W 0 0 0 0 - 0 0 - 0 0 - 0 0 0 0 0 0 0 3 -3
p119
aVArvydas Sabonis POR 05/10/1999 POR vs. PHX W 26 2 1 6 16.7 0 1 0.0 0 0 - 0 9 9 2 0 1 4 2 10
p120
aVJim Jackson POR 05/10/1999 POR vs. PHX W 17 12 3 7 42.9 1 1 100.0 5 5 100.0 2 1 3 1 2 0 2 5 -4
p121
aVIsaiah Rider POR 05/10/1999 POR vs. PHX W 34 17 6 11 54.5 1 3 33.3 4 4 100.0 0 3 3 4 1 0 1 1 11
p122
aVBrian Grant POR 05/10/1999 POR vs. PHX W 39 22 10 13 76.9 0 0 - 2 6 33.3 2 6 8 1 1 1 1 2 14
p123
aVDamon Stoudamire POR 05/10/1999 POR vs. PHX W 37 22 6 12 50.0 3 4 75.0 7 8 87.5 1 5 6 13 0 0 2 2 6
p124
aVGreg Anthony POR 05/10/1999 POR vs. PHX W 10 2 1 1 100.0 0 0 - 0 0 - 0 0 0 2 0 0 0 1 5
p125
aVStacey Augmon POR 05/08/1999 POR vs. PHX W 6 2 1 3 33.3 0 1 0.0 0 0 - 0 1 1 0 0 1 0 1 0
p126
aVGreg Anthony POR 05/08/1999 POR vs. PHX W 17 2 0 4 0.0 0 2 0.0 2 2 100.0 0 3 3 3 1 0 1 2 6
p127
aVBrian Grant POR 05/08/1999 POR vs. PHX W 39 16 5 7 71.4 0 0 - 6 10 60.0 1 9 10 2 0 2 1 4 16
p128
aVRasheed Wallace POR 05/08/1999 POR vs. PHX W 42 7 3 10 30.0 0 1 0.0 1 2 50.0 1 6 7 0 1 1 1 2 5
p129
aVWalt Williams POR 05/08/1999 POR vs. PHX W 11 7 3 6 50.0 1 1 100.0 0 2 0.0 0 1 1 1 1 0 4 0 -7
p130
aVIsaiah Rider POR 05/08/1999 POR vs. PHX W 36 25 10 17 58.8 0 1 0.0 5 5 100.0 1 6 7 2 3 0 3 1 14
p131
aVDamon Stoudamire POR 05/08/1999 POR vs. PHX W 30 8 3 7 42.9 1 1 100.0 1 2 50.0 0 1 1 7 1 0 3 2 4
p132
aVKelvin Cato POR 05/08/1999 POR vs. PHX W 8 4 1 4 25.0 0 0 - 2 2 100.0 3 1 4 0 0 0 1 2 -6
p133
aVJim Jackson POR 05/08/1999 POR vs. PHX W 13 12 3 5 60.0 1 2 50.0 5 6 83.3 1 3 4 1 0 0 1 3 -4
p134
aVArvydas Sabonis POR 05/08/1999 POR vs. PHX W 33 12 4 6 66.7 0 0 - 4 4 100.0 0 8 8 8 3 3 2 2 22
p135
a.