(lp0
VPLAYER TEAM DATE MATCHUP W/L MIN PTS FGM FGA FG% 3PM 3PA 3P% FTM FTA FT% OREB DREB REB AST STL BLK TOV PF +/-
p1
aVGrant Hill DET 05/16/1999 DET @ ATL L 41 21 10 27 37.0 0 1 0.0 1 2 50.0 1 6 7 11 2 0 2 3 -12
p2
aVLindsey Hunter DET 05/16/1999 DET @ ATL L 37 7 3 9 33.3 1 3 33.3 0 0 - 0 3 3 0 1 0 1 2 -11
p3
aVEric Montross DET 05/16/1999 DET @ ATL L 7 0 0 0 - 0 0 - 0 0 - 0 0 0 0 0 1 0 4 -8
p4
aVBison Dele DET 05/16/1999 DET @ ATL L 30 17 8 10 80.0 0 0 - 1 3 33.3 3 4 7 0 0 1 1 6 -1
p5
aVJerry Stackhouse DET 05/16/1999 DET @ ATL L 24 11 3 6 50.0 1 1 100.0 4 4 100.0 0 1 1 1 1 0 2 1 -6
p6
aVChristian Laettner DET 05/16/1999 DET @ ATL L 29 8 3 9 33.3 0 0 - 2 2 100.0 1 1 2 4 3 1 1 4 -7
p7
aVCharles O'Bannon DET 05/16/1999 DET @ ATL L 0 0 0 0 - 0 0 - 0 0 - 0 0 0 0 0 0 0 0 0
p8
aVJoe Dumars DET 05/16/1999 DET @ ATL L 32 3 1 6 16.7 1 4 25.0 0 0 - 1 2 3 4 2 0 3 4 -5
p9
aVJerome Williams DET 05/16/1999 DET @ ATL L 19 4 1 2 50.0 0 0 - 2 2 100.0 1 1 2 1 0 0 0 0 -2
p10
aVDon Reid DET 05/16/1999 DET @ ATL L 6 4 2 3 66.7 0 0 - 0 0 - 1 0 1 0 0 0 0 0 -4
p11
aVJud Buechler DET 05/16/1999 DET @ ATL L 7 0 0 1 0.0 0 1 0.0 0 0 - 0 0 0 1 1 0 0 3 -4
p12
aVLoy Vaught DET 05/14/1999 DET vs. ATL W 3 0 0 1 0.0 0 0 - 0 0 - 0 1 1 0 0 0 0 0 1
p13
aVJerome Williams DET 05/14/1999 DET vs. ATL W 28 6 2 4 50.0 0 0 - 2 2 100.0 1 7 8 1 1 0 0 1 23
p14
aVChristian Laettner DET 05/14/1999 DET vs. ATL W 21 8 4 9 44.4 0 0 - 0 0 - 1 3 4 4 0 0 1 1 -2
p15
aVJoe Dumars DET 05/14/1999 DET vs. ATL W 27 20 7 14 50.0 4 6 66.7 2 2 100.0 0 2 2 1 0 0 1 2 20
p16
aVJerry Stackhouse DET 05/14/1999 DET vs. ATL W 22 13 5 8 62.5 1 2 50.0 2 2 100.0 1 1 2 4 0 1 3 3 -2
p17
aVEric Montross DET 05/14/1999 DET vs. ATL W 15 4 2 3 66.7 0 0 - 0 0 - 0 1 1 0 0 0 0 3 -6
p18
aVJud Buechler DET 05/14/1999 DET vs. ATL W 20 3 1 2 50.0 1 2 50.0 0 0 - 0 1 1 1 1 0 0 2 4
p19
aVDon Reid DET 05/14/1999 DET vs. ATL W 2 0 0 0 - 0 0 - 0 0 - 0 0 0 1 0 0 0 1 2
p20
aVCharles O'Bannon DET 05/14/1999 DET vs. ATL W 2 2 1 1 100.0 0 0 - 0 0 - 0 0 0 1 0 0 1 0 2
p21
aVBison Dele DET 05/14/1999 DET vs. ATL W 25 17 7 8 87.5 0 0 - 3 4 75.0 1 5 6 0 1 0 2 5 24
p22
aVLindsey Hunter DET 05/14/1999 DET vs. ATL W 37 7 3 11 27.3 1 3 33.3 0 0 - 1 1 2 4 1 0 0 4 16
p23
aVGrant Hill DET 05/14/1999 DET vs. ATL W 34 23 11 18 61.1 0 0 - 1 1 100.0 2 4 6 9 2 0 2 1 23
p24
aVChristian Laettner DET 05/12/1999 DET vs. ATL W 25 15 6 10 60.0 0 0 - 3 4 75.0 1 1 2 0 0 0 0 4 14
p25
aVJerry Stackhouse DET 05/12/1999 DET vs. ATL W 21 9 2 11 18.2 0 2 0.0 5 6 83.3 1 0 1 0 0 0 2 0 -7
p26
aVLindsey Hunter DET 05/12/1999 DET vs. ATL W 36 13 5 13 38.5 0 2 0.0 3 3 100.0 1 3 4 4 3 0 2 3 18
p27
aVDon Reid DET 05/12/1999 DET vs. ATL W 1 0 0 0 - 0 0 - 0 0 - 1 0 1 0 0 0 0 1 -2
p28
aVJerome Williams DET 05/12/1999 DET vs. ATL W 33 3 1 7 14.3 0 0 - 1 2 50.0 6 4 10 1 1 0 0 2 11
p29
aVGrant Hill DET 05/12/1999 DET vs. ATL W 24 12 6 13 46.2 0 0 - 0 0 - 0 6 6 5 0 0 2 5 8
p30
aVBison Dele DET 05/12/1999 DET vs. ATL W 23 12 6 12 50.0 0 0 - 0 0 - 5 4 9 1 1 1 2 5 13
p31
aVJoe Dumars DET 05/12/1999 DET vs. ATL W 36 11 4 5 80.0 3 4 75.0 0 0 - 0 0 0 1 0 0 2 1 14
p32
aVEric Montross DET 05/12/1999 DET vs. ATL W 10 1 0 0 - 0 0 - 1 2 50.0 1 1 2 0 0 0 0 3 -2
p33
aVJud Buechler DET 05/12/1999 DET vs. ATL W 26 3 1 5 20.0 1 3 33.3 0 0 - 2 4 6 1 0 0 0 1 13
p34
aVDon Reid DET 05/10/1999 DET @ ATL L 9 0 0 0 - 0 0 - 0 0 - 0 2 2 0 0 0 0 0 -2
p35
aVJerry Stackhouse DET 05/10/1999 DET @ ATL L 29 10 5 12 41.7 0 1 0.0 0 1 0.0 0 3 3 0 1 0 2 5 -6
p36
aVJoe Dumars DET 05/10/1999 DET @ ATL L 30 14 6 9 66.7 2 4 50.0 0 0 - 0 1 1 5 0 0 2 2 -17
p37
aVEric Montross DET 05/10/1999 DET @ ATL L 21 0 0 1 0.0 0 0 - 0 0 - 2 2 4 0 0 0 0 1 -12
p38
aVLoy Vaught DET 05/10/1999 DET @ ATL L 11 4 2 3 66.7 0 0 - 0 0 - 0 0 0 0 1 0 0 1 -1
p39
aVBison Dele DET 05/10/1999 DET @ ATL L 10 0 0 0 - 0 0 - 0 0 - 0 1 1 0 0 0 2 5 -5
p40
aVGrant Hill DET 05/10/1999 DET @ ATL L 37 15 5 16 31.3 0 0 - 5 6 83.3 4 6 10 4 3 2 2 2 -18
p41
aVChristian Laettner DET 05/10/1999 DET @ ATL L 20 11 3 8 37.5 0 0 - 5 6 83.3 2 0 2 2 0 0 0 0 -8
p42
aVLindsey Hunter DET 05/10/1999 DET @ ATL L 30 2 1 11 9.1 0 1 0.0 0 0 - 1 3 4 3 1 0 1 1 -13
p43
aVJud Buechler DET 05/10/1999 DET @ ATL L 14 0 0 3 0.0 0 1 0.0 0 0 - 0 2 2 0 0 0 0 0 -2
p44
aVJerome Williams DET 05/10/1999 DET @ ATL L 21 11 5 8 62.5 0 0 - 1 2 50.0 2 4 6 1 2 0 3 2 -14
p45
aVCharles O'Bannon DET 05/10/1999 DET @ ATL L 3 2 1 1 100.0 0 0 - 0 0 - 0 0 0 0 0 0 1 0 -2
p46
aVEric Montross DET 05/08/1999 DET @ ATL L 16 2 1 2 50.0 0 0 - 0 0 - 0 6 6 0 0 1 0 4 2
p47
aVBison Dele DET 05/08/1999 DET @ ATL L 31 7 3 10 30.0 0 0 - 1 2 50.0 3 6 9 0 1 0 0 4 -22
p48
aVJerome Williams DET 05/08/1999 DET @ ATL L 20 7 3 6 50.0 0 0 - 1 1 100.0 2 4 6 0 0 0 1 2 -8
p49
aVJud Buechler DET 05/08/1999 DET @ ATL L 16 2 1 4 25.0 0 1 0.0 0 0 - 2 2 4 0 1 1 3 0 -8
p50
aVGrant Hill DET 05/08/1999 DET @ ATL L 37 26 10 18 55.6 0 0 - 6 7 85.7 0 7 7 8 3 0 4 1 -17
p51
aVJoe Dumars DET 05/08/1999 DET @ ATL L 26 3 1 5 20.0 0 1 0.0 1 1 100.0 0 1 1 2 0 0 1 0 -11
p52
aVJerry Stackhouse DET 05/08/1999 DET @ ATL L 24 7 3 9 33.3 0 2 0.0 1 1 100.0 1 0 1 1 0 0 1 2 -13
p53
aVChristian Laettner DET 05/08/1999 DET @ ATL L 25 9 4 11 36.4 0 0 - 1 2 50.0 1 3 4 1 1 0 1 5 -9
p54
aVLindsey Hunter DET 05/08/1999 DET @ ATL L 38 7 2 9 22.2 1 2 50.0 2 2 100.0 2 0 2 1 1 0 3 1 -16
p55
aVCharles O'Bannon DET 05/08/1999 DET @ ATL L 3 0 0 1 0.0 0 0 - 0 0 - 1 0 1 0 0 0 1 0 2
p56
a.