(lp0
VPLAYER TEAM DATE MATCHUP W/L MIN PTS FGM FGA FG% 3PM 3PA 3P% FTM FTA FT% OREB DREB REB AST STL BLK TOV PF +/-
p1
aVPeja Stojakovic SAC 05/05/1999 SAC vs. VAN W 20 10 4 12 33.3 2 7 28.6 0 0 - 2 2 4 2 0 2 1 2 4
p2
aVVlade Divac SAC 05/05/1999 SAC vs. VAN W 40 29 9 14 64.3 0 0 - 11 19 57.9 4 13 17 4 2 1 4 2 4
p3
aVJason Williams SAC 05/05/1999 SAC vs. VAN W 28 7 0 7 0.0 0 5 0.0 7 8 87.5 0 2 2 2 1 0 3 1 0
p4
aVCorliss Williamson SAC 05/05/1999 SAC vs. VAN W 28 14 6 12 50.0 0 0 - 2 2 100.0 3 2 5 1 1 0 2 3 -3
p5
aVTariq Abdul-Wahad SAC 05/05/1999 SAC vs. VAN W 14 5 2 4 50.0 0 0 - 1 1 100.0 0 1 1 1 0 0 1 4 -4
p6
aVVernon Maxwell SAC 05/05/1999 SAC vs. VAN W 28 12 3 15 20.0 2 9 22.2 4 6 66.7 0 2 2 1 1 0 2 1 14
p7
aVScot Pollard SAC 05/05/1999 SAC vs. VAN W 33 13 6 11 54.5 0 0 - 1 2 50.0 5 7 12 1 2 2 1 5 5
p8
aVJon Barry SAC 05/05/1999 SAC vs. VAN W 27 2 1 3 33.3 0 1 0.0 0 0 - 1 2 3 5 1 0 3 2 -1
p9
aVLawrence Funderburke SAC 05/05/1999 SAC vs. VAN W 22 7 3 6 50.0 0 0 - 1 1 100.0 5 4 9 0 0 3 3 2 1
p10
aVCorliss Williamson SAC 05/03/1999 SAC @ DEN W 15 10 5 7 71.4 0 0 - 0 0 - 1 0 1 0 0 0 2 0 0
p11
aVScot Pollard SAC 05/03/1999 SAC @ DEN W 37 16 7 9 77.8 0 0 - 2 2 100.0 3 7 10 2 2 3 0 3 1
p12
aVPeja Stojakovic SAC 05/03/1999 SAC @ DEN W 31 17 6 14 42.9 1 4 25.0 4 7 57.1 0 4 4 3 3 0 1 1 10
p13
aVJason Williams SAC 05/03/1999 SAC @ DEN W 35 11 3 8 37.5 3 6 50.0 2 2 100.0 0 5 5 9 1 0 3 2 9
p14
aVJon Barry SAC 05/03/1999 SAC @ DEN W 25 6 1 3 33.3 0 1 0.0 4 4 100.0 0 4 4 3 1 0 2 2 8
p15
aVTariq Abdul-Wahad SAC 05/03/1999 SAC @ DEN W 13 4 1 6 16.7 0 1 0.0 2 2 100.0 0 0 0 2 0 0 0 1 0
p16
aVVernon Maxwell SAC 05/03/1999 SAC @ DEN W 33 10 4 13 30.8 1 4 25.0 1 3 33.3 0 3 3 3 1 0 1 0 4
p17
aVVlade Divac SAC 05/03/1999 SAC @ DEN W 37 25 9 15 60.0 0 1 0.0 7 10 70.0 3 4 7 5 1 4 2 1 3
p18
aVLawrence Funderburke SAC 05/03/1999 SAC @ DEN W 14 13 6 6 100.0 0 0 - 1 2 50.0 0 2 2 0 1 0 1 1 5
p19
aVJon Barry SAC 05/02/1999 SAC vs. PHX W 24 6 3 3 100.0 0 0 - 0 0 - 0 2 2 3 3 0 1 1 17
p20
aVVernon Maxwell SAC 05/02/1999 SAC vs. PHX W 23 16 5 15 33.3 0 7 0.0 6 6 100.0 0 2 2 4 1 1 1 4 11
p21
aVVlade Divac SAC 05/02/1999 SAC vs. PHX W 34 11 4 10 40.0 0 1 0.0 3 5 60.0 3 2 5 1 0 1 2 3 1
p22
aVScot Pollard SAC 05/02/1999 SAC vs. PHX W 16 6 2 2 100.0 0 0 - 2 2 100.0 1 4 5 0 0 2 1 3 14
p23
aVJason Williams SAC 05/02/1999 SAC vs. PHX W 32 24 8 19 42.1 4 12 33.3 4 4 100.0 0 3 3 5 4 0 0 1 2
p24
aVTariq Abdul-Wahad SAC 05/02/1999 SAC vs. PHX W 20 4 1 7 14.3 0 0 - 2 2 100.0 3 0 3 1 0 0 0 0 -10
p25
aVCorliss Williamson SAC 05/02/1999 SAC vs. PHX W 23 14 6 11 54.5 0 0 - 2 2 100.0 0 3 3 1 0 0 0 1 -6
p26
aVLawrence Funderburke SAC 05/02/1999 SAC vs. PHX W 11 6 3 6 50.0 0 0 - 0 0 - 2 0 2 1 0 0 0 1 6
p27
aVPeja Stojakovic SAC 05/02/1999 SAC vs. PHX W 26 11 4 10 40.0 3 6 50.0 0 0 - 3 3 6 2 2 0 1 2 19
p28
aVChris Webber SAC 05/02/1999 SAC vs. PHX W 32 13 6 14 42.9 0 1 0.0 1 2 50.0 5 8 13 3 2 1 3 4 1
p29
aVScot Pollard SAC 04/29/1999 SAC vs. LAC W 36 16 6 12 50.0 0 0 - 4 4 100.0 7 4 11 0 1 1 1 3 24
p30
aVTariq Abdul-Wahad SAC 04/29/1999 SAC vs. LAC W 21 19 7 14 50.0 0 1 0.0 5 5 100.0 3 6 9 1 2 0 3 5 8
p31
aVCorliss Williamson SAC 04/29/1999 SAC vs. LAC W 25 14 6 16 37.5 0 0 - 2 3 66.7 2 6 8 1 1 0 0 3 11
p32
aVLawrence Funderburke SAC 04/29/1999 SAC vs. LAC W 20 10 3 6 50.0 0 0 - 4 5 80.0 2 4 6 0 0 0 0 0 10
p33
aVJon Barry SAC 04/29/1999 SAC vs. LAC W 21 3 1 4 25.0 0 3 0.0 1 3 33.3 1 0 1 9 5 0 2 1 10
p34
aVVernon Maxwell SAC 04/29/1999 SAC vs. LAC W 21 16 5 10 50.0 4 7 57.1 2 2 100.0 1 0 1 0 1 0 3 3 12
p35
aVMichael Hawkins SAC 04/29/1999 SAC vs. LAC W 3 0 0 1 0.0 0 0 - 0 0 - 0 0 0 0 0 0 0 0 2
p36
aVPeja Stojakovic SAC 04/29/1999 SAC vs. LAC W 23 15 5 12 41.7 3 8 37.5 2 2 100.0 2 3 5 1 1 0 2 0 11
p37
aVJason Williams SAC 04/29/1999 SAC vs. LAC W 30 5 2 7 28.6 1 4 25.0 0 0 - 0 4 4 7 4 0 6 2 12
p38
aVVlade Divac SAC 04/29/1999 SAC vs. LAC W 37 5 1 8 12.5 0 0 - 3 6 50.0 1 10 11 3 1 0 4 4 8
p39
aVJerome James SAC 04/29/1999 SAC vs. LAC W 3 0 0 1 0.0 0 0 - 0 0 - 0 2 2 0 0 0 1 1 2
p40
aVLawrence Funderburke SAC 04/27/1999 SAC vs. SAS W 33 9 2 2 100.0 0 0 - 5 7 71.4 1 5 6 1 0 0 1 2 1
p41
aVJason Williams SAC 04/27/1999 SAC vs. SAS W 35 14 5 18 27.8 2 10 20.0 2 2 100.0 1 2 3 7 3 0 5 1 4
p42
aVVlade Divac SAC 04/27/1999 SAC vs. SAS W 44 27 13 23 56.5 0 3 0.0 1 2 50.0 2 13 15 3 1 0 2 4 5
p43
aVCorliss Williamson SAC 04/27/1999 SAC vs. SAS W 23 9 2 7 28.6 0 0 - 5 6 83.3 2 4 6 0 0 0 1 3 -1
p44
aVScot Pollard SAC 04/27/1999 SAC vs. SAS W 25 9 4 6 66.7 0 0 - 1 5 20.0 4 4 8 0 1 2 0 5 2
p45
aVJon Barry SAC 04/27/1999 SAC vs. SAS W 36 10 3 6 50.0 2 2 100.0 2 2 100.0 0 4 4 6 2 0 1 3 3
p46
aVVernon Maxwell SAC 04/27/1999 SAC vs. SAS W 34 16 5 14 35.7 2 8 25.0 4 5 80.0 0 6 6 1 1 0 4 3 0
p47
aVTariq Abdul-Wahad SAC 04/27/1999 SAC vs. SAS W 17 8 3 10 30.0 0 0 - 2 2 100.0 0 2 2 0 0 0 0 4 1
p48
aVPeja Stojakovic SAC 04/27/1999 SAC vs. SAS W 18 2 0 5 0.0 0 2 0.0 2 2 100.0 1 1 2 2 0 0 2 0 5
p49
aVMichael Hawkins SAC 04/26/1999 SAC @ GSW L 4 0 0 1 0.0 0 0 - 0 0 - 0 0 0 0 0 0 0 1 -7
p50
aVJerome James SAC 04/26/1999 SAC @ GSW L 4 0 0 2 0.0 0 0 - 0 0 - 0 1 1 0 0 1 1 1 -7
p51
aVCorliss Williamson SAC 04/26/1999 SAC @ GSW L 33 15 7 16 43.8 0 1 0.0 1 2 50.0 1 0 1 1 0 1 0 4 -21
p52
aVTariq Abdul-Wahad SAC 04/26/1999 SAC @ GSW L 33 16 7 11 63.6 1 1 100.0 1 2 50.0 3 2 5 2 1 2 2 4 -13
p53
aVVlade Divac SAC 04/26/1999 SAC @ GSW L 30 8 4 11 36.4 0 1 0.0 0 0 - 2 8 10 5 3 0 4 3 -20
p54
aVLawrence Funderburke SAC 04/26/1999 SAC @ GSW L 24 17 7 11 63.6 0 0 - 3 3 100.0 1 4 5 0 1 0 1 2 -20
p55
aVJon Barry SAC 04/26/1999 SAC @ GSW L 21 3 1 5 20.0 1 3 33.3 0 0 - 0 2 2 1 0 0 0 2 -11
p56
aVPeja Stojakovic SAC 04/26/1999 SAC @ GSW L 35 17 3 13 23.1 2 6 33.3 9 12 75.0 4 2 6 1 0 0 2 0 -4
p57
aVJason Williams SAC 04/26/1999 SAC @ GSW L 29 7 3 9 33.3 0 5 0.0 1 2 50.0 0 3 3 4 2 0 1 2 -16
p58
aVVernon Maxwell SAC 04/26/1999 SAC @ GSW L 9 3 1 3 33.3 1 2 50.0 0 0 - 0 1 1 3 0 0 0 5 -3
p59
aVScot Pollard SAC 04/26/1999 SAC @ GSW L 17 3 1 5 20.0 0 0 - 1 2 50.0 2 1 3 0 0 1 0 4 -3
p60
aVJason Williams SAC 04/24/1999 SAC vs. DAL W 36 9 4 14 28.6 1 8 12.5 0 0 - 0 3 3 7 1 0 3 1 7
p61
aVChris Webber SAC 04/24/1999 SAC vs. DAL W 29 17 8 9 88.9 0 1 0.0 1 1 100.0 1 5 6 1 1 0 1 2 1
p62
aVTariq Abdul-Wahad SAC 04/24/1999 SAC vs. DAL W 23 4 2 6 33.3 0 0 - 0 2 0.0 0 3 3 0 2 0 1 2 10
p63
aVPeja Stojakovic SAC 04/24/1999 SAC vs. DAL W 20 11 4 10 40.0 1 6 16.7 2 4 50.0 3 1 4 2 1 0 3 0 -3
p64
aVScot Pollard SAC 04/24/1999 SAC vs. DAL W 7 0 0 3 0.0 0 0 - 0 0 - 4 1 5 0 0 0 0 3 1
p65
aVVlade Divac SAC 04/24/1999 SAC vs. DAL W 42 28 10 15 66.7 0 0 - 8 10 80.0 2 7 9 3 1 1 2 4 6
p66
aVCorliss Williamson SAC 04/24/1999 SAC vs. DAL W 25 11 4 9 44.4 0 0 - 3 6 50.0 2 3 5 1 4 0 1 2 4
p67
aVJon Barry SAC 04/24/1999 SAC vs. DAL W 15 5 1 2 50.0 0 1 0.0 3 3 100.0 0 2 2 3 1 0 0 2 -2
p68
aVLawrence Funderburke SAC 04/24/1999 SAC vs. DAL W 18 4 2 5 40.0 0 0 - 0 0 - 0 2 2 1 0 0 1 2 -2
p69
aVVernon Maxwell SAC 04/24/1999 SAC vs. DAL W 25 16 6 11 54.5 3 7 42.9 1 1 100.0 0 1 1 1 0 0 0 2 -7
p70
aVChris Webber SAC 04/23/1999 SAC vs. MIN W 48 18 8 19 42.1 0 0 - 2 4 50.0 6 13 19 4 3 0 3 1 8
p71
aVJon Barry SAC 04/23/1999 SAC vs. MIN W 27 20 4 7 57.1 2 4 50.0 10 12 83.3 2 4 6 3 4 0 0 4 14
p72
aVLawrence Funderburke SAC 04/23/1999 SAC vs. MIN W 9 6 1 5 20.0 0 0 - 4 4 100.0 4 0 4 1 0 1 2 0 11
p73
aVCorliss Williamson SAC 04/23/1999 SAC vs. MIN W 21 9 4 10 40.0 0 0 - 1 2 50.0 3 2 5 0 2 0 0 2 -6
p74
aVPeja Stojakovic SAC 04/23/1999 SAC vs. MIN W 22 2 0 3 0.0 0 2 0.0 2 2 100.0 1 3 4 4 2 0 1 2 12
p75
aVVernon Maxwell SAC 04/23/1999 SAC vs. MIN W 26 12 5 18 27.8 0 8 0.0 2 3 66.7 1 1 2 1 2 0 0 3 8
p76
aVVlade Divac SAC 04/23/1999 SAC vs. MIN W 39 11 4 11 36.4 0 1 0.0 3 4 75.0 3 5 8 1 1 1 2 2 -3
p77
aVJason Williams SAC 04/23/1999 SAC vs. MIN W 33 27 9 17 52.9 5 12 41.7 4 4 100.0 0 1 1 4 2 0 3 3 5
p78
aVTariq Abdul-Wahad SAC 04/23/1999 SAC vs. MIN W 15 0 0 2 0.0 0 0 - 0 0 - 0 0 0 1 1 0 2 2 -9
p79
aVTariq Abdul-Wahad SAC 04/21/1999 SAC vs. GSW W 23 8 2 12 16.7 0 0 - 4 7 57.1 4 2 6 0 1 1 0 3 -8
p80
aVVlade Divac SAC 04/21/1999 SAC vs. GSW W 42 20 6 11 54.5 0 0 - 8 10 80.0 3 10 13 2 0 0 1 3 6
p81
aVPeja Stojakovic SAC 04/21/1999 SAC vs. GSW W 24 7 1 7 14.3 1 3 33.3 4 4 100.0 1 3 4 1 1 0 1 2 16
p82
aVJason Williams SAC 04/21/1999 SAC vs. GSW W 43 11 3 9 33.3 2 7 28.6 3 4 75.0 0 3 3 5 0 0 2 3 6
p83
aVLawrence Funderburke SAC 04/21/1999 SAC vs. GSW W 11 3 1 2 50.0 0 0 - 1 2 50.0 2 1 3 1 0 0 0 0 6
p84
aVCorliss Williamson SAC 04/21/1999 SAC vs. GSW W 24 14 5 12 41.7 0 0 - 4 5 80.0 3 3 6 0 1 0 1 1 -7
p85
aVChris Webber SAC 04/21/1999 SAC vs. GSW W 43 25 12 26 46.2 0 0 - 1 5 20.0 5 11 16 5 3 5 3 3 6
p86
aVVernon Maxwell SAC 04/21/1999 SAC vs. GSW W 25 15 4 11 36.4 1 6 16.7 6 6 100.0 2 5 7 3 1 0 1 1 17
p87
aVMichael Hawkins SAC 04/21/1999 SAC vs. GSW W 5 0 0 0 - 0 0 - 0 0 - 0 0 0 0 0 0 0 0 3
p88
aVJon Barry SAC 04/19/1999 SAC @ LAC W 0 0 0 0 - 0 0 - 0 0 - 0 0 0 0 0 0 0 0 1
p89
aVScot Pollard SAC 04/19/1999 SAC @ LAC W 15 0 0 1 0.0 0 0 - 0 0 - 2 4 6 1 0 1 0 1 -6
p90
aVVernon Maxwell SAC 04/19/1999 SAC @ LAC W 12 7 2 8 25.0 1 5 20.0 2 2 100.0 0 0 0 1 0 0 0 0 2
p91
aVPeja Stojakovic SAC 04/19/1999 SAC @ LAC W 16 4 0 5 0.0 0 2 0.0 4 4 100.0 2 1 3 0 0 0 1 0 5
p92
aVVlade Divac SAC 04/19/1999 SAC @ LAC W 28 10 3 8 37.5 0 1 0.0 4 6 66.7 2 6 8 3 1 0 1 5 9
p93
aVMichael Hawkins SAC 04/19/1999 SAC @ LAC W 3 0 0 0 - 0 0 - 0 0 - 0 1 1 1 0 0 1 1 -2
p94
aVCorliss Williamson SAC 04/19/1999 SAC @ LAC W 32 23 10 12 83.3 0 0 - 3 5 60.0 3 3 6 1 0 0 3 4 -1
p95
aVLawrence Funderburke SAC 04/19/1999 SAC @ LAC W 6 5 2 3 66.7 0 0 - 1 3 33.3 2 0 2 0 0 0 0 3 -2
p96
aVTariq Abdul-Wahad SAC 04/19/1999 SAC @ LAC W 37 12 6 13 46.2 0 0 - 0 0 - 3 6 9 4 0 1 1 1 0
p97
aVJason Williams SAC 04/19/1999 SAC @ LAC W 45 19 8 15 53.3 1 7 14.3 2 2 100.0 0 1 1 14 2 0 4 2 8
p98
aVChris Webber SAC 04/19/1999 SAC @ LAC W 47 22 11 22 50.0 0 2 0.0 0 0 - 1 5 6 2 1 1 3 4 6
p99
aVJerome James SAC 04/17/1999 SAC vs. DEN W 2 2 0 1 0.0 0 0 - 2 2 100.0 2 2 4 0 0 1 0 1 0
p100
aVJon Barry SAC 04/17/1999 SAC vs. DEN W 6 0 0 1 0.0 0 1 0.0 0 0 - 0 0 0 1 0 0 0 0 -5
p101
aVTariq Abdul-Wahad SAC 04/17/1999 SAC vs. DEN W 34 17 7 16 43.8 0 2 0.0 3 4 75.0 2 1 3 2 1 2 3 4 21
p102
aVCorliss Williamson SAC 04/17/1999 SAC vs. DEN W 42 29 12 18 66.7 0 1 0.0 5 6 83.3 3 4 7 3 1 1 2 1 31
p103
aVChris Webber SAC 04/17/1999 SAC vs. DEN W 42 24 10 17 58.8 0 1 0.0 4 6 66.7 1 9 10 5 1 2 0 4 29
p104
aVScot Pollard SAC 04/17/1999 SAC vs. DEN W 6 0 0 0 - 0 0 - 0 0 - 0 0 0 0 0 0 1 2 3
p105
aVVlade Divac SAC 04/17/1999 SAC vs. DEN W 32 8 3 5 60.0 0 0 - 2 4 50.0 2 12 14 4 0 1 2 3 10
p106
aVLawrence Funderburke SAC 04/17/1999 SAC vs. DEN W 13 15 6 7 85.7 1 1 100.0 2 2 100.0 1 1 2 0 1 0 1 1 2
p107
aVPeja Stojakovic SAC 04/17/1999 SAC vs. DEN W 6 0 0 2 0.0 0 0 - 0 0 - 0 1 1 0 0 1 1 0 -9
p108
aVVernon Maxwell SAC 04/17/1999 SAC vs. DEN W 12 4 1 3 33.3 1 3 33.3 1 2 50.0 0 2 2 1 0 0 1 0 1
p109
aVMichael Hawkins SAC 04/17/1999 SAC vs. DEN W 2 0 0 3 0.0 0 1 0.0 0 0 - 0 0 0 0 0 0 0 0 0
p110
aVJason Williams SAC 04/17/1999 SAC vs. DEN W 42 20 7 15 46.7 4 10 40.0 2 2 100.0 2 1 3 11 1 0 2 1 27
p111
aVCorliss Williamson SAC 04/15/1999 SAC vs. SEA L 28 17 8 16 50.0 0 0 - 1 4 25.0 4 2 6 2 0 0 2 2 4
p112
aVJason Williams SAC 04/15/1999 SAC vs. SEA L 46 6 2 13 15.4 0 6 0.0 2 2 100.0 1 6 7 13 4 0 6 3 16
p113
aVPeja Stojakovic SAC 04/15/1999 SAC vs. SEA L 22 5 2 8 25.0 1 5 20.0 0 0 - 0 1 1 0 1 0 1 2 -1
p114
aVVlade Divac SAC 04/15/1999 SAC vs. SEA L 43 15 6 15 40.0 1 2 50.0 2 6 33.3 6 9 15 6 1 1 2 5 11
p115
aVLawrence Funderburke SAC 04/15/1999 SAC vs. SEA L 11 2 1 2 50.0 0 0 - 0 0 - 0 2 2 1 0 0 1 1 -2
p116
aVTariq Abdul-Wahad SAC 04/15/1999 SAC vs. SEA L 34 11 5 10 50.0 0 0 - 1 2 50.0 4 1 5 1 0 0 2 5 -8
p117
aVChris Webber SAC 04/15/1999 SAC vs. SEA L 50 26 12 20 60.0 0 1 0.0 2 3 66.7 4 17 21 4 3 2 2 5 -3
p118
aVVernon Maxwell SAC 04/15/1999 SAC vs. SEA L 24 16 6 13 46.2 4 9 44.4 0 0 - 0 1 1 1 1 0 1 2 -5
p119
aVMichael Hawkins SAC 04/15/1999 SAC vs. SEA L 7 0 0 1 0.0 0 0 - 0 0 - 0 0 0 0 0 0 2 0 -17
p120
aVLawrence Funderburke SAC 04/13/1999 SAC vs. UTA L 11 4 1 2 50.0 0 0 - 2 2 100.0 1 2 3 0 1 0 1 2 0
p121
aVScot Pollard SAC 04/13/1999 SAC vs. UTA L 5 4 1 3 33.3 0 0 - 2 2 100.0 3 0 3 0 0 1 0 2 5
p122
aVMichael Hawkins SAC 04/13/1999 SAC vs. UTA L 13 2 1 1 100.0 0 0 - 0 0 - 0 1 1 1 0 0 0 1 0
p123
aVTariq Abdul-Wahad SAC 04/13/1999 SAC vs. UTA L 29 10 5 7 71.4 0 0 - 0 3 0.0 2 1 3 0 2 1 5 4 3
p124
aVPeja Stojakovic SAC 04/13/1999 SAC vs. UTA L 23 13 5 7 71.4 3 4 75.0 0 0 - 0 4 4 0 0 0 2 2 -6
p125
aVChris Webber SAC 04/13/1999 SAC vs. UTA L 48 16 7 20 35.0 0 2 0.0 2 4 50.0 6 10 16 8 1 1 5 3 -10
p126
aVJason Williams SAC 04/13/1999 SAC vs. UTA L 40 12 4 11 36.4 4 8 50.0 0 0 - 0 2 2 6 2 0 5 3 -5
p127
aVVlade Divac SAC 04/13/1999 SAC vs. UTA L 42 17 6 17 35.3 0 1 0.0 5 5 100.0 6 7 13 6 0 1 4 2 -5
p128
aVCorliss Williamson SAC 04/13/1999 SAC vs. UTA L 43 22 7 15 46.7 1 1 100.0 7 7 100.0 3 2 5 0 1 1 2 4 -10
p129
aVVernon Maxwell SAC 04/13/1999 SAC vs. UTA L 11 0 0 3 0.0 0 1 0.0 0 0 - 0 2 2 0 0 0 1 0 3
p130
aVVernon Maxwell SAC 04/11/1999 SAC @ VAN W 28 11 4 9 44.4 3 7 42.9 0 0 - 1 2 3 4 1 0 2 2 -1
p131
aVTariq Abdul-Wahad SAC 04/11/1999 SAC @ VAN W 20 9 4 7 57.1 1 1 100.0 0 2 0.0 0 2 2 1 0 0 1 3 4
p132
aVPeja Stojakovic SAC 04/11/1999 SAC @ VAN W 23 7 2 8 25.0 1 4 25.0 2 2 100.0 0 2 2 1 2 0 2 1 -6
p133
aVVlade Divac SAC 04/11/1999 SAC @ VAN W 32 13 6 10 60.0 0 0 - 1 2 50.0 0 3 3 5 1 1 1 4 9
p134
aVLawrence Funderburke SAC 04/11/1999 SAC @ VAN W 18 10 4 9 44.4 0 0 - 2 2 100.0 4 3 7 0 0 0 2 3 -9
p135
aVJason Williams SAC 04/11/1999 SAC @ VAN W 41 9 3 8 37.5 2 7 28.6 1 2 50.0 1 4 5 7 0 0 2 1 9
p136
aVJon Barry SAC 04/11/1999 SAC @ VAN W 7 0 0 1 0.0 0 1 0.0 0 0 - 0 0 0 0 1 0 0 0 -5
p137
aVCorliss Williamson SAC 04/11/1999 SAC @ VAN W 25 8 3 8 37.5 0 0 - 2 2 100.0 1 2 3 3 0 0 0 2 9
p138
aVChris Webber SAC 04/11/1999 SAC @ VAN W 45 24 12 21 57.1 0 0 - 0 0 - 2 8 10 5 5 0 6 1 5
p139
aVTariq Abdul-Wahad SAC 04/10/1999 SAC vs. DEN W 27 10 5 11 45.5 0 2 0.0 0 0 - 1 2 3 1 1 0 0 2 7
p140
aVJon Barry SAC 04/10/1999 SAC vs. DEN W 6 1 0 0 - 0 0 - 1 2 50.0 0 1 1 1 0 0 1 2 1
p141
aVPeja Stojakovic SAC 04/10/1999 SAC vs. DEN W 25 12 5 11 45.5 0 3 0.0 2 2 100.0 2 2 4 0 1 1 1 1 -1
p142
aVCorliss Williamson SAC 04/10/1999 SAC vs. DEN W 23 14 6 10 60.0 0 0 - 2 2 100.0 1 1 2 2 0 0 0 2 7
p143
aVChris Webber SAC 04/10/1999 SAC vs. DEN W 44 23 11 22 50.0 0 0 - 1 3 33.3 6 5 11 5 0 1 2 4 8
p144
aVJason Williams SAC 04/10/1999 SAC vs. DEN W 37 13 5 10 50.0 2 6 33.3 1 2 50.0 0 8 8 9 2 0 3 3 10
p145
aVMichael Hawkins SAC 04/10/1999 SAC vs. DEN W 6 0 0 1 0.0 0 0 - 0 0 - 0 1 1 2 0 0 0 0 -3
p146
aVVernon Maxwell SAC 04/10/1999 SAC vs. DEN W 21 11 4 7 57.1 3 5 60.0 0 0 - 0 1 1 0 0 0 1 2 -1
p147
aVVlade Divac SAC 04/10/1999 SAC vs. DEN W 39 21 9 13 69.2 1 1 100.0 2 4 50.0 3 12 15 8 0 2 8 3 9
p148
aVLawrence Funderburke SAC 04/10/1999 SAC vs. DEN W 12 5 2 3 66.7 0 0 - 1 1 100.0 0 3 3 0 0 0 1 0 -7
p149
aVMichael Hawkins SAC 04/07/1999 SAC vs. LAL L 6 0 0 0 - 0 0 - 0 0 - 0 0 0 1 0 0 2 1 -4
p150
aVVlade Divac SAC 04/07/1999 SAC vs. LAL L 33 14 6 14 42.9 0 1 0.0 2 2 100.0 4 3 7 2 2 2 6 4 -4
p151
aVJason Williams SAC 04/07/1999 SAC vs. LAL L 42 12 5 14 35.7 2 8 25.0 0 0 - 0 3 3 2 2 0 3 0 -11
p152
aVLawrence Funderburke SAC 04/07/1999 SAC vs. LAL L 10 4 1 3 33.3 0 0 - 2 2 100.0 0 0 0 0 0 0 2 1 -10
p153
aVCorliss Williamson SAC 04/07/1999 SAC vs. LAL L 31 22 9 10 90.0 0 0 - 4 6 66.7 1 1 2 0 1 0 0 4 -1
p154
aVJerome James SAC 04/07/1999 SAC vs. LAL L 2 2 1 1 100.0 0 0 - 0 2 0.0 0 1 1 0 0 0 0 0 1
p155
aVJon Barry SAC 04/07/1999 SAC vs. LAL L 13 0 0 2 0.0 0 1 0.0 0 0 - 0 1 1 1 1 0 2 1 -8
p156
aVPeja Stojakovic SAC 04/07/1999 SAC vs. LAL L 20 7 1 6 16.7 1 4 25.0 4 4 100.0 1 1 2 6 2 1 0 1 -15
p157
aVVernon Maxwell SAC 04/07/1999 SAC vs. LAL L 32 5 2 8 25.0 0 2 0.0 1 2 50.0 0 3 3 3 1 0 2 4 -6
p158
aVScot Pollard SAC 04/07/1999 SAC vs. LAL L 11 2 1 1 100.0 0 0 - 0 0 - 1 2 3 0 0 0 0 3 -6
p159
aVChris Webber SAC 04/07/1999 SAC vs. LAL L 41 21 10 20 50.0 0 1 0.0 1 7 14.3 5 11 16 6 5 0 7 3 -11
p160
aVCorliss Williamson SAC 04/06/1999 SAC @ SEA W 23 11 5 5 100.0 0 0 - 1 3 33.3 0 1 1 3 0 0 2 1 4
p161
aVTariq Abdul-Wahad SAC 04/06/1999 SAC @ SEA W 30 18 8 12 66.7 0 0 - 2 4 50.0 1 2 3 1 0 0 2 5 12
p162
aVVlade Divac SAC 04/06/1999 SAC @ SEA W 46 11 4 11 36.4 0 1 0.0 3 3 100.0 2 12 14 10 2 2 3 3 10
p163
aVChris Webber SAC 04/06/1999 SAC @ SEA W 41 16 8 15 53.3 0 0 - 0 4 0.0 3 10 13 6 1 2 6 5 4
p164
aVPeja Stojakovic SAC 04/06/1999 SAC @ SEA W 30 16 6 9 66.7 2 4 50.0 2 2 100.0 0 1 1 2 3 0 0 0 2
p165
aVJason Williams SAC 04/06/1999 SAC @ SEA W 44 21 7 11 63.6 5 9 55.6 2 2 100.0 0 6 6 6 4 0 1 1 12
p166
aVLawrence Funderburke SAC 04/06/1999 SAC @ SEA W 18 10 4 7 57.1 0 0 - 2 4 50.0 3 2 5 0 0 1 3 2 -2
p167
aVMichael Hawkins SAC 04/06/1999 SAC @ SEA W 9 0 0 0 - 0 0 - 0 0 - 0 1 1 2 0 0 0 1 -6
p168
aVVernon Maxwell SAC 04/06/1999 SAC @ SEA W 24 9 3 13 23.1 1 6 16.7 2 2 100.0 0 2 2 1 0 0 4 2 -6
p169
aVTariq Abdul-Wahad SAC 04/03/1999 SAC @ MIN L 28 14 6 12 50.0 0 0 - 2 2 100.0 0 8 8 0 1 0 0 1 1
p170
aVLawrence Funderburke SAC 04/03/1999 SAC @ MIN L 23 8 3 7 42.9 0 0 - 2 2 100.0 3 2 5 2 0 0 0 2 -6
p171
aVCorliss Williamson SAC 04/03/1999 SAC @ MIN L 25 11 5 11 45.5 0 0 - 1 1 100.0 2 1 3 0 0 0 2 1 1
p172
aVMichael Hawkins SAC 04/03/1999 SAC @ MIN L 13 0 0 2 0.0 0 2 0.0 0 0 - 0 1 1 2 0 0 0 3 -3
p173
aVJason Williams SAC 04/03/1999 SAC @ MIN L 36 7 3 11 27.3 1 7 14.3 0 1 0.0 0 4 4 5 0 0 6 2 -3
p174
aVVernon Maxwell SAC 04/03/1999 SAC @ MIN L 20 15 5 8 62.5 3 4 75.0 2 4 50.0 0 0 0 2 1 0 1 1 -10
p175
aVScot Pollard SAC 04/03/1999 SAC @ MIN L 1 0 0 0 - 0 0 - 0 0 - 0 0 0 0 0 0 0 0 3
p176
aVPeja Stojakovic SAC 04/03/1999 SAC @ MIN L 23 7 2 7 28.6 0 1 0.0 3 3 100.0 1 3 4 3 1 0 1 3 -10
p177
aVVlade Divac SAC 04/03/1999 SAC @ MIN L 35 19 8 8 100.0 0 0 - 3 3 100.0 1 7 8 9 0 1 4 3 -2
p178
aVChris Webber SAC 04/03/1999 SAC @ MIN L 36 15 7 20 35.0 1 3 33.3 0 0 - 5 5 10 4 1 4 2 2 -16
p179
aVVlade Divac SAC 03/31/1999 SAC @ POR L 40 20 7 13 53.8 1 3 33.3 5 6 83.3 4 8 12 7 0 0 3 3 -10
p180
aVCorliss Williamson SAC 03/31/1999 SAC @ POR L 24 13 5 14 35.7 0 0 - 3 4 75.0 2 6 8 2 0 0 2 2 -4
p181
aVVernon Maxwell SAC 03/31/1999 SAC @ POR L 20 9 4 9 44.4 1 4 25.0 0 0 - 1 0 1 0 0 0 0 2 -10
p182
aVScot Pollard SAC 03/31/1999 SAC @ POR L 13 2 1 2 50.0 0 0 - 0 0 - 2 2 4 0 0 1 0 4 -3
p183
aVJon Barry SAC 03/31/1999 SAC @ POR L 12 2 1 2 50.0 0 0 - 0 0 - 0 2 2 1 0 0 0 1 -3
p184
aVPeja Stojakovic SAC 03/31/1999 SAC @ POR L 24 8 2 5 40.0 1 3 33.3 3 4 75.0 0 3 3 1 2 0 2 0 -10
p185
aVJason Williams SAC 03/31/1999 SAC @ POR L 30 8 3 14 21.4 0 8 0.0 2 2 100.0 0 3 3 2 0 0 1 3 -15
p186
aVLawrence Funderburke SAC 03/31/1999 SAC @ POR L 28 12 6 12 50.0 0 0 - 0 2 0.0 7 2 9 1 1 0 2 3 -4
p187
aVTariq Abdul-Wahad SAC 03/31/1999 SAC @ POR L 28 4 1 8 12.5 1 3 33.3 1 2 50.0 2 7 9 0 1 2 2 1 -4
p188
aVMichael Hawkins SAC 03/31/1999 SAC @ POR L 18 6 3 6 50.0 0 2 0.0 0 0 - 1 3 4 3 0 0 4 0 1
p189
aVJerome James SAC 03/31/1999 SAC @ POR L 3 2 1 3 33.3 0 0 - 0 0 - 0 2 2 0 0 0 1 2 -8
p190
aVVernon Maxwell SAC 03/30/1999 SAC vs. UTA W 40 33 12 21 57.1 6 9 66.7 3 7 42.9 0 1 1 1 3 0 2 5 26
p191
aVJerome James SAC 03/30/1999 SAC vs. UTA W 5 2 1 3 33.3 0 0 - 0 0 - 0 0 0 1 0 1 2 1 5
p192
aVTariq Abdul-Wahad SAC 03/30/1999 SAC vs. UTA W 13 4 1 5 20.0 0 0 - 2 2 100.0 1 1 2 0 1 0 1 1 -23
p193
aVJason Williams SAC 03/30/1999 SAC vs. UTA W 21 3 1 8 12.5 1 6 16.7 0 0 - 0 0 0 6 0 0 2 2 -22
p194
aVScot Pollard SAC 03/30/1999 SAC vs. UTA W 36 11 4 5 80.0 0 0 - 3 4 75.0 4 7 11 0 2 4 1 3 15
p195
aVMichael Hawkins SAC 03/30/1999 SAC vs. UTA W 33 11 4 7 57.1 3 5 60.0 0 0 - 2 0 2 7 0 0 2 1 26
p196
aVCorliss Williamson SAC 03/30/1999 SAC vs. UTA W 10 0 0 2 0.0 0 0 - 0 0 - 0 0 0 0 0 0 1 1 -20
p197
aVPeja Stojakovic SAC 03/30/1999 SAC vs. UTA W 43 26 9 17 52.9 5 8 62.5 3 3 100.0 0 2 2 3 4 0 1 0 23
p198
aVVlade Divac SAC 03/30/1999 SAC vs. UTA W 44 8 0 9 0.0 0 2 0.0 8 8 100.0 5 8 13 6 3 2 4 5 1
p199
aVLawrence Funderburke SAC 03/30/1999 SAC vs. UTA W 21 6 3 6 50.0 0 0 - 0 0 - 2 1 3 0 0 0 0 1 -16
p200
aVVernon Maxwell SAC 03/28/1999 SAC vs. HOU L 25 9 2 10 20.0 1 5 20.0 4 6 66.7 2 2 4 1 0 0 1 4 -9
p201
aVLawrence Funderburke SAC 03/28/1999 SAC vs. HOU L 36 18 9 13 69.2 0 0 - 0 0 - 9 6 15 2 0 1 3 3 -2
p202
aVTariq Abdul-Wahad SAC 03/28/1999 SAC vs. HOU L 23 7 3 11 27.3 0 0 - 1 1 100.0 2 6 8 0 1 0 3 3 -5
p203
aVMichael Hawkins SAC 03/28/1999 SAC vs. HOU L 13 0 0 2 0.0 0 1 0.0 0 0 - 3 2 5 1 0 0 1 1 -4
p204
aVJon Barry SAC 03/28/1999 SAC vs. HOU L 18 6 0 2 0.0 0 1 0.0 6 6 100.0 1 1 2 3 0 0 0 6 3
p205
aVVlade Divac SAC 03/28/1999 SAC vs. HOU L 38 16 7 15 46.7 1 3 33.3 1 2 50.0 1 12 13 5 0 0 4 1 -17
p206
aVJason Williams SAC 03/28/1999 SAC vs. HOU L 35 21 9 20 45.0 2 5 40.0 1 2 50.0 2 2 4 3 1 0 2 1 -14
p207
aVPeja Stojakovic SAC 03/28/1999 SAC vs. HOU L 28 9 4 13 30.8 0 4 0.0 1 1 100.0 2 2 4 2 1 0 0 1 -12
p208
aVCorliss Williamson SAC 03/28/1999 SAC vs. HOU L 23 7 2 10 20.0 0 0 - 3 6 50.0 1 1 2 1 3 1 0 1 -10
p209
aVVernon Maxwell SAC 03/26/1999 SAC @ LAL W 16 12 4 8 50.0 3 5 60.0 1 2 50.0 0 1 1 1 0 0 3 2 -12
p210
aVTariq Abdul-Wahad SAC 03/26/1999 SAC @ LAL W 33 10 5 11 45.5 0 0 - 0 0 - 1 6 7 2 3 2 0 4 14
p211
aVMichael Hawkins SAC 03/26/1999 SAC @ LAL W 10 0 0 2 0.0 0 2 0.0 0 0 - 0 2 2 1 0 0 0 0 2
p212
aVCorliss Williamson SAC 03/26/1999 SAC @ LAL W 41 22 9 16 56.3 0 0 - 4 9 44.4 2 1 3 1 0 0 1 3 16
p213
aVLawrence Funderburke SAC 03/26/1999 SAC @ LAL W 15 4 2 2 100.0 0 0 - 0 0 - 0 1 1 1 0 0 1 2 -17
p214
aVPeja Stojakovic SAC 03/26/1999 SAC @ LAL W 6 0 0 1 0.0 0 0 - 0 0 - 0 0 0 0 0 0 0 1 -14
p215
aVVlade Divac SAC 03/26/1999 SAC @ LAL W 38 23 7 15 46.7 2 3 66.7 7 8 87.5 1 9 10 7 2 1 0 4 17
p216
aVJason Williams SAC 03/26/1999 SAC @ LAL W 38 11 4 12 33.3 3 8 37.5 0 0 - 1 1 2 12 3 0 1 2 0
p217
aVChris Webber SAC 03/26/1999 SAC @ LAL W 43 29 14 22 63.6 0 1 0.0 1 2 50.0 4 6 10 3 3 1 4 2 4
p218
aVLawrence Funderburke SAC 03/24/1999 SAC vs. NYK W 15 2 0 2 0.0 0 0 - 2 2 100.0 1 3 4 0 0 1 0 0 -20
p219
aVJason Williams SAC 03/24/1999 SAC vs. NYK W 32 12 3 7 42.9 3 5 60.0 3 4 75.0 0 2 2 4 4 0 6 3 8
p220
aVVernon Maxwell SAC 03/24/1999 SAC vs. NYK W 27 19 6 15 40.0 3 9 33.3 4 5 80.0 0 4 4 0 0 0 2 3 -7
p221
aVVlade Divac SAC 03/24/1999 SAC vs. NYK W 38 18 6 8 75.0 1 1 100.0 5 8 62.5 0 7 7 10 0 1 4 2 12
p222
aVMichael Hawkins SAC 03/24/1999 SAC vs. NYK W 19 8 3 6 50.0 1 4 25.0 1 1 100.0 0 1 1 0 0 0 1 1 -5
p223
aVTariq Abdul-Wahad SAC 03/24/1999 SAC vs. NYK W 32 11 5 8 62.5 0 1 0.0 1 4 25.0 2 3 5 0 3 1 1 1 2
p224
aVCorliss Williamson SAC 03/24/1999 SAC vs. NYK W 18 13 6 11 54.5 0 0 - 1 1 100.0 1 3 4 1 0 0 0 1 6
p225
aVJon Barry SAC 03/24/1999 SAC vs. NYK W 16 0 0 2 0.0 0 2 0.0 0 0 - 1 2 3 2 0 0 0 2 -1
p226
aVChris Webber SAC 03/24/1999 SAC vs. NYK W 42 9 2 13 15.4 0 0 - 5 8 62.5 2 7 9 2 1 0 4 1 10
p227
aVVernon Maxwell SAC 03/22/1999 SAC @ HOU L 28 25 6 12 50.0 4 8 50.0 9 10 90.0 0 1 1 1 1 0 3 2 6
p228
aVCorliss Williamson SAC 03/22/1999 SAC @ HOU L 21 10 5 8 62.5 0 0 - 0 0 - 0 1 1 0 0 0 1 2 -16
p229
aVMichael Hawkins SAC 03/22/1999 SAC @ HOU L 22 7 3 5 60.0 1 1 100.0 0 0 - 3 1 4 4 3 0 0 1 12
p230
aVPeja Stojakovic SAC 03/22/1999 SAC @ HOU L 3 0 0 0 - 0 0 - 0 0 - 0 1 1 0 0 0 1 1 -2
p231
aVJason Williams SAC 03/22/1999 SAC @ HOU L 28 2 1 8 12.5 0 1 0.0 0 0 - 0 1 1 3 0 0 3 0 -18
p232
aVVlade Divac SAC 03/22/1999 SAC @ HOU L 28 9 3 10 30.0 0 0 - 3 4 75.0 2 2 4 3 0 0 0 5 -19
p233
aVChris Webber SAC 03/22/1999 SAC @ HOU L 46 29 13 28 46.4 0 2 0.0 3 5 60.0 4 7 11 6 5 4 3 4 -5
p234
aVTariq Abdul-Wahad SAC 03/22/1999 SAC @ HOU L 20 8 4 9 44.4 0 0 - 0 0 - 2 3 5 2 1 0 1 4 -17
p235
aVLawrence Funderburke SAC 03/22/1999 SAC @ HOU L 22 2 1 6 16.7 0 0 - 0 0 - 0 2 2 0 0 3 1 2 4
p236
aVJon Barry SAC 03/22/1999 SAC @ HOU L 21 8 2 3 66.7 2 2 100.0 2 2 100.0 0 4 4 4 1 0 3 2 5
p237
aVChris Webber SAC 03/20/1999 SAC @ DAL L 36 12 6 16 37.5 0 1 0.0 0 2 0.0 4 12 16 4 0 2 3 5 -11
p238
aVLawrence Funderburke SAC 03/20/1999 SAC @ DAL L 20 9 4 8 50.0 0 0 - 1 2 50.0 2 3 5 0 2 0 1 2 -9
p239
aVTariq Abdul-Wahad SAC 03/20/1999 SAC @ DAL L 32 16 6 7 85.7 0 0 - 4 4 100.0 1 2 3 0 1 0 1 2 -5
p240
aVJason Williams SAC 03/20/1999 SAC @ DAL L 32 6 3 11 27.3 0 6 0.0 0 0 - 0 1 1 5 1 0 1 3 -6
p241
aVPeja Stojakovic SAC 03/20/1999 SAC @ DAL L 16 8 3 5 60.0 2 3 66.7 0 0 - 0 0 0 1 0 0 1 0 -4
p242
aVVernon Maxwell SAC 03/20/1999 SAC @ DAL L 18 8 2 6 33.3 2 3 66.7 2 2 100.0 0 0 0 1 1 0 1 4 -9
p243
aVCorliss Williamson SAC 03/20/1999 SAC @ DAL L 31 13 4 11 36.4 0 0 - 5 6 83.3 0 4 4 1 0 0 2 2 -10
p244
aVJon Barry SAC 03/20/1999 SAC @ DAL L 17 3 1 1 100.0 0 0 - 1 1 100.0 0 0 0 3 1 0 1 1 -9
p245
aVVlade Divac SAC 03/20/1999 SAC @ DAL L 39 15 7 13 53.8 0 1 0.0 1 3 33.3 0 6 6 6 0 2 1 1 -7
p246
aVLawrence Funderburke SAC 03/18/1999 SAC vs. POR L 18 5 1 7 14.3 0 1 0.0 3 5 60.0 1 1 2 1 1 1 0 1 4
p247
aVPeja Stojakovic SAC 03/18/1999 SAC vs. POR L 23 8 3 10 30.0 1 5 20.0 1 2 50.0 2 2 4 3 1 0 0 1 3
p248
aVJason Williams SAC 03/18/1999 SAC vs. POR L 33 5 2 13 15.4 1 8 12.5 0 1 0.0 0 3 3 5 2 0 5 1 -11
p249
aVCorliss Williamson SAC 03/18/1999 SAC vs. POR L 25 8 4 10 40.0 0 0 - 0 0 - 2 1 3 1 0 1 1 4 -13
p250
aVVlade Divac SAC 03/18/1999 SAC vs. POR L 36 11 5 14 35.7 0 0 - 1 2 50.0 6 5 11 2 0 1 0 3 -12
p251
aVJon Barry SAC 03/18/1999 SAC vs. POR L 15 7 2 4 50.0 1 3 33.3 2 2 100.0 0 2 2 1 1 0 2 1 1
p252
aVChris Webber SAC 03/18/1999 SAC vs. POR L 42 16 8 19 42.1 0 2 0.0 0 0 - 5 15 20 4 1 2 4 4 -12
p253
aVTariq Abdul-Wahad SAC 03/18/1999 SAC vs. POR L 28 9 3 8 37.5 1 1 100.0 2 2 100.0 1 0 1 2 3 0 1 2 -9
p254
aVVernon Maxwell SAC 03/18/1999 SAC vs. POR L 20 9 3 10 30.0 2 8 25.0 1 1 100.0 1 2 3 0 1 0 3 1 -1
p255
aVVlade Divac SAC 03/16/1999 SAC vs. SAS L 29 18 6 13 46.2 1 2 50.0 5 8 62.5 3 7 10 0 0 0 4 6 -14
p256
aVJerome James SAC 03/16/1999 SAC vs. SAS L 1 1 0 0 - 0 0 - 1 2 50.0 1 0 1 0 0 0 0 0 1
p257
aVLawrence Funderburke SAC 03/16/1999 SAC vs. SAS L 25 15 6 11 54.5 0 0 - 3 5 60.0 8 2 10 3 0 2 3 2 -4
p258
aVCorliss Williamson SAC 03/16/1999 SAC vs. SAS L 28 16 6 9 66.7 0 0 - 4 5 80.0 2 3 5 1 0 0 3 2 -6
p259
aVMichael Hawkins SAC 03/16/1999 SAC vs. SAS L 1 0 0 0 - 0 0 - 0 0 - 0 0 0 0 0 0 0 0 2
p260
aVJason Williams SAC 03/16/1999 SAC vs. SAS L 35 11 4 13 30.8 2 5 40.0 1 4 25.0 0 0 0 10 4 0 2 4 -13
p261
aVTariq Abdul-Wahad SAC 03/16/1999 SAC vs. SAS L 33 14 3 7 42.9 0 0 - 8 9 88.9 1 2 3 2 1 0 1 4 -10
p262
aVVernon Maxwell SAC 03/16/1999 SAC vs. SAS L 18 16 4 6 66.7 2 4 50.0 6 7 85.7 0 1 1 0 0 0 1 4 -1
p263
aVJon Barry SAC 03/16/1999 SAC vs. SAS L 14 3 0 2 0.0 0 2 0.0 3 3 100.0 0 2 2 3 0 0 0 0 0
p264
aVPeja Stojakovic SAC 03/16/1999 SAC vs. SAS L 15 0 0 5 0.0 0 2 0.0 0 0 - 1 1 2 0 0 0 0 1 -9
p265
aVChris Webber SAC 03/16/1999 SAC vs. SAS L 40 15 7 24 29.2 0 0 - 1 3 33.3 6 8 14 3 2 1 2 4 -11
p266
aVJason Williams SAC 03/15/1999 SAC @ GSW W 31 12 3 6 50.0 2 5 40.0 4 6 66.7 1 3 4 4 2 0 2 0 5
p267
aVLawrence Funderburke SAC 03/15/1999 SAC @ GSW W 20 11 5 7 71.4 0 0 - 1 3 33.3 0 3 3 2 1 1 2 0 -2
p268
aVChris Webber SAC 03/15/1999 SAC @ GSW W 38 20 8 14 57.1 0 2 0.0 4 8 50.0 0 6 6 6 0 2 3 3 -2
p269
aVPeja Stojakovic SAC 03/15/1999 SAC @ GSW W 22 12 3 6 50.0 1 2 50.0 5 6 83.3 2 4 6 4 0 0 0 0 13
p270
aVCorliss Williamson SAC 03/15/1999 SAC @ GSW W 26 16 8 13 61.5 0 0 - 0 1 0.0 0 6 6 2 0 0 2 3 -7
p271
aVVernon Maxwell SAC 03/15/1999 SAC @ GSW W 18 3 1 4 25.0 1 3 33.3 0 0 - 0 0 0 1 0 0 0 1 0
p272
aVTariq Abdul-Wahad SAC 03/15/1999 SAC @ GSW W 30 18 7 9 77.8 0 0 - 4 6 66.7 4 1 5 1 4 0 3 0 6
p273
aVVlade Divac SAC 03/15/1999 SAC @ GSW W 38 16 5 16 31.3 0 0 - 6 10 60.0 3 5 8 6 2 3 2 2 16
p274
aVJon Barry SAC 03/15/1999 SAC @ GSW W 17 3 1 3 33.3 1 2 50.0 0 0 - 1 1 2 2 0 0 0 1 1
p275
aVLawrence Funderburke SAC 03/14/1999 SAC vs. LAL W 21 10 3 4 75.0 0 0 - 4 4 100.0 2 4 6 2 1 0 3 1 5
p276
aVCorliss Williamson SAC 03/14/1999 SAC vs. LAL W 23 8 2 6 33.3 0 0 - 4 8 50.0 1 1 2 0 0 0 3 2 11
p277
aVChris Webber SAC 03/14/1999 SAC vs. LAL W 41 19 9 18 50.0 1 1 100.0 0 0 - 5 6 11 4 0 2 3 5 6
p278
aVVernon Maxwell SAC 03/14/1999 SAC vs. LAL W 20 6 2 5 40.0 2 4 50.0 0 0 - 0 1 1 2 1 0 2 3 -6
p279
aVTariq Abdul-Wahad SAC 03/14/1999 SAC vs. LAL W 26 15 3 6 50.0 0 0 - 9 10 90.0 1 3 4 1 2 0 2 3 -1
p280
aVJon Barry SAC 03/14/1999 SAC vs. LAL W 6 2 1 2 50.0 0 1 0.0 0 0 - 0 1 1 1 0 0 1 0 -2
p281
aVPeja Stojakovic SAC 03/14/1999 SAC vs. LAL W 30 17 7 11 63.6 3 7 42.9 0 0 - 0 6 6 3 2 0 1 1 2
p282
aVJason Williams SAC 03/14/1999 SAC vs. LAL W 39 21 7 15 46.7 2 6 33.3 5 6 83.3 0 4 4 5 0 0 4 0 10
p283
aVJerome James SAC 03/14/1999 SAC vs. LAL W 1 0 0 0 - 0 0 - 0 0 - 0 0 0 0 0 0 0 0 -2
p284
aVVlade Divac SAC 03/14/1999 SAC vs. LAL W 33 7 2 8 25.0 0 1 0.0 3 3 100.0 0 8 8 5 3 1 2 5 -3
p285
aVJon Barry SAC 03/12/1999 SAC vs. MIN L 10 2 0 2 0.0 0 2 0.0 2 2 100.0 0 0 0 1 1 0 3 3 2
p286
aVTariq Abdul-Wahad SAC 03/12/1999 SAC vs. MIN L 17 4 2 8 25.0 0 0 - 0 0 - 1 1 2 1 1 0 1 1 -6
p287
aVChris Webber SAC 03/12/1999 SAC vs. MIN L 43 15 6 14 42.9 0 0 - 3 7 42.9 3 7 10 0 2 1 3 3 -12
p288
aVJason Williams SAC 03/12/1999 SAC vs. MIN L 38 17 5 12 41.7 2 3 66.7 5 6 83.3 0 1 1 5 2 0 4 1 -8
p289
aVVlade Divac SAC 03/12/1999 SAC vs. MIN L 24 8 2 7 28.6 0 0 - 4 6 66.7 1 5 6 1 0 0 4 4 2
p290
aVLawrence Funderburke SAC 03/12/1999 SAC vs. MIN L 29 14 6 10 60.0 0 0 - 2 3 66.7 2 4 6 0 2 0 0 1 -2
p291
aVCorliss Williamson SAC 03/12/1999 SAC vs. MIN L 24 12 5 7 71.4 0 0 - 2 3 66.7 4 0 4 2 0 0 1 1 -8
p292
aVVernon Maxwell SAC 03/12/1999 SAC vs. MIN L 27 7 2 6 33.3 1 3 33.3 2 2 100.0 1 2 3 4 0 1 3 1 -2
p293
aVPeja Stojakovic SAC 03/12/1999 SAC vs. MIN L 28 16 5 10 50.0 2 4 50.0 4 4 100.0 1 3 4 3 0 0 1 3 4
p294
aVLawrence Funderburke SAC 03/11/1999 SAC @ LAC L 24 17 6 8 75.0 0 1 0.0 5 6 83.3 2 3 5 0 0 1 1 1 -5
p295
aVCorliss Williamson SAC 03/11/1999 SAC @ LAC L 24 9 3 7 42.9 0 0 - 3 4 75.0 0 2 2 2 2 0 2 2 -3
p296
aVVlade Divac SAC 03/11/1999 SAC @ LAC L 33 19 6 14 42.9 0 1 0.0 7 7 100.0 2 5 7 1 0 1 2 3 -14
p297
aVVernon Maxwell SAC 03/11/1999 SAC @ LAC L 23 10 3 8 37.5 1 5 20.0 3 3 100.0 1 2 3 3 0 0 1 3 -7
p298
aVPeja Stojakovic SAC 03/11/1999 SAC @ LAC L 6 0 0 1 0.0 0 1 0.0 0 0 - 0 1 1 0 0 0 1 2 3
p299
aVJon Barry SAC 03/11/1999 SAC @ LAC L 23 8 3 4 75.0 2 3 66.7 0 0 - 0 0 0 2 1 0 1 2 -7
p300
aVMichael Hawkins SAC 03/11/1999 SAC @ LAC L 5 0 0 0 - 0 0 - 0 0 - 0 0 0 0 0 1 0 0 -3
p301
aVJason Williams SAC 03/11/1999 SAC @ LAC L 39 9 4 14 28.6 1 6 16.7 0 0 - 1 3 4 4 1 0 3 1 -18
p302
aVChris Webber SAC 03/11/1999 SAC @ LAC L 40 17 7 17 41.2 0 0 - 3 11 27.3 1 8 9 2 0 3 0 4 -9
p303
aVTariq Abdul-Wahad SAC 03/11/1999 SAC @ LAC L 25 3 1 4 25.0 0 0 - 1 2 50.0 2 2 4 0 1 0 1 1 -7
p304
aVVernon Maxwell SAC 03/09/1999 SAC @ POR L 24 5 2 8 25.0 1 4 25.0 0 0 - 0 0 0 5 0 0 0 2 -5
p305
aVTariq Abdul-Wahad SAC 03/09/1999 SAC @ POR L 24 7 3 8 37.5 0 0 - 1 3 33.3 1 1 2 1 1 0 0 3 0
p306
aVCorliss Williamson SAC 03/09/1999 SAC @ POR L 20 7 2 8 25.0 0 0 - 3 4 75.0 2 1 3 0 1 0 0 2 -16
p307
aVJason Williams SAC 03/09/1999 SAC @ POR L 37 15 5 11 45.5 3 8 37.5 2 2 100.0 1 2 3 3 0 0 3 1 -10
p308
aVChris Webber SAC 03/09/1999 SAC @ POR L 38 14 7 19 36.8 0 1 0.0 0 2 0.0 2 12 14 5 2 2 4 3 -8
p309
aVJerome James SAC 03/09/1999 SAC @ POR L 1 0 0 1 0.0 0 0 - 0 0 - 0 0 0 0 1 0 0 0 -2
p310
aVJon Barry SAC 03/09/1999 SAC @ POR L 18 8 3 5 60.0 0 1 0.0 2 2 100.0 0 3 3 3 0 0 2 2 12
p311
aVVlade Divac SAC 03/09/1999 SAC @ POR L 33 16 6 11 54.5 1 2 50.0 3 8 37.5 3 13 16 4 0 0 3 3 -11
p312
aVLawrence Funderburke SAC 03/09/1999 SAC @ POR L 23 18 7 8 87.5 0 0 - 4 6 66.7 2 2 4 0 1 0 0 2 11
p313
aVPeja Stojakovic SAC 03/09/1999 SAC @ POR L 22 8 3 8 37.5 2 4 50.0 0 0 - 1 4 5 0 1 0 0 1 4
p314
aVTariq Abdul-Wahad SAC 03/07/1999 SAC vs. DAL W 20 9 3 9 33.3 0 0 - 3 6 50.0 3 2 5 0 2 1 3 3 -10
p315
aVVernon Maxwell SAC 03/07/1999 SAC vs. DAL W 29 11 4 8 50.0 2 4 50.0 1 4 25.0 0 1 1 4 2 0 0 4 12
p316
aVCorliss Williamson SAC 03/07/1999 SAC vs. DAL W 32 15 7 12 58.3 0 0 - 1 4 25.0 2 3 5 2 0 1 3 2 6
p317
aVJason Williams SAC 03/07/1999 SAC vs. DAL W 32 13 5 11 45.5 2 6 33.3 1 1 100.0 0 3 3 5 1 0 1 3 4
p318
aVLawrence Funderburke SAC 03/07/1999 SAC vs. DAL W 19 4 2 4 50.0 0 0 - 0 0 - 2 3 5 1 0 1 0 0 4
p319
aVJon Barry SAC 03/07/1999 SAC vs. DAL W 16 4 1 6 16.7 0 5 0.0 2 2 100.0 1 3 4 2 0 0 0 0 1
p320
aVPeja Stojakovic SAC 03/07/1999 SAC vs. DAL W 16 8 3 8 37.5 0 3 0.0 2 2 100.0 1 1 2 1 0 1 0 2 1
p321
aVVlade Divac SAC 03/07/1999 SAC vs. DAL W 35 12 5 8 62.5 0 0 - 2 2 100.0 1 7 8 1 1 2 4 3 0
p322
aVMichael Hawkins SAC 03/07/1999 SAC vs. DAL W 1 0 0 0 - 0 0 - 0 0 - 0 0 0 0 0 0 0 0 -2
p323
aVChris Webber SAC 03/07/1999 SAC vs. DAL W 41 18 8 13 61.5 0 0 - 2 8 25.0 4 9 13 7 1 4 2 4 9
p324
aVCorliss Williamson SAC 03/06/1999 SAC @ PHX W 30 15 6 9 66.7 0 0 - 3 6 50.0 4 4 8 0 1 0 4 2 10
p325
aVJon Barry SAC 03/06/1999 SAC @ PHX W 21 13 3 5 60.0 2 3 66.7 5 6 83.3 1 4 5 5 4 0 3 2 5
p326
aVVlade Divac SAC 03/06/1999 SAC @ PHX W 33 16 7 12 58.3 0 1 0.0 2 2 100.0 2 2 4 1 1 2 1 1 8
p327
aVJerome James SAC 03/06/1999 SAC @ PHX W 1 0 0 1 0.0 0 0 - 0 0 - 0 0 0 0 0 0 0 0 -2
p328
aVLawrence Funderburke SAC 03/06/1999 SAC @ PHX W 22 3 1 3 33.3 0 0 - 1 2 50.0 1 2 3 2 1 0 2 1 3
p329
aVScot Pollard SAC 03/06/1999 SAC @ PHX W 1 0 0 0 - 0 0 - 0 0 - 0 0 0 0 0 0 0 0 -2
p330
aVPeja Stojakovic SAC 03/06/1999 SAC @ PHX W 16 2 1 5 20.0 0 2 0.0 0 0 - 0 0 0 2 0 0 0 1 -1
p331
aVChris Webber SAC 03/06/1999 SAC @ PHX W 38 14 7 15 46.7 0 0 - 0 0 - 1 13 14 6 2 3 4 4 18
p332
aVMichael Hawkins SAC 03/06/1999 SAC @ PHX W 1 2 0 0 - 0 0 - 2 2 100.0 0 0 0 0 0 0 0 0 -2
p333
aVVernon Maxwell SAC 03/06/1999 SAC @ PHX W 19 13 5 8 62.5 2 3 66.7 1 2 50.0 0 0 0 1 2 0 1 1 9
p334
aVTariq Abdul-Wahad SAC 03/06/1999 SAC @ PHX W 24 9 4 6 66.7 0 0 - 1 4 25.0 1 1 2 1 1 0 0 1 7
p335
aVJason Williams SAC 03/06/1999 SAC @ PHX W 36 24 8 14 57.1 4 5 80.0 4 4 100.0 0 3 3 6 0 0 6 1 7
p336
aVTariq Abdul-Wahad SAC 03/03/1999 SAC vs. POR L 26 7 3 5 60.0 0 0 - 1 1 100.0 3 5 8 1 0 1 3 0 -2
p337
aVVernon Maxwell SAC 03/03/1999 SAC vs. POR L 27 14 5 12 41.7 4 8 50.0 0 0 - 0 2 2 1 0 0 2 3 -2
p338
aVJon Barry SAC 03/03/1999 SAC vs. POR L 14 6 2 5 40.0 1 3 33.3 1 2 50.0 1 2 3 2 2 1 1 1 0
p339
aVLawrence Funderburke SAC 03/03/1999 SAC vs. POR L 16 5 2 3 66.7 0 0 - 1 2 50.0 1 2 3 0 0 0 0 1 -4
p340
aVVlade Divac SAC 03/03/1999 SAC vs. POR L 43 12 5 19 26.3 0 3 0.0 2 4 50.0 4 9 13 1 0 0 1 5 -4
p341
aVJason Williams SAC 03/03/1999 SAC vs. POR L 39 11 4 17 23.5 0 4 0.0 3 3 100.0 0 2 2 2 1 0 0 0 -4
p342
aVPeja Stojakovic SAC 03/03/1999 SAC vs. POR L 15 0 0 3 0.0 0 3 0.0 0 0 - 0 0 0 3 2 0 3 0 -2
p343
aVChris Webber SAC 03/03/1999 SAC vs. POR L 47 20 7 15 46.7 0 2 0.0 6 8 75.0 3 11 14 6 0 3 3 3 0
p344
aVCorliss Williamson SAC 03/03/1999 SAC vs. POR L 38 18 7 15 46.7 0 0 - 4 6 66.7 4 4 8 3 0 0 0 2 -2
p345
aVJason Williams SAC 03/02/1999 SAC @ VAN W 37 5 2 8 25.0 0 3 0.0 1 2 50.0 0 2 2 9 4 0 1 2 8
p346
aVVernon Maxwell SAC 03/02/1999 SAC @ VAN W 22 9 4 11 36.4 1 5 20.0 0 0 - 1 3 4 3 2 0 2 0 6
p347
aVVlade Divac SAC 03/02/1999 SAC @ VAN W 38 19 6 10 60.0 0 0 - 7 8 87.5 4 4 8 5 1 1 2 4 8
p348
aVJon Barry SAC 03/02/1999 SAC @ VAN W 6 0 0 0 - 0 0 - 0 0 - 0 0 0 1 1 0 1 2 -2
p349
aVMichael Hawkins SAC 03/02/1999 SAC @ VAN W 4 0 0 1 0.0 0 0 - 0 0 - 1 0 1 1 0 0 0 1 4
p350
aVCorliss Williamson SAC 03/02/1999 SAC @ VAN W 35 15 6 11 54.5 0 0 - 3 9 33.3 2 0 2 2 1 0 3 4 5
p351
aVLawrence Funderburke SAC 03/02/1999 SAC @ VAN W 16 10 4 8 50.0 0 0 - 2 4 50.0 5 0 5 1 0 1 0 1 -1
p352
aVChris Webber SAC 03/02/1999 SAC @ VAN W 41 36 17 21 81.0 0 0 - 2 3 66.7 3 14 17 3 1 3 3 5 14
p353
aVPeja Stojakovic SAC 03/02/1999 SAC @ VAN W 6 5 2 2 100.0 1 1 100.0 0 0 - 0 1 1 0 0 0 1 1 -2
p354
aVTariq Abdul-Wahad SAC 03/02/1999 SAC @ VAN W 34 12 4 11 36.4 0 0 - 4 6 66.7 0 1 1 0 2 0 2 1 10
p355
aVMichael Hawkins SAC 03/01/1999 SAC vs. SEA L 3 0 0 1 0.0 0 1 0.0 0 0 - 0 1 1 0 0 0 0 0 0
p356
aVLawrence Funderburke SAC 03/01/1999 SAC vs. SEA L 20 8 3 7 42.9 0 0 - 2 4 50.0 0 3 3 0 2 0 0 2 -11
p357
aVTariq Abdul-Wahad SAC 03/01/1999 SAC vs. SEA L 24 8 4 9 44.4 0 0 - 0 0 - 1 4 5 0 0 0 3 2 -7
p358
aVVernon Maxwell SAC 03/01/1999 SAC vs. SEA L 15 4 2 7 28.6 0 1 0.0 0 1 0.0 0 2 2 4 0 0 1 4 9
p359
aVJon Barry SAC 03/01/1999 SAC vs. SEA L 20 12 4 8 50.0 2 5 40.0 2 3 66.7 1 0 1 3 2 0 0 4 5
p360
aVVlade Divac SAC 03/01/1999 SAC vs. SEA L 29 9 1 4 25.0 0 1 0.0 7 8 87.5 1 7 8 3 1 0 3 3 7
p361
aVCorliss Williamson SAC 03/01/1999 SAC vs. SEA L 22 13 5 7 71.4 0 0 - 3 3 100.0 1 2 3 2 0 0 1 4 -4
p362
aVJason Williams SAC 03/01/1999 SAC vs. SEA L 37 11 4 9 44.4 1 4 25.0 2 4 50.0 0 3 3 10 1 0 4 5 -11
p363
aVChris Webber SAC 03/01/1999 SAC vs. SEA L 42 20 8 21 38.1 0 0 - 4 5 80.0 5 9 14 1 0 1 7 3 -4
p364
aVPeja Stojakovic SAC 03/01/1999 SAC vs. SEA L 28 17 7 12 58.3 3 7 42.9 0 0 - 1 1 2 0 2 0 1 1 1
p365
aVPeja Stojakovic SAC 02/27/1999 SAC @ DAL L 15 2 1 3 33.3 0 1 0.0 0 0 - 0 0 0 2 0 0 1 0 4
p366
aVChris Webber SAC 02/27/1999 SAC @ DAL L 38 17 8 16 50.0 1 1 100.0 0 3 0.0 4 10 14 2 0 3 5 5 -4
p367
aVVernon Maxwell SAC 02/27/1999 SAC @ DAL L 26 11 4 9 44.4 1 6 16.7 2 2 100.0 0 2 2 2 2 0 1 4 -10
p368
aVVlade Divac SAC 02/27/1999 SAC @ DAL L 37 20 8 18 44.4 0 0 - 4 6 66.7 5 4 9 0 0 2 5 4 -6
p369
aVCorliss Williamson SAC 02/27/1999 SAC @ DAL L 28 10 5 9 55.6 0 0 - 0 2 0.0 2 6 8 2 0 0 0 2 -7
p370
aVJon Barry SAC 02/27/1999 SAC @ DAL L 21 6 1 5 20.0 0 3 0.0 4 5 80.0 3 4 7 1 0 0 2 2 -2
p371
aVTariq Abdul-Wahad SAC 02/27/1999 SAC @ DAL L 22 6 2 8 25.0 0 1 0.0 2 2 100.0 2 2 4 1 0 0 2 1 3
p372
aVLawrence Funderburke SAC 02/27/1999 SAC @ DAL L 20 10 5 6 83.3 0 0 - 0 0 - 0 3 3 0 1 0 1 3 -8
p373
aVJason Williams SAC 02/27/1999 SAC @ DAL L 34 8 3 12 25.0 1 4 25.0 1 2 50.0 1 5 6 7 2 0 1 0 -5
p374
aVCorliss Williamson SAC 02/25/1999 SAC @ WAS W 26 16 7 11 63.6 0 0 - 2 2 100.0 2 3 5 4 0 1 5 4 -2
p375
aVPeja Stojakovic SAC 02/25/1999 SAC @ WAS W 22 8 3 7 42.9 2 5 40.0 0 0 - 2 1 3 1 0 0 0 0 12
p376
aVLawrence Funderburke SAC 02/25/1999 SAC @ WAS W 21 8 3 11 27.3 0 0 - 2 2 100.0 2 3 5 0 0 0 0 3 10
p377
aVTariq Abdul-Wahad SAC 02/25/1999 SAC @ WAS W 24 12 4 7 57.1 0 0 - 4 4 100.0 0 2 2 1 0 0 1 2 4
p378
aVJon Barry SAC 02/25/1999 SAC @ WAS W 10 2 1 2 50.0 0 0 - 0 0 - 1 1 2 1 0 0 0 1 10
p379
aVVlade Divac SAC 02/25/1999 SAC @ WAS W 31 22 7 13 53.8 1 2 50.0 7 8 87.5 7 10 17 6 1 2 1 3 5
p380
aVVernon Maxwell SAC 02/25/1999 SAC @ WAS W 20 13 5 8 62.5 3 4 75.0 0 0 - 1 1 2 3 0 0 4 6 -1
p381
aVChris Webber SAC 02/25/1999 SAC @ WAS W 44 17 7 15 46.7 1 1 100.0 2 3 66.7 4 6 10 10 1 0 5 3 5
p382
aVJason Williams SAC 02/25/1999 SAC @ WAS W 41 17 6 16 37.5 5 10 50.0 0 0 - 0 5 5 6 4 0 3 3 7
p383
aVPeja Stojakovic SAC 02/24/1999 SAC @ PHI L 23 8 3 10 30.0 2 5 40.0 0 0 - 2 6 8 0 0 0 2 0 -2
p384
aVMichael Hawkins SAC 02/24/1999 SAC @ PHI L 2 0 0 0 - 0 0 - 0 0 - 0 0 0 1 0 0 0 1 -2
p385
aVCorliss Williamson SAC 02/24/1999 SAC @ PHI L 25 9 3 11 27.3 0 1 0.0 3 4 75.0 1 3 4 0 1 0 3 1 -11
p386
aVScot Pollard SAC 02/24/1999 SAC @ PHI L 2 0 0 1 0.0 0 0 - 0 0 - 0 1 1 0 0 0 0 0 2
p387
aVVernon Maxwell SAC 02/24/1999 SAC @ PHI L 16 6 1 6 16.7 1 3 33.3 3 6 50.0 0 2 2 0 0 0 2 1 -1
p388
aVJason Williams SAC 02/24/1999 SAC @ PHI L 38 10 4 11 36.4 2 6 33.3 0 0 - 0 3 3 7 3 0 4 2 -8
p389
aVTariq Abdul-Wahad SAC 02/24/1999 SAC @ PHI L 15 6 2 4 50.0 0 1 0.0 2 3 66.7 1 1 2 2 0 0 0 4 -16
p390
aVLawrence Funderburke SAC 02/24/1999 SAC @ PHI L 25 4 2 4 50.0 0 0 - 0 0 - 1 4 5 0 0 1 1 2 -8
p391
aVJerome James SAC 02/24/1999 SAC @ PHI L 2 2 1 1 100.0 0 0 - 0 0 - 0 0 0 0 0 1 0 0 2
p392
aVJon Barry SAC 02/24/1999 SAC @ PHI L 25 5 2 4 50.0 1 2 50.0 0 1 0.0 2 2 4 3 2 0 4 0 -3
p393
aVChris Webber SAC 02/24/1999 SAC @ PHI L 39 21 9 20 45.0 0 1 0.0 3 6 50.0 4 7 11 2 1 4 5 5 -13
p394
aVVlade Divac SAC 02/24/1999 SAC @ PHI L 28 10 4 8 50.0 0 1 0.0 2 6 33.3 3 6 9 3 0 1 3 1 -5
p395
aVCorliss Williamson SAC 02/22/1999 SAC @ ORL L 30 17 8 15 53.3 0 0 - 1 1 100.0 1 2 3 1 0 0 4 2 -5
p396
aVChris Webber SAC 02/22/1999 SAC @ ORL L 44 22 11 20 55.0 0 1 0.0 0 0 - 3 10 13 2 0 1 4 1 -4
p397
aVVlade Divac SAC 02/22/1999 SAC @ ORL L 25 11 4 6 66.7 1 1 100.0 2 2 100.0 0 1 1 5 0 0 3 3 -7
p398
aVTariq Abdul-Wahad SAC 02/22/1999 SAC @ ORL L 24 7 3 12 25.0 0 0 - 1 2 50.0 1 1 2 2 2 2 0 2 -17
p399
aVLawrence Funderburke SAC 02/22/1999 SAC @ ORL L 27 14 7 7 100.0 0 0 - 0 0 - 3 5 8 1 1 0 2 2 -11
p400
aVJason Williams SAC 02/22/1999 SAC @ ORL L 41 7 2 9 22.2 2 6 33.3 1 2 50.0 1 4 5 7 5 0 3 2 -15
p401
aVVernon Maxwell SAC 02/22/1999 SAC @ ORL L 26 6 2 7 28.6 0 3 0.0 2 2 100.0 0 2 2 1 0 0 1 3 -2
p402
aVJon Barry SAC 02/22/1999 SAC @ ORL L 23 12 5 7 71.4 2 3 66.7 0 0 - 0 2 2 5 4 0 4 1 6
p403
aVVlade Divac SAC 02/21/1999 SAC @ MIN L 21 2 1 5 20.0 0 0 - 0 2 0.0 3 6 9 4 0 0 0 3 -20
p404
aVJerome James SAC 02/21/1999 SAC @ MIN L 1 0 0 0 - 0 0 - 0 0 - 0 1 1 0 0 0 0 1 0
p405
aVLawrence Funderburke SAC 02/21/1999 SAC @ MIN L 36 10 3 12 25.0 0 2 0.0 4 6 66.7 7 5 12 1 1 3 1 4 3
p406
aVVernon Maxwell SAC 02/21/1999 SAC @ MIN L 21 11 4 12 33.3 1 6 16.7 2 4 50.0 0 2 2 1 0 1 1 2 9
p407
aVJon Barry SAC 02/21/1999 SAC @ MIN L 26 11 2 4 50.0 0 1 0.0 7 9 77.8 3 5 8 4 5 2 3 1 7
p408
aVChris Webber SAC 02/21/1999 SAC @ MIN L 40 20 9 21 42.9 0 1 0.0 2 8 25.0 3 6 9 3 2 5 3 3 -9
p409
aVPeja Stojakovic SAC 02/21/1999 SAC @ MIN L 12 2 1 5 20.0 0 2 0.0 0 0 - 1 3 4 1 1 0 1 1 -5
p410
aVCorliss Williamson SAC 02/21/1999 SAC @ MIN L 31 8 3 10 30.0 0 0 - 2 4 50.0 3 3 6 2 1 0 4 1 -5
p411
aVTerry Dehere SAC 02/21/1999 SAC @ MIN L 3 2 1 3 33.3 0 1 0.0 0 0 - 0 0 0 0 0 0 0 0 0
p412
aVJason Williams SAC 02/21/1999 SAC @ MIN L 27 10 4 9 44.4 2 7 28.6 0 0 - 0 0 0 8 2 0 2 1 -21
p413
aVTariq Abdul-Wahad SAC 02/21/1999 SAC @ MIN L 22 14 5 10 50.0 1 2 50.0 3 3 100.0 0 3 3 0 0 0 4 4 -19
p414
aVPeja Stojakovic SAC 02/19/1999 SAC vs. CHH W 24 7 3 10 30.0 1 3 33.3 0 0 - 1 3 4 2 0 0 3 0 12
p415
aVLawrence Funderburke SAC 02/19/1999 SAC vs. CHH W 23 16 6 8 75.0 0 0 - 4 8 50.0 1 2 3 2 0 1 1 1 12
p416
aVJerome James SAC 02/19/1999 SAC vs. CHH W 3 2 1 2 50.0 0 0 - 0 0 - 0 0 0 0 0 0 3 3 -8
p417
aVTerry Dehere SAC 02/19/1999 SAC vs. CHH W 3 0 0 1 0.0 0 0 - 0 0 - 0 0 0 0 1 0 0 1 -8
p418
aVChris Webber SAC 02/19/1999 SAC vs. CHH W 37 14 7 16 43.8 0 0 - 0 1 0.0 2 11 13 4 1 0 1 3 11
p419
aVVernon Maxwell SAC 02/19/1999 SAC vs. CHH W 22 16 6 11 54.5 4 9 44.4 0 0 - 0 2 2 2 2 0 1 2 12
p420
aVJason Williams SAC 02/19/1999 SAC vs. CHH W 29 25 9 13 69.2 5 7 71.4 2 4 50.0 1 1 2 3 1 0 6 1 -1
p421
aVTariq Abdul-Wahad SAC 02/19/1999 SAC vs. CHH W 25 11 4 7 57.1 0 1 0.0 3 3 100.0 1 5 6 1 0 0 1 1 -5
p422
aVJon Barry SAC 02/19/1999 SAC vs. CHH W 17 0 0 1 0.0 0 1 0.0 0 0 - 0 1 1 5 4 1 0 1 24
p423
aVCorliss Williamson SAC 02/19/1999 SAC vs. CHH W 27 6 2 10 20.0 0 1 0.0 2 2 100.0 0 3 3 2 1 1 1 2 -9
p424
aVVlade Divac SAC 02/19/1999 SAC vs. CHH W 30 9 4 5 80.0 0 0 - 1 2 50.0 6 8 14 3 3 1 8 4 15
p425
aVVlade Divac SAC 02/17/1999 SAC @ SEA W 42 14 5 9 55.6 0 0 - 4 4 100.0 1 13 14 4 0 3 0 3 0
p426
aVKevin Ollie SAC 02/17/1999 SAC @ SEA W 5 0 0 1 0.0 0 0 - 0 0 - 0 1 1 0 0 0 0 1 -5
p427
aVJon Barry SAC 02/17/1999 SAC @ SEA W 29 7 3 6 50.0 0 3 0.0 1 1 100.0 2 2 4 4 0 0 0 1 1
p428
aVChris Webber SAC 02/17/1999 SAC @ SEA W 44 23 9 23 39.1 0 1 0.0 5 7 71.4 2 12 14 3 1 2 1 4 1
p429
aVLawrence Funderburke SAC 02/17/1999 SAC @ SEA W 20 16 5 9 55.6 0 0 - 6 7 85.7 1 4 5 2 1 1 2 0 6
p430
aVJason Williams SAC 02/17/1999 SAC @ SEA W 41 12 5 9 55.6 2 6 33.3 0 0 - 0 2 2 5 0 0 4 1 3
p431
aVPeja Stojakovic SAC 02/17/1999 SAC @ SEA W 28 10 4 10 40.0 2 5 40.0 0 0 - 0 4 4 3 0 0 1 0 5
p432
aVTariq Abdul-Wahad SAC 02/17/1999 SAC @ SEA W 24 12 4 11 36.4 0 0 - 4 6 66.7 2 1 3 0 0 0 0 1 2
p433
aVVernon Maxwell SAC 02/17/1999 SAC @ SEA W 7 9 2 3 66.7 1 1 100.0 4 4 100.0 0 1 1 0 0 0 2 4 4
p434
aVCorliss Williamson SAC 02/17/1999 SAC @ SEA W 25 6 2 8 25.0 0 0 - 2 2 100.0 0 1 1 2 2 0 1 3 -2
p435
aVTariq Abdul-Wahad SAC 02/16/1999 SAC vs. BOS W 14 6 1 7 14.3 0 0 - 4 5 80.0 2 1 3 0 2 0 1 3 -5
p436
aVJason Williams SAC 02/16/1999 SAC vs. BOS W 42 10 4 12 33.3 0 4 0.0 2 4 50.0 0 2 2 7 0 0 4 2 9
p437
aVKevin Ollie SAC 02/16/1999 SAC vs. BOS W 6 0 0 0 - 0 0 - 0 0 - 0 0 0 0 0 0 0 0 -6
p438
aVCorliss Williamson SAC 02/16/1999 SAC vs. BOS W 37 22 9 22 40.9 0 0 - 4 6 66.7 2 4 6 2 1 0 3 4 11
p439
aVVlade Divac SAC 02/16/1999 SAC vs. BOS W 37 16 6 10 60.0 0 0 - 4 4 100.0 3 7 10 8 0 3 3 3 8
p440
aVLawrence Funderburke SAC 02/16/1999 SAC vs. BOS W 22 13 6 6 100.0 0 0 - 1 1 100.0 2 6 8 0 1 0 3 2 -6
p441
aVVernon Maxwell SAC 02/16/1999 SAC vs. BOS W 19 2 1 7 14.3 0 3 0.0 0 0 - 0 1 1 4 0 0 2 3 7
p442
aVPeja Stojakovic SAC 02/16/1999 SAC vs. BOS W 13 7 3 5 60.0 1 3 33.3 0 0 - 1 2 3 0 0 0 2 0 -4
p443
aVChris Webber SAC 02/16/1999 SAC vs. BOS W 37 22 10 12 83.3 0 0 - 2 6 33.3 6 9 15 3 0 3 4 5 4
p444
aVJon Barry SAC 02/16/1999 SAC vs. BOS W 14 3 1 3 33.3 0 2 0.0 1 1 100.0 1 1 2 1 0 0 1 1 -3
p445
aVPeja Stojakovic SAC 02/15/1999 SAC @ UTA L 37 16 6 15 40.0 2 6 33.3 2 2 100.0 0 1 1 1 0 0 0 1 -10
p446
aVChris Webber SAC 02/15/1999 SAC @ UTA L 40 26 11 21 52.4 0 0 - 4 6 66.7 3 8 11 3 2 1 8 6 3
p447
aVJon Barry SAC 02/15/1999 SAC @ UTA L 28 10 2 4 50.0 2 3 66.7 4 4 100.0 1 0 1 4 3 1 1 1 -7
p448
aVVlade Divac SAC 02/15/1999 SAC @ UTA L 34 8 2 7 28.6 0 0 - 4 4 100.0 3 7 10 6 0 0 0 6 -4
p449
aVJason Williams SAC 02/15/1999 SAC @ UTA L 43 19 6 17 35.3 4 9 44.4 3 3 100.0 0 2 2 7 4 0 1 4 3
p450
aVTariq Abdul-Wahad SAC 02/15/1999 SAC @ UTA L 23 10 4 6 66.7 1 1 100.0 1 2 50.0 1 3 4 1 2 0 2 2 1
p451
aVLawrence Funderburke SAC 02/15/1999 SAC @ UTA L 27 12 4 7 57.1 0 0 - 4 4 100.0 3 1 4 0 1 0 1 5 -9
p452
aVCorliss Williamson SAC 02/15/1999 SAC @ UTA L 22 9 3 8 37.5 0 0 - 3 4 75.0 0 3 3 2 1 0 0 6 -4
p453
aVKevin Ollie SAC 02/15/1999 SAC @ UTA L 11 2 1 4 25.0 0 0 - 0 0 - 0 0 0 0 2 0 0 1 -13
p454
aVOliver Miller SAC 02/10/1999 SAC @ HOU L 8 2 1 1 100.0 0 0 - 0 0 - 2 0 2 0 0 1 1 0 -5
p455
aVVlade Divac SAC 02/10/1999 SAC @ HOU L 40 15 6 11 54.5 0 1 0.0 3 3 100.0 5 8 13 3 1 1 3 3 -5
p456
aVJon Barry SAC 02/10/1999 SAC @ HOU L 6 3 1 4 25.0 1 3 33.3 0 0 - 0 0 0 0 0 0 0 1 1
p457
aVPeja Stojakovic SAC 02/10/1999 SAC @ HOU L 23 5 2 8 25.0 1 5 20.0 0 0 - 0 2 2 3 1 0 1 1 -12
p458
aVJason Williams SAC 02/10/1999 SAC @ HOU L 39 16 8 19 42.1 0 3 0.0 0 0 - 0 2 2 4 2 0 2 2 -9
p459
aVTariq Abdul-Wahad SAC 02/10/1999 SAC @ HOU L 32 2 1 5 20.0 0 1 0.0 0 0 - 1 3 4 5 1 0 1 4 -5
p460
aVChris Webber SAC 02/10/1999 SAC @ HOU L 43 21 10 25 40.0 0 2 0.0 1 2 50.0 4 15 19 4 0 4 1 1 -10
p461
aVCorliss Williamson SAC 02/10/1999 SAC @ HOU L 40 16 6 13 46.2 0 0 - 4 6 66.7 1 0 1 1 2 0 1 4 -4
p462
aVKevin Ollie SAC 02/10/1999 SAC @ HOU L 9 2 1 1 100.0 0 0 - 0 0 - 0 3 3 0 0 0 1 1 -1
p463
aVCorliss Williamson SAC 02/09/1999 SAC @ PHX W 38 18 9 17 52.9 0 0 - 0 3 0.0 4 4 8 0 0 0 1 3 16
p464
aVJon Barry SAC 02/09/1999 SAC @ PHX W 16 2 0 0 - 0 0 - 2 2 100.0 0 1 1 4 1 0 1 0 5
p465
aVTariq Abdul-Wahad SAC 02/09/1999 SAC @ PHX W 24 13 6 10 60.0 0 1 0.0 1 2 50.0 3 0 3 1 1 0 3 4 5
p466
aVOliver Miller SAC 02/09/1999 SAC @ PHX W 10 0 0 1 0.0 0 0 - 0 0 - 0 0 0 0 0 1 0 1 7
p467
aVVlade Divac SAC 02/09/1999 SAC @ PHX W 29 11 5 10 50.0 0 0 - 1 2 50.0 3 4 7 7 2 0 2 5 5
p468
aVJason Williams SAC 02/09/1999 SAC @ PHX W 37 22 7 17 41.2 5 9 55.6 3 4 75.0 0 5 5 5 2 0 1 5 3
p469
aVJerome James SAC 02/09/1999 SAC @ PHX W 1 3 1 1 100.0 0 0 - 1 1 100.0 0 0 0 0 0 0 0 0 1
p470
aVChris Webber SAC 02/09/1999 SAC @ PHX W 43 28 10 18 55.6 0 0 - 8 12 66.7 4 16 20 6 1 3 7 4 16
p471
aVKevin Ollie SAC 02/09/1999 SAC @ PHX W 11 2 0 2 0.0 0 0 - 2 2 100.0 0 1 1 2 0 1 0 5 14
p472
aVPeja Stojakovic SAC 02/09/1999 SAC @ PHX W 31 13 6 10 60.0 1 4 25.0 0 0 - 0 5 5 1 3 1 3 3 13
p473
aVKevin Ollie SAC 02/07/1999 SAC vs. VAN W 14 0 0 2 0.0 0 0 - 0 0 - 0 1 1 1 0 0 2 0 -7
p474
aVJon Barry SAC 02/07/1999 SAC vs. VAN W 17 9 2 4 50.0 2 4 50.0 3 4 75.0 0 2 2 4 1 0 1 1 13
p475
aVVlade Divac SAC 02/07/1999 SAC vs. VAN W 32 8 4 8 50.0 0 0 - 0 2 0.0 5 11 16 10 4 1 2 3 26
p476
aVJerome James SAC 02/07/1999 SAC vs. VAN W 5 3 1 3 33.3 0 0 - 1 3 33.3 2 1 3 0 0 1 1 0 -6
p477
aVOliver Miller SAC 02/07/1999 SAC vs. VAN W 11 6 3 3 100.0 0 0 - 0 0 - 1 1 2 0 0 0 2 2 2
p478
aVTerry Dehere SAC 02/07/1999 SAC vs. VAN W 7 2 1 4 25.0 0 2 0.0 0 0 - 2 0 2 0 0 0 0 1 -4
p479
aVTariq Abdul-Wahad SAC 02/07/1999 SAC vs. VAN W 17 8 4 7 57.1 0 0 - 0 0 - 0 0 0 1 0 0 0 4 11
p480
aVPeter Aluma SAC 02/07/1999 SAC vs. VAN W 4 2 1 2 50.0 0 0 - 0 0 - 1 1 2 0 1 1 2 4 -4
p481
aVJason Williams SAC 02/07/1999 SAC vs. VAN W 34 13 6 15 40.0 1 6 16.7 0 0 - 0 4 4 4 3 0 1 2 29
p482
aVCorliss Williamson SAC 02/07/1999 SAC vs. VAN W 36 18 8 20 40.0 0 0 - 2 5 40.0 4 3 7 6 1 0 0 0 16
p483
aVPeja Stojakovic SAC 02/07/1999 SAC vs. VAN W 25 15 6 13 46.2 3 6 50.0 0 0 - 1 3 4 2 0 0 1 1 10
p484
aVChris Webber SAC 02/07/1999 SAC vs. VAN W 37 25 12 16 75.0 0 0 - 1 2 50.0 3 12 15 8 3 9 6 4 24
p485
aVPeja Stojakovic SAC 02/05/1999 SAC @ SAS L 17 2 1 6 16.7 0 3 0.0 0 0 - 1 0 1 0 1 0 2 0 -17
p486
aVJon Barry SAC 02/05/1999 SAC @ SAS L 12 0 0 1 0.0 0 1 0.0 0 0 - 1 1 2 1 0 0 0 0 -6
p487
aVJason Williams SAC 02/05/1999 SAC @ SAS L 36 21 9 19 47.4 3 7 42.9 0 0 - 0 4 4 3 5 1 2 1 -23
p488
aVVlade Divac SAC 02/05/1999 SAC @ SAS L 29 4 2 9 22.2 0 0 - 0 2 0.0 4 4 8 2 2 1 3 4 -6
p489
aVKevin Ollie SAC 02/05/1999 SAC @ SAS L 12 6 2 3 66.7 0 0 - 2 3 66.7 0 0 0 0 1 0 0 0 5
p490
aVJerome James SAC 02/05/1999 SAC @ SAS L 7 5 2 4 50.0 0 0 - 1 2 50.0 1 1 2 0 1 1 0 1 7
p491
aVLawrence Funderburke SAC 02/05/1999 SAC @ SAS L 22 6 3 8 37.5 0 0 - 0 0 - 3 4 7 0 0 0 1 4 -16
p492
aVChris Webber SAC 02/05/1999 SAC @ SAS L 31 20 9 21 42.9 0 2 0.0 2 7 28.6 5 7 12 3 1 1 3 3 -3
p493
aVCorliss Williamson SAC 02/05/1999 SAC @ SAS L 26 7 2 10 20.0 0 0 - 3 4 75.0 0 3 3 0 0 0 2 4 -8
p494
aVTerry Dehere SAC 02/05/1999 SAC @ SAS L 7 5 2 3 66.7 1 2 50.0 0 0 - 0 0 0 1 1 0 2 0 7
p495
aVTariq Abdul-Wahad SAC 02/05/1999 SAC @ SAS L 27 3 1 4 25.0 0 0 - 1 2 50.0 2 2 4 3 1 0 3 2 -19
p496
aVPeter Aluma SAC 02/05/1999 SAC @ SAS L 1 0 0 0 - 0 0 - 0 0 - 0 0 0 0 0 0 0 0 -3
p497
aVVernon Maxwell SAC 02/05/1999 SAC @ SAS L 7 2 1 2 50.0 0 1 0.0 0 0 - 0 0 0 0 1 0 0 2 7
p498
aVOliver Miller SAC 02/05/1999 SAC @ SAS L 6 2 1 6 16.7 0 0 - 0 0 - 4 0 4 0 0 0 1 0 -15
p499
a.