(lp0
VPLAYER TEAM DATE MATCHUP W/L MIN PTS FGM FGA FG% 3PM 3PA 3P% FTM FTA FT% OREB DREB REB AST STL BLK TOV PF +/-
p1
aVTravis Best IND 06/11/1999 IND @ NYK L 15 7 3 6 50.0 1 2 50.0 0 0 - 0 2 2 3 1 0 1 1 -4
p2
aVAntonio Davis IND 06/11/1999 IND @ NYK L 21 4 2 4 50.0 0 0 - 0 0 - 1 0 1 0 0 1 1 3 -12
p3
aVRik Smits IND 06/11/1999 IND @ NYK L 32 20 9 18 50.0 0 0 - 2 2 100.0 2 6 8 2 2 0 6 6 5
p4
aVChris Mullin IND 06/11/1999 IND @ NYK L 24 1 0 3 0.0 0 1 0.0 1 1 100.0 0 5 5 2 0 0 2 2 10
p5
aVDerrick McKey IND 06/11/1999 IND @ NYK L 9 4 1 1 100.0 0 0 - 2 2 100.0 1 1 2 1 0 0 4 3 -9
p6
aVDale Davis IND 06/11/1999 IND @ NYK L 33 8 3 4 75.0 0 0 - 2 2 100.0 4 8 12 0 0 1 4 5 1
p7
aVJalen Rose IND 06/11/1999 IND @ NYK L 30 16 7 15 46.7 1 4 25.0 1 1 100.0 0 1 1 3 3 1 3 5 -19
p8
aVReggie Miller IND 06/11/1999 IND @ NYK L 36 8 3 18 16.7 1 8 12.5 1 1 100.0 1 2 3 4 0 0 2 5 -6
p9
aVSam Perkins IND 06/11/1999 IND @ NYK L 4 0 0 0 - 0 0 - 0 0 - 0 0 0 0 0 0 1 0 -2
p10
aVMark Jackson IND 06/11/1999 IND @ NYK L 32 14 6 8 75.0 2 4 50.0 0 0 - 0 4 4 4 0 0 2 5 -4
p11
aVReggie Miller IND 06/09/1999 IND vs. NYK L 40 30 9 19 47.4 2 4 50.0 10 11 90.9 2 4 6 1 0 1 3 2 -1
p12
aVAntonio Davis IND 06/09/1999 IND vs. NYK L 22 4 1 4 25.0 0 0 - 2 4 50.0 1 3 4 1 0 1 1 4 -9
p13
aVJalen Rose IND 06/09/1999 IND vs. NYK L 22 6 3 6 50.0 0 0 - 0 0 - 0 0 0 2 0 0 1 5 -13
p14
aVRik Smits IND 06/09/1999 IND vs. NYK L 23 8 4 14 28.6 0 0 - 0 0 - 0 6 6 0 0 1 2 4 2
p15
aVSam Perkins IND 06/09/1999 IND vs. NYK L 10 5 2 3 66.7 1 2 50.0 0 0 - 0 1 1 0 0 0 0 2 -10
p16
aVMark Jackson IND 06/09/1999 IND vs. NYK L 37 16 6 14 42.9 2 5 40.0 2 4 50.0 2 2 4 4 0 0 2 3 -1
p17
aVDerrick McKey IND 06/09/1999 IND vs. NYK L 10 0 0 2 0.0 0 1 0.0 0 0 - 0 1 1 1 0 1 0 5 -17
p18
aVFred Hoiberg IND 06/09/1999 IND vs. NYK L 8 0 0 1 0.0 0 0 - 0 0 - 0 1 1 1 1 0 0 1 -7
p19
aVChris Mullin IND 06/09/1999 IND vs. NYK L 27 13 4 9 44.4 1 2 50.0 4 4 100.0 0 2 2 0 0 0 0 3 13
p20
aVDale Davis IND 06/09/1999 IND vs. NYK L 37 12 4 7 57.1 0 0 - 4 8 50.0 6 12 18 2 0 0 2 2 8
p21
aVRik Smits IND 06/07/1999 IND @ NYK W 12 4 2 3 66.7 0 0 - 0 0 - 0 2 2 0 0 0 1 3 -6
p22
aVMark Jackson IND 06/07/1999 IND @ NYK W 38 6 3 6 50.0 0 1 0.0 0 0 - 1 6 7 4 0 0 6 3 4
p23
aVSam Perkins IND 06/07/1999 IND @ NYK W 6 1 0 1 0.0 0 0 - 1 2 50.0 0 1 1 0 0 0 0 0 2
p24
aVDale Davis IND 06/07/1999 IND @ NYK W 35 10 3 7 42.9 0 0 - 4 5 80.0 3 9 12 3 2 3 2 2 3
p25
aVFred Hoiberg IND 06/07/1999 IND @ NYK W 7 2 1 1 100.0 0 0 - 0 0 - 0 1 1 1 2 0 0 0 8
p26
aVReggie Miller IND 06/07/1999 IND @ NYK W 35 12 3 10 30.0 1 1 100.0 5 6 83.3 0 2 2 1 1 0 2 4 0
p27
aVChris Mullin IND 06/07/1999 IND @ NYK W 27 18 7 13 53.8 1 1 100.0 3 4 75.0 0 1 1 2 1 0 1 1 10
p28
aVDerrick McKey IND 06/07/1999 IND @ NYK W 17 2 0 0 - 0 0 - 2 4 50.0 0 1 1 2 1 0 2 3 8
p29
aVAntonio Davis IND 06/07/1999 IND @ NYK W 29 16 6 11 54.5 0 0 - 4 6 66.7 1 7 8 1 1 2 1 1 16
p30
aVJalen Rose IND 06/07/1999 IND @ NYK W 30 19 8 14 57.1 0 0 - 3 3 100.0 1 5 6 2 0 0 3 4 15
p31
aVChris Mullin IND 06/05/1999 IND @ NYK L 19 7 2 6 33.3 2 5 40.0 1 2 50.0 0 2 2 1 2 0 2 2 -5
p32
aVTravis Best IND 06/05/1999 IND @ NYK L 11 7 2 5 40.0 1 2 50.0 2 2 100.0 1 1 2 3 0 0 1 3 3
p33
aVMark Jackson IND 06/05/1999 IND @ NYK L 36 13 4 10 40.0 1 3 33.3 4 4 100.0 2 4 6 9 2 0 3 2 -4
p34
aVReggie Miller IND 06/05/1999 IND @ NYK L 35 12 4 9 44.4 2 3 66.7 2 2 100.0 0 2 2 3 1 0 3 1 -4
p35
aVJalen Rose IND 06/05/1999 IND @ NYK L 21 2 1 3 33.3 0 1 0.0 0 0 - 0 0 0 4 0 1 0 3 7
p36
aVAntonio Davis IND 06/05/1999 IND @ NYK L 28 7 2 6 33.3 0 0 - 3 4 75.0 1 7 8 0 0 0 1 2 -9
p37
aVDerrick McKey IND 06/05/1999 IND @ NYK L 25 9 4 7 57.1 0 0 - 1 2 50.0 1 3 4 2 1 0 1 2 -4
p38
aVDale Davis IND 06/05/1999 IND @ NYK L 22 2 1 3 33.3 0 0 - 0 0 - 0 1 1 1 0 1 1 3 3
p39
aVRik Smits IND 06/05/1999 IND @ NYK L 24 25 8 13 61.5 0 0 - 9 9 100.0 1 2 3 1 1 2 5 3 5
p40
aVSam Perkins IND 06/05/1999 IND @ NYK L 13 7 3 3 100.0 1 1 100.0 0 0 - 0 3 3 1 0 0 0 2 3
p41
aVJalen Rose IND 06/01/1999 IND vs. NYK W 27 13 4 10 40.0 2 3 66.7 3 4 75.0 0 1 1 1 0 0 3 2 1
p42
aVReggie Miller IND 06/01/1999 IND vs. NYK W 38 16 3 11 27.3 1 4 25.0 9 12 75.0 0 3 3 1 0 0 1 4 5
p43
aVSam Perkins IND 06/01/1999 IND vs. NYK W 11 0 0 1 0.0 0 1 0.0 0 0 - 0 1 1 1 0 0 0 0 -4
p44
aVTravis Best IND 06/01/1999 IND vs. NYK W 11 8 3 7 42.9 0 0 - 2 2 100.0 0 0 0 1 0 0 1 3 -7
p45
aVMark Jackson IND 06/01/1999 IND vs. NYK W 36 17 5 6 83.3 0 1 0.0 7 11 63.6 1 2 3 8 3 0 2 2 9
p46
aVChris Mullin IND 06/01/1999 IND vs. NYK W 15 4 1 6 16.7 0 2 0.0 2 2 100.0 0 0 0 2 1 0 1 4 3
p47
aVAntonio Davis IND 06/01/1999 IND vs. NYK W 35 9 3 7 42.9 0 0 - 3 9 33.3 4 7 11 0 0 2 3 3 -10
p48
aVRik Smits IND 06/01/1999 IND vs. NYK W 12 6 3 7 42.9 0 0 - 0 0 - 1 1 2 1 0 2 1 6 12
p49
aVDale Davis IND 06/01/1999 IND vs. NYK W 36 15 6 11 54.5 0 0 - 3 7 42.9 5 7 12 1 1 1 1 2 6
p50
aVDerrick McKey IND 06/01/1999 IND vs. NYK W 15 0 0 2 0.0 0 1 0.0 0 0 - 1 0 1 1 3 0 0 2 -5
p51
aVTravis Best IND 05/30/1999 IND vs. NYK L 17 2 1 2 50.0 0 0 - 0 0 - 0 0 0 3 0 0 0 1 3
p52
aVMark Jackson IND 05/30/1999 IND vs. NYK L 30 6 1 8 12.5 0 2 0.0 4 7 57.1 3 4 7 11 1 0 1 1 -6
p53
aVRik Smits IND 05/30/1999 IND vs. NYK L 26 12 4 12 33.3 0 0 - 4 4 100.0 1 5 6 1 0 1 1 6 2
p54
aVAntonio Davis IND 05/30/1999 IND vs. NYK L 27 17 4 8 50.0 0 0 - 9 11 81.8 1 6 7 1 0 1 1 5 -3
p55
aVChris Mullin IND 05/30/1999 IND vs. NYK L 19 7 3 4 75.0 1 1 100.0 0 0 - 0 1 1 1 0 1 1 1 -7
p56
aVSam Perkins IND 05/30/1999 IND vs. NYK L 15 7 3 6 50.0 1 2 50.0 0 0 - 1 0 1 0 0 1 0 3 11
p57
aVDale Davis IND 05/30/1999 IND vs. NYK L 24 10 5 7 71.4 0 0 - 0 0 - 1 4 5 0 2 1 2 3 -13
p58
aVDerrick McKey IND 05/30/1999 IND vs. NYK L 21 2 1 3 33.3 0 0 - 0 1 0.0 2 3 5 0 1 1 1 2 9
p59
aVJalen Rose IND 05/30/1999 IND vs. NYK L 24 8 4 12 33.3 0 0 - 0 0 - 1 3 4 0 0 1 1 4 -3
p60
aVReggie Miller IND 05/30/1999 IND vs. NYK L 32 19 7 13 53.8 1 4 25.0 4 4 100.0 0 5 5 3 0 0 0 3 -8
p61
aVAntonio Davis IND 05/23/1999 IND @ PHI W 17 6 0 1 0.0 0 0 - 6 6 100.0 1 5 6 0 0 1 0 1 -18
p62
aVTravis Best IND 05/23/1999 IND @ PHI W 10 0 0 2 0.0 0 0 - 0 0 - 1 2 3 0 1 0 2 2 -14
p63
aVSam Perkins IND 05/23/1999 IND @ PHI W 2 0 0 0 - 0 0 - 0 0 - 0 0 0 0 0 0 1 1 -3
p64
aVDerrick McKey IND 05/23/1999 IND @ PHI W 13 0 0 2 0.0 0 0 - 0 0 - 0 3 3 0 0 0 0 2 -18
p65
aVJalen Rose IND 05/23/1999 IND @ PHI W 21 5 1 11 9.1 0 1 0.0 3 4 75.0 2 4 6 1 0 0 2 0 -19
p66
aVChris Mullin IND 05/23/1999 IND @ PHI W 30 16 5 9 55.6 4 7 57.1 2 2 100.0 0 0 0 0 0 0 2 2 16
p67
aVReggie Miller IND 05/23/1999 IND @ PHI W 39 23 8 17 47.1 2 8 25.0 5 7 71.4 2 3 5 5 1 1 3 1 13
p68
aVMark Jackson IND 05/23/1999 IND @ PHI W 37 14 5 9 55.6 2 4 50.0 2 2 100.0 1 1 2 13 1 1 1 2 17
p69
aVRik Smits IND 05/23/1999 IND @ PHI W 30 15 6 12 50.0 0 0 - 3 4 75.0 1 6 7 0 1 3 1 4 21
p70
aVDale Davis IND 05/23/1999 IND @ PHI W 35 10 2 4 50.0 0 0 - 6 8 75.0 3 10 13 0 1 3 1 2 20
p71
aVAntonio Davis IND 05/21/1999 IND @ PHI W 21 6 3 6 50.0 0 0 - 0 1 0.0 3 6 9 0 1 2 1 5 12
p72
aVSam Perkins IND 05/21/1999 IND @ PHI W 15 0 0 5 0.0 0 5 0.0 0 0 - 1 1 2 0 0 1 0 0 -2
p73
aVReggie Miller IND 05/21/1999 IND @ PHI W 38 29 9 14 64.3 4 6 66.7 7 7 100.0 0 5 5 4 1 0 0 0 13
p74
aVRik Smits IND 05/21/1999 IND @ PHI W 15 4 2 4 50.0 0 0 - 0 0 - 1 4 5 0 1 0 3 4 3
p75
aVJalen Rose IND 05/21/1999 IND @ PHI W 26 10 5 11 45.5 0 1 0.0 0 1 0.0 1 2 3 3 4 0 2 2 3
p76
aVChris Mullin IND 05/21/1999 IND @ PHI W 24 15 5 10 50.0 3 8 37.5 2 2 100.0 0 2 2 3 2 0 3 2 3
p77
aVDerrick McKey IND 05/21/1999 IND @ PHI W 21 6 3 5 60.0 0 0 - 0 0 - 0 4 4 4 0 0 1 4 9
p78
aVDale Davis IND 05/21/1999 IND @ PHI W 29 10 4 7 57.1 0 0 - 2 6 33.3 5 6 11 1 0 2 1 4 3
p79
aVMark Jackson IND 05/21/1999 IND @ PHI W 33 11 5 10 50.0 1 4 25.0 0 0 - 0 4 4 10 0 0 4 1 8
p80
aVTravis Best IND 05/21/1999 IND @ PHI W 14 6 2 4 50.0 0 0 - 2 2 100.0 1 1 2 1 0 0 5 2 3
p81
aVJalen Rose IND 05/19/1999 IND vs. PHI W 29 7 2 9 22.2 0 3 0.0 3 4 75.0 1 2 3 3 0 1 1 4 -3
p82
aVAntonio Davis IND 05/19/1999 IND vs. PHI W 17 4 1 3 33.3 0 0 - 2 4 50.0 0 3 3 1 0 1 1 2 2
p83
aVReggie Miller IND 05/19/1999 IND vs. PHI W 37 17 7 19 36.8 3 10 30.0 0 0 - 3 5 8 2 1 0 0 1 5
p84
aVRik Smits IND 05/19/1999 IND vs. PHI W 31 25 12 23 52.2 0 0 - 1 1 100.0 3 2 5 1 0 0 0 2 6
p85
aVMark Jackson IND 05/19/1999 IND vs. PHI W 32 6 2 5 40.0 0 0 - 2 4 50.0 3 3 6 14 1 0 2 3 1
p86
aVChris Mullin IND 05/19/1999 IND vs. PHI W 20 8 2 9 22.2 2 6 33.3 2 2 100.0 0 2 2 2 2 0 2 0 7
p87
aVDerrick McKey IND 05/19/1999 IND vs. PHI W 9 1 0 2 0.0 0 0 - 1 2 50.0 2 1 3 2 0 0 1 2 -6
p88
aVTravis Best IND 05/19/1999 IND vs. PHI W 15 7 3 5 60.0 0 0 - 1 2 50.0 2 1 3 1 0 1 3 3 2
p89
aVDale Davis IND 05/19/1999 IND vs. PHI W 33 7 2 4 50.0 0 0 - 3 5 60.0 6 8 14 0 1 2 1 4 2
p90
aVSam Perkins IND 05/19/1999 IND vs. PHI W 13 3 1 2 50.0 1 2 50.0 0 0 - 0 2 2 0 0 0 1 1 -1
p91
aVDale Davis IND 05/17/1999 IND vs. PHI W 24 7 3 4 75.0 0 0 - 1 2 50.0 1 5 6 1 0 2 1 4 -7
p92
aVRik Smits IND 05/17/1999 IND vs. PHI W 22 12 6 16 37.5 0 0 - 0 0 - 1 4 5 0 0 0 1 3 6
p93
aVChris Mullin IND 05/17/1999 IND vs. PHI W 18 1 0 5 0.0 0 3 0.0 1 2 50.0 0 1 1 0 1 1 1 1 4
p94
aVTravis Best IND 05/17/1999 IND vs. PHI W 12 2 0 1 0.0 0 0 - 2 2 100.0 0 1 1 1 1 0 0 6 2
p95
aVMark Jackson IND 05/17/1999 IND vs. PHI W 35 14 5 8 62.5 2 3 66.7 2 2 100.0 1 4 5 6 1 0 2 1 2
p96
aVSam Perkins IND 05/17/1999 IND vs. PHI W 11 3 1 3 33.3 1 3 33.3 0 0 - 0 3 3 1 0 0 1 1 2
p97
aVJalen Rose IND 05/17/1999 IND vs. PHI W 29 27 9 16 56.3 0 2 0.0 9 10 90.0 1 1 2 1 1 1 1 2 0
p98
aVDerrick McKey IND 05/17/1999 IND vs. PHI W 20 2 0 3 0.0 0 0 - 2 2 100.0 1 2 3 0 0 0 0 3 9
p99
aVReggie Miller IND 05/17/1999 IND vs. PHI W 37 18 5 10 50.0 1 1 100.0 7 7 100.0 0 2 2 3 0 0 2 2 1
p100
aVAntonio Davis IND 05/17/1999 IND vs. PHI W 27 8 3 6 50.0 0 0 - 2 5 40.0 6 4 10 1 1 1 3 3 1
p101
aVDerrick McKey IND 05/13/1999 IND @ MIL W 28 3 1 4 25.0 0 1 0.0 1 2 50.0 2 3 5 2 1 0 0 4 0
p102
aVChris Mullin IND 05/13/1999 IND @ MIL W 16 13 5 10 50.0 3 7 42.9 0 0 - 0 1 1 0 0 0 1 1 -1
p103
aVJalen Rose IND 05/13/1999 IND @ MIL W 31 7 3 10 30.0 1 4 25.0 0 0 - 2 1 3 3 1 0 2 4 10
p104
aVTravis Best IND 05/13/1999 IND @ MIL W 16 3 1 9 11.1 0 4 0.0 1 1 100.0 0 0 0 4 0 0 0 3 5
p105
aVDale Davis IND 05/13/1999 IND @ MIL W 21 4 2 2 100.0 0 0 - 0 0 - 3 4 7 1 1 1 1 5 10
p106
aVAntonio Davis IND 05/13/1999 IND @ MIL W 19 4 1 8 12.5 0 0 - 2 2 100.0 1 5 6 0 1 1 2 4 -3
p107
aVMark Jackson IND 05/13/1999 IND @ MIL W 31 16 6 9 66.7 2 3 66.7 2 2 100.0 0 6 6 10 1 0 3 2 3
p108
aVRik Smits IND 05/13/1999 IND @ MIL W 23 8 4 10 40.0 0 0 - 0 0 - 2 4 6 1 1 1 0 5 3
p109
aVSam Perkins IND 05/13/1999 IND @ MIL W 12 8 2 2 100.0 2 2 100.0 2 2 100.0 0 3 3 0 0 0 1 1 3
p110
aVReggie Miller IND 05/13/1999 IND @ MIL W 38 33 8 19 42.1 5 12 41.7 12 14 85.7 3 1 4 5 2 1 1 0 10
p111
aVDale Davis IND 05/11/1999 IND vs. MIL W 27 7 3 6 50.0 0 0 - 1 2 50.0 2 4 6 0 1 0 2 2 -16
p112
aVTravis Best IND 05/11/1999 IND vs. MIL W 5 2 0 1 0.0 0 1 0.0 2 2 100.0 0 0 0 0 1 0 1 5 -8
p113
aVJalen Rose IND 05/11/1999 IND vs. MIL W 34 14 5 11 45.5 1 1 100.0 3 4 75.0 2 0 2 9 3 0 4 4 17
p114
aVAntonio Davis IND 05/11/1999 IND vs. MIL W 27 9 3 3 100.0 0 0 - 3 4 75.0 2 6 8 1 1 0 4 3 4
p115
aVMark Jackson IND 05/11/1999 IND vs. MIL W 41 13 3 9 33.3 2 3 66.7 5 6 83.3 0 3 3 7 3 0 4 4 8
p116
aVChris Mullin IND 05/11/1999 IND vs. MIL W 20 6 2 7 28.6 2 7 28.6 0 0 - 0 1 1 1 1 1 2 2 -10
p117
aVReggie Miller IND 05/11/1999 IND vs. MIL W 40 30 9 25 36.0 3 16 18.8 9 9 100.0 1 2 3 1 2 0 3 3 -9
p118
aVDerrick McKey IND 05/11/1999 IND vs. MIL W 28 7 0 1 0.0 0 0 - 7 10 70.0 3 2 5 1 3 1 0 5 17
p119
aVFred Hoiberg IND 05/11/1999 IND vs. MIL W 3 0 0 1 0.0 0 0 - 0 0 - 0 0 0 0 0 0 0 0 1
p120
aVSam Perkins IND 05/11/1999 IND vs. MIL W 13 14 5 6 83.3 3 4 75.0 1 3 33.3 0 5 5 0 0 0 0 0 5
p121
aVRik Smits IND 05/11/1999 IND vs. MIL W 20 6 3 7 42.9 0 0 - 0 0 - 1 6 7 2 0 4 1 1 -4
p122
aVJalen Rose IND 05/09/1999 IND vs. MIL W 26 24 9 10 90.0 3 3 100.0 3 3 100.0 0 0 0 0 1 0 2 0 20
p123
aVDerrick McKey IND 05/09/1999 IND vs. MIL W 21 11 5 8 62.5 0 1 0.0 1 1 100.0 4 2 6 3 2 1 1 2 20
p124
aVRik Smits IND 05/09/1999 IND vs. MIL W 16 8 4 8 50.0 0 0 - 0 0 - 2 1 3 0 0 1 3 4 -3
p125
aVTravis Best IND 05/09/1999 IND vs. MIL W 19 2 1 4 25.0 0 1 0.0 0 0 - 2 2 4 4 0 0 0 5 13
p126
aVReggie Miller IND 05/09/1999 IND vs. MIL W 30 16 4 15 26.7 2 7 28.6 6 6 100.0 1 2 3 1 0 0 1 0 8
p127
aVChris Mullin IND 05/09/1999 IND vs. MIL W 18 15 5 9 55.6 3 5 60.0 2 2 100.0 2 0 2 1 0 0 2 0 -4
p128
aVAustin Croshere IND 05/09/1999 IND vs. MIL W 0 2 0 1 0.0 0 0 - 2 2 100.0 1 0 1 0 0 0 0 0 4
p129
aVSam Perkins IND 05/09/1999 IND vs. MIL W 13 5 1 3 33.3 1 2 50.0 2 2 100.0 0 3 3 3 0 1 2 2 17
p130
aVFred Hoiberg IND 05/09/1999 IND vs. MIL W 0 2 1 1 100.0 0 0 - 0 0 - 0 1 1 0 0 0 0 0 4
p131
aVMark Jackson IND 05/09/1999 IND vs. MIL W 28 0 0 1 0.0 0 1 0.0 0 0 - 0 2 2 12 1 0 3 3 9
p132
aVDale Davis IND 05/09/1999 IND vs. MIL W 31 16 7 11 63.6 0 0 - 2 5 40.0 6 9 15 1 1 1 2 4 1
p133
aVAntonio Davis IND 05/09/1999 IND vs. MIL W 30 9 2 8 25.0 0 0 - 5 6 83.3 1 10 11 2 0 1 1 3 21
p134
a.