(lp0
VPLAYER TEAM DATE MATCHUP W/L MIN PTS FGM FGA FG% 3PM 3PA 3P% FTM FTA FT% OREB DREB REB AST STL BLK TOV PF +/-
p1
aVDerek Harper LAL 05/05/1999 LAL vs. POR W 24 8 3 5 60.0 2 4 50.0 0 0 - 0 1 1 3 2 0 2 2 4
p2
aVJ.R. Reid LAL 05/05/1999 LAL vs. POR W 26 2 0 4 0.0 0 0 - 2 2 100.0 2 3 5 2 0 0 1 2 30
p3
aVSean Rooks LAL 05/05/1999 LAL vs. POR W 7 4 2 3 66.7 0 1 0.0 0 0 - 0 1 1 0 0 0 1 2 1
p4
aVRobert Horry LAL 05/05/1999 LAL vs. POR W 24 5 2 3 66.7 0 0 - 1 2 50.0 2 3 5 3 3 1 2 3 2
p5
aVRuben Patterson LAL 05/05/1999 LAL vs. POR W 5 7 2 5 40.0 1 1 100.0 2 2 100.0 2 1 3 0 0 0 0 1 0
p6
aVGlen Rice LAL 05/05/1999 LAL vs. POR W 38 40 14 20 70.0 8 10 80.0 4 4 100.0 0 5 5 3 0 0 0 2 31
p7
aVTyronn Lue LAL 05/05/1999 LAL vs. POR W 5 3 1 3 33.3 0 0 - 1 2 50.0 0 0 0 2 0 0 0 1 2
p8
aVKobe Bryant LAL 05/05/1999 LAL vs. POR W 22 11 4 5 80.0 0 0 - 3 5 60.0 1 4 5 1 0 0 1 2 17
p9
aVRick Fox LAL 05/05/1999 LAL vs. POR W 26 13 4 10 40.0 1 4 25.0 4 6 66.7 0 6 6 3 0 0 5 1 6
p10
aVShaquille O'Neal LAL 05/05/1999 LAL vs. POR W 32 18 5 13 38.5 0 0 - 8 11 72.7 3 6 9 5 0 1 2 2 28
p11
aVTravis Knight LAL 05/05/1999 LAL vs. POR W 8 0 0 2 0.0 0 0 - 0 0 - 1 1 2 0 0 0 0 1 -5
p12
aVDerek Fisher LAL 05/05/1999 LAL vs. POR W 24 8 3 5 60.0 2 4 50.0 0 0 - 0 1 1 8 0 0 1 2 24
p13
aVRick Fox LAL 05/03/1999 LAL vs. DAL W 26 11 4 8 50.0 3 5 60.0 0 0 - 3 2 5 4 0 1 2 5 -4
p14
aVSean Rooks LAL 05/03/1999 LAL vs. DAL W 2 2 1 1 100.0 0 0 - 0 0 - 0 0 0 0 0 0 0 0 -4
p15
aVJ.R. Reid LAL 05/03/1999 LAL vs. DAL W 23 9 3 5 60.0 0 0 - 3 4 75.0 0 4 4 2 1 0 2 3 19
p16
aVShaquille O'Neal LAL 05/03/1999 LAL vs. DAL W 31 26 10 14 71.4 0 0 - 6 10 60.0 5 6 11 0 1 0 0 4 14
p17
aVGlen Rice LAL 05/03/1999 LAL vs. DAL W 35 22 7 15 46.7 1 5 20.0 7 7 100.0 1 4 5 1 2 1 3 4 14
p18
aVTyronn Lue LAL 05/03/1999 LAL vs. DAL W 3 4 2 3 66.7 0 1 0.0 0 0 - 0 0 0 0 0 0 1 0 -1
p19
aVRobert Horry LAL 05/03/1999 LAL vs. DAL W 24 4 2 6 33.3 0 1 0.0 0 0 - 1 3 4 3 1 0 3 2 9
p20
aVTravis Knight LAL 05/03/1999 LAL vs. DAL W 7 2 1 2 50.0 0 0 - 0 0 - 0 1 1 0 0 0 0 3 -11
p21
aVDerek Harper LAL 05/03/1999 LAL vs. DAL W 21 8 3 6 50.0 2 3 66.7 0 0 - 0 0 0 3 0 0 1 0 -21
p22
aVDerek Fisher LAL 05/03/1999 LAL vs. DAL W 27 10 3 5 60.0 1 1 100.0 3 3 100.0 0 1 1 8 2 0 1 2 34
p23
aVKobe Bryant LAL 05/03/1999 LAL vs. DAL W 40 17 6 12 50.0 0 0 - 5 5 100.0 0 4 4 10 3 1 5 4 16
p24
aVDerek Harper LAL 05/02/1999 LAL @ SEA W 14 0 0 2 0.0 0 2 0.0 0 0 - 0 1 1 2 0 0 0 0 -13
p25
aVDerek Fisher LAL 05/02/1999 LAL @ SEA W 34 6 2 3 66.7 1 2 50.0 1 2 50.0 0 2 2 6 2 0 1 4 18
p26
aVShaquille O'Neal LAL 05/02/1999 LAL @ SEA W 40 33 12 24 50.0 0 0 - 9 20 45.0 3 9 12 1 0 1 1 1 9
p27
aVRobert Horry LAL 05/02/1999 LAL @ SEA W 25 1 0 3 0.0 0 3 0.0 1 2 50.0 1 2 3 1 1 2 2 4 -1
p28
aVKobe Bryant LAL 05/02/1999 LAL @ SEA W 44 28 12 20 60.0 1 2 50.0 3 4 75.0 2 4 6 4 2 3 3 5 9
p29
aVRick Fox LAL 05/02/1999 LAL @ SEA W 29 12 5 10 50.0 2 2 100.0 0 4 0.0 1 4 5 2 1 0 1 1 -11
p30
aVGlen Rice LAL 05/02/1999 LAL @ SEA W 30 5 2 10 20.0 1 2 50.0 0 0 - 0 4 4 4 1 0 0 3 17
p31
aVJ.R. Reid LAL 05/02/1999 LAL @ SEA W 18 4 1 2 50.0 0 0 - 2 2 100.0 1 5 6 2 1 0 2 5 9
p32
aVTravis Knight LAL 05/02/1999 LAL @ SEA W 7 2 1 3 33.3 0 0 - 0 0 - 0 3 3 0 0 0 0 4 -2
p33
aVRick Fox LAL 04/29/1999 LAL vs. POR W 22 6 2 5 40.0 1 2 50.0 1 1 100.0 1 5 6 3 2 0 2 3 10
p34
aVTravis Knight LAL 04/29/1999 LAL vs. POR W 5 0 0 0 - 0 0 - 0 0 - 0 0 0 0 1 0 1 3 -4
p35
aVGlen Rice LAL 04/29/1999 LAL vs. POR W 34 9 4 8 50.0 1 4 25.0 0 0 - 0 2 2 4 1 0 3 6 7
p36
aVTyronn Lue LAL 04/29/1999 LAL vs. POR W 2 2 1 2 50.0 0 0 - 0 0 - 0 0 0 0 0 0 0 0 -5
p37
aVDerek Fisher LAL 04/29/1999 LAL vs. POR W 29 5 2 6 33.3 1 4 25.0 0 0 - 0 2 2 3 4 0 2 4 17
p38
aVRuben Patterson LAL 04/29/1999 LAL vs. POR W 2 0 0 1 0.0 0 0 - 0 0 - 0 0 0 0 0 0 0 1 -5
p39
aVKobe Bryant LAL 04/29/1999 LAL vs. POR W 38 15 5 11 45.5 0 2 0.0 5 6 83.3 0 6 6 7 2 2 6 2 26
p40
aVJ.R. Reid LAL 04/29/1999 LAL vs. POR W 25 5 1 3 33.3 0 0 - 3 4 75.0 0 3 3 3 1 0 0 5 1
p41
aVDerek Harper LAL 04/29/1999 LAL vs. POR W 17 6 2 4 50.0 2 3 66.7 0 0 - 0 0 0 5 1 0 0 1 7
p42
aVShaquille O'Neal LAL 04/29/1999 LAL vs. POR W 39 38 12 19 63.2 0 0 - 14 17 82.4 3 9 12 2 2 3 1 0 22
p43
aVRobert Horry LAL 04/29/1999 LAL vs. POR W 27 22 8 11 72.7 6 8 75.0 0 0 - 0 1 1 2 0 1 1 2 19
p44
aVTyronn Lue LAL 04/26/1999 LAL @ HOU L 9 5 2 4 50.0 1 2 50.0 0 0 - 0 0 0 2 1 0 1 0 1
p45
aVRick Fox LAL 04/26/1999 LAL @ HOU L 21 12 5 9 55.6 0 0 - 2 2 100.0 0 0 0 1 0 0 0 0 -11
p46
aVTravis Knight LAL 04/26/1999 LAL @ HOU L 3 0 0 0 - 0 0 - 0 0 - 0 0 0 0 0 0 0 1 3
p47
aVRobert Horry LAL 04/26/1999 LAL @ HOU L 27 4 1 3 33.3 0 0 - 2 2 100.0 2 5 7 0 2 3 2 2 -9
p48
aVShaquille O'Neal LAL 04/26/1999 LAL @ HOU L 36 19 9 14 64.3 0 0 - 1 2 50.0 1 11 12 4 1 1 6 2 -19
p49
aVRuben Patterson LAL 04/26/1999 LAL @ HOU L 3 2 0 1 0.0 0 0 - 2 2 100.0 1 0 1 0 2 0 1 0 1
p50
aVSean Rooks LAL 04/26/1999 LAL @ HOU L 10 0 0 1 0.0 0 0 - 0 0 - 1 2 3 0 0 0 0 1 -6
p51
aVDerek Harper LAL 04/26/1999 LAL @ HOU L 13 2 1 2 50.0 0 0 - 0 0 - 1 0 1 4 0 0 0 1 -16
p52
aVDerek Fisher LAL 04/26/1999 LAL @ HOU L 26 9 4 8 50.0 0 2 0.0 1 2 50.0 0 1 1 7 1 0 3 3 -7
p53
aVKobe Bryant LAL 04/26/1999 LAL @ HOU L 35 9 3 14 21.4 1 3 33.3 2 2 100.0 1 4 5 2 1 0 1 2 -18
p54
aVGlen Rice LAL 04/26/1999 LAL @ HOU L 38 16 7 15 46.7 2 5 40.0 0 0 - 1 1 2 0 2 0 2 3 -16
p55
aVJ.R. Reid LAL 04/26/1999 LAL @ HOU L 20 2 1 3 33.3 0 0 - 0 0 - 1 3 4 0 0 0 2 1 -13
p56
aVDerek Harper LAL 04/24/1999 LAL @ SAS L 19 2 1 3 33.3 0 1 0.0 0 0 - 1 1 2 3 1 0 1 0 -6
p57
aVRobert Horry LAL 04/24/1999 LAL @ SAS L 18 3 1 4 25.0 1 3 33.3 0 0 - 0 2 2 0 1 0 0 5 -21
p58
aVKobe Bryant LAL 04/24/1999 LAL @ SAS L 38 11 5 14 35.7 0 2 0.0 1 2 50.0 0 4 4 4 2 1 2 3 -24
p59
aVShaquille O'Neal LAL 04/24/1999 LAL @ SAS L 34 26 10 17 58.8 0 0 - 6 8 75.0 3 9 12 1 0 1 3 4 -12
p60
aVDerek Fisher LAL 04/24/1999 LAL @ SAS L 24 0 0 3 0.0 0 1 0.0 0 0 - 0 1 1 6 0 0 1 1 -19
p61
aVRick Fox LAL 04/24/1999 LAL @ SAS L 17 4 2 6 33.3 0 1 0.0 0 0 - 1 1 2 0 0 0 1 1 -13
p62
aVRuben Patterson LAL 04/24/1999 LAL @ SAS L 3 4 1 2 50.0 0 1 0.0 2 2 100.0 0 1 1 0 1 0 0 0 -3
p63
aVSean Rooks LAL 04/24/1999 LAL @ SAS L 8 0 0 1 0.0 0 0 - 0 0 - 0 1 1 1 0 0 0 0 -2
p64
aVGlen Rice LAL 04/24/1999 LAL @ SAS L 38 19 7 13 53.8 1 2 50.0 4 5 80.0 0 1 1 0 0 0 3 1 -14
p65
aVTravis Knight LAL 04/24/1999 LAL @ SAS L 3 0 0 1 0.0 0 0 - 0 0 - 0 0 0 0 0 0 0 0 -3
p66
aVJ.R. Reid LAL 04/24/1999 LAL @ SAS L 33 12 5 7 71.4 0 0 - 2 6 33.3 2 5 7 1 3 0 1 2 -16
p67
aVTyronn Lue LAL 04/24/1999 LAL @ SAS L 6 0 0 2 0.0 0 0 - 0 0 - 0 0 0 0 0 0 1 2 -2
p68
aVTravis Knight LAL 04/21/1999 LAL @ POR L 21 8 4 8 50.0 0 0 - 0 0 - 1 0 1 0 0 1 2 3 -3
p69
aVJ.R. Reid LAL 04/21/1999 LAL @ POR L 14 4 0 3 0.0 0 0 - 4 4 100.0 1 1 2 1 0 0 2 3 -8
p70
aVShaquille O'Neal LAL 04/21/1999 LAL @ POR L 42 25 10 19 52.6 0 0 - 5 10 50.0 3 10 13 3 1 0 1 4 -6
p71
aVTyronn Lue LAL 04/21/1999 LAL @ POR L 15 4 2 4 50.0 0 1 0.0 0 0 - 1 0 1 1 0 0 0 3 -4
p72
aVRuben Patterson LAL 04/21/1999 LAL @ POR L 3 0 0 1 0.0 0 1 0.0 0 0 - 0 0 0 0 0 0 0 1 -2
p73
aVRobert Horry LAL 04/21/1999 LAL @ POR L 27 3 1 3 33.3 1 1 100.0 0 0 - 0 4 4 0 0 1 1 4 -1
p74
aVGlen Rice LAL 04/21/1999 LAL @ POR L 40 10 4 14 28.6 2 7 28.6 0 0 - 0 2 2 1 0 0 2 1 0
p75
aVDerek Fisher LAL 04/21/1999 LAL @ POR L 33 6 2 8 25.0 2 5 40.0 0 0 - 2 1 3 2 1 0 0 1 -2
p76
aVKobe Bryant LAL 04/21/1999 LAL @ POR L 45 22 7 15 46.7 2 5 40.0 6 7 85.7 2 4 6 4 2 1 6 4 -4
p77
aVKobe Bryant LAL 04/20/1999 LAL @ GSW W 40 27 10 17 58.8 3 4 75.0 4 5 80.0 3 2 5 5 1 3 5 3 7
p78
aVDerek Fisher LAL 04/20/1999 LAL @ GSW W 22 2 1 2 50.0 0 0 - 0 0 - 0 2 2 1 2 0 4 3 -5
p79
aVShaquille O'Neal LAL 04/20/1999 LAL @ GSW W 17 10 4 9 44.4 0 0 - 2 4 50.0 2 2 4 0 1 1 3 2 -18
p80
aVRobert Horry LAL 04/20/1999 LAL @ GSW W 36 17 5 8 62.5 2 4 50.0 5 5 100.0 5 5 10 2 1 1 4 5 10
p81
aVGlen Rice LAL 04/20/1999 LAL @ GSW W 46 14 4 19 21.1 1 7 14.3 5 6 83.3 2 10 12 4 1 0 4 2 5
p82
aVRuben Patterson LAL 04/20/1999 LAL @ GSW W 19 6 1 3 33.3 0 0 - 4 6 66.7 0 2 2 0 0 0 0 2 -4
p83
aVTyronn Lue LAL 04/20/1999 LAL @ GSW W 31 7 2 6 33.3 1 3 33.3 2 4 50.0 0 2 2 2 1 0 3 3 9
p84
aVJ.R. Reid LAL 04/20/1999 LAL @ GSW W 39 15 6 9 66.7 0 0 - 3 4 75.0 4 4 8 1 3 0 2 6 8
p85
aVTravis Knight LAL 04/20/1999 LAL @ GSW W 13 8 4 6 66.7 0 0 - 0 0 - 1 0 1 1 3 1 2 1 8
p86
aVJ.R. Reid LAL 04/19/1999 LAL vs. VAN W 20 4 2 3 66.7 0 0 - 0 0 - 0 1 1 0 0 0 1 4 -5
p87
aVGlen Rice LAL 04/19/1999 LAL vs. VAN W 38 18 6 15 40.0 2 4 50.0 4 4 100.0 0 2 2 4 0 0 1 2 11
p88
aVKobe Bryant LAL 04/19/1999 LAL vs. VAN W 36 17 6 11 54.5 0 3 0.0 5 6 83.3 0 4 4 8 1 0 1 4 3
p89
aVRobert Horry LAL 04/19/1999 LAL vs. VAN W 35 17 7 12 58.3 1 3 33.3 2 3 66.7 6 6 12 6 2 2 1 3 19
p90
aVTravis Knight LAL 04/19/1999 LAL vs. VAN W 9 0 0 2 0.0 0 0 - 0 0 - 1 1 2 1 0 0 0 1 2
p91
aVTyronn Lue LAL 04/19/1999 LAL vs. VAN W 29 15 5 8 62.5 2 2 100.0 3 6 50.0 1 0 1 6 1 0 0 2 24
p92
aVShaquille O'Neal LAL 04/19/1999 LAL vs. VAN W 36 35 15 25 60.0 0 0 - 5 9 55.6 3 6 9 4 0 1 2 4 17
p93
aVDerek Fisher LAL 04/19/1999 LAL vs. VAN W 19 0 0 1 0.0 0 0 - 0 0 - 0 1 1 0 2 0 2 3 -9
p94
aVRuben Patterson LAL 04/19/1999 LAL vs. VAN W 18 11 5 9 55.6 0 1 0.0 1 1 100.0 2 4 6 1 1 0 0 2 13
p95
aVRobert Horry LAL 04/17/1999 LAL @ UTA L 12 0 0 0 - 0 0 - 0 0 - 0 0 0 0 1 1 1 4 -13
p96
aVDerek Fisher LAL 04/17/1999 LAL @ UTA L 30 9 4 9 44.4 0 2 0.0 1 1 100.0 0 3 3 6 1 0 1 5 -8
p97
aVRuben Patterson LAL 04/17/1999 LAL @ UTA L 2 0 0 0 - 0 0 - 0 0 - 0 0 0 0 0 0 1 1 0
p98
aVTravis Knight LAL 04/17/1999 LAL @ UTA L 17 0 0 2 0.0 0 0 - 0 0 - 0 3 3 2 3 0 2 4 7
p99
aVRick Fox LAL 04/17/1999 LAL @ UTA L 26 24 11 17 64.7 2 3 66.7 0 0 - 1 1 2 4 2 0 2 4 1
p100
aVJ.R. Reid LAL 04/17/1999 LAL @ UTA L 27 1 0 2 0.0 0 0 - 1 2 50.0 1 2 3 0 0 0 0 3 -9
p101
aVTyronn Lue LAL 04/17/1999 LAL @ UTA L 18 2 1 6 16.7 0 1 0.0 0 0 - 0 2 2 0 0 0 0 4 -8
p102
aVKobe Bryant LAL 04/17/1999 LAL @ UTA L 42 17 6 16 37.5 2 4 50.0 3 5 60.0 0 5 5 5 0 0 4 2 -13
p103
aVShaquille O'Neal LAL 04/17/1999 LAL @ UTA L 35 29 13 19 68.4 0 0 - 3 7 42.9 6 8 14 0 1 4 2 5 -19
p104
aVGlen Rice LAL 04/17/1999 LAL @ UTA L 31 11 4 10 40.0 0 2 0.0 3 3 100.0 0 2 2 3 0 1 0 4 -18
p105
aVTyronn Lue LAL 04/13/1999 LAL @ POR L 22 9 3 9 33.3 1 3 33.3 2 5 40.0 0 0 0 3 2 0 1 5 -22
p106
aVKobe Bryant LAL 04/13/1999 LAL @ POR L 39 20 7 19 36.8 0 2 0.0 6 7 85.7 0 0 0 2 0 0 2 1 -18
p107
aVRuben Patterson LAL 04/13/1999 LAL @ POR L 16 6 1 4 25.0 0 1 0.0 4 6 66.7 4 1 5 0 1 2 3 2 -12
p108
aVJ.R. Reid LAL 04/13/1999 LAL @ POR L 24 3 1 5 20.0 0 0 - 1 3 33.3 1 5 6 1 0 0 1 5 -8
p109
aVDennis Rodman LAL 04/13/1999 LAL @ POR L 13 0 0 1 0.0 0 0 - 0 0 - 1 3 4 0 0 0 0 1 -11
p110
aVDerek Fisher LAL 04/13/1999 LAL @ POR L 23 1 0 5 0.0 0 2 0.0 1 2 50.0 0 1 1 7 1 0 1 1 -1
p111
aVDerek Harper LAL 04/13/1999 LAL @ POR L 7 0 0 2 0.0 0 2 0.0 0 0 - 0 0 0 1 0 0 0 1 -7
p112
aVShaquille O'Neal LAL 04/13/1999 LAL @ POR L 33 24 9 16 56.3 0 0 - 6 13 46.2 5 9 14 2 0 0 1 5 -22
p113
aVRick Fox LAL 04/13/1999 LAL @ POR L 33 17 7 11 63.6 0 0 - 3 4 75.0 2 0 2 0 0 0 3 3 -18
p114
aVRobert Horry LAL 04/13/1999 LAL @ POR L 20 6 2 4 50.0 2 2 100.0 0 0 - 2 3 5 0 1 0 3 1 -16
p115
aVSean Rooks LAL 04/13/1999 LAL @ POR L 11 0 0 1 0.0 0 0 - 0 0 - 0 2 2 1 0 0 2 4 0
p116
aVShaquille O'Neal LAL 04/11/1999 LAL vs. SEA L 42 38 18 30 60.0 0 0 - 2 8 25.0 4 4 8 2 3 1 1 2 6
p117
aVTyronn Lue LAL 04/11/1999 LAL vs. SEA L 15 10 4 5 80.0 2 3 66.7 0 0 - 0 0 0 1 0 0 2 2 7
p118
aVDennis Rodman LAL 04/11/1999 LAL vs. SEA L 40 6 3 3 100.0 0 0 - 0 0 - 2 11 13 1 2 1 2 4 -1
p119
aVDerek Harper LAL 04/11/1999 LAL vs. SEA L 32 8 4 9 44.4 0 1 0.0 0 0 - 1 1 2 2 0 1 0 3 -6
p120
aVDerek Fisher LAL 04/11/1999 LAL vs. SEA L 17 12 2 2 100.0 2 2 100.0 6 7 85.7 1 1 2 4 1 0 0 1 -3
p121
aVKobe Bryant LAL 04/11/1999 LAL vs. SEA L 44 25 8 21 38.1 0 4 0.0 9 10 90.0 2 3 5 9 1 0 0 6 -8
p122
aVRobert Horry LAL 04/11/1999 LAL vs. SEA L 20 4 1 6 16.7 1 2 50.0 1 2 50.0 2 3 5 2 2 0 3 3 1
p123
aVJ.R. Reid LAL 04/11/1999 LAL vs. SEA L 4 2 1 1 100.0 0 0 - 0 0 - 1 0 1 0 0 0 0 1 -10
p124
aVRick Fox LAL 04/11/1999 LAL vs. SEA L 12 2 1 6 16.7 0 1 0.0 0 0 - 0 0 0 2 0 0 1 5 -2
p125
aVSean Rooks LAL 04/11/1999 LAL vs. SEA L 2 0 0 0 - 0 0 - 0 0 - 0 0 0 0 0 0 1 3 0
p126
aVRuben Patterson LAL 04/11/1999 LAL vs. SEA L 11 2 1 3 33.3 0 0 - 0 0 - 1 0 1 0 0 0 0 3 -4
p127
aVRobert Horry LAL 04/09/1999 LAL vs. MIN W 21 13 5 5 100.0 0 0 - 3 4 75.0 4 3 7 2 2 1 3 4 9
p128
aVKobe Bryant LAL 04/09/1999 LAL vs. MIN W 37 18 7 14 50.0 1 3 33.3 3 4 75.0 2 1 3 7 1 0 1 2 11
p129
aVRick Fox LAL 04/09/1999 LAL vs. MIN W 19 4 2 6 33.3 0 1 0.0 0 0 - 0 5 5 1 0 0 2 1 -2
p130
aVDerek Fisher LAL 04/09/1999 LAL vs. MIN W 13 5 2 4 50.0 1 2 50.0 0 0 - 0 2 2 3 1 0 3 1 8
p131
aVTyronn Lue LAL 04/09/1999 LAL vs. MIN W 9 0 0 1 0.0 0 0 - 0 0 - 0 0 0 0 0 0 0 2 -5
p132
aVJ.R. Reid LAL 04/09/1999 LAL vs. MIN W 11 1 0 1 0.0 0 0 - 1 2 50.0 0 1 1 1 0 0 0 2 1
p133
aVDerek Harper LAL 04/09/1999 LAL vs. MIN W 26 5 1 8 12.5 0 1 0.0 3 4 75.0 0 2 2 1 2 0 1 3 4
p134
aVShaquille O'Neal LAL 04/09/1999 LAL vs. MIN W 38 25 11 19 57.9 0 0 - 3 8 37.5 5 10 15 2 0 3 3 1 5
p135
aVDennis Rodman LAL 04/09/1999 LAL vs. MIN W 25 0 0 1 0.0 0 0 - 0 0 - 3 6 9 0 0 0 2 3 -3
p136
aVGlen Rice LAL 04/09/1999 LAL vs. MIN W 41 25 9 19 47.4 3 6 50.0 4 4 100.0 0 3 3 5 0 0 3 1 7
p137
aVJ.R. Reid LAL 04/07/1999 LAL @ SAC W 15 7 2 6 33.3 0 1 0.0 3 4 75.0 1 2 3 1 1 0 0 3 9
p138
aVDerek Fisher LAL 04/07/1999 LAL @ SAC W 34 19 7 13 53.8 3 5 60.0 2 2 100.0 0 0 0 6 3 0 5 0 21
p139
aVTyronn Lue LAL 04/07/1999 LAL @ SAC W 1 0 0 0 - 0 0 - 0 0 - 0 0 0 0 0 0 1 0 -2
p140
aVDerek Harper LAL 04/07/1999 LAL @ SAC W 13 0 0 2 0.0 0 0 - 0 0 - 0 1 1 1 0 0 0 1 -4
p141
aVShaquille O'Neal LAL 04/07/1999 LAL @ SAC W 33 30 12 20 60.0 0 0 - 6 11 54.5 9 9 18 0 1 0 2 3 6
p142
aVKobe Bryant LAL 04/07/1999 LAL @ SAC W 42 18 7 18 38.9 0 1 0.0 4 4 100.0 0 2 2 7 6 0 8 4 11
p143
aVRuben Patterson LAL 04/07/1999 LAL @ SAC W 2 0 0 1 0.0 0 0 - 0 2 0.0 1 0 1 0 0 0 0 0 -1
p144
aVGlen Rice LAL 04/07/1999 LAL @ SAC W 35 15 5 13 38.5 1 5 20.0 4 4 100.0 0 3 3 0 0 0 4 4 9
p145
aVRobert Horry LAL 04/07/1999 LAL @ SAC W 29 2 1 7 14.3 0 2 0.0 0 0 - 2 6 8 2 0 2 0 4 21
p146
aVDennis Rodman LAL 04/07/1999 LAL @ SAC W 19 2 1 2 50.0 0 0 - 0 0 - 3 5 8 1 0 0 0 2 -6
p147
aVRick Fox LAL 04/07/1999 LAL @ SAC W 17 11 5 5 100.0 1 1 100.0 0 0 - 0 1 1 0 2 0 2 2 11
p148
aVSean Rooks LAL 04/06/1999 LAL vs. UTA L 12 0 0 3 0.0 0 0 - 0 0 - 1 2 3 0 0 0 0 2 -2
p149
aVShaquille O'Neal LAL 04/06/1999 LAL vs. UTA L 30 24 9 17 52.9 0 1 0.0 6 12 50.0 4 3 7 2 0 3 3 5 -10
p150
aVRobert Horry LAL 04/06/1999 LAL vs. UTA L 10 6 3 4 75.0 0 0 - 0 1 0.0 1 0 1 1 1 1 0 1 9
p151
aVRick Fox LAL 04/06/1999 LAL vs. UTA L 30 19 6 13 46.2 0 0 - 7 7 100.0 2 4 6 0 1 1 0 5 3
p152
aVKobe Bryant LAL 04/06/1999 LAL vs. UTA L 36 15 6 14 42.9 0 2 0.0 3 4 75.0 2 0 2 3 0 1 1 3 -14
p153
aVDerek Harper LAL 04/06/1999 LAL vs. UTA L 17 2 0 2 0.0 0 1 0.0 2 2 100.0 0 0 0 2 0 0 2 1 -14
p154
aVDerek Fisher LAL 04/06/1999 LAL vs. UTA L 8 0 0 1 0.0 0 0 - 0 0 - 0 0 0 2 0 0 0 0 0
p155
aVJ.R. Reid LAL 04/06/1999 LAL vs. UTA L 7 4 2 3 66.7 0 0 - 0 0 - 0 2 2 0 0 0 0 0 -1
p156
aVDennis Rodman LAL 04/06/1999 LAL vs. UTA L 36 0 0 2 0.0 0 1 0.0 0 0 - 3 9 12 0 2 1 0 4 -20
p157
aVGlen Rice LAL 04/06/1999 LAL vs. UTA L 32 11 3 10 30.0 1 3 33.3 4 4 100.0 1 2 3 2 0 1 0 2 -17
p158
aVTyronn Lue LAL 04/06/1999 LAL vs. UTA L 23 12 4 10 40.0 0 0 - 4 4 100.0 0 0 0 6 0 0 1 4 1
p159
aVRick Fox LAL 04/05/1999 LAL vs. DEN W 23 14 5 10 50.0 0 0 - 4 4 100.0 1 1 2 4 2 0 2 1 5
p160
aVDerek Fisher LAL 04/05/1999 LAL vs. DEN W 19 11 4 10 40.0 1 3 33.3 2 2 100.0 1 1 2 7 2 0 1 2 0
p161
aVShaquille O'Neal LAL 04/05/1999 LAL vs. DEN W 21 20 10 15 66.7 0 0 - 0 1 0.0 1 8 9 3 0 0 0 5 11
p162
aVRobert Horry LAL 04/05/1999 LAL vs. DEN W 22 7 3 5 60.0 0 0 - 1 2 50.0 1 1 2 1 3 0 2 2 9
p163
aVJ.R. Reid LAL 04/05/1999 LAL vs. DEN W 18 4 2 10 20.0 0 0 - 0 0 - 3 2 5 0 1 0 1 5 5
p164
aVKobe Bryant LAL 04/05/1999 LAL vs. DEN W 37 26 8 12 66.7 4 4 100.0 6 7 85.7 1 1 2 3 0 0 0 1 10
p165
aVGlen Rice LAL 04/05/1999 LAL vs. DEN W 37 26 9 19 47.4 2 4 50.0 6 8 75.0 0 2 2 3 0 0 0 2 13
p166
aVDennis Rodman LAL 04/05/1999 LAL vs. DEN W 34 3 1 1 100.0 0 0 - 1 2 50.0 6 11 17 3 0 0 2 3 -1
p167
aVDerek Harper LAL 04/05/1999 LAL vs. DEN W 29 6 3 7 42.9 0 2 0.0 0 0 - 0 2 2 9 2 0 0 3 13
p168
aVSean Rooks LAL 04/03/1999 LAL vs. GSW L 3 2 0 1 0.0 0 0 - 2 2 100.0 0 0 0 0 0 0 0 0 2
p169
aVJ.R. Reid LAL 04/03/1999 LAL vs. GSW L 13 2 1 4 25.0 0 0 - 0 0 - 0 3 3 0 0 0 1 2 2
p170
aVDerek Fisher LAL 04/03/1999 LAL vs. GSW L 26 10 3 5 60.0 1 3 33.3 3 4 75.0 1 3 4 2 0 0 1 3 -2
p171
aVKobe Bryant LAL 04/03/1999 LAL vs. GSW L 39 17 5 15 33.3 0 1 0.0 7 9 77.8 1 1 2 2 1 0 2 2 0
p172
aVDerek Harper LAL 04/03/1999 LAL vs. GSW L 22 5 2 9 22.2 1 3 33.3 0 0 - 2 0 2 2 1 0 0 1 -3
p173
aVGlen Rice LAL 04/03/1999 LAL vs. GSW L 40 11 4 13 30.8 0 5 0.0 3 5 60.0 0 6 6 5 2 0 2 2 -6
p174
aVShaquille O'Neal LAL 04/03/1999 LAL vs. GSW L 32 21 8 17 47.1 0 0 - 5 13 38.5 5 6 11 0 0 1 2 4 -9
p175
aVDennis Rodman LAL 04/03/1999 LAL vs. GSW L 31 0 0 3 0.0 0 0 - 0 4 0.0 4 9 13 0 2 1 1 3 -12
p176
aVRobert Horry LAL 04/03/1999 LAL vs. GSW L 13 0 0 1 0.0 0 0 - 0 0 - 3 1 4 0 1 0 2 2 3
p177
aVRick Fox LAL 04/03/1999 LAL vs. GSW L 21 8 3 7 42.9 0 2 0.0 2 2 100.0 0 1 1 3 0 1 2 4 0
p178
aVDerek Fisher LAL 04/02/1999 LAL @ PHX W 17 3 1 3 33.3 1 1 100.0 0 0 - 1 1 2 1 0 0 1 0 -1
p179
aVShaquille O'Neal LAL 04/02/1999 LAL @ PHX W 34 21 8 14 57.1 0 0 - 5 9 55.6 2 6 8 1 0 0 2 3 10
p180
aVGlen Rice LAL 04/02/1999 LAL @ PHX W 33 23 10 16 62.5 3 6 50.0 0 0 - 1 2 3 1 1 1 0 4 15
p181
aVRick Fox LAL 04/02/1999 LAL @ PHX W 6 3 1 1 100.0 0 0 - 1 1 100.0 0 0 0 0 0 0 1 3 -13
p182
aVSean Rooks LAL 04/02/1999 LAL @ PHX W 3 0 0 1 0.0 0 0 - 0 0 - 0 0 0 0 0 0 0 0 -7
p183
aVRobert Horry LAL 04/02/1999 LAL @ PHX W 17 4 2 4 50.0 0 0 - 0 0 - 3 2 5 3 2 0 0 3 10
p184
aVKobe Bryant LAL 04/02/1999 LAL @ PHX W 41 18 7 20 35.0 0 0 - 4 4 100.0 0 3 3 4 2 2 4 3 -10
p185
aVDerek Harper LAL 04/02/1999 LAL @ PHX W 31 3 1 5 20.0 1 4 25.0 0 0 - 0 1 1 10 2 0 0 1 2
p186
aVDennis Rodman LAL 04/02/1999 LAL @ PHX W 44 2 0 2 0.0 0 0 - 2 2 100.0 4 11 15 1 1 0 4 3 -3
p187
aVJ.R. Reid LAL 04/02/1999 LAL @ PHX W 14 14 6 9 66.7 0 0 - 2 4 50.0 0 3 3 0 0 0 0 2 2
p188
aVSean Rooks LAL 03/29/1999 LAL vs. VAN W 14 11 4 4 100.0 0 0 - 3 3 100.0 2 4 6 0 0 3 1 4 4
p189
aVRuben Patterson LAL 03/29/1999 LAL vs. VAN W 2 5 2 4 50.0 0 1 0.0 1 1 100.0 0 0 0 0 0 0 0 0 0
p190
aVGlen Rice LAL 03/29/1999 LAL vs. VAN W 40 24 7 17 41.2 4 8 50.0 6 7 85.7 0 2 2 6 2 0 2 1 18
p191
aVRick Fox LAL 03/29/1999 LAL vs. VAN W 20 17 5 10 50.0 1 4 25.0 6 7 85.7 0 0 0 2 1 0 1 2 12
p192
aVKobe Bryant LAL 03/29/1999 LAL vs. VAN W 34 20 7 17 41.2 0 1 0.0 6 6 100.0 3 0 3 3 3 3 2 2 6
p193
aVRobert Horry LAL 03/29/1999 LAL vs. VAN W 3 0 0 1 0.0 0 0 - 0 0 - 0 0 0 0 1 0 0 0 4
p194
aVDerek Fisher LAL 03/29/1999 LAL vs. VAN W 20 4 1 1 100.0 1 1 100.0 1 2 50.0 1 0 1 5 2 0 0 1 14
p195
aVDerek Harper LAL 03/29/1999 LAL vs. VAN W 28 6 2 6 33.3 0 2 0.0 2 2 100.0 0 1 1 6 3 0 1 1 4
p196
aVDennis Rodman LAL 03/29/1999 LAL vs. VAN W 43 3 1 3 33.3 0 0 - 1 2 50.0 6 11 17 5 1 0 1 4 14
p197
aVTravis Knight LAL 03/29/1999 LAL vs. VAN W 2 0 0 0 - 0 0 - 0 0 - 0 0 0 0 0 0 0 0 0
p198
aVShaquille O'Neal LAL 03/29/1999 LAL vs. VAN W 34 26 10 20 50.0 0 0 - 6 7 85.7 0 1 1 3 3 4 2 3 14
p199
aVDerek Harper LAL 03/28/1999 LAL vs. NYK W 29 8 3 8 37.5 2 4 50.0 0 0 - 0 3 3 9 1 0 2 3 2
p200
aVDerek Fisher LAL 03/28/1999 LAL vs. NYK W 19 4 2 5 40.0 0 0 - 0 0 - 0 2 2 4 0 0 2 5 6
p201
aVKobe Bryant LAL 03/28/1999 LAL vs. NYK W 39 29 11 20 55.0 0 0 - 7 8 87.5 0 5 5 3 5 1 2 3 6
p202
aVRobert Horry LAL 03/28/1999 LAL vs. NYK W 13 0 0 1 0.0 0 0 - 0 0 - 1 3 4 3 1 1 0 1 14
p203
aVDennis Rodman LAL 03/28/1999 LAL vs. NYK W 35 7 1 2 50.0 0 0 - 5 6 83.3 2 10 12 1 0 1 1 2 -6
p204
aVSean Rooks LAL 03/28/1999 LAL vs. NYK W 9 2 0 0 - 0 0 - 2 2 100.0 1 1 2 0 0 0 0 1 1
p205
aVShaquille O'Neal LAL 03/28/1999 LAL vs. NYK W 39 21 8 16 50.0 0 0 - 5 15 33.3 4 5 9 0 0 2 3 4 8
p206
aVGlen Rice LAL 03/28/1999 LAL vs. NYK W 37 19 8 14 57.1 1 1 100.0 2 4 50.0 2 2 4 3 1 0 1 3 5
p207
aVRick Fox LAL 03/28/1999 LAL vs. NYK W 20 9 3 8 37.5 1 1 100.0 2 4 50.0 2 1 3 1 0 0 0 2 4
p208
aVDennis Rodman LAL 03/26/1999 LAL vs. SAC L 24 2 1 3 33.3 0 0 - 0 0 - 1 8 9 0 0 0 2 3 -16
p209
aVGlen Rice LAL 03/26/1999 LAL vs. SAC L 36 17 7 12 58.3 2 4 50.0 1 1 100.0 1 5 6 4 0 1 3 3 -7
p210
aVDerek Fisher LAL 03/26/1999 LAL vs. SAC L 17 6 2 4 50.0 2 3 66.7 0 0 - 1 1 2 6 1 0 1 1 11
p211
aVJ.R. Reid LAL 03/26/1999 LAL vs. SAC L 18 3 1 5 20.0 0 0 - 1 2 50.0 2 6 8 1 0 0 1 2 1
p212
aVRick Fox LAL 03/26/1999 LAL vs. SAC L 20 13 5 13 38.5 3 5 60.0 0 0 - 1 2 3 3 1 1 1 3 9
p213
aVRobert Horry LAL 03/26/1999 LAL vs. SAC L 22 5 2 2 100.0 0 0 - 1 2 50.0 0 7 7 2 1 1 0 4 5
p214
aVDerek Harper LAL 03/26/1999 LAL vs. SAC L 31 13 6 12 50.0 0 4 0.0 1 3 33.3 1 1 2 4 2 0 1 0 -13
p215
aVShaquille O'Neal LAL 03/26/1999 LAL vs. SAC L 32 24 11 15 73.3 0 0 - 2 4 50.0 2 3 5 3 0 2 6 3 6
p216
aVKobe Bryant LAL 03/26/1999 LAL vs. SAC L 40 26 10 17 58.8 1 1 100.0 5 6 83.3 0 0 0 6 2 3 2 0 -6
p217
aVKobe Bryant LAL 03/24/1999 LAL vs. PHX L 39 25 10 22 45.5 0 3 0.0 5 7 71.4 1 2 3 2 1 2 5 3 -14
p218
aVTravis Knight LAL 03/24/1999 LAL vs. PHX L 11 2 1 3 33.3 0 1 0.0 0 0 - 0 2 2 0 0 1 1 3 -14
p219
aVDennis Rodman LAL 03/24/1999 LAL vs. PHX L 36 2 1 3 33.3 0 0 - 0 0 - 2 11 13 2 1 1 4 4 12
p220
aVDerek Harper LAL 03/24/1999 LAL vs. PHX L 31 12 6 11 54.5 0 2 0.0 0 0 - 1 4 5 7 0 0 3 3 0
p221
aVDerek Fisher LAL 03/24/1999 LAL vs. PHX L 17 7 3 6 50.0 1 2 50.0 0 0 - 0 1 1 3 1 0 1 4 -5
p222
aVRick Fox LAL 03/24/1999 LAL vs. PHX L 20 9 4 6 66.7 1 1 100.0 0 0 - 1 3 4 1 0 1 1 4 9
p223
aVShaquille O'Neal LAL 03/24/1999 LAL vs. PHX L 31 24 9 20 45.0 0 0 - 6 11 54.5 4 6 10 1 0 1 0 5 -9
p224
aVGlen Rice LAL 03/24/1999 LAL vs. PHX L 38 14 5 12 41.7 1 5 20.0 3 3 100.0 0 1 1 0 0 0 1 3 -5
p225
aVJ.R. Reid LAL 03/24/1999 LAL vs. PHX L 18 6 2 6 33.3 0 0 - 2 2 100.0 2 7 9 0 1 0 1 3 1
p226
aVDerek Fisher LAL 03/22/1999 LAL @ DAL W 27 8 3 9 33.3 0 1 0.0 2 4 50.0 1 4 5 4 1 0 1 2 11
p227
aVGlen Rice LAL 03/22/1999 LAL @ DAL W 39 17 6 14 42.9 1 4 25.0 4 4 100.0 0 3 3 3 1 0 2 3 -1
p228
aVDennis Rodman LAL 03/22/1999 LAL @ DAL W 32 1 0 0 - 0 0 - 1 2 50.0 1 16 17 1 0 1 2 3 7
p229
aVKobe Bryant LAL 03/22/1999 LAL @ DAL W 37 21 8 17 47.1 0 0 - 5 5 100.0 0 2 2 2 2 1 1 0 -1
p230
aVSean Rooks LAL 03/22/1999 LAL @ DAL W 14 4 2 5 40.0 0 0 - 0 0 - 2 0 2 0 1 0 1 2 10
p231
aVTravis Knight LAL 03/22/1999 LAL @ DAL W 14 12 6 8 75.0 0 0 - 0 0 - 0 4 4 0 1 1 1 3 -2
p232
aVShaquille O'Neal LAL 03/22/1999 LAL @ DAL W 33 25 9 15 60.0 0 0 - 7 12 58.3 4 5 9 3 0 1 2 2 -3
p233
aVDerek Harper LAL 03/22/1999 LAL @ DAL W 22 0 0 2 0.0 0 2 0.0 0 0 - 0 0 0 3 0 0 1 1 -10
p234
aVRick Fox LAL 03/22/1999 LAL @ DAL W 22 8 3 6 50.0 1 3 33.3 1 2 50.0 0 0 0 4 0 0 2 3 4
p235
aVDennis Rodman LAL 03/21/1999 LAL @ ORL W 23 4 2 2 100.0 0 0 - 0 0 - 1 5 6 2 0 0 0 3 4
p236
aVSean Rooks LAL 03/21/1999 LAL @ ORL W 3 1 0 0 - 0 0 - 1 2 50.0 0 0 0 0 0 0 0 1 -8
p237
aVDerek Harper LAL 03/21/1999 LAL @ ORL W 33 20 7 10 70.0 5 8 62.5 1 2 50.0 0 1 1 5 1 0 2 2 15
p238
aVGlen Rice LAL 03/21/1999 LAL @ ORL W 37 13 5 12 41.7 3 4 75.0 0 0 - 0 5 5 2 1 0 3 2 10
p239
aVDerek Fisher LAL 03/21/1999 LAL @ ORL W 15 0 0 2 0.0 0 1 0.0 0 0 - 1 0 1 8 1 0 0 0 -4
p240
aVRobert Horry LAL 03/21/1999 LAL @ ORL W 16 2 1 4 25.0 0 1 0.0 0 0 - 2 2 4 2 0 1 0 2 7
p241
aVRuben Patterson LAL 03/21/1999 LAL @ ORL W 8 2 1 3 33.3 0 0 - 0 0 - 1 1 2 0 0 0 2 0 6
p242
aVTravis Knight LAL 03/21/1999 LAL @ ORL W 12 0 0 0 - 0 0 - 0 0 - 0 3 3 0 0 0 2 3 -3
p243
aVKobe Bryant LAL 03/21/1999 LAL @ ORL W 45 38 15 24 62.5 2 2 100.0 6 7 85.7 0 3 3 4 2 1 4 3 15
p244
aVRick Fox LAL 03/21/1999 LAL @ ORL W 6 4 2 2 100.0 0 0 - 0 0 - 0 0 0 0 0 0 0 0 -9
p245
aVShaquille O'Neal LAL 03/21/1999 LAL @ ORL W 42 31 14 19 73.7 0 0 - 3 10 30.0 5 8 13 2 1 0 1 4 22
p246
aVGlen Rice LAL 03/19/1999 LAL @ PHI L 38 17 5 15 33.3 4 7 57.1 3 4 75.0 0 5 5 3 0 0 2 1 -16
p247
aVDerek Fisher LAL 03/19/1999 LAL @ PHI L 23 6 1 5 20.0 1 1 100.0 3 3 100.0 0 3 3 2 3 0 1 2 -5
p248
aVKobe Bryant LAL 03/19/1999 LAL @ PHI L 40 23 9 16 56.3 1 4 25.0 4 4 100.0 0 2 2 2 1 1 5 1 -21
p249
aVDerek Harper LAL 03/19/1999 LAL @ PHI L 25 0 0 6 0.0 0 5 0.0 0 0 - 0 0 0 3 0 0 2 2 -11
p250
aVTravis Knight LAL 03/19/1999 LAL @ PHI L 22 7 2 4 50.0 0 0 - 3 6 50.0 2 7 9 1 1 0 1 3 -10
p251
aVJ.R. Reid LAL 03/19/1999 LAL @ PHI L 13 6 0 1 0.0 0 0 - 6 6 100.0 0 4 4 0 0 0 2 4 -2
p252
aVRick Fox LAL 03/19/1999 LAL @ PHI L 18 4 2 6 33.3 0 2 0.0 0 0 - 0 0 0 0 1 0 1 4 5
p253
aVRobert Horry LAL 03/19/1999 LAL @ PHI L 13 2 1 3 33.3 0 1 0.0 0 1 0.0 1 3 4 1 1 2 0 3 -3
p254
aVShaquille O'Neal LAL 03/19/1999 LAL @ PHI L 30 23 8 13 61.5 0 0 - 7 12 58.3 3 1 4 2 1 0 5 6 -7
p255
aVSean Rooks LAL 03/19/1999 LAL @ PHI L 18 2 1 2 50.0 0 0 - 0 0 - 2 1 3 0 0 2 1 2 -10
p256
aVKobe Bryant LAL 03/18/1999 LAL @ CLE L 37 14 4 12 33.3 0 1 0.0 6 6 100.0 1 3 4 5 0 0 2 5 -6
p257
aVRuben Patterson LAL 03/18/1999 LAL @ CLE L 2 0 0 0 - 0 0 - 0 0 - 0 0 0 0 0 0 0 0 -4
p258
aVRobert Horry LAL 03/18/1999 LAL @ CLE L 19 0 0 3 0.0 0 1 0.0 0 0 - 1 1 2 0 2 1 2 6 4
p259
aVRick Fox LAL 03/18/1999 LAL @ CLE L 24 7 3 8 37.5 0 2 0.0 1 2 50.0 1 0 1 2 2 0 1 3 -5
p260
aVJ.R. Reid LAL 03/18/1999 LAL @ CLE L 17 2 1 2 50.0 0 0 - 0 0 - 0 3 3 1 0 0 1 0 -5
p261
aVGlen Rice LAL 03/18/1999 LAL @ CLE L 40 24 9 21 42.9 3 7 42.9 3 3 100.0 0 6 6 5 2 0 1 2 0
p262
aVSean Rooks LAL 03/18/1999 LAL @ CLE L 7 0 0 3 0.0 0 0 - 0 2 0.0 0 0 0 0 0 0 0 1 2
p263
aVDerek Fisher LAL 03/18/1999 LAL @ CLE L 21 3 1 4 25.0 0 1 0.0 1 2 50.0 0 1 1 2 1 0 0 1 0
p264
aVDerek Harper LAL 03/18/1999 LAL @ CLE L 27 2 0 2 0.0 0 1 0.0 2 2 100.0 0 0 0 4 0 0 1 3 -7
p265
aVShaquille O'Neal LAL 03/18/1999 LAL @ CLE L 41 37 16 25 64.0 0 0 - 5 7 71.4 11 8 19 4 0 5 5 5 -9
p266
aVTravis Knight LAL 03/18/1999 LAL @ CLE L 7 4 2 2 100.0 0 0 - 0 0 - 0 1 1 0 0 0 0 3 -5
p267
aVJ.R. Reid LAL 03/16/1999 LAL @ MIN W 23 4 2 5 40.0 0 0 - 0 0 - 1 3 4 3 0 0 0 2 -8
p268
aVDerek Fisher LAL 03/16/1999 LAL @ MIN W 16 7 3 7 42.9 1 2 50.0 0 0 - 1 0 1 2 0 0 1 0 -1
p269
aVDerek Harper LAL 03/16/1999 LAL @ MIN W 32 13 5 10 50.0 1 3 33.3 2 2 100.0 0 1 1 6 1 0 2 0 7
p270
aVShaquille O'Neal LAL 03/16/1999 LAL @ MIN W 37 24 7 9 77.8 0 0 - 10 18 55.6 2 6 8 4 0 1 3 3 20
p271
aVRick Fox LAL 03/16/1999 LAL @ MIN W 16 2 0 2 0.0 0 0 - 2 2 100.0 0 0 0 2 1 0 1 3 -8
p272
aVRuben Patterson LAL 03/16/1999 LAL @ MIN W 4 2 1 1 100.0 0 0 - 0 2 0.0 1 0 1 0 0 0 0 0 -2
p273
aVSean Rooks LAL 03/16/1999 LAL @ MIN W 10 5 2 5 40.0 0 0 - 1 1 100.0 2 2 4 0 0 0 0 0 -12
p274
aVKobe Bryant LAL 03/16/1999 LAL @ MIN W 39 21 6 12 50.0 1 2 50.0 8 10 80.0 2 7 9 3 0 0 0 3 16
p275
aVGlen Rice LAL 03/16/1999 LAL @ MIN W 38 22 8 17 47.1 4 10 40.0 2 2 100.0 0 4 4 2 0 1 1 2 4
p276
aVTravis Knight LAL 03/16/1999 LAL @ MIN W 25 7 2 2 100.0 0 0 - 3 3 100.0 1 5 6 1 0 0 0 5 14
p277
aVTravis Knight LAL 03/14/1999 LAL @ SAC L 30 15 7 11 63.6 0 0 - 1 2 50.0 1 3 4 1 3 0 2 4 3
p278
aVSean Rooks LAL 03/14/1999 LAL @ SAC L 9 5 2 6 33.3 0 0 - 1 3 33.3 3 0 3 0 0 0 0 1 3
p279
aVShaquille O'Neal LAL 03/14/1999 LAL @ SAC L 39 33 13 24 54.2 0 0 - 7 10 70.0 6 5 11 4 0 1 2 2 -5
p280
aVGlen Rice LAL 03/14/1999 LAL @ SAC L 29 9 4 12 33.3 1 4 25.0 0 0 - 0 4 4 3 0 0 0 2 -10
p281
aVRick Fox LAL 03/14/1999 LAL @ SAC L 17 0 0 2 0.0 0 1 0.0 0 0 - 0 2 2 1 2 0 0 5 -12
p282
aVJ.R. Reid LAL 03/14/1999 LAL @ SAC L 18 4 2 5 40.0 0 0 - 0 0 - 0 2 2 2 2 0 2 4 -5
p283
aVKobe Bryant LAL 03/14/1999 LAL @ SAC L 43 29 11 19 57.9 1 6 16.7 6 6 100.0 2 8 10 4 2 0 6 1 9
p284
aVRobert Horry LAL 03/14/1999 LAL @ SAC L 19 0 0 2 0.0 0 1 0.0 0 0 - 0 2 2 1 2 1 1 2 8
p285
aVRuben Patterson LAL 03/14/1999 LAL @ SAC L 0 0 0 0 - 0 0 - 0 0 - 0 0 0 0 0 0 0 1 -2
p286
aVDerek Fisher LAL 03/14/1999 LAL @ SAC L 37 6 3 11 27.3 0 2 0.0 0 0 - 2 3 5 7 3 0 3 3 -9
p287
aVDerek Harper LAL 03/12/1999 LAL vs. GSW W 21 2 1 3 33.3 0 0 - 0 0 - 0 0 0 3 1 0 1 0 12
p288
aVRobert Horry LAL 03/12/1999 LAL vs. GSW W 10 2 1 4 25.0 0 1 0.0 0 0 - 0 2 2 1 0 0 2 3 -6
p289
aVDerek Fisher LAL 03/12/1999 LAL vs. GSW W 23 0 0 3 0.0 0 0 - 0 0 - 0 3 3 5 2 0 1 0 5
p290
aVSean Rooks LAL 03/12/1999 LAL vs. GSW W 14 2 0 3 0.0 0 0 - 2 4 50.0 0 2 2 0 0 0 0 3 -2
p291
aVDennis Rodman LAL 03/12/1999 LAL vs. GSW W 8 0 0 0 - 0 0 - 0 0 - 1 2 3 0 0 0 1 1 3
p292
aVGlen Rice LAL 03/12/1999 LAL vs. GSW W 27 21 8 21 38.1 0 4 0.0 5 8 62.5 0 2 2 0 0 0 2 2 -1
p293
aVShaquille O'Neal LAL 03/12/1999 LAL vs. GSW W 30 20 9 14 64.3 0 0 - 2 4 50.0 4 13 17 3 0 3 1 2 19
p294
aVJ.R. Reid LAL 03/12/1999 LAL vs. GSW W 17 6 2 4 50.0 0 0 - 2 2 100.0 1 1 2 1 1 0 0 3 1
p295
aVTravis Knight LAL 03/12/1999 LAL vs. GSW W 17 8 4 7 57.1 0 0 - 0 0 - 2 3 5 1 1 0 1 4 7
p296
aVRuben Patterson LAL 03/12/1999 LAL vs. GSW W 4 0 0 0 - 0 0 - 0 0 - 0 0 0 0 0 1 0 0 -6
p297
aVKobe Bryant LAL 03/12/1999 LAL vs. GSW W 42 18 7 13 53.8 0 0 - 4 4 100.0 0 4 4 3 5 1 2 3 9
p298
aVRick Fox LAL 03/12/1999 LAL vs. GSW W 27 10 2 7 28.6 0 1 0.0 6 6 100.0 1 1 2 5 0 0 2 4 14
p299
aVDennis Rodman LAL 03/10/1999 LAL vs. LAC W 17 0 0 2 0.0 0 0 - 0 0 - 3 3 6 0 0 0 0 2 4
p300
aVKobe Bryant LAL 03/10/1999 LAL vs. LAC W 28 9 4 14 28.6 0 0 - 1 2 50.0 2 2 4 4 0 0 3 3 7
p301
aVRick Fox LAL 03/10/1999 LAL vs. LAC W 34 15 6 13 46.2 0 3 0.0 3 5 60.0 1 5 6 4 2 0 2 4 27
p302
aVTravis Knight LAL 03/10/1999 LAL vs. LAC W 15 2 1 1 100.0 0 0 - 0 0 - 0 5 5 0 0 0 2 5 -3
p303
aVDerek Fisher LAL 03/10/1999 LAL vs. LAC W 29 6 2 4 50.0 0 0 - 2 2 100.0 0 1 1 3 1 0 0 1 35
p304
aVShaquille O'Neal LAL 03/10/1999 LAL vs. LAC W 34 31 12 23 52.2 0 0 - 7 12 58.3 4 9 13 1 1 3 3 0 17
p305
aVSean Rooks LAL 03/10/1999 LAL vs. LAC W 16 5 1 4 25.0 0 0 - 3 4 75.0 3 2 5 0 1 1 2 1 4
p306
aVRuben Patterson LAL 03/10/1999 LAL vs. LAC W 18 9 3 8 37.5 0 0 - 3 4 75.0 4 2 6 0 0 0 3 1 5
p307
aVRobert Horry LAL 03/10/1999 LAL vs. LAC W 30 13 3 5 60.0 1 1 100.0 6 6 100.0 1 4 5 3 3 1 3 3 15
p308
aVDerek Harper LAL 03/10/1999 LAL vs. LAC W 19 4 2 5 40.0 0 0 - 0 0 - 0 2 2 2 1 0 2 1 -16
p309
aVTravis Knight LAL 03/09/1999 LAL @ LAC W 11 5 2 4 50.0 0 0 - 1 2 50.0 1 1 2 2 2 0 1 3 1
p310
aVRick Fox LAL 03/09/1999 LAL @ LAC W 17 2 1 5 20.0 0 1 0.0 0 0 - 1 0 1 0 0 0 0 1 13
p311
aVRobert Horry LAL 03/09/1999 LAL @ LAC W 18 2 1 2 50.0 0 1 0.0 0 0 - 0 1 1 0 1 0 2 2 -5
p312
aVShaquille O'Neal LAL 03/09/1999 LAL @ LAC W 36 31 10 20 50.0 0 0 - 11 16 68.8 4 8 12 2 0 5 6 6 8
p313
aVElden Campbell LAL 03/09/1999 LAL @ LAC W 12 11 3 7 42.9 0 0 - 5 6 83.3 3 1 4 0 0 0 1 1 -1
p314
aVKobe Bryant LAL 03/09/1999 LAL @ LAC W 28 16 4 7 57.1 0 0 - 8 10 80.0 1 1 2 5 2 0 4 4 -12
p315
aVEddie Jones LAL 03/09/1999 LAL @ LAC W 36 16 4 10 40.0 0 1 0.0 8 8 100.0 0 1 1 2 2 1 0 3 9
p316
aVDennis Rodman LAL 03/09/1999 LAL @ LAC W 36 4 2 3 66.7 0 0 - 0 4 0.0 5 15 20 1 0 2 2 5 3
p317
aVDerek Fisher LAL 03/09/1999 LAL @ LAC W 23 9 4 6 66.7 1 2 50.0 0 0 - 1 0 1 0 3 0 3 3 -3
p318
aVDerek Harper LAL 03/09/1999 LAL @ LAC W 25 7 3 7 42.9 0 1 0.0 1 2 50.0 0 2 2 1 0 0 1 1 7
p319
aVTravis Knight LAL 03/07/1999 LAL @ UTA W 6 0 0 0 - 0 0 - 0 0 - 1 2 3 0 0 1 1 4 7
p320
aVDennis Rodman LAL 03/07/1999 LAL @ UTA W 25 1 0 0 - 0 0 - 1 4 25.0 1 3 4 0 0 0 0 5 -9
p321
aVRick Fox LAL 03/07/1999 LAL @ UTA W 18 0 0 4 0.0 0 2 0.0 0 0 - 1 1 2 1 0 0 0 5 2
p322
aVElden Campbell LAL 03/07/1999 LAL @ UTA W 26 16 4 6 66.7 0 0 - 8 9 88.9 2 4 6 1 1 0 0 4 12
p323
aVEddie Jones LAL 03/07/1999 LAL @ UTA W 41 5 2 6 33.3 0 1 0.0 1 1 100.0 1 2 3 4 0 1 1 2 9
p324
aVDerek Fisher LAL 03/07/1999 LAL @ UTA W 23 20 6 8 75.0 2 3 66.7 6 7 85.7 0 3 3 1 1 0 1 2 9
p325
aVDerek Harper LAL 03/07/1999 LAL @ UTA W 25 8 2 7 28.6 2 5 40.0 2 2 100.0 0 0 0 4 0 0 0 2 -1
p326
aVRobert Horry LAL 03/07/1999 LAL @ UTA W 4 0 0 0 - 0 0 - 0 0 - 0 1 1 0 0 0 1 1 2
p327
aVKobe Bryant LAL 03/07/1999 LAL @ UTA W 38 24 7 16 43.8 0 2 0.0 10 13 76.9 2 2 4 1 0 1 5 5 5
p328
aVShaquille O'Neal LAL 03/07/1999 LAL @ UTA W 34 23 10 16 62.5 0 0 - 3 13 23.1 2 14 16 1 0 4 5 4 4
p329
aVRick Fox LAL 03/05/1999 LAL vs. SEA W 25 6 2 5 40.0 0 3 0.0 2 2 100.0 0 3 3 2 0 2 1 0 5
p330
aVShaquille O'Neal LAL 03/05/1999 LAL vs. SEA W 38 31 14 21 66.7 0 0 - 3 6 50.0 3 8 11 7 0 1 3 2 11
p331
aVElden Campbell LAL 03/05/1999 LAL vs. SEA W 10 8 3 5 60.0 0 0 - 2 6 33.3 2 3 5 0 0 0 2 2 -8
p332
aVDerek Fisher LAL 03/05/1999 LAL vs. SEA W 18 3 1 5 20.0 0 1 0.0 1 2 50.0 1 0 1 2 1 0 2 1 -6
p333
aVEddie Jones LAL 03/05/1999 LAL vs. SEA W 28 8 3 9 33.3 0 3 0.0 2 2 100.0 0 2 2 4 0 0 1 3 2
p334
aVDerek Harper LAL 03/05/1999 LAL vs. SEA W 30 17 7 14 50.0 3 7 42.9 0 0 - 1 1 2 4 1 0 1 0 9
p335
aVDennis Rodman LAL 03/05/1999 LAL vs. SEA W 26 0 0 1 0.0 0 0 - 0 0 - 2 4 6 1 0 0 0 4 -7
p336
aVTravis Knight LAL 03/05/1999 LAL vs. SEA W 22 10 4 8 50.0 0 0 - 2 2 100.0 4 7 11 3 0 0 1 2 10
p337
aVKobe Bryant LAL 03/05/1999 LAL vs. SEA W 43 20 8 15 53.3 0 0 - 4 4 100.0 2 3 5 2 1 1 2 2 -1
p338
aVTravis Knight LAL 03/03/1999 LAL vs. PHX W 13 0 0 0 - 0 0 - 0 0 - 0 4 4 1 0 1 2 1 1
p339
aVRobert Horry LAL 03/03/1999 LAL vs. PHX W 8 4 1 1 100.0 0 0 - 2 2 100.0 2 3 5 2 0 2 0 0 9
p340
aVShaquille O'Neal LAL 03/03/1999 LAL vs. PHX W 40 27 10 19 52.6 0 0 - 7 17 41.2 2 7 9 2 0 1 1 1 12
p341
aVRick Fox LAL 03/03/1999 LAL vs. PHX W 24 12 4 8 50.0 3 6 50.0 1 2 50.0 0 2 2 2 0 0 3 5 5
p342
aVSean Rooks LAL 03/03/1999 LAL vs. PHX W 6 5 2 4 50.0 0 0 - 1 2 50.0 2 1 3 0 0 0 1 3 -8
p343
aVEddie Jones LAL 03/03/1999 LAL vs. PHX W 29 11 4 11 36.4 0 2 0.0 3 6 50.0 2 1 3 2 1 0 1 4 1
p344
aVKobe Bryant LAL 03/03/1999 LAL vs. PHX W 42 32 11 19 57.9 0 0 - 10 12 83.3 0 5 5 5 2 4 4 0 4
p345
aVDennis Rodman LAL 03/03/1999 LAL vs. PHX W 30 3 0 3 0.0 0 0 - 3 6 50.0 7 10 17 0 0 2 0 3 0
p346
aVDerek Fisher LAL 03/03/1999 LAL vs. PHX W 25 2 1 5 20.0 0 1 0.0 0 1 0.0 0 2 2 5 0 0 2 4 0
p347
aVDerek Harper LAL 03/03/1999 LAL vs. PHX W 23 5 2 6 33.3 1 2 50.0 0 0 - 0 1 1 3 0 0 1 1 6
p348
aVKobe Bryant LAL 03/01/1999 LAL @ PHX W 27 10 3 11 27.3 0 1 0.0 4 5 80.0 1 3 4 2 1 1 3 5 2
p349
aVRobert Horry LAL 03/01/1999 LAL @ PHX W 3 0 0 1 0.0 0 0 - 0 0 - 1 1 2 0 0 0 2 0 -2
p350
aVEddie Jones LAL 03/01/1999 LAL @ PHX W 33 10 4 11 36.4 0 2 0.0 2 2 100.0 2 1 3 5 0 0 2 3 6
p351
aVShaquille O'Neal LAL 03/01/1999 LAL @ PHX W 35 25 12 19 63.2 0 0 - 1 5 20.0 2 7 9 3 2 1 3 3 15
p352
aVTravis Knight LAL 03/01/1999 LAL @ PHX W 18 2 1 5 20.0 0 0 - 0 0 - 2 4 6 1 2 2 0 1 -10
p353
aVRick Fox LAL 03/01/1999 LAL @ PHX W 33 15 6 14 42.9 2 7 28.6 1 1 100.0 0 2 2 5 0 0 2 1 9
p354
aVDerek Fisher LAL 03/01/1999 LAL @ PHX W 17 6 2 3 66.7 2 2 100.0 0 0 - 1 1 2 2 1 0 2 2 4
p355
aVSean Rooks LAL 03/01/1999 LAL @ PHX W 13 4 1 2 50.0 0 0 - 2 2 100.0 0 1 1 0 0 0 2 1 -10
p356
aVDennis Rodman LAL 03/01/1999 LAL @ PHX W 30 7 3 5 60.0 0 0 - 1 3 33.3 2 14 16 3 0 1 2 2 14
p357
aVDerek Harper LAL 03/01/1999 LAL @ PHX W 31 18 7 9 77.8 4 5 80.0 0 0 - 1 1 2 3 0 1 1 1 2
p358
aVDennis Rodman LAL 02/28/1999 LAL vs. HOU W 26 2 0 2 0.0 0 1 0.0 2 4 50.0 1 9 10 2 0 1 2 4 11
p359
aVShaquille O'Neal LAL 02/28/1999 LAL vs. HOU W 34 22 7 10 70.0 0 0 - 8 14 57.1 2 5 7 2 1 1 4 1 3
p360
aVEddie Jones LAL 02/28/1999 LAL vs. HOU W 34 13 6 11 54.5 0 1 0.0 1 1 100.0 1 3 4 2 3 0 0 1 5
p361
aVSean Rooks LAL 02/28/1999 LAL vs. HOU W 14 7 3 4 75.0 0 1 0.0 1 2 50.0 1 3 4 1 0 0 1 3 13
p362
aVKobe Bryant LAL 02/28/1999 LAL vs. HOU W 40 18 8 20 40.0 0 2 0.0 2 2 100.0 0 5 5 3 1 1 4 2 6
p363
aVRobert Horry LAL 02/28/1999 LAL vs. HOU W 11 2 1 1 100.0 0 0 - 0 0 - 0 1 1 2 0 1 0 3 5
p364
aVDerek Fisher LAL 02/28/1999 LAL vs. HOU W 29 9 3 8 37.5 1 3 33.3 2 2 100.0 0 2 2 3 1 0 1 3 21
p365
aVTravis Knight LAL 02/28/1999 LAL vs. HOU W 16 7 3 5 60.0 0 0 - 1 2 50.0 2 2 4 1 1 0 1 4 0
p366
aVDerek Harper LAL 02/28/1999 LAL vs. HOU W 19 5 2 5 40.0 1 1 100.0 0 0 - 1 0 1 2 0 0 1 2 -5
p367
aVRick Fox LAL 02/28/1999 LAL vs. HOU W 19 21 7 7 100.0 5 5 100.0 2 3 66.7 1 1 2 2 0 0 2 1 21
p368
aVRobert Horry LAL 02/26/1999 LAL vs. LAC W 15 3 1 2 50.0 1 1 100.0 0 0 - 0 5 5 0 0 3 1 1 3
p369
aVCorie Blount LAL 02/26/1999 LAL vs. LAC W 4 7 3 5 60.0 0 0 - 1 2 50.0 0 0 0 0 0 0 0 0 -6
p370
aVDerek Harper LAL 02/26/1999 LAL vs. LAC W 25 7 3 6 50.0 1 3 33.3 0 0 - 0 2 2 4 4 0 1 1 2
p371
aVTravis Knight LAL 02/26/1999 LAL vs. LAC W 11 3 1 2 50.0 0 0 - 1 2 50.0 3 3 6 2 0 2 1 1 2
p372
aVRick Fox LAL 02/26/1999 LAL vs. LAC W 19 9 0 3 0.0 0 2 0.0 9 11 81.8 0 1 1 2 0 1 2 3 11
p373
aVElden Campbell LAL 02/26/1999 LAL vs. LAC W 17 6 3 4 75.0 0 0 - 0 2 0.0 0 3 3 1 0 0 2 3 5
p374
aVSean Rooks LAL 02/26/1999 LAL vs. LAC W 4 4 2 2 100.0 0 0 - 0 0 - 2 0 2 1 0 0 0 2 -6
p375
aVKobe Bryant LAL 02/26/1999 LAL vs. LAC W 34 22 7 10 70.0 0 0 - 8 10 80.0 0 4 4 0 1 2 6 6 7
p376
aVDennis Rodman LAL 02/26/1999 LAL vs. LAC W 26 0 0 2 0.0 0 0 - 0 0 - 1 10 11 6 1 0 3 3 8
p377
aVShaquille O'Neal LAL 02/26/1999 LAL vs. LAC W 27 19 6 16 37.5 0 0 - 7 11 63.6 3 3 6 1 0 2 2 3 17
p378
aVEddie Jones LAL 02/26/1999 LAL vs. LAC W 34 12 5 9 55.6 0 3 0.0 2 3 66.7 0 3 3 1 1 3 4 1 25
p379
aVDerek Fisher LAL 02/26/1999 LAL vs. LAC W 23 7 1 4 25.0 0 1 0.0 5 6 83.3 0 3 3 6 3 0 3 5 12
p380
aVEddie Jones LAL 02/25/1999 LAL @ LAC W 37 17 5 11 45.5 1 4 25.0 6 8 75.0 3 5 8 6 4 1 1 1 25
p381
aVTravis Knight LAL 02/25/1999 LAL @ LAC W 18 11 5 7 71.4 0 0 - 1 1 100.0 2 2 4 0 0 1 1 3 13
p382
aVDerek Fisher LAL 02/25/1999 LAL @ LAC W 30 8 2 8 25.0 1 2 50.0 3 4 75.0 1 1 2 6 0 0 3 2 1
p383
aVRobert Horry LAL 02/25/1999 LAL @ LAC W 19 12 5 5 100.0 2 2 100.0 0 0 - 0 0 0 0 0 0 1 1 -8
p384
aVSean Rooks LAL 02/25/1999 LAL @ LAC W 6 2 1 2 50.0 0 0 - 0 0 - 1 1 2 0 0 0 1 5 -6
p385
aVKobe Bryant LAL 02/25/1999 LAL @ LAC W 25 7 2 6 33.3 0 1 0.0 3 4 75.0 1 5 6 2 1 0 2 1 6
p386
aVElden Campbell LAL 02/25/1999 LAL @ LAC W 18 14 5 10 50.0 0 0 - 4 4 100.0 2 2 4 0 0 0 0 1 3
p387
aVRick Fox LAL 02/25/1999 LAL @ LAC W 31 16 6 9 66.7 4 6 66.7 0 0 - 0 0 0 4 3 0 2 1 9
p388
aVDerek Harper LAL 02/25/1999 LAL @ LAC W 18 5 2 5 40.0 1 2 50.0 0 0 - 0 1 1 8 0 0 1 2 14
p389
aVCorie Blount LAL 02/25/1999 LAL @ LAC W 7 4 2 4 50.0 0 1 0.0 0 2 0.0 2 1 3 0 0 0 0 0 -4
p390
aVShaquille O'Neal LAL 02/25/1999 LAL @ LAC W 32 19 7 11 63.6 0 0 - 5 8 62.5 3 8 11 4 3 2 0 3 22
p391
aVSean Rooks LAL 02/23/1999 LAL @ VAN L 9 6 2 5 40.0 0 0 - 2 2 100.0 2 2 4 1 0 0 0 2 -6
p392
aVRick Fox LAL 02/23/1999 LAL @ VAN L 20 0 0 2 0.0 0 1 0.0 0 0 - 0 1 1 1 1 0 0 6 -7
p393
aVDerek Fisher LAL 02/23/1999 LAL @ VAN L 19 6 1 5 20.0 0 2 0.0 4 4 100.0 0 1 1 1 1 0 1 1 -8
p394
aVEddie Jones LAL 02/23/1999 LAL @ VAN L 40 15 6 12 50.0 2 4 50.0 1 1 100.0 0 5 5 1 4 1 0 2 -5
p395
aVShaquille O'Neal LAL 02/23/1999 LAL @ VAN L 40 26 7 13 53.8 0 0 - 12 18 66.7 3 7 10 7 2 6 2 5 7
p396
aVKobe Bryant LAL 02/23/1999 LAL @ VAN L 35 11 5 21 23.8 0 6 0.0 1 3 33.3 2 3 5 2 0 0 5 5 -7
p397
aVTravis Knight LAL 02/23/1999 LAL @ VAN L 20 8 2 4 50.0 0 0 - 4 4 100.0 1 3 4 0 0 1 3 6 0
p398
aVElden Campbell LAL 02/23/1999 LAL @ VAN L 19 2 1 5 20.0 0 0 - 0 0 - 1 5 6 0 0 0 0 4 -17
p399
aVDerek Harper LAL 02/23/1999 LAL @ VAN L 31 7 3 11 27.3 0 2 0.0 1 1 100.0 1 2 3 6 2 1 2 3 -4
p400
aVCorie Blount LAL 02/23/1999 LAL @ VAN L 8 2 1 1 100.0 0 0 - 0 0 - 0 2 2 0 0 0 0 0 -3
p401
aVCorie Blount LAL 02/22/1999 LAL @ DEN L 4 0 0 4 0.0 0 0 - 0 0 - 4 0 4 0 0 0 1 2 -13
p402
aVTravis Knight LAL 02/22/1999 LAL @ DEN L 15 4 2 3 66.7 0 0 - 0 0 - 1 2 3 3 0 1 1 5 5
p403
aVDerek Harper LAL 02/22/1999 LAL @ DEN L 40 5 2 8 25.0 1 4 25.0 0 0 - 0 6 6 4 3 0 2 2 -2
p404
aVRick Fox LAL 02/22/1999 LAL @ DEN L 19 2 1 8 12.5 0 4 0.0 0 0 - 0 0 0 1 0 0 0 2 5
p405
aVShaquille O'Neal LAL 02/22/1999 LAL @ DEN L 33 28 12 19 63.2 0 0 - 4 10 40.0 6 1 7 1 0 0 1 6 -20
p406
aVSean Rooks LAL 02/22/1999 LAL @ DEN L 12 3 1 2 50.0 0 0 - 1 2 50.0 1 4 5 1 0 1 1 3 12
p407
aVEddie Jones LAL 02/22/1999 LAL @ DEN L 43 17 7 11 63.6 2 3 66.7 1 1 100.0 0 1 1 4 0 2 2 4 -9
p408
aVDerek Fisher LAL 02/22/1999 LAL @ DEN L 13 4 2 5 40.0 0 1 0.0 0 1 0.0 2 0 2 0 0 0 2 1 -2
p409
aVElden Campbell LAL 02/22/1999 LAL @ DEN L 41 24 9 17 52.9 0 0 - 6 8 75.0 3 5 8 1 0 2 3 6 5
p410
aVKobe Bryant LAL 02/22/1999 LAL @ DEN L 46 26 8 15 53.3 1 3 33.3 9 11 81.8 1 12 13 9 1 0 4 4 -1
p411
aVCorie Blount LAL 02/21/1999 LAL @ SEA L 13 0 0 0 - 0 0 - 0 0 - 2 3 5 0 0 0 1 4 9
p412
aVElden Campbell LAL 02/21/1999 LAL @ SEA L 15 4 2 3 66.7 0 0 - 0 2 0.0 1 1 2 1 0 0 3 2 -5
p413
aVTravis Knight LAL 02/21/1999 LAL @ SEA L 25 3 1 6 16.7 0 0 - 1 1 100.0 2 5 7 0 1 1 1 4 -3
p414
aVEddie Jones LAL 02/21/1999 LAL @ SEA L 38 17 6 14 42.9 1 4 25.0 4 5 80.0 0 0 0 3 2 2 1 2 -2
p415
aVRick Fox LAL 02/21/1999 LAL @ SEA L 17 6 3 7 42.9 0 2 0.0 0 1 0.0 0 2 2 2 0 0 0 0 5
p416
aVKobe Bryant LAL 02/21/1999 LAL @ SEA L 40 23 8 20 40.0 1 6 16.7 6 6 100.0 4 9 13 2 1 0 4 5 -9
p417
aVShaquille O'Neal LAL 02/21/1999 LAL @ SEA L 39 27 11 24 45.8 0 0 - 5 9 55.6 2 8 10 2 0 1 4 4 -5
p418
aVDerek Harper LAL 02/21/1999 LAL @ SEA L 31 7 3 8 37.5 1 2 50.0 0 0 - 0 3 3 5 0 1 1 2 -8
p419
aVDerek Fisher LAL 02/21/1999 LAL @ SEA L 17 2 0 1 0.0 0 1 0.0 2 2 100.0 1 0 1 3 3 0 0 2 5
p420
aVSean Rooks LAL 02/21/1999 LAL @ SEA L 4 0 0 0 - 0 0 - 0 0 - 1 0 1 1 0 0 0 0 -2
p421
aVDerek Fisher LAL 02/19/1999 LAL vs. SAS W 23 7 2 4 50.0 2 3 66.7 1 2 50.0 0 0 0 4 0 0 1 2 -4
p422
aVRick Fox LAL 02/19/1999 LAL vs. SAS W 19 9 4 5 80.0 1 1 100.0 0 2 0.0 1 0 1 2 0 0 1 3 6
p423
aVSean Rooks LAL 02/19/1999 LAL vs. SAS W 17 6 2 3 66.7 0 0 - 2 3 66.7 2 5 7 0 0 0 0 4 2
p424
aVEddie Jones LAL 02/19/1999 LAL vs. SAS W 34 16 6 13 46.2 1 4 25.0 3 6 50.0 0 5 5 3 2 1 2 1 5
p425
aVCorie Blount LAL 02/19/1999 LAL vs. SAS W 19 1 0 3 0.0 0 0 - 1 2 50.0 1 3 4 0 0 0 0 3 -1
p426
aVDerek Harper LAL 02/19/1999 LAL vs. SAS W 25 18 8 9 88.9 0 0 - 2 2 100.0 0 3 3 6 1 0 3 2 16
p427
aVKobe Bryant LAL 02/19/1999 LAL vs. SAS W 42 21 9 19 47.4 0 0 - 3 4 75.0 1 7 8 6 1 1 3 5 12
p428
aVElden Campbell LAL 02/19/1999 LAL vs. SAS W 19 0 0 2 0.0 0 0 - 0 0 - 2 4 6 2 0 3 0 3 6
p429
aVRuben Patterson LAL 02/19/1999 LAL vs. SAS W 1 0 0 1 0.0 0 0 - 0 0 - 0 0 0 0 0 0 0 0 1
p430
aVShaquille O'Neal LAL 02/19/1999 LAL vs. SAS W 40 28 11 17 64.7 0 0 - 6 12 50.0 4 6 10 3 3 4 4 4 17
p431
aVRuben Patterson LAL 02/17/1999 LAL vs. DAL W 3 0 0 0 - 0 0 - 0 0 - 0 0 0 1 0 0 0 0 -9
p432
aVSean Rooks LAL 02/17/1999 LAL vs. DAL W 11 3 0 2 0.0 0 0 - 3 4 75.0 0 0 0 0 0 1 2 1 -14
p433
aVDerek Fisher LAL 02/17/1999 LAL vs. DAL W 27 12 5 14 35.7 2 6 33.3 0 0 - 0 5 5 6 2 1 3 0 15
p434
aVDerek Harper LAL 02/17/1999 LAL vs. DAL W 21 9 3 6 50.0 1 3 33.3 2 2 100.0 0 2 2 2 3 0 2 2 -2
p435
aVEddie Jones LAL 02/17/1999 LAL vs. DAL W 33 20 9 14 64.3 1 2 50.0 1 2 50.0 1 1 2 3 2 1 0 0 7
p436
aVElden Campbell LAL 02/17/1999 LAL vs. DAL W 17 4 1 6 16.7 0 0 - 2 4 50.0 2 5 7 0 0 0 1 2 -11
p437
aVKobe Bryant LAL 02/17/1999 LAL vs. DAL W 31 23 8 15 53.3 0 0 - 7 8 87.5 1 8 9 4 1 0 3 2 26
p438
aVRick Fox LAL 02/17/1999 LAL vs. DAL W 29 2 1 8 12.5 0 1 0.0 0 0 - 0 0 0 5 1 0 2 3 2
p439
aVTravis Knight LAL 02/17/1999 LAL vs. DAL W 20 2 1 2 50.0 0 0 - 0 0 - 0 5 5 4 1 2 1 4 23
p440
aVCorie Blount LAL 02/17/1999 LAL vs. DAL W 20 2 1 4 25.0 0 0 - 0 0 - 4 2 6 0 0 0 0 3 5
p441
aVShaquille O'Neal LAL 02/17/1999 LAL vs. DAL W 27 24 10 15 66.7 0 0 - 4 6 66.7 3 9 12 2 1 2 2 1 23
p442
aVElden Campbell LAL 02/16/1999 LAL vs. CHH W 13 2 1 6 16.7 0 0 - 0 0 - 1 3 4 0 0 1 1 1 2
p443
aVRuben Patterson LAL 02/16/1999 LAL vs. CHH W 9 3 1 2 50.0 0 0 - 1 1 100.0 0 1 1 0 0 0 1 0 2
p444
aVSean Rooks LAL 02/16/1999 LAL vs. CHH W 10 4 0 2 0.0 0 0 - 4 4 100.0 3 1 4 0 0 1 2 2 4
p445
aVDerek Fisher LAL 02/16/1999 LAL vs. CHH W 28 4 1 6 16.7 0 2 0.0 2 3 66.7 0 3 3 5 1 0 1 1 24
p446
aVKobe Bryant LAL 02/16/1999 LAL vs. CHH W 31 16 8 14 57.1 0 1 0.0 0 0 - 0 9 9 5 2 2 4 1 27
p447
aVSam Jacobson LAL 02/16/1999 LAL vs. CHH W 9 6 3 5 60.0 0 1 0.0 0 0 - 0 2 2 0 0 0 1 1 2
p448
aVDerek Harper LAL 02/16/1999 LAL vs. CHH W 20 7 3 5 60.0 1 1 100.0 0 0 - 0 0 0 5 2 0 0 1 4
p449
aVEddie Jones LAL 02/16/1999 LAL vs. CHH W 29 19 5 11 45.5 4 5 80.0 5 6 83.3 2 4 6 5 1 1 0 2 19
p450
aVCorie Blount LAL 02/16/1999 LAL vs. CHH W 19 7 2 4 50.0 0 0 - 3 3 100.0 3 1 4 0 0 1 2 4 9
p451
aVRick Fox LAL 02/16/1999 LAL vs. CHH W 24 20 7 15 46.7 0 2 0.0 6 8 75.0 3 1 4 4 2 2 0 1 10
p452
aVTravis Knight LAL 02/16/1999 LAL vs. CHH W 22 8 3 5 60.0 0 0 - 2 2 100.0 0 2 2 1 0 2 0 4 13
p453
aVShaquille O'Neal LAL 02/16/1999 LAL vs. CHH W 25 20 8 15 53.3 0 0 - 4 5 80.0 5 7 12 2 2 3 0 0 24
p454
aVElden Campbell LAL 02/14/1999 LAL vs. IND L 14 3 0 2 0.0 0 0 - 3 4 75.0 3 6 9 0 0 0 1 4 -2
p455
aVCorie Blount LAL 02/14/1999 LAL vs. IND L 18 5 2 2 100.0 0 0 - 1 1 100.0 2 1 3 2 0 0 2 1 0
p456
aVShaquille O'Neal LAL 02/14/1999 LAL vs. IND L 39 36 16 30 53.3 0 0 - 4 7 57.1 8 9 17 2 1 0 2 4 -1
p457
aVSean Rooks LAL 02/14/1999 LAL vs. IND L 0 0 0 0 - 0 0 - 0 0 - 0 0 0 1 0 0 0 0 3
p458
aVEddie Jones LAL 02/14/1999 LAL vs. IND L 36 12 4 12 33.3 1 4 25.0 3 4 75.0 0 3 3 4 0 1 0 4 4
p459
aVRick Fox LAL 02/14/1999 LAL vs. IND L 22 10 5 11 45.5 0 2 0.0 0 0 - 0 1 1 2 0 0 1 3 -2
p460
aVKobe Bryant LAL 02/14/1999 LAL vs. IND L 35 18 6 12 50.0 1 4 25.0 5 6 83.3 0 2 2 0 2 2 3 5 -6
p461
aVDerek Harper LAL 02/14/1999 LAL vs. IND L 33 5 2 6 33.3 1 1 100.0 0 0 - 1 1 2 7 2 0 4 3 0
p462
aVDerek Fisher LAL 02/14/1999 LAL vs. IND L 18 6 2 6 33.3 2 5 40.0 0 0 - 0 2 2 8 0 0 3 2 0
p463
aVTravis Knight LAL 02/14/1999 LAL vs. IND L 25 4 2 4 50.0 0 0 - 0 0 - 3 6 9 2 0 4 2 6 -6
p464
aVSean Rooks LAL 02/11/1999 LAL @ MIN L 14 4 1 4 25.0 0 0 - 2 2 100.0 0 0 0 0 0 0 1 1 -14
p465
aVDerek Fisher LAL 02/11/1999 LAL @ MIN L 22 8 2 5 40.0 1 3 33.3 3 4 75.0 0 0 0 3 0 0 3 0 2
p466
aVTyronn Lue LAL 02/11/1999 LAL @ MIN L 2 2 1 2 50.0 0 0 - 0 0 - 0 0 0 2 0 0 0 0 4
p467
aVKobe Bryant LAL 02/11/1999 LAL @ MIN L 38 24 8 21 38.1 0 3 0.0 8 9 88.9 2 8 10 2 2 1 1 1 -10
p468
aVTravis Knight LAL 02/11/1999 LAL @ MIN L 16 8 3 5 60.0 0 0 - 2 2 100.0 1 3 4 2 1 1 0 2 -8
p469
aVRuben Patterson LAL 02/11/1999 LAL @ MIN L 2 4 2 2 100.0 0 0 - 0 0 - 0 0 0 0 0 0 0 1 4
p470
aVCorie Blount LAL 02/11/1999 LAL @ MIN L 2 0 0 0 - 0 0 - 0 0 - 0 0 0 0 0 1 0 0 5
p471
aVEddie Jones LAL 02/11/1999 LAL @ MIN L 34 7 2 8 25.0 1 4 25.0 2 2 100.0 0 6 6 1 1 2 1 3 -8
p472
aVDerek Harper LAL 02/11/1999 LAL @ MIN L 24 6 2 6 33.3 2 5 40.0 0 0 - 1 2 3 5 1 0 1 1 -17
p473
aVSam Jacobson LAL 02/11/1999 LAL @ MIN L 3 2 0 0 - 0 0 - 2 2 100.0 0 1 1 0 0 0 0 1 4
p474
aVRobert Horry LAL 02/11/1999 LAL @ MIN L 30 1 0 5 0.0 0 1 0.0 1 2 50.0 5 1 6 1 0 3 0 1 -8
p475
aVRick Fox LAL 02/11/1999 LAL @ MIN L 19 4 2 7 28.6 0 2 0.0 0 0 - 0 1 1 1 0 0 0 2 -12
p476
aVElden Campbell LAL 02/11/1999 LAL @ MIN L 34 5 2 10 20.0 0 0 - 1 2 50.0 5 4 9 0 0 4 3 4 3
p477
aVRick Fox LAL 02/10/1999 LAL @ DEN W 17 2 1 5 20.0 0 3 0.0 0 0 - 0 2 2 1 1 0 2 1 -1
p478
aVShaquille O'Neal LAL 02/10/1999 LAL @ DEN W 37 29 12 20 60.0 0 0 - 5 9 55.6 4 4 8 3 1 1 3 4 2
p479
aVKobe Bryant LAL 02/10/1999 LAL @ DEN W 38 21 8 15 53.3 1 2 50.0 4 5 80.0 1 9 10 5 1 0 3 5 3
p480
aVDerek Fisher LAL 02/10/1999 LAL @ DEN W 23 2 1 2 50.0 0 1 0.0 0 0 - 0 0 0 5 0 0 2 0 3
p481
aVEddie Jones LAL 02/10/1999 LAL @ DEN W 40 21 7 14 50.0 3 4 75.0 4 6 66.7 1 4 5 2 6 4 0 1 8
p482
aVSean Rooks LAL 02/10/1999 LAL @ DEN W 4 2 1 1 100.0 0 0 - 0 0 - 0 0 0 1 0 0 1 1 -2
p483
aVRobert Horry LAL 02/10/1999 LAL @ DEN W 27 15 5 7 71.4 2 3 66.7 3 4 75.0 1 2 3 5 0 2 0 5 8
p484
aVDerek Harper LAL 02/10/1999 LAL @ DEN W 25 2 1 6 16.7 0 2 0.0 0 0 - 0 0 0 2 1 0 1 1 2
p485
aVElden Campbell LAL 02/10/1999 LAL @ DEN W 11 7 2 2 100.0 0 0 - 3 4 75.0 0 0 0 0 0 2 0 1 1
p486
aVCorie Blount LAL 02/10/1999 LAL @ DEN W 14 2 1 1 100.0 0 0 - 0 0 - 2 4 6 0 0 1 0 2 2
p487
aVTravis Knight LAL 02/10/1999 LAL @ DEN W 3 0 0 2 0.0 0 0 - 0 0 - 0 0 0 0 0 0 1 0 -1
p488
aVEddie Jones LAL 02/08/1999 LAL @ SAS W 43 21 8 18 44.4 2 5 40.0 3 7 42.9 3 3 6 3 4 0 0 1 5
p489
aVCorie Blount LAL 02/08/1999 LAL @ SAS W 9 0 0 1 0.0 0 0 - 0 0 - 0 1 1 0 0 1 0 2 0
p490
aVElden Campbell LAL 02/08/1999 LAL @ SAS W 16 0 0 1 0.0 0 0 - 0 0 - 2 4 6 1 0 2 4 2 -7
p491
aVSean Rooks LAL 02/08/1999 LAL @ SAS W 8 1 0 1 0.0 0 0 - 1 2 50.0 0 1 1 0 0 0 0 2 7
p492
aVRobert Horry LAL 02/08/1999 LAL @ SAS W 35 4 1 5 20.0 0 1 0.0 2 2 100.0 5 6 11 4 0 2 2 5 1
p493
aVDerek Harper LAL 02/08/1999 LAL @ SAS W 26 9 4 9 44.4 1 2 50.0 0 0 - 0 0 0 3 3 0 1 1 -6
p494
aVShaquille O'Neal LAL 02/08/1999 LAL @ SAS W 40 26 11 18 61.1 0 0 - 4 8 50.0 4 9 13 1 0 2 4 1 5
p495
aVKobe Bryant LAL 02/08/1999 LAL @ SAS W 42 19 8 19 42.1 1 4 25.0 2 2 100.0 2 8 10 2 2 2 4 5 9
p496
aVDerek Fisher LAL 02/08/1999 LAL @ SAS W 22 0 0 5 0.0 0 1 0.0 0 0 - 0 3 3 3 1 0 1 2 11
p497
aVCorie Blount LAL 02/07/1999 LAL vs. UTA L 13 2 1 3 33.3 0 0 - 0 2 0.0 3 2 5 0 0 0 0 4 -6
p498
aVDerek Fisher LAL 02/07/1999 LAL vs. UTA L 18 5 1 4 25.0 1 1 100.0 2 3 66.7 1 0 1 1 2 0 3 4 -4
p499
aVKobe Bryant LAL 02/07/1999 LAL vs. UTA L 41 16 7 12 58.3 0 1 0.0 2 2 100.0 2 10 12 3 0 2 5 6 -5
p500
aVSean Rooks LAL 02/07/1999 LAL vs. UTA L 0 0 0 0 - 0 0 - 0 0 - 0 0 0 0 0 0 0 0 1
p501
aVDerek Harper LAL 02/07/1999 LAL vs. UTA L 35 11 3 9 33.3 2 5 40.0 3 4 75.0 0 1 1 6 0 0 3 3 -9
p502
aVRuben Patterson LAL 02/07/1999 LAL vs. UTA L 1 0 0 0 - 0 0 - 0 0 - 0 0 0 0 0 0 0 0 2
p503
aVElden Campbell LAL 02/07/1999 LAL vs. UTA L 28 14 6 12 50.0 0 0 - 2 5 40.0 7 5 12 1 0 1 0 6 -9
p504
aVRobert Horry LAL 02/07/1999 LAL vs. UTA L 24 3 0 3 0.0 0 1 0.0 3 4 75.0 1 1 2 1 0 2 2 6 4
p505
aVEddie Jones LAL 02/07/1999 LAL vs. UTA L 39 3 1 10 10.0 0 3 0.0 1 2 50.0 1 1 2 3 1 1 2 2 -4
p506
aVShaquille O'Neal LAL 02/07/1999 LAL vs. UTA L 41 37 12 27 44.4 0 0 - 13 22 59.1 7 7 14 1 1 2 2 6 -15
p507
aVDerek Harper LAL 02/05/1999 LAL vs. HOU W 31 16 5 8 62.5 4 6 66.7 2 2 100.0 0 3 3 7 0 0 0 1 -6
p508
aVEddie Jones LAL 02/05/1999 LAL vs. HOU W 42 11 2 12 16.7 1 5 20.0 6 7 85.7 3 5 8 3 1 2 3 2 11
p509
aVTravis Knight LAL 02/05/1999 LAL vs. HOU W 17 4 2 4 50.0 0 0 - 0 0 - 1 1 2 1 0 4 1 4 -12
p510
aVKobe Bryant LAL 02/05/1999 LAL vs. HOU W 44 25 8 21 38.1 2 3 66.7 7 9 77.8 2 8 10 2 2 3 2 4 14
p511
aVCorie Blount LAL 02/05/1999 LAL vs. HOU W 13 0 0 1 0.0 0 0 - 0 0 - 1 2 3 0 1 0 0 2 11
p512
aVSean Rooks LAL 02/05/1999 LAL vs. HOU W 10 2 1 1 100.0 0 0 - 0 0 - 1 0 1 0 0 0 0 3 3
p513
aVShaquille O'Neal LAL 02/05/1999 LAL vs. HOU W 41 30 13 21 61.9 0 0 - 4 7 57.1 4 10 14 6 2 0 6 2 10
p514
aVElden Campbell LAL 02/05/1999 LAL vs. HOU W 15 6 2 3 66.7 0 0 - 2 6 33.3 2 3 5 0 0 1 1 5 4
p515
aVDerek Fisher LAL 02/05/1999 LAL vs. HOU W 23 3 1 5 20.0 1 3 33.3 0 0 - 0 1 1 3 2 0 1 2 11
p516
aVRuben Patterson LAL 02/05/1999 LAL vs. HOU W 4 2 0 0 - 0 0 - 2 2 100.0 0 0 0 0 0 0 1 0 -6
p517
a.