(lp0
VPLAYER TEAM DATE MATCHUP W/L MIN PTS FGM FGA FG% 3PM 3PA 3P% FTM FTA FT% OREB DREB REB AST STL BLK TOV PF +/-
p1
aVKarl Malone UTA 05/16/2000 UTA @ POR L 45 27 11 25 44.0 0 0 - 5 7 71.4 4 7 11 6 3 0 2 2 3
p2
aVJacque Vaughn UTA 05/16/2000 UTA @ POR L 4 0 0 1 0.0 0 0 - 0 0 - 0 1 1 2 0 0 0 0 -2
p3
aVArmen Gilliam UTA 05/16/2000 UTA @ POR L 9 4 2 5 40.0 0 0 - 0 3 0.0 1 1 2 0 1 0 0 3 -6
p4
aVJeff Hornacek UTA 05/16/2000 UTA @ POR L 39 10 4 9 44.4 0 0 - 2 2 100.0 0 3 3 2 1 0 0 5 2
p5
aVOlden Polynice UTA 05/16/2000 UTA @ POR L 41 8 3 7 42.9 0 0 - 2 3 66.7 3 7 10 1 1 2 5 4 -1
p6
aVJohn Stockton UTA 05/16/2000 UTA @ POR L 36 6 2 7 28.6 0 2 0.0 2 2 100.0 0 2 2 9 0 0 3 1 3
p7
aVScott Padgett UTA 05/16/2000 UTA @ POR L 0 0 0 0 - 0 0 - 0 0 - 0 0 0 0 0 0 0 0 0
p8
aVBryon Russell UTA 05/16/2000 UTA @ POR L 36 18 7 13 53.8 2 6 33.3 2 4 50.0 0 6 6 3 3 1 2 3 2
p9
aVHoward Eisley UTA 05/16/2000 UTA @ POR L 16 4 1 5 20.0 0 0 - 2 2 100.0 0 2 2 2 0 0 1 5 -7
p10
aVQuincy Lewis UTA 05/16/2000 UTA @ POR L 11 2 1 3 33.3 0 1 0.0 0 0 - 0 1 1 0 0 2 0 3 -4
p11
aVScott Padgett UTA 05/14/2000 UTA vs. POR W 7 0 0 1 0.0 0 1 0.0 0 0 - 0 0 0 0 1 1 0 2 -1
p12
aVBryon Russell UTA 05/14/2000 UTA vs. POR W 37 11 2 8 25.0 1 4 25.0 6 11 54.5 0 5 5 2 1 0 0 2 4
p13
aVQuincy Lewis UTA 05/14/2000 UTA vs. POR W 9 5 2 4 50.0 1 2 50.0 0 0 - 0 2 2 0 0 1 0 3 3
p14
aVArmen Gilliam UTA 05/14/2000 UTA vs. POR W 14 3 1 4 25.0 0 0 - 1 2 50.0 0 3 3 0 0 1 2 2 -3
p15
aVJohn Stockton UTA 05/14/2000 UTA vs. POR W 37 18 6 12 50.0 1 3 33.3 5 5 100.0 0 3 3 9 0 0 3 3 5
p16
aVKarl Malone UTA 05/14/2000 UTA vs. POR W 43 27 9 20 45.0 0 0 - 9 11 81.8 1 7 8 7 0 2 1 5 5
p17
aVHoward Eisley UTA 05/14/2000 UTA vs. POR W 10 0 0 0 - 0 0 - 0 0 - 1 1 2 0 1 0 2 3 -8
p18
aVOlden Polynice UTA 05/14/2000 UTA vs. POR W 38 12 6 9 66.7 0 0 - 0 0 - 6 5 11 0 2 0 0 5 4
p19
aVJacque Vaughn UTA 05/14/2000 UTA vs. POR W 6 3 1 2 50.0 0 0 - 1 2 50.0 0 1 1 2 1 0 1 1 -1
p20
aVJeff Hornacek UTA 05/14/2000 UTA vs. POR W 36 9 4 8 50.0 0 1 0.0 1 3 33.3 1 5 6 2 1 0 4 4 7
p21
aVJohn Stockton UTA 05/11/2000 UTA vs. POR L 40 4 2 8 25.0 0 4 0.0 0 0 - 1 4 5 12 1 0 4 2 -13
p22
aVHoward Eisley UTA 05/11/2000 UTA vs. POR L 12 0 0 3 0.0 0 0 - 0 0 - 0 2 2 2 0 0 2 4 -17
p23
aVKarl Malone UTA 05/11/2000 UTA vs. POR L 46 28 7 17 41.2 0 0 - 14 18 77.8 1 10 11 1 1 2 3 4 -18
p24
aVArmen Gilliam UTA 05/11/2000 UTA vs. POR L 1 2 1 3 33.3 0 0 - 0 0 - 0 0 0 0 0 0 0 0 -1
p25
aVBryon Russell UTA 05/11/2000 UTA vs. POR L 46 18 5 13 38.5 2 6 33.3 6 7 85.7 1 4 5 2 1 0 0 3 -17
p26
aVGreg Ostertag UTA 05/11/2000 UTA vs. POR L 19 0 0 1 0.0 0 0 - 0 2 0.0 3 0 3 0 0 3 0 2 -2
p27
aVJeff Hornacek UTA 05/11/2000 UTA vs. POR L 39 24 9 17 52.9 3 4 75.0 3 4 75.0 2 2 4 5 2 0 1 5 -5
p28
aVQuincy Lewis UTA 05/11/2000 UTA vs. POR L 5 0 0 0 - 0 0 - 0 0 - 0 0 0 0 0 0 1 1 -7
p29
aVOlden Polynice UTA 05/11/2000 UTA vs. POR L 27 8 4 8 50.0 0 0 - 0 0 - 4 5 9 0 0 1 1 6 -15
p30
aVOlden Polynice UTA 05/09/2000 UTA @ POR L 26 2 1 5 20.0 0 0 - 0 0 - 3 3 6 0 0 0 2 3 -17
p31
aVJeff Hornacek UTA 05/09/2000 UTA @ POR L 18 2 0 3 0.0 0 0 - 2 2 100.0 1 1 2 2 0 0 2 3 -13
p32
aVBryon Russell UTA 05/09/2000 UTA @ POR L 28 12 5 8 62.5 0 1 0.0 2 2 100.0 0 4 4 4 2 0 1 4 -16
p33
aVGreg Ostertag UTA 05/09/2000 UTA @ POR L 20 7 3 5 60.0 0 0 - 1 2 50.0 0 2 2 0 1 0 1 2 0
p34
aVArmen Gilliam UTA 05/09/2000 UTA @ POR L 12 5 2 4 50.0 0 0 - 1 2 50.0 1 2 3 0 0 0 0 1 -10
p35
aVHoward Eisley UTA 05/09/2000 UTA @ POR L 22 9 2 5 40.0 1 2 50.0 4 4 100.0 0 1 1 3 0 1 0 0 0
p36
aVJacque Vaughn UTA 05/09/2000 UTA @ POR L 15 10 4 10 40.0 0 1 0.0 2 2 100.0 1 1 2 1 0 0 1 1 1
p37
aVScott Padgett UTA 05/09/2000 UTA @ POR L 15 8 3 6 50.0 2 4 50.0 0 0 - 0 5 5 2 0 0 1 5 6
p38
aVJohn Stockton UTA 05/09/2000 UTA @ POR L 29 9 4 8 50.0 0 1 0.0 1 2 50.0 0 2 2 6 2 0 2 3 -21
p39
aVKarl Malone UTA 05/09/2000 UTA @ POR L 29 15 7 14 50.0 0 0 - 1 2 50.0 1 2 3 3 0 0 5 3 -21
p40
aVQuincy Lewis UTA 05/09/2000 UTA @ POR L 21 6 2 5 40.0 0 2 0.0 2 3 66.7 0 3 3 2 0 0 1 4 1
p41
aVOlden Polynice UTA 05/07/2000 UTA @ POR L 26 8 4 7 57.1 0 0 - 0 0 - 2 6 8 2 0 2 0 2 -14
p42
aVJeff Hornacek UTA 05/07/2000 UTA @ POR L 19 7 3 8 37.5 1 2 50.0 0 0 - 0 1 1 1 0 0 1 2 -10
p43
aVGreg Ostertag UTA 05/07/2000 UTA @ POR L 18 1 0 1 0.0 0 0 - 1 4 25.0 0 2 2 0 0 2 1 3 -3
p44
aVQuincy Lewis UTA 05/07/2000 UTA @ POR L 24 5 2 9 22.2 1 1 100.0 0 0 - 2 2 4 0 1 3 0 5 -8
p45
aVJacque Vaughn UTA 05/07/2000 UTA @ POR L 14 11 4 6 66.7 1 1 100.0 2 2 100.0 1 4 5 3 0 0 2 1 -5
p46
aVKarl Malone UTA 05/07/2000 UTA @ POR L 32 22 7 17 41.2 0 0 - 8 8 100.0 2 6 8 3 0 0 2 3 -15
p47
aVBryon Russell UTA 05/07/2000 UTA @ POR L 32 2 1 5 20.0 0 4 0.0 0 0 - 1 2 3 0 0 0 1 3 -14
p48
aVScott Padgett UTA 05/07/2000 UTA @ POR L 7 0 0 3 0.0 0 2 0.0 0 0 - 2 3 5 0 0 0 1 0 -4
p49
aVJohn Stockton UTA 05/07/2000 UTA @ POR L 23 10 3 7 42.9 0 1 0.0 4 6 66.7 0 2 2 6 0 0 2 3 -5
p50
aVHoward Eisley UTA 05/07/2000 UTA @ POR L 22 5 2 8 25.0 0 2 0.0 1 1 100.0 0 1 1 2 0 0 1 4 -11
p51
aVArmen Gilliam UTA 05/07/2000 UTA @ POR L 18 4 2 5 40.0 0 0 - 0 2 0.0 1 2 3 1 1 1 2 1 -6
p52
aVHoward Eisley UTA 05/05/2000 UTA vs. SEA W 22 5 2 6 33.3 1 3 33.3 0 0 - 0 3 3 3 1 0 1 3 4
p53
aVOlden Polynice UTA 05/05/2000 UTA vs. SEA W 31 13 6 8 75.0 0 0 - 1 3 33.3 0 6 6 0 0 1 1 4 18
p54
aVArmen Gilliam UTA 05/05/2000 UTA vs. SEA W 8 4 2 3 66.7 0 0 - 0 0 - 1 1 2 0 1 1 2 2 -8
p55
aVJohn Stockton UTA 05/05/2000 UTA vs. SEA W 40 17 6 9 66.7 1 1 100.0 4 5 80.0 2 5 7 15 1 1 3 4 8
p56
aVJeff Hornacek UTA 05/05/2000 UTA vs. SEA W 32 13 6 17 35.3 1 5 20.0 0 0 - 4 1 5 5 1 0 0 3 -6
p57
aVKarl Malone UTA 05/05/2000 UTA vs. SEA W 43 27 13 24 54.2 0 0 - 1 3 33.3 2 6 8 3 0 1 3 2 4
p58
aVScott Padgett UTA 05/05/2000 UTA vs. SEA W 6 0 0 0 - 0 0 - 0 0 - 0 1 1 1 0 0 0 1 -7
p59
aVBryon Russell UTA 05/05/2000 UTA vs. SEA W 41 16 6 14 42.9 2 6 33.3 2 2 100.0 1 5 6 3 1 2 2 3 10
p60
aVGreg Ostertag UTA 05/05/2000 UTA vs. SEA W 12 1 0 0 - 0 0 - 1 2 50.0 1 2 3 1 0 2 0 0 -8
p61
aVArmen Gilliam UTA 05/03/2000 UTA @ SEA L 13 0 0 5 0.0 0 0 - 0 0 - 0 3 3 1 0 0 2 1 -14
p62
aVScott Padgett UTA 05/03/2000 UTA @ SEA L 6 5 2 3 66.7 1 1 100.0 0 0 - 1 0 1 0 0 1 0 0 -5
p63
aVGreg Ostertag UTA 05/03/2000 UTA @ SEA L 27 3 1 3 33.3 0 0 - 1 2 50.0 5 2 7 0 0 1 2 2 -11
p64
aVBryon Russell UTA 05/03/2000 UTA @ SEA L 43 26 8 20 40.0 1 4 25.0 9 10 90.0 2 6 8 1 2 0 3 2 -7
p65
aVHoward Eisley UTA 05/03/2000 UTA @ SEA L 20 3 1 5 20.0 1 1 100.0 0 0 - 0 0 0 1 1 0 1 1 -4
p66
aVJohn Stockton UTA 05/03/2000 UTA @ SEA L 39 13 4 9 44.4 1 1 100.0 4 4 100.0 0 1 1 12 2 1 1 4 -3
p67
aVJeff Hornacek UTA 05/03/2000 UTA @ SEA L 35 16 5 12 41.7 2 5 40.0 4 4 100.0 1 2 3 2 2 0 3 3 -15
p68
aVOlden Polynice UTA 05/03/2000 UTA @ SEA L 14 4 2 3 66.7 0 0 - 0 0 - 3 3 6 0 0 0 0 3 3
p69
aVKarl Malone UTA 05/03/2000 UTA @ SEA L 39 23 9 17 52.9 0 0 - 5 6 83.3 2 12 14 3 0 1 6 3 1
p70
aVGreg Ostertag UTA 04/29/2000 UTA @ SEA L 22 7 2 3 66.7 0 0 - 3 4 75.0 4 2 6 0 1 1 2 5 2
p71
aVArmen Gilliam UTA 04/29/2000 UTA @ SEA L 21 6 3 7 42.9 0 0 - 0 0 - 1 5 6 0 0 0 2 4 -4
p72
aVBryon Russell UTA 04/29/2000 UTA @ SEA L 38 10 4 9 44.4 2 4 50.0 0 0 - 1 4 5 2 2 1 0 1 -16
p73
aVOlden Polynice UTA 04/29/2000 UTA @ SEA L 15 2 1 3 33.3 0 0 - 0 0 - 0 3 3 0 0 0 3 2 -9
p74
aVKarl Malone UTA 04/29/2000 UTA @ SEA L 36 30 12 19 63.2 1 1 100.0 5 6 83.3 1 5 6 3 0 0 4 5 -11
p75
aVJeff Hornacek UTA 04/29/2000 UTA @ SEA L 30 15 5 13 38.5 1 2 50.0 4 4 100.0 0 3 3 2 1 0 2 2 0
p76
aVHoward Eisley UTA 04/29/2000 UTA @ SEA L 18 0 0 7 0.0 0 2 0.0 0 0 - 0 3 3 2 1 0 1 3 -8
p77
aVQuincy Lewis UTA 04/29/2000 UTA @ SEA L 14 4 2 3 66.7 0 0 - 0 0 - 0 2 2 0 1 1 0 2 5
p78
aVJohn Stockton UTA 04/29/2000 UTA @ SEA L 37 4 1 8 12.5 0 1 0.0 2 4 50.0 2 1 3 13 3 0 2 4 -7
p79
aVJacque Vaughn UTA 04/29/2000 UTA @ SEA L 4 0 0 2 0.0 0 0 - 0 0 - 1 0 1 0 0 0 0 0 -7
p80
aVQuincy Lewis UTA 04/24/2000 UTA vs. SEA W 9 0 0 1 0.0 0 0 - 0 0 - 0 0 0 0 1 0 1 2 -13
p81
aVJeff Hornacek UTA 04/24/2000 UTA vs. SEA W 13 6 3 4 75.0 0 1 0.0 0 0 - 0 0 0 1 0 0 0 0 12
p82
aVHoward Eisley UTA 04/24/2000 UTA vs. SEA W 27 15 5 9 55.6 4 6 66.7 1 2 50.0 0 1 1 2 2 0 2 1 15
p83
aVGreg Ostertag UTA 04/24/2000 UTA vs. SEA W 27 4 2 3 66.7 0 0 - 0 2 0.0 2 10 12 1 0 3 2 4 -3
p84
aVBryon Russell UTA 04/24/2000 UTA vs. SEA W 34 19 7 16 43.8 2 7 28.6 3 4 75.0 1 4 5 3 3 1 1 1 31
p85
aVArmen Gilliam UTA 04/24/2000 UTA vs. SEA W 21 5 1 5 20.0 0 0 - 3 4 75.0 0 3 3 2 0 1 0 0 -2
p86
aVOlden Polynice UTA 04/24/2000 UTA vs. SEA W 20 2 1 1 100.0 0 0 - 0 0 - 0 2 2 1 0 2 0 4 14
p87
aVJohn Stockton UTA 04/24/2000 UTA vs. SEA W 29 21 9 11 81.8 2 2 100.0 1 2 50.0 0 2 2 11 2 0 4 1 25
p88
aVScott Padgett UTA 04/24/2000 UTA vs. SEA W 10 2 1 3 33.3 0 1 0.0 0 0 - 0 3 3 1 0 0 2 1 -17
p89
aVKarl Malone UTA 04/24/2000 UTA vs. SEA W 27 23 10 13 76.9 0 0 - 3 4 75.0 2 6 8 2 0 0 0 2 19
p90
aVJacque Vaughn UTA 04/24/2000 UTA vs. SEA W 18 4 1 6 16.7 0 0 - 2 2 100.0 1 1 2 3 3 1 5 2 -11
p91
aVOlden Polynice UTA 04/22/2000 UTA vs. SEA W 16 0 0 1 0.0 0 0 - 0 0 - 3 2 5 1 0 0 1 3 2
p92
aVJacque Vaughn UTA 04/22/2000 UTA vs. SEA W 4 0 0 1 0.0 0 0 - 0 0 - 0 0 0 0 0 0 0 0 -1
p93
aVJohn Stockton UTA 04/22/2000 UTA vs. SEA W 33 10 4 10 40.0 2 2 100.0 0 0 - 2 1 3 10 2 0 2 5 22
p94
aVBryon Russell UTA 04/22/2000 UTA vs. SEA W 36 8 3 8 37.5 1 3 33.3 1 1 100.0 2 3 5 1 1 0 5 5 7
p95
aVHoward Eisley UTA 04/22/2000 UTA vs. SEA W 24 10 4 7 57.1 2 3 66.7 0 0 - 0 3 3 2 0 0 2 0 -9
p96
aVJeff Hornacek UTA 04/22/2000 UTA vs. SEA W 33 13 4 11 36.4 1 2 50.0 4 5 80.0 0 3 3 11 2 0 2 1 10
p97
aVKarl Malone UTA 04/22/2000 UTA vs. SEA W 43 50 18 32 56.3 1 1 100.0 13 14 92.9 3 9 12 0 3 1 1 2 12
p98
aVGreg Ostertag UTA 04/22/2000 UTA vs. SEA W 26 7 2 3 66.7 0 0 - 3 4 75.0 4 6 10 0 0 5 0 2 7
p99
aVQuincy Lewis UTA 04/22/2000 UTA vs. SEA W 7 4 1 2 50.0 0 0 - 2 2 100.0 0 3 3 0 0 0 0 4 -3
p100
aVArmen Gilliam UTA 04/22/2000 UTA vs. SEA W 9 2 1 5 20.0 0 0 - 0 0 - 1 3 4 0 1 0 1 1 1
p101
aVScott Padgett UTA 04/22/2000 UTA vs. SEA W 3 0 0 0 - 0 0 - 0 0 - 0 2 2 1 0 0 0 1 7
p102
a.