(lp0
VPLAYER TEAM DATE MATCHUP W/L MIN PTS FGM FGA FG% 3PM 3PA 3P% FTM FTA FT% OREB DREB REB AST STL BLK TOV PF +/-
p1
aVMalik Sealy MIN 05/02/2000 MIN vs. POR L 34 10 4 11 36.4 0 0 - 2 2 100.0 1 3 4 1 1 0 2 2 -11
p2
aVBobby Jackson MIN 05/02/2000 MIN vs. POR L 15 11 3 5 60.0 1 2 50.0 4 4 100.0 0 3 3 3 1 1 0 2 13
p3
aVDean Garrett MIN 05/02/2000 MIN vs. POR L 5 1 0 0 - 0 0 - 1 2 50.0 0 1 1 0 0 0 0 2 6
p4
aVJoe Smith MIN 05/02/2000 MIN vs. POR L 15 2 1 5 20.0 0 1 0.0 0 0 - 1 0 1 0 1 0 2 3 -9
p5
aVKevin Garnett MIN 05/02/2000 MIN vs. POR L 46 17 5 20 25.0 1 2 50.0 6 6 100.0 4 6 10 9 3 0 3 1 -5
p6
aVAnthony Peeler MIN 05/02/2000 MIN vs. POR L 20 2 1 7 14.3 0 3 0.0 0 0 - 1 4 5 0 1 0 1 2 -1
p7
aVRasho Nesterovic MIN 05/02/2000 MIN vs. POR L 28 7 3 7 42.9 0 0 - 1 2 50.0 4 2 6 1 0 2 0 4 -6
p8
aVTerrell Brandon MIN 05/02/2000 MIN vs. POR L 32 13 6 14 42.9 0 1 0.0 1 1 100.0 2 4 6 4 0 0 2 5 -21
p9
aVSam Mitchell MIN 05/02/2000 MIN vs. POR L 19 8 3 5 60.0 1 2 50.0 1 1 100.0 1 0 1 0 0 0 1 1 1
p10
aVWally Szczerbiak MIN 05/02/2000 MIN vs. POR L 22 6 3 8 37.5 0 0 - 0 0 - 0 2 2 1 0 0 1 1 -7
p11
aVWally Szczerbiak MIN 04/30/2000 MIN vs. POR W 22 4 2 6 33.3 0 0 - 0 0 - 0 1 1 1 1 0 0 0 -4
p12
aVRasho Nesterovic MIN 04/30/2000 MIN vs. POR W 26 5 2 4 50.0 0 0 - 1 2 50.0 0 1 1 1 0 1 0 5 4
p13
aVKevin Garnett MIN 04/30/2000 MIN vs. POR W 43 23 11 22 50.0 1 1 100.0 0 0 - 0 13 13 10 0 0 2 3 10
p14
aVSam Mitchell MIN 04/30/2000 MIN vs. POR W 16 2 1 3 33.3 0 1 0.0 0 0 - 0 2 2 2 0 0 1 2 3
p15
aVMalik Sealy MIN 04/30/2000 MIN vs. POR W 21 9 4 6 66.7 1 1 100.0 0 2 0.0 1 2 3 0 0 0 2 3 0
p16
aVJoe Smith MIN 04/30/2000 MIN vs. POR W 28 8 3 5 60.0 0 0 - 2 2 100.0 4 1 5 0 0 1 0 5 9
p17
aVDean Garrett MIN 04/30/2000 MIN vs. POR W 5 2 1 2 50.0 0 0 - 0 0 - 0 0 0 0 0 0 0 0 -2
p18
aVAnthony Peeler MIN 04/30/2000 MIN vs. POR W 27 13 4 7 57.1 2 4 50.0 3 4 75.0 0 1 1 1 1 1 0 1 8
p19
aVTerrell Brandon MIN 04/30/2000 MIN vs. POR W 48 28 10 16 62.5 2 3 66.7 6 6 100.0 1 6 7 12 1 0 1 1 7
p20
aVDean Garrett MIN 04/26/2000 MIN @ POR L 5 0 0 0 - 0 0 - 0 0 - 1 0 1 0 0 1 0 0 3
p21
aVBobby Jackson MIN 04/26/2000 MIN @ POR L 8 2 0 1 0.0 0 1 0.0 2 2 100.0 0 1 1 1 1 0 2 2 -2
p22
aVRasho Nesterovic MIN 04/26/2000 MIN @ POR L 31 8 4 7 57.1 0 0 - 0 0 - 1 1 2 1 2 2 2 5 -3
p23
aVJoe Smith MIN 04/26/2000 MIN @ POR L 17 4 2 3 66.7 0 0 - 0 0 - 1 2 3 1 1 0 2 3 -11
p24
aVAnthony Peeler MIN 04/26/2000 MIN @ POR L 21 6 2 4 50.0 0 2 0.0 2 2 100.0 1 0 1 1 1 0 0 1 4
p25
aVKevin Garnett MIN 04/26/2000 MIN @ POR L 39 23 8 16 50.0 0 0 - 7 10 70.0 5 5 10 5 2 1 4 4 9
p26
aVWally Szczerbiak MIN 04/26/2000 MIN @ POR L 20 2 1 5 20.0 0 0 - 0 0 - 0 2 2 0 1 1 0 1 -19
p27
aVTom Hammonds MIN 04/26/2000 MIN @ POR L 2 0 0 0 - 0 0 - 0 0 - 0 0 0 0 0 0 0 0 2
p28
aVTerrell Brandon MIN 04/26/2000 MIN @ POR L 39 20 8 15 53.3 1 4 25.0 3 4 75.0 1 6 7 6 1 0 1 2 -2
p29
aVSam Mitchell MIN 04/26/2000 MIN @ POR L 22 9 3 8 37.5 1 2 50.0 2 2 100.0 0 1 1 0 0 1 1 2 3
p30
aVMalik Sealy MIN 04/26/2000 MIN @ POR L 31 8 3 12 25.0 0 1 0.0 2 2 100.0 2 4 6 4 1 0 3 4 -4
p31
aVJoe Smith MIN 04/23/2000 MIN @ POR L 17 4 2 4 50.0 0 0 - 0 0 - 1 2 3 0 1 0 0 4 5
p32
aVSam Mitchell MIN 04/23/2000 MIN @ POR L 10 4 2 2 100.0 0 0 - 0 0 - 1 2 3 0 0 0 1 0 10
p33
aVWally Szczerbiak MIN 04/23/2000 MIN @ POR L 28 12 6 11 54.5 0 3 0.0 0 0 - 2 1 3 0 1 0 0 5 -1
p34
aVTerrell Brandon MIN 04/23/2000 MIN @ POR L 42 17 8 18 44.4 1 3 33.3 0 0 - 0 3 3 12 1 0 4 3 7
p35
aVAnthony Peeler MIN 04/23/2000 MIN @ POR L 21 9 4 6 66.7 0 1 0.0 1 2 50.0 0 2 2 3 0 0 0 5 5
p36
aVMalik Sealy MIN 04/23/2000 MIN @ POR L 36 23 8 12 66.7 0 1 0.0 7 10 70.0 1 4 5 0 0 0 1 1 -13
p37
aVRasho Nesterovic MIN 04/23/2000 MIN @ POR L 37 5 2 7 28.6 0 0 - 1 2 50.0 0 4 4 3 1 2 2 6 -3
p38
aVKevin Garnett MIN 04/23/2000 MIN @ POR L 40 12 6 20 30.0 0 0 - 0 0 - 4 6 10 11 0 2 2 4 -15
p39
aVBobby Jackson MIN 04/23/2000 MIN @ POR L 5 2 1 2 50.0 0 0 - 0 0 - 0 1 1 0 0 0 0 0 -10
p40
a.