(lp0
VPLAYER TEAM DATE MATCHUP W/L MIN PTS FGM FGA FG% 3PM 3PA 3P% FTM FTA FT% OREB DREB REB AST STL BLK TOV PF +/-
p1
aVAustin Croshere IND 06/19/2000 IND @ LAL L 23 16 4 7 57.1 3 5 60.0 5 6 83.3 1 4 5 0 0 1 1 5 -4
p2
aVReggie Miller IND 06/19/2000 IND @ LAL L 40 25 8 19 42.1 2 10 20.0 7 7 100.0 0 1 1 3 1 0 2 1 3
p3
aVRik Smits IND 06/19/2000 IND @ LAL L 24 2 1 8 12.5 0 0 - 0 0 - 2 4 6 1 0 1 1 5 -4
p4
aVMark Jackson IND 06/19/2000 IND @ LAL L 40 10 3 7 42.9 2 4 50.0 2 2 100.0 0 8 8 11 1 0 1 3 -4
p5
aVDale Davis IND 06/19/2000 IND @ LAL L 35 20 8 10 80.0 0 0 - 4 6 66.7 5 9 14 3 0 3 0 4 3
p6
aVTravis Best IND 06/19/2000 IND @ LAL L 7 0 0 2 0.0 0 0 - 0 0 - 0 1 1 2 0 0 0 1 -1
p7
aVJalen Rose IND 06/19/2000 IND @ LAL L 41 29 9 20 45.0 2 3 66.7 9 11 81.8 1 0 1 3 0 0 2 3 -3
p8
aVDerrick McKey IND 06/19/2000 IND @ LAL L 14 3 1 2 50.0 1 1 100.0 0 0 - 0 1 1 0 0 1 1 4 -10
p9
aVSam Perkins IND 06/19/2000 IND @ LAL L 12 6 2 2 100.0 2 2 100.0 0 0 - 0 4 4 1 0 0 1 1 -5
p10
aVJalen Rose IND 06/16/2000 IND vs. LAL W 44 32 12 18 66.7 4 5 80.0 4 4 100.0 0 6 6 5 2 1 5 4 29
p11
aVSam Perkins IND 06/16/2000 IND vs. LAL W 29 6 2 7 28.6 2 6 33.3 0 0 - 1 6 7 1 0 0 0 3 24
p12
aVChris Mullin IND 06/16/2000 IND vs. LAL W 4 4 1 2 50.0 0 1 0.0 2 3 66.7 0 0 0 0 1 1 0 0 8
p13
aVJonathan Bender IND 06/16/2000 IND vs. LAL W 3 3 0 0 - 0 0 - 3 4 75.0 0 1 1 0 1 0 0 0 3
p14
aVDerrick McKey IND 06/16/2000 IND vs. LAL W 12 0 0 0 - 0 0 - 0 0 - 0 3 3 0 1 0 0 1 14
p15
aVZan Tabak IND 06/16/2000 IND vs. LAL W 4 2 1 1 100.0 0 0 - 0 0 - 0 0 0 0 0 0 0 3 6
p16
aVRik Smits IND 06/16/2000 IND vs. LAL W 13 12 5 7 71.4 0 0 - 2 2 100.0 1 1 2 0 0 0 0 5 3
p17
aVMark Jackson IND 06/16/2000 IND vs. LAL W 30 10 4 9 44.4 0 2 0.0 2 2 100.0 2 4 6 7 0 0 5 0 13
p18
aVAustin Croshere IND 06/16/2000 IND vs. LAL W 25 13 1 3 33.3 0 0 - 11 12 91.7 1 8 9 3 1 1 2 3 23
p19
aVTravis Best IND 06/16/2000 IND vs. LAL W 9 5 2 2 100.0 0 0 - 1 2 50.0 0 0 0 3 0 0 0 1 10
p20
aVDale Davis IND 06/16/2000 IND vs. LAL W 22 8 4 7 57.1 0 0 - 0 0 - 1 7 8 1 0 0 0 3 10
p21
aVReggie Miller IND 06/16/2000 IND vs. LAL W 38 25 7 12 58.3 4 6 66.7 7 7 100.0 0 4 4 6 1 1 2 1 22
p22
aVDale Davis IND 06/14/2000 IND vs. LAL L 28 4 2 4 50.0 0 0 - 0 2 0.0 2 6 8 0 1 0 0 6 -4
p23
aVReggie Miller IND 06/14/2000 IND vs. LAL L 50 35 9 19 47.4 6 9 66.7 11 12 91.7 0 5 5 3 1 1 1 1 -2
p24
aVTravis Best IND 06/14/2000 IND vs. LAL L 20 10 5 9 55.6 0 1 0.0 0 0 - 2 0 2 4 0 0 2 2 -6
p25
aVDerrick McKey IND 06/14/2000 IND vs. LAL L 22 4 2 2 100.0 0 0 - 0 0 - 3 2 5 0 1 0 1 2 -2
p26
aVSam Perkins IND 06/14/2000 IND vs. LAL L 22 10 3 6 50.0 3 5 60.0 1 2 50.0 0 4 4 2 0 0 1 5 0
p27
aVAustin Croshere IND 06/14/2000 IND vs. LAL L 19 10 3 6 50.0 0 1 0.0 4 4 100.0 1 6 7 1 0 0 1 3 1
p28
aVJalen Rose IND 06/14/2000 IND vs. LAL L 44 14 5 16 31.3 0 0 - 4 4 100.0 0 3 3 5 1 0 3 3 1
p29
aVRik Smits IND 06/14/2000 IND vs. LAL L 21 24 11 14 78.6 0 0 - 2 2 100.0 1 2 3 0 1 2 2 4 -1
p30
aVMark Jackson IND 06/14/2000 IND vs. LAL L 32 7 2 8 25.0 1 3 33.3 2 2 100.0 0 2 2 7 0 0 1 2 4
p31
aVChris Mullin IND 06/14/2000 IND vs. LAL L 2 0 0 0 - 0 0 - 0 0 - 0 0 0 0 0 0 0 0 -1
p32
aVTravis Best IND 06/11/2000 IND vs. LAL W 20 14 5 7 71.4 2 2 100.0 2 2 100.0 1 0 1 2 2 0 1 2 -4
p33
aVMark Jackson IND 06/11/2000 IND vs. LAL W 27 6 2 5 40.0 1 1 100.0 1 2 50.0 0 2 2 6 2 0 3 1 11
p34
aVDale Davis IND 06/11/2000 IND vs. LAL W 27 2 1 5 20.0 0 0 - 0 0 - 4 8 12 1 0 0 0 6 9
p35
aVRik Smits IND 06/11/2000 IND vs. LAL W 18 6 3 11 27.3 0 0 - 0 0 - 3 3 6 0 1 2 1 4 11
p36
aVJalen Rose IND 06/11/2000 IND vs. LAL W 45 21 9 18 50.0 0 4 0.0 3 3 100.0 0 6 6 2 1 0 2 2 9
p37
aVAustin Croshere IND 06/11/2000 IND vs. LAL W 26 12 4 6 66.7 1 1 100.0 3 4 75.0 0 3 3 0 0 1 0 1 -1
p38
aVSam Perkins IND 06/11/2000 IND vs. LAL W 22 3 1 4 25.0 1 3 33.3 0 0 - 0 4 4 1 1 0 1 2 -1
p39
aVDerrick McKey IND 06/11/2000 IND vs. LAL W 5 3 0 0 - 0 0 - 3 4 75.0 1 2 3 0 0 0 1 1 0
p40
aVReggie Miller IND 06/11/2000 IND vs. LAL W 45 33 11 22 50.0 2 7 28.6 9 9 100.0 0 2 2 2 1 0 3 0 11
p41
aVReggie Miller IND 06/09/2000 IND @ LAL L 36 21 7 16 43.8 1 5 20.0 6 6 100.0 0 2 2 4 0 0 0 4 -2
p42
aVJalen Rose IND 06/09/2000 IND @ LAL L 48 30 10 23 43.5 0 1 0.0 10 14 71.4 1 8 9 1 1 1 2 3 -7
p43
aVAustin Croshere IND 06/09/2000 IND @ LAL L 25 24 6 15 40.0 0 2 0.0 12 12 100.0 4 2 6 1 1 2 0 4 -6
p44
aVTravis Best IND 06/09/2000 IND @ LAL L 19 2 0 3 0.0 0 1 0.0 2 2 100.0 0 1 1 0 0 0 0 1 -5
p45
aVDerrick McKey IND 06/09/2000 IND @ LAL L 5 1 0 1 0.0 0 0 - 1 2 50.0 2 1 3 1 0 0 1 2 -3
p46
aVMark Jackson IND 06/09/2000 IND @ LAL L 28 7 2 9 22.2 2 7 28.6 1 2 50.0 0 9 9 8 2 0 1 4 -2
p47
aVRik Smits IND 06/09/2000 IND @ LAL L 15 4 2 6 33.3 0 0 - 0 0 - 1 1 2 2 0 0 0 5 6
p48
aVDale Davis IND 06/09/2000 IND @ LAL L 34 9 4 9 44.4 0 0 - 1 1 100.0 4 6 10 1 0 2 0 6 -2
p49
aVSam Perkins IND 06/09/2000 IND @ LAL L 24 6 2 5 40.0 2 4 50.0 0 0 - 0 3 3 1 1 0 0 6 -11
p50
aVZan Tabak IND 06/09/2000 IND @ LAL L 2 0 0 1 0.0 0 0 - 0 0 - 1 0 1 0 0 0 0 3 -3
p51
aVDale Davis IND 06/07/2000 IND @ LAL L 27 9 4 5 80.0 0 0 - 1 2 50.0 3 5 8 0 1 1 0 3 -12
p52
aVReggie Miller IND 06/07/2000 IND @ LAL L 40 7 1 16 6.3 0 3 0.0 5 5 100.0 0 2 2 4 1 0 0 1 -9
p53
aVJonathan Bender IND 06/07/2000 IND @ LAL L 1 4 2 3 66.7 0 0 - 0 0 - 0 0 0 0 0 0 0 0 2
p54
aVZan Tabak IND 06/07/2000 IND @ LAL L 2 0 0 0 - 0 0 - 0 0 - 0 0 0 0 0 0 0 0 0
p55
aVMark Jackson IND 06/07/2000 IND @ LAL L 28 18 6 8 75.0 2 3 66.7 4 5 80.0 1 4 5 7 0 0 0 3 -11
p56
aVTravis Best IND 06/07/2000 IND @ LAL L 19 4 2 7 28.6 0 0 - 0 0 - 1 1 2 2 2 1 1 0 -6
p57
aVChris Mullin IND 06/07/2000 IND @ LAL L 4 0 0 0 - 0 0 - 0 0 - 0 0 0 1 0 0 1 0 -5
p58
aVSam Perkins IND 06/07/2000 IND @ LAL L 21 5 1 5 20.0 1 3 33.3 2 2 100.0 0 2 2 0 1 0 1 3 0
p59
aVAustin Croshere IND 06/07/2000 IND @ LAL L 25 16 6 7 85.7 0 1 0.0 4 7 57.1 1 5 6 0 0 1 3 3 -11
p60
aVRik Smits IND 06/07/2000 IND @ LAL L 20 12 5 12 41.7 0 0 - 2 2 100.0 0 5 5 0 1 2 4 6 -11
p61
aVDerrick McKey IND 06/07/2000 IND @ LAL L 12 0 0 1 0.0 0 1 0.0 0 0 - 0 4 4 0 0 0 1 0 -3
p62
aVJalen Rose IND 06/07/2000 IND @ LAL L 36 12 5 12 41.7 2 3 66.7 0 0 - 0 2 2 2 0 0 3 4 -19
p63
aVAustin Croshere IND 06/02/2000 IND @ NYK W 16 6 1 6 16.7 0 1 0.0 4 4 100.0 0 6 6 0 0 0 0 1 5
p64
aVJalen Rose IND 06/02/2000 IND @ NYK W 34 11 5 15 33.3 1 6 16.7 0 2 0.0 1 3 4 3 0 0 2 2 9
p65
aVJonathan Bender IND 06/02/2000 IND @ NYK W 0 0 0 0 - 0 0 - 0 0 - 0 0 0 0 0 0 0 0 0
p66
aVSam Perkins IND 06/02/2000 IND @ NYK W 29 6 2 8 25.0 0 3 0.0 2 2 100.0 0 4 4 0 0 0 0 4 14
p67
aVMark Jackson IND 06/02/2000 IND @ NYK W 25 9 3 7 42.9 1 4 25.0 2 2 100.0 0 1 1 4 3 0 1 1 -2
p68
aVDerrick McKey IND 06/02/2000 IND @ NYK W 18 4 0 1 0.0 0 0 - 4 4 100.0 0 1 1 0 0 0 1 2 11
p69
aVTravis Best IND 06/02/2000 IND @ NYK W 22 10 3 5 60.0 0 1 0.0 4 4 100.0 0 2 2 4 0 0 2 3 15
p70
aVDale Davis IND 06/02/2000 IND @ NYK W 35 9 4 9 44.4 0 0 - 1 2 50.0 6 10 16 1 0 1 3 2 11
p71
aVReggie Miller IND 06/02/2000 IND @ NYK W 44 34 10 19 52.6 5 7 71.4 9 9 100.0 0 5 5 1 4 1 1 2 9
p72
aVRik Smits IND 06/02/2000 IND @ NYK W 13 4 1 4 25.0 0 0 - 2 2 100.0 1 2 3 1 1 0 1 5 -7
p73
aVMark Jackson IND 05/31/2000 IND vs. NYK W 21 11 4 10 40.0 1 3 33.3 2 2 100.0 1 0 1 7 1 0 0 1 -6
p74
aVTravis Best IND 05/31/2000 IND vs. NYK W 26 24 7 11 63.6 2 3 66.7 8 10 80.0 1 5 6 3 0 1 0 1 15
p75
aVAustin Croshere IND 05/31/2000 IND vs. NYK W 16 2 1 5 20.0 0 1 0.0 0 0 - 0 4 4 0 0 2 2 1 8
p76
aVReggie Miller IND 05/31/2000 IND vs. NYK W 43 16 6 16 37.5 2 9 22.2 2 2 100.0 1 3 4 1 2 0 1 2 10
p77
aVSam Perkins IND 05/31/2000 IND vs. NYK W 23 7 2 8 25.0 2 5 40.0 1 2 50.0 1 3 4 0 0 0 0 1 25
p78
aVJalen Rose IND 05/31/2000 IND vs. NYK W 41 18 5 15 33.3 3 5 60.0 5 5 100.0 0 7 7 2 0 2 3 5 0
p79
aVRik Smits IND 05/31/2000 IND vs. NYK W 11 0 0 6 0.0 0 0 - 0 0 - 2 2 4 1 1 0 0 4 -13
p80
aVDale Davis IND 05/31/2000 IND vs. NYK W 33 10 4 7 57.1 0 0 - 2 4 50.0 3 3 6 1 1 1 0 2 -3
p81
aVDerrick McKey IND 05/31/2000 IND vs. NYK W 21 0 0 1 0.0 0 0 - 0 0 - 4 5 9 2 1 0 1 1 9
p82
aVJalen Rose IND 05/29/2000 IND @ NYK L 45 18 8 18 44.4 1 2 50.0 1 2 50.0 1 2 3 5 1 0 0 3 -2
p83
aVDerrick McKey IND 05/29/2000 IND @ NYK L 4 0 0 0 - 0 0 - 0 0 - 0 1 1 0 0 0 2 0 -3
p84
aVTravis Best IND 05/29/2000 IND @ NYK L 23 12 4 8 50.0 2 2 100.0 2 2 100.0 2 3 5 4 0 0 0 4 7
p85
aVAustin Croshere IND 05/29/2000 IND @ NYK L 16 4 2 3 66.7 0 0 - 0 0 - 2 2 4 0 2 1 1 1 6
p86
aVDale Davis IND 05/29/2000 IND @ NYK L 35 10 5 9 55.6 0 0 - 0 0 - 3 8 11 0 1 1 2 3 -3
p87
aVRik Smits IND 05/29/2000 IND @ NYK L 31 13 6 10 60.0 0 0 - 1 1 100.0 1 0 1 1 2 0 1 4 -13
p88
aVReggie Miller IND 05/29/2000 IND @ NYK L 46 24 9 23 39.1 5 13 38.5 1 1 100.0 0 0 0 1 1 0 2 2 3
p89
aVSam Perkins IND 05/29/2000 IND @ NYK L 11 0 0 2 0.0 0 1 0.0 0 0 - 0 2 2 1 0 0 0 1 2
p90
aVMark Jackson IND 05/29/2000 IND @ NYK L 24 8 2 6 33.3 0 1 0.0 4 4 100.0 1 4 5 7 0 0 3 1 -7
p91
aVDale Davis IND 05/27/2000 IND @ NYK L 33 10 5 6 83.3 0 0 - 0 0 - 2 14 16 1 0 1 1 3 -9
p92
aVAustin Croshere IND 05/27/2000 IND @ NYK L 12 3 1 1 100.0 1 1 100.0 0 0 - 0 2 2 0 0 0 0 4 11
p93
aVSam Perkins IND 05/27/2000 IND @ NYK L 9 0 0 1 0.0 0 0 - 0 0 - 0 2 2 0 0 0 0 1 4
p94
aVJalen Rose IND 05/27/2000 IND @ NYK L 40 26 8 16 50.0 1 3 33.3 9 11 81.8 0 1 1 6 0 0 2 3 -3
p95
aVTravis Best IND 05/27/2000 IND @ NYK L 19 9 3 7 42.9 1 2 50.0 2 2 100.0 1 2 3 1 1 0 4 3 5
p96
aVDerrick McKey IND 05/27/2000 IND @ NYK L 16 0 0 1 0.0 0 1 0.0 0 0 - 0 4 4 2 0 0 2 1 -2
p97
aVMark Jackson IND 05/27/2000 IND @ NYK L 30 3 1 6 16.7 1 5 20.0 0 0 - 0 1 1 6 0 0 3 1 0
p98
aVRik Smits IND 05/27/2000 IND @ NYK L 40 25 12 20 60.0 0 0 - 1 1 100.0 1 2 3 2 0 2 1 2 -12
p99
aVReggie Miller IND 05/27/2000 IND @ NYK L 37 19 6 12 50.0 3 4 75.0 4 4 100.0 0 1 1 1 1 0 2 1 -9
p100
aVReggie Miller IND 05/25/2000 IND vs. NYK W 36 19 6 15 40.0 1 4 25.0 6 8 75.0 1 0 1 0 0 1 0 2 1
p101
aVMark Jackson IND 05/25/2000 IND vs. NYK W 28 11 4 8 50.0 1 4 25.0 2 2 100.0 1 6 7 5 1 0 1 3 -1
p102
aVAustin Croshere IND 05/25/2000 IND vs. NYK W 22 5 0 8 0.0 0 4 0.0 5 6 83.3 2 3 5 1 1 2 0 1 -2
p103
aVRik Smits IND 05/25/2000 IND vs. NYK W 23 12 5 13 38.5 0 0 - 2 4 50.0 2 2 4 1 0 1 1 5 1
p104
aVTravis Best IND 05/25/2000 IND vs. NYK W 19 5 2 5 40.0 1 1 100.0 0 0 - 1 4 5 3 0 0 3 2 5
p105
aVDale Davis IND 05/25/2000 IND vs. NYK W 31 3 1 4 25.0 0 0 - 1 4 25.0 5 11 16 1 0 0 0 3 1
p106
aVJalen Rose IND 05/25/2000 IND vs. NYK W 48 24 7 19 36.8 0 4 0.0 10 12 83.3 0 4 4 3 0 0 2 1 4
p107
aVSam Perkins IND 05/25/2000 IND vs. NYK W 17 7 2 2 100.0 1 1 100.0 2 2 100.0 2 2 4 0 0 0 0 1 4
p108
aVDerrick McKey IND 05/25/2000 IND vs. NYK W 12 2 1 3 33.3 0 0 - 0 0 - 1 2 3 0 1 0 1 2 7
p109
aVJonathan Bender IND 05/23/2000 IND vs. NYK W 0 0 0 0 - 0 0 - 0 0 - 0 0 0 0 0 0 0 0 0
p110
aVRik Smits IND 05/23/2000 IND vs. NYK W 19 16 7 10 70.0 0 0 - 2 2 100.0 1 4 5 1 0 1 2 4 5
p111
aVJalen Rose IND 05/23/2000 IND vs. NYK W 41 17 7 19 36.8 1 2 50.0 2 2 100.0 0 6 6 6 0 2 1 4 7
p112
aVSam Perkins IND 05/23/2000 IND vs. NYK W 7 3 1 1 100.0 1 1 100.0 0 0 - 0 3 3 0 0 0 0 1 0
p113
aVReggie Miller IND 05/23/2000 IND vs. NYK W 41 19 8 20 40.0 1 2 50.0 2 2 100.0 1 1 2 7 0 2 0 2 16
p114
aVMark Jackson IND 05/23/2000 IND vs. NYK W 32 11 3 7 42.9 3 4 75.0 2 2 100.0 0 4 4 13 2 0 2 4 16
p115
aVAustin Croshere IND 05/23/2000 IND vs. NYK W 28 22 7 10 70.0 4 5 80.0 4 4 100.0 1 3 4 0 0 1 2 2 0
p116
aVDerrick McKey IND 05/23/2000 IND vs. NYK W 9 0 0 1 0.0 0 1 0.0 0 0 - 1 2 3 2 0 1 0 0 5
p117
aVTravis Best IND 05/23/2000 IND vs. NYK W 15 0 0 2 0.0 0 0 - 0 0 - 0 0 0 2 1 0 2 1 -2
p118
aVZan Tabak IND 05/23/2000 IND vs. NYK W 0 0 0 0 - 0 0 - 0 0 - 0 0 0 0 0 0 0 0 0
p119
aVDale Davis IND 05/23/2000 IND vs. NYK W 42 14 7 13 53.8 0 0 - 0 0 - 4 12 16 1 1 2 0 3 23
p120
aVReggie Miller IND 05/19/2000 IND @ PHI W 43 25 10 19 52.6 3 8 37.5 2 2 100.0 1 5 6 3 0 1 1 2 23
p121
aVDale Davis IND 05/19/2000 IND @ PHI W 29 9 3 4 75.0 0 0 - 3 4 75.0 4 7 11 1 1 5 1 3 14
p122
aVZan Tabak IND 05/19/2000 IND @ PHI W 2 0 0 0 - 0 0 - 0 0 - 0 0 0 0 0 0 0 0 -2
p123
aVAustin Croshere IND 05/19/2000 IND @ PHI W 18 6 1 7 14.3 0 1 0.0 4 4 100.0 0 1 1 1 0 0 2 1 2
p124
aVJalen Rose IND 05/19/2000 IND @ PHI W 42 21 7 16 43.8 2 3 66.7 5 6 83.3 0 3 3 3 1 0 3 2 15
p125
aVDerrick McKey IND 05/19/2000 IND @ PHI W 8 3 1 1 100.0 0 0 - 1 2 50.0 2 2 4 1 0 0 0 1 -4
p126
aVRik Smits IND 05/19/2000 IND @ PHI W 27 18 7 10 70.0 0 0 - 4 4 100.0 1 8 9 2 0 2 1 3 13
p127
aVSam Perkins IND 05/19/2000 IND @ PHI W 18 3 1 4 25.0 1 3 33.3 0 0 - 1 2 3 0 0 1 0 2 5
p128
aVJonathan Bender IND 05/19/2000 IND @ PHI W 1 3 1 1 100.0 1 1 100.0 0 2 0.0 0 1 1 0 0 0 0 0 -2
p129
aVTravis Best IND 05/19/2000 IND @ PHI W 17 6 2 4 50.0 0 0 - 2 2 100.0 0 2 2 3 1 0 0 4 2
p130
aVMark Jackson IND 05/19/2000 IND @ PHI W 30 12 6 10 60.0 0 1 0.0 0 0 - 1 5 6 11 2 0 5 2 14
p131
aVRik Smits IND 05/15/2000 IND vs. PHI L 26 15 5 14 35.7 0 0 - 5 6 83.3 1 0 1 1 0 2 1 2 -17
p132
aVChris Mullin IND 05/15/2000 IND vs. PHI L 30 13 5 9 55.6 0 3 0.0 3 4 75.0 1 3 4 0 1 0 1 4 -10
p133
aVJalen Rose IND 05/15/2000 IND vs. PHI L 47 13 4 15 26.7 0 0 - 5 5 100.0 1 5 6 6 2 1 5 5 -20
p134
aVAustin Croshere IND 05/15/2000 IND vs. PHI L 18 9 4 11 36.4 1 3 33.3 0 0 - 1 0 1 0 0 1 0 3 -5
p135
aVDale Davis IND 05/15/2000 IND vs. PHI L 30 7 3 5 60.0 0 0 - 1 2 50.0 3 5 8 0 0 3 1 3 -16
p136
aVMark Jackson IND 05/15/2000 IND vs. PHI L 28 12 6 12 50.0 0 3 0.0 0 0 - 0 5 5 6 1 0 1 2 -16
p137
aVDerrick McKey IND 05/15/2000 IND vs. PHI L 22 0 0 2 0.0 0 0 - 0 0 - 1 2 3 0 1 0 2 2 -6
p138
aVTravis Best IND 05/15/2000 IND vs. PHI L 20 11 5 9 55.6 0 1 0.0 1 3 33.3 1 3 4 4 4 0 3 5 -6
p139
aVSam Perkins IND 05/15/2000 IND vs. PHI L 16 6 2 7 28.6 2 6 33.3 0 0 - 1 1 2 0 0 0 0 0 -9
p140
aVJalen Rose IND 05/13/2000 IND @ PHI L 43 16 5 18 27.8 2 5 40.0 4 6 66.7 1 4 5 2 1 1 0 4 -8
p141
aVRik Smits IND 05/13/2000 IND @ PHI L 26 20 6 10 60.0 0 0 - 8 8 100.0 2 4 6 2 0 0 3 2 3
p142
aVChris Mullin IND 05/13/2000 IND @ PHI L 19 8 3 6 50.0 2 3 66.7 0 0 - 0 4 4 1 2 0 1 2 16
p143
aVSam Perkins IND 05/13/2000 IND @ PHI L 17 2 1 7 14.3 0 5 0.0 0 0 - 0 1 1 1 0 1 0 4 5
p144
aVDale Davis IND 05/13/2000 IND @ PHI L 27 6 3 5 60.0 0 0 - 0 0 - 2 9 11 1 0 1 1 3 -14
p145
aVDerrick McKey IND 05/13/2000 IND @ PHI L 26 2 0 1 0.0 0 1 0.0 2 2 100.0 1 1 2 0 0 0 0 5 3
p146
aVMark Jackson IND 05/13/2000 IND @ PHI L 24 7 3 9 33.3 0 3 0.0 1 1 100.0 0 2 2 7 1 0 1 1 -6
p147
aVReggie Miller IND 05/13/2000 IND @ PHI L 29 16 5 10 50.0 2 5 40.0 4 4 100.0 1 1 2 4 1 0 1 1 -11
p148
aVAustin Croshere IND 05/13/2000 IND @ PHI L 2 2 0 0 - 0 0 - 2 4 50.0 1 0 1 0 0 0 0 1 -2
p149
aVTravis Best IND 05/13/2000 IND @ PHI L 23 11 5 14 35.7 1 3 33.3 0 0 - 1 2 3 1 1 1 2 3 4
p150
aVChris Mullin IND 05/10/2000 IND @ PHI W 4 2 1 2 50.0 0 0 - 0 0 - 0 0 0 0 0 0 0 1 -9
p151
aVDale Davis IND 05/10/2000 IND @ PHI W 37 10 3 5 60.0 0 0 - 4 6 66.7 5 12 17 1 3 2 3 5 3
p152
aVReggie Miller IND 05/10/2000 IND @ PHI W 45 29 11 22 50.0 4 8 50.0 3 3 100.0 0 1 1 3 1 0 2 2 15
p153
aVRik Smits IND 05/10/2000 IND @ PHI W 13 6 3 5 60.0 0 0 - 0 0 - 1 0 1 0 0 1 2 5 -3
p154
aVJalen Rose IND 05/10/2000 IND @ PHI W 38 12 5 15 33.3 2 6 33.3 0 0 - 2 4 6 4 2 0 0 2 10
p155
aVSam Perkins IND 05/10/2000 IND @ PHI W 32 10 3 9 33.3 2 5 40.0 2 2 100.0 1 3 4 1 0 2 1 3 13
p156
aVTravis Best IND 05/10/2000 IND @ PHI W 24 19 8 13 61.5 0 0 - 3 4 75.0 1 3 4 6 2 0 0 1 13
p157
aVAustin Croshere IND 05/10/2000 IND @ PHI W 1 0 0 1 0.0 0 0 - 0 0 - 0 0 0 0 0 0 0 0 0
p158
aVMark Jackson IND 05/10/2000 IND @ PHI W 24 9 4 6 66.7 1 1 100.0 0 0 - 1 2 3 8 1 0 3 2 -5
p159
aVDerrick McKey IND 05/10/2000 IND @ PHI W 17 0 0 0 - 0 0 - 0 0 - 0 4 4 1 0 0 1 5 3
p160
aVReggie Miller IND 05/08/2000 IND vs. PHI W 39 19 7 16 43.8 1 5 20.0 4 4 100.0 0 2 2 6 1 0 1 1 4
p161
aVDale Davis IND 05/08/2000 IND vs. PHI W 16 2 1 3 33.3 0 0 - 0 0 - 1 5 6 0 0 0 2 6 4
p162
aVJalen Rose IND 05/08/2000 IND vs. PHI W 46 30 9 19 47.4 1 4 25.0 11 13 84.6 2 5 7 1 1 0 3 4 0
p163
aVMark Jackson IND 05/08/2000 IND vs. PHI W 31 7 3 10 30.0 1 4 25.0 0 0 - 0 2 2 14 1 1 3 3 16
p164
aVAustin Croshere IND 05/08/2000 IND vs. PHI W 33 20 6 9 66.7 4 4 100.0 4 6 66.7 2 4 6 1 0 1 3 3 4
p165
aVSam Perkins IND 05/08/2000 IND vs. PHI W 17 3 1 3 33.3 1 3 33.3 0 0 - 0 2 2 1 0 1 0 1 -1
p166
aVTravis Best IND 05/08/2000 IND vs. PHI W 10 4 2 5 40.0 0 0 - 0 0 - 0 3 3 4 0 0 0 4 -5
p167
aVRik Smits IND 05/08/2000 IND vs. PHI W 19 14 7 9 77.8 0 1 0.0 0 0 - 0 4 4 0 1 1 0 4 9
p168
aVDerrick McKey IND 05/08/2000 IND vs. PHI W 21 4 1 2 50.0 0 0 - 2 2 100.0 3 2 5 1 1 1 1 3 2
p169
aVZan Tabak IND 05/08/2000 IND vs. PHI W 1 0 0 0 - 0 0 - 0 0 - 0 1 1 0 0 0 1 1 -3
p170
aVZan Tabak IND 05/06/2000 IND vs. PHI W 3 0 0 0 - 0 0 - 0 0 - 0 2 2 0 0 0 0 1 2
p171
aVRik Smits IND 05/06/2000 IND vs. PHI W 13 4 2 4 50.0 0 0 - 0 0 - 0 3 3 3 0 0 0 4 4
p172
aVDerrick McKey IND 05/06/2000 IND vs. PHI W 17 7 3 3 100.0 0 0 - 1 2 50.0 1 3 4 2 0 0 0 3 2
p173
aVDale Davis IND 05/06/2000 IND vs. PHI W 25 0 0 3 0.0 0 0 - 0 0 - 2 6 8 1 0 3 0 5 12
p174
aVAustin Croshere IND 05/06/2000 IND vs. PHI W 34 11 4 13 30.8 1 3 33.3 2 2 100.0 3 8 11 5 2 2 2 0 13
p175
aVMark Jackson IND 05/06/2000 IND vs. PHI W 23 0 0 7 0.0 0 2 0.0 0 0 - 1 3 4 10 0 1 0 2 9
p176
aVTravis Best IND 05/06/2000 IND vs. PHI W 24 2 1 4 25.0 0 0 - 0 0 - 0 2 2 3 3 0 1 6 8
p177
aVJalen Rose IND 05/06/2000 IND vs. PHI W 45 40 16 23 69.6 3 5 60.0 5 5 100.0 0 2 2 3 0 1 2 0 12
p178
aVSam Perkins IND 05/06/2000 IND vs. PHI W 8 2 1 3 33.3 0 1 0.0 0 0 - 0 0 0 0 0 0 0 1 -1
p179
aVJonathan Bender IND 05/06/2000 IND vs. PHI W 2 2 1 1 100.0 0 0 - 0 0 - 0 0 0 0 0 0 0 1 -3
p180
aVReggie Miller IND 05/06/2000 IND vs. PHI W 40 40 11 18 61.1 7 10 70.0 11 12 91.7 1 0 1 0 2 1 2 0 27
p181
aVJalen Rose IND 05/04/2000 IND vs. MIL W 43 14 5 12 41.7 0 1 0.0 4 6 66.7 0 4 4 6 1 0 3 3 -2
p182
aVRik Smits IND 05/04/2000 IND vs. MIL W 20 6 3 8 37.5 0 0 - 0 0 - 0 2 2 2 0 1 1 2 -2
p183
aVDerrick McKey IND 05/04/2000 IND vs. MIL W 25 8 3 5 60.0 0 0 - 2 2 100.0 1 5 6 0 0 0 0 4 -3
p184
aVReggie Miller IND 05/04/2000 IND vs. MIL W 38 41 15 25 60.0 3 7 42.9 8 10 80.0 0 5 5 1 1 0 2 4 8
p185
aVMark Jackson IND 05/04/2000 IND vs. MIL W 16 3 1 3 33.3 1 1 100.0 0 0 - 2 2 4 8 0 0 0 2 -1
p186
aVAustin Croshere IND 05/04/2000 IND vs. MIL W 17 3 1 5 20.0 0 0 - 1 2 50.0 1 3 4 1 0 0 0 1 -4
p187
aVDale Davis IND 05/04/2000 IND vs. MIL W 32 10 4 6 66.7 0 0 - 2 4 50.0 4 8 12 0 1 1 1 5 11
p188
aVSam Perkins IND 05/04/2000 IND vs. MIL W 13 3 1 4 25.0 1 4 25.0 0 0 - 1 3 4 0 0 0 0 1 -4
p189
aVTravis Best IND 05/04/2000 IND vs. MIL W 31 8 3 15 20.0 1 5 20.0 1 1 100.0 1 2 3 6 1 0 0 3 2
p190
aVRik Smits IND 05/01/2000 IND @ MIL L 17 4 2 7 28.6 0 0 - 0 0 - 0 1 1 1 1 0 3 3 -14
p191
aVChris Mullin IND 05/01/2000 IND @ MIL L 6 4 0 1 0.0 0 1 0.0 4 4 100.0 0 2 2 0 1 0 0 0 12
p192
aVDerrick McKey IND 05/01/2000 IND @ MIL L 13 0 0 1 0.0 0 1 0.0 0 0 - 0 2 2 0 0 0 1 3 -15
p193
aVDale Davis IND 05/01/2000 IND @ MIL L 30 12 4 8 50.0 0 0 - 4 6 66.7 3 7 10 0 0 0 0 2 -12
p194
aVTravis Best IND 05/01/2000 IND @ MIL L 21 8 4 13 30.8 0 2 0.0 0 0 - 1 1 2 2 0 0 1 1 1
p195
aVZan Tabak IND 05/01/2000 IND @ MIL L 6 4 1 2 50.0 0 0 - 2 2 100.0 1 4 5 0 0 1 0 0 12
p196
aVJalen Rose IND 05/01/2000 IND @ MIL L 33 17 5 13 38.5 0 2 0.0 7 10 70.0 0 4 4 4 0 1 4 3 -19
p197
aVMark Jackson IND 05/01/2000 IND @ MIL L 27 8 3 8 37.5 0 4 0.0 2 2 100.0 0 1 1 6 0 0 3 1 -14
p198
aVReggie Miller IND 05/01/2000 IND @ MIL L 37 15 5 9 55.6 0 2 0.0 5 5 100.0 0 0 0 1 1 0 0 0 -16
p199
aVJonathan Bender IND 05/01/2000 IND @ MIL L 6 0 0 1 0.0 0 0 - 0 0 - 0 1 1 0 0 0 0 1 12
p200
aVAustin Croshere IND 05/01/2000 IND @ MIL L 27 6 3 7 42.9 0 1 0.0 0 0 - 3 3 6 0 1 0 3 3 -26
p201
aVSam Perkins IND 05/01/2000 IND @ MIL L 16 9 3 5 60.0 0 0 - 3 3 100.0 2 3 5 0 0 1 1 1 14
p202
aVAustin Croshere IND 04/29/2000 IND @ MIL W 35 10 4 10 40.0 0 0 - 2 2 100.0 5 6 11 4 0 0 0 3 14
p203
aVJalen Rose IND 04/29/2000 IND @ MIL W 40 27 11 17 64.7 2 2 100.0 3 4 75.0 0 3 3 5 1 0 0 3 14
p204
aVZan Tabak IND 04/29/2000 IND @ MIL W 0 0 0 0 - 0 0 - 0 0 - 0 0 0 0 0 0 0 0 0
p205
aVDerrick McKey IND 04/29/2000 IND @ MIL W 25 4 2 2 100.0 0 0 - 0 0 - 2 3 5 2 0 1 1 1 13
p206
aVSam Perkins IND 04/29/2000 IND @ MIL W 8 4 0 0 - 0 0 - 4 4 100.0 1 0 1 0 0 0 1 1 -1
p207
aVReggie Miller IND 04/29/2000 IND @ MIL W 46 34 13 27 48.1 4 14 28.6 4 4 100.0 0 1 1 5 0 0 1 2 12
p208
aVMark Jackson IND 04/29/2000 IND @ MIL W 25 8 3 8 37.5 1 3 33.3 1 1 100.0 0 2 2 4 1 0 2 2 -3
p209
aVDale Davis IND 04/29/2000 IND @ MIL W 34 4 2 7 28.6 0 0 - 0 0 - 5 5 10 1 0 0 0 1 0
p210
aVTravis Best IND 04/29/2000 IND @ MIL W 22 18 6 13 46.2 2 3 66.7 4 4 100.0 0 2 2 4 1 0 1 5 16
p211
aVJonathan Bender IND 04/29/2000 IND @ MIL W 0 0 0 0 - 0 0 - 0 0 - 0 0 0 0 0 0 0 0 0
p212
aVJonathan Bender IND 04/27/2000 IND vs. MIL L 1 0 0 0 - 0 0 - 0 0 - 0 0 0 0 0 0 0 0 3
p213
aVRik Smits IND 04/27/2000 IND vs. MIL L 20 12 5 8 62.5 0 0 - 2 4 50.0 1 1 2 0 0 1 1 4 -24
p214
aVChris Mullin IND 04/27/2000 IND vs. MIL L 12 0 0 0 - 0 0 - 0 0 - 0 3 3 3 1 0 1 0 11
p215
aVDale Davis IND 04/27/2000 IND vs. MIL L 27 10 3 8 37.5 0 0 - 4 8 50.0 4 8 12 0 0 0 2 2 -18
p216
aVMark Jackson IND 04/27/2000 IND vs. MIL L 25 5 2 8 25.0 1 2 50.0 0 0 - 1 1 2 5 0 0 1 1 -10
p217
aVJalen Rose IND 04/27/2000 IND vs. MIL L 36 11 4 13 30.8 0 0 - 3 4 75.0 0 3 3 1 0 1 1 3 -24
p218
aVSam Perkins IND 04/27/2000 IND vs. MIL L 16 5 1 5 20.0 1 4 25.0 2 2 100.0 1 0 1 0 1 0 0 0 9
p219
aVZan Tabak IND 04/27/2000 IND vs. MIL L 20 6 2 4 50.0 0 0 - 2 2 100.0 2 5 7 0 0 1 0 2 16
p220
aVDerrick McKey IND 04/27/2000 IND vs. MIL L 11 2 1 2 50.0 0 0 - 0 0 - 2 1 3 0 1 0 0 0 -4
p221
aVAustin Croshere IND 04/27/2000 IND vs. MIL L 22 16 5 8 62.5 0 1 0.0 6 8 75.0 1 3 4 1 1 0 2 4 -3
p222
aVReggie Miller IND 04/27/2000 IND vs. MIL L 27 10 4 12 33.3 1 3 33.3 1 1 100.0 2 1 3 1 0 0 3 4 -18
p223
aVTravis Best IND 04/27/2000 IND vs. MIL L 23 14 4 12 33.3 1 2 50.0 5 6 83.3 1 3 4 1 0 0 2 3 -3
p224
aVJalen Rose IND 04/23/2000 IND vs. MIL W 37 26 10 21 47.6 3 4 75.0 3 4 75.0 0 6 6 0 1 0 2 5 10
p225
aVTravis Best IND 04/23/2000 IND vs. MIL W 19 8 4 9 44.4 0 1 0.0 0 0 - 0 0 0 2 0 1 0 5 -1
p226
aVMark Jackson IND 04/23/2000 IND vs. MIL W 28 5 2 5 40.0 1 2 50.0 0 0 - 0 4 4 11 0 0 3 0 4
p227
aVSam Perkins IND 04/23/2000 IND vs. MIL W 21 4 2 7 28.6 0 1 0.0 0 0 - 5 2 7 0 0 0 1 2 -4
p228
aVAustin Croshere IND 04/23/2000 IND vs. MIL W 19 0 0 5 0.0 0 2 0.0 0 0 - 1 2 3 0 0 0 1 3 -15
p229
aVDerrick McKey IND 04/23/2000 IND vs. MIL W 6 0 0 0 - 0 0 - 0 0 - 0 1 1 0 0 0 1 2 -5
p230
aVReggie Miller IND 04/23/2000 IND vs. MIL W 45 21 5 18 27.8 1 6 16.7 10 12 83.3 1 2 3 3 3 2 1 2 4
p231
aVDale Davis IND 04/23/2000 IND vs. MIL W 34 12 4 9 44.4 0 0 - 4 8 50.0 8 9 17 1 1 4 1 4 19
p232
aVChris Mullin IND 04/23/2000 IND vs. MIL W 6 0 0 1 0.0 0 0 - 0 0 - 1 0 1 0 0 0 0 0 -3
p233
aVRik Smits IND 04/23/2000 IND vs. MIL W 20 12 5 11 45.5 0 0 - 2 2 100.0 2 3 5 0 1 1 1 2 6
p234
a.