(lp0
VPLAYER TEAM DATE MATCHUP W/L MIN PTS FGM FGA FG% 3PM 3PA 3P% FTM FTA FT% OREB DREB REB AST STL BLK TOV PF +/-
p1
aVShaquille O'Neal LAL 06/19/2000 LAL vs. IND W 47 41 19 32 59.4 0 0 - 3 12 25.0 5 7 12 1 0 4 0 2 6
p2
aVKobe Bryant LAL 06/19/2000 LAL vs. IND W 44 26 8 27 29.6 2 6 33.3 8 9 88.9 3 7 10 4 1 2 1 4 7
p3
aVA.C. Green LAL 06/19/2000 LAL vs. IND W 20 6 2 3 66.7 0 0 - 2 2 100.0 3 2 5 0 1 0 1 1 -6
p4
aVBrian Shaw LAL 06/19/2000 LAL vs. IND W 6 0 0 1 0.0 0 0 - 0 0 - 0 2 2 1 0 0 0 2 3
p5
aVRick Fox LAL 06/19/2000 LAL vs. IND W 14 7 1 1 100.0 1 1 100.0 4 4 100.0 1 0 1 1 0 0 0 3 15
p6
aVRobert Horry LAL 06/19/2000 LAL vs. IND W 26 8 3 6 50.0 2 3 66.7 0 0 - 1 3 4 4 0 1 2 6 6
p7
aVRon Harper LAL 06/19/2000 LAL vs. IND W 36 6 3 10 30.0 0 2 0.0 0 0 - 0 3 3 9 2 0 1 2 -1
p8
aVGlen Rice LAL 06/19/2000 LAL vs. IND W 35 16 5 7 71.4 3 3 100.0 3 6 50.0 0 6 6 2 1 0 0 3 -6
p9
aVDerek Fisher LAL 06/19/2000 LAL vs. IND W 7 6 2 3 66.7 2 2 100.0 0 0 - 0 1 1 3 0 0 0 1 1
p10
aVRon Harper LAL 06/16/2000 LAL @ IND L 25 8 3 8 37.5 2 4 50.0 0 0 - 2 3 5 5 1 0 2 2 -13
p11
aVKobe Bryant LAL 06/16/2000 LAL @ IND L 36 8 4 20 20.0 0 1 0.0 0 0 - 1 4 5 3 2 0 0 5 -22
p12
aVTravis Knight LAL 06/16/2000 LAL @ IND L 5 3 1 1 100.0 0 0 - 1 2 50.0 0 0 0 0 0 0 1 2 1
p13
aVDerek Fisher LAL 06/16/2000 LAL @ IND L 21 2 0 6 0.0 0 3 0.0 2 2 100.0 1 1 2 1 2 0 1 3 -24
p14
aVGlen Rice LAL 06/16/2000 LAL @ IND L 29 11 3 8 37.5 1 2 50.0 4 7 57.1 0 0 0 2 1 0 1 2 -22
p15
aVBrian Shaw LAL 06/16/2000 LAL @ IND L 12 0 0 4 0.0 0 1 0.0 0 0 - 0 1 1 2 0 0 2 4 -7
p16
aVRobert Horry LAL 06/16/2000 LAL @ IND L 29 7 3 8 37.5 1 6 16.7 0 0 - 0 4 4 2 0 0 1 5 -25
p17
aVA.C. Green LAL 06/16/2000 LAL @ IND L 15 7 3 4 75.0 0 0 - 1 1 100.0 1 1 2 0 0 0 0 2 -7
p18
aVDevean George LAL 06/16/2000 LAL @ IND L 2 1 0 1 0.0 0 1 0.0 1 2 50.0 0 1 1 0 0 0 1 2 -1
p19
aVShaquille O'Neal LAL 06/16/2000 LAL @ IND L 41 35 17 27 63.0 0 0 - 1 6 16.7 7 4 11 3 2 2 3 2 -24
p20
aVJohn Salley LAL 06/16/2000 LAL @ IND L 4 4 2 2 100.0 0 0 - 0 0 - 1 2 3 0 0 0 0 2 -7
p21
aVRick Fox LAL 06/16/2000 LAL @ IND L 14 1 0 1 0.0 0 1 0.0 1 1 100.0 0 0 0 0 1 0 0 2 -14
p22
aVDerek Fisher LAL 06/14/2000 LAL @ IND W 20 7 3 6 50.0 1 2 50.0 0 0 - 0 0 0 4 1 0 1 2 3
p23
aVBrian Shaw LAL 06/14/2000 LAL @ IND W 12 4 2 4 50.0 0 1 0.0 0 0 - 1 0 1 3 0 0 0 0 0
p24
aVGlen Rice LAL 06/14/2000 LAL @ IND W 39 11 3 8 37.5 2 3 66.7 3 3 100.0 0 1 1 1 0 0 3 3 4
p25
aVJohn Salley LAL 06/14/2000 LAL @ IND W 4 0 0 0 - 0 0 - 0 0 - 0 0 0 0 0 0 0 2 -3
p26
aVKobe Bryant LAL 06/14/2000 LAL @ IND W 46 28 14 27 51.9 0 0 - 0 0 - 2 2 4 5 1 2 3 4 2
p27
aVRon Harper LAL 06/14/2000 LAL @ IND W 26 4 2 6 33.3 0 2 0.0 0 0 - 0 3 3 2 0 0 0 2 -1
p28
aVRick Fox LAL 06/14/2000 LAL @ IND W 15 8 3 5 60.0 1 2 50.0 1 1 100.0 1 2 3 2 0 0 1 5 0
p29
aVA.C. Green LAL 06/14/2000 LAL @ IND W 15 5 2 2 100.0 0 0 - 1 2 50.0 1 2 3 0 0 0 0 3 -6
p30
aVRobert Horry LAL 06/14/2000 LAL @ IND W 37 17 6 10 60.0 0 2 0.0 5 7 71.4 2 4 6 2 2 0 1 4 8
p31
aVShaquille O'Neal LAL 06/14/2000 LAL @ IND W 47 36 13 25 52.0 0 0 - 10 17 58.8 7 14 21 1 2 2 3 6 3
p32
aVBrian Shaw LAL 06/11/2000 LAL @ IND L 30 6 3 10 30.0 0 3 0.0 0 0 - 0 5 5 1 1 0 2 4 -15
p33
aVA.C. Green LAL 06/11/2000 LAL @ IND L 13 4 1 2 50.0 0 0 - 2 2 100.0 0 1 1 1 0 0 0 3 -8
p34
aVRobert Horry LAL 06/11/2000 LAL @ IND L 32 10 5 8 62.5 0 2 0.0 0 0 - 3 4 7 6 0 0 3 4 2
p35
aVRick Fox LAL 06/11/2000 LAL @ IND L 21 7 2 4 50.0 2 3 66.7 1 2 50.0 0 0 0 1 0 0 1 5 1
p36
aVRon Harper LAL 06/11/2000 LAL @ IND L 38 14 6 14 42.9 2 3 66.7 0 0 - 1 4 5 2 5 1 5 2 -8
p37
aVDerek Fisher LAL 06/11/2000 LAL @ IND L 27 10 3 5 60.0 2 3 66.7 2 2 100.0 0 1 1 10 0 0 0 4 5
p38
aVGlen Rice LAL 06/11/2000 LAL @ IND L 26 7 3 9 33.3 1 3 33.3 0 0 - 0 1 1 1 1 1 2 0 -10
p39
aVShaquille O'Neal LAL 06/11/2000 LAL @ IND L 47 33 15 24 62.5 0 0 - 3 13 23.1 4 9 13 1 2 2 3 3 -9
p40
aVTravis Knight LAL 06/11/2000 LAL @ IND L 1 0 0 0 - 0 0 - 0 0 - 0 0 0 0 0 0 0 2 -3
p41
aVRon Harper LAL 06/09/2000 LAL vs. IND W 37 21 8 12 66.7 1 2 50.0 4 5 80.0 0 3 3 6 0 0 3 4 11
p42
aVKobe Bryant LAL 06/09/2000 LAL vs. IND W 8 2 1 3 33.3 0 1 0.0 0 0 - 0 1 1 4 0 1 0 1 3
p43
aVGlen Rice LAL 06/09/2000 LAL vs. IND W 34 21 7 15 46.7 5 6 83.3 2 2 100.0 0 4 4 3 0 0 1 4 3
p44
aVShaquille O'Neal LAL 06/09/2000 LAL vs. IND W 45 40 11 18 61.1 0 0 - 18 39 46.2 5 19 24 4 0 3 2 5 14
p45
aVDerek Fisher LAL 06/09/2000 LAL vs. IND W 16 6 2 4 50.0 1 1 100.0 1 2 50.0 0 0 0 3 0 0 0 1 -2
p46
aVRobert Horry LAL 06/09/2000 LAL vs. IND W 32 7 2 6 33.3 0 2 0.0 3 4 75.0 1 5 6 1 0 4 1 5 11
p47
aVA.C. Green LAL 06/09/2000 LAL vs. IND W 15 4 2 4 50.0 0 0 - 0 0 - 3 1 4 1 0 0 1 1 -4
p48
aVJohn Salley LAL 06/09/2000 LAL vs. IND W 1 0 0 1 0.0 0 0 - 0 0 - 0 0 0 0 1 0 0 0 -4
p49
aVBrian Shaw LAL 06/09/2000 LAL vs. IND W 31 4 1 9 11.1 0 3 0.0 2 2 100.0 1 2 3 7 1 0 0 1 4
p50
aVRick Fox LAL 06/09/2000 LAL vs. IND W 15 6 2 3 66.7 0 0 - 2 3 66.7 1 1 2 0 1 0 1 4 2
p51
aVTravis Knight LAL 06/09/2000 LAL vs. IND W 1 0 0 0 - 0 0 - 0 0 - 0 0 0 0 0 0 0 0 -3
p52
aVShaquille O'Neal LAL 06/07/2000 LAL vs. IND W 43 43 21 31 67.7 0 0 - 1 6 16.7 6 13 19 4 0 3 2 2 18
p53
aVRick Fox LAL 06/07/2000 LAL vs. IND W 23 11 3 4 75.0 1 1 100.0 4 4 100.0 0 4 4 2 1 0 1 1 9
p54
aVRobert Horry LAL 06/07/2000 LAL vs. IND W 23 6 3 5 60.0 0 0 - 0 0 - 1 3 4 2 3 1 1 4 20
p55
aVJohn Salley LAL 06/07/2000 LAL vs. IND W 2 0 0 0 - 0 0 - 0 0 - 0 0 0 0 0 0 0 0 2
p56
aVRon Harper LAL 06/07/2000 LAL vs. IND W 20 12 4 6 66.7 1 2 50.0 3 5 60.0 1 0 1 5 0 0 1 2 9
p57
aVKobe Bryant LAL 06/07/2000 LAL vs. IND W 38 14 6 13 46.2 0 2 0.0 2 2 100.0 0 3 3 5 1 2 2 4 15
p58
aVA.C. Green LAL 06/07/2000 LAL vs. IND W 21 4 2 6 33.3 0 0 - 0 0 - 1 4 5 1 0 0 0 1 4
p59
aVDerek Fisher LAL 06/07/2000 LAL vs. IND W 19 5 2 4 50.0 1 1 100.0 0 0 - 1 1 2 2 2 0 1 2 6
p60
aVGlen Rice LAL 06/07/2000 LAL vs. IND W 27 3 1 8 12.5 0 2 0.0 1 2 50.0 1 2 3 1 2 0 2 2 1
p61
aVBrian Shaw LAL 06/07/2000 LAL vs. IND W 17 4 2 9 22.2 0 4 0.0 0 0 - 1 4 5 3 0 0 1 0 4
p62
aVTravis Knight LAL 06/07/2000 LAL vs. IND W 1 2 1 2 50.0 0 0 - 0 0 - 2 0 2 0 0 0 0 1 -3
p63
aVA.C. Green LAL 06/04/2000 LAL vs. POR W 15 1 0 1 0.0 0 0 - 1 4 25.0 0 2 2 0 2 0 0 3 -7
p64
aVDerek Fisher LAL 06/04/2000 LAL vs. POR W 9 2 1 3 33.3 0 1 0.0 0 0 - 0 0 0 0 0 0 0 0 -9
p65
aVRick Fox LAL 06/04/2000 LAL vs. POR W 12 0 0 2 0.0 0 1 0.0 0 0 - 0 1 1 3 0 0 1 4 5
p66
aVRon Harper LAL 06/04/2000 LAL vs. POR W 23 9 4 6 66.7 0 0 - 1 2 50.0 0 2 2 4 0 0 1 3 -8
p67
aVGlen Rice LAL 06/04/2000 LAL vs. POR W 36 11 4 10 40.0 2 5 40.0 1 1 100.0 0 6 6 4 0 0 1 1 -3
p68
aVKobe Bryant LAL 06/04/2000 LAL vs. POR W 47 25 9 19 47.4 1 4 25.0 6 12 50.0 0 11 11 7 0 4 2 4 8
p69
aVBrian Shaw LAL 06/04/2000 LAL vs. POR W 17 11 4 6 66.7 3 4 75.0 0 0 - 0 3 3 2 2 0 2 2 22
p70
aVJohn Salley LAL 06/04/2000 LAL vs. POR W 0 0 0 0 - 0 0 - 0 0 - 0 0 0 0 0 0 0 0 0
p71
aVRobert Horry LAL 06/04/2000 LAL vs. POR W 33 12 4 7 57.1 1 4 25.0 3 6 50.0 4 3 7 0 0 1 2 4 12
p72
aVShaquille O'Neal LAL 06/04/2000 LAL vs. POR W 47 18 5 9 55.6 0 0 - 8 12 66.7 3 6 9 5 0 1 4 4 5
p73
aVBrian Shaw LAL 06/02/2000 LAL @ POR L 15 12 4 6 66.7 4 4 100.0 0 2 0.0 0 3 3 2 1 1 0 2 -1
p74
aVJohn Salley LAL 06/02/2000 LAL @ POR L 3 0 0 0 - 0 0 - 0 0 - 0 0 0 0 0 1 0 1 1
p75
aVShaquille O'Neal LAL 06/02/2000 LAL @ POR L 48 17 7 17 41.2 0 0 - 3 10 30.0 7 4 11 5 0 0 3 2 -10
p76
aVA.C. Green LAL 06/02/2000 LAL @ POR L 17 4 1 4 25.0 0 0 - 2 2 100.0 2 5 7 2 0 0 0 1 -5
p77
aVRick Fox LAL 06/02/2000 LAL @ POR L 16 2 1 2 50.0 0 1 0.0 0 0 - 1 1 2 2 0 0 0 4 1
p78
aVGlen Rice LAL 06/02/2000 LAL @ POR L 31 12 5 11 45.5 2 3 66.7 0 0 - 0 2 2 0 0 0 2 2 -11
p79
aVDerek Fisher LAL 06/02/2000 LAL @ POR L 4 0 0 0 - 0 0 - 0 0 - 0 1 1 1 0 0 0 0 -1
p80
aVKobe Bryant LAL 06/02/2000 LAL @ POR L 48 33 12 24 50.0 6 9 66.7 3 6 50.0 0 2 2 6 4 3 3 5 -10
p81
aVRon Harper LAL 06/02/2000 LAL @ POR L 27 7 3 7 42.9 0 0 - 1 3 33.3 0 3 3 0 0 1 1 4 -8
p82
aVRobert Horry LAL 06/02/2000 LAL @ POR L 26 6 1 4 25.0 0 2 0.0 4 4 100.0 1 2 3 7 1 1 2 6 -6
p83
aVA.C. Green LAL 05/30/2000 LAL vs. POR L 15 0 0 2 0.0 0 0 - 0 0 - 1 3 4 0 0 0 0 2 -3
p84
aVShaquille O'Neal LAL 05/30/2000 LAL vs. POR L 46 31 12 20 60.0 0 0 - 7 12 58.3 5 16 21 3 0 2 5 1 -6
p85
aVRon Harper LAL 05/30/2000 LAL vs. POR L 30 14 6 12 50.0 1 5 20.0 1 2 50.0 2 3 5 4 1 1 0 4 -6
p86
aVDerek Fisher LAL 05/30/2000 LAL vs. POR L 24 10 2 6 33.3 2 5 40.0 4 4 100.0 0 0 0 2 2 0 2 2 4
p87
aVJohn Salley LAL 05/30/2000 LAL vs. POR L 1 0 0 0 - 0 0 - 0 0 - 0 0 0 0 0 0 0 0 -2
p88
aVRobert Horry LAL 05/30/2000 LAL vs. POR L 32 7 3 11 27.3 1 4 25.0 0 0 - 4 2 6 5 3 1 0 3 -5
p89
aVBrian Shaw LAL 05/30/2000 LAL vs. POR L 7 2 1 2 50.0 0 1 0.0 0 0 - 0 0 0 0 0 0 1 6 -10
p90
aVKobe Bryant LAL 05/30/2000 LAL vs. POR L 34 17 4 13 30.8 1 3 33.3 8 9 88.9 1 4 5 4 0 2 6 6 -4
p91
aVGlen Rice LAL 05/30/2000 LAL vs. POR L 32 4 1 8 12.5 0 5 0.0 2 3 66.7 1 1 2 1 1 0 1 3 4
p92
aVRick Fox LAL 05/30/2000 LAL vs. POR L 15 3 1 5 20.0 1 4 25.0 0 0 - 0 1 1 1 0 0 1 3 -12
p93
aVTravis Knight LAL 05/28/2000 LAL @ POR W 0 0 0 0 - 0 0 - 0 0 - 0 0 0 0 0 0 0 0 -2
p94
aVShaquille O'Neal LAL 05/28/2000 LAL @ POR W 45 25 8 17 47.1 0 0 - 9 9 100.0 4 7 11 3 0 2 1 3 21
p95
aVDerek Fisher LAL 05/28/2000 LAL @ POR W 18 7 2 3 66.7 1 2 50.0 2 2 100.0 0 3 3 1 0 0 0 0 -7
p96
aVRick Fox LAL 05/28/2000 LAL @ POR W 12 3 1 3 33.3 1 2 50.0 0 0 - 0 0 0 1 0 0 1 4 4
p97
aVRon Harper LAL 05/28/2000 LAL @ POR W 34 18 6 12 50.0 0 1 0.0 6 6 100.0 2 5 7 2 1 0 0 5 20
p98
aVJohn Salley LAL 05/28/2000 LAL @ POR W 2 0 0 1 0.0 0 0 - 0 2 0.0 0 0 0 0 0 0 0 0 -10
p99
aVRobert Horry LAL 05/28/2000 LAL @ POR W 30 9 3 8 37.5 0 1 0.0 3 3 100.0 3 4 7 4 0 2 1 5 19
p100
aVKobe Bryant LAL 05/28/2000 LAL @ POR W 45 18 5 15 33.3 2 3 66.7 6 7 85.7 1 3 4 7 2 3 3 4 12
p101
aVGlen Rice LAL 05/28/2000 LAL @ POR W 33 21 7 11 63.6 2 4 50.0 5 5 100.0 0 7 7 0 1 0 5 4 5
p102
aVA.C. Green LAL 05/28/2000 LAL @ POR W 16 2 1 1 100.0 0 0 - 0 0 - 0 3 3 1 1 0 2 4 -2
p103
aVJohn Salley LAL 05/26/2000 LAL @ POR W 0 0 0 0 - 0 0 - 0 0 - 0 0 0 0 0 0 0 0 0
p104
aVDerek Fisher LAL 05/26/2000 LAL @ POR W 17 7 3 5 60.0 1 3 33.3 0 0 - 0 1 1 2 0 0 0 1 0
p105
aVKobe Bryant LAL 05/26/2000 LAL @ POR W 47 25 11 18 61.1 1 1 100.0 2 2 100.0 2 5 7 7 2 1 3 5 2
p106
aVRobert Horry LAL 05/26/2000 LAL @ POR W 25 4 1 8 12.5 0 5 0.0 2 4 50.0 2 5 7 1 0 0 2 3 -1
p107
aVBrian Shaw LAL 05/26/2000 LAL @ POR W 3 0 0 0 - 0 0 - 0 0 - 0 0 0 0 0 1 0 0 -1
p108
aVShaquille O'Neal LAL 05/26/2000 LAL @ POR W 48 26 10 17 58.8 0 0 - 6 12 50.0 5 7 12 3 1 3 3 2 2
p109
aVRon Harper LAL 05/26/2000 LAL @ POR W 30 12 5 9 55.6 0 2 0.0 2 2 100.0 1 1 2 2 2 1 2 1 0
p110
aVA.C. Green LAL 05/26/2000 LAL @ POR W 21 6 3 5 60.0 0 0 - 0 0 - 0 2 2 0 0 0 0 3 1
p111
aVRick Fox LAL 05/26/2000 LAL @ POR W 16 5 2 4 50.0 1 2 50.0 0 0 - 0 1 1 2 1 0 1 4 5
p112
aVGlen Rice LAL 05/26/2000 LAL @ POR W 29 8 3 5 60.0 0 0 - 2 2 100.0 1 2 3 4 1 0 3 2 2
p113
aVShaquille O'Neal LAL 05/22/2000 LAL vs. POR L 39 23 9 16 56.3 0 0 - 5 17 29.4 1 11 12 4 0 0 3 4 -21
p114
aVDevean George LAL 05/22/2000 LAL vs. POR L 6 1 0 3 0.0 0 3 0.0 1 2 50.0 1 1 2 0 0 0 0 2 1
p115
aVKobe Bryant LAL 05/22/2000 LAL vs. POR L 41 12 2 9 22.2 1 2 50.0 7 8 87.5 0 2 2 4 2 1 2 5 -28
p116
aVRick Fox LAL 05/22/2000 LAL vs. POR L 21 8 3 5 60.0 2 4 50.0 0 0 - 0 0 0 2 0 0 2 6 -11
p117
aVJohn Salley LAL 05/22/2000 LAL vs. POR L 3 0 0 0 - 0 0 - 0 0 - 0 0 0 0 0 2 0 0 -5
p118
aVRon Harper LAL 05/22/2000 LAL vs. POR L 15 7 2 6 33.3 1 3 33.3 2 2 100.0 2 3 5 2 0 0 2 3 0
p119
aVTravis Knight LAL 05/22/2000 LAL vs. POR L 6 2 1 1 100.0 0 0 - 0 0 - 0 1 1 0 0 0 2 4 -9
p120
aVGlen Rice LAL 05/22/2000 LAL vs. POR L 28 6 3 9 33.3 0 2 0.0 0 1 0.0 0 2 2 1 1 0 0 2 -17
p121
aVBrian Shaw LAL 05/22/2000 LAL vs. POR L 24 8 2 6 33.3 2 6 33.3 2 2 100.0 0 1 1 4 0 0 1 3 -24
p122
aVA.C. Green LAL 05/22/2000 LAL vs. POR L 15 6 3 5 60.0 0 0 - 0 0 - 2 3 5 0 0 0 0 2 -11
p123
aVDerek Fisher LAL 05/22/2000 LAL vs. POR L 18 2 1 4 25.0 0 0 - 0 0 - 0 1 1 2 0 0 0 2 -11
p124
aVRobert Horry LAL 05/22/2000 LAL vs. POR L 19 2 1 5 20.0 0 3 0.0 0 0 - 0 3 3 3 1 0 2 3 -9
p125
aVA.C. Green LAL 05/20/2000 LAL vs. POR W 19 4 2 2 100.0 0 0 - 0 0 - 1 3 4 0 0 0 1 1 3
p126
aVBrian Shaw LAL 05/20/2000 LAL vs. POR W 18 8 3 4 75.0 2 3 66.7 0 0 - 0 1 1 5 2 0 1 5 14
p127
aVRon Harper LAL 05/20/2000 LAL vs. POR W 29 8 3 10 30.0 1 4 25.0 1 2 50.0 1 2 3 1 0 3 2 5 0
p128
aVDerek Fisher LAL 05/20/2000 LAL vs. POR W 9 3 1 2 50.0 0 0 - 1 2 50.0 1 2 3 0 0 0 0 0 -2
p129
aVRobert Horry LAL 05/20/2000 LAL vs. POR W 23 12 4 8 50.0 3 5 60.0 1 1 100.0 0 5 5 2 0 1 2 4 12
p130
aVGlen Rice LAL 05/20/2000 LAL vs. POR W 36 15 5 8 62.5 2 4 50.0 3 4 75.0 0 4 4 4 0 0 0 1 3
p131
aVRick Fox LAL 05/20/2000 LAL vs. POR W 16 5 2 3 66.7 1 2 50.0 0 0 - 0 2 2 1 1 0 0 0 14
p132
aVKobe Bryant LAL 05/20/2000 LAL vs. POR W 38 13 4 9 44.4 0 1 0.0 5 7 71.4 1 2 3 6 1 1 1 5 20
p133
aVTravis Knight LAL 05/20/2000 LAL vs. POR W 1 0 0 0 - 0 0 - 0 0 - 0 0 0 0 0 0 0 1 -7
p134
aVShaquille O'Neal LAL 05/20/2000 LAL vs. POR W 46 41 14 25 56.0 0 0 - 13 27 48.1 1 10 11 7 0 5 0 2 23
p135
aVJohn Salley LAL 05/16/2000 LAL vs. PHX W 12 7 1 3 33.3 0 0 - 5 6 83.3 5 6 11 0 0 1 3 2 -6
p136
aVRobert Horry LAL 05/16/2000 LAL vs. PHX W 24 8 2 7 28.6 1 4 25.0 3 6 50.0 1 3 4 1 1 2 1 4 19
p137
aVKobe Bryant LAL 05/16/2000 LAL vs. PHX W 34 17 6 16 37.5 1 3 33.3 4 4 100.0 1 0 1 3 1 0 2 3 22
p138
aVRick Fox LAL 05/16/2000 LAL vs. PHX W 18 6 2 4 50.0 2 4 50.0 0 0 - 0 1 1 1 1 0 1 1 14
p139
aVTravis Knight LAL 05/16/2000 LAL vs. PHX W 6 1 0 2 0.0 0 0 - 1 2 50.0 1 0 1 0 0 1 1 1 4
p140
aVRon Harper LAL 05/16/2000 LAL vs. PHX W 23 6 3 6 50.0 0 0 - 0 0 - 2 3 5 3 1 0 0 0 8
p141
aVA.C. Green LAL 05/16/2000 LAL vs. PHX W 17 2 1 6 16.7 0 0 - 0 0 - 2 2 4 0 1 1 1 2 5
p142
aVShaquille O'Neal LAL 05/16/2000 LAL vs. PHX W 33 15 7 19 36.8 0 0 - 1 4 25.0 6 15 21 3 0 3 3 0 19
p143
aVBrian Shaw LAL 05/16/2000 LAL vs. PHX W 24 3 1 3 33.3 0 0 - 1 2 50.0 0 0 0 4 0 0 1 2 13
p144
aVDevean George LAL 05/16/2000 LAL vs. PHX W 5 1 0 0 - 0 0 - 1 2 50.0 0 1 1 1 0 0 0 0 -2
p145
aVDerek Fisher LAL 05/16/2000 LAL vs. PHX W 13 7 2 4 50.0 1 1 100.0 2 4 50.0 0 1 1 1 0 0 0 0 1
p146
aVGlen Rice LAL 05/16/2000 LAL vs. PHX W 25 14 4 10 40.0 1 1 100.0 5 7 71.4 3 6 9 0 1 0 1 4 13
p147
aVRon Harper LAL 05/14/2000 LAL @ PHX L 20 7 2 4 50.0 0 0 - 3 4 75.0 0 1 1 3 1 1 2 3 -13
p148
aVGlen Rice LAL 05/14/2000 LAL @ PHX L 28 15 4 14 28.6 0 2 0.0 7 7 100.0 1 4 5 2 1 0 1 1 -15
p149
aVA.C. Green LAL 05/14/2000 LAL @ PHX L 14 0 0 1 0.0 0 0 - 0 0 - 2 1 3 1 0 0 0 2 -8
p150
aVJohn Salley LAL 05/14/2000 LAL @ PHX L 7 2 0 1 0.0 0 0 - 2 2 100.0 1 1 2 0 0 0 0 3 3
p151
aVKobe Bryant LAL 05/14/2000 LAL @ PHX L 36 23 10 20 50.0 0 5 0.0 3 6 50.0 1 2 3 5 2 0 2 4 -17
p152
aVDevean George LAL 05/14/2000 LAL @ PHX L 12 5 2 5 40.0 0 2 0.0 1 2 50.0 2 0 2 1 1 0 1 0 3
p153
aVTravis Knight LAL 05/14/2000 LAL @ PHX L 9 4 2 3 66.7 0 0 - 0 2 0.0 0 0 0 0 1 0 1 1 3
p154
aVShaquille O'Neal LAL 05/14/2000 LAL @ PHX L 33 24 10 15 66.7 0 0 - 4 12 33.3 3 6 9 3 0 1 3 5 -17
p155
aVRick Fox LAL 05/14/2000 LAL @ PHX L 8 0 0 0 - 0 0 - 0 0 - 2 0 2 0 0 0 2 2 -10
p156
aVDerek Fisher LAL 05/14/2000 LAL @ PHX L 20 3 0 3 0.0 0 1 0.0 3 4 75.0 1 1 2 1 1 0 0 1 -11
p157
aVRobert Horry LAL 05/14/2000 LAL @ PHX L 28 3 0 4 0.0 0 2 0.0 3 4 75.0 1 8 9 2 1 1 1 4 -10
p158
aVBrian Shaw LAL 05/14/2000 LAL @ PHX L 19 12 4 7 57.1 2 4 50.0 2 2 100.0 1 1 2 4 0 0 1 0 -3
p159
aVRon Harper LAL 05/12/2000 LAL @ PHX W 22 4 2 5 40.0 0 1 0.0 0 2 0.0 2 0 2 0 1 1 0 4 -13
p160
aVShaquille O'Neal LAL 05/12/2000 LAL @ PHX W 46 37 14 21 66.7 0 0 - 9 15 60.0 6 11 17 3 0 0 3 4 8
p161
aVBrian Shaw LAL 05/12/2000 LAL @ PHX W 25 7 1 6 16.7 1 5 20.0 4 4 100.0 0 2 2 4 0 0 2 4 18
p162
aVRick Fox LAL 05/12/2000 LAL @ PHX W 8 6 2 3 66.7 2 3 66.7 0 0 - 0 2 2 1 0 0 0 4 10
p163
aVGlen Rice LAL 05/12/2000 LAL @ PHX W 38 10 2 9 22.2 1 3 33.3 5 7 71.4 0 6 6 1 0 0 1 2 -5
p164
aVA.C. Green LAL 05/12/2000 LAL @ PHX W 10 1 0 1 0.0 0 0 - 1 2 50.0 1 0 1 0 1 0 1 1 -18
p165
aVDerek Fisher LAL 05/12/2000 LAL @ PHX W 0 0 0 0 - 0 0 - 0 0 - 0 0 0 0 0 0 0 1 -1
p166
aVRobert Horry LAL 05/12/2000 LAL @ PHX W 39 15 3 5 60.0 2 3 66.7 7 8 87.5 2 3 5 4 0 0 0 4 23
p167
aVKobe Bryant LAL 05/12/2000 LAL @ PHX W 47 25 8 20 40.0 0 2 0.0 9 13 69.2 2 3 5 2 2 2 3 4 8
p168
aVGlen Rice LAL 05/10/2000 LAL vs. PHX W 40 13 5 12 41.7 1 4 25.0 2 2 100.0 0 2 2 2 0 1 4 3 -5
p169
aVRick Fox LAL 05/10/2000 LAL vs. PHX W 10 0 0 1 0.0 0 1 0.0 0 2 0.0 0 0 0 1 1 0 0 1 3
p170
aVRon Harper LAL 05/10/2000 LAL vs. PHX W 30 5 2 4 50.0 0 0 - 1 2 50.0 0 0 0 3 0 0 0 4 3
p171
aVA.C. Green LAL 05/10/2000 LAL vs. PHX W 23 2 1 3 33.3 0 0 - 0 0 - 0 6 6 0 0 0 0 1 -3
p172
aVKobe Bryant LAL 05/10/2000 LAL vs. PHX W 34 15 6 11 54.5 0 1 0.0 3 4 75.0 0 4 4 6 2 2 5 4 2
p173
aVShaquille O'Neal LAL 05/10/2000 LAL vs. PHX W 47 38 16 28 57.1 0 0 - 6 14 42.9 8 12 20 3 1 5 2 2 3
p174
aVBrian Shaw LAL 05/10/2000 LAL vs. PHX W 31 12 6 8 75.0 0 1 0.0 0 0 - 1 1 2 5 1 0 0 1 0
p175
aVRobert Horry LAL 05/10/2000 LAL vs. PHX W 26 12 3 6 50.0 2 3 66.7 4 4 100.0 0 3 3 3 3 0 2 1 2
p176
aVA.C. Green LAL 05/07/2000 LAL vs. PHX W 20 8 3 8 37.5 0 0 - 2 2 100.0 3 3 6 1 2 0 0 1 11
p177
aVBrian Shaw LAL 05/07/2000 LAL vs. PHX W 17 5 2 3 66.7 1 2 50.0 0 0 - 0 3 3 4 0 0 0 0 22
p178
aVJohn Salley LAL 05/07/2000 LAL vs. PHX W 4 2 1 1 100.0 0 0 - 0 0 - 1 1 2 0 0 0 0 2 7
p179
aVRick Fox LAL 05/07/2000 LAL vs. PHX W 16 2 1 3 33.3 0 1 0.0 0 0 - 0 4 4 2 1 0 2 2 10
p180
aVRobert Horry LAL 05/07/2000 LAL vs. PHX W 23 2 1 3 33.3 0 0 - 0 0 - 2 3 5 3 4 0 1 4 14
p181
aVTravis Knight LAL 05/07/2000 LAL vs. PHX W 7 2 1 3 33.3 0 0 - 0 0 - 0 1 1 0 0 1 1 1 3
p182
aVShaquille O'Neal LAL 05/07/2000 LAL vs. PHX W 39 37 15 28 53.6 0 0 - 7 10 70.0 7 7 14 1 1 4 2 4 21
p183
aVRon Harper LAL 05/07/2000 LAL vs. PHX W 25 4 1 7 14.3 0 0 - 2 2 100.0 3 2 5 2 2 2 0 2 11
p184
aVDerek Fisher LAL 05/07/2000 LAL vs. PHX W 18 4 2 5 40.0 0 2 0.0 0 0 - 0 0 0 2 0 0 1 3 17
p185
aVDevean George LAL 05/07/2000 LAL vs. PHX W 4 7 3 5 60.0 1 2 50.0 0 0 - 0 1 1 0 0 0 0 0 7
p186
aVKobe Bryant LAL 05/07/2000 LAL vs. PHX W 34 25 8 17 47.1 1 2 50.0 8 10 80.0 3 3 6 1 3 3 3 4 6
p187
aVGlen Rice LAL 05/07/2000 LAL vs. PHX W 27 7 2 9 22.2 1 2 50.0 2 2 100.0 0 5 5 2 1 0 1 0 11
p188
aVA.C. Green LAL 05/05/2000 LAL vs. SAC W 23 10 3 8 37.5 0 0 - 4 6 66.7 5 1 6 3 2 2 1 3 20
p189
aVDevean George LAL 05/05/2000 LAL vs. SAC W 6 3 1 3 33.3 0 1 0.0 1 1 100.0 0 1 1 0 0 0 1 0 -8
p190
aVRon Harper LAL 05/05/2000 LAL vs. SAC W 24 4 1 4 25.0 0 1 0.0 2 2 100.0 1 2 3 2 1 1 0 0 25
p191
aVShaquille O'Neal LAL 05/05/2000 LAL vs. SAC W 34 32 15 24 62.5 0 0 - 2 7 28.6 7 11 18 4 1 3 3 1 37
p192
aVGlen Rice LAL 05/05/2000 LAL vs. SAC W 32 14 5 10 50.0 0 1 0.0 4 6 66.7 2 3 5 6 0 1 1 1 27
p193
aVTravis Knight LAL 05/05/2000 LAL vs. SAC W 3 2 1 1 100.0 0 0 - 0 0 - 0 0 0 0 0 0 0 2 -2
p194
aVKobe Bryant LAL 05/05/2000 LAL vs. SAC W 33 17 7 16 43.8 1 5 20.0 2 2 100.0 0 2 2 6 0 3 1 2 23
p195
aVJohn Salley LAL 05/05/2000 LAL vs. SAC W 10 0 0 2 0.0 0 0 - 0 0 - 0 1 1 2 0 1 0 0 -8
p196
aVBrian Shaw LAL 05/05/2000 LAL vs. SAC W 12 6 3 3 100.0 0 0 - 0 0 - 0 4 4 2 0 0 1 3 0
p197
aVRobert Horry LAL 05/05/2000 LAL vs. SAC W 18 8 4 7 57.1 0 1 0.0 0 0 - 2 5 7 1 0 0 1 1 15
p198
aVDerek Fisher LAL 05/05/2000 LAL vs. SAC W 24 8 4 6 66.7 0 1 0.0 0 0 - 0 2 2 2 1 1 1 5 6
p199
aVRick Fox LAL 05/05/2000 LAL vs. SAC W 16 9 3 6 50.0 1 2 50.0 2 2 100.0 2 3 5 3 1 0 1 4 0
p200
aVBrian Shaw LAL 05/02/2000 LAL @ SAC L 23 2 1 6 16.7 0 3 0.0 0 0 - 2 5 7 2 1 0 0 2 -6
p201
aVRon Harper LAL 05/02/2000 LAL @ SAC L 29 6 3 9 33.3 0 4 0.0 0 0 - 2 4 6 4 0 1 1 2 -11
p202
aVShaquille O'Neal LAL 05/02/2000 LAL @ SAC L 46 25 10 22 45.5 0 0 - 5 12 41.7 4 12 16 0 0 1 3 3 -15
p203
aVRobert Horry LAL 05/02/2000 LAL @ SAC L 21 4 1 4 25.0 1 1 100.0 1 2 50.0 3 4 7 0 1 0 1 3 -2
p204
aVRick Fox LAL 05/02/2000 LAL @ SAC L 5 0 0 0 - 0 0 - 0 0 - 0 1 1 0 0 0 0 1 1
p205
aVKobe Bryant LAL 05/02/2000 LAL @ SAC L 45 32 13 30 43.3 0 3 0.0 6 8 75.0 2 4 6 4 2 0 7 4 -10
p206
aVGlen Rice LAL 05/02/2000 LAL @ SAC L 40 17 4 12 33.3 2 6 33.3 7 7 100.0 0 7 7 2 2 0 1 4 -13
p207
aVA.C. Green LAL 05/02/2000 LAL @ SAC L 26 0 0 3 0.0 0 0 - 0 0 - 1 0 1 0 1 0 0 1 -11
p208
aVJohn Salley LAL 05/02/2000 LAL @ SAC L 0 0 0 0 - 0 0 - 0 0 - 0 0 0 0 0 0 0 1 1
p209
aVTravis Knight LAL 05/02/2000 LAL @ SAC L 1 2 1 1 100.0 0 0 - 0 0 - 0 0 0 0 0 1 0 0 1
p210
aVDevean George LAL 04/30/2000 LAL @ SAC L 3 4 1 1 100.0 1 1 100.0 1 2 50.0 1 0 1 0 0 0 0 1 7
p211
aVKobe Bryant LAL 04/30/2000 LAL @ SAC L 37 35 13 25 52.0 2 6 33.3 7 9 77.8 1 2 3 2 2 0 2 5 -12
p212
aVJohn Salley LAL 04/30/2000 LAL @ SAC L 5 2 1 1 100.0 0 0 - 0 0 - 1 0 1 1 0 1 0 2 3
p213
aVGlen Rice LAL 04/30/2000 LAL @ SAC L 41 13 5 13 38.5 1 3 33.3 2 3 66.7 0 2 2 2 0 0 4 2 -8
p214
aVDerek Fisher LAL 04/30/2000 LAL @ SAC L 6 0 0 3 0.0 0 0 - 0 0 - 0 1 1 0 1 0 1 1 9
p215
aVBrian Shaw LAL 04/30/2000 LAL @ SAC L 17 3 1 2 50.0 1 1 100.0 0 0 - 0 1 1 3 0 0 0 2 -8
p216
aVRick Fox LAL 04/30/2000 LAL @ SAC L 5 0 0 3 0.0 0 1 0.0 0 0 - 0 2 2 0 0 0 0 3 -4
p217
aVRobert Horry LAL 04/30/2000 LAL @ SAC L 23 2 1 3 33.3 0 0 - 0 2 0.0 3 3 6 1 0 1 2 6 -17
p218
aVShaquille O'Neal LAL 04/30/2000 LAL @ SAC L 41 21 8 22 36.4 0 0 - 5 14 35.7 6 11 17 3 0 1 1 3 -8
p219
aVRon Harper LAL 04/30/2000 LAL @ SAC L 33 7 3 8 37.5 0 0 - 1 2 50.0 1 4 5 4 1 0 2 1 -5
p220
aVA.C. Green LAL 04/30/2000 LAL @ SAC L 24 4 2 5 40.0 0 0 - 0 0 - 5 4 9 1 2 0 0 3 3
p221
aVRick Fox LAL 04/27/2000 LAL vs. SAC W 14 11 4 8 50.0 2 3 66.7 1 2 50.0 1 0 1 0 0 0 0 2 5
p222
aVGlen Rice LAL 04/27/2000 LAL vs. SAC W 30 18 5 10 50.0 0 1 0.0 8 9 88.9 1 2 3 3 0 0 0 1 24
p223
aVShaquille O'Neal LAL 04/27/2000 LAL vs. SAC W 37 23 9 15 60.0 0 0 - 5 11 45.5 5 14 19 6 1 3 2 2 30
p224
aVA.C. Green LAL 04/27/2000 LAL vs. SAC W 24 4 2 6 33.3 0 0 - 0 0 - 4 3 7 1 1 0 0 3 13
p225
aVRon Harper LAL 04/27/2000 LAL vs. SAC W 23 8 3 10 30.0 0 3 0.0 2 2 100.0 1 1 2 4 2 0 1 4 23
p226
aVDevean George LAL 04/27/2000 LAL vs. SAC W 3 0 0 1 0.0 0 0 - 0 0 - 0 0 0 0 0 0 0 0 -5
p227
aVJohn Salley LAL 04/27/2000 LAL vs. SAC W 10 0 0 1 0.0 0 0 - 0 0 - 0 1 1 1 0 0 1 1 -6
p228
aVTravis Knight LAL 04/27/2000 LAL vs. SAC W 3 0 0 1 0.0 0 0 - 0 0 - 0 0 0 0 0 0 0 0 -5
p229
aVRobert Horry LAL 04/27/2000 LAL vs. SAC W 20 6 2 4 50.0 1 2 50.0 1 2 50.0 2 5 7 2 0 1 0 3 16
p230
aVDerek Fisher LAL 04/27/2000 LAL vs. SAC W 12 7 3 4 75.0 0 0 - 1 1 100.0 0 1 1 3 0 0 0 0 11
p231
aVKobe Bryant LAL 04/27/2000 LAL vs. SAC W 36 32 12 20 60.0 3 3 100.0 5 6 83.3 0 4 4 1 2 0 1 2 17
p232
aVBrian Shaw LAL 04/27/2000 LAL vs. SAC W 22 4 1 4 25.0 0 2 0.0 2 2 100.0 0 3 3 4 1 1 1 3 -3
p233
aVRon Harper LAL 04/23/2000 LAL vs. SAC W 32 7 3 6 50.0 0 0 - 1 2 50.0 6 3 9 4 2 0 2 4 15
p234
aVJohn Salley LAL 04/23/2000 LAL vs. SAC W 0 0 0 0 - 0 0 - 0 0 - 0 1 1 0 0 0 0 0 -3
p235
aVTravis Knight LAL 04/23/2000 LAL vs. SAC W 1 0 0 0 - 0 0 - 0 0 - 0 0 0 0 0 0 0 1 -3
p236
aVKobe Bryant LAL 04/23/2000 LAL vs. SAC W 38 23 11 22 50.0 0 1 0.0 1 2 50.0 5 2 7 5 0 0 3 5 4
p237
aVRobert Horry LAL 04/23/2000 LAL vs. SAC W 23 8 3 8 37.5 2 4 50.0 0 0 - 0 1 1 2 0 2 1 2 2
p238
aVRick Fox LAL 04/23/2000 LAL vs. SAC W 13 0 0 3 0.0 0 0 - 0 0 - 2 1 3 2 0 0 0 3 -5
p239
aVDerek Fisher LAL 04/23/2000 LAL vs. SAC W 10 3 1 3 33.3 0 1 0.0 1 2 50.0 0 0 0 1 1 0 1 1 8
p240
aVBrian Shaw LAL 04/23/2000 LAL vs. SAC W 14 6 3 4 75.0 0 0 - 0 0 - 0 2 2 5 1 1 1 0 -5
p241
aVGlen Rice LAL 04/23/2000 LAL vs. SAC W 39 18 7 12 58.3 1 2 50.0 3 3 100.0 0 7 7 4 1 1 1 3 17
p242
aVA.C. Green LAL 04/23/2000 LAL vs. SAC W 20 6 3 8 37.5 0 0 - 0 0 - 5 1 6 0 0 0 1 0 4
p243
aVShaquille O'Neal LAL 04/23/2000 LAL vs. SAC W 45 46 21 33 63.6 0 0 - 4 5 80.0 7 10 17 1 2 5 2 5 16
p244
aVDevean George LAL 04/23/2000 LAL vs. SAC W 0 0 0 0 - 0 0 - 0 0 - 0 1 1 0 0 0 0 0 0
p245
a.