(lp0
VPLAYER TEAM DATE MATCHUP W/L MIN PTS FGM FGA FG% 3PM 3PA 3P% FTM FTA FT% OREB DREB REB AST STL BLK TOV PF +/-
p1
aVDavid Wesley CHH 05/01/2000 CHH @ PHI L 34 5 2 11 18.2 1 2 50.0 0 0 - 1 2 3 5 1 0 1 5 -10
p2
aVAnthony Mason CHH 05/01/2000 CHH @ PHI L 45 21 8 15 53.3 0 1 0.0 5 6 83.3 6 4 10 6 1 0 2 2 -2
p3
aVBaron Davis CHH 05/01/2000 CHH @ PHI L 13 6 2 5 40.0 0 1 0.0 2 2 100.0 0 2 2 3 1 0 1 3 2
p4
aVElden Campbell CHH 05/01/2000 CHH @ PHI L 44 21 7 19 36.8 0 1 0.0 7 8 87.5 4 7 11 2 0 1 2 5 -8
p5
aVBrad Miller CHH 05/01/2000 CHH @ PHI L 7 7 2 3 66.7 0 0 - 3 3 100.0 2 1 3 0 0 0 0 2 0
p6
aVDerrick Coleman CHH 05/01/2000 CHH @ PHI L 43 18 8 16 50.0 1 4 25.0 1 4 25.0 3 8 11 3 2 5 3 6 -2
p7
aVEddie Robinson CHH 05/01/2000 CHH @ PHI L 3 4 1 2 50.0 0 0 - 2 2 100.0 0 0 0 0 0 0 0 0 -2
p8
aVEddie Jones CHH 05/01/2000 CHH @ PHI L 46 17 6 10 60.0 2 4 50.0 3 3 100.0 0 4 4 8 1 0 0 2 -8
p9
aVElden Campbell CHH 04/28/2000 CHH @ PHI L 35 14 4 8 50.0 0 0 - 6 6 100.0 1 3 4 0 1 1 1 4 -5
p10
aVEddie Jones CHH 04/28/2000 CHH @ PHI L 41 18 5 18 27.8 2 8 25.0 6 7 85.7 0 4 4 2 5 0 2 3 2
p11
aVEddie Robinson CHH 04/28/2000 CHH @ PHI L 13 4 2 4 50.0 0 0 - 0 0 - 1 0 1 1 2 0 1 0 1
p12
aVDerrick Coleman CHH 04/28/2000 CHH @ PHI L 39 11 3 8 37.5 1 2 50.0 4 4 100.0 2 15 17 3 0 1 6 3 -10
p13
aVDavid Wesley CHH 04/28/2000 CHH @ PHI L 36 14 5 14 35.7 0 3 0.0 4 4 100.0 0 2 2 3 1 0 1 4 -3
p14
aVBrad Miller CHH 04/28/2000 CHH @ PHI L 10 3 1 2 50.0 0 0 - 1 2 50.0 2 0 2 0 0 0 2 4 0
p15
aVBaron Davis CHH 04/28/2000 CHH @ PHI L 17 11 5 10 50.0 1 2 50.0 0 0 - 1 0 1 0 1 0 0 0 -5
p16
aVAnthony Mason CHH 04/28/2000 CHH @ PHI L 45 1 0 7 0.0 0 0 - 1 2 50.0 2 7 9 7 1 0 4 5 -5
p17
aVElden Campbell CHH 04/24/2000 CHH vs. PHI W 44 20 10 16 62.5 0 0 - 0 0 - 4 10 14 1 0 1 1 5 22
p18
aVEddie Jones CHH 04/24/2000 CHH vs. PHI W 49 19 7 18 38.9 3 6 50.0 2 2 100.0 3 5 8 8 2 1 1 2 5
p19
aVDerrick Coleman CHH 04/24/2000 CHH vs. PHI W 43 29 10 15 66.7 1 3 33.3 8 9 88.9 0 6 6 7 1 4 2 1 2
p20
aVDavid Wesley CHH 04/24/2000 CHH vs. PHI W 43 11 4 12 33.3 2 4 50.0 1 1 100.0 0 4 4 7 4 0 3 4 7
p21
aVAnthony Mason CHH 04/24/2000 CHH vs. PHI W 42 14 6 9 66.7 0 0 - 2 2 100.0 2 3 5 6 1 0 3 2 7
p22
aVBaron Davis CHH 04/24/2000 CHH vs. PHI W 12 4 2 4 50.0 0 1 0.0 0 0 - 1 1 2 3 1 0 0 0 8
p23
aVBrad Miller CHH 04/24/2000 CHH vs. PHI W 17 7 3 4 75.0 0 0 - 1 2 50.0 1 1 2 1 0 1 2 2 -4
p24
aVEddie Robinson CHH 04/24/2000 CHH vs. PHI W 10 4 2 5 40.0 0 0 - 0 0 - 0 0 0 3 0 0 0 1 3
p25
aVDerrick Coleman CHH 04/22/2000 CHH vs. PHI L 41 23 6 18 33.3 2 7 28.6 9 11 81.8 5 11 16 1 0 2 2 1 -11
p26
aVBrad Miller CHH 04/22/2000 CHH vs. PHI L 26 13 3 8 37.5 0 0 - 7 8 87.5 3 3 6 2 0 2 5 3 0
p27
aVElden Campbell CHH 04/22/2000 CHH vs. PHI L 25 2 1 4 25.0 0 0 - 0 0 - 0 4 4 1 1 1 4 2 -4
p28
aVEddie Jones CHH 04/22/2000 CHH vs. PHI L 33 14 4 12 33.3 2 8 25.0 4 4 100.0 1 3 4 1 2 2 2 5 3
p29
aVAnthony Mason CHH 04/22/2000 CHH vs. PHI L 44 14 4 7 57.1 0 0 - 6 10 60.0 6 9 15 3 1 0 4 4 -5
p30
aVEddie Robinson CHH 04/22/2000 CHH vs. PHI L 17 0 0 1 0.0 0 0 - 0 0 - 0 2 2 0 0 1 0 1 -20
p31
aVBaron Davis CHH 04/22/2000 CHH vs. PHI L 14 2 1 4 25.0 0 2 0.0 0 2 0.0 1 0 1 0 1 0 2 3 -4
p32
aVDavid Wesley CHH 04/22/2000 CHH vs. PHI L 36 14 5 11 45.5 0 1 0.0 4 4 100.0 2 1 3 4 2 0 1 4 -9
p33
a.