(lp0
VPLAYER TEAM DATE MATCHUP W/L MIN PTS FGM FGA FG% 3PM 3PA 3P% FTM FTA FT% OREB DREB REB AST STL BLK TOV PF +/-
p1
aVCorie Blount PHX 05/16/2000 PHX @ LAL L 13 0 0 2 0.0 0 0 - 0 0 - 3 2 5 1 0 0 1 2 -16
p2
aVShawn Marion PHX 05/16/2000 PHX @ LAL L 30 7 2 11 18.2 0 3 0.0 3 4 75.0 0 7 7 1 2 1 1 0 -23
p3
aVClifford Robinson PHX 05/16/2000 PHX @ LAL L 31 8 3 11 27.3 1 5 20.0 1 3 33.3 2 1 3 4 2 0 1 4 -5
p4
aVToby Bailey PHX 05/16/2000 PHX @ LAL L 5 0 0 0 - 0 0 - 0 0 - 0 0 0 1 0 0 0 1 2
p5
aVJason Kidd PHX 05/16/2000 PHX @ LAL L 39 8 3 13 23.1 1 5 20.0 1 1 100.0 1 6 7 2 1 0 5 4 -22
p6
aVAnfernee Hardaway PHX 05/16/2000 PHX @ LAL L 39 8 1 9 11.1 0 0 - 6 8 75.0 2 1 3 2 0 1 3 5 -21
p7
aVOliver Miller PHX 05/16/2000 PHX @ LAL L 5 1 0 0 - 0 0 - 1 2 50.0 0 2 2 0 0 0 0 1 2
p8
aVRodney Rogers PHX 05/16/2000 PHX @ LAL L 27 9 3 8 37.5 0 1 0.0 3 3 100.0 1 7 8 3 1 1 4 2 -16
p9
aVRandy Livingston PHX 05/16/2000 PHX @ LAL L 5 8 3 6 50.0 2 2 100.0 0 0 - 0 0 0 0 0 0 0 1 2
p10
aVKevin Johnson PHX 05/16/2000 PHX @ LAL L 3 2 1 3 33.3 0 0 - 0 0 - 0 0 0 0 0 0 0 0 -2
p11
aVTodd Day PHX 05/16/2000 PHX @ LAL L 20 10 5 9 55.6 0 2 0.0 0 0 - 2 0 2 0 2 0 0 4 -1
p12
aVLuc Longley PHX 05/16/2000 PHX @ LAL L 18 4 2 8 25.0 0 0 - 0 0 - 1 5 6 1 1 1 0 4 -10
p13
aVAnfernee Hardaway PHX 05/14/2000 PHX vs. LAL W 36 16 7 17 41.2 0 1 0.0 2 5 40.0 1 2 3 6 3 1 1 2 13
p14
aVShawn Marion PHX 05/14/2000 PHX vs. LAL W 34 12 6 14 42.9 0 0 - 0 0 - 4 4 8 3 0 1 1 4 5
p15
aVCorie Blount PHX 05/14/2000 PHX vs. LAL W 19 7 3 4 75.0 0 0 - 1 1 100.0 3 3 6 0 0 0 3 5 25
p16
aVTodd Day PHX 05/14/2000 PHX vs. LAL W 18 5 2 3 66.7 1 2 50.0 0 2 0.0 0 2 2 2 0 0 2 4 4
p17
aVJason Kidd PHX 05/14/2000 PHX vs. LAL W 36 22 8 13 61.5 4 6 66.7 2 3 66.7 2 8 10 16 2 0 3 3 28
p18
aVClifford Robinson PHX 05/14/2000 PHX vs. LAL W 35 32 10 17 58.8 3 5 60.0 9 12 75.0 4 5 9 0 1 1 3 4 23
p19
aVOliver Miller PHX 05/14/2000 PHX vs. LAL W 1 0 0 1 0.0 0 1 0.0 0 0 - 0 1 1 0 0 0 0 1 -2
p20
aVRodney Rogers PHX 05/14/2000 PHX vs. LAL W 29 17 6 11 54.5 2 6 33.3 3 4 75.0 1 2 3 2 0 1 1 4 8
p21
aVLuc Longley PHX 05/14/2000 PHX vs. LAL W 12 2 1 1 100.0 0 0 - 0 0 - 1 0 1 1 0 0 1 6 -2
p22
aVRandy Livingston PHX 05/14/2000 PHX vs. LAL W 3 2 1 1 100.0 0 0 - 0 0 - 0 0 0 0 0 0 0 0 -3
p23
aVToby Bailey PHX 05/14/2000 PHX vs. LAL W 3 0 0 1 0.0 0 0 - 0 0 - 0 1 1 1 0 0 0 0 -3
p24
aVKevin Johnson PHX 05/14/2000 PHX vs. LAL W 8 2 1 3 33.3 0 0 - 0 0 - 0 0 0 0 1 0 0 0 -1
p25
aVLuc Longley PHX 05/12/2000 PHX vs. LAL L 24 12 6 9 66.7 0 0 - 0 0 - 2 1 3 1 1 0 1 5 2
p26
aVRodney Rogers PHX 05/12/2000 PHX vs. LAL L 26 15 5 12 41.7 0 4 0.0 5 6 83.3 1 6 7 0 0 0 0 6 -12
p27
aVClifford Robinson PHX 05/12/2000 PHX vs. LAL L 38 23 8 17 47.1 3 6 50.0 4 7 57.1 3 6 9 0 1 0 1 4 0
p28
aVOliver Miller PHX 05/12/2000 PHX vs. LAL L 7 0 0 3 0.0 0 2 0.0 0 0 - 0 1 1 0 0 0 0 2 -3
p29
aVKevin Johnson PHX 05/12/2000 PHX vs. LAL L 6 3 1 1 100.0 0 0 - 1 2 50.0 0 0 0 1 0 0 1 1 -8
p30
aVShawn Marion PHX 05/12/2000 PHX vs. LAL L 32 6 2 7 28.6 0 0 - 2 2 100.0 1 6 7 0 1 2 1 2 -4
p31
aVCorie Blount PHX 05/12/2000 PHX vs. LAL L 11 2 0 0 - 0 0 - 2 4 50.0 0 3 3 0 0 0 0 3 -2
p32
aVAnfernee Hardaway PHX 05/12/2000 PHX vs. LAL L 46 31 11 15 73.3 0 1 0.0 9 11 81.8 0 4 4 8 2 0 3 4 -5
p33
aVJason Kidd PHX 05/12/2000 PHX vs. LAL L 39 4 1 9 11.1 0 4 0.0 2 2 100.0 3 3 6 12 1 0 2 2 -2
p34
aVTodd Day PHX 05/12/2000 PHX vs. LAL L 6 3 1 4 25.0 1 2 50.0 0 0 - 0 0 0 0 0 0 0 5 4
p35
aVJason Kidd PHX 05/10/2000 PHX @ LAL L 43 13 5 9 55.6 2 3 66.7 1 1 100.0 1 7 8 6 2 0 3 2 4
p36
aVTodd Day PHX 05/10/2000 PHX @ LAL L 4 2 1 2 50.0 0 0 - 0 0 - 0 0 0 0 0 0 0 1 -5
p37
aVAnfernee Hardaway PHX 05/10/2000 PHX @ LAL L 45 27 9 17 52.9 0 1 0.0 9 11 81.8 2 2 4 8 2 1 0 4 5
p38
aVKevin Johnson PHX 05/10/2000 PHX @ LAL L 5 0 0 1 0.0 0 1 0.0 0 0 - 0 0 0 1 0 0 0 0 -5
p39
aVCorie Blount PHX 05/10/2000 PHX @ LAL L 16 3 1 3 33.3 0 0 - 1 2 50.0 6 3 9 0 0 0 0 5 3
p40
aVClifford Robinson PHX 05/10/2000 PHX @ LAL L 44 30 12 25 48.0 3 8 37.5 3 4 75.0 1 1 2 2 2 0 3 3 4
p41
aVRodney Rogers PHX 05/10/2000 PHX @ LAL L 26 8 3 11 27.3 0 3 0.0 2 2 100.0 2 5 7 0 1 0 3 4 2
p42
aVShawn Marion PHX 05/10/2000 PHX @ LAL L 25 9 4 6 66.7 0 0 - 1 2 50.0 3 6 9 0 0 0 0 2 -9
p43
aVLuc Longley PHX 05/10/2000 PHX @ LAL L 31 4 2 11 18.2 0 0 - 0 0 - 2 2 4 3 1 0 3 5 -4
p44
aVJason Kidd PHX 05/07/2000 PHX @ LAL L 38 3 1 6 16.7 0 3 0.0 1 2 50.0 0 7 7 7 2 1 5 1 -24
p45
aVClifford Robinson PHX 05/07/2000 PHX @ LAL L 31 13 4 11 36.4 1 3 33.3 4 4 100.0 3 2 5 0 0 0 2 5 -23
p46
aVRandy Livingston PHX 05/07/2000 PHX @ LAL L 4 0 0 4 0.0 0 2 0.0 0 0 - 0 0 0 0 0 0 0 0 -7
p47
aVLuc Longley PHX 05/07/2000 PHX @ LAL L 17 4 2 6 33.3 0 0 - 0 1 0.0 1 2 3 1 0 0 4 3 -15
p48
aVRodney Rogers PHX 05/07/2000 PHX @ LAL L 28 7 3 13 23.1 0 5 0.0 1 3 33.3 1 5 6 1 1 2 3 4 -8
p49
aVKevin Johnson PHX 05/07/2000 PHX @ LAL L 12 4 1 3 33.3 0 0 - 2 2 100.0 0 1 1 2 0 0 2 0 -3
p50
aVOliver Miller PHX 05/07/2000 PHX @ LAL L 6 1 0 1 0.0 0 0 - 1 2 50.0 1 1 2 0 0 1 0 0 -2
p51
aVCorie Blount PHX 05/07/2000 PHX @ LAL L 14 4 2 3 66.7 0 0 - 0 0 - 2 5 7 0 1 0 2 4 -8
p52
aVTodd Day PHX 05/07/2000 PHX @ LAL L 10 0 0 1 0.0 0 1 0.0 0 0 - 0 0 0 1 1 0 1 2 -10
p53
aVToby Bailey PHX 05/07/2000 PHX @ LAL L 4 4 1 1 100.0 0 0 - 2 4 50.0 1 0 1 0 0 0 0 0 -7
p54
aVAnfernee Hardaway PHX 05/07/2000 PHX @ LAL L 39 25 9 18 50.0 2 4 50.0 5 7 71.4 2 2 4 4 0 2 4 3 -21
p55
aVShawn Marion PHX 05/07/2000 PHX @ LAL L 31 12 5 10 50.0 0 0 - 2 2 100.0 3 3 6 2 1 0 0 3 -12
p56
aVLuc Longley PHX 05/02/2000 PHX vs. SAS W 17 6 2 6 33.3 0 0 - 2 2 100.0 1 2 3 0 1 0 0 3 -5
p57
aVToby Bailey PHX 05/02/2000 PHX vs. SAS W 0 0 0 1 0.0 0 0 - 0 0 - 0 0 0 0 0 0 0 0 -2
p58
aVKevin Johnson PHX 05/02/2000 PHX vs. SAS W 20 2 1 3 33.3 0 0 - 0 0 - 0 2 2 4 0 0 1 4 6
p59
aVJason Kidd PHX 05/02/2000 PHX vs. SAS W 31 9 4 5 80.0 1 1 100.0 0 0 - 1 1 2 10 3 0 5 2 10
p60
aVShawn Marion PHX 05/02/2000 PHX vs. SAS W 31 8 4 7 57.1 0 0 - 0 0 - 1 9 10 0 0 2 2 3 1
p61
aVTodd Day PHX 05/02/2000 PHX vs. SAS W 8 0 0 2 0.0 0 1 0.0 0 0 - 0 1 1 1 0 0 0 3 3
p62
aVAnfernee Hardaway PHX 05/02/2000 PHX vs. SAS W 45 23 9 18 50.0 1 4 25.0 4 7 57.1 0 7 7 4 1 1 6 2 12
p63
aVRandy Livingston PHX 05/02/2000 PHX vs. SAS W 0 0 0 1 0.0 0 0 - 0 0 - 1 0 1 0 0 0 0 0 -2
p64
aVRodney Rogers PHX 05/02/2000 PHX vs. SAS W 32 23 9 15 60.0 1 4 25.0 4 6 66.7 2 8 10 3 2 1 0 1 23
p65
aVClifford Robinson PHX 05/02/2000 PHX vs. SAS W 30 10 4 17 23.5 0 2 0.0 2 4 50.0 3 3 6 1 1 3 2 4 -2
p66
aVCorie Blount PHX 05/02/2000 PHX vs. SAS W 21 8 4 5 80.0 0 0 - 0 0 - 3 4 7 2 1 1 2 5 11
p67
aVRandy Livingston PHX 04/29/2000 PHX vs. SAS W 4 0 0 3 0.0 0 0 - 0 0 - 0 0 0 0 0 0 0 2 -11
p68
aVAnfernee Hardaway PHX 04/29/2000 PHX vs. SAS W 46 17 5 14 35.7 0 0 - 7 8 87.5 6 6 12 13 4 2 4 4 10
p69
aVClifford Robinson PHX 04/29/2000 PHX vs. SAS W 35 14 6 12 50.0 1 3 33.3 1 2 50.0 0 7 7 5 1 1 1 4 11
p70
aVKevin Johnson PHX 04/29/2000 PHX vs. SAS W 26 10 4 8 50.0 0 0 - 2 2 100.0 0 2 2 6 1 0 4 3 0
p71
aVOliver Miller PHX 04/29/2000 PHX vs. SAS W 3 2 1 1 100.0 0 0 - 0 0 - 0 0 0 0 0 0 0 1 0
p72
aVLuc Longley PHX 04/29/2000 PHX vs. SAS W 15 4 2 5 40.0 0 0 - 0 0 - 1 1 2 1 0 1 0 3 -4
p73
aVRodney Rogers PHX 04/29/2000 PHX vs. SAS W 36 15 6 16 37.5 2 4 50.0 1 2 50.0 2 4 6 4 3 2 1 4 15
p74
aVTodd Day PHX 04/29/2000 PHX vs. SAS W 18 16 4 9 44.4 3 6 50.0 5 8 62.5 4 1 5 0 1 1 0 2 15
p75
aVCorie Blount PHX 04/29/2000 PHX vs. SAS W 13 7 3 3 100.0 0 0 - 1 1 100.0 0 2 2 0 1 1 2 4 -3
p76
aVShawn Marion PHX 04/29/2000 PHX vs. SAS W 39 16 7 16 43.8 1 2 50.0 1 1 100.0 7 7 14 0 0 2 2 1 2
p77
aVLuc Longley PHX 04/25/2000 PHX @ SAS L 8 0 0 1 0.0 0 0 - 0 0 - 0 2 2 0 0 0 0 4 1
p78
aVAnfernee Hardaway PHX 04/25/2000 PHX @ SAS L 44 19 9 21 42.9 1 6 16.7 0 3 0.0 0 2 2 2 1 1 2 5 -13
p79
aVRodney Rogers PHX 04/25/2000 PHX @ SAS L 30 18 6 15 40.0 2 5 40.0 4 5 80.0 4 6 10 0 0 3 1 1 -3
p80
aVKevin Johnson PHX 04/25/2000 PHX @ SAS L 20 4 2 9 22.2 0 1 0.0 0 0 - 0 4 4 3 0 1 3 0 -5
p81
aVOliver Miller PHX 04/25/2000 PHX @ SAS L 3 0 0 1 0.0 0 0 - 0 0 - 0 0 0 0 0 0 2 2 -10
p82
aVClifford Robinson PHX 04/25/2000 PHX @ SAS L 44 11 3 17 17.6 0 4 0.0 5 5 100.0 1 4 5 3 1 1 2 4 -13
p83
aVRandy Livingston PHX 04/25/2000 PHX @ SAS L 23 2 1 6 16.7 0 1 0.0 0 0 - 1 2 3 1 2 0 1 2 -11
p84
aVToby Bailey PHX 04/25/2000 PHX @ SAS L 0 0 0 1 0.0 0 0 - 0 0 - 0 0 0 0 0 0 0 0 0
p85
aVTodd Day PHX 04/25/2000 PHX @ SAS L 7 6 3 4 75.0 0 1 0.0 0 0 - 0 0 0 0 0 0 0 2 -1
p86
aVShawn Marion PHX 04/25/2000 PHX @ SAS L 26 2 1 5 20.0 0 0 - 0 0 - 2 7 9 0 1 4 0 1 -19
p87
aVCorie Blount PHX 04/25/2000 PHX @ SAS L 31 8 3 6 50.0 0 0 - 2 6 33.3 6 5 11 0 2 1 3 5 -1
p88
aVClifford Robinson PHX 04/22/2000 PHX @ SAS W 41 17 6 18 33.3 1 4 25.0 4 4 100.0 1 7 8 4 2 1 3 3 1
p89
aVTodd Day PHX 04/22/2000 PHX @ SAS W 5 0 0 1 0.0 0 1 0.0 0 0 - 0 0 0 0 0 0 1 1 -3
p90
aVRodney Rogers PHX 04/22/2000 PHX @ SAS W 24 15 7 14 50.0 1 4 25.0 0 0 - 2 2 4 1 2 0 2 5 3
p91
aVOliver Miller PHX 04/22/2000 PHX @ SAS W 10 2 1 2 50.0 0 0 - 0 0 - 1 1 2 1 0 1 0 1 0
p92
aVKevin Johnson PHX 04/22/2000 PHX @ SAS W 24 2 1 6 16.7 0 1 0.0 0 0 - 0 4 4 6 1 0 2 2 5
p93
aVAnfernee Hardaway PHX 04/22/2000 PHX @ SAS W 42 17 7 16 43.8 1 2 50.0 2 2 100.0 1 4 5 4 1 0 2 0 5
p94
aVLuc Longley PHX 04/22/2000 PHX @ SAS W 16 2 1 4 25.0 0 0 - 0 0 - 3 3 6 0 0 2 1 3 -4
p95
aVCorie Blount PHX 04/22/2000 PHX @ SAS W 21 5 1 5 20.0 0 0 - 3 4 75.0 2 4 6 0 1 3 0 3 6
p96
aVShawn Marion PHX 04/22/2000 PHX @ SAS W 29 10 5 10 50.0 0 1 0.0 0 0 - 0 9 9 1 1 2 0 1 0
p97
aVRandy Livingston PHX 04/22/2000 PHX @ SAS W 23 2 1 6 16.7 0 1 0.0 0 0 - 0 3 3 3 2 1 3 1 -3
p98
a.