(lp0
VPLAYER TEAM DATE MATCHUP W/L MIN PTS FGM FGA FG% 3PM 3PA 3P% FTM FTA FT% OREB DREB REB AST STL BLK TOV PF +/-
p1
aVJacque Vaughn UTA 05/03/2001 UTA vs. DAL L 5 0 0 2 0.0 0 0 - 0 0 - 0 0 0 1 0 0 0 0 -2
p2
aVJohn Starks UTA 05/03/2001 UTA vs. DAL L 17 7 2 6 33.3 1 3 33.3 2 2 100.0 0 2 2 1 0 0 0 1 -4
p3
aVKarl Malone UTA 05/03/2001 UTA vs. DAL L 37 24 9 28 32.1 0 0 - 6 8 75.0 3 7 10 2 0 1 2 2 -5
p4
aVDanny Manning UTA 05/03/2001 UTA vs. DAL L 17 4 2 7 28.6 0 0 - 0 0 - 1 3 4 0 0 1 1 4 1
p5
aVJohn Crotty UTA 05/03/2001 UTA vs. DAL L 4 2 0 0 - 0 0 - 2 2 100.0 0 0 0 0 1 0 0 2 1
p6
aVDonyell Marshall UTA 05/03/2001 UTA vs. DAL L 34 11 4 7 57.1 0 1 0.0 3 4 75.0 1 6 7 1 0 2 1 5 1
p7
aVOlden Polynice UTA 05/03/2001 UTA vs. DAL L 27 12 5 10 50.0 0 0 - 2 2 100.0 4 0 4 0 0 0 2 4 -2
p8
aVJohn Stockton UTA 05/03/2001 UTA vs. DAL L 40 4 2 4 50.0 0 0 - 0 0 - 2 1 3 11 4 1 0 4 0
p9
aVGreg Ostertag UTA 05/03/2001 UTA vs. DAL L 11 4 2 3 66.7 0 0 - 0 0 - 1 3 4 0 0 0 0 0 8
p10
aVBryon Russell UTA 05/03/2001 UTA vs. DAL L 45 15 5 12 41.7 2 6 33.3 3 4 75.0 0 5 5 3 0 0 0 1 1
p11
aVDavid Benoit UTA 05/03/2001 UTA vs. DAL L 3 0 0 0 - 0 0 - 0 0 - 0 1 1 0 0 0 0 1 -4
p12
aVGreg Ostertag UTA 05/01/2001 UTA @ DAL L 17 2 1 3 33.3 0 0 - 0 4 0.0 1 3 4 1 0 1 2 1 -13
p13
aVKarl Malone UTA 05/01/2001 UTA @ DAL L 34 25 10 20 50.0 0 0 - 5 6 83.3 0 8 8 2 0 1 2 4 -20
p14
aVJacque Vaughn UTA 05/01/2001 UTA @ DAL L 8 0 0 2 0.0 0 1 0.0 0 0 - 0 0 0 1 0 0 0 1 -7
p15
aVJohn Starks UTA 05/01/2001 UTA @ DAL L 6 0 0 1 0.0 0 0 - 0 0 - 0 0 0 0 1 0 1 2 -18
p16
aVDeShawn Stevenson UTA 05/01/2001 UTA @ DAL L 8 2 1 2 50.0 0 0 - 0 0 - 0 1 1 0 0 0 1 0 -4
p17
aVDanny Manning UTA 05/01/2001 UTA @ DAL L 20 10 3 5 60.0 0 0 - 4 4 100.0 0 2 2 3 2 0 0 5 -6
p18
aVJohn Stockton UTA 05/01/2001 UTA @ DAL L 31 4 2 7 28.6 0 2 0.0 0 2 0.0 1 4 5 9 2 0 0 1 -19
p19
aVDonyell Marshall UTA 05/01/2001 UTA @ DAL L 27 8 4 14 28.6 0 1 0.0 0 0 - 3 6 9 1 0 1 2 4 -19
p20
aVBryon Russell UTA 05/01/2001 UTA @ DAL L 37 6 3 7 42.9 0 1 0.0 0 0 - 0 3 3 1 0 0 0 2 -20
p21
aVJohn Crotty UTA 05/01/2001 UTA @ DAL L 8 0 0 1 0.0 0 0 - 0 0 - 1 1 2 1 0 0 0 1 -4
p22
aVOlden Polynice UTA 05/01/2001 UTA @ DAL L 20 8 2 5 40.0 0 0 - 4 6 66.7 3 1 4 1 0 1 0 1 -8
p23
aVDavid Benoit UTA 05/01/2001 UTA @ DAL L 22 12 4 11 36.4 2 4 50.0 2 2 100.0 1 3 4 1 0 0 1 0 -12
p24
aVBryon Russell UTA 04/28/2001 UTA @ DAL L 44 14 6 11 54.5 2 4 50.0 0 0 - 2 6 8 5 1 1 0 4 -7
p25
aVDonyell Marshall UTA 04/28/2001 UTA @ DAL L 37 17 8 14 57.1 1 4 25.0 0 0 - 4 4 8 4 0 0 5 3 7
p26
aVJohn Stockton UTA 04/28/2001 UTA @ DAL L 36 12 6 11 54.5 0 2 0.0 0 1 0.0 2 9 11 10 0 0 2 5 9
p27
aVKarl Malone UTA 04/28/2001 UTA @ DAL L 43 29 11 28 39.3 1 2 50.0 6 8 75.0 4 9 13 6 1 1 5 4 -1
p28
aVDanny Manning UTA 04/28/2001 UTA @ DAL L 25 19 8 12 66.7 1 1 100.0 2 2 100.0 0 2 2 0 1 3 3 5 -1
p29
aVJohn Crotty UTA 04/28/2001 UTA @ DAL L 4 0 0 2 0.0 0 0 - 0 0 - 0 1 1 2 0 1 0 0 -5
p30
aVDavid Benoit UTA 04/28/2001 UTA @ DAL L 9 0 0 2 0.0 0 1 0.0 0 0 - 0 1 1 0 0 0 0 2 -6
p31
aVOlden Polynice UTA 04/28/2001 UTA @ DAL L 21 0 0 1 0.0 0 1 0.0 0 0 - 0 1 1 0 0 1 1 2 -6
p32
aVJacque Vaughn UTA 04/28/2001 UTA @ DAL L 15 0 0 2 0.0 0 0 - 0 0 - 0 1 1 2 0 1 1 5 -7
p33
aVGreg Ostertag UTA 04/28/2001 UTA @ DAL L 6 0 0 2 0.0 0 0 - 0 0 - 1 2 3 0 0 0 0 0 2
p34
aVJohn Crotty UTA 04/24/2001 UTA vs. DAL W 3 1 0 0 - 0 0 - 1 1 100.0 0 0 0 0 0 0 0 0 -1
p35
aVBryon Russell UTA 04/24/2001 UTA vs. DAL W 44 24 6 11 54.5 4 6 66.7 8 8 100.0 1 7 8 5 0 0 2 4 12
p36
aVDanny Manning UTA 04/24/2001 UTA vs. DAL W 13 4 1 3 33.3 0 0 - 2 2 100.0 0 0 0 0 0 0 1 5 10
p37
aVGreg Ostertag UTA 04/24/2001 UTA vs. DAL W 16 0 0 0 - 0 0 - 0 0 - 0 3 3 0 0 1 0 6 4
p38
aVJacque Vaughn UTA 04/24/2001 UTA vs. DAL W 9 3 1 2 50.0 1 1 100.0 0 0 - 0 0 0 4 0 0 0 4 12
p39
aVKarl Malone UTA 04/24/2001 UTA vs. DAL W 44 34 11 22 50.0 0 0 - 12 14 85.7 1 6 7 3 2 0 3 2 11
p40
aVJohn Stockton UTA 04/24/2001 UTA vs. DAL W 42 17 4 8 50.0 0 2 0.0 9 11 81.8 3 0 3 9 3 0 3 5 0
p41
aVDonyell Marshall UTA 04/24/2001 UTA vs. DAL W 25 4 1 6 16.7 0 1 0.0 2 2 100.0 0 4 4 1 1 1 0 6 -3
p42
aVOlden Polynice UTA 04/24/2001 UTA vs. DAL W 17 11 5 9 55.6 0 0 - 1 2 50.0 4 1 5 0 0 0 1 1 8
p43
aVDavid Benoit UTA 04/24/2001 UTA vs. DAL W 27 11 3 6 50.0 0 1 0.0 5 5 100.0 0 1 1 1 0 2 1 3 2
p44
aVDanny Manning UTA 04/21/2001 UTA vs. DAL W 20 12 5 7 71.4 1 1 100.0 1 4 25.0 1 2 3 0 0 0 2 2 -6
p45
aVBryon Russell UTA 04/21/2001 UTA vs. DAL W 44 12 5 15 33.3 2 5 40.0 0 0 - 1 11 12 1 2 0 0 2 5
p46
aVJacque Vaughn UTA 04/21/2001 UTA vs. DAL W 19 0 0 2 0.0 0 0 - 0 0 - 0 1 1 0 0 0 0 3 -6
p47
aVOlden Polynice UTA 04/21/2001 UTA vs. DAL W 15 8 4 5 80.0 0 0 - 0 0 - 5 0 5 0 1 0 2 4 15
p48
aVJohn Stockton UTA 04/21/2001 UTA vs. DAL W 37 12 3 7 42.9 0 2 0.0 6 7 85.7 3 3 6 18 1 2 2 4 19
p49
aVKarl Malone UTA 04/21/2001 UTA vs. DAL W 41 26 8 23 34.8 0 0 - 10 13 76.9 1 5 6 4 2 1 7 1 9
p50
aVDonyell Marshall UTA 04/21/2001 UTA vs. DAL W 37 12 5 13 38.5 0 1 0.0 2 3 66.7 5 5 10 1 1 1 1 1 -2
p51
aVGreg Ostertag UTA 04/21/2001 UTA vs. DAL W 14 2 1 3 33.3 0 0 - 0 0 - 3 1 4 0 0 0 0 3 -14
p52
aVJohn Starks UTA 04/21/2001 UTA vs. DAL W 13 4 2 5 40.0 0 1 0.0 0 0 - 0 1 1 0 0 1 1 2 -10
p53
a.