(lp0
VPLAYER TEAM DATE MATCHUP W/L MIN PTS FGM FGA FG% 3PM 3PA 3P% FTM FTA FT% OREB DREB REB AST STL BLK TOV PF +/-
p1
aVRick Fox LAL 06/15/2001 LAL @ PHI W 40 20 5 8 62.5 3 3 100.0 7 7 100.0 1 5 6 6 1 0 2 2 12
p2
aVTyronn Lue LAL 06/15/2001 LAL @ PHI W 10 0 0 1 0.0 0 0 - 0 0 - 0 1 1 1 0 0 1 2 -1
p3
aVKobe Bryant LAL 06/15/2001 LAL @ PHI W 44 26 7 18 38.9 2 3 66.7 10 11 90.9 2 10 12 6 1 1 3 3 14
p4
aVDerek Fisher LAL 06/15/2001 LAL @ PHI W 36 18 6 12 50.0 6 8 75.0 0 0 - 0 3 3 3 2 1 1 4 8
p5
aVBrian Shaw LAL 06/15/2001 LAL @ PHI W 12 2 0 2 0.0 0 0 - 2 2 100.0 0 0 0 2 1 0 0 2 0
p6
aVRobert Horry LAL 06/15/2001 LAL @ PHI W 26 7 2 5 40.0 1 3 33.3 2 2 100.0 2 4 6 1 0 2 0 4 1
p7
aVRon Harper LAL 06/15/2001 LAL @ PHI W 2 0 0 0 - 0 0 - 0 0 - 0 0 0 0 0 0 0 0 3
p8
aVMark Madsen LAL 06/15/2001 LAL @ PHI W 1 0 0 0 - 0 0 - 0 0 - 0 0 0 0 0 0 0 0 0
p9
aVShaquille O'Neal LAL 06/15/2001 LAL @ PHI W 45 29 10 18 55.6 0 0 - 9 19 47.4 6 7 13 2 0 5 5 2 12
p10
aVHorace Grant LAL 06/15/2001 LAL @ PHI W 24 6 2 7 28.6 0 0 - 2 4 50.0 3 3 6 0 1 1 0 3 11
p11
aVRobert Horry LAL 06/13/2001 LAL @ PHI W 24 9 3 4 75.0 3 3 100.0 0 0 - 1 3 4 0 0 1 0 3 3
p12
aVTyronn Lue LAL 06/13/2001 LAL @ PHI W 14 6 2 3 66.7 2 3 66.7 0 0 - 0 1 1 2 1 0 1 0 13
p13
aVHorace Grant LAL 06/13/2001 LAL @ PHI W 25 2 1 4 25.0 0 0 - 0 0 - 0 5 5 0 0 2 0 2 4
p14
aVMark Madsen LAL 06/13/2001 LAL @ PHI W 2 0 0 1 0.0 0 0 - 0 0 - 1 0 1 0 0 1 0 0 -1
p15
aVKobe Bryant LAL 06/13/2001 LAL @ PHI W 43 19 6 13 46.2 0 2 0.0 7 12 58.3 2 8 10 9 1 1 4 2 7
p16
aVRon Harper LAL 06/13/2001 LAL @ PHI W 16 8 3 5 60.0 1 2 50.0 1 1 100.0 0 4 4 2 1 1 0 2 15
p17
aVShaquille O'Neal LAL 06/13/2001 LAL @ PHI W 42 34 13 25 52.0 0 0 - 8 16 50.0 8 6 14 5 0 0 3 4 22
p18
aVDerek Fisher LAL 06/13/2001 LAL @ PHI W 34 10 4 7 57.1 2 4 50.0 0 0 - 0 1 1 1 3 0 3 3 1
p19
aVRick Fox LAL 06/13/2001 LAL @ PHI W 30 7 2 7 28.6 1 3 33.3 2 2 100.0 0 1 1 4 0 0 1 3 1
p20
aVBrian Shaw LAL 06/13/2001 LAL @ PHI W 10 5 2 3 66.7 1 2 50.0 0 1 0.0 0 2 2 1 0 0 2 3 5
p21
aVDerek Fisher LAL 06/10/2001 LAL @ PHI W 31 7 2 5 40.0 0 1 0.0 3 4 75.0 1 1 2 2 0 0 1 6 2
p22
aVTyronn Lue LAL 06/10/2001 LAL @ PHI W 17 5 2 4 50.0 1 2 50.0 0 0 - 1 0 1 1 1 0 1 2 3
p23
aVHorace Grant LAL 06/10/2001 LAL @ PHI W 29 4 2 5 40.0 0 0 - 0 0 - 3 4 7 1 0 0 0 3 -1
p24
aVRick Fox LAL 06/10/2001 LAL @ PHI W 22 3 1 3 33.3 0 1 0.0 1 2 50.0 0 3 3 2 3 0 2 2 -1
p25
aVKobe Bryant LAL 06/10/2001 LAL @ PHI W 48 32 13 30 43.3 0 2 0.0 6 6 100.0 0 6 6 3 2 0 3 2 5
p26
aVShaquille O'Neal LAL 06/10/2001 LAL @ PHI W 41 30 11 20 55.0 0 0 - 8 9 88.9 3 9 12 3 0 4 3 6 -2
p27
aVRobert Horry LAL 06/10/2001 LAL @ PHI W 24 15 4 5 80.0 3 3 100.0 4 4 100.0 1 3 4 3 1 2 1 2 10
p28
aVBrian Shaw LAL 06/10/2001 LAL @ PHI W 28 0 0 3 0.0 0 1 0.0 0 0 - 1 4 5 3 1 0 2 3 9
p29
aVRon Harper LAL 06/08/2001 LAL vs. PHI W 7 5 2 3 66.7 0 1 0.0 1 2 50.0 0 1 1 1 0 0 0 0 9
p30
aVBrian Shaw LAL 06/08/2001 LAL vs. PHI W 25 4 1 7 14.3 1 5 20.0 1 2 50.0 0 5 5 5 1 0 2 3 0
p31
aVKobe Bryant LAL 06/08/2001 LAL vs. PHI W 47 31 11 23 47.8 1 2 50.0 8 8 100.0 1 7 8 6 2 2 2 4 11
p32
aVTyronn Lue LAL 06/08/2001 LAL vs. PHI W 10 2 1 1 100.0 0 0 - 0 0 - 0 0 0 0 0 0 1 1 -8
p33
aVRick Fox LAL 06/08/2001 LAL vs. PHI W 28 0 0 4 0.0 0 2 0.0 0 0 - 1 5 6 2 0 1 5 4 -3
p34
aVRobert Horry LAL 06/08/2001 LAL vs. PHI W 26 8 4 6 66.7 0 1 0.0 0 0 - 3 4 7 1 1 0 0 3 10
p35
aVHorace Grant LAL 06/08/2001 LAL vs. PHI W 18 6 2 7 28.6 0 0 - 2 2 100.0 2 3 5 2 0 2 0 0 0
p36
aVShaquille O'Neal LAL 06/08/2001 LAL vs. PHI W 45 28 12 19 63.2 0 0 - 4 10 40.0 8 12 20 9 1 8 5 5 14
p37
aVDerek Fisher LAL 06/08/2001 LAL vs. PHI W 34 14 5 11 45.5 2 5 40.0 2 2 100.0 0 0 0 3 2 0 1 4 12
p38
aVTyronn Lue LAL 06/06/2001 LAL vs. PHI L 22 5 2 3 66.7 1 1 100.0 0 0 - 0 1 1 3 5 1 1 2 9
p39
aVRobert Horry LAL 06/06/2001 LAL vs. PHI L 27 3 1 5 20.0 1 3 33.3 0 0 - 3 1 4 1 2 2 1 5 -6
p40
aVKobe Bryant LAL 06/06/2001 LAL vs. PHI L 52 15 7 22 31.8 0 0 - 1 1 100.0 0 3 3 5 1 3 6 4 -6
p41
aVDerek Fisher LAL 06/06/2001 LAL vs. PHI L 23 0 0 4 0.0 0 1 0.0 0 0 - 0 0 0 1 1 0 0 3 -14
p42
aVRick Fox LAL 06/06/2001 LAL vs. PHI L 44 19 7 12 58.3 3 6 50.0 2 2 100.0 1 6 7 5 2 1 4 3 2
p43
aVHorace Grant LAL 06/06/2001 LAL vs. PHI L 27 8 3 11 27.3 0 0 - 2 2 100.0 4 1 5 0 1 2 2 1 0
p44
aVBrian Shaw LAL 06/06/2001 LAL vs. PHI L 18 7 3 5 60.0 1 2 50.0 0 0 - 2 2 4 3 1 0 1 1 -9
p45
aVShaquille O'Neal LAL 06/06/2001 LAL vs. PHI L 52 44 17 28 60.7 0 0 - 10 22 45.5 6 14 20 5 1 0 4 3 -6
p46
aVMark Madsen LAL 05/27/2001 LAL vs. SAS W 18 3 1 6 16.7 0 0 - 1 3 33.3 4 1 5 2 0 0 2 0 13
p47
aVBrian Shaw LAL 05/27/2001 LAL vs. SAS W 15 2 1 3 33.3 0 1 0.0 0 0 - 0 5 5 2 0 0 1 4 7
p48
aVRon Harper LAL 05/27/2001 LAL vs. SAS W 8 0 0 1 0.0 0 1 0.0 0 0 - 1 1 2 1 2 0 1 1 5
p49
aVKobe Bryant LAL 05/27/2001 LAL vs. SAS W 34 24 10 19 52.6 1 4 25.0 3 3 100.0 0 2 2 11 2 1 2 4 23
p50
aVTyronn Lue LAL 05/27/2001 LAL vs. SAS W 7 5 1 5 20.0 0 1 0.0 3 3 100.0 0 3 3 1 2 0 0 0 6
p51
aVDevean George LAL 05/27/2001 LAL vs. SAS W 4 2 1 4 25.0 0 1 0.0 0 0 - 1 0 1 0 0 0 0 0 4
p52
aVRobert Horry LAL 05/27/2001 LAL vs. SAS W 19 2 1 4 25.0 0 2 0.0 0 2 0.0 3 4 7 2 1 0 2 1 15
p53
aVShaquille O'Neal LAL 05/27/2001 LAL vs. SAS W 31 26 11 19 57.9 0 0 - 4 8 50.0 2 8 10 1 1 2 2 5 22
p54
aVDerek Fisher LAL 05/27/2001 LAL vs. SAS W 41 28 11 13 84.6 6 7 85.7 0 1 0.0 0 6 6 5 1 0 0 0 23
p55
aVHorace Grant LAL 05/27/2001 LAL vs. SAS W 28 7 1 4 25.0 0 0 - 5 6 83.3 5 2 7 2 0 1 1 4 5
p56
aVRick Fox LAL 05/27/2001 LAL vs. SAS W 35 12 4 8 50.0 3 5 60.0 1 2 50.0 0 6 6 3 1 0 2 4 22
p57
aVShaquille O'Neal LAL 05/25/2001 LAL vs. SAS W 35 35 16 23 69.6 0 0 - 3 9 33.3 6 11 17 3 0 0 4 3 21
p58
aVDerek Fisher LAL 05/25/2001 LAL vs. SAS W 37 13 5 13 38.5 2 5 40.0 1 1 100.0 1 2 3 3 1 0 1 4 32
p59
aVTyronn Lue LAL 05/25/2001 LAL vs. SAS W 11 2 1 2 50.0 0 1 0.0 0 0 - 0 3 3 0 0 0 1 0 8
p60
aVHorace Grant LAL 05/25/2001 LAL vs. SAS W 20 2 0 5 0.0 0 0 - 2 2 100.0 2 6 8 0 0 1 3 4 15
p61
aVBrian Shaw LAL 05/25/2001 LAL vs. SAS W 17 8 3 3 100.0 2 2 100.0 0 0 - 1 4 5 4 0 0 0 2 9
p62
aVDevean George LAL 05/25/2001 LAL vs. SAS W 4 0 0 0 - 0 0 - 0 0 - 0 0 0 1 0 0 1 1 5
p63
aVRick Fox LAL 05/25/2001 LAL vs. SAS W 36 11 4 7 57.1 1 2 50.0 2 2 100.0 1 5 6 0 2 1 1 3 36
p64
aVMark Madsen LAL 05/25/2001 LAL vs. SAS W 6 2 0 2 0.0 0 0 - 2 2 100.0 0 0 0 1 0 0 0 1 11
p65
aVKobe Bryant LAL 05/25/2001 LAL vs. SAS W 40 36 14 27 51.9 2 4 50.0 6 9 66.7 5 4 9 8 1 0 3 1 28
p66
aVRobert Horry LAL 05/25/2001 LAL vs. SAS W 34 2 1 10 10.0 0 4 0.0 0 0 - 6 6 12 4 2 3 1 2 30
p67
aVBrian Shaw LAL 05/21/2001 LAL @ SAS W 15 2 1 3 33.3 0 1 0.0 0 0 - 0 1 1 0 0 0 0 0 1
p68
aVKobe Bryant LAL 05/21/2001 LAL @ SAS W 47 28 11 24 45.8 1 4 25.0 5 6 83.3 1 6 7 6 2 1 2 4 5
p69
aVDerek Fisher LAL 05/21/2001 LAL @ SAS W 41 16 6 9 66.7 4 4 100.0 0 0 - 0 5 5 2 1 0 0 3 15
p70
aVShaquille O'Neal LAL 05/21/2001 LAL @ SAS W 45 19 8 21 38.1 0 0 - 3 6 50.0 4 10 14 4 0 1 4 2 11
p71
aVHorace Grant LAL 05/21/2001 LAL @ SAS W 22 6 2 4 50.0 0 0 - 2 4 50.0 1 2 3 1 0 2 0 4 -1
p72
aVRick Fox LAL 05/21/2001 LAL @ SAS W 38 11 5 12 41.7 1 5 20.0 0 0 - 2 3 5 2 4 0 0 3 7
p73
aVRobert Horry LAL 05/21/2001 LAL @ SAS W 27 6 2 5 40.0 2 4 50.0 0 2 0.0 1 4 5 2 2 1 1 2 4
p74
aVTyronn Lue LAL 05/21/2001 LAL @ SAS W 3 0 0 1 0.0 0 0 - 0 0 - 0 0 0 0 0 0 0 0 -7
p75
aVMark Madsen LAL 05/21/2001 LAL @ SAS W 2 0 0 0 - 0 0 - 0 0 - 0 1 1 0 0 0 0 1 0
p76
aVHorace Grant LAL 05/19/2001 LAL @ SAS W 21 0 0 2 0.0 0 0 - 0 0 - 1 4 5 6 3 0 1 4 16
p77
aVTyronn Lue LAL 05/19/2001 LAL @ SAS W 2 0 0 0 - 0 0 - 0 0 - 0 0 0 1 1 0 0 0 0
p78
aVBrian Shaw LAL 05/19/2001 LAL @ SAS W 18 2 1 6 16.7 0 0 - 0 0 - 4 1 5 1 0 0 0 1 -4
p79
aVDerek Fisher LAL 05/19/2001 LAL @ SAS W 38 13 5 9 55.6 3 4 75.0 0 1 0.0 0 7 7 3 2 0 1 2 17
p80
aVRick Fox LAL 05/19/2001 LAL @ SAS W 39 8 3 6 50.0 1 2 50.0 1 2 50.0 0 2 2 3 1 0 1 2 12
p81
aVKobe Bryant LAL 05/19/2001 LAL @ SAS W 47 45 19 35 54.3 1 2 50.0 6 8 75.0 1 9 10 3 1 1 4 4 17
p82
aVRobert Horry LAL 05/19/2001 LAL @ SAS W 28 8 2 7 28.6 2 6 33.3 2 4 50.0 3 6 9 5 2 3 3 4 0
p83
aVShaquille O'Neal LAL 05/19/2001 LAL @ SAS W 45 28 11 22 50.0 0 0 - 6 8 75.0 4 7 11 2 2 2 4 2 10
p84
aVMark Madsen LAL 05/19/2001 LAL @ SAS W 2 0 0 0 - 0 0 - 0 0 - 0 0 0 0 0 0 0 1 2
p85
aVMark Madsen LAL 05/13/2001 LAL @ SAC W 1 0 0 0 - 0 0 - 0 0 - 0 0 0 0 0 0 0 0 0
p86
aVDerek Fisher LAL 05/13/2001 LAL @ SAC W 33 20 6 10 60.0 2 3 66.7 6 6 100.0 0 3 3 1 1 0 1 1 3
p87
aVRick Fox LAL 05/13/2001 LAL @ SAC W 40 6 3 7 42.9 0 2 0.0 0 0 - 2 3 5 3 0 0 2 6 5
p88
aVShaquille O'Neal LAL 05/13/2001 LAL @ SAC W 38 25 9 16 56.3 0 0 - 7 13 53.8 3 7 10 2 0 2 5 6 5
p89
aVRobert Horry LAL 05/13/2001 LAL @ SAC W 24 11 3 4 75.0 2 3 66.7 3 4 75.0 0 0 0 3 3 1 2 4 4
p90
aVBrian Shaw LAL 05/13/2001 LAL @ SAC W 18 5 2 5 40.0 1 3 33.3 0 0 - 0 1 1 5 0 1 1 3 -1
p91
aVHorace Grant LAL 05/13/2001 LAL @ SAC W 34 4 1 7 14.3 0 0 - 2 2 100.0 3 3 6 0 0 0 2 3 3
p92
aVRon Harper LAL 05/13/2001 LAL @ SAC W 4 0 0 0 - 0 0 - 0 0 - 0 0 0 0 1 0 0 0 5
p93
aVKobe Bryant LAL 05/13/2001 LAL @ SAC W 48 48 15 29 51.7 1 1 100.0 17 19 89.5 9 7 16 3 2 1 2 2 6
p94
aVDevean George LAL 05/11/2001 LAL @ SAC W 3 3 1 1 100.0 0 0 - 1 2 50.0 0 0 0 0 0 0 1 0 2
p95
aVRick Fox LAL 05/11/2001 LAL @ SAC W 39 11 4 11 36.4 1 4 25.0 2 2 100.0 0 4 4 3 3 0 2 4 18
p96
aVShaquille O'Neal LAL 05/11/2001 LAL @ SAC W 35 21 8 13 61.5 0 0 - 5 14 35.7 5 13 18 1 1 1 3 5 17
p97
aVKobe Bryant LAL 05/11/2001 LAL @ SAC W 39 36 10 22 45.5 0 1 0.0 16 19 84.2 0 7 7 4 2 0 5 4 28
p98
aVHorace Grant LAL 05/11/2001 LAL @ SAC W 36 8 3 6 50.0 0 0 - 2 2 100.0 2 2 4 0 1 1 1 1 19
p99
aVTyronn Lue LAL 05/11/2001 LAL @ SAC W 4 3 1 1 100.0 1 1 100.0 0 0 - 0 0 0 0 0 0 0 0 0
p100
aVMark Madsen LAL 05/11/2001 LAL @ SAC W 4 0 0 0 - 0 0 - 0 0 - 0 0 0 0 0 1 0 0 4
p101
aVRobert Horry LAL 05/11/2001 LAL @ SAC W 20 5 2 7 28.6 1 4 25.0 0 0 - 0 6 6 1 3 0 2 4 2
p102
aVBrian Shaw LAL 05/11/2001 LAL @ SAC W 21 4 1 4 25.0 0 0 - 2 2 100.0 0 3 3 6 1 0 0 3 2
p103
aVDerek Fisher LAL 05/11/2001 LAL @ SAC W 39 12 5 10 50.0 2 3 66.7 0 0 - 0 4 4 3 1 0 0 2 18
p104
aVMark Madsen LAL 05/08/2001 LAL vs. SAC W 1 0 0 0 - 0 0 - 0 0 - 0 0 0 0 0 0 0 0 0
p105
aVRon Harper LAL 05/08/2001 LAL vs. SAC W 5 0 0 1 0.0 0 0 - 0 0 - 0 1 1 0 0 0 0 1 -4
p106
aVBrian Shaw LAL 05/08/2001 LAL vs. SAC W 14 0 0 4 0.0 0 2 0.0 0 0 - 0 3 3 3 0 0 2 4 6
p107
aVDevean George LAL 05/08/2001 LAL vs. SAC W 1 0 0 0 - 0 0 - 0 0 - 0 0 0 0 0 0 0 1 -4
p108
aVShaquille O'Neal LAL 05/08/2001 LAL vs. SAC W 47 43 18 26 69.2 0 0 - 7 13 53.8 7 13 20 2 1 3 5 2 2
p109
aVTyronn Lue LAL 05/08/2001 LAL vs. SAC W 4 0 0 1 0.0 0 0 - 0 0 - 0 0 0 0 0 0 1 1 -6
p110
aVRobert Horry LAL 05/08/2001 LAL vs. SAC W 16 1 0 3 0.0 0 0 - 1 2 50.0 1 3 4 1 2 0 1 4 -9
p111
aVHorace Grant LAL 05/08/2001 LAL vs. SAC W 33 10 4 7 57.1 0 0 - 2 4 50.0 5 6 11 1 3 0 1 3 19
p112
aVDerek Fisher LAL 05/08/2001 LAL vs. SAC W 35 6 2 13 15.4 0 5 0.0 2 4 50.0 0 3 3 3 0 0 1 3 10
p113
aVKobe Bryant LAL 05/08/2001 LAL vs. SAC W 47 27 9 19 47.4 0 2 0.0 9 10 90.0 1 8 9 5 1 1 4 4 10
p114
aVRick Fox LAL 05/08/2001 LAL vs. SAC W 37 9 3 5 60.0 0 1 0.0 3 4 75.0 1 2 3 7 1 0 2 5 6
p115
aVBrian Shaw LAL 05/06/2001 LAL vs. SAC W 14 5 2 3 66.7 1 1 100.0 0 0 - 0 1 1 1 4 0 1 1 4
p116
aVKobe Bryant LAL 05/06/2001 LAL vs. SAC W 39 29 10 23 43.5 0 1 0.0 9 11 81.8 3 1 4 5 0 0 5 4 -1
p117
aVRobert Horry LAL 05/06/2001 LAL vs. SAC W 18 9 4 5 80.0 1 1 100.0 0 0 - 1 2 3 1 0 0 0 4 1
p118
aVRick Fox LAL 05/06/2001 LAL vs. SAC W 45 4 2 7 28.6 0 3 0.0 0 0 - 1 9 10 4 3 3 5 3 3
p119
aVTyronn Lue LAL 05/06/2001 LAL vs. SAC W 8 0 0 3 0.0 0 3 0.0 0 0 - 0 0 0 1 1 0 0 0 8
p120
aVMark Madsen LAL 05/06/2001 LAL vs. SAC W 1 0 0 0 - 0 0 - 0 0 - 0 1 1 0 0 0 0 0 2
p121
aVHorace Grant LAL 05/06/2001 LAL vs. SAC W 31 6 3 6 50.0 0 0 - 0 0 - 1 2 3 2 1 0 0 2 0
p122
aVDerek Fisher LAL 05/06/2001 LAL vs. SAC W 40 11 4 8 50.0 1 3 33.3 2 4 50.0 2 6 8 4 3 0 2 4 -5
p123
aVShaquille O'Neal LAL 05/06/2001 LAL vs. SAC W 44 44 17 32 53.1 0 0 - 10 19 52.6 11 10 21 4 0 7 2 3 3
p124
aVTyronn Lue LAL 04/29/2001 LAL @ POR W 6 0 0 0 - 0 0 - 0 0 - 0 0 0 0 1 0 0 0 3
p125
aVBrian Shaw LAL 04/29/2001 LAL @ POR W 17 8 3 6 50.0 1 4 25.0 1 2 50.0 0 5 5 2 0 0 3 1 3
p126
aVHorace Grant LAL 04/29/2001 LAL @ POR W 24 9 4 7 57.1 0 0 - 1 2 50.0 2 6 8 1 1 0 1 2 -3
p127
aVKobe Bryant LAL 04/29/2001 LAL @ POR W 43 22 9 23 39.1 0 2 0.0 4 6 66.7 1 3 4 9 2 0 3 4 16
p128
aVRick Fox LAL 04/29/2001 LAL @ POR W 32 13 4 9 44.4 0 5 0.0 5 5 100.0 0 4 4 2 1 0 1 4 6
p129
aVDevean George LAL 04/29/2001 LAL @ POR W 5 3 1 1 100.0 1 1 100.0 0 0 - 0 0 0 0 0 0 0 0 -3
p130
aVMark Madsen LAL 04/29/2001 LAL @ POR W 2 0 0 1 0.0 0 0 - 0 0 - 0 0 0 0 0 0 0 0 -2
p131
aVShaquille O'Neal LAL 04/29/2001 LAL @ POR W 44 25 9 17 52.9 0 0 - 7 10 70.0 4 11 15 2 0 1 3 2 16
p132
aVRobert Horry LAL 04/29/2001 LAL @ POR W 27 2 1 5 20.0 0 2 0.0 0 0 - 4 2 6 3 1 1 1 3 17
p133
aVDerek Fisher LAL 04/29/2001 LAL @ POR W 40 17 5 12 41.7 2 5 40.0 5 5 100.0 0 8 8 6 2 0 0 1 12
p134
aVHorace Grant LAL 04/26/2001 LAL vs. POR W 26 4 2 5 40.0 0 0 - 0 0 - 1 4 5 2 2 0 3 3 9
p135
aVMark Madsen LAL 04/26/2001 LAL vs. POR W 5 0 0 1 0.0 0 0 - 0 0 - 1 0 1 0 0 0 0 1 -4
p136
aVTyronn Lue LAL 04/26/2001 LAL vs. POR W 10 1 0 3 0.0 0 1 0.0 1 2 50.0 0 0 0 0 0 0 1 2 -3
p137
aVGreg Foster LAL 04/26/2001 LAL vs. POR W 3 0 0 0 - 0 0 - 0 0 - 0 1 1 0 0 0 0 1 -5
p138
aVDerek Fisher LAL 04/26/2001 LAL vs. POR W 36 9 4 13 30.8 1 5 20.0 0 0 - 1 4 5 5 0 0 0 1 17
p139
aVRick Fox LAL 04/26/2001 LAL vs. POR W 34 19 8 14 57.1 3 7 42.9 0 0 - 3 5 8 6 5 0 5 3 14
p140
aVRobert Horry LAL 04/26/2001 LAL vs. POR W 18 3 1 7 14.3 0 5 0.0 1 2 50.0 0 4 4 3 0 0 1 3 15
p141
aVBrian Shaw LAL 04/26/2001 LAL vs. POR W 25 7 3 7 42.9 1 2 50.0 0 0 - 2 5 7 3 1 0 0 3 7
p142
aVDevean George LAL 04/26/2001 LAL vs. POR W 5 6 3 4 75.0 0 0 - 0 0 - 0 2 2 0 0 0 0 2 -6
p143
aVKobe Bryant LAL 04/26/2001 LAL vs. POR W 35 25 8 11 72.7 1 2 50.0 8 10 80.0 2 1 3 7 3 0 3 3 24
p144
aVShaquille O'Neal LAL 04/26/2001 LAL vs. POR W 43 32 14 24 58.3 0 0 - 4 9 44.4 6 6 12 5 0 1 2 2 22
p145
aVRobert Horry LAL 04/22/2001 LAL vs. POR W 24 3 1 5 20.0 1 3 33.3 0 0 - 1 1 2 0 2 0 2 2 1
p146
aVBrian Shaw LAL 04/22/2001 LAL vs. POR W 23 9 4 8 50.0 1 3 33.3 0 0 - 0 3 3 2 0 0 1 3 7
p147
aVDerek Fisher LAL 04/22/2001 LAL vs. POR W 38 21 7 10 70.0 2 5 40.0 5 6 83.3 0 3 3 3 1 0 0 3 11
p148
aVKobe Bryant LAL 04/22/2001 LAL vs. POR W 41 28 9 20 45.0 1 2 50.0 9 12 75.0 1 5 6 7 2 0 0 4 26
p149
aVHorace Grant LAL 04/22/2001 LAL vs. POR W 25 14 7 9 77.8 0 0 - 0 0 - 5 3 8 1 2 1 0 4 12
p150
aVMark Madsen LAL 04/22/2001 LAL vs. POR W 3 0 0 2 0.0 0 0 - 0 0 - 0 1 1 1 0 0 0 0 -4
p151
aVShaquille O'Neal LAL 04/22/2001 LAL vs. POR W 44 24 7 21 33.3 0 0 - 10 15 66.7 8 12 20 1 0 1 3 3 17
p152
aVTyronn Lue LAL 04/22/2001 LAL vs. POR W 3 0 0 1 0.0 0 0 - 0 0 - 0 0 0 0 0 0 0 1 -5
p153
aVRick Fox LAL 04/22/2001 LAL vs. POR W 34 7 3 9 33.3 1 6 16.7 0 0 - 0 3 3 5 4 1 1 4 16
p154
aVDevean George LAL 04/22/2001 LAL vs. POR W 5 0 0 2 0.0 0 0 - 0 0 - 2 0 2 0 0 0 1 2 -16
p155
a.