(lp0
VPLAYER TEAM DATE MATCHUP W/L MIN PTS FGM FGA FG% 3PM 3PA 3P% FTM FTA FT% OREB DREB REB AST STL BLK TOV PF +/-
p1
aVJerry Stackhouse DET 05/14/2002 DET vs. BOS L 34 8 3 18 16.7 2 8 25.0 0 1 0.0 2 3 5 5 1 0 1 3 -7
p2
aVClifford Robinson DET 05/14/2002 DET vs. BOS L 41 4 2 10 20.0 0 3 0.0 0 0 - 0 3 3 5 0 2 1 1 -12
p3
aVJon Barry DET 05/14/2002 DET vs. BOS L 22 9 3 7 42.9 1 4 25.0 2 3 66.7 0 2 2 4 0 0 2 3 3
p4
aVBen Wallace DET 05/14/2002 DET vs. BOS L 42 6 3 7 42.9 0 0 - 0 3 0.0 5 11 16 0 0 4 3 2 -12
p5
aVCorliss Williamson DET 05/14/2002 DET vs. BOS L 25 17 4 11 36.4 0 0 - 9 10 90.0 2 3 5 2 0 0 0 3 -4
p6
aVDamon Jones DET 05/14/2002 DET vs. BOS L 14 0 0 1 0.0 0 0 - 0 0 - 0 3 3 1 2 0 0 2 3
p7
aVChucky Atkins DET 05/14/2002 DET vs. BOS L 34 22 8 17 47.1 4 9 44.4 2 2 100.0 0 4 4 3 1 1 3 2 -12
p8
aVMichael Curry DET 05/14/2002 DET vs. BOS L 29 15 6 10 60.0 1 3 33.3 2 2 100.0 1 1 2 1 0 0 1 4 -4
p9
aVBen Wallace DET 05/12/2002 DET @ BOS L 45 4 1 5 20.0 0 0 - 2 6 33.3 8 13 21 3 3 2 5 2 -12
p10
aVDamon Jones DET 05/12/2002 DET @ BOS L 31 5 2 9 22.2 1 7 14.3 0 0 - 0 5 5 9 2 0 1 2 3
p11
aVClifford Robinson DET 05/12/2002 DET @ BOS L 44 24 7 16 43.8 4 10 40.0 6 8 75.0 0 1 1 1 1 3 2 4 -13
p12
aVJerry Stackhouse DET 05/12/2002 DET @ BOS L 39 16 5 15 33.3 4 7 57.1 2 4 50.0 0 2 2 3 1 0 3 5 -7
p13
aVJon Barry DET 05/12/2002 DET @ BOS L 11 8 3 4 75.0 2 3 66.7 0 0 - 0 1 1 0 0 1 0 2 -3
p14
aVCorliss Williamson DET 05/12/2002 DET @ BOS L 38 12 5 11 45.5 0 0 - 2 4 50.0 2 5 7 0 1 0 3 5 4
p15
aVChucky Atkins DET 05/12/2002 DET @ BOS L 16 4 2 8 25.0 0 2 0.0 0 0 - 1 0 1 3 0 0 1 2 -16
p16
aVDana Barros DET 05/12/2002 DET @ BOS L 1 2 1 2 50.0 0 1 0.0 0 0 - 0 0 0 1 0 0 0 0 2
p17
aVMichael Curry DET 05/12/2002 DET @ BOS L 16 4 2 5 40.0 0 1 0.0 0 0 - 0 3 3 0 0 0 2 5 -13
p18
aVJerry Stackhouse DET 05/10/2002 DET @ BOS L 40 19 7 19 36.8 1 6 16.7 4 6 66.7 1 5 6 3 1 0 4 2 2
p19
aVChucky Atkins DET 05/10/2002 DET @ BOS L 31 4 1 8 12.5 0 4 0.0 2 3 66.7 1 1 2 1 1 0 1 3 4
p20
aVClifford Robinson DET 05/10/2002 DET @ BOS L 45 7 2 11 18.2 1 5 20.0 2 2 100.0 0 2 2 5 3 1 3 2 4
p21
aVMichael Curry DET 05/10/2002 DET @ BOS L 28 3 1 4 25.0 0 3 0.0 1 2 50.0 0 0 0 0 0 0 1 3 -3
p22
aVJon Barry DET 05/10/2002 DET @ BOS L 4 0 0 1 0.0 0 1 0.0 0 0 - 0 0 0 0 0 0 2 0 -2
p23
aVDamon Jones DET 05/10/2002 DET @ BOS L 17 4 2 6 33.3 0 1 0.0 0 0 - 0 2 2 3 0 0 1 0 -6
p24
aVBen Wallace DET 05/10/2002 DET @ BOS L 43 12 5 6 83.3 0 0 - 2 4 50.0 4 17 21 0 3 1 2 4 -6
p25
aVCorliss Williamson DET 05/10/2002 DET @ BOS L 32 15 6 14 42.9 0 0 - 3 4 75.0 2 7 9 1 1 0 5 3 -3
p26
aVCorliss Williamson DET 05/08/2002 DET vs. BOS L 20 4 2 10 20.0 0 1 0.0 0 0 - 1 2 3 0 1 0 2 4 -13
p27
aVBen Wallace DET 05/08/2002 DET vs. BOS L 40 5 2 5 40.0 0 0 - 1 4 25.0 5 11 16 1 0 3 0 1 -3
p28
aVClifford Robinson DET 05/08/2002 DET vs. BOS L 45 13 6 17 35.3 1 6 16.7 0 0 - 1 2 3 1 2 1 0 3 -11
p29
aVJerry Stackhouse DET 05/08/2002 DET vs. BOS L 41 25 7 22 31.8 4 8 50.0 7 9 77.8 1 6 7 3 0 1 1 1 0
p30
aVJon Barry DET 05/08/2002 DET vs. BOS L 17 6 2 5 40.0 2 3 66.7 0 0 - 0 2 2 3 1 0 0 1 -1
p31
aVChucky Atkins DET 05/08/2002 DET vs. BOS L 18 5 2 10 20.0 1 2 50.0 0 0 - 0 1 1 4 1 0 0 4 -6
p32
aVDamon Jones DET 05/08/2002 DET vs. BOS L 30 12 3 8 37.5 3 7 42.9 3 4 75.0 0 2 2 3 0 0 3 3 -2
p33
aVMichael Curry DET 05/08/2002 DET vs. BOS L 29 7 3 5 60.0 1 2 50.0 0 1 0.0 0 1 1 3 0 0 0 3 -4
p34
aVJerry Stackhouse DET 05/05/2002 DET vs. BOS W 38 26 9 18 50.0 2 4 50.0 6 7 85.7 2 9 11 8 1 2 4 3 10
p35
aVClifford Robinson DET 05/05/2002 DET vs. BOS W 46 30 12 24 50.0 6 10 60.0 0 0 - 0 2 2 1 0 3 3 2 16
p36
aVChucky Atkins DET 05/05/2002 DET vs. BOS W 38 5 2 9 22.2 0 2 0.0 1 1 100.0 0 1 1 8 1 0 2 4 16
p37
aVJon Barry DET 05/05/2002 DET vs. BOS W 15 3 1 4 25.0 1 4 25.0 0 1 0.0 0 2 2 4 0 0 2 0 5
p38
aVMichael Curry DET 05/05/2002 DET vs. BOS W 41 15 5 7 71.4 3 3 100.0 2 2 100.0 0 4 4 2 2 0 1 2 7
p39
aVDamon Jones DET 05/05/2002 DET vs. BOS W 10 2 1 3 33.3 0 2 0.0 0 0 - 0 1 1 1 0 0 0 2 -4
p40
aVCorliss Williamson DET 05/05/2002 DET vs. BOS W 16 10 5 6 83.3 0 0 - 0 0 - 1 2 3 0 1 0 0 4 12
p41
aVBen Wallace DET 05/05/2002 DET vs. BOS W 37 5 2 2 100.0 0 0 - 1 1 100.0 4 8 12 0 2 5 3 3 -2
p42
aVChucky Atkins DET 05/02/2002 DET vs. TOR W 36 14 6 17 35.3 2 5 40.0 0 0 - 1 3 4 2 1 0 0 2 -1
p43
aVCorliss Williamson DET 05/02/2002 DET vs. TOR W 28 23 10 15 66.7 0 0 - 3 5 60.0 1 0 1 1 1 1 3 2 9
p44
aVZeljko Rebraca DET 05/02/2002 DET vs. TOR W 18 6 2 4 50.0 0 0 - 2 4 50.0 0 3 3 0 0 1 1 4 7
p45
aVDamon Jones DET 05/02/2002 DET vs. TOR W 12 0 0 0 - 0 0 - 0 0 - 0 1 1 3 0 0 0 1 4
p46
aVJon Barry DET 05/02/2002 DET vs. TOR W 21 12 5 9 55.6 2 5 40.0 0 0 - 1 2 3 3 1 0 3 1 4
p47
aVMichael Curry DET 05/02/2002 DET vs. TOR W 20 6 3 3 100.0 0 0 - 0 0 - 0 1 1 2 1 0 0 1 -5
p48
aVJerry Stackhouse DET 05/02/2002 DET vs. TOR W 31 5 1 10 10.0 0 5 0.0 3 5 60.0 1 0 1 7 0 0 0 3 -4
p49
aVBen Wallace DET 05/02/2002 DET vs. TOR W 44 6 1 4 25.0 0 0 - 4 10 40.0 4 13 17 3 3 1 5 3 6
p50
aVClifford Robinson DET 05/02/2002 DET vs. TOR W 30 13 3 8 37.5 0 0 - 7 8 87.5 2 3 5 1 2 1 0 3 -5
p51
aVDana Barros DET 04/29/2002 DET @ TOR L 0 0 0 0 - 0 0 - 0 0 - 0 0 0 0 0 0 0 0 2
p52
aVBen Wallace DET 04/29/2002 DET @ TOR L 39 2 0 6 0.0 0 0 - 2 2 100.0 6 6 12 0 1 2 0 3 -12
p53
aVJerry Stackhouse DET 04/29/2002 DET @ TOR L 37 15 6 18 33.3 0 4 0.0 3 3 100.0 0 4 4 4 0 1 5 3 0
p54
aVMichael Curry DET 04/29/2002 DET @ TOR L 18 3 1 1 100.0 0 0 - 1 2 50.0 0 1 1 1 0 0 0 2 5
p55
aVCorliss Williamson DET 04/29/2002 DET @ TOR L 29 14 4 13 30.8 0 0 - 6 6 100.0 3 5 8 0 1 0 2 3 -11
p56
aVChucky Atkins DET 04/29/2002 DET @ TOR L 35 20 7 15 46.7 2 3 66.7 4 6 66.7 1 4 5 4 1 0 1 3 6
p57
aVZeljko Rebraca DET 04/29/2002 DET @ TOR L 6 0 0 0 - 0 0 - 0 0 - 0 0 0 0 0 0 0 0 -10
p58
aVClifford Robinson DET 04/29/2002 DET @ TOR L 41 11 4 10 40.0 2 6 33.3 1 2 50.0 0 3 3 6 1 1 2 4 8
p59
aVDamon Jones DET 04/29/2002 DET @ TOR L 13 6 2 2 100.0 2 2 100.0 0 0 - 0 1 1 0 0 0 0 1 -12
p60
aVJon Barry DET 04/29/2002 DET @ TOR L 22 12 4 8 50.0 3 5 60.0 1 2 50.0 1 1 2 1 2 0 4 5 -6
p61
aVDana Barros DET 04/27/2002 DET @ TOR L 1 0 0 0 - 0 0 - 0 0 - 0 0 0 0 0 0 0 0 2
p62
aVChucky Atkins DET 04/27/2002 DET @ TOR L 31 21 7 11 63.6 3 4 75.0 4 4 100.0 0 0 0 2 0 0 4 1 -10
p63
aVMichael Curry DET 04/27/2002 DET @ TOR L 12 0 0 0 - 0 0 - 0 0 - 0 0 0 1 0 0 0 4 -16
p64
aVJerry Stackhouse DET 04/27/2002 DET @ TOR L 32 11 2 10 20.0 1 3 33.3 6 6 100.0 0 2 2 4 0 0 3 3 -15
p65
aVZeljko Rebraca DET 04/27/2002 DET @ TOR L 15 3 1 2 50.0 0 0 - 1 2 50.0 1 1 2 0 0 0 1 2 3
p66
aVDamon Jones DET 04/27/2002 DET @ TOR L 17 7 3 4 75.0 1 2 50.0 0 0 - 1 0 1 2 1 0 1 2 0
p67
aVBen Wallace DET 04/27/2002 DET @ TOR L 38 7 3 6 50.0 0 0 - 1 3 33.3 2 9 11 0 1 2 1 3 -17
p68
aVJon Barry DET 04/27/2002 DET @ TOR L 22 8 3 7 42.9 2 4 50.0 0 0 - 0 4 4 3 0 0 4 2 0
p69
aVCorliss Williamson DET 04/27/2002 DET @ TOR L 28 14 6 11 54.5 0 0 - 2 2 100.0 5 4 9 3 2 1 3 3 9
p70
aVClifford Robinson DET 04/27/2002 DET @ TOR L 44 13 4 11 36.4 2 6 33.3 3 4 75.0 1 2 3 2 3 3 5 2 -6
p71
aVChucky Atkins DET 04/24/2002 DET vs. TOR W 30 13 6 13 46.2 1 3 33.3 0 1 0.0 1 1 2 4 0 0 0 2 11
p72
aVClifford Robinson DET 04/24/2002 DET vs. TOR W 33 10 2 10 20.0 1 4 25.0 5 6 83.3 1 1 2 4 1 3 3 4 -1
p73
aVJerry Stackhouse DET 04/24/2002 DET vs. TOR W 38 31 8 22 36.4 4 7 57.1 11 12 91.7 2 3 5 2 0 1 2 0 10
p74
aVCorliss Williamson DET 04/24/2002 DET vs. TOR W 24 10 4 8 50.0 0 1 0.0 2 4 50.0 0 2 2 1 0 0 1 1 0
p75
aVBen Wallace DET 04/24/2002 DET vs. TOR W 43 7 3 7 42.9 0 0 - 1 2 50.0 5 10 15 4 3 3 0 2 7
p76
aVDamon Jones DET 04/24/2002 DET vs. TOR W 18 2 1 2 50.0 0 1 0.0 0 0 - 0 1 1 1 0 0 0 0 -6
p77
aVZeljko Rebraca DET 04/24/2002 DET vs. TOR W 14 6 1 2 50.0 0 0 - 4 4 100.0 1 1 2 0 0 0 1 4 2
p78
aVJon Barry DET 04/24/2002 DET vs. TOR W 24 13 4 8 50.0 3 5 60.0 2 2 100.0 1 1 2 2 1 0 1 0 2
p79
aVMichael Curry DET 04/24/2002 DET vs. TOR W 15 4 1 2 50.0 0 0 - 2 2 100.0 0 2 2 1 1 0 0 4 0
p80
aVJon Barry DET 04/21/2002 DET vs. TOR W 20 9 4 8 50.0 1 4 25.0 0 0 - 1 1 2 1 0 0 1 0 -5
p81
aVDana Barros DET 04/21/2002 DET vs. TOR W 3 0 0 1 0.0 0 0 - 0 0 - 0 0 0 0 0 0 0 2 -3
p82
aVDamon Jones DET 04/21/2002 DET vs. TOR W 20 5 2 7 28.6 1 5 20.0 0 0 - 0 4 4 2 0 0 0 1 9
p83
aVJerry Stackhouse DET 04/21/2002 DET vs. TOR W 31 20 5 13 38.5 0 1 0.0 10 10 100.0 0 0 0 4 2 1 4 3 26
p84
aVMichael Curry DET 04/21/2002 DET vs. TOR W 15 0 0 2 0.0 0 1 0.0 0 0 - 0 0 0 1 0 0 0 4 9
p85
aVRodney White DET 04/21/2002 DET vs. TOR W 3 0 0 1 0.0 0 0 - 0 0 - 0 0 0 0 0 0 1 0 -3
p86
aVBen Wallace DET 04/21/2002 DET vs. TOR W 37 19 8 11 72.7 0 0 - 3 4 75.0 5 15 20 1 3 3 0 1 14
p87
aVChucky Atkins DET 04/21/2002 DET vs. TOR W 25 5 2 10 20.0 1 5 20.0 0 0 - 0 4 4 3 0 0 2 2 16
p88
aVCorliss Williamson DET 04/21/2002 DET vs. TOR W 29 14 6 13 46.2 0 0 - 2 3 66.7 2 4 6 2 1 0 3 3 22
p89
aVZeljko Rebraca DET 04/21/2002 DET vs. TOR W 16 6 1 3 33.3 0 0 - 4 4 100.0 2 1 3 0 1 0 1 4 -4
p90
aVClifford Robinson DET 04/21/2002 DET vs. TOR W 39 7 3 7 42.9 1 3 33.3 0 0 - 0 6 6 3 5 1 2 3 32
p91
aVVictor Alexander DET 04/21/2002 DET vs. TOR W 3 0 0 1 0.0 0 0 - 0 0 - 0 1 1 0 0 0 0 0 -3
p92
a.