(lp0
VPLAYER TEAM DATE MATCHUP W/L MIN PTS FGM FGA FG% 3PM 3PA 3P% FTM FTA FT% OREB DREB REB AST STL BLK TOV PF +/-
p1
aVAnthony Johnson NJN 06/12/2002 NJN vs. LAL L 1 0 0 0 - 0 0 - 0 0 - 0 0 0 1 0 0 0 0 2
p2
aVTodd MacCulloch NJN 06/12/2002 NJN vs. LAL L 20 8 4 8 50.0 0 0 - 0 0 - 4 2 6 2 0 1 0 4 0
p3
aVKeith Van Horn NJN 06/12/2002 NJN vs. LAL L 31 7 3 7 42.9 1 1 100.0 0 0 - 1 3 4 4 0 0 1 2 -20
p4
aVJason Collins NJN 06/12/2002 NJN vs. LAL L 19 4 2 3 66.7 0 0 - 0 0 - 1 3 4 0 1 1 0 6 3
p5
aVDonny Marshall NJN 06/12/2002 NJN vs. LAL L 1 0 0 0 - 0 0 - 0 0 - 0 0 0 0 0 0 0 0 2
p6
aVKerry Kittles NJN 06/12/2002 NJN vs. LAL L 23 11 4 10 40.0 1 3 33.3 2 2 100.0 2 0 2 3 1 0 1 1 -11
p7
aVJason Kidd NJN 06/12/2002 NJN vs. LAL L 43 13 5 14 35.7 1 4 25.0 2 2 100.0 1 4 5 12 1 1 4 1 1
p8
aVAaron Williams NJN 06/12/2002 NJN vs. LAL L 9 2 1 3 33.3 0 0 - 0 0 - 1 1 2 0 0 0 0 2 -9
p9
aVLucious Harris NJN 06/12/2002 NJN vs. LAL L 29 22 9 13 69.2 1 1 100.0 3 4 75.0 2 1 3 2 0 0 0 1 -4
p10
aVKenyon Martin NJN 06/12/2002 NJN vs. LAL L 43 35 15 28 53.6 0 0 - 5 7 71.4 2 9 11 2 1 1 2 4 1
p11
aVRichard Jefferson NJN 06/12/2002 NJN vs. LAL L 21 5 2 6 33.3 0 0 - 1 1 100.0 0 4 4 1 1 0 0 1 5
p12
aVLucious Harris NJN 06/09/2002 NJN vs. LAL L 19 2 1 5 20.0 0 0 - 0 0 - 0 3 3 2 3 0 0 1 11
p13
aVAnthony Johnson NJN 06/09/2002 NJN vs. LAL L 5 0 0 0 - 0 0 - 0 0 - 0 0 0 0 0 0 0 0 -5
p14
aVKeith Van Horn NJN 06/09/2002 NJN vs. LAL L 31 14 6 14 42.9 2 4 50.0 0 0 - 0 5 5 3 0 1 0 5 -21
p15
aVJason Collins NJN 06/09/2002 NJN vs. LAL L 27 2 0 4 0.0 0 0 - 2 2 100.0 2 1 3 0 0 0 2 4 4
p16
aVKenyon Martin NJN 06/09/2002 NJN vs. LAL L 43 26 11 17 64.7 0 1 0.0 4 6 66.7 1 3 4 4 2 2 5 3 2
p17
aVKerry Kittles NJN 06/09/2002 NJN vs. LAL L 29 7 3 6 50.0 0 2 0.0 1 2 50.0 1 2 3 3 3 0 0 1 -14
p18
aVRichard Jefferson NJN 06/09/2002 NJN vs. LAL L 22 8 4 5 80.0 0 0 - 0 0 - 0 3 3 0 2 0 2 1 13
p19
aVAaron Williams NJN 06/09/2002 NJN vs. LAL L 7 4 1 1 100.0 0 0 - 2 2 100.0 0 0 0 0 0 0 0 6 0
p20
aVTodd MacCulloch NJN 06/09/2002 NJN vs. LAL L 14 10 4 8 50.0 0 0 - 2 2 100.0 0 1 1 0 0 1 2 3 -7
p21
aVJason Kidd NJN 06/09/2002 NJN vs. LAL L 43 30 13 23 56.5 1 5 20.0 3 5 60.0 1 4 5 10 3 1 2 3 2
p22
aVRichard Jefferson NJN 06/07/2002 NJN @ LAL L 32 10 3 6 50.0 0 0 - 4 8 50.0 2 3 5 3 0 0 1 2 -18
p23
aVKenyon Martin NJN 06/07/2002 NJN @ LAL L 35 6 2 8 25.0 0 1 0.0 2 4 50.0 2 3 5 2 3 0 4 5 -7
p24
aVJason Kidd NJN 06/07/2002 NJN @ LAL L 38 17 6 17 35.3 3 8 37.5 2 3 66.7 4 5 9 7 2 1 5 3 -18
p25
aVBrian Scalabrine NJN 06/07/2002 NJN @ LAL L 1 0 0 0 - 0 0 - 0 0 - 0 0 0 0 0 0 0 0 -6
p26
aVDonny Marshall NJN 06/07/2002 NJN @ LAL L 1 0 0 1 0.0 0 1 0.0 0 0 - 0 0 0 0 0 0 0 0 -6
p27
aVKerry Kittles NJN 06/07/2002 NJN @ LAL L 29 23 9 19 47.4 3 9 33.3 2 4 50.0 1 2 3 3 2 1 1 4 -10
p28
aVKeith Van Horn NJN 06/07/2002 NJN @ LAL L 24 9 3 9 33.3 0 1 0.0 3 4 75.0 4 4 8 1 2 0 0 2 -15
p29
aVAaron Williams NJN 06/07/2002 NJN @ LAL L 15 4 2 7 28.6 0 0 - 0 0 - 2 1 3 0 0 1 0 2 -7
p30
aVJason Collins NJN 06/07/2002 NJN @ LAL L 21 6 2 2 100.0 0 0 - 2 2 100.0 0 1 1 0 0 1 1 4 -6
p31
aVAnthony Johnson NJN 06/07/2002 NJN @ LAL L 10 4 2 5 40.0 0 0 - 0 0 - 1 1 2 0 0 0 0 0 -5
p32
aVTodd MacCulloch NJN 06/07/2002 NJN @ LAL L 15 2 1 3 33.3 0 0 - 0 0 - 2 3 5 0 1 1 1 4 -10
p33
aVLucious Harris NJN 06/07/2002 NJN @ LAL L 18 2 0 9 0.0 0 2 0.0 2 2 100.0 2 0 2 2 1 0 0 1 -7
p34
aVKerry Kittles NJN 06/05/2002 NJN @ LAL L 25 9 3 7 42.9 1 2 50.0 2 2 100.0 0 0 0 1 0 1 1 1 -3
p35
aVJason Kidd NJN 06/05/2002 NJN @ LAL L 43 23 11 26 42.3 1 3 33.3 0 1 0.0 6 4 10 10 3 0 1 1 3
p36
aVRichard Jefferson NJN 06/05/2002 NJN @ LAL L 22 4 2 4 50.0 0 0 - 0 2 0.0 0 6 6 1 1 0 0 3 -1
p37
aVAaron Williams NJN 06/05/2002 NJN @ LAL L 15 4 2 5 40.0 0 0 - 0 0 - 1 3 4 1 3 1 0 4 -7
p38
aVKenyon Martin NJN 06/05/2002 NJN @ LAL L 37 21 7 22 31.8 1 3 33.3 6 9 66.7 3 3 6 2 0 1 3 3 0
p39
aVLucious Harris NJN 06/05/2002 NJN @ LAL L 25 5 1 5 20.0 0 2 0.0 3 4 75.0 1 2 3 2 0 0 0 3 1
p40
aVKeith Van Horn NJN 06/05/2002 NJN @ LAL L 35 12 5 14 35.7 2 6 33.3 0 0 - 2 4 6 1 0 0 4 6 -12
p41
aVJason Collins NJN 06/05/2002 NJN @ LAL L 9 5 1 1 100.0 0 0 - 3 4 75.0 2 0 2 1 0 0 0 5 5
p42
aVTodd MacCulloch NJN 06/05/2002 NJN @ LAL L 25 10 5 9 55.6 0 0 - 0 2 0.0 6 2 8 0 2 1 2 3 -3
p43
aVAnthony Johnson NJN 06/05/2002 NJN @ LAL L 5 1 0 1 0.0 0 0 - 1 2 50.0 0 0 0 0 0 0 0 0 -8
p44
aVKenyon Martin NJN 05/31/2002 NJN @ BOS W 41 16 5 17 29.4 0 0 - 6 8 75.0 4 3 7 5 2 0 0 5 12
p45
aVAnthony Johnson NJN 05/31/2002 NJN @ BOS W 6 2 1 1 100.0 0 0 - 0 0 - 0 0 0 2 0 0 0 1 1
p46
aVTodd MacCulloch NJN 05/31/2002 NJN @ BOS W 18 11 4 6 66.7 0 0 - 3 4 75.0 2 2 4 0 0 1 3 1 -1
p47
aVRichard Jefferson NJN 05/31/2002 NJN @ BOS W 20 15 6 12 50.0 0 0 - 3 4 75.0 0 4 4 2 0 0 2 1 2
p48
aVKerry Kittles NJN 05/31/2002 NJN @ BOS W 30 9 4 7 57.1 0 2 0.0 1 2 50.0 1 4 5 1 2 0 1 1 -6
p49
aVKeith Van Horn NJN 05/31/2002 NJN @ BOS W 34 11 3 8 37.5 1 4 25.0 4 6 66.7 2 4 6 0 2 0 1 3 2
p50
aVLucious Harris NJN 05/31/2002 NJN @ BOS W 18 12 5 5 100.0 2 2 100.0 0 0 - 0 2 2 1 1 0 1 1 14
p51
aVJason Kidd NJN 05/31/2002 NJN @ BOS W 42 15 6 18 33.3 0 2 0.0 3 5 60.0 1 12 13 13 1 1 2 1 7
p52
aVAaron Williams NJN 05/31/2002 NJN @ BOS W 30 5 2 2 100.0 0 0 - 1 1 100.0 0 2 2 1 0 3 1 5 9
p53
aVKeith Van Horn NJN 05/29/2002 NJN vs. BOS W 37 19 6 15 40.0 4 7 57.1 3 3 100.0 1 3 4 3 4 0 0 1 17
p54
aVKenyon Martin NJN 05/29/2002 NJN vs. BOS W 34 19 7 18 38.9 0 0 - 5 7 71.4 2 4 6 1 3 0 2 3 8
p55
aVRichard Jefferson NJN 05/29/2002 NJN vs. BOS W 21 3 1 2 50.0 0 0 - 1 2 50.0 1 6 7 1 0 0 1 3 17
p56
aVJason Kidd NJN 05/29/2002 NJN vs. BOS W 39 18 8 14 57.1 0 3 0.0 2 5 40.0 4 8 12 7 0 0 3 2 17
p57
aVTodd MacCulloch NJN 05/29/2002 NJN vs. BOS W 20 4 2 5 40.0 0 0 - 0 0 - 4 4 8 1 0 2 2 2 -3
p58
aVBrian Scalabrine NJN 05/29/2002 NJN vs. BOS W 2 0 0 0 - 0 0 - 0 0 - 0 0 0 0 0 0 0 0 -10
p59
aVAaron Williams NJN 05/29/2002 NJN vs. BOS W 16 4 2 2 100.0 0 0 - 0 0 - 0 1 1 3 1 0 1 5 6
p60
aVAnthony Johnson NJN 05/29/2002 NJN vs. BOS W 5 0 0 1 0.0 0 0 - 0 0 - 0 0 0 0 0 0 2 0 -12
p61
aVKerry Kittles NJN 05/29/2002 NJN vs. BOS W 32 21 8 14 57.1 2 4 50.0 3 4 75.0 1 1 2 3 2 0 0 2 9
p62
aVLucious Harris NJN 05/29/2002 NJN vs. BOS W 19 8 2 5 40.0 0 1 0.0 4 6 66.7 0 5 5 2 1 0 2 3 8
p63
aVJason Collins NJN 05/29/2002 NJN vs. BOS W 12 7 0 1 0.0 0 0 - 7 10 70.0 0 0 0 0 0 0 0 2 8
p64
aVDonny Marshall NJN 05/29/2002 NJN vs. BOS W 2 0 0 2 0.0 0 2 0.0 0 0 - 0 0 0 0 0 0 0 0 -10
p65
aVKeith Van Horn NJN 05/27/2002 NJN @ BOS W 39 21 7 17 41.2 3 7 42.9 4 6 66.7 4 6 10 3 0 1 4 2 2
p66
aVLucious Harris NJN 05/27/2002 NJN @ BOS W 16 12 3 7 42.9 1 2 50.0 5 6 83.3 1 3 4 0 0 0 1 0 -5
p67
aVJason Kidd NJN 05/27/2002 NJN @ BOS W 46 19 6 15 40.0 2 5 40.0 5 5 100.0 3 6 9 9 1 0 3 3 7
p68
aVKenyon Martin NJN 05/27/2002 NJN @ BOS W 44 8 3 13 23.1 0 0 - 2 6 33.3 1 4 5 2 1 2 2 5 11
p69
aVAaron Williams NJN 05/27/2002 NJN @ BOS W 28 6 2 4 50.0 0 0 - 2 3 66.7 0 3 3 2 0 2 3 6 -19
p70
aVKerry Kittles NJN 05/27/2002 NJN @ BOS W 35 22 9 17 52.9 4 7 57.1 0 0 - 1 5 6 5 2 0 0 1 2
p71
aVTodd MacCulloch NJN 05/27/2002 NJN @ BOS W 20 5 2 3 66.7 0 0 - 1 1 100.0 1 3 4 0 0 2 0 4 19
p72
aVRichard Jefferson NJN 05/27/2002 NJN @ BOS W 12 1 0 2 0.0 0 0 - 1 2 50.0 0 2 2 0 0 0 2 0 -7
p73
aVAaron Williams NJN 05/25/2002 NJN @ BOS L 26 18 6 8 75.0 0 0 - 6 7 85.7 3 3 6 0 0 0 5 6 -31
p74
aVKerry Kittles NJN 05/25/2002 NJN @ BOS L 36 19 8 20 40.0 0 7 0.0 3 4 75.0 1 7 8 4 3 1 2 2 11
p75
aVJason Collins NJN 05/25/2002 NJN @ BOS L 7 0 0 0 - 0 0 - 0 0 - 0 0 0 0 0 0 1 2 2
p76
aVAnthony Johnson NJN 05/25/2002 NJN @ BOS L 5 0 0 2 0.0 0 1 0.0 0 0 - 0 1 1 1 0 0 0 1 -7
p77
aVLucious Harris NJN 05/25/2002 NJN @ BOS L 26 10 4 9 44.4 2 3 66.7 0 0 - 1 4 5 1 0 0 1 4 -17
p78
aVKeith Van Horn NJN 05/25/2002 NJN @ BOS L 19 6 3 6 50.0 0 1 0.0 0 0 - 1 3 4 1 0 0 1 4 -11
p79
aVRichard Jefferson NJN 05/25/2002 NJN @ BOS L 22 8 4 10 40.0 0 0 - 0 2 0.0 0 7 7 4 1 0 3 5 -3
p80
aVJason Kidd NJN 05/25/2002 NJN @ BOS L 43 12 6 16 37.5 0 7 0.0 0 1 0.0 2 2 4 11 1 0 5 3 3
p81
aVKenyon Martin NJN 05/25/2002 NJN @ BOS L 35 12 5 12 41.7 1 1 100.0 1 2 50.0 2 2 4 3 2 0 2 6 6
p82
aVTodd MacCulloch NJN 05/25/2002 NJN @ BOS L 22 5 2 3 66.7 0 0 - 1 2 50.0 3 8 11 1 1 1 2 1 27
p83
aVLucious Harris NJN 05/21/2002 NJN vs. BOS L 23 11 5 12 41.7 1 3 33.3 0 0 - 0 3 3 0 2 0 0 2 3
p84
aVRichard Jefferson NJN 05/21/2002 NJN vs. BOS L 21 2 1 3 33.3 0 1 0.0 0 2 0.0 0 3 3 0 0 0 3 2 -3
p85
aVKerry Kittles NJN 05/21/2002 NJN vs. BOS L 25 4 2 11 18.2 0 7 0.0 0 0 - 1 2 3 2 1 0 2 5 -10
p86
aVAaron Williams NJN 05/21/2002 NJN vs. BOS L 31 16 5 7 71.4 0 0 - 6 8 75.0 3 5 8 0 0 1 0 4 3
p87
aVTodd MacCulloch NJN 05/21/2002 NJN vs. BOS L 16 3 0 4 0.0 0 0 - 3 4 75.0 1 3 4 1 0 1 0 0 -12
p88
aVKenyon Martin NJN 05/21/2002 NJN vs. BOS L 40 22 6 16 37.5 0 1 0.0 10 12 83.3 0 5 5 4 2 1 1 5 -4
p89
aVKeith Van Horn NJN 05/21/2002 NJN vs. BOS L 33 5 2 12 16.7 1 4 25.0 0 0 - 0 8 8 1 0 2 2 3 -2
p90
aVJason Collins NJN 05/21/2002 NJN vs. BOS L 2 0 0 1 0.0 0 0 - 0 0 - 0 0 0 0 0 0 0 2 -3
p91
aVAnthony Johnson NJN 05/21/2002 NJN vs. BOS L 5 0 0 0 - 0 0 - 0 0 - 0 0 0 1 0 0 0 1 2
p92
aVJason Kidd NJN 05/21/2002 NJN vs. BOS L 43 23 7 18 38.9 2 7 28.6 7 8 87.5 5 11 16 10 3 0 6 2 -9
p93
aVTodd MacCulloch NJN 05/19/2002 NJN vs. BOS W 28 14 6 9 66.7 0 0 - 2 3 66.7 2 4 6 2 0 1 0 0 14
p94
aVKeith Van Horn NJN 05/19/2002 NJN vs. BOS W 34 14 6 14 42.9 2 5 40.0 0 0 - 1 6 7 4 2 0 3 1 1
p95
aVKerry Kittles NJN 05/19/2002 NJN vs. BOS W 29 14 6 12 50.0 0 3 0.0 2 2 100.0 1 6 7 1 1 0 3 4 7
p96
aVLucious Harris NJN 05/19/2002 NJN vs. BOS W 20 10 4 7 57.1 0 2 0.0 2 2 100.0 0 3 3 0 0 0 1 0 -1
p97
aVJason Collins NJN 05/19/2002 NJN vs. BOS W 5 0 0 0 - 0 0 - 0 0 - 1 1 2 0 0 0 0 1 1
p98
aVKenyon Martin NJN 05/19/2002 NJN vs. BOS W 39 9 4 9 44.4 0 0 - 1 2 50.0 0 4 4 4 0 4 3 6 3
p99
aVAnthony Johnson NJN 05/19/2002 NJN vs. BOS W 9 5 2 4 50.0 0 0 - 1 1 100.0 0 2 2 1 0 0 0 2 -2
p100
aVJason Kidd NJN 05/19/2002 NJN vs. BOS W 39 18 4 10 40.0 1 3 33.3 9 10 90.0 2 11 13 11 0 1 4 2 9
p101
aVRichard Jefferson NJN 05/19/2002 NJN vs. BOS W 19 10 3 6 50.0 0 1 0.0 4 4 100.0 0 2 2 0 0 0 1 4 7
p102
aVAaron Williams NJN 05/19/2002 NJN vs. BOS W 17 10 3 6 50.0 0 0 - 4 4 100.0 2 1 3 0 0 1 0 1 -4
p103
aVAaron Williams NJN 05/15/2002 NJN vs. CHH W 12 0 0 3 0.0 0 0 - 0 0 - 1 0 1 0 1 0 2 6 -2
p104
aVLucious Harris NJN 05/15/2002 NJN vs. CHH W 18 11 2 3 66.7 0 0 - 7 8 87.5 0 1 1 0 0 0 0 1 1
p105
aVJason Kidd NJN 05/15/2002 NJN vs. CHH W 42 23 9 18 50.0 1 5 20.0 4 4 100.0 1 6 7 13 5 0 2 3 9
p106
aVKeith Van Horn NJN 05/15/2002 NJN vs. CHH W 36 16 5 14 35.7 3 5 60.0 3 3 100.0 1 6 7 3 1 0 1 3 14
p107
aVTodd MacCulloch NJN 05/15/2002 NJN vs. CHH W 24 2 1 4 25.0 0 0 - 0 1 0.0 3 4 7 0 1 3 2 5 6
p108
aVJason Collins NJN 05/15/2002 NJN vs. CHH W 18 6 1 3 33.3 0 0 - 4 6 66.7 2 1 3 2 0 1 1 6 5
p109
aVKerry Kittles NJN 05/15/2002 NJN vs. CHH W 30 18 5 11 45.5 2 5 40.0 6 7 85.7 0 2 2 1 0 1 1 1 5
p110
aVKenyon Martin NJN 05/15/2002 NJN vs. CHH W 30 14 5 12 41.7 0 0 - 4 6 66.7 2 6 8 3 0 0 3 5 4
p111
aVAnthony Johnson NJN 05/15/2002 NJN vs. CHH W 6 2 0 0 - 0 0 - 2 2 100.0 0 0 0 0 0 0 0 0 -1
p112
aVRichard Jefferson NJN 05/15/2002 NJN vs. CHH W 24 11 5 9 55.6 0 0 - 1 2 50.0 0 7 7 1 0 0 1 1 -1
p113
aVKerry Kittles NJN 05/12/2002 NJN @ CHH W 34 20 6 14 42.9 2 4 50.0 6 6 100.0 3 1 4 4 3 1 0 1 10
p114
aVLucious Harris NJN 05/12/2002 NJN @ CHH W 14 0 0 4 0.0 0 0 - 0 0 - 0 0 0 1 0 0 2 0 0
p115
aVKenyon Martin NJN 05/12/2002 NJN @ CHH W 36 13 6 13 46.2 0 0 - 1 3 33.3 1 3 4 3 1 2 1 6 3
p116
aVKeith Van Horn NJN 05/12/2002 NJN @ CHH W 36 16 7 12 58.3 2 5 40.0 0 2 0.0 5 6 11 1 0 0 1 1 14
p117
aVRichard Jefferson NJN 05/12/2002 NJN @ CHH W 24 7 3 8 37.5 0 0 - 1 3 33.3 3 4 7 0 1 0 1 1 3
p118
aVAnthony Johnson NJN 05/12/2002 NJN @ CHH W 9 2 1 5 20.0 0 1 0.0 0 0 - 1 1 2 1 0 0 0 3 -2
p119
aVAaron Williams NJN 05/12/2002 NJN @ CHH W 9 0 0 1 0.0 0 0 - 0 0 - 0 3 3 1 0 0 1 4 8
p120
aVJason Kidd NJN 05/12/2002 NJN @ CHH W 39 24 6 23 26.1 1 9 11.1 11 14 78.6 2 9 11 8 0 1 5 2 12
p121
aVTodd MacCulloch NJN 05/12/2002 NJN @ CHH W 16 2 1 4 25.0 0 0 - 0 1 0.0 1 2 3 1 0 1 3 2 4
p122
aVJason Collins NJN 05/12/2002 NJN @ CHH W 23 5 2 5 40.0 0 0 - 1 4 25.0 4 2 6 0 1 0 1 4 -2
p123
aVRichard Jefferson NJN 05/09/2002 NJN @ CHH L 25 16 6 10 60.0 0 0 - 4 7 57.1 1 2 3 1 4 0 2 4 -9
p124
aVJason Kidd NJN 05/09/2002 NJN @ CHH L 28 13 5 13 38.5 1 6 16.7 2 2 100.0 2 5 7 6 1 0 5 2 -21
p125
aVKeith Van Horn NJN 05/09/2002 NJN @ CHH L 26 12 3 8 37.5 1 2 50.0 5 6 83.3 1 5 6 3 0 1 3 2 -12
p126
aVLucious Harris NJN 05/09/2002 NJN @ CHH L 20 2 1 5 20.0 0 2 0.0 0 0 - 0 0 0 1 2 0 1 1 -12
p127
aVKenyon Martin NJN 05/09/2002 NJN @ CHH L 33 13 5 11 45.5 0 0 - 3 3 100.0 1 1 2 4 1 2 0 3 -19
p128
aVJason Collins NJN 05/09/2002 NJN @ CHH L 20 6 1 3 33.3 0 0 - 4 6 66.7 4 3 7 1 0 0 0 3 0
p129
aVAaron Williams NJN 05/09/2002 NJN @ CHH L 19 9 3 9 33.3 0 1 0.0 3 3 100.0 2 1 3 0 0 0 2 5 -7
p130
aVBrian Scalabrine NJN 05/09/2002 NJN @ CHH L 4 0 0 0 - 0 0 - 0 0 - 1 0 1 0 0 0 1 0 1
p131
aVAnthony Johnson NJN 05/09/2002 NJN @ CHH L 20 8 3 7 42.9 0 3 0.0 2 2 100.0 0 1 1 4 1 0 0 2 3
p132
aVTodd MacCulloch NJN 05/09/2002 NJN @ CHH L 18 4 2 7 28.6 0 0 - 0 0 - 2 2 4 0 0 0 0 4 -8
p133
aVDonny Marshall NJN 05/09/2002 NJN @ CHH L 3 3 1 1 100.0 0 0 - 1 1 100.0 0 0 0 0 0 0 0 0 1
p134
aVKerry Kittles NJN 05/09/2002 NJN @ CHH L 26 11 4 7 57.1 1 2 50.0 2 4 50.0 0 2 2 1 2 0 1 1 -7
p135
aVTodd MacCulloch NJN 05/07/2002 NJN vs. CHH W 10 6 3 4 75.0 0 0 - 0 0 - 0 1 1 1 0 0 2 5 1
p136
aVDonny Marshall NJN 05/07/2002 NJN vs. CHH W 1 0 0 0 - 0 0 - 0 0 - 0 0 0 0 0 0 0 0 0
p137
aVJason Kidd NJN 05/07/2002 NJN vs. CHH W 37 11 5 18 27.8 0 3 0.0 1 1 100.0 1 2 3 6 1 0 1 0 14
p138
aVKeith Van Horn NJN 05/07/2002 NJN vs. CHH W 36 20 8 16 50.0 4 6 66.7 0 0 - 2 9 11 5 1 1 3 2 11
p139
aVLucious Harris NJN 05/07/2002 NJN vs. CHH W 24 24 10 11 90.9 0 0 - 4 6 66.7 3 4 7 1 0 0 0 2 15
p140
aVAaron Williams NJN 05/07/2002 NJN vs. CHH W 21 6 2 7 28.6 0 0 - 2 2 100.0 1 4 5 3 0 0 0 6 7
p141
aVRichard Jefferson NJN 05/07/2002 NJN vs. CHH W 27 10 4 9 44.4 0 0 - 2 4 50.0 3 3 6 3 1 4 0 2 5
p142
aVJason Collins NJN 05/07/2002 NJN vs. CHH W 16 0 0 4 0.0 0 0 - 0 0 - 3 2 5 1 1 1 1 2 6
p143
aVBrian Scalabrine NJN 05/07/2002 NJN vs. CHH W 1 0 0 1 0.0 0 0 - 0 0 - 0 0 0 0 0 0 0 0 0
p144
aVAnthony Johnson NJN 05/07/2002 NJN vs. CHH W 11 0 0 2 0.0 0 1 0.0 0 0 - 0 0 0 2 0 0 1 2 0
p145
aVKenyon Martin NJN 05/07/2002 NJN vs. CHH W 31 15 5 10 50.0 0 0 - 5 5 100.0 0 3 3 2 1 2 2 5 12
p146
aVKerry Kittles NJN 05/07/2002 NJN vs. CHH W 24 10 4 9 44.4 0 1 0.0 2 2 100.0 1 0 1 3 0 1 0 1 -1
p147
aVLucious Harris NJN 05/05/2002 NJN vs. CHH W 25 10 3 6 50.0 0 0 - 4 4 100.0 1 2 3 2 0 0 3 1 8
p148
aVAaron Williams NJN 05/05/2002 NJN vs. CHH W 22 10 4 5 80.0 0 0 - 2 2 100.0 1 2 3 1 2 1 0 3 7
p149
aVKerry Kittles NJN 05/05/2002 NJN vs. CHH W 23 12 5 9 55.6 0 1 0.0 2 2 100.0 1 1 2 1 0 0 1 1 -2
p150
aVJason Kidd NJN 05/05/2002 NJN vs. CHH W 38 21 8 13 61.5 1 2 50.0 4 4 100.0 1 6 7 7 1 0 2 3 10
p151
aVKeith Van Horn NJN 05/05/2002 NJN vs. CHH W 30 11 4 8 50.0 1 3 33.3 2 2 100.0 0 5 5 3 1 0 2 2 5
p152
aVAnthony Johnson NJN 05/05/2002 NJN vs. CHH W 10 4 2 4 50.0 0 0 - 0 0 - 0 2 2 1 1 0 0 2 -4
p153
aVKenyon Martin NJN 05/05/2002 NJN vs. CHH W 38 10 3 14 21.4 0 0 - 4 6 66.7 0 6 6 3 1 3 6 3 10
p154
aVJason Collins NJN 05/05/2002 NJN vs. CHH W 10 2 1 1 100.0 0 0 - 0 0 - 1 2 3 0 0 1 4 0 -6
p155
aVRichard Jefferson NJN 05/05/2002 NJN vs. CHH W 21 5 1 3 33.3 0 0 - 3 4 75.0 1 1 2 3 0 0 0 3 0
p156
aVTodd MacCulloch NJN 05/05/2002 NJN vs. CHH W 22 14 5 7 71.4 0 0 - 4 5 80.0 3 3 6 2 0 5 0 2 2
p157
aVKeith Van Horn NJN 05/02/2002 NJN vs. IND W 34 27 9 19 47.4 5 8 62.5 4 7 57.1 2 4 6 1 1 0 0 6 9
p158
aVRichard Jefferson NJN 05/02/2002 NJN vs. IND W 17 4 1 4 25.0 0 0 - 2 6 33.3 1 3 4 0 0 0 0 0 -4
p159
aVTodd MacCulloch NJN 05/02/2002 NJN vs. IND W 19 4 2 5 40.0 0 0 - 0 0 - 4 2 6 2 0 1 1 2 7
p160
aVJason Kidd NJN 05/02/2002 NJN vs. IND W 52 31 11 26 42.3 0 3 0.0 9 9 100.0 2 6 8 7 4 1 4 3 11
p161
aVAaron Williams NJN 05/02/2002 NJN vs. IND W 39 6 3 6 50.0 0 0 - 0 0 - 4 3 7 0 0 0 1 2 4
p162
aVKenyon Martin NJN 05/02/2002 NJN vs. IND W 56 29 12 23 52.2 0 1 0.0 5 7 71.4 2 6 8 4 2 1 4 5 6
p163
aVAnthony Johnson NJN 05/02/2002 NJN vs. IND W 7 4 1 3 33.3 0 0 - 2 2 100.0 0 2 2 1 0 0 1 2 0
p164
aVKerry Kittles NJN 05/02/2002 NJN vs. IND W 43 9 4 12 33.3 0 2 0.0 1 1 100.0 2 3 5 3 0 2 0 1 5
p165
aVLucious Harris NJN 05/02/2002 NJN vs. IND W 24 6 2 4 50.0 0 1 0.0 2 2 100.0 1 4 5 0 2 0 0 1 17
p166
aVRichard Jefferson NJN 04/30/2002 NJN @ IND L 28 11 4 5 80.0 0 0 - 3 3 100.0 0 4 4 3 0 1 4 3 -13
p167
aVTodd MacCulloch NJN 04/30/2002 NJN @ IND L 18 6 3 4 75.0 0 0 - 0 0 - 1 3 4 0 0 2 0 4 -5
p168
aVAnthony Johnson NJN 04/30/2002 NJN @ IND L 16 6 3 8 37.5 0 1 0.0 0 0 - 0 0 0 3 3 0 2 3 -8
p169
aVKerry Kittles NJN 04/30/2002 NJN @ IND L 21 4 2 5 40.0 0 1 0.0 0 1 0.0 0 2 2 0 2 0 1 2 -13
p170
aVKeith Van Horn NJN 04/30/2002 NJN @ IND L 22 5 2 4 50.0 1 2 50.0 0 0 - 1 3 4 2 0 1 2 3 -14
p171
aVJason Kidd NJN 04/30/2002 NJN @ IND L 32 10 4 15 26.7 1 3 33.3 1 2 50.0 0 1 1 6 1 0 3 0 -15
p172
aVLucious Harris NJN 04/30/2002 NJN @ IND L 23 10 4 8 50.0 1 1 100.0 1 1 100.0 0 2 2 0 1 0 3 2 -7
p173
aVJason Collins NJN 04/30/2002 NJN @ IND L 16 4 1 2 50.0 0 0 - 2 4 50.0 2 1 3 0 1 0 0 3 -5
p174
aVAaron Williams NJN 04/30/2002 NJN @ IND L 26 3 1 7 14.3 0 0 - 1 2 50.0 2 2 4 1 0 1 2 3 -15
p175
aVDonny Marshall NJN 04/30/2002 NJN @ IND L 4 0 0 1 0.0 0 1 0.0 0 0 - 0 0 0 0 0 0 0 0 -3
p176
aVKenyon Martin NJN 04/30/2002 NJN @ IND L 30 13 5 16 31.3 0 0 - 3 4 75.0 1 5 6 2 0 0 2 2 -14
p177
aVBrian Scalabrine NJN 04/30/2002 NJN @ IND L 4 2 1 1 100.0 0 0 - 0 0 - 0 0 0 0 0 0 0 0 -3
p178
aVAaron Williams NJN 04/26/2002 NJN @ IND W 26 2 1 4 25.0 0 0 - 0 2 0.0 0 8 8 1 1 3 1 2 -3
p179
aVJason Collins NJN 04/26/2002 NJN @ IND W 7 0 0 0 - 0 0 - 0 0 - 0 0 0 0 0 0 1 1 2
p180
aVLucious Harris NJN 04/26/2002 NJN @ IND W 19 6 3 4 75.0 0 0 - 0 0 - 0 2 2 1 0 0 0 1 2
p181
aVTodd MacCulloch NJN 04/26/2002 NJN @ IND W 19 4 1 2 50.0 0 0 - 2 4 50.0 0 4 4 0 0 1 0 0 4
p182
aVAnthony Johnson NJN 04/26/2002 NJN @ IND W 13 7 3 6 50.0 0 2 0.0 1 2 50.0 0 1 1 1 1 0 1 2 6
p183
aVKenyon Martin NJN 04/26/2002 NJN @ IND W 35 21 9 13 69.2 0 0 - 3 4 75.0 0 3 3 3 0 2 4 5 -5
p184
aVKerry Kittles NJN 04/26/2002 NJN @ IND W 27 5 2 11 18.2 1 3 33.3 0 0 - 1 3 4 4 3 1 0 2 -6
p185
aVRichard Jefferson NJN 04/26/2002 NJN @ IND W 20 2 1 5 20.0 0 0 - 0 0 - 2 4 6 1 0 0 0 1 5
p186
aVJason Kidd NJN 04/26/2002 NJN @ IND W 37 24 10 21 47.6 1 5 20.0 3 3 100.0 1 5 6 11 3 0 5 2 -2
p187
aVKeith Van Horn NJN 04/26/2002 NJN @ IND W 37 14 5 15 33.3 1 3 33.3 3 5 60.0 3 9 12 1 1 1 2 3 2
p188
aVDonny Marshall NJN 04/22/2002 NJN vs. IND W 2 0 0 0 - 0 0 - 0 0 - 0 0 0 0 0 0 0 1 -1
p189
aVLucious Harris NJN 04/22/2002 NJN vs. IND W 21 8 3 4 75.0 0 0 - 2 2 100.0 0 0 0 0 0 0 0 1 1
p190
aVKerry Kittles NJN 04/22/2002 NJN vs. IND W 27 4 2 6 33.3 0 0 - 0 0 - 0 1 1 2 3 0 1 2 18
p191
aVJason Kidd NJN 04/22/2002 NJN vs. IND W 36 20 6 13 46.2 0 3 0.0 8 10 80.0 2 8 10 9 1 0 2 1 15
p192
aVBrian Scalabrine NJN 04/22/2002 NJN vs. IND W 2 0 0 1 0.0 0 1 0.0 0 0 - 0 2 2 0 0 1 0 0 -1
p193
aVAaron Williams NJN 04/22/2002 NJN vs. IND W 24 15 5 7 71.4 0 0 - 5 6 83.3 0 1 1 2 0 0 3 4 5
p194
aVKeith Van Horn NJN 04/22/2002 NJN vs. IND W 34 17 6 16 37.5 2 6 33.3 3 3 100.0 1 4 5 0 3 0 3 3 20
p195
aVRichard Jefferson NJN 04/22/2002 NJN vs. IND W 22 3 0 2 0.0 0 0 - 3 4 75.0 1 5 6 1 0 1 1 0 5
p196
aVJason Collins NJN 04/22/2002 NJN vs. IND W 10 2 1 3 33.3 0 0 - 0 0 - 2 0 2 2 1 0 0 2 -2
p197
aVAnthony Johnson NJN 04/22/2002 NJN vs. IND W 12 5 2 4 50.0 1 1 100.0 0 0 - 0 1 1 2 0 0 1 3 1
p198
aVKenyon Martin NJN 04/22/2002 NJN vs. IND W 31 19 7 16 43.8 0 1 0.0 5 5 100.0 2 4 6 2 0 2 1 5 6
p199
aVTodd MacCulloch NJN 04/22/2002 NJN vs. IND W 19 2 1 5 20.0 0 0 - 0 0 - 2 5 7 1 0 2 1 2 13
p200
aVKerry Kittles NJN 04/20/2002 NJN vs. IND L 33 9 4 9 44.4 1 3 33.3 0 0 - 1 0 1 0 2 0 1 3 -9
p201
aVAnthony Johnson NJN 04/20/2002 NJN vs. IND L 5 0 0 0 - 0 0 - 0 0 - 0 0 0 0 0 0 0 0 4
p202
aVTodd MacCulloch NJN 04/20/2002 NJN vs. IND L 21 7 3 6 50.0 0 0 - 1 2 50.0 3 2 5 0 0 0 2 3 -4
p203
aVKeith Van Horn NJN 04/20/2002 NJN vs. IND L 35 10 4 13 30.8 1 4 25.0 1 2 50.0 0 4 4 1 1 1 2 2 -7
p204
aVLucious Harris NJN 04/20/2002 NJN vs. IND L 15 6 3 7 42.9 0 0 - 0 0 - 1 0 1 0 0 0 1 3 3
p205
aVRichard Jefferson NJN 04/20/2002 NJN vs. IND L 20 4 2 3 66.7 0 0 - 0 0 - 1 3 4 0 0 3 2 3 5
p206
aVAaron Williams NJN 04/20/2002 NJN vs. IND L 24 6 1 2 50.0 0 0 - 4 4 100.0 1 2 3 0 0 2 1 2 -2
p207
aVKenyon Martin NJN 04/20/2002 NJN vs. IND L 38 15 7 16 43.8 0 0 - 1 4 25.0 4 9 13 2 2 0 5 2 -14
p208
aVJason Collins NJN 04/20/2002 NJN vs. IND L 6 0 0 0 - 0 0 - 0 0 - 0 0 0 0 0 1 0 1 4
p209
aVJason Kidd NJN 04/20/2002 NJN vs. IND L 43 26 11 23 47.8 0 4 0.0 4 5 80.0 1 7 8 9 2 1 3 3 -10
p210
a.