(lp0
VPLAYER TEAM DATE MATCHUP W/L MIN PTS FGM FGA FG% 3PM 3PA 3P% FTM FTA FT% OREB DREB REB AST STL BLK TOV PF +/-
p1
aVRuben Patterson POR 04/28/2002 POR vs. LAL L 15 1 0 0 - 0 0 - 1 2 50.0 0 2 2 0 1 0 1 2 -11
p2
aVDamon Stoudamire POR 04/28/2002 POR vs. LAL L 25 9 3 7 42.9 2 3 66.7 1 1 100.0 0 3 3 1 0 0 3 0 9
p3
aVScottie Pippen POR 04/28/2002 POR vs. LAL L 33 18 6 15 40.0 1 2 50.0 5 6 83.3 5 6 11 8 2 0 6 4 4
p4
aVChris Dudley POR 04/28/2002 POR vs. LAL L 2 0 0 1 0.0 0 0 - 0 0 - 0 2 2 0 0 0 1 1 -5
p5
aVSteve Kerr POR 04/28/2002 POR vs. LAL L 20 9 4 7 57.1 1 3 33.3 0 0 - 0 2 2 1 1 0 0 0 -6
p6
aVRasheed Wallace POR 04/28/2002 POR vs. LAL L 42 20 8 22 36.4 1 5 20.0 3 4 75.0 4 8 12 3 0 1 0 4 4
p7
aVDale Davis POR 04/28/2002 POR vs. LAL L 23 0 0 3 0.0 0 0 - 0 0 - 4 4 8 2 1 1 1 6 2
p8
aVBonzi Wells POR 04/28/2002 POR vs. LAL L 40 19 7 15 46.7 0 2 0.0 5 5 100.0 0 6 6 5 5 1 3 2 -6
p9
aVDerek Anderson POR 04/28/2002 POR vs. LAL L 27 12 3 12 25.0 1 2 50.0 5 6 83.3 2 1 3 3 1 0 2 1 -4
p10
aVShawn Kemp POR 04/28/2002 POR vs. LAL L 13 3 1 2 50.0 0 0 - 1 2 50.0 2 2 4 0 0 0 2 5 8
p11
aVScottie Pippen POR 04/25/2002 POR @ LAL L 28 20 8 13 61.5 4 5 80.0 0 0 - 1 8 9 4 1 1 1 6 1
p12
aVChris Dudley POR 04/25/2002 POR @ LAL L 0 0 0 0 - 0 0 - 0 0 - 0 0 0 0 0 0 0 0 0
p13
aVDerek Anderson POR 04/25/2002 POR @ LAL L 25 10 2 4 50.0 0 1 0.0 6 6 100.0 1 1 2 3 1 0 2 0 -13
p14
aVBonzi Wells POR 04/25/2002 POR @ LAL L 33 10 3 11 27.3 0 3 0.0 4 6 66.7 1 0 1 2 0 0 5 6 -12
p15
aVRick Brunson POR 04/25/2002 POR @ LAL L 1 0 0 0 - 0 0 - 0 0 - 0 0 0 0 0 0 0 0 1
p16
aVDamon Stoudamire POR 04/25/2002 POR @ LAL L 36 2 1 7 14.3 0 0 - 0 0 - 0 2 2 5 2 0 0 3 -8
p17
aVRasheed Wallace POR 04/25/2002 POR @ LAL L 43 31 12 27 44.4 2 5 40.0 5 6 83.3 2 9 11 1 2 0 1 4 -4
p18
aVSteve Kerr POR 04/25/2002 POR @ LAL L 12 9 2 5 40.0 1 4 25.0 4 4 100.0 0 1 1 3 0 0 1 3 13
p19
aVDale Davis POR 04/25/2002 POR @ LAL L 23 5 2 5 40.0 0 0 - 1 2 50.0 1 6 7 1 1 1 1 4 -18
p20
aVRuben Patterson POR 04/25/2002 POR @ LAL L 23 2 1 5 20.0 0 0 - 0 0 - 1 1 2 1 2 1 0 3 1
p21
aVShawn Kemp POR 04/25/2002 POR @ LAL L 15 7 1 3 33.3 0 0 - 5 6 83.3 0 0 0 0 1 0 0 2 4
p22
aVSteve Kerr POR 04/21/2002 POR @ LAL L 7 1 0 2 0.0 0 1 0.0 1 1 100.0 0 1 1 1 0 0 0 3 -5
p23
aVRick Brunson POR 04/21/2002 POR @ LAL L 0 0 0 0 - 0 0 - 0 0 - 0 0 0 0 0 0 0 0 0
p24
aVBonzi Wells POR 04/21/2002 POR @ LAL L 33 8 4 12 33.3 0 2 0.0 0 2 0.0 3 2 5 6 1 0 3 3 -5
p25
aVDamon Stoudamire POR 04/21/2002 POR @ LAL L 39 4 1 8 12.5 1 1 100.0 1 2 50.0 1 1 2 4 0 0 1 2 -6
p26
aVShawn Kemp POR 04/21/2002 POR @ LAL L 7 1 0 2 0.0 0 0 - 1 2 50.0 0 4 4 0 0 0 0 1 8
p27
aVRasheed Wallace POR 04/21/2002 POR @ LAL L 40 25 8 20 40.0 4 7 57.1 5 6 83.3 4 10 14 1 0 1 1 4 -14
p28
aVDale Davis POR 04/21/2002 POR @ LAL L 24 2 1 3 33.3 0 0 - 0 0 - 1 4 5 1 2 1 0 6 -4
p29
aVDerek Anderson POR 04/21/2002 POR @ LAL L 24 22 8 14 57.1 1 3 33.3 5 6 83.3 0 2 2 1 0 0 2 0 4
p30
aVScottie Pippen POR 04/21/2002 POR @ LAL L 38 11 4 11 36.4 1 4 25.0 2 2 100.0 2 6 8 5 1 1 3 4 -12
p31
aVZach Randolph POR 04/21/2002 POR @ LAL L 0 0 0 0 - 0 0 - 0 0 - 0 0 0 0 0 0 0 0 0
p32
aVRuben Patterson POR 04/21/2002 POR @ LAL L 27 13 4 10 40.0 0 1 0.0 5 6 83.3 1 2 3 0 0 0 2 2 -6
p33
a.