(lp0
VPLAYER TEAM DATE MATCHUP W/L MIN PTS FGM FGA FG% 3PM 3PA 3P% FTM FTA FT% OREB DREB REB AST STL BLK TOV PF +/-
p1
aVElden Campbell CHH 05/15/2002 CHH @ NJN L 27 11 4 9 44.4 0 0 - 3 6 50.0 1 4 5 1 1 2 3 5 6
p2
aVGeorge Lynch CHH 05/15/2002 CHH @ NJN L 44 11 5 9 55.6 1 2 50.0 0 0 - 3 10 13 5 1 0 2 4 -9
p3
aVLee Nailon CHH 05/15/2002 CHH @ NJN L 21 14 3 9 33.3 0 1 0.0 8 9 88.9 4 1 5 0 1 0 2 3 -3
p4
aVJamaal Magloire CHH 05/15/2002 CHH @ NJN L 21 14 3 7 42.9 0 0 - 8 13 61.5 5 5 10 0 0 1 2 3 -14
p5
aVP.J. Brown CHH 05/15/2002 CHH @ NJN L 24 10 3 7 42.9 0 0 - 4 4 100.0 2 3 5 0 0 0 1 6 -13
p6
aVBaron Davis CHH 05/15/2002 CHH @ NJN L 37 13 4 15 26.7 2 8 25.0 3 6 50.0 0 4 4 8 2 0 2 6 3
p7
aVDavid Wesley CHH 05/15/2002 CHH @ NJN L 43 13 5 12 41.7 2 4 50.0 1 2 50.0 0 1 1 2 1 0 3 3 -5
p8
aVRobert Traylor CHH 05/15/2002 CHH @ NJN L 4 2 1 3 33.3 0 0 - 0 0 - 0 1 1 0 0 0 1 2 2
p9
aVStacey Augmon CHH 05/15/2002 CHH @ NJN L 19 7 3 7 42.9 0 0 - 1 2 50.0 1 1 2 1 0 0 0 4 -7
p10
aVLee Nailon CHH 05/12/2002 CHH vs. NJN L 17 6 3 6 50.0 0 0 - 0 0 - 1 2 3 0 0 0 2 2 0
p11
aVGeorge Lynch CHH 05/12/2002 CHH vs. NJN L 41 19 8 16 50.0 1 3 33.3 2 3 66.7 1 5 6 1 1 4 0 3 -8
p12
aVP.J. Brown CHH 05/12/2002 CHH vs. NJN L 38 7 2 5 40.0 0 0 - 3 4 75.0 2 14 16 4 0 5 1 6 -12
p13
aVJamaal Magloire CHH 05/12/2002 CHH vs. NJN L 13 5 2 5 40.0 0 0 - 1 2 50.0 1 1 2 0 0 1 2 4 -1
p14
aVDavid Wesley CHH 05/12/2002 CHH vs. NJN L 44 15 5 13 38.5 2 7 28.6 3 3 100.0 0 1 1 5 3 0 2 4 -11
p15
aVStacey Augmon CHH 05/12/2002 CHH vs. NJN L 4 0 0 0 - 0 0 - 0 0 - 0 1 1 1 1 0 1 0 1
p16
aVBaron Davis CHH 05/12/2002 CHH vs. NJN L 48 20 5 19 26.3 1 10 10.0 9 17 52.9 2 3 5 6 4 0 4 5 -10
p17
aVElden Campbell CHH 05/12/2002 CHH vs. NJN L 35 7 2 9 22.2 0 1 0.0 3 4 75.0 0 6 6 2 3 3 1 3 -9
p18
aVDavid Wesley CHH 05/09/2002 CHH vs. NJN W 43 22 8 17 47.1 2 5 40.0 4 4 100.0 0 0 0 6 1 0 5 2 24
p19
aVBaron Davis CHH 05/09/2002 CHH vs. NJN W 41 26 9 24 37.5 2 5 40.0 6 10 60.0 1 6 7 8 7 0 4 4 20
p20
aVStacey Augmon CHH 05/09/2002 CHH vs. NJN W 5 1 0 0 - 0 0 - 1 2 50.0 0 0 0 0 0 0 0 0 -6
p21
aVJamaal Magloire CHH 05/09/2002 CHH vs. NJN W 25 16 3 3 100.0 0 0 - 10 11 90.9 3 6 9 2 0 6 4 6 11
p22
aVLee Nailon CHH 05/09/2002 CHH vs. NJN W 18 10 5 8 62.5 0 0 - 0 0 - 0 4 4 1 1 0 0 3 1
p23
aVP.J. Brown CHH 05/09/2002 CHH vs. NJN W 37 8 3 6 50.0 0 0 - 2 2 100.0 2 5 7 0 0 0 1 3 17
p24
aVElden Campbell CHH 05/09/2002 CHH vs. NJN W 22 14 5 8 62.5 0 0 - 4 6 66.7 0 5 5 3 0 2 0 5 7
p25
aVKirk Haston CHH 05/09/2002 CHH vs. NJN W 3 2 1 1 100.0 0 0 - 0 0 - 0 1 1 0 1 0 0 1 -1
p26
aVBryce Drew CHH 05/09/2002 CHH vs. NJN W 4 2 1 1 100.0 0 0 - 0 0 - 0 0 0 2 0 0 0 0 -1
p27
aVGeorge Lynch CHH 05/09/2002 CHH vs. NJN W 35 12 5 6 83.3 0 0 - 2 2 100.0 7 5 12 2 1 0 1 2 26
p28
aVRobert Traylor CHH 05/09/2002 CHH vs. NJN W 6 2 1 1 100.0 0 0 - 0 0 - 0 0 0 1 0 0 0 0 -8
p29
aVLee Nailon CHH 05/07/2002 CHH @ NJN L 8 0 0 3 0.0 0 0 - 0 0 - 0 0 0 0 0 0 1 1 -12
p30
aVP.J. Brown CHH 05/07/2002 CHH @ NJN L 43 7 3 7 42.9 0 0 - 1 2 50.0 4 5 9 0 1 3 0 5 -10
p31
aVElden Campbell CHH 05/07/2002 CHH @ NJN L 32 15 6 14 42.9 0 0 - 3 4 75.0 2 6 8 1 0 2 1 2 7
p32
aVDavid Wesley CHH 05/07/2002 CHH @ NJN L 41 17 7 17 41.2 3 6 50.0 0 0 - 0 3 3 4 1 0 1 5 -4
p33
aVGeorge Lynch CHH 05/07/2002 CHH @ NJN L 34 6 3 6 50.0 0 1 0.0 0 0 - 4 7 11 1 2 0 1 3 -6
p34
aVJamaal Magloire CHH 05/07/2002 CHH @ NJN L 16 13 3 6 50.0 0 0 - 7 10 70.0 2 0 2 0 0 1 3 5 -21
p35
aVStacey Augmon CHH 05/07/2002 CHH @ NJN L 16 7 2 6 33.3 0 0 - 3 4 75.0 1 2 3 1 0 0 3 1 -8
p36
aVBaron Davis CHH 05/07/2002 CHH @ NJN L 45 21 9 20 45.0 2 5 40.0 1 6 16.7 2 3 5 7 1 2 4 4 -12
p37
aVRobert Traylor CHH 05/07/2002 CHH @ NJN L 5 2 1 3 33.3 0 1 0.0 0 0 - 2 1 3 0 0 1 0 1 -4
p38
aVP.J. Brown CHH 05/05/2002 CHH @ NJN L 37 11 4 9 44.4 0 0 - 3 4 75.0 4 5 9 2 1 2 0 3 -15
p39
aVDavid Wesley CHH 05/05/2002 CHH @ NJN L 37 13 6 16 37.5 1 4 25.0 0 0 - 0 1 1 8 0 0 1 4 -10
p40
aVElden Campbell CHH 05/05/2002 CHH @ NJN L 31 22 8 18 44.4 0 0 - 6 8 75.0 2 4 6 1 1 5 5 5 3
p41
aVStacey Augmon CHH 05/05/2002 CHH @ NJN L 22 6 2 7 28.6 0 0 - 2 2 100.0 1 5 6 2 3 0 3 2 0
p42
aVBaron Davis CHH 05/05/2002 CHH @ NJN L 44 23 9 23 39.1 4 8 50.0 1 1 100.0 2 4 6 5 7 0 3 4 -6
p43
aVRobert Traylor CHH 05/05/2002 CHH @ NJN L 19 2 1 4 25.0 0 0 - 0 0 - 2 1 3 1 0 0 1 5 -2
p44
aVGeorge Lynch CHH 05/05/2002 CHH @ NJN L 34 4 1 7 14.3 0 0 - 2 2 100.0 2 4 6 2 1 2 2 3 -3
p45
aVLee Nailon CHH 05/05/2002 CHH @ NJN L 17 12 5 8 62.5 0 0 - 2 2 100.0 3 1 4 0 0 0 0 2 3
p46
aVBryce Drew CHH 04/30/2002 CHH @ ORL W 1 0 0 0 - 0 0 - 0 0 - 0 0 0 0 0 0 0 0 -2
p47
aVP.J. Brown CHH 04/30/2002 CHH @ ORL W 38 9 4 12 33.3 0 0 - 1 2 50.0 3 5 8 3 2 0 1 1 16
p48
aVGeorge Lynch CHH 04/30/2002 CHH @ ORL W 29 2 1 5 20.0 0 0 - 0 0 - 7 3 10 2 0 0 1 3 10
p49
aVStacey Augmon CHH 04/30/2002 CHH @ ORL W 20 13 5 9 55.6 0 0 - 3 3 100.0 1 2 3 1 2 0 2 6 11
p50
aVElden Campbell CHH 04/30/2002 CHH @ ORL W 23 10 4 8 50.0 0 0 - 2 2 100.0 1 6 7 2 0 2 2 3 -2
p51
aVKirk Haston CHH 04/30/2002 CHH @ ORL W 1 0 0 0 - 0 0 - 0 0 - 0 0 0 0 0 0 0 0 -2
p52
aVBaron Davis CHH 04/30/2002 CHH @ ORL W 46 28 10 19 52.6 2 5 40.0 6 8 75.0 2 9 11 10 3 1 3 3 18
p53
aVRobert Traylor CHH 04/30/2002 CHH @ ORL W 7 1 0 1 0.0 0 0 - 1 2 50.0 0 2 2 0 1 0 0 0 7
p54
aVDavid Wesley CHH 04/30/2002 CHH @ ORL W 42 18 7 13 53.8 3 4 75.0 1 1 100.0 0 3 3 1 1 0 4 3 12
p55
aVJamaal Magloire CHH 04/30/2002 CHH @ ORL W 20 19 4 5 80.0 0 0 - 11 13 84.6 1 4 5 1 0 2 0 3 13
p56
aVLee Nailon CHH 04/30/2002 CHH @ ORL W 14 2 1 5 20.0 0 0 - 0 2 0.0 0 2 2 0 1 0 0 3 4
p57
aVRobert Traylor CHH 04/27/2002 CHH @ ORL W 10 2 1 4 25.0 0 0 - 0 0 - 0 5 5 1 1 1 0 1 8
p58
aVDavid Wesley CHH 04/27/2002 CHH @ ORL W 43 12 4 11 36.4 1 1 100.0 3 4 75.0 2 1 3 1 1 1 2 5 -15
p59
aVJamaal Magloire CHH 04/27/2002 CHH @ ORL W 31 15 3 6 50.0 0 0 - 9 12 75.0 3 7 10 1 0 1 2 3 34
p60
aVElden Campbell CHH 04/27/2002 CHH @ ORL W 21 10 5 9 55.6 0 0 - 0 0 - 1 0 1 0 0 1 3 3 -24
p61
aVStacey Augmon CHH 04/27/2002 CHH @ ORL W 35 9 3 7 42.9 0 0 - 3 4 75.0 1 5 6 5 3 0 2 5 33
p62
aVLee Nailon CHH 04/27/2002 CHH @ ORL W 16 10 4 7 57.1 0 0 - 2 2 100.0 0 0 0 0 0 0 1 2 25
p63
aVBaron Davis CHH 04/27/2002 CHH @ ORL W 52 33 12 29 41.4 3 9 33.3 6 8 75.0 4 10 14 10 2 0 0 2 14
p64
aVP.J. Brown CHH 04/27/2002 CHH @ ORL W 37 17 6 13 46.2 0 0 - 5 6 83.3 2 6 8 2 0 0 1 5 2
p65
aVGeorge Lynch CHH 04/27/2002 CHH @ ORL W 19 2 1 3 33.3 0 0 - 0 0 - 3 2 5 0 1 0 0 3 -27
p66
aVElden Campbell CHH 04/23/2002 CHH vs. ORL L 38 27 12 23 52.2 0 0 - 3 4 75.0 2 11 13 4 1 3 1 3 0
p67
aVBaron Davis CHH 04/23/2002 CHH vs. ORL L 41 11 4 15 26.7 2 6 33.3 1 2 50.0 0 4 4 10 3 1 3 6 -5
p68
aVLee Nailon CHH 04/23/2002 CHH vs. ORL L 23 5 1 5 20.0 0 0 - 3 4 75.0 1 1 2 3 0 0 1 0 -9
p69
aVP.J. Brown CHH 04/23/2002 CHH vs. ORL L 40 9 3 6 50.0 0 0 - 3 5 60.0 4 5 9 0 0 0 2 6 3
p70
aVRobert Traylor CHH 04/23/2002 CHH vs. ORL L 7 3 1 3 33.3 0 0 - 1 2 50.0 0 1 1 0 0 0 0 3 -9
p71
aVJamaal Magloire CHH 04/23/2002 CHH vs. ORL L 16 10 2 2 100.0 0 0 - 6 6 100.0 1 3 4 1 0 1 2 3 -6
p72
aVDavid Wesley CHH 04/23/2002 CHH vs. ORL L 46 24 7 19 36.8 1 4 25.0 9 9 100.0 0 2 2 2 2 0 0 2 1
p73
aVStacey Augmon CHH 04/23/2002 CHH vs. ORL L 20 5 1 3 33.3 0 0 - 3 4 75.0 1 2 3 1 1 1 1 2 -14
p74
aVGeorge Lynch CHH 04/23/2002 CHH vs. ORL L 34 9 3 4 75.0 0 0 - 3 6 50.0 3 5 8 1 2 0 3 3 -1
p75
aVDavid Wesley CHH 04/20/2002 CHH vs. ORL W 37 8 3 11 27.3 2 3 66.7 0 0 - 1 2 3 2 0 1 3 2 2
p76
aVP.J. Brown CHH 04/20/2002 CHH vs. ORL W 37 14 4 10 40.0 0 0 - 6 8 75.0 6 9 15 3 2 2 1 2 -3
p77
aVJamal Mashburn CHH 04/20/2002 CHH vs. ORL W 10 0 0 6 0.0 0 1 0.0 0 0 - 0 1 1 1 0 0 0 0 -10
p78
aVStacey Augmon CHH 04/20/2002 CHH vs. ORL W 11 0 0 2 0.0 0 0 - 0 0 - 1 2 3 1 0 0 0 1 -1
p79
aVLee Nailon CHH 04/20/2002 CHH vs. ORL W 26 10 5 8 62.5 0 0 - 0 0 - 1 3 4 2 0 0 0 1 1
p80
aVGeorge Lynch CHH 04/20/2002 CHH vs. ORL W 16 4 2 3 66.7 0 0 - 0 0 - 2 3 5 0 1 0 0 2 9
p81
aVRobert Traylor CHH 04/20/2002 CHH vs. ORL W 5 4 1 1 100.0 0 0 - 2 2 100.0 0 1 1 0 0 0 2 3 2
p82
aVElden Campbell CHH 04/20/2002 CHH vs. ORL W 24 6 3 12 25.0 0 0 - 0 0 - 5 4 9 2 0 3 1 5 -5
p83
aVJamaal Magloire CHH 04/20/2002 CHH vs. ORL W 26 6 2 6 33.3 0 0 - 2 4 50.0 1 2 3 0 0 2 2 3 9
p84
aVBaron Davis CHH 04/20/2002 CHH vs. ORL W 48 28 9 24 37.5 3 6 50.0 7 9 77.8 3 4 7 7 3 1 4 2 1
p85
a.