(lp0
VPLAYER TEAM DATE MATCHUP W/L MIN PTS FGM FGA FG% 3PM 3PA 3P% FTM FTA FT% OREB DREB REB AST STL BLK TOV PF +/-
p1
aVJerome Moiso NOH 05/02/2003 NOH vs. PHI L 18 5 2 3 66.7 0 0 - 1 2 50.0 0 1 1 1 0 4 0 2 -8
p2
aVKenny Anderson NOH 05/02/2003 NOH vs. PHI L 2 0 0 0 - 0 0 - 0 0 - 0 0 0 1 0 0 0 1 2
p3
aVJamal Mashburn NOH 05/02/2003 NOH vs. PHI L 43 36 14 27 51.9 3 4 75.0 5 7 71.4 0 4 4 5 1 1 3 1 -3
p4
aVP.J. Brown NOH 05/02/2003 NOH vs. PHI L 30 7 2 6 33.3 0 0 - 3 4 75.0 1 7 8 1 0 0 1 3 4
p5
aVDavid Wesley NOH 05/02/2003 NOH vs. PHI L 30 19 8 16 50.0 2 6 33.3 1 1 100.0 0 1 1 4 0 0 0 6 -2
p6
aVGeorge Lynch NOH 05/02/2003 NOH vs. PHI L 21 1 0 3 0.0 0 2 0.0 1 2 50.0 2 2 4 0 1 1 1 2 -5
p7
aVBaron Davis NOH 05/02/2003 NOH vs. PHI L 34 21 8 13 61.5 2 4 50.0 3 4 75.0 1 4 5 11 1 0 3 5 8
p8
aVRobert Pack NOH 05/02/2003 NOH vs. PHI L 9 0 0 1 0.0 0 0 - 0 0 - 0 0 0 1 0 0 0 2 -11
p9
aVJamaal Magloire NOH 05/02/2003 NOH vs. PHI L 23 6 3 7 42.9 0 0 - 0 0 - 4 4 8 0 1 2 0 2 -8
p10
aVCourtney Alexander NOH 05/02/2003 NOH vs. PHI L 5 2 1 2 50.0 0 0 - 0 1 0.0 0 0 0 0 0 0 0 1 -1
p11
aVRobert Traylor NOH 05/02/2003 NOH vs. PHI L 25 6 3 5 60.0 0 0 - 0 2 0.0 3 5 8 2 1 1 0 2 4
p12
aVRobert Pack NOH 04/30/2003 NOH @ PHI W 7 0 0 1 0.0 0 0 - 0 0 - 0 0 0 0 0 0 0 1 0
p13
aVJamal Mashburn NOH 04/30/2003 NOH @ PHI W 40 21 8 20 40.0 2 3 66.7 3 6 50.0 0 3 3 6 1 0 2 2 -6
p14
aVJamaal Magloire NOH 04/30/2003 NOH @ PHI W 38 17 5 11 45.5 0 0 - 7 11 63.6 4 8 12 1 1 2 1 3 -4
p15
aVJerome Moiso NOH 04/30/2003 NOH @ PHI W 15 4 1 2 50.0 0 0 - 2 2 100.0 3 1 4 2 0 1 1 1 8
p16
aVBaron Davis NOH 04/30/2003 NOH @ PHI W 41 9 3 17 17.6 0 7 0.0 3 4 75.0 2 3 5 10 0 0 2 3 2
p17
aVCourtney Alexander NOH 04/30/2003 NOH @ PHI W 8 3 1 2 50.0 0 0 - 1 1 100.0 0 1 1 0 0 0 0 0 3
p18
aVGeorge Lynch NOH 04/30/2003 NOH @ PHI W 24 16 7 9 77.8 2 3 66.7 0 0 - 2 4 6 0 2 1 1 1 5
p19
aVRobert Traylor NOH 04/30/2003 NOH @ PHI W 10 2 1 4 25.0 0 0 - 0 0 - 1 1 2 0 1 0 1 4 7
p20
aVDavid Wesley NOH 04/30/2003 NOH @ PHI W 24 10 4 8 50.0 2 4 50.0 0 0 - 0 1 1 1 1 0 2 3 1
p21
aVP.J. Brown NOH 04/30/2003 NOH @ PHI W 33 11 4 9 44.4 0 0 - 3 5 60.0 3 2 5 0 3 0 0 3 -6
p22
aVJerome Moiso NOH 04/28/2003 NOH vs. PHI L 11 4 2 3 66.7 0 0 - 0 0 - 1 3 4 1 0 1 2 3 3
p23
aVJamaal Magloire NOH 04/28/2003 NOH vs. PHI L 39 7 1 7 14.3 0 0 - 5 6 83.3 2 6 8 0 2 1 3 3 -2
p24
aVKenny Anderson NOH 04/28/2003 NOH vs. PHI L 13 2 1 2 50.0 0 0 - 0 0 - 0 0 0 3 0 0 1 2 -5
p25
aVRobert Traylor NOH 04/28/2003 NOH vs. PHI L 9 0 0 2 0.0 0 0 - 0 0 - 1 2 3 1 0 1 1 3 -7
p26
aVP.J. Brown NOH 04/28/2003 NOH vs. PHI L 37 11 4 9 44.4 0 0 - 3 4 75.0 3 6 9 0 2 1 3 3 -12
p27
aVDavid Wesley NOH 04/28/2003 NOH vs. PHI L 34 12 5 11 45.5 2 4 50.0 0 0 - 0 0 0 2 2 0 5 3 -5
p28
aVStacey Augmon NOH 04/28/2003 NOH vs. PHI L 6 0 0 2 0.0 0 0 - 0 0 - 0 2 2 0 0 0 1 1 -4
p29
aVCourtney Alexander NOH 04/28/2003 NOH vs. PHI L 18 12 5 9 55.6 1 1 100.0 1 1 100.0 2 1 3 1 1 0 1 2 1
p30
aVBaron Davis NOH 04/28/2003 NOH vs. PHI L 42 34 12 19 63.2 5 8 62.5 5 6 83.3 1 1 2 7 2 1 1 5 -5
p31
aVGeorge Lynch NOH 04/28/2003 NOH vs. PHI L 31 5 2 11 18.2 1 6 16.7 0 0 - 2 5 7 5 0 1 1 3 -9
p32
aVCourtney Alexander NOH 04/26/2003 NOH vs. PHI W 5 1 0 2 0.0 0 0 - 1 1 100.0 0 0 0 0 1 0 0 1 0
p33
aVKenny Anderson NOH 04/26/2003 NOH vs. PHI W 19 7 2 7 28.6 0 0 - 3 3 100.0 0 0 0 3 2 0 1 2 13
p34
aVRobert Traylor NOH 04/26/2003 NOH vs. PHI W 14 0 0 1 0.0 0 0 - 0 0 - 1 3 4 1 0 0 1 2 5
p35
aVRobert Pack NOH 04/26/2003 NOH vs. PHI W 6 0 0 2 0.0 0 0 - 0 0 - 0 0 0 0 0 0 0 1 -3
p36
aVStacey Augmon NOH 04/26/2003 NOH vs. PHI W 17 2 1 3 33.3 0 0 - 0 0 - 1 1 2 1 2 0 0 0 16
p37
aVDavid Wesley NOH 04/26/2003 NOH vs. PHI W 26 9 3 11 27.3 3 7 42.9 0 0 - 1 1 2 2 0 0 2 4 -2
p38
aVGeorge Lynch NOH 04/26/2003 NOH vs. PHI W 36 7 3 10 30.0 1 4 25.0 0 0 - 3 8 11 3 2 0 2 2 9
p39
aVJamaal Magloire NOH 04/26/2003 NOH vs. PHI W 27 18 6 10 60.0 0 0 - 6 6 100.0 4 5 9 1 0 0 0 1 6
p40
aVJerome Moiso NOH 04/26/2003 NOH vs. PHI W 16 10 5 8 62.5 0 0 - 0 0 - 4 3 7 1 0 1 1 3 13
p41
aVP.J. Brown NOH 04/26/2003 NOH vs. PHI W 34 17 4 7 57.1 0 0 - 9 10 90.0 7 5 12 2 0 1 0 5 5
p42
aVBaron Davis NOH 04/26/2003 NOH vs. PHI W 40 28 11 26 42.3 4 12 33.3 2 4 50.0 0 4 4 8 1 0 3 2 8
p43
aVRobert Traylor NOH 04/23/2003 NOH @ PHI L 23 6 3 5 60.0 0 0 - 0 1 0.0 2 5 7 0 0 0 1 3 -3
p44
aVStacey Augmon NOH 04/23/2003 NOH @ PHI L 19 4 2 5 40.0 0 0 - 0 0 - 0 2 2 2 1 0 1 3 -10
p45
aVJamal Mashburn NOH 04/23/2003 NOH @ PHI L 35 14 4 11 36.4 0 3 0.0 6 9 66.7 0 2 2 6 2 0 3 1 0
p46
aVP.J. Brown NOH 04/23/2003 NOH @ PHI L 28 6 3 6 50.0 0 0 - 0 0 - 2 2 4 3 1 0 0 4 -6
p47
aVKenny Anderson NOH 04/23/2003 NOH @ PHI L 10 0 0 2 0.0 0 0 - 0 0 - 0 2 2 2 0 0 1 0 -12
p48
aVJamaal Magloire NOH 04/23/2003 NOH @ PHI L 33 12 5 7 71.4 0 0 - 2 2 100.0 1 7 8 0 0 0 3 3 -1
p49
aVDavid Wesley NOH 04/23/2003 NOH @ PHI L 46 24 8 21 38.1 4 9 44.4 4 4 100.0 0 2 2 2 1 1 2 2 -3
p50
aVGeorge Lynch NOH 04/23/2003 NOH @ PHI L 26 4 2 4 50.0 0 2 0.0 0 0 - 1 2 3 2 1 1 1 5 1
p51
aVRobert Pack NOH 04/23/2003 NOH @ PHI L 20 15 6 9 66.7 0 0 - 3 3 100.0 0 1 1 3 0 0 1 5 9
p52
aVKenny Anderson NOH 04/20/2003 NOH @ PHI L 7 2 1 1 100.0 0 0 - 0 0 - 0 0 0 0 1 0 1 1 1
p53
aVJamaal Magloire NOH 04/20/2003 NOH @ PHI L 28 9 2 7 28.6 0 0 - 5 8 62.5 2 3 5 0 0 1 2 3 -10
p54
aVCourtney Alexander NOH 04/20/2003 NOH @ PHI L 3 0 0 1 0.0 0 0 - 0 0 - 0 0 0 0 0 0 0 2 -1
p55
aVDavid Wesley NOH 04/20/2003 NOH @ PHI L 25 5 1 5 20.0 1 4 25.0 2 2 100.0 0 1 1 2 1 0 4 5 -7
p56
aVP.J. Brown NOH 04/20/2003 NOH @ PHI L 31 9 4 7 57.1 0 0 - 1 2 50.0 4 4 8 0 1 1 1 4 -27
p57
aVRobert Traylor NOH 04/20/2003 NOH @ PHI L 13 7 3 5 60.0 0 0 - 1 1 100.0 3 3 6 0 1 3 2 3 7
p58
aVGeorge Lynch NOH 04/20/2003 NOH @ PHI L 25 9 4 5 80.0 1 1 100.0 0 2 0.0 0 6 6 0 0 1 2 1 14
p59
aVStacey Augmon NOH 04/20/2003 NOH @ PHI L 27 11 2 5 40.0 0 0 - 7 8 87.5 0 4 4 0 0 0 1 4 -6
p60
aVJamal Mashburn NOH 04/20/2003 NOH @ PHI L 44 28 8 21 38.1 1 5 20.0 11 13 84.6 0 5 5 4 0 0 2 0 -15
p61
aVBaron Davis NOH 04/20/2003 NOH @ PHI L 37 10 3 8 37.5 1 4 25.0 3 4 75.0 0 2 2 6 3 1 6 5 4
p62
a.