(lp0
VPLAYER TEAM DATE MATCHUP W/L MIN PTS FGM FGA FG% 3PM 3PA 3P% FTM FTA FT% OREB DREB REB AST STL BLK TOV PF +/-
p1
aVPaul Pierce BOS 05/12/2003 BOS vs. NJN L 54 27 7 24 29.2 1 4 25.0 12 14 85.7 0 10 10 7 2 0 6 5 -6
p2
aVMark Blount BOS 05/12/2003 BOS vs. NJN L 24 4 2 5 40.0 0 0 - 0 2 0.0 1 6 7 0 1 1 3 0 -7
p3
aVTony Delk BOS 05/12/2003 BOS vs. NJN L 47 23 10 16 62.5 3 5 60.0 0 0 - 1 8 9 2 5 1 2 2 -2
p4
aVWalter McCarty BOS 05/12/2003 BOS vs. NJN L 28 3 1 5 20.0 1 4 25.0 0 0 - 0 4 4 2 0 0 0 4 -17
p5
aVGrant Long BOS 05/12/2003 BOS vs. NJN L 6 0 0 1 0.0 0 0 - 0 0 - 2 0 2 1 0 0 0 0 -5
p6
aVBimbo Coles BOS 05/12/2003 BOS vs. NJN L 4 0 0 2 0.0 0 2 0.0 0 0 - 0 0 0 1 0 0 0 1 -2
p7
aVEric Williams BOS 05/12/2003 BOS vs. NJN L 42 18 5 13 38.5 1 3 33.3 7 9 77.8 3 2 5 3 2 0 0 3 -6
p8
aVJ.R. Bremer BOS 05/12/2003 BOS vs. NJN L 12 0 0 3 0.0 0 2 0.0 0 0 - 0 0 0 0 0 0 1 2 -11
p9
aVTony Battie BOS 05/12/2003 BOS vs. NJN L 27 6 3 6 50.0 0 0 - 0 0 - 1 4 5 0 1 1 2 4 6
p10
aVAntoine Walker BOS 05/12/2003 BOS vs. NJN L 46 20 8 15 53.3 1 3 33.3 3 3 100.0 2 7 9 7 5 1 6 6 5
p11
aVMark Blount BOS 05/09/2003 BOS vs. NJN L 20 4 1 1 100.0 0 0 - 2 2 100.0 1 2 3 0 1 1 0 4 -6
p12
aVGrant Long BOS 05/09/2003 BOS vs. NJN L 5 0 0 0 - 0 0 - 0 0 - 0 1 1 0 0 0 0 0 6
p13
aVTony Battie BOS 05/09/2003 BOS vs. NJN L 18 4 2 3 66.7 0 0 - 0 0 - 1 0 1 0 1 2 1 4 -7
p14
aVBimbo Coles BOS 05/09/2003 BOS vs. NJN L 3 0 0 1 0.0 0 0 - 0 0 - 0 1 1 0 0 0 0 0 1
p15
aVPaul Pierce BOS 05/09/2003 BOS vs. NJN L 41 23 8 22 36.4 2 7 28.6 5 5 100.0 2 8 10 5 2 1 5 5 -21
p16
aVKedrick Brown BOS 05/09/2003 BOS vs. NJN L 3 3 1 3 33.3 0 0 - 1 2 50.0 1 0 1 0 0 0 0 0 3
p17
aVAntoine Walker BOS 05/09/2003 BOS vs. NJN L 41 15 6 17 35.3 1 4 25.0 2 3 66.7 4 11 15 1 0 1 3 2 -25
p18
aVEric Williams BOS 05/09/2003 BOS vs. NJN L 20 0 0 5 0.0 0 0 - 0 0 - 1 0 1 0 0 0 4 5 -18
p19
aVTony Delk BOS 05/09/2003 BOS vs. NJN L 35 16 5 13 38.5 2 3 66.7 4 4 100.0 1 2 3 6 0 1 0 2 -11
p20
aVWalter McCarty BOS 05/09/2003 BOS vs. NJN L 34 6 2 5 40.0 2 5 40.0 0 0 - 0 6 6 1 0 0 2 4 -4
p21
aVJ.R. Bremer BOS 05/09/2003 BOS vs. NJN L 20 5 2 8 25.0 1 5 20.0 0 0 - 0 2 2 1 0 0 1 1 -8
p22
aVAntoine Walker BOS 05/07/2003 BOS @ NJN L 45 7 3 15 20.0 0 1 0.0 1 2 50.0 4 5 9 3 1 0 5 4 -7
p23
aVJ.R. Bremer BOS 05/07/2003 BOS @ NJN L 11 4 1 4 25.0 1 4 25.0 1 1 100.0 0 1 1 2 0 0 0 0 -8
p24
aVWalter McCarty BOS 05/07/2003 BOS @ NJN L 38 4 2 5 40.0 0 3 0.0 0 0 - 2 4 6 0 3 1 3 5 -11
p25
aVMark Blount BOS 05/07/2003 BOS @ NJN L 13 5 2 3 66.7 0 0 - 1 1 100.0 1 4 5 0 2 1 2 3 -10
p26
aVTony Delk BOS 05/07/2003 BOS @ NJN L 37 19 7 13 53.8 3 6 50.0 2 2 100.0 0 5 5 6 1 0 3 2 -1
p27
aVEric Williams BOS 05/07/2003 BOS @ NJN L 27 9 4 9 44.4 0 1 0.0 1 2 50.0 0 0 0 2 2 0 1 3 -16
p28
aVTony Battie BOS 05/07/2003 BOS @ NJN L 24 15 7 11 63.6 0 1 0.0 1 2 50.0 1 2 3 0 0 1 1 4 10
p29
aVPaul Pierce BOS 05/07/2003 BOS @ NJN L 45 32 9 17 52.9 1 3 33.3 13 15 86.7 2 8 10 11 2 1 6 4 -2
p30
aVPaul Pierce BOS 05/05/2003 BOS @ NJN L 44 34 9 17 52.9 1 4 25.0 15 20 75.0 1 4 5 8 4 2 8 3 -6
p31
aVJ.R. Bremer BOS 05/05/2003 BOS @ NJN L 12 3 1 4 25.0 1 3 33.3 0 0 - 0 1 1 2 2 0 1 3 4
p32
aVAntoine Walker BOS 05/05/2003 BOS @ NJN L 43 14 6 20 30.0 1 7 14.3 1 2 50.0 1 7 8 5 0 1 2 6 2
p33
aVGrant Long BOS 05/05/2003 BOS @ NJN L 4 0 0 0 - 0 0 - 0 0 - 0 0 0 0 0 0 0 0 -4
p34
aVTony Battie BOS 05/05/2003 BOS @ NJN L 18 4 2 3 66.7 0 1 0.0 0 0 - 0 3 3 2 1 0 2 6 -8
p35
aVMark Blount BOS 05/05/2003 BOS @ NJN L 12 2 1 3 33.3 0 0 - 0 0 - 0 0 0 0 0 1 0 1 -10
p36
aVEric Williams BOS 05/05/2003 BOS @ NJN L 25 15 6 9 66.7 1 2 50.0 2 2 100.0 0 3 3 0 1 0 0 4 12
p37
aVTony Delk BOS 05/05/2003 BOS @ NJN L 37 7 3 10 30.0 1 5 20.0 0 0 - 0 6 6 3 1 0 1 3 -8
p38
aVWalter McCarty BOS 05/05/2003 BOS @ NJN L 45 14 5 9 55.6 4 6 66.7 0 0 - 2 2 4 5 0 1 1 2 -2
p39
aVTony Delk BOS 05/01/2003 BOS vs. IND W 28 15 5 10 50.0 3 6 50.0 2 2 100.0 1 0 1 1 0 0 0 3 25
p40
aVKedrick Brown BOS 05/01/2003 BOS vs. IND W 5 0 0 0 - 0 0 - 0 0 - 1 0 1 0 1 0 0 0 -1
p41
aVJ.R. Bremer BOS 05/01/2003 BOS vs. IND W 20 12 4 11 36.4 2 4 50.0 2 3 66.7 0 4 4 0 0 0 0 1 -5
p42
aVPaul Pierce BOS 05/01/2003 BOS vs. IND W 41 27 11 21 52.4 2 4 50.0 3 5 60.0 1 7 8 4 2 1 1 4 24
p43
aVMark Blount BOS 05/01/2003 BOS vs. IND W 19 7 2 3 66.7 0 0 - 3 4 75.0 1 3 4 0 1 2 1 4 12
p44
aVTony Battie BOS 05/01/2003 BOS vs. IND W 26 5 2 3 66.7 0 0 - 1 2 50.0 2 4 6 0 0 4 1 5 11
p45
aVEric Williams BOS 05/01/2003 BOS vs. IND W 34 10 3 9 33.3 0 1 0.0 4 6 66.7 2 6 8 4 1 0 0 6 4
p46
aVWalter McCarty BOS 05/01/2003 BOS vs. IND W 25 13 4 6 66.7 3 4 75.0 2 2 100.0 1 1 2 3 0 0 0 5 20
p47
aVAntoine Walker BOS 05/01/2003 BOS vs. IND W 41 21 9 19 47.4 2 6 33.3 1 2 50.0 2 4 6 5 1 0 3 3 10
p48
aVGrant Long BOS 05/01/2003 BOS vs. IND W 1 0 0 1 0.0 0 0 - 0 0 - 0 1 1 0 0 0 0 0 0
p49
aVMark Blount BOS 04/29/2003 BOS @ IND L 17 5 2 3 66.7 0 0 - 1 1 100.0 1 4 5 0 0 1 0 0 3
p50
aVAntoine Walker BOS 04/29/2003 BOS @ IND L 51 21 10 23 43.5 1 6 16.7 0 2 0.0 1 6 7 4 4 0 4 5 -3
p51
aVWalter McCarty BOS 04/29/2003 BOS @ IND L 43 13 5 11 45.5 3 8 37.5 0 0 - 0 4 4 1 1 1 0 2 -4
p52
aVTony Delk BOS 04/29/2003 BOS @ IND L 40 19 8 10 80.0 2 4 50.0 1 1 100.0 0 5 5 4 0 1 1 2 -1
p53
aVTony Battie BOS 04/29/2003 BOS @ IND L 18 4 2 3 66.7 0 1 0.0 0 0 - 1 6 7 1 0 2 0 5 0
p54
aVJ.R. Bremer BOS 04/29/2003 BOS @ IND L 12 5 1 4 25.0 1 3 33.3 2 2 100.0 0 1 1 1 0 0 0 0 -4
p55
aVPaul Pierce BOS 04/29/2003 BOS @ IND L 46 16 5 21 23.8 1 3 33.3 5 6 83.3 1 4 5 8 1 1 5 2 -7
p56
aVEric Williams BOS 04/29/2003 BOS @ IND L 38 5 2 9 22.2 0 0 - 1 1 100.0 5 3 8 1 1 0 3 6 -9
p57
aVJ.R. Bremer BOS 04/27/2003 BOS vs. IND W 13 5 1 5 20.0 1 4 25.0 2 2 100.0 0 2 2 2 0 0 3 2 6
p58
aVWalter McCarty BOS 04/27/2003 BOS vs. IND W 40 13 4 8 50.0 2 5 40.0 3 4 75.0 1 1 2 3 3 0 3 4 14
p59
aVAntoine Walker BOS 04/27/2003 BOS vs. IND W 47 17 7 15 46.7 2 4 50.0 1 4 25.0 1 10 11 5 4 0 5 3 10
p60
aVTony Battie BOS 04/27/2003 BOS vs. IND W 13 4 2 4 50.0 0 0 - 0 2 0.0 1 1 2 0 0 0 0 5 3
p61
aVMark Blount BOS 04/27/2003 BOS vs. IND W 12 0 0 1 0.0 0 0 - 0 0 - 4 1 5 1 2 0 0 1 -7
p62
aVEric Williams BOS 04/27/2003 BOS vs. IND W 31 5 2 6 33.3 0 1 0.0 1 2 50.0 1 1 2 1 0 0 1 3 10
p63
aVPaul Pierce BOS 04/27/2003 BOS vs. IND W 48 37 10 21 47.6 3 5 60.0 14 15 93.3 1 9 10 7 1 1 3 4 10
p64
aVTony Delk BOS 04/27/2003 BOS vs. IND W 35 21 6 13 46.2 4 8 50.0 5 5 100.0 1 2 3 3 0 1 1 1 4
p65
aVGrant Long BOS 04/27/2003 BOS vs. IND W 1 0 0 0 - 0 0 - 0 0 - 0 0 0 0 0 0 0 0 0
p66
aVJ.R. Bremer BOS 04/24/2003 BOS vs. IND W 26 9 4 10 40.0 1 4 25.0 0 0 - 0 3 3 2 0 0 1 1 -4
p67
aVMark Blount BOS 04/24/2003 BOS vs. IND W 2 0 0 1 0.0 0 0 - 0 0 - 0 0 0 1 1 1 0 1 1
p68
aVTony Battie BOS 04/24/2003 BOS vs. IND W 31 12 5 10 50.0 0 0 - 2 2 100.0 1 6 7 0 0 2 0 5 13
p69
aVKedrick Brown BOS 04/24/2003 BOS vs. IND W 3 0 0 1 0.0 0 0 - 0 0 - 0 0 0 0 0 0 0 0 -1
p70
aVTony Delk BOS 04/24/2003 BOS vs. IND W 34 14 3 8 37.5 2 4 50.0 6 8 75.0 0 5 5 5 2 0 2 4 25
p71
aVGrant Long BOS 04/24/2003 BOS vs. IND W 10 2 1 1 100.0 0 0 - 0 0 - 1 0 1 0 0 0 1 0 -7
p72
aVEric Williams BOS 04/24/2003 BOS vs. IND W 23 12 3 6 50.0 0 0 - 6 7 85.7 0 1 1 0 0 0 1 5 17
p73
aVBimbo Coles BOS 04/24/2003 BOS vs. IND W 2 0 0 1 0.0 0 0 - 0 0 - 0 0 0 1 0 0 0 0 -1
p74
aVPaul Pierce BOS 04/24/2003 BOS vs. IND W 33 21 5 8 62.5 1 3 33.3 10 11 90.9 0 12 12 5 2 0 5 3 3
p75
aVAntoine Walker BOS 04/24/2003 BOS vs. IND W 33 17 7 17 41.2 3 5 60.0 0 0 - 2 6 8 5 1 0 3 6 19
p76
aVWalter McCarty BOS 04/24/2003 BOS vs. IND W 43 14 6 12 50.0 2 7 28.6 0 0 - 1 4 5 6 1 0 1 3 25
p77
aVEric Williams BOS 04/21/2003 BOS @ IND L 32 4 1 10 10.0 0 4 0.0 2 2 100.0 0 2 2 4 2 0 1 3 -24
p78
aVJ.R. Bremer BOS 04/21/2003 BOS @ IND L 11 4 2 4 50.0 0 2 0.0 0 0 - 0 1 1 1 1 0 0 2 7
p79
aVGrant Long BOS 04/21/2003 BOS @ IND L 1 0 0 1 0.0 0 0 - 0 0 - 0 0 0 0 0 0 0 0 -2
p80
aVAntoine Walker BOS 04/21/2003 BOS @ IND L 47 19 7 15 46.7 3 4 75.0 2 2 100.0 1 5 6 3 1 0 4 5 -10
p81
aVPaul Pierce BOS 04/21/2003 BOS @ IND L 48 14 5 18 27.8 1 7 14.3 3 5 60.0 1 8 9 6 1 0 3 3 -12
p82
aVTony Delk BOS 04/21/2003 BOS @ IND L 37 12 3 9 33.3 0 1 0.0 6 8 75.0 0 4 4 1 2 0 1 2 -19
p83
aVWalter McCarty BOS 04/21/2003 BOS @ IND L 26 16 6 12 50.0 3 8 37.5 1 1 100.0 3 4 7 1 0 1 0 1 8
p84
aVMark Blount BOS 04/21/2003 BOS @ IND L 10 0 0 0 - 0 0 - 0 0 - 1 1 2 0 1 0 1 2 12
p85
aVTony Battie BOS 04/21/2003 BOS @ IND L 28 8 4 9 44.4 0 0 - 0 0 - 3 8 11 0 1 1 0 3 -20
p86
aVTony Delk BOS 04/19/2003 BOS @ IND W 38 12 4 12 33.3 2 7 28.6 2 2 100.0 1 5 6 5 1 0 2 3 15
p87
aVMark Blount BOS 04/19/2003 BOS @ IND W 15 4 2 2 100.0 0 0 - 0 0 - 2 3 5 0 2 0 1 4 -13
p88
aVMark Bryant BOS 04/19/2003 BOS @ IND W 2 0 0 0 - 0 0 - 0 0 - 0 0 0 0 0 0 0 0 1
p89
aVWalter McCarty BOS 04/19/2003 BOS @ IND W 30 3 1 2 50.0 1 2 50.0 0 0 - 0 3 3 0 0 1 1 5 3
p90
aVGrant Long BOS 04/19/2003 BOS @ IND W 6 0 0 0 - 0 0 - 0 0 - 0 0 0 0 0 0 0 1 -13
p91
aVPaul Pierce BOS 04/19/2003 BOS @ IND W 45 40 8 24 33.3 3 5 60.0 21 21 100.0 2 9 11 6 4 1 2 5 4
p92
aVAntoine Walker BOS 04/19/2003 BOS @ IND W 46 22 10 20 50.0 2 5 40.0 0 2 0.0 2 6 8 5 0 1 2 4 9
p93
aVTony Battie BOS 04/19/2003 BOS @ IND W 10 4 2 3 66.7 0 0 - 0 0 - 2 2 4 2 0 1 0 1 1
p94
aVJ.R. Bremer BOS 04/19/2003 BOS @ IND W 10 0 0 3 0.0 0 1 0.0 0 0 - 0 0 0 1 0 0 1 0 -9
p95
aVEric Williams BOS 04/19/2003 BOS @ IND W 38 18 7 12 58.3 1 3 33.3 3 3 100.0 0 2 2 2 0 0 1 4 17
p96
a.