(lp0
VPLAYER TEAM DATE MATCHUP W/L MIN PTS FGM FGA FG% 3PM 3PA 3P% FTM FTA FT% OREB DREB REB AST STL BLK TOV PF +/-
p1
aVCalbert Cheaney UTA 04/30/2003 UTA @ SAC L 19 0 0 2 0.0 0 0 - 0 0 - 1 0 1 0 1 0 2 3 -20
p2
aVAndrei Kirilenko UTA 04/30/2003 UTA @ SAC L 24 6 2 9 22.2 0 2 0.0 2 2 100.0 2 3 5 1 1 0 1 2 -8
p3
aVDeShawn Stevenson UTA 04/30/2003 UTA @ SAC L 24 14 4 8 50.0 0 1 0.0 6 6 100.0 1 4 5 4 1 0 0 1 2
p4
aVKarl Malone UTA 04/30/2003 UTA @ SAC L 32 14 5 17 29.4 0 0 - 4 4 100.0 0 4 4 2 0 0 2 3 -15
p5
aVScott Padgett UTA 04/30/2003 UTA @ SAC L 28 16 7 12 58.3 1 2 50.0 1 2 50.0 5 1 6 2 1 0 2 2 -6
p6
aVJohn Stockton UTA 04/30/2003 UTA @ SAC L 28 8 3 7 42.9 0 0 - 2 2 100.0 1 0 1 7 0 0 3 3 -14
p7
aVMatt Harpring UTA 04/30/2003 UTA @ SAC L 29 16 6 11 54.5 0 0 - 4 5 80.0 1 3 4 1 0 0 1 5 -14
p8
aVJohn Amaechi UTA 04/30/2003 UTA @ SAC L 13 3 1 4 25.0 0 0 - 1 2 50.0 0 1 1 0 0 0 0 3 -2
p9
aVMark Jackson UTA 04/30/2003 UTA @ SAC L 14 4 2 6 33.3 0 1 0.0 0 0 - 0 0 0 2 1 0 1 3 -6
p10
aVGreg Ostertag UTA 04/30/2003 UTA @ SAC L 6 2 1 1 100.0 0 0 - 0 0 - 1 1 2 1 0 0 2 2 -10
p11
aVTony Massenburg UTA 04/30/2003 UTA @ SAC L 17 5 2 3 66.7 0 0 - 1 2 50.0 2 3 5 1 0 0 2 1 -7
p12
aVCarlos Arroyo UTA 04/30/2003 UTA @ SAC L 6 3 1 2 50.0 0 0 - 1 2 50.0 1 0 1 2 0 0 0 1 0
p13
aVCarlos Arroyo UTA 04/28/2003 UTA vs. SAC L 3 0 0 2 0.0 0 0 - 0 0 - 0 0 0 0 0 0 0 0 -2
p14
aVCalbert Cheaney UTA 04/28/2003 UTA vs. SAC L 24 5 2 6 33.3 0 0 - 1 1 100.0 0 1 1 0 0 1 2 4 -12
p15
aVAndrei Kirilenko UTA 04/28/2003 UTA vs. SAC L 28 15 6 9 66.7 0 0 - 3 4 75.0 1 3 4 1 0 3 1 1 -8
p16
aVMatt Harpring UTA 04/28/2003 UTA vs. SAC L 31 18 8 11 72.7 0 0 - 2 3 66.7 1 6 7 0 1 1 5 5 4
p17
aVMark Jackson UTA 04/28/2003 UTA vs. SAC L 12 5 2 5 40.0 1 1 100.0 0 0 - 1 1 2 3 1 0 1 2 -3
p18
aVKarl Malone UTA 04/28/2003 UTA vs. SAC L 44 24 6 12 50.0 0 0 - 12 14 85.7 3 5 8 3 1 1 4 4 -12
p19
aVScott Padgett UTA 04/28/2003 UTA vs. SAC L 3 0 0 1 0.0 0 1 0.0 0 0 - 1 1 2 0 0 0 1 0 -2
p20
aVJohn Amaechi UTA 04/28/2003 UTA vs. SAC L 3 1 0 0 - 0 0 - 1 2 50.0 0 0 0 0 0 0 0 1 -2
p21
aVJohn Stockton UTA 04/28/2003 UTA vs. SAC L 33 12 3 9 33.3 0 0 - 6 6 100.0 0 5 5 7 2 1 5 1 -12
p22
aVGreg Ostertag UTA 04/28/2003 UTA vs. SAC L 35 0 0 6 0.0 0 0 - 0 0 - 4 10 14 2 0 2 1 5 -13
p23
aVTony Massenburg UTA 04/28/2003 UTA vs. SAC L 14 2 1 7 14.3 0 0 - 0 0 - 2 1 3 1 0 0 2 0 -7
p24
aVDeShawn Stevenson UTA 04/28/2003 UTA vs. SAC L 10 0 0 4 0.0 0 1 0.0 0 0 - 0 1 1 0 0 0 0 0 -16
p25
aVDeShawn Stevenson UTA 04/26/2003 UTA vs. SAC W 2 4 2 3 66.7 0 0 - 0 0 - 1 0 1 0 0 0 0 0 -3
p26
aVGreg Ostertag UTA 04/26/2003 UTA vs. SAC W 43 22 6 15 40.0 0 0 - 10 14 71.4 4 8 12 0 2 5 2 4 6
p27
aVMatt Harpring UTA 04/26/2003 UTA vs. SAC W 27 11 3 12 25.0 0 0 - 5 6 83.3 5 2 7 2 0 0 0 6 -4
p28
aVMark Jackson UTA 04/26/2003 UTA vs. SAC W 16 8 3 4 75.0 2 3 66.7 0 0 - 0 0 0 4 0 0 0 1 6
p29
aVAndrei Kirilenko UTA 04/26/2003 UTA vs. SAC W 33 10 4 9 44.4 0 0 - 2 2 100.0 1 4 5 3 0 1 1 2 5
p30
aVJohn Stockton UTA 04/26/2003 UTA vs. SAC W 33 15 3 6 50.0 0 0 - 9 9 100.0 2 1 3 7 2 0 2 4 -3
p31
aVKarl Malone UTA 04/26/2003 UTA vs. SAC W 44 20 7 20 35.0 0 0 - 6 11 54.5 1 10 11 4 4 1 2 2 2
p32
aVCalbert Cheaney UTA 04/26/2003 UTA vs. SAC W 34 15 7 10 70.0 0 0 - 1 3 33.3 1 0 1 3 0 0 0 0 5
p33
aVTony Massenburg UTA 04/26/2003 UTA vs. SAC W 8 2 0 0 - 0 0 - 2 4 50.0 1 2 3 0 0 2 0 2 1
p34
aVCalbert Cheaney UTA 04/21/2003 UTA @ SAC L 18 2 1 7 14.3 0 0 - 0 0 - 1 0 1 2 0 0 0 3 -28
p35
aVKarl Malone UTA 04/21/2003 UTA @ SAC L 30 15 6 12 50.0 0 0 - 3 4 75.0 1 3 4 3 2 0 7 2 -9
p36
aVTony Massenburg UTA 04/21/2003 UTA @ SAC L 22 12 5 9 55.6 0 0 - 2 3 66.7 1 6 7 0 0 1 0 3 -2
p37
aVMatt Harpring UTA 04/21/2003 UTA @ SAC L 30 14 6 12 50.0 0 3 0.0 2 2 100.0 2 6 8 2 1 0 1 3 -6
p38
aVCarlos Arroyo UTA 04/21/2003 UTA @ SAC L 18 6 2 5 40.0 0 0 - 2 2 100.0 1 0 1 3 0 0 0 1 7
p39
aVGreg Ostertag UTA 04/21/2003 UTA @ SAC L 28 4 1 2 50.0 0 0 - 2 2 100.0 3 1 4 1 0 1 2 2 -18
p40
aVMark Jackson UTA 04/21/2003 UTA @ SAC L 27 14 6 10 60.0 2 3 66.7 0 0 - 1 0 1 4 1 0 1 2 2
p41
aVScott Padgett UTA 04/21/2003 UTA @ SAC L 16 3 1 4 25.0 1 4 25.0 0 0 - 0 0 0 2 2 0 0 2 3
p42
aVAndrei Kirilenko UTA 04/21/2003 UTA @ SAC L 30 17 3 9 33.3 1 4 25.0 10 12 83.3 3 3 6 1 2 3 2 1 1
p43
aVJohn Stockton UTA 04/21/2003 UTA @ SAC L 21 8 4 7 57.1 0 0 - 0 0 - 0 2 2 2 2 0 2 0 -15
p44
aVAndrei Kirilenko UTA 04/19/2003 UTA @ SAC L 30 10 3 7 42.9 0 1 0.0 4 4 100.0 1 3 4 1 0 3 1 0 -12
p45
aVTony Massenburg UTA 04/19/2003 UTA @ SAC L 9 4 2 2 100.0 0 0 - 0 0 - 1 2 3 0 0 1 1 3 -7
p46
aVGreg Ostertag UTA 04/19/2003 UTA @ SAC L 39 18 8 12 66.7 0 0 - 2 3 66.7 7 4 11 4 1 1 1 4 2
p47
aVCalbert Cheaney UTA 04/19/2003 UTA @ SAC L 27 0 0 2 0.0 0 0 - 0 0 - 0 3 3 3 1 0 3 5 -2
p48
aVDeShawn Stevenson UTA 04/19/2003 UTA @ SAC L 1 0 0 0 - 0 0 - 0 0 - 0 0 0 0 0 0 0 2 2
p49
aVScott Padgett UTA 04/19/2003 UTA @ SAC L 6 0 0 2 0.0 0 0 - 0 0 - 0 1 1 0 0 0 2 2 -12
p50
aVMark Jackson UTA 04/19/2003 UTA @ SAC L 14 5 2 5 40.0 0 1 0.0 1 1 100.0 0 2 2 3 0 0 1 3 -8
p51
aVJohn Stockton UTA 04/19/2003 UTA @ SAC L 34 13 5 10 50.0 0 1 0.0 3 3 100.0 2 3 5 3 2 0 2 5 2
p52
aVKarl Malone UTA 04/19/2003 UTA @ SAC L 41 25 10 23 43.5 0 1 0.0 5 8 62.5 2 5 7 8 1 0 5 4 3
p53
aVMatt Harpring UTA 04/19/2003 UTA @ SAC L 39 15 7 16 43.8 1 4 25.0 0 0 - 0 1 1 0 3 0 1 4 2
p54
a.