(lp0
VPLAYER TEAM DATE MATCHUP W/L MIN PTS FGM FGA FG% 3PM 3PA 3P% FTM FTA FT% OREB DREB REB AST STL BLK TOV PF +/-
p1
aVSpeedy Claxton SAS 06/15/2003 SAS vs. NJN W 23 13 5 8 62.5 0 0 - 3 4 75.0 0 1 1 4 0 1 2 2 21
p2
aVTony Parker SAS 06/15/2003 SAS vs. NJN W 24 4 2 6 33.3 0 0 - 0 0 - 0 2 2 2 0 0 3 0 -10
p3
aVSteve Kerr SAS 06/15/2003 SAS vs. NJN W 9 2 1 1 100.0 0 0 - 0 0 - 0 0 0 0 0 0 0 1 -1
p4
aVDanny Ferry SAS 06/15/2003 SAS vs. NJN W 1 0 0 0 - 0 0 - 0 0 - 0 0 0 0 0 0 0 0 0
p5
aVManu Ginobili SAS 06/15/2003 SAS vs. NJN W 33 11 2 8 25.0 0 4 0.0 7 9 77.8 1 6 7 1 2 0 1 3 18
p6
aVDavid Robinson SAS 06/15/2003 SAS vs. NJN W 31 13 6 8 75.0 0 0 - 1 4 25.0 4 13 17 1 0 2 1 2 6
p7
aVBruce Bowen SAS 06/15/2003 SAS vs. NJN W 18 2 1 7 14.3 0 2 0.0 0 0 - 0 0 0 2 1 0 0 0 -8
p8
aVMalik Rose SAS 06/15/2003 SAS vs. NJN W 18 5 1 3 33.3 0 0 - 3 3 100.0 2 3 5 0 0 2 2 1 5
p9
aVStephen Jackson SAS 06/15/2003 SAS vs. NJN W 35 17 7 13 53.8 3 7 42.9 0 0 - 0 3 3 0 1 0 6 3 13
p10
aVTim Duncan SAS 06/15/2003 SAS vs. NJN W 46 21 9 19 47.4 0 1 0.0 3 5 60.0 4 16 20 10 0 8 4 2 11
p11
aVKevin Willis SAS 06/15/2003 SAS vs. NJN W 1 0 0 0 - 0 0 - 0 0 - 0 0 0 0 0 0 0 0 0
p12
aVSteven Smith SAS 06/15/2003 SAS vs. NJN W 1 0 0 1 0.0 0 1 0.0 0 0 - 0 0 0 0 0 0 0 0 0
p13
aVStephen Jackson SAS 06/13/2003 SAS @ NJN W 32 5 2 7 28.6 1 4 25.0 0 0 - 1 6 7 3 0 0 4 2 -5
p14
aVSteve Kerr SAS 06/13/2003 SAS @ NJN W 9 6 2 2 100.0 1 1 100.0 1 2 50.0 1 0 1 0 1 0 0 0 3
p15
aVBruce Bowen SAS 06/13/2003 SAS @ NJN W 29 4 1 4 25.0 0 2 0.0 2 2 100.0 0 1 1 1 0 0 0 4 7
p16
aVTony Parker SAS 06/13/2003 SAS @ NJN W 33 14 5 13 38.5 1 2 50.0 3 5 60.0 0 2 2 4 1 0 2 3 7
p17
aVSpeedy Claxton SAS 06/13/2003 SAS @ NJN W 15 3 1 4 25.0 0 0 - 1 2 50.0 0 1 1 2 2 2 0 4 3
p18
aVKevin Willis SAS 06/13/2003 SAS @ NJN W 1 0 0 0 - 0 0 - 0 0 - 0 1 1 0 0 0 0 0 5
p19
aVDavid Robinson SAS 06/13/2003 SAS @ NJN W 20 6 2 4 50.0 0 0 - 2 2 100.0 1 2 3 0 3 2 1 6 -2
p20
aVManu Ginobili SAS 06/13/2003 SAS @ NJN W 26 12 4 8 50.0 0 0 - 4 4 100.0 0 3 3 0 2 1 1 5 15
p21
aVMalik Rose SAS 06/13/2003 SAS @ NJN W 29 14 6 9 66.7 0 0 - 2 2 100.0 2 1 3 1 0 0 1 2 6
p22
aVTim Duncan SAS 06/13/2003 SAS @ NJN W 46 29 10 18 55.6 0 0 - 9 10 90.0 3 14 17 4 1 4 6 3 11
p23
aVBruce Bowen SAS 06/11/2003 SAS @ NJN L 40 5 2 9 22.2 1 5 20.0 0 0 - 1 6 7 1 2 0 0 2 12
p24
aVSteve Kerr SAS 06/11/2003 SAS @ NJN L 1 0 0 0 - 0 0 - 0 0 - 0 0 0 1 0 0 0 1 2
p25
aVDavid Robinson SAS 06/11/2003 SAS @ NJN L 24 14 4 5 80.0 0 0 - 6 7 85.7 3 4 7 1 1 1 0 6 2
p26
aVStephen Jackson SAS 06/11/2003 SAS @ NJN L 28 5 1 9 11.1 1 4 25.0 2 3 66.7 2 2 4 3 1 1 2 3 -18
p27
aVSpeedy Claxton SAS 06/11/2003 SAS @ NJN L 17 10 3 6 50.0 0 0 - 4 4 100.0 1 2 3 2 1 0 0 1 17
p28
aVMalik Rose SAS 06/11/2003 SAS @ NJN L 15 0 0 9 0.0 0 1 0.0 0 0 - 1 3 4 0 0 0 1 3 -13
p29
aVKevin Willis SAS 06/11/2003 SAS @ NJN L 16 6 2 7 28.6 0 0 - 2 2 100.0 5 0 5 0 0 1 2 3 3
p30
aVManu Ginobili SAS 06/11/2003 SAS @ NJN L 28 10 3 10 30.0 2 6 33.3 2 3 66.7 1 1 2 1 4 0 1 1 2
p31
aVTim Duncan SAS 06/11/2003 SAS @ NJN L 39 23 10 23 43.5 0 0 - 3 3 100.0 8 9 17 2 1 7 3 4 4
p32
aVDanny Ferry SAS 06/11/2003 SAS @ NJN L 1 0 0 0 - 0 0 - 0 0 - 0 0 0 0 0 0 0 0 4
p33
aVTony Parker SAS 06/11/2003 SAS @ NJN L 31 3 1 12 8.3 0 2 0.0 1 2 50.0 0 4 4 3 0 0 2 3 -20
p34
aVTony Parker SAS 06/08/2003 SAS @ NJN W 43 26 9 21 42.9 4 6 66.7 4 8 50.0 1 2 3 6 0 0 1 0 -3
p35
aVMalik Rose SAS 06/08/2003 SAS @ NJN W 22 8 4 7 57.1 0 0 - 0 0 - 0 2 2 0 1 1 3 2 0
p36
aVSpeedy Claxton SAS 06/08/2003 SAS @ NJN W 5 4 2 2 100.0 0 0 - 0 0 - 0 1 1 0 1 0 1 1 8
p37
aVManu Ginobili SAS 06/08/2003 SAS @ NJN W 28 8 3 6 50.0 0 0 - 2 3 66.7 2 0 2 4 4 2 1 2 10
p38
aVTim Duncan SAS 06/08/2003 SAS @ NJN W 45 21 6 13 46.2 0 0 - 9 12 75.0 3 13 16 7 1 3 5 3 6
p39
aVBruce Bowen SAS 06/08/2003 SAS @ NJN W 32 0 0 5 0.0 0 2 0.0 0 0 - 1 3 4 0 1 2 1 3 -5
p40
aVStephen Jackson SAS 06/08/2003 SAS @ NJN W 36 7 2 7 28.6 1 2 50.0 2 4 50.0 0 6 6 2 1 0 4 3 3
p41
aVDavid Robinson SAS 06/08/2003 SAS @ NJN W 26 8 1 5 20.0 0 0 - 6 8 75.0 1 2 3 0 1 0 0 2 7
p42
aVKevin Willis SAS 06/08/2003 SAS @ NJN W 3 2 1 1 100.0 0 0 - 0 0 - 1 0 1 0 0 0 1 1 -1
p43
aVSpeedy Claxton SAS 06/06/2003 SAS vs. NJN L 7 5 2 2 100.0 0 0 - 1 2 50.0 0 0 0 0 0 0 1 0 -6
p44
aVStephen Jackson SAS 06/06/2003 SAS vs. NJN L 40 16 6 10 60.0 4 7 57.1 0 0 - 0 2 2 3 2 1 7 2 8
p45
aVTim Duncan SAS 06/06/2003 SAS vs. NJN L 43 19 8 19 42.1 0 1 0.0 3 10 30.0 2 10 12 3 0 3 4 3 0
p46
aVTony Parker SAS 06/06/2003 SAS vs. NJN L 41 21 9 17 52.9 0 2 0.0 3 4 75.0 1 4 5 5 0 1 1 3 2
p47
aVBruce Bowen SAS 06/06/2003 SAS vs. NJN L 26 3 1 2 50.0 1 1 100.0 0 0 - 0 5 5 0 0 0 2 1 -9
p48
aVManu Ginobili SAS 06/06/2003 SAS vs. NJN L 29 4 1 6 16.7 0 2 0.0 2 2 100.0 4 2 6 3 1 0 3 4 -6
p49
aVSteve Kerr SAS 06/06/2003 SAS vs. NJN L 1 0 0 1 0.0 0 0 - 0 0 - 0 0 0 1 0 0 0 2 3
p50
aVKevin Willis SAS 06/06/2003 SAS vs. NJN L 1 0 0 1 0.0 0 0 - 0 0 - 1 1 2 0 0 0 0 0 1
p51
aVDavid Robinson SAS 06/06/2003 SAS vs. NJN L 33 10 3 6 50.0 0 0 - 4 6 66.7 4 4 8 1 2 2 1 0 4
p52
aVMalik Rose SAS 06/06/2003 SAS vs. NJN L 19 7 3 4 75.0 0 0 - 1 1 100.0 2 1 3 1 1 0 2 1 -7
p53
aVStephen Jackson SAS 06/04/2003 SAS vs. NJN W 42 12 5 15 33.3 0 4 0.0 2 5 40.0 1 2 3 5 2 0 3 3 9
p54
aVManu Ginobili SAS 06/04/2003 SAS vs. NJN W 28 7 3 8 37.5 1 2 50.0 0 0 - 1 6 7 3 0 0 3 3 13
p55
aVMalik Rose SAS 06/04/2003 SAS vs. NJN W 24 12 5 11 45.5 0 0 - 2 2 100.0 3 3 6 2 1 0 2 5 6
p56
aVSpeedy Claxton SAS 06/04/2003 SAS vs. NJN W 8 2 1 3 33.3 0 0 - 0 0 - 0 0 0 1 0 1 0 2 -5
p57
aVTim Duncan SAS 06/04/2003 SAS vs. NJN W 44 32 11 17 64.7 0 0 - 10 14 71.4 3 17 20 6 3 7 1 1 10
p58
aVBruce Bowen SAS 06/04/2003 SAS vs. NJN W 26 6 2 3 66.7 2 2 100.0 0 0 - 0 2 2 1 0 0 1 4 2
p59
aVDavid Robinson SAS 06/04/2003 SAS vs. NJN W 27 14 6 8 75.0 0 0 - 2 3 66.7 2 4 6 1 0 4 0 2 11
p60
aVDanny Ferry SAS 06/04/2003 SAS vs. NJN W 1 0 0 0 - 0 0 - 0 0 - 0 0 0 0 0 0 0 0 -3
p61
aVTony Parker SAS 06/04/2003 SAS vs. NJN W 40 16 6 14 42.9 1 2 50.0 3 4 75.0 0 3 3 5 1 0 2 0 17
p62
aVTim Duncan SAS 05/29/2003 SAS @ DAL W 45 18 8 20 40.0 0 1 0.0 2 4 50.0 3 8 11 4 1 3 4 2 18
p63
aVBruce Bowen SAS 05/29/2003 SAS @ DAL W 23 0 0 3 0.0 0 2 0.0 0 0 - 0 2 2 4 0 0 1 0 -7
p64
aVMalik Rose SAS 05/29/2003 SAS @ DAL W 32 12 5 9 55.6 0 0 - 2 6 33.3 3 8 11 3 0 1 2 2 15
p65
aVDavid Robinson SAS 05/29/2003 SAS @ DAL W 16 7 2 2 100.0 0 0 - 3 4 75.0 0 5 5 1 0 0 2 2 -5
p66
aVManu Ginobili SAS 05/29/2003 SAS @ DAL W 29 11 3 9 33.3 1 4 25.0 4 4 100.0 1 1 2 4 2 0 4 4 17
p67
aVTony Parker SAS 05/29/2003 SAS @ DAL W 13 0 0 5 0.0 0 0 - 0 0 - 0 1 1 1 1 1 1 1 -7
p68
aVKevin Willis SAS 05/29/2003 SAS @ DAL W 1 0 0 1 0.0 0 0 - 0 0 - 0 0 0 0 0 0 0 1 2
p69
aVSteven Smith SAS 05/29/2003 SAS @ DAL W 1 0 0 1 0.0 0 1 0.0 0 0 - 0 1 1 0 0 0 0 0 -4
p70
aVSpeedy Claxton SAS 05/29/2003 SAS @ DAL W 22 6 3 8 37.5 0 0 - 0 0 - 0 7 7 2 1 0 2 3 -2
p71
aVDanny Ferry SAS 05/29/2003 SAS @ DAL W 1 0 0 0 - 0 0 - 0 0 - 0 0 0 0 0 0 0 0 -2
p72
aVSteve Kerr SAS 05/29/2003 SAS @ DAL W 13 12 4 4 100.0 4 4 100.0 0 0 - 0 2 2 3 0 0 0 1 21
p73
aVStephen Jackson SAS 05/29/2003 SAS @ DAL W 44 24 8 14 57.1 5 7 71.4 3 3 100.0 2 0 2 3 3 0 1 2 14
p74
aVKevin Willis SAS 05/27/2003 SAS vs. DAL L 1 0 0 0 - 0 0 - 0 0 - 0 0 0 0 0 0 0 0 1
p75
aVDavid Robinson SAS 05/27/2003 SAS vs. DAL L 24 5 1 3 33.3 0 0 - 3 6 50.0 2 4 6 2 0 5 2 3 -3
p76
aVTony Parker SAS 05/27/2003 SAS vs. DAL L 37 7 3 11 27.3 0 2 0.0 1 2 50.0 0 1 1 6 1 0 2 3 -19
p77
aVSpeedy Claxton SAS 05/27/2003 SAS vs. DAL L 11 5 1 3 33.3 0 0 - 3 4 75.0 1 3 4 0 0 0 1 3 7
p78
aVStephen Jackson SAS 05/27/2003 SAS vs. DAL L 36 20 7 13 53.8 2 7 28.6 4 4 100.0 0 3 3 1 1 1 3 4 -8
p79
aVBruce Bowen SAS 05/27/2003 SAS vs. DAL L 39 12 3 7 42.9 2 5 40.0 4 6 66.7 0 2 2 1 1 3 1 1 -19
p80
aVTim Duncan SAS 05/27/2003 SAS vs. DAL L 44 23 9 15 60.0 0 1 0.0 5 12 41.7 5 10 15 6 0 1 1 3 -17
p81
aVManu Ginobili SAS 05/27/2003 SAS vs. DAL L 21 5 2 9 22.2 1 7 14.3 0 0 - 0 4 4 6 1 0 2 1 3
p82
aVMalik Rose SAS 05/27/2003 SAS vs. DAL L 27 14 5 9 55.6 0 0 - 4 4 100.0 1 2 3 2 0 1 2 1 -5
p83
aVDavid Robinson SAS 05/25/2003 SAS @ DAL W 19 2 1 2 50.0 0 0 - 0 0 - 0 4 4 1 0 0 1 2 -5
p84
aVStephen Jackson SAS 05/25/2003 SAS @ DAL W 35 17 6 12 50.0 1 7 14.3 4 4 100.0 0 4 4 3 3 1 2 0 8
p85
aVManu Ginobili SAS 05/25/2003 SAS @ DAL W 32 21 8 12 66.7 3 5 60.0 2 2 100.0 5 1 6 1 2 0 1 4 14
p86
aVSteve Kerr SAS 05/25/2003 SAS @ DAL W 1 2 0 0 - 0 0 - 2 2 100.0 0 0 0 0 0 0 0 0 4
p87
aVMalik Rose SAS 05/25/2003 SAS @ DAL W 32 8 2 5 40.0 0 0 - 4 4 100.0 4 4 8 0 0 1 1 2 15
p88
aVSpeedy Claxton SAS 05/25/2003 SAS @ DAL W 4 2 0 1 0.0 0 0 - 2 2 100.0 0 0 0 0 0 0 0 1 -5
p89
aVTony Parker SAS 05/25/2003 SAS @ DAL W 44 25 9 22 40.9 1 5 20.0 6 8 75.0 0 2 2 5 1 0 2 3 12
p90
aVBruce Bowen SAS 05/25/2003 SAS @ DAL W 29 4 1 8 12.5 1 5 20.0 1 2 50.0 1 4 5 2 4 0 1 2 -12
p91
aVTim Duncan SAS 05/25/2003 SAS @ DAL W 44 21 8 14 57.1 0 1 0.0 5 7 71.4 4 16 20 7 1 4 3 4 4
p92
aVTim Duncan SAS 05/23/2003 SAS @ DAL W 42 34 12 19 63.2 0 0 - 10 14 71.4 8 16 24 6 2 6 7 4 31
p93
aVBruce Bowen SAS 05/23/2003 SAS @ DAL W 42 13 3 9 33.3 2 3 66.7 5 6 83.3 2 4 6 1 1 2 0 2 22
p94
aVSpeedy Claxton SAS 05/23/2003 SAS @ DAL W 11 0 0 3 0.0 0 0 - 0 0 - 1 1 2 1 1 1 1 1 -17
p95
aVSteve Kerr SAS 05/23/2003 SAS @ DAL W 2 0 0 0 - 0 0 - 0 0 - 0 0 0 0 0 0 0 0 -7
p96
aVManu Ginobili SAS 05/23/2003 SAS @ DAL W 26 2 1 3 33.3 0 1 0.0 0 2 0.0 2 0 2 3 0 0 1 3 4
p97
aVTony Parker SAS 05/23/2003 SAS @ DAL W 37 29 13 23 56.5 1 4 25.0 2 2 100.0 1 7 8 3 2 0 2 3 30
p98
aVDavid Robinson SAS 05/23/2003 SAS @ DAL W 23 4 1 6 16.7 0 0 - 2 2 100.0 1 5 6 1 1 2 2 2 13
p99
aVStephen Jackson SAS 05/23/2003 SAS @ DAL W 24 12 5 9 55.6 2 5 40.0 0 0 - 0 2 2 1 1 0 2 0 14
p100
aVKevin Willis SAS 05/23/2003 SAS @ DAL W 3 0 0 1 0.0 0 0 - 0 0 - 0 0 0 0 0 0 0 0 -9
p101
aVMalik Rose SAS 05/23/2003 SAS @ DAL W 26 2 1 10 10.0 0 1 0.0 0 0 - 4 4 8 3 1 0 1 0 -2
p102
aVDanny Ferry SAS 05/23/2003 SAS @ DAL W 2 0 0 1 0.0 0 1 0.0 0 0 - 0 1 1 0 0 0 0 0 -7
p103
aVSteven Smith SAS 05/23/2003 SAS @ DAL W 2 0 0 0 - 0 0 - 0 0 - 0 0 0 0 0 0 0 0 -7
p104
aVTim Duncan SAS 05/21/2003 SAS vs. DAL W 40 32 11 21 52.4 0 0 - 10 13 76.9 5 10 15 5 0 3 1 4 4
p105
aVDanny Ferry SAS 05/21/2003 SAS vs. DAL W 8 0 0 1 0.0 0 1 0.0 0 0 - 0 3 3 0 0 0 2 1 -7
p106
aVBruce Bowen SAS 05/21/2003 SAS vs. DAL W 34 6 2 7 28.6 2 4 50.0 0 0 - 0 3 3 2 0 0 2 2 -4
p107
aVStephen Jackson SAS 05/21/2003 SAS vs. DAL W 34 17 7 14 50.0 1 4 25.0 2 2 100.0 0 5 5 5 2 0 1 3 13
p108
aVTony Parker SAS 05/21/2003 SAS vs. DAL W 34 19 6 11 54.5 0 0 - 7 8 87.5 0 4 4 4 1 0 3 3 7
p109
aVMalik Rose SAS 05/21/2003 SAS vs. DAL W 27 25 5 11 45.5 0 0 - 15 18 83.3 2 4 6 2 1 1 2 5 15
p110
aVManu Ginobili SAS 05/21/2003 SAS vs. DAL W 28 7 3 6 50.0 1 2 50.0 0 0 - 1 2 3 2 2 1 2 2 17
p111
aVKevin Willis SAS 05/21/2003 SAS vs. DAL W 1 0 0 1 0.0 0 0 - 0 0 - 0 0 0 0 0 0 0 0 -3
p112
aVDavid Robinson SAS 05/21/2003 SAS vs. DAL W 20 7 2 5 40.0 0 0 - 3 4 75.0 2 5 7 2 1 1 1 1 17
p113
aVSpeedy Claxton SAS 05/21/2003 SAS vs. DAL W 14 6 3 4 75.0 0 0 - 0 0 - 0 5 5 2 0 0 0 1 6
p114
aVTim Duncan SAS 05/19/2003 SAS vs. DAL L 45 40 14 20 70.0 0 0 - 12 19 63.2 3 12 15 7 1 1 2 5 5
p115
aVBruce Bowen SAS 05/19/2003 SAS vs. DAL L 36 13 3 6 50.0 2 5 40.0 5 10 50.0 1 1 2 2 2 0 1 4 6
p116
aVSpeedy Claxton SAS 05/19/2003 SAS vs. DAL L 14 0 0 2 0.0 0 0 - 0 0 - 0 2 2 1 3 0 0 2 -5
p117
aVTony Parker SAS 05/19/2003 SAS vs. DAL L 34 18 7 18 38.9 2 5 40.0 2 2 100.0 1 1 2 5 0 0 3 3 2
p118
aVStephen Jackson SAS 05/19/2003 SAS vs. DAL L 38 8 2 9 22.2 1 4 25.0 3 3 100.0 0 3 3 2 2 0 3 4 -19
p119
aVKevin Willis SAS 05/19/2003 SAS vs. DAL L 10 9 4 6 66.7 0 0 - 1 1 100.0 2 3 5 0 0 0 0 1 5
p120
aVDavid Robinson SAS 05/19/2003 SAS vs. DAL L 23 7 2 2 100.0 0 0 - 3 6 50.0 0 2 2 1 1 0 0 2 -9
p121
aVManu Ginobili SAS 05/19/2003 SAS vs. DAL L 22 12 3 8 37.5 2 5 40.0 4 5 80.0 0 5 5 4 0 0 0 6 7
p122
aVMalik Rose SAS 05/19/2003 SAS vs. DAL L 10 3 1 2 50.0 0 0 - 1 2 50.0 0 1 1 0 0 0 0 5 5
p123
aVDanny Ferry SAS 05/19/2003 SAS vs. DAL L 8 0 0 1 0.0 0 1 0.0 0 0 - 0 0 0 1 0 0 0 4 -12
p124
aVTim Duncan SAS 05/15/2003 SAS @ LAL W 42 37 16 25 64.0 0 0 - 5 7 71.4 6 10 16 4 0 2 3 3 25
p125
aVSpeedy Claxton SAS 05/15/2003 SAS @ LAL W 8 2 1 3 33.3 0 0 - 0 0 - 0 0 0 4 1 0 1 1 6
p126
aVMalik Rose SAS 05/15/2003 SAS @ LAL W 16 4 2 3 66.7 0 0 - 0 0 - 0 5 5 0 0 1 1 4 5
p127
aVKevin Willis SAS 05/15/2003 SAS @ LAL W 9 4 2 3 66.7 0 0 - 0 0 - 2 2 4 0 0 0 0 3 15
p128
aVManu Ginobili SAS 05/15/2003 SAS @ LAL W 26 10 3 6 50.0 1 2 50.0 3 4 75.0 2 3 5 4 3 0 0 2 21
p129
aVSteve Kerr SAS 05/15/2003 SAS @ LAL W 2 0 0 0 - 0 0 - 0 0 - 0 0 0 0 0 0 0 0 3
p130
aVStephen Jackson SAS 05/15/2003 SAS @ LAL W 33 4 2 4 50.0 0 0 - 0 0 - 1 3 4 1 1 0 0 0 14
p131
aVBruce Bowen SAS 05/15/2003 SAS @ LAL W 33 8 3 5 60.0 2 2 100.0 0 0 - 0 2 2 1 0 0 1 3 15
p132
aVDavid Robinson SAS 05/15/2003 SAS @ LAL W 23 7 3 6 50.0 0 0 - 1 2 50.0 2 3 5 1 2 1 1 2 4
p133
aVTony Parker SAS 05/15/2003 SAS @ LAL W 40 27 9 19 47.4 2 4 50.0 7 10 70.0 0 1 1 5 2 0 3 1 22
p134
aVDanny Ferry SAS 05/15/2003 SAS @ LAL W 6 4 2 4 50.0 0 0 - 0 0 - 0 1 1 1 0 0 0 0 7
p135
aVSteven Smith SAS 05/15/2003 SAS @ LAL W 2 3 1 1 100.0 1 1 100.0 0 0 - 0 1 1 0 0 0 0 0 3
p136
aVBruce Bowen SAS 05/13/2003 SAS vs. LAL W 41 12 4 6 66.7 2 4 50.0 2 4 50.0 1 2 3 2 1 2 0 2 11
p137
aVMalik Rose SAS 05/13/2003 SAS vs. LAL W 24 4 2 6 33.3 0 0 - 0 0 - 1 6 7 1 1 0 1 4 2
p138
aVManu Ginobili SAS 05/13/2003 SAS vs. LAL W 24 7 3 6 50.0 1 2 50.0 0 0 - 1 1 2 2 2 1 2 0 -4
p139
aVTony Parker SAS 05/13/2003 SAS vs. LAL W 36 21 8 16 50.0 0 0 - 5 6 83.3 0 5 5 3 0 0 0 3 1
p140
aVTim Duncan SAS 05/13/2003 SAS vs. LAL W 45 27 11 22 50.0 0 0 - 5 8 62.5 3 11 14 5 1 1 2 2 0
p141
aVStephen Jackson SAS 05/13/2003 SAS vs. LAL W 31 12 4 10 40.0 0 2 0.0 4 6 66.7 0 0 0 3 3 1 3 2 -3
p142
aVDavid Robinson SAS 05/13/2003 SAS vs. LAL W 27 6 3 7 42.9 0 0 - 0 0 - 5 2 7 1 1 0 0 2 2
p143
aVSpeedy Claxton SAS 05/13/2003 SAS vs. LAL W 12 7 3 6 50.0 0 0 - 1 2 50.0 0 3 3 1 0 0 1 0 1
p144
aVDavid Robinson SAS 05/11/2003 SAS @ LAL L 14 0 0 1 0.0 0 0 - 0 0 - 0 3 3 1 0 1 1 6 0
p145
aVManu Ginobili SAS 05/11/2003 SAS @ LAL L 23 13 4 9 44.4 2 4 50.0 3 4 75.0 2 2 4 4 1 0 0 3 -8
p146
aVBruce Bowen SAS 05/11/2003 SAS @ LAL L 34 9 3 5 60.0 3 3 100.0 0 0 - 0 1 1 1 0 1 0 3 5
p147
aVTony Parker SAS 05/11/2003 SAS @ LAL L 43 14 6 17 35.3 1 3 33.3 1 2 50.0 0 4 4 4 1 0 2 3 -13
p148
aVStephen Jackson SAS 05/11/2003 SAS @ LAL L 39 15 6 16 37.5 3 6 50.0 0 0 - 0 10 10 0 0 0 5 1 -5
p149
aVSpeedy Claxton SAS 05/11/2003 SAS @ LAL L 5 0 0 1 0.0 0 0 - 0 0 - 1 1 2 2 0 0 0 0 9
p150
aVDanny Ferry SAS 05/11/2003 SAS @ LAL L 2 0 0 0 - 0 0 - 0 0 - 0 0 0 0 0 0 1 1 -4
p151
aVMalik Rose SAS 05/11/2003 SAS @ LAL L 25 2 1 4 25.0 0 0 - 0 0 - 2 2 4 0 0 0 0 5 -4
p152
aVTim Duncan SAS 05/11/2003 SAS @ LAL L 40 36 10 17 58.8 0 2 0.0 16 20 80.0 1 8 9 5 0 0 3 5 15
p153
aVKevin Willis SAS 05/11/2003 SAS @ LAL L 15 6 3 4 75.0 0 0 - 0 0 - 3 1 4 1 0 0 2 4 -15
p154
aVSpeedy Claxton SAS 05/09/2003 SAS @ LAL L 18 9 3 6 50.0 0 0 - 3 3 100.0 0 3 3 3 1 0 0 1 12
p155
aVSteven Smith SAS 05/09/2003 SAS @ LAL L 10 4 1 3 33.3 0 0 - 2 2 100.0 0 1 1 1 1 0 0 0 7
p156
aVSteve Kerr SAS 05/09/2003 SAS @ LAL L 2 0 0 1 0.0 0 0 - 0 0 - 0 0 0 0 0 0 0 1 5
p157
aVManu Ginobili SAS 05/09/2003 SAS @ LAL L 21 8 2 4 50.0 1 2 50.0 3 4 75.0 0 0 0 0 1 0 3 3 -11
p158
aVTony Parker SAS 05/09/2003 SAS @ LAL L 30 2 1 8 12.5 0 1 0.0 0 0 - 0 1 1 4 1 0 0 2 -27
p159
aVKevin Willis SAS 05/09/2003 SAS @ LAL L 10 8 4 7 57.1 0 0 - 0 0 - 4 0 4 1 1 0 1 1 7
p160
aVTim Duncan SAS 05/09/2003 SAS @ LAL L 38 28 12 25 48.0 0 0 - 4 6 66.7 3 8 11 1 0 1 0 4 -27
p161
aVStephen Jackson SAS 05/09/2003 SAS @ LAL L 29 9 3 12 25.0 0 3 0.0 3 4 75.0 2 4 6 4 0 0 2 4 -17
p162
aVBruce Bowen SAS 05/09/2003 SAS @ LAL L 34 3 1 7 14.3 1 4 25.0 0 0 - 2 0 2 2 0 1 0 3 -14
p163
aVDanny Ferry SAS 05/09/2003 SAS @ LAL L 10 5 2 2 100.0 1 1 100.0 0 0 - 0 1 1 1 1 0 1 3 1
p164
aVMalik Rose SAS 05/09/2003 SAS @ LAL L 23 15 6 8 75.0 0 0 - 3 3 100.0 1 2 3 0 3 0 3 4 1
p165
aVDavid Robinson SAS 05/09/2003 SAS @ LAL L 15 4 1 3 33.3 0 0 - 2 2 100.0 1 3 4 0 0 1 0 2 -12
p166
aVMalik Rose SAS 05/07/2003 SAS vs. LAL W 19 0 0 4 0.0 0 0 - 0 2 0.0 1 1 2 1 1 0 1 4 -3
p167
aVTim Duncan SAS 05/07/2003 SAS vs. LAL W 33 12 5 10 50.0 0 0 - 2 2 100.0 2 11 13 7 1 1 2 3 32
p168
aVTony Parker SAS 05/07/2003 SAS vs. LAL W 27 16 5 9 55.6 0 0 - 6 6 100.0 0 3 3 4 1 0 2 1 30
p169
aVBruce Bowen SAS 05/07/2003 SAS vs. LAL W 32 27 10 12 83.3 7 8 87.5 0 0 - 1 1 2 2 0 3 0 4 36
p170
aVDanny Ferry SAS 05/07/2003 SAS vs. LAL W 17 5 2 6 33.3 1 2 50.0 0 0 - 0 5 5 1 0 0 0 2 -10
p171
aVManu Ginobili SAS 05/07/2003 SAS vs. LAL W 24 17 5 7 71.4 0 0 - 7 8 87.5 0 3 3 3 2 1 3 2 17
p172
aVSpeedy Claxton SAS 05/07/2003 SAS vs. LAL W 16 15 6 7 85.7 0 0 - 3 5 60.0 0 1 1 3 1 0 1 1 -1
p173
aVDavid Robinson SAS 05/07/2003 SAS vs. LAL W 17 4 2 3 66.7 0 0 - 0 0 - 0 4 4 2 0 0 0 4 12
p174
aVSteve Kerr SAS 05/07/2003 SAS vs. LAL W 6 0 0 2 0.0 0 1 0.0 0 0 - 0 0 0 1 0 0 1 0 -10
p175
aVKevin Willis SAS 05/07/2003 SAS vs. LAL W 12 8 4 7 57.1 0 0 - 0 0 - 1 3 4 0 0 0 0 0 6
p176
aVSteven Smith SAS 05/07/2003 SAS vs. LAL W 8 0 0 1 0.0 0 1 0.0 0 0 - 0 1 1 1 0 0 1 0 -6
p177
aVStephen Jackson SAS 05/07/2003 SAS vs. LAL W 29 10 3 7 42.9 0 2 0.0 4 4 100.0 0 1 1 2 2 0 2 3 -8
p178
aVStephen Jackson SAS 05/05/2003 SAS vs. LAL W 26 0 0 6 0.0 0 3 0.0 0 0 - 0 4 4 3 1 0 4 3 10
p179
aVTony Parker SAS 05/05/2003 SAS vs. LAL W 34 9 3 10 30.0 0 1 0.0 3 5 60.0 0 3 3 1 1 0 0 1 11
p180
aVDavid Robinson SAS 05/05/2003 SAS vs. LAL W 30 14 5 10 50.0 0 0 - 4 6 66.7 3 8 11 0 0 1 2 3 11
p181
aVKevin Willis SAS 05/05/2003 SAS vs. LAL W 2 3 1 1 100.0 1 1 100.0 0 0 - 0 0 0 0 0 0 0 0 -1
p182
aVDanny Ferry SAS 05/05/2003 SAS vs. LAL W 5 0 0 2 0.0 0 1 0.0 0 0 - 2 0 2 0 0 0 0 2 -3
p183
aVTim Duncan SAS 05/05/2003 SAS vs. LAL W 44 28 10 22 45.5 0 0 - 8 14 57.1 2 6 8 7 0 3 3 4 7
p184
aVSpeedy Claxton SAS 05/05/2003 SAS vs. LAL W 14 6 2 6 33.3 0 0 - 2 2 100.0 0 0 0 0 1 0 1 2 -6
p185
aVMalik Rose SAS 05/05/2003 SAS vs. LAL W 15 4 2 6 33.3 0 0 - 0 0 - 2 3 5 3 1 0 0 3 -4
p186
aVManu Ginobili SAS 05/05/2003 SAS vs. LAL W 30 15 4 9 44.4 3 3 100.0 4 8 50.0 2 4 6 2 4 0 1 0 -2
p187
aVBruce Bowen SAS 05/05/2003 SAS vs. LAL W 40 8 3 8 37.5 2 5 40.0 0 0 - 1 5 6 3 1 2 0 2 2
p188
aVMalik Rose SAS 05/01/2003 SAS @ PHX W 26 7 3 7 42.9 0 0 - 1 2 50.0 3 4 7 1 1 1 7 3 1
p189
aVBruce Bowen SAS 05/01/2003 SAS @ PHX W 20 0 0 3 0.0 0 3 0.0 0 0 - 0 0 0 1 3 0 0 3 -7
p190
aVManu Ginobili SAS 05/01/2003 SAS @ PHX W 29 12 4 10 40.0 4 7 57.1 0 0 - 0 0 0 2 1 0 0 2 9
p191
aVSteven Smith SAS 05/01/2003 SAS @ PHX W 13 3 1 7 14.3 0 2 0.0 1 1 100.0 1 0 1 1 0 0 1 2 10
p192
aVTony Parker SAS 05/01/2003 SAS @ PHX W 36 17 7 15 46.7 0 3 0.0 3 4 75.0 0 0 0 1 1 1 2 3 -3
p193
aVDanny Ferry SAS 05/01/2003 SAS @ PHX W 1 0 0 0 - 0 0 - 0 0 - 0 0 0 0 0 0 0 0 0
p194
aVStephen Jackson SAS 05/01/2003 SAS @ PHX W 34 21 6 14 42.9 5 9 55.6 4 7 57.1 3 3 6 5 0 0 3 1 -10
p195
aVSpeedy Claxton SAS 05/01/2003 SAS @ PHX W 12 6 2 3 66.7 0 0 - 2 4 50.0 0 1 1 2 1 0 1 1 5
p196
aVTim Duncan SAS 05/01/2003 SAS @ PHX W 45 15 4 12 33.3 0 0 - 7 11 63.6 6 14 20 10 0 4 2 2 5
p197
aVDavid Robinson SAS 05/01/2003 SAS @ PHX W 24 6 2 5 40.0 0 0 - 2 6 33.3 3 9 12 1 3 1 2 4 0
p198
aVSteven Smith SAS 04/29/2003 SAS vs. PHX W 17 6 2 7 28.6 1 5 20.0 1 1 100.0 0 0 0 1 0 0 0 1 -12
p199
aVStephen Jackson SAS 04/29/2003 SAS vs. PHX W 19 8 2 6 33.3 0 2 0.0 4 4 100.0 0 2 2 2 2 0 1 1 14
p200
aVManu Ginobili SAS 04/29/2003 SAS vs. PHX W 28 4 1 3 33.3 0 0 - 2 2 100.0 1 8 9 3 2 1 4 3 16
p201
aVTim Duncan SAS 04/29/2003 SAS vs. PHX W 39 23 6 13 46.2 0 0 - 11 13 84.6 7 10 17 6 1 5 5 5 8
p202
aVDavid Robinson SAS 04/29/2003 SAS vs. PHX W 26 10 5 10 50.0 0 0 - 0 0 - 3 6 9 2 1 2 1 0 0
p203
aVBruce Bowen SAS 04/29/2003 SAS vs. PHX W 32 4 1 3 33.3 0 0 - 2 7 28.6 0 1 1 3 1 0 0 3 6
p204
aVMalik Rose SAS 04/29/2003 SAS vs. PHX W 29 27 9 17 52.9 0 0 - 9 10 90.0 4 9 13 2 2 1 2 3 14
p205
aVTony Parker SAS 04/29/2003 SAS vs. PHX W 26 7 3 9 33.3 0 1 0.0 1 2 50.0 0 1 1 2 0 0 4 4 -3
p206
aVSpeedy Claxton SAS 04/29/2003 SAS vs. PHX W 24 5 2 6 33.3 0 0 - 1 2 50.0 0 1 1 1 1 0 2 2 17
p207
aVDanny Ferry SAS 04/27/2003 SAS @ PHX L 6 0 0 1 0.0 0 1 0.0 0 0 - 0 0 0 0 0 0 0 2 4
p208
aVTony Parker SAS 04/27/2003 SAS @ PHX L 36 19 8 18 44.4 0 2 0.0 3 3 100.0 3 2 5 0 2 0 3 1 -9
p209
aVKevin Willis SAS 04/27/2003 SAS @ PHX L 3 0 0 0 - 0 0 - 0 0 - 0 0 0 0 0 0 2 0 -2
p210
aVStephen Jackson SAS 04/27/2003 SAS @ PHX L 32 2 0 4 0.0 0 2 0.0 2 3 66.7 0 4 4 2 0 1 3 0 -6
p211
aVDavid Robinson SAS 04/27/2003 SAS @ PHX L 19 6 1 4 25.0 0 0 - 4 4 100.0 2 4 6 0 0 3 2 5 3
p212
aVMalik Rose SAS 04/27/2003 SAS @ PHX L 29 10 3 11 27.3 0 0 - 4 6 66.7 5 9 14 1 0 0 2 5 -10
p213
aVBruce Bowen SAS 04/27/2003 SAS @ PHX L 41 19 7 8 87.5 5 6 83.3 0 0 - 0 3 3 2 1 1 3 3 -6
p214
aVManu Ginobili SAS 04/27/2003 SAS @ PHX L 23 0 0 6 0.0 0 1 0.0 0 0 - 0 2 2 5 1 0 2 2 8
p215
aVSpeedy Claxton SAS 04/27/2003 SAS @ PHX L 12 4 0 3 0.0 0 0 - 4 4 100.0 2 0 2 2 0 0 2 1 7
p216
aVTim Duncan SAS 04/27/2003 SAS @ PHX L 39 24 9 15 60.0 0 0 - 6 8 75.0 3 8 11 1 0 1 6 3 1
p217
aVSteven Smith SAS 04/25/2003 SAS @ PHX W 12 0 0 3 0.0 0 1 0.0 0 0 - 0 2 2 2 0 0 0 0 7
p218
aVBruce Bowen SAS 04/25/2003 SAS @ PHX W 24 2 1 7 14.3 0 2 0.0 0 0 - 1 0 1 3 1 0 0 1 -7
p219
aVManu Ginobili SAS 04/25/2003 SAS @ PHX W 33 12 4 12 33.3 2 4 50.0 2 4 50.0 0 2 2 4 1 0 0 2 12
p220
aVStephen Jackson SAS 04/25/2003 SAS @ PHX W 27 20 8 13 61.5 3 5 60.0 1 1 100.0 0 3 3 4 1 0 2 5 14
p221
aVDanny Ferry SAS 04/25/2003 SAS @ PHX W 1 0 0 0 - 0 0 - 0 0 - 0 0 0 0 0 0 0 0 0
p222
aVTim Duncan SAS 04/25/2003 SAS @ PHX W 41 11 3 6 50.0 0 0 - 5 6 83.3 3 20 23 6 0 3 4 5 15
p223
aVMalik Rose SAS 04/25/2003 SAS @ PHX W 26 15 4 9 44.4 0 0 - 7 11 63.6 2 5 7 1 0 0 3 4 16
p224
aVKevin Willis SAS 04/25/2003 SAS @ PHX W 1 0 0 0 - 0 0 - 0 0 - 0 1 1 0 0 0 0 0 -2
p225
aVSpeedy Claxton SAS 04/25/2003 SAS @ PHX W 11 2 1 3 33.3 0 0 - 0 0 - 1 0 1 4 0 0 1 4 3
p226
aVDavid Robinson SAS 04/25/2003 SAS @ PHX W 27 8 3 5 60.0 0 0 - 2 2 100.0 3 5 8 0 0 0 2 0 -3
p227
aVTony Parker SAS 04/25/2003 SAS @ PHX W 37 29 12 21 57.1 2 3 66.7 3 5 60.0 1 2 3 3 3 0 6 1 10
p228
aVSpeedy Claxton SAS 04/21/2003 SAS vs. PHX W 30 10 4 11 36.4 0 0 - 2 2 100.0 0 4 4 7 0 0 2 4 23
p229
aVTony Parker SAS 04/21/2003 SAS vs. PHX W 18 2 1 7 14.3 0 2 0.0 0 0 - 0 0 0 2 1 0 0 4 -15
p230
aVStephen Jackson SAS 04/21/2003 SAS vs. PHX W 42 23 9 20 45.0 2 9 22.2 3 3 100.0 4 3 7 3 2 2 3 0 16
p231
aVBruce Bowen SAS 04/21/2003 SAS vs. PHX W 24 3 1 5 20.0 0 2 0.0 1 2 50.0 2 4 6 1 0 0 0 0 -19
p232
aVMalik Rose SAS 04/21/2003 SAS vs. PHX W 19 11 1 4 25.0 0 1 0.0 9 12 75.0 1 4 5 0 0 1 2 1 -12
p233
aVManu Ginobili SAS 04/21/2003 SAS vs. PHX W 30 7 3 10 30.0 1 3 33.3 0 0 - 1 4 5 4 1 1 1 1 19
p234
aVTim Duncan SAS 04/21/2003 SAS vs. PHX W 46 22 9 15 60.0 0 0 - 4 6 66.7 1 11 12 2 0 6 2 2 10
p235
aVDanny Ferry SAS 04/21/2003 SAS vs. PHX W 31 6 2 10 20.0 2 6 33.3 0 0 - 1 9 10 3 1 0 1 5 18
p236
aVMalik Rose SAS 04/19/2003 SAS vs. PHX L 28 13 4 11 36.4 0 0 - 5 6 83.3 3 3 6 0 2 0 2 3 -5
p237
aVKevin Willis SAS 04/19/2003 SAS vs. PHX L 1 0 0 0 - 0 0 - 0 0 - 0 0 0 0 0 0 0 2 0
p238
aVTim Duncan SAS 04/19/2003 SAS vs. PHX L 46 17 7 12 58.3 0 0 - 3 8 37.5 8 5 13 6 1 2 3 2 4
p239
aVBruce Bowen SAS 04/19/2003 SAS vs. PHX L 21 3 1 6 16.7 0 3 0.0 1 3 33.3 0 3 3 1 0 0 1 0 -1
p240
aVManu Ginobili SAS 04/19/2003 SAS vs. PHX L 39 11 2 9 22.2 2 7 28.6 5 6 83.3 2 3 5 5 2 1 0 4 0
p241
aVTony Parker SAS 04/19/2003 SAS vs. PHX L 40 7 2 13 15.4 0 6 0.0 3 6 50.0 0 3 3 7 1 0 1 2 -3
p242
aVSpeedy Claxton SAS 04/19/2003 SAS vs. PHX L 13 3 1 4 25.0 0 0 - 1 2 50.0 0 1 1 1 1 0 4 0 2
p243
aVStephen Jackson SAS 04/19/2003 SAS vs. PHX L 46 23 7 17 41.2 3 8 37.5 6 6 100.0 3 4 7 5 2 1 2 4 -4
p244
aVDavid Robinson SAS 04/19/2003 SAS vs. PHX L 31 18 8 8 100.0 0 0 - 2 4 50.0 3 6 9 1 1 2 2 5 2
p245
a.