(lp0
VPLAYER TEAM DATE MATCHUP W/L MIN PTS FGM FGA FG% 3PM 3PA 3P% FTM FTA FT% OREB DREB REB AST STL BLK TOV PF +/-
p1
aVRodney Rogers NJN 06/15/2003 NJN @ SAS L 8 3 1 2 50.0 1 1 100.0 0 0 - 0 0 0 0 0 0 0 1 -9
p2
aVLucious Harris NJN 06/15/2003 NJN @ SAS L 15 2 0 1 0.0 0 1 0.0 2 4 50.0 1 1 2 0 0 0 1 1 -8
p3
aVJason Collins NJN 06/15/2003 NJN @ SAS L 25 4 2 5 40.0 0 0 - 0 0 - 0 3 3 0 1 1 1 4 7
p4
aVAaron Williams NJN 06/15/2003 NJN @ SAS L 16 4 2 4 50.0 0 0 - 0 0 - 1 0 1 2 1 1 1 4 -11
p5
aVRichard Jefferson NJN 06/15/2003 NJN @ SAS L 41 13 6 15 40.0 0 1 0.0 1 1 100.0 2 5 7 2 0 0 3 5 -1
p6
aVKenyon Martin NJN 06/15/2003 NJN @ SAS L 39 6 3 23 13.0 0 2 0.0 0 0 - 0 10 10 1 1 2 2 3 -8
p7
aVJason Kidd NJN 06/15/2003 NJN @ SAS L 42 21 8 20 40.0 3 9 33.3 2 2 100.0 2 2 4 7 1 0 0 4 -15
p8
aVKerry Kittles NJN 06/15/2003 NJN @ SAS L 34 16 5 12 41.7 2 6 33.3 4 4 100.0 0 4 4 2 3 0 0 2 -3
p9
aVDikembe Mutombo NJN 06/15/2003 NJN @ SAS L 10 4 1 1 100.0 0 0 - 2 2 100.0 2 1 3 0 0 1 1 1 -11
p10
aVBrian Scalabrine NJN 06/15/2003 NJN @ SAS L 1 0 0 0 - 0 0 - 0 0 - 0 1 1 0 0 0 0 0 0
p11
aVAnthony Johnson NJN 06/15/2003 NJN @ SAS L 8 4 2 4 50.0 0 1 0.0 0 0 - 0 0 0 0 1 0 2 0 4
p12
aVTamar Slay NJN 06/15/2003 NJN @ SAS L 1 0 0 0 - 0 0 - 0 0 - 0 0 0 0 0 0 0 0 0
p13
aVJason Kidd NJN 06/13/2003 NJN vs. SAS L 48 29 10 23 43.5 4 10 40.0 5 6 83.3 3 4 7 7 2 0 2 2 -10
p14
aVRichard Jefferson NJN 06/13/2003 NJN vs. SAS L 37 19 5 11 45.5 0 0 - 9 11 81.8 2 4 6 4 2 0 1 4 -10
p15
aVJason Collins NJN 06/13/2003 NJN vs. SAS L 26 7 1 3 33.3 0 0 - 5 6 83.3 4 1 5 0 1 0 0 5 4
p16
aVLucious Harris NJN 06/13/2003 NJN vs. SAS L 22 5 1 7 14.3 0 0 - 3 4 75.0 0 1 1 0 0 0 1 0 -6
p17
aVKerry Kittles NJN 06/13/2003 NJN vs. SAS L 34 8 3 9 33.3 0 3 0.0 2 2 100.0 1 3 4 1 1 1 1 3 3
p18
aVAaron Williams NJN 06/13/2003 NJN vs. SAS L 23 10 4 9 44.4 0 0 - 2 3 66.7 4 3 7 0 0 1 0 4 -5
p19
aVKenyon Martin NJN 06/13/2003 NJN vs. SAS L 38 4 2 8 25.0 0 1 0.0 0 0 - 1 8 9 3 1 3 8 5 -1
p20
aVDikembe Mutombo NJN 06/13/2003 NJN vs. SAS L 7 0 0 1 0.0 0 0 - 0 0 - 1 1 2 0 0 0 2 2 -15
p21
aVRodney Rogers NJN 06/13/2003 NJN vs. SAS L 5 1 0 3 0.0 0 2 0.0 1 2 50.0 1 0 1 0 0 0 1 0 -10
p22
aVJason Collins NJN 06/11/2003 NJN vs. SAS W 10 0 0 0 - 0 0 - 0 0 - 2 0 2 1 1 1 0 4 -5
p23
aVLucious Harris NJN 06/11/2003 NJN vs. SAS W 15 0 0 4 0.0 0 0 - 0 0 - 3 1 4 3 0 0 1 1 0
p24
aVAnthony Johnson NJN 06/11/2003 NJN vs. SAS W 4 3 1 1 100.0 1 1 100.0 0 0 - 0 0 0 0 0 0 0 0 -2
p25
aVKerry Kittles NJN 06/11/2003 NJN vs. SAS W 35 4 2 10 20.0 0 4 0.0 0 0 - 1 5 6 1 1 0 0 0 3
p26
aVRichard Jefferson NJN 06/11/2003 NJN vs. SAS W 40 18 8 15 53.3 0 0 - 2 4 50.0 1 9 10 1 0 2 3 1 -3
p27
aVRodney Rogers NJN 06/11/2003 NJN vs. SAS W 11 4 2 5 40.0 0 0 - 0 0 - 0 0 0 0 0 0 1 2 -6
p28
aVJason Kidd NJN 06/11/2003 NJN vs. SAS W 47 16 5 18 27.8 0 4 0.0 6 6 100.0 3 5 8 9 0 0 5 3 3
p29
aVAaron Williams NJN 06/11/2003 NJN vs. SAS W 17 8 2 6 33.3 0 0 - 4 5 80.0 2 5 7 1 0 4 0 3 1
p30
aVDikembe Mutombo NJN 06/11/2003 NJN vs. SAS W 21 4 1 3 33.3 0 0 - 2 2 100.0 2 1 3 0 2 3 1 3 7
p31
aVKenyon Martin NJN 06/11/2003 NJN vs. SAS W 40 20 7 16 43.8 0 0 - 6 12 50.0 5 8 13 3 1 3 5 5 7
p32
aVRichard Jefferson NJN 06/08/2003 NJN vs. SAS L 36 6 3 11 27.3 0 0 - 0 0 - 2 7 9 0 2 0 1 2 -6
p33
aVJason Kidd NJN 06/08/2003 NJN vs. SAS L 42 12 6 19 31.6 0 5 0.0 0 0 - 2 1 3 11 2 0 4 3 2
p34
aVJason Collins NJN 06/08/2003 NJN vs. SAS L 25 0 0 3 0.0 0 0 - 0 0 - 4 1 5 1 0 1 3 6 4
p35
aVAnthony Johnson NJN 06/08/2003 NJN vs. SAS L 6 4 2 2 100.0 0 0 - 0 0 - 0 1 1 0 0 0 0 0 -7
p36
aVKenyon Martin NJN 06/08/2003 NJN vs. SAS L 42 23 8 18 44.4 0 1 0.0 7 8 87.5 2 9 11 0 4 2 5 5 3
p37
aVKerry Kittles NJN 06/08/2003 NJN vs. SAS L 34 21 8 16 50.0 3 5 60.0 2 3 66.7 1 3 4 1 3 2 0 2 9
p38
aVDikembe Mutombo NJN 06/08/2003 NJN vs. SAS L 18 2 1 1 100.0 0 0 - 0 0 - 1 2 3 0 1 0 1 3 -13
p39
aVLucious Harris NJN 06/08/2003 NJN vs. SAS L 22 7 1 6 16.7 1 2 50.0 4 4 100.0 1 0 1 3 1 0 2 2 -17
p40
aVRodney Rogers NJN 06/08/2003 NJN vs. SAS L 11 2 0 3 0.0 0 0 - 2 2 100.0 0 2 2 0 0 0 2 2 -2
p41
aVAaron Williams NJN 06/08/2003 NJN vs. SAS L 4 2 1 2 50.0 0 0 - 0 0 - 1 1 2 1 0 0 0 1 2
p42
aVLucious Harris NJN 06/06/2003 NJN @ SAS W 27 10 5 8 62.5 0 1 0.0 0 0 - 2 5 7 1 1 0 1 1 4
p43
aVRichard Jefferson NJN 06/06/2003 NJN @ SAS W 39 8 3 10 30.0 0 0 - 2 2 100.0 1 2 3 3 2 0 3 3 -5
p44
aVJason Kidd NJN 06/06/2003 NJN @ SAS W 42 30 11 24 45.8 2 4 50.0 6 8 75.0 4 3 7 3 0 0 4 1 -2
p45
aVJason Collins NJN 06/06/2003 NJN @ SAS W 34 6 3 6 50.0 0 1 0.0 0 0 - 1 3 4 1 1 0 1 2 3
p46
aVAnthony Johnson NJN 06/06/2003 NJN @ SAS W 6 0 0 1 0.0 0 0 - 0 0 - 0 0 0 1 0 0 1 1 4
p47
aVDikembe Mutombo NJN 06/06/2003 NJN @ SAS W 20 4 2 3 66.7 0 0 - 0 0 - 1 3 4 0 0 3 0 3 -2
p48
aVRodney Rogers NJN 06/06/2003 NJN @ SAS W 18 7 2 8 25.0 1 3 33.3 2 2 100.0 2 3 5 2 0 0 1 4 13
p49
aVKerry Kittles NJN 06/06/2003 NJN @ SAS W 21 8 3 7 42.9 1 2 50.0 1 2 50.0 1 3 4 1 3 0 1 1 -2
p50
aVKenyon Martin NJN 06/06/2003 NJN @ SAS W 33 14 6 16 37.5 0 0 - 2 2 100.0 3 2 5 4 2 2 1 5 -3
p51
aVJason Kidd NJN 06/04/2003 NJN @ SAS L 44 10 4 17 23.5 1 5 20.0 1 2 50.0 0 8 8 10 2 1 3 1 -12
p52
aVKerry Kittles NJN 06/04/2003 NJN @ SAS L 30 8 2 7 28.6 1 3 33.3 3 4 75.0 2 1 3 2 0 0 1 1 -11
p53
aVRodney Rogers NJN 06/04/2003 NJN @ SAS L 21 11 5 10 50.0 1 2 50.0 0 0 - 1 1 2 1 0 0 0 3 -5
p54
aVDikembe Mutombo NJN 06/04/2003 NJN @ SAS L 6 0 0 1 0.0 0 0 - 0 0 - 0 2 2 0 0 1 0 2 -4
p55
aVAaron Williams NJN 06/04/2003 NJN @ SAS L 11 4 2 5 40.0 0 0 - 0 0 - 2 2 4 0 0 1 0 4 -2
p56
aVKenyon Martin NJN 06/04/2003 NJN @ SAS L 33 21 10 24 41.7 0 1 0.0 1 2 50.0 4 8 12 2 1 2 1 6 -12
p57
aVRichard Jefferson NJN 06/04/2003 NJN @ SAS L 36 15 5 10 50.0 0 0 - 5 6 83.3 0 4 4 1 2 0 3 3 -8
p58
aVJason Collins NJN 06/04/2003 NJN @ SAS L 31 5 1 4 25.0 0 0 - 3 4 75.0 4 5 9 3 0 0 0 4 -6
p59
aVLucious Harris NJN 06/04/2003 NJN @ SAS L 24 15 4 10 40.0 1 2 50.0 6 7 85.7 0 1 1 0 0 0 0 1 0
p60
aVAnthony Johnson NJN 06/04/2003 NJN @ SAS L 4 0 0 1 0.0 0 0 - 0 0 - 0 0 0 0 0 0 0 1 0
p61
aVLucious Harris NJN 05/24/2003 NJN vs. DET W 22 9 4 6 66.7 1 2 50.0 0 0 - 0 3 3 2 0 0 2 3 7
p62
aVAaron Williams NJN 05/24/2003 NJN vs. DET W 19 8 4 5 80.0 0 0 - 0 0 - 3 3 6 1 0 0 1 3 2
p63
aVAnthony Johnson NJN 05/24/2003 NJN vs. DET W 9 0 0 1 0.0 0 0 - 0 0 - 0 2 2 5 0 0 1 0 6
p64
aVBrian Scalabrine NJN 05/24/2003 NJN vs. DET W 5 2 1 1 100.0 0 0 - 0 0 - 0 0 0 0 0 0 0 1 6
p65
aVTamar Slay NJN 05/24/2003 NJN vs. DET W 2 0 0 0 - 0 0 - 0 0 - 0 0 0 0 0 0 1 0 -1
p66
aVKenyon Martin NJN 05/24/2003 NJN vs. DET W 36 14 6 13 46.2 0 1 0.0 2 2 100.0 3 7 10 3 1 0 4 4 19
p67
aVJason Collins NJN 05/24/2003 NJN vs. DET W 29 10 3 7 42.9 0 0 - 4 4 100.0 0 7 7 1 1 2 0 2 18
p68
aVRichard Jefferson NJN 05/24/2003 NJN vs. DET W 25 14 7 12 58.3 0 0 - 0 0 - 0 3 3 0 0 1 0 5 7
p69
aVRodney Rogers NJN 05/24/2003 NJN vs. DET W 28 10 3 6 50.0 1 1 100.0 3 5 60.0 1 2 3 4 1 0 2 4 9
p70
aVKerry Kittles NJN 05/24/2003 NJN vs. DET W 26 9 4 7 57.1 1 1 100.0 0 0 - 2 3 5 4 1 0 0 0 13
p71
aVJason Kidd NJN 05/24/2003 NJN vs. DET W 39 26 10 21 47.6 1 5 20.0 5 5 100.0 4 8 12 7 2 0 6 2 14
p72
aVTamar Slay NJN 05/22/2003 NJN vs. DET W 2 0 0 3 0.0 0 0 - 0 0 - 0 0 0 0 0 0 0 0 -3
p73
aVRichard Jefferson NJN 05/22/2003 NJN vs. DET W 38 4 2 11 18.2 0 0 - 0 0 - 5 4 9 2 2 0 4 3 11
p74
aVLucious Harris NJN 05/22/2003 NJN vs. DET W 22 10 4 10 40.0 1 1 100.0 1 3 33.3 2 2 4 2 2 0 0 3 4
p75
aVJason Collins NJN 05/22/2003 NJN vs. DET W 25 2 1 3 33.3 0 0 - 0 0 - 1 2 3 0 1 0 0 3 7
p76
aVJason Kidd NJN 05/22/2003 NJN vs. DET W 39 34 11 21 52.4 1 2 50.0 11 13 84.6 5 7 12 6 4 1 5 3 8
p77
aVRodney Rogers NJN 05/22/2003 NJN vs. DET W 21 2 0 4 0.0 0 1 0.0 2 4 50.0 1 3 4 1 1 1 2 4 5
p78
aVAaron Williams NJN 05/22/2003 NJN vs. DET W 23 7 3 5 60.0 0 0 - 1 2 50.0 2 2 4 3 0 2 0 2 5
p79
aVAnthony Johnson NJN 05/22/2003 NJN vs. DET W 9 10 4 4 100.0 2 2 100.0 0 0 - 0 2 2 1 0 0 0 1 4
p80
aVKenyon Martin NJN 05/22/2003 NJN vs. DET W 33 19 6 12 50.0 0 0 - 7 11 63.6 1 5 6 3 1 3 0 5 14
p81
aVBrian Scalabrine NJN 05/22/2003 NJN vs. DET W 2 0 0 0 - 0 0 - 0 0 - 1 0 1 0 0 0 0 0 -3
p82
aVKerry Kittles NJN 05/22/2003 NJN vs. DET W 26 9 3 9 33.3 0 2 0.0 3 4 75.0 1 4 5 1 1 2 0 2 8
p83
aVJason Collins NJN 05/20/2003 NJN @ DET W 32 11 5 11 45.5 0 0 - 1 1 100.0 9 5 14 0 1 0 1 4 0
p84
aVKerry Kittles NJN 05/20/2003 NJN @ DET W 22 2 0 4 0.0 0 1 0.0 2 2 100.0 0 1 1 0 0 0 1 0 -6
p85
aVAaron Williams NJN 05/20/2003 NJN @ DET W 16 5 2 9 22.2 0 0 - 1 2 50.0 3 4 7 0 0 0 2 4 1
p86
aVRichard Jefferson NJN 05/20/2003 NJN @ DET W 23 9 3 9 33.3 0 0 - 3 4 75.0 1 4 5 2 0 0 3 4 -1
p87
aVKenyon Martin NJN 05/20/2003 NJN @ DET W 42 25 10 19 52.6 0 0 - 5 6 83.3 1 8 9 2 1 1 5 5 7
p88
aVBrian Scalabrine NJN 05/20/2003 NJN @ DET W 6 0 0 0 - 0 0 - 0 0 - 0 1 1 0 0 0 0 1 -7
p89
aVAnthony Johnson NJN 05/20/2003 NJN @ DET W 5 2 0 1 0.0 0 0 - 2 2 100.0 0 0 0 0 0 0 0 2 -3
p90
aVJason Kidd NJN 05/20/2003 NJN @ DET W 43 20 8 21 38.1 2 5 40.0 2 3 66.7 0 7 7 5 2 0 2 1 4
p91
aVLucious Harris NJN 05/20/2003 NJN @ DET W 26 6 2 4 50.0 0 0 - 2 2 100.0 0 0 0 1 1 0 0 0 7
p92
aVRodney Rogers NJN 05/20/2003 NJN @ DET W 25 8 3 6 50.0 1 2 50.0 1 2 50.0 5 2 7 4 1 0 0 4 3
p93
aVLucious Harris NJN 05/18/2003 NJN @ DET W 12 8 3 8 37.5 0 1 0.0 2 2 100.0 1 1 2 1 0 0 0 5 -13
p94
aVJason Kidd NJN 05/18/2003 NJN @ DET W 43 15 6 19 31.6 0 5 0.0 3 3 100.0 1 8 9 7 3 0 4 1 3
p95
aVJason Collins NJN 05/18/2003 NJN @ DET W 27 4 1 5 20.0 0 0 - 2 2 100.0 4 6 10 0 0 0 3 4 -10
p96
aVRichard Jefferson NJN 05/18/2003 NJN @ DET W 34 11 5 10 50.0 0 0 - 1 3 33.3 1 6 7 0 1 1 1 5 -5
p97
aVAnthony Johnson NJN 05/18/2003 NJN @ DET W 5 2 1 2 50.0 0 1 0.0 0 0 - 0 0 0 1 0 0 0 0 -1
p98
aVKerry Kittles NJN 05/18/2003 NJN @ DET W 36 9 4 11 36.4 0 1 0.0 1 3 33.3 0 4 4 4 2 0 1 2 15
p99
aVRodney Rogers NJN 05/18/2003 NJN @ DET W 17 7 2 4 50.0 1 2 50.0 2 2 100.0 0 1 1 2 0 0 1 3 3
p100
aVAaron Williams NJN 05/18/2003 NJN @ DET W 20 4 1 5 20.0 0 0 - 2 2 100.0 2 4 6 1 0 3 2 4 10
p101
aVKenyon Martin NJN 05/18/2003 NJN @ DET W 46 16 8 14 57.1 0 0 - 0 2 0.0 0 9 9 2 4 3 2 5 8
p102
aVKerry Kittles NJN 05/12/2003 NJN @ BOS W 40 14 6 12 50.0 2 3 66.7 0 0 - 2 4 6 2 3 0 3 5 9
p103
aVAaron Williams NJN 05/12/2003 NJN @ BOS W 20 4 1 2 50.0 0 0 - 2 2 100.0 0 0 0 1 2 0 1 2 3
p104
aVRodney Rogers NJN 05/12/2003 NJN @ BOS W 21 12 4 7 57.1 4 5 80.0 0 0 - 1 5 6 2 1 0 1 4 6
p105
aVLucious Harris NJN 05/12/2003 NJN @ BOS W 19 6 3 7 42.9 0 3 0.0 0 0 - 2 0 2 1 0 0 2 4 3
p106
aVJason Kidd NJN 05/12/2003 NJN @ BOS W 53 29 9 24 37.5 5 10 50.0 6 9 66.7 1 9 10 8 2 0 6 1 8
p107
aVKenyon Martin NJN 05/12/2003 NJN @ BOS W 51 22 10 23 43.5 0 0 - 2 3 66.7 3 7 10 2 3 2 3 6 2
p108
aVJason Collins NJN 05/12/2003 NJN @ BOS W 36 6 1 5 20.0 0 0 - 4 4 100.0 2 2 4 1 1 0 2 5 1
p109
aVAnthony Johnson NJN 05/12/2003 NJN @ BOS W 6 2 1 1 100.0 0 0 - 0 0 - 0 1 1 2 0 0 1 1 1
p110
aVRichard Jefferson NJN 05/12/2003 NJN @ BOS W 44 15 5 12 41.7 0 1 0.0 5 8 62.5 0 7 7 5 1 0 3 1 12
p111
aVLucious Harris NJN 05/09/2003 NJN @ BOS W 21 6 2 7 28.6 1 2 50.0 1 2 50.0 0 1 1 0 0 0 0 1 2
p112
aVTamar Slay NJN 05/09/2003 NJN @ BOS W 3 0 0 0 - 0 0 - 0 0 - 0 0 0 0 0 0 1 0 -3
p113
aVAaron Williams NJN 05/09/2003 NJN @ BOS W 22 8 3 6 50.0 0 0 - 2 2 100.0 0 3 3 1 1 0 1 2 3
p114
aVKerry Kittles NJN 05/09/2003 NJN @ BOS W 27 8 2 5 40.0 1 2 50.0 3 5 60.0 0 2 2 2 1 0 1 0 16
p115
aVJason Collins NJN 05/09/2003 NJN @ BOS W 23 8 3 6 50.0 0 0 - 2 4 50.0 1 5 6 0 0 0 1 4 18
p116
aVKenyon Martin NJN 05/09/2003 NJN @ BOS W 41 25 10 12 83.3 1 1 100.0 4 8 50.0 1 6 7 3 2 1 0 3 21
p117
aVDikembe Mutombo NJN 05/09/2003 NJN @ BOS W 3 0 0 1 0.0 0 0 - 0 0 - 1 1 2 0 0 0 0 2 -3
p118
aVRichard Jefferson NJN 05/09/2003 NJN @ BOS W 41 20 6 9 66.7 0 0 - 8 12 66.7 1 6 7 6 0 0 1 1 24
p119
aVBrian Scalabrine NJN 05/09/2003 NJN @ BOS W 3 2 1 2 50.0 0 1 0.0 0 0 - 0 0 0 0 0 0 1 1 -3
p120
aVAnthony Johnson NJN 05/09/2003 NJN @ BOS W 11 4 2 4 50.0 0 0 - 0 0 - 0 1 1 2 0 0 0 0 -6
p121
aVRodney Rogers NJN 05/09/2003 NJN @ BOS W 8 4 1 2 50.0 1 2 50.0 1 2 50.0 0 0 0 0 1 0 0 2 -3
p122
aVJason Kidd NJN 05/09/2003 NJN @ BOS W 37 9 4 15 26.7 0 3 0.0 1 1 100.0 1 8 9 11 2 0 3 3 24
p123
aVRodney Rogers NJN 05/07/2003 NJN vs. BOS W 13 5 2 4 50.0 1 1 100.0 0 0 - 0 1 1 1 0 0 0 2 -9
p124
aVRichard Jefferson NJN 05/07/2003 NJN vs. BOS W 41 25 10 18 55.6 0 0 - 5 6 83.3 1 5 6 3 2 0 4 1 27
p125
aVJason Collins NJN 05/07/2003 NJN vs. BOS W 30 10 2 6 33.3 0 1 0.0 6 8 75.0 3 3 6 1 3 1 0 4 17
p126
aVKerry Kittles NJN 05/07/2003 NJN vs. BOS W 31 16 6 12 50.0 3 5 60.0 1 2 50.0 1 2 3 4 1 0 0 4 14
p127
aVAaron Williams NJN 05/07/2003 NJN vs. BOS W 17 4 0 5 0.0 0 0 - 4 4 100.0 2 1 3 1 0 0 0 1 -9
p128
aVLucious Harris NJN 05/07/2003 NJN vs. BOS W 18 3 1 6 16.7 1 1 100.0 0 0 - 0 2 2 6 0 0 2 3 -4
p129
aVKenyon Martin NJN 05/07/2003 NJN vs. BOS W 42 14 6 15 40.0 0 0 - 2 4 50.0 4 6 10 4 2 0 4 5 0
p130
aVAnthony Johnson NJN 05/07/2003 NJN vs. BOS W 10 4 2 3 66.7 0 0 - 0 0 - 1 1 2 1 1 0 1 3 -4
p131
aVJason Kidd NJN 05/07/2003 NJN vs. BOS W 38 23 6 10 60.0 2 2 100.0 9 9 100.0 1 10 11 8 2 0 6 0 13
p132
aVRodney Rogers NJN 05/05/2003 NJN vs. BOS W 25 9 2 8 25.0 1 6 16.7 4 4 100.0 1 5 6 2 1 1 1 2 8
p133
aVRichard Jefferson NJN 05/05/2003 NJN vs. BOS W 38 13 6 12 50.0 0 0 - 1 2 50.0 2 7 9 3 0 0 4 3 6
p134
aVJason Kidd NJN 05/05/2003 NJN vs. BOS W 43 15 4 13 30.8 1 3 33.3 6 6 100.0 2 4 6 9 2 0 4 2 4
p135
aVAaron Williams NJN 05/05/2003 NJN vs. BOS W 29 12 6 12 50.0 0 0 - 0 1 0.0 2 7 9 1 0 1 2 4 -4
p136
aVKenyon Martin NJN 05/05/2003 NJN vs. BOS W 31 21 7 14 50.0 0 0 - 7 9 77.8 2 4 6 3 0 1 5 5 -4
p137
aVJason Collins NJN 05/05/2003 NJN vs. BOS W 19 6 2 4 50.0 0 0 - 2 2 100.0 1 4 5 1 1 1 0 5 8
p138
aVKerry Kittles NJN 05/05/2003 NJN vs. BOS W 36 17 5 12 41.7 4 6 66.7 3 4 75.0 0 1 1 4 2 0 1 2 10
p139
aVLucious Harris NJN 05/05/2003 NJN vs. BOS W 14 4 2 6 33.3 0 3 0.0 0 0 - 0 2 2 1 0 0 0 0 -8
p140
aVAnthony Johnson NJN 05/05/2003 NJN vs. BOS W 5 0 0 0 - 0 0 - 0 0 - 0 0 0 0 0 0 1 0 0
p141
aVJason Kidd NJN 05/01/2003 NJN @ MIL W 38 22 5 11 45.5 1 5 20.0 11 14 78.6 1 10 11 11 3 0 6 3 15
p142
aVBrian Scalabrine NJN 05/01/2003 NJN @ MIL W 1 0 0 0 - 0 0 - 0 0 - 0 0 0 0 0 0 0 0 -2
p143
aVTamar Slay NJN 05/01/2003 NJN @ MIL W 1 0 0 0 - 0 0 - 0 0 - 0 0 0 0 0 0 0 0 -2
p144
aVLucious Harris NJN 05/01/2003 NJN @ MIL W 18 8 2 8 25.0 1 3 33.3 3 4 75.0 2 0 2 1 1 0 0 3 -6
p145
aVRichard Jefferson NJN 05/01/2003 NJN @ MIL W 33 16 8 11 72.7 0 0 - 0 0 - 2 4 6 3 0 0 2 5 23
p146
aVAnthony Johnson NJN 05/01/2003 NJN @ MIL W 12 0 0 0 - 0 0 - 0 0 - 0 0 0 2 0 0 1 2 -1
p147
aVKenyon Martin NJN 05/01/2003 NJN @ MIL W 35 29 12 21 57.1 0 0 - 5 8 62.5 7 2 9 3 0 0 0 5 17
p148
aVJason Collins NJN 05/01/2003 NJN @ MIL W 26 6 1 4 25.0 0 0 - 4 4 100.0 1 6 7 2 0 3 0 1 19
p149
aVAaron Williams NJN 05/01/2003 NJN @ MIL W 21 12 5 7 71.4 0 0 - 2 2 100.0 2 2 4 0 1 1 0 3 -7
p150
aVRodney Rogers NJN 05/01/2003 NJN @ MIL W 18 8 3 7 42.9 2 3 66.7 0 1 0.0 1 0 1 0 0 0 2 3 -11
p151
aVKerry Kittles NJN 05/01/2003 NJN @ MIL W 37 12 4 12 33.3 2 5 40.0 2 2 100.0 4 2 6 3 0 0 1 3 15
p152
aVRichard Jefferson NJN 04/29/2003 NJN vs. MIL W 38 17 7 14 50.0 0 0 - 3 3 100.0 4 12 16 2 0 0 3 4 11
p153
aVAnthony Johnson NJN 04/29/2003 NJN vs. MIL W 11 4 1 4 25.0 0 1 0.0 2 2 100.0 0 1 1 3 0 0 0 2 1
p154
aVKenyon Martin NJN 04/29/2003 NJN vs. MIL W 29 9 3 11 27.3 0 1 0.0 3 4 75.0 2 8 10 5 2 2 2 5 -9
p155
aVLucious Harris NJN 04/29/2003 NJN vs. MIL W 24 8 3 8 37.5 0 1 0.0 2 2 100.0 1 1 2 1 1 0 3 2 5
p156
aVJason Collins NJN 04/29/2003 NJN vs. MIL W 32 9 0 3 0.0 0 0 - 9 10 90.0 5 1 6 1 0 1 1 3 -2
p157
aVRodney Rogers NJN 04/29/2003 NJN vs. MIL W 14 2 0 4 0.0 0 2 0.0 2 2 100.0 2 1 3 2 0 0 3 3 6
p158
aVKerry Kittles NJN 04/29/2003 NJN vs. MIL W 36 15 5 16 31.3 3 6 50.0 2 2 100.0 1 3 4 0 2 0 1 4 8
p159
aVAaron Williams NJN 04/29/2003 NJN vs. MIL W 15 6 3 4 75.0 0 0 - 0 2 0.0 1 5 6 1 0 0 0 3 8
p160
aVJason Kidd NJN 04/29/2003 NJN vs. MIL W 41 19 5 16 31.3 1 3 33.3 8 11 72.7 1 5 6 5 1 1 3 4 7
p161
aVRodney Rogers NJN 04/26/2003 NJN @ MIL L 14 2 1 2 50.0 0 0 - 0 0 - 1 1 2 1 0 0 2 3 -1
p162
aVAaron Williams NJN 04/26/2003 NJN @ MIL L 24 9 4 8 50.0 0 0 - 1 2 50.0 2 5 7 2 1 1 1 3 -15
p163
aVRichard Jefferson NJN 04/26/2003 NJN @ MIL L 31 28 9 13 69.2 0 0 - 10 15 66.7 3 3 6 2 0 0 0 5 -5
p164
aVAnthony Johnson NJN 04/26/2003 NJN @ MIL L 5 1 0 0 - 0 0 - 1 2 50.0 0 0 0 1 0 0 0 1 0
p165
aVJason Collins NJN 04/26/2003 NJN @ MIL L 28 6 1 4 25.0 0 0 - 4 6 66.7 2 6 8 0 1 1 1 3 12
p166
aVKerry Kittles NJN 04/26/2003 NJN @ MIL L 25 4 2 5 40.0 0 0 - 0 0 - 1 1 2 2 1 0 1 3 -1
p167
aVLucious Harris NJN 04/26/2003 NJN @ MIL L 41 19 6 10 60.0 2 4 50.0 5 6 83.3 0 4 4 0 1 0 3 2 -4
p168
aVKenyon Martin NJN 04/26/2003 NJN @ MIL L 49 30 10 21 47.6 0 2 0.0 10 14 71.4 0 6 6 5 0 1 3 5 -6
p169
aVJason Kidd NJN 04/26/2003 NJN @ MIL L 48 15 6 12 50.0 1 4 25.0 2 2 100.0 2 4 6 10 1 1 3 5 -5
p170
aVLucious Harris NJN 04/24/2003 NJN @ MIL W 21 4 2 4 50.0 0 0 - 0 0 - 0 2 2 3 0 0 1 4 11
p171
aVAaron Williams NJN 04/24/2003 NJN @ MIL W 20 8 3 4 75.0 0 0 - 2 2 100.0 2 1 3 1 0 1 1 4 -6
p172
aVKenyon Martin NJN 04/24/2003 NJN @ MIL W 40 23 7 17 41.2 0 1 0.0 9 9 100.0 2 6 8 4 1 1 3 4 7
p173
aVDikembe Mutombo NJN 04/24/2003 NJN @ MIL W 5 0 0 0 - 0 0 - 0 0 - 0 1 1 1 0 0 1 0 5
p174
aVJason Collins NJN 04/24/2003 NJN @ MIL W 23 2 1 5 20.0 0 0 - 0 0 - 1 7 8 2 0 0 3 5 1
p175
aVRodney Rogers NJN 04/24/2003 NJN @ MIL W 24 18 7 16 43.8 2 5 40.0 2 4 50.0 3 4 7 2 0 1 2 1 -3
p176
aVJason Kidd NJN 04/24/2003 NJN @ MIL W 41 26 7 13 53.8 4 9 44.4 8 11 72.7 0 5 5 7 1 0 2 3 1
p177
aVAnthony Johnson NJN 04/24/2003 NJN @ MIL W 6 2 1 2 50.0 0 0 - 0 0 - 2 0 2 0 0 0 0 1 -2
p178
aVRichard Jefferson NJN 04/24/2003 NJN @ MIL W 31 4 2 7 28.6 0 0 - 0 0 - 1 2 3 2 1 0 2 4 0
p179
aVKerry Kittles NJN 04/24/2003 NJN @ MIL W 29 16 6 11 54.5 2 3 66.7 2 2 100.0 0 1 1 1 1 0 1 2 -4
p180
aVKenyon Martin NJN 04/22/2003 NJN vs. MIL L 42 22 8 16 50.0 0 0 - 6 7 85.7 3 9 12 2 1 1 1 4 -2
p181
aVLucious Harris NJN 04/22/2003 NJN vs. MIL L 26 8 3 8 37.5 0 3 0.0 2 2 100.0 1 2 3 4 0 0 2 1 -4
p182
aVJason Collins NJN 04/22/2003 NJN vs. MIL L 21 2 0 0 - 0 0 - 2 2 100.0 1 0 1 1 0 0 0 6 5
p183
aVAaron Williams NJN 04/22/2003 NJN vs. MIL L 19 8 4 7 57.1 0 0 - 0 0 - 2 6 8 0 0 0 1 2 0
p184
aVRodney Rogers NJN 04/22/2003 NJN vs. MIL L 24 8 3 10 30.0 0 1 0.0 2 2 100.0 2 3 5 2 0 0 2 1 4
p185
aVRichard Jefferson NJN 04/22/2003 NJN vs. MIL L 30 16 6 12 50.0 0 1 0.0 4 6 66.7 0 4 4 3 0 0 2 5 -9
p186
aVKerry Kittles NJN 04/22/2003 NJN vs. MIL L 24 2 1 8 12.5 0 1 0.0 0 0 - 0 1 1 3 2 0 3 2 1
p187
aVJason Kidd NJN 04/22/2003 NJN vs. MIL L 46 17 6 14 42.9 3 7 42.9 2 3 66.7 2 5 7 8 1 0 7 2 -3
p188
aVDikembe Mutombo NJN 04/22/2003 NJN vs. MIL L 8 2 1 1 100.0 0 0 - 0 0 - 0 4 4 2 0 0 0 2 -7
p189
aVDikembe Mutombo NJN 04/19/2003 NJN vs. MIL W 17 2 1 3 33.3 0 0 - 0 0 - 0 3 3 3 0 1 2 3 -6
p190
aVRichard Jefferson NJN 04/19/2003 NJN vs. MIL W 35 10 4 9 44.4 0 0 - 2 2 100.0 0 0 0 3 1 0 3 3 19
p191
aVKerry Kittles NJN 04/19/2003 NJN vs. MIL W 30 18 8 15 53.3 1 4 25.0 1 1 100.0 1 3 4 2 1 0 0 1 7
p192
aVKenyon Martin NJN 04/19/2003 NJN vs. MIL W 35 21 10 16 62.5 0 0 - 1 3 33.3 6 9 15 3 1 1 4 2 24
p193
aVRodney Rogers NJN 04/19/2003 NJN vs. MIL W 24 11 4 10 40.0 0 3 0.0 3 4 75.0 0 0 0 1 0 0 2 3 -15
p194
aVBrian Scalabrine NJN 04/19/2003 NJN vs. MIL W 2 0 0 1 0.0 0 0 - 0 0 - 0 1 1 0 0 0 0 0 -2
p195
aVJason Collins NJN 04/19/2003 NJN vs. MIL W 27 13 5 7 71.4 0 0 - 3 4 75.0 5 7 12 1 0 0 1 0 26
p196
aVAaron Williams NJN 04/19/2003 NJN vs. MIL W 4 0 0 1 0.0 0 0 - 0 0 - 0 0 0 1 0 1 0 1 -7
p197
aVTamar Slay NJN 04/19/2003 NJN vs. MIL W 2 3 1 1 100.0 1 1 100.0 0 0 - 0 0 0 0 0 0 0 1 -2
p198
aVLucious Harris NJN 04/19/2003 NJN vs. MIL W 26 17 6 10 60.0 2 3 66.7 3 4 75.0 3 4 7 2 1 0 1 2 1
p199
aVJason Kidd NJN 04/19/2003 NJN vs. MIL W 38 14 6 10 60.0 2 4 50.0 0 0 - 1 5 6 14 3 0 4 2 20
p200
a.