(lp0
VPLAYER TEAM DATE MATCHUP W/L MIN PTS FGM FGA FG% 3PM 3PA 3P% FTM FTA FT% OREB DREB REB AST STL BLK TOV PF +/-
p1
aVJoe Johnson PHX 05/01/2003 PHX vs. SAS L 29 11 5 13 38.5 0 4 0.0 1 2 50.0 1 4 5 3 0 0 5 3 -8
p2
aVScott Williams PHX 05/01/2003 PHX vs. SAS L 10 2 1 5 20.0 0 0 - 0 0 - 1 0 1 0 0 0 0 2 -1
p3
aVBo Outlaw PHX 05/01/2003 PHX vs. SAS L 16 0 0 1 0.0 0 0 - 0 0 - 3 1 4 1 0 1 1 3 -4
p4
aVShawn Marion PHX 05/01/2003 PHX vs. SAS L 46 24 9 21 42.9 4 8 50.0 2 3 66.7 4 11 15 1 2 1 4 3 4
p5
aVStephon Marbury PHX 05/01/2003 PHX vs. SAS L 41 18 5 19 26.3 2 5 40.0 6 6 100.0 2 5 7 2 1 0 6 6 -11
p6
aVCasey Jacobsen PHX 05/01/2003 PHX vs. SAS L 7 0 0 1 0.0 0 1 0.0 0 0 - 0 0 0 1 0 0 0 0 9
p7
aVAmar'e Stoudemire PHX 05/01/2003 PHX vs. SAS L 38 18 8 14 57.1 0 0 - 2 3 66.7 5 5 10 3 3 1 2 5 11
p8
aVJake Voskuhl PHX 05/01/2003 PHX vs. SAS L 10 2 0 1 0.0 0 0 - 2 2 100.0 1 1 2 0 0 0 1 1 -22
p9
aVAnfernee Hardaway PHX 05/01/2003 PHX vs. SAS L 43 10 4 13 30.8 2 4 50.0 0 0 - 2 5 7 5 3 1 0 4 12
p10
aVShawn Marion PHX 04/29/2003 PHX @ SAS L 46 22 7 20 35.0 1 4 25.0 7 7 100.0 2 7 9 1 3 3 2 4 -10
p11
aVStephon Marbury PHX 04/29/2003 PHX @ SAS L 46 13 5 18 27.8 1 2 50.0 2 2 100.0 0 1 1 7 1 0 5 3 -11
p12
aVScott Williams PHX 04/29/2003 PHX @ SAS L 7 0 0 1 0.0 0 0 - 0 0 - 0 1 1 0 0 0 0 2 -8
p13
aVJake Voskuhl PHX 04/29/2003 PHX @ SAS L 19 7 2 4 50.0 0 0 - 3 4 75.0 1 3 4 0 1 1 0 1 -19
p14
aVCasey Jacobsen PHX 04/29/2003 PHX @ SAS L 18 6 2 5 40.0 2 2 100.0 0 2 0.0 1 2 3 1 2 0 1 2 -1
p15
aVBo Outlaw PHX 04/29/2003 PHX @ SAS L 17 4 1 3 33.3 0 0 - 2 2 100.0 2 2 4 2 1 0 2 6 12
p16
aVJoe Johnson PHX 04/29/2003 PHX @ SAS L 12 0 0 5 0.0 0 1 0.0 0 0 - 0 0 0 1 1 0 2 3 -15
p17
aVAnfernee Hardaway PHX 04/29/2003 PHX @ SAS L 38 16 7 16 43.8 1 3 33.3 1 1 100.0 2 2 4 4 1 1 3 6 -7
p18
aVAmar'e Stoudemire PHX 04/29/2003 PHX @ SAS L 37 14 6 10 60.0 0 0 - 2 7 28.6 3 11 14 1 3 3 4 5 -1
p19
aVJoe Johnson PHX 04/27/2003 PHX vs. SAS W 22 8 3 9 33.3 1 3 33.3 1 3 33.3 1 3 4 2 0 0 0 1 5
p20
aVAmar'e Stoudemire PHX 04/27/2003 PHX vs. SAS W 23 7 3 5 60.0 0 0 - 1 2 50.0 1 5 6 1 2 1 5 6 7
p21
aVStephon Marbury PHX 04/27/2003 PHX vs. SAS W 44 18 7 18 38.9 1 3 33.3 3 7 42.9 1 2 3 7 0 0 4 4 8
p22
aVScott Williams PHX 04/27/2003 PHX vs. SAS W 26 12 5 14 35.7 0 0 - 2 2 100.0 4 1 5 0 1 2 0 5 1
p23
aVAnfernee Hardaway PHX 04/27/2003 PHX vs. SAS W 36 13 4 7 57.1 2 3 66.7 3 4 75.0 0 1 1 7 2 1 2 5 4
p24
aVBo Outlaw PHX 04/27/2003 PHX vs. SAS W 12 0 0 1 0.0 0 0 - 0 0 - 0 1 1 1 0 0 1 1 0
p25
aVTom Gugliotta PHX 04/27/2003 PHX vs. SAS W 9 4 2 4 50.0 0 0 - 0 0 - 0 1 1 0 0 0 0 2 -11
p26
aVJake Voskuhl PHX 04/27/2003 PHX vs. SAS W 18 7 2 2 100.0 0 0 - 3 3 100.0 1 2 3 0 0 2 3 5 -5
p27
aVShawn Marion PHX 04/27/2003 PHX vs. SAS W 47 17 7 18 38.9 0 3 0.0 3 3 100.0 5 9 14 4 4 1 2 1 4
p28
aVCasey Jacobsen PHX 04/27/2003 PHX vs. SAS W 3 0 0 1 0.0 0 0 - 0 0 - 0 0 0 0 0 0 0 0 -3
p29
aVAnfernee Hardaway PHX 04/25/2003 PHX vs. SAS L 36 9 3 10 30.0 1 5 20.0 2 4 50.0 3 4 7 4 2 0 3 2 -2
p30
aVStephon Marbury PHX 04/25/2003 PHX vs. SAS L 43 25 12 26 46.2 0 3 0.0 1 3 33.3 1 0 1 7 2 0 3 4 -14
p31
aVScott Williams PHX 04/25/2003 PHX vs. SAS L 15 4 2 3 66.7 0 0 - 0 0 - 0 3 3 0 1 1 0 4 4
p32
aVBo Outlaw PHX 04/25/2003 PHX vs. SAS L 2 0 0 1 0.0 0 0 - 0 0 - 0 1 1 1 0 0 0 2 1
p33
aVCasey Jacobsen PHX 04/25/2003 PHX vs. SAS L 7 0 0 3 0.0 0 2 0.0 0 0 - 0 0 0 0 1 0 0 2 -2
p34
aVAmar'e Stoudemire PHX 04/25/2003 PHX vs. SAS L 38 17 6 13 46.2 0 0 - 5 8 62.5 1 1 2 1 2 1 2 5 -21
p35
aVJoe Johnson PHX 04/25/2003 PHX vs. SAS L 33 3 1 11 9.1 1 2 50.0 0 0 - 3 6 9 0 0 0 1 2 -15
p36
aVJake Voskuhl PHX 04/25/2003 PHX vs. SAS L 22 10 3 5 60.0 0 0 - 4 4 100.0 3 1 4 0 3 0 0 4 -8
p37
aVShawn Marion PHX 04/25/2003 PHX vs. SAS L 44 18 6 15 40.0 2 3 66.7 4 6 66.7 2 6 8 3 0 2 2 3 -8
p38
aVAmar'e Stoudemire PHX 04/21/2003 PHX @ SAS L 28 5 2 10 20.0 0 0 - 1 2 50.0 3 3 6 1 0 1 2 3 -12
p39
aVShawn Marion PHX 04/21/2003 PHX @ SAS L 46 6 3 14 21.4 0 4 0.0 0 0 - 3 9 12 0 1 1 0 3 -8
p40
aVJoe Johnson PHX 04/21/2003 PHX @ SAS L 31 6 3 9 33.3 0 3 0.0 0 0 - 1 2 3 1 0 2 2 2 -13
p41
aVAnfernee Hardaway PHX 04/21/2003 PHX @ SAS L 44 17 5 13 38.5 1 5 20.0 6 7 85.7 2 9 11 3 4 1 3 3 -13
p42
aVBo Outlaw PHX 04/21/2003 PHX @ SAS L 9 0 0 2 0.0 0 0 - 0 2 0.0 1 1 2 0 0 0 0 3 6
p43
aVCasey Jacobsen PHX 04/21/2003 PHX @ SAS L 3 0 0 0 - 0 0 - 0 0 - 0 0 0 0 0 0 0 0 2
p44
aVScott Williams PHX 04/21/2003 PHX @ SAS L 12 4 2 6 33.3 0 0 - 0 0 - 0 1 1 1 1 0 0 2 -2
p45
aVJake Voskuhl PHX 04/21/2003 PHX @ SAS L 22 6 3 3 100.0 0 0 - 0 0 - 2 4 6 2 0 1 2 5 10
p46
aVStephon Marbury PHX 04/21/2003 PHX @ SAS L 45 32 13 27 48.1 0 5 0.0 6 7 85.7 2 8 10 5 1 0 3 4 -10
p47
aVBo Outlaw PHX 04/19/2003 PHX @ SAS W 14 0 0 2 0.0 0 0 - 0 0 - 0 1 1 0 0 0 2 4 -12
p48
aVScott Williams PHX 04/19/2003 PHX @ SAS W 13 2 1 3 33.3 0 0 - 0 0 - 1 3 4 0 1 0 1 2 -3
p49
aVJoe Johnson PHX 04/19/2003 PHX @ SAS W 37 4 2 4 50.0 0 0 - 0 0 - 0 5 5 1 3 0 2 4 5
p50
aVStephon Marbury PHX 04/19/2003 PHX @ SAS W 53 26 9 28 32.1 1 4 25.0 7 8 87.5 0 2 2 6 2 0 2 5 1
p51
aVJake Voskuhl PHX 04/19/2003 PHX @ SAS W 7 4 2 2 100.0 0 0 - 0 0 - 1 2 3 0 0 0 0 5 -14
p52
aVShawn Marion PHX 04/19/2003 PHX @ SAS W 53 24 8 19 42.1 2 6 33.3 6 7 85.7 5 7 12 3 1 3 3 3 1
p53
aVCasey Jacobsen PHX 04/19/2003 PHX @ SAS W 1 0 0 0 - 0 0 - 0 0 - 0 0 0 0 0 0 0 0 7
p54
aVTom Gugliotta PHX 04/19/2003 PHX @ SAS W 1 1 0 0 - 0 0 - 1 2 50.0 0 1 1 0 0 0 0 0 2
p55
aVAnfernee Hardaway PHX 04/19/2003 PHX @ SAS W 47 11 4 11 36.4 2 5 40.0 1 2 50.0 0 6 6 3 1 1 2 6 11
p56
aVAmar'e Stoudemire PHX 04/19/2003 PHX @ SAS W 39 24 9 13 69.2 1 1 100.0 5 6 83.3 3 6 9 0 0 2 4 4 7
p57
a.