(lp0
VPLAYER TEAM DATE MATCHUP W/L MIN PTS FGM FGA FG% 3PM 3PA 3P% FTM FTA FT% OREB DREB REB AST STL BLK TOV PF +/-
p1
aVTamar Slay NJN 05/20/2004 NJN @ DET L 2 0 0 2 0.0 0 0 - 0 0 - 0 0 0 0 0 0 0 0 -2
p2
aVJason Kidd NJN 05/20/2004 NJN @ DET L 43 0 0 8 0.0 0 3 0.0 0 0 - 0 5 5 7 3 0 2 1 -19
p3
aVBrian Scalabrine NJN 05/20/2004 NJN @ DET L 5 0 0 2 0.0 0 1 0.0 0 0 - 0 2 2 0 0 0 0 2 -5
p4
aVLucious Harris NJN 05/20/2004 NJN @ DET L 13 0 0 0 - 0 0 - 0 0 - 0 2 2 0 0 0 1 1 2
p5
aVRodney Rogers NJN 05/20/2004 NJN @ DET L 29 13 4 13 30.8 2 4 50.0 3 4 75.0 0 7 7 2 0 1 1 2 -7
p6
aVRichard Jefferson NJN 05/20/2004 NJN @ DET L 40 17 5 12 41.7 1 4 25.0 6 12 50.0 1 6 7 3 0 1 5 3 -13
p7
aVKenyon Martin NJN 05/20/2004 NJN @ DET L 41 17 6 12 50.0 0 0 - 5 5 100.0 2 10 12 1 0 1 3 2 -26
p8
aVKerry Kittles NJN 05/20/2004 NJN @ DET L 34 18 7 15 46.7 0 4 0.0 4 4 100.0 0 1 1 1 3 0 1 2 -25
p9
aVAaron Williams NJN 05/20/2004 NJN @ DET L 6 2 1 1 100.0 0 0 - 0 0 - 0 0 0 0 0 1 1 3 -5
p10
aVBrandon Armstrong NJN 05/20/2004 NJN @ DET L 4 0 0 0 - 0 0 - 0 0 - 0 0 0 1 0 0 0 1 2
p11
aVJason Collins NJN 05/20/2004 NJN @ DET L 21 2 1 2 50.0 0 0 - 0 0 - 3 2 5 2 0 0 2 3 -5
p12
aVZoran Planinic NJN 05/20/2004 NJN @ DET L 2 0 0 0 - 0 0 - 0 0 - 0 0 0 0 0 0 0 0 -2
p13
aVRodney Rogers NJN 05/16/2004 NJN vs. DET L 5 2 1 4 25.0 0 0 - 0 0 - 1 1 2 0 1 0 0 3 -12
p14
aVAaron Williams NJN 05/16/2004 NJN vs. DET L 17 4 2 4 50.0 0 0 - 0 0 - 0 1 1 0 0 0 1 1 -11
p15
aVJason Collins NJN 05/16/2004 NJN vs. DET L 24 3 0 2 0.0 0 0 - 3 4 75.0 1 4 5 1 0 0 1 5 16
p16
aVKenyon Martin NJN 05/16/2004 NJN vs. DET L 44 19 7 18 38.9 0 1 0.0 5 7 71.4 2 5 7 1 1 1 1 3 0
p17
aVRichard Jefferson NJN 05/16/2004 NJN vs. DET L 43 23 7 16 43.8 0 3 0.0 9 10 90.0 2 5 7 5 4 2 5 3 2
p18
aVKerry Kittles NJN 05/16/2004 NJN vs. DET L 38 11 5 10 50.0 1 3 33.3 0 1 0.0 1 2 3 3 3 1 2 3 0
p19
aVBrian Scalabrine NJN 05/16/2004 NJN vs. DET L 10 0 0 0 - 0 0 - 0 0 - 0 0 0 0 1 0 0 2 -11
p20
aVLucious Harris NJN 05/16/2004 NJN vs. DET L 14 2 1 3 33.3 0 1 0.0 0 2 0.0 1 0 1 1 1 0 1 1 -11
p21
aVJason Kidd NJN 05/16/2004 NJN vs. DET L 45 11 4 11 36.4 1 6 16.7 2 2 100.0 1 4 5 8 3 0 3 2 -3
p22
aVRodney Rogers NJN 05/14/2004 NJN @ DET W 29 4 1 5 20.0 0 0 - 2 2 100.0 0 7 7 1 0 0 2 6 12
p23
aVJason Kidd NJN 05/14/2004 NJN @ DET W 57 16 4 14 28.6 1 6 16.7 7 9 77.8 1 5 6 8 3 2 3 1 8
p24
aVAaron Williams NJN 05/14/2004 NJN @ DET W 12 1 0 2 0.0 0 0 - 1 2 50.0 0 1 1 1 0 0 1 6 -2
p25
aVLucious Harris NJN 05/14/2004 NJN @ DET W 21 12 4 8 50.0 1 2 50.0 3 3 100.0 1 4 5 0 1 0 2 3 -4
p26
aVRichard Jefferson NJN 05/14/2004 NJN @ DET W 53 31 8 15 53.3 2 5 40.0 13 18 72.2 1 10 11 4 2 2 6 5 9
p27
aVKenyon Martin NJN 05/14/2004 NJN @ DET W 35 22 7 15 46.7 0 0 - 8 9 88.9 4 5 9 2 0 2 5 6 3
p28
aVKerry Kittles NJN 05/14/2004 NJN @ DET W 55 20 6 17 35.3 3 7 42.9 5 8 62.5 3 8 11 5 2 1 1 4 10
p29
aVJason Collins NJN 05/14/2004 NJN @ DET W 30 4 1 3 33.3 0 0 - 2 2 100.0 0 3 3 3 0 2 1 6 0
p30
aVBrian Scalabrine NJN 05/14/2004 NJN @ DET W 23 17 6 7 85.7 4 4 100.0 1 2 50.0 2 1 3 0 0 0 1 5 -1
p31
aVBrian Scalabrine NJN 05/11/2004 NJN vs. DET W 9 0 0 2 0.0 0 0 - 0 0 - 2 0 2 0 1 0 0 2 1
p32
aVZoran Planinic NJN 05/11/2004 NJN vs. DET W 2 0 0 1 0.0 0 0 - 0 0 - 0 0 0 1 0 0 1 0 -5
p33
aVBrandon Armstrong NJN 05/11/2004 NJN vs. DET W 5 0 0 1 0.0 0 0 - 0 0 - 0 0 0 0 0 0 0 2 -4
p34
aVRodney Rogers NJN 05/11/2004 NJN vs. DET W 16 8 3 8 37.5 0 1 0.0 2 2 100.0 3 3 6 1 0 0 1 5 5
p35
aVAaron Williams NJN 05/11/2004 NJN vs. DET W 15 2 0 2 0.0 0 0 - 2 2 100.0 0 1 1 0 0 0 0 5 3
p36
aVJason Collins NJN 05/11/2004 NJN vs. DET W 23 2 1 4 25.0 0 0 - 0 0 - 1 2 3 2 1 1 1 5 11
p37
aVTamar Slay NJN 05/11/2004 NJN vs. DET W 2 0 0 0 - 0 0 - 0 0 - 0 0 0 0 0 0 0 0 -5
p38
aVLucious Harris NJN 05/11/2004 NJN vs. DET W 16 11 5 8 62.5 0 2 0.0 1 1 100.0 2 1 3 1 0 0 0 1 7
p39
aVJason Kidd NJN 05/11/2004 NJN vs. DET W 39 22 8 15 53.3 1 3 33.3 5 7 71.4 4 6 10 11 2 1 6 2 19
p40
aVKenyon Martin NJN 05/11/2004 NJN vs. DET W 38 16 6 13 46.2 0 0 - 4 6 66.7 5 10 15 1 2 3 3 6 16
p41
aVKerry Kittles NJN 05/11/2004 NJN vs. DET W 33 14 6 11 54.5 2 6 33.3 0 2 0.0 0 2 2 5 0 1 1 5 13
p42
aVRichard Jefferson NJN 05/11/2004 NJN vs. DET W 42 19 6 15 40.0 1 3 33.3 6 8 75.0 3 4 7 2 1 0 2 0 14
p43
aVKenyon Martin NJN 05/09/2004 NJN vs. DET W 21 13 5 9 55.6 0 0 - 3 3 100.0 1 8 9 0 2 1 1 5 7
p44
aVBrandon Armstrong NJN 05/09/2004 NJN vs. DET W 1 2 1 1 100.0 0 0 - 0 0 - 0 0 0 0 0 0 0 0 2
p45
aVKerry Kittles NJN 05/09/2004 NJN vs. DET W 39 17 7 11 63.6 1 3 33.3 2 4 50.0 1 4 5 2 4 1 0 2 24
p46
aVAaron Williams NJN 05/09/2004 NJN vs. DET W 18 2 1 4 25.0 0 0 - 0 0 - 3 3 6 0 0 2 2 3 -7
p47
aVBrian Scalabrine NJN 05/09/2004 NJN vs. DET W 14 6 2 2 100.0 0 0 - 2 4 50.0 2 1 3 0 1 0 1 4 2
p48
aVJason Collins NJN 05/09/2004 NJN vs. DET W 27 2 0 4 0.0 0 0 - 2 2 100.0 1 5 6 1 1 2 1 4 27
p49
aVRodney Rogers NJN 05/09/2004 NJN vs. DET W 19 4 0 2 0.0 0 1 0.0 4 4 100.0 0 4 4 1 1 0 2 4 3
p50
aVZoran Planinic NJN 05/09/2004 NJN vs. DET W 1 0 0 1 0.0 0 1 0.0 0 0 - 0 0 0 1 0 0 0 0 2
p51
aVTamar Slay NJN 05/09/2004 NJN vs. DET W 1 0 0 0 - 0 0 - 0 0 - 0 0 0 0 1 0 0 0 2
p52
aVLucious Harris NJN 05/09/2004 NJN vs. DET W 16 1 0 3 0.0 0 0 - 1 2 50.0 0 0 0 0 0 0 0 2 -1
p53
aVJason Kidd NJN 05/09/2004 NJN vs. DET W 39 5 2 14 14.3 0 6 0.0 1 1 100.0 1 6 7 12 1 0 2 2 9
p54
aVRichard Jefferson NJN 05/09/2004 NJN vs. DET W 44 30 11 19 57.9 3 4 75.0 5 6 83.3 2 6 8 5 0 1 6 4 20
p55
aVRichard Jefferson NJN 05/07/2004 NJN @ DET L 41 19 5 13 38.5 0 2 0.0 9 11 81.8 1 5 6 3 0 0 4 3 -21
p56
aVLucious Harris NJN 05/07/2004 NJN @ DET L 15 4 2 5 40.0 0 1 0.0 0 0 - 1 0 1 1 0 0 0 2 7
p57
aVAaron Williams NJN 05/07/2004 NJN @ DET L 16 5 2 4 50.0 0 0 - 1 2 50.0 0 2 2 0 0 1 1 3 -7
p58
aVKerry Kittles NJN 05/07/2004 NJN @ DET L 39 6 2 9 22.2 1 4 25.0 1 2 50.0 1 2 3 1 1 2 3 2 -19
p59
aVRodney Rogers NJN 05/07/2004 NJN @ DET L 19 11 5 8 62.5 1 3 33.3 0 0 - 2 3 5 1 0 1 2 3 3
p60
aVJason Collins NJN 05/07/2004 NJN @ DET L 26 8 4 5 80.0 0 0 - 0 2 0.0 6 4 10 1 1 1 2 4 -2
p61
aVKenyon Martin NJN 05/07/2004 NJN @ DET L 42 19 8 15 53.3 0 0 - 3 4 75.0 3 5 8 0 0 0 4 6 -19
p62
aVJason Kidd NJN 05/07/2004 NJN @ DET L 44 8 3 13 23.1 1 5 20.0 1 2 50.0 1 6 7 11 2 0 4 2 -17
p63
aVJason Collins NJN 05/03/2004 NJN @ DET L 17 0 0 2 0.0 0 0 - 0 0 - 1 1 2 0 0 0 0 5 -2
p64
aVRichard Jefferson NJN 05/03/2004 NJN @ DET L 42 8 1 12 8.3 0 2 0.0 6 10 60.0 1 2 3 1 2 1 2 5 -20
p65
aVAaron Williams NJN 05/03/2004 NJN @ DET L 12 0 0 1 0.0 0 0 - 0 0 - 0 1 1 1 0 0 2 1 -8
p66
aVTamar Slay NJN 05/03/2004 NJN @ DET L 2 2 1 2 50.0 0 1 0.0 0 0 - 0 0 0 0 0 0 0 0 1
p67
aVBrandon Armstrong NJN 05/03/2004 NJN @ DET L 1 0 0 2 0.0 0 1 0.0 0 0 - 0 0 0 0 0 0 0 0 1
p68
aVJason Kidd NJN 05/03/2004 NJN @ DET L 44 9 4 13 30.8 1 5 20.0 0 0 - 0 7 7 6 2 0 3 0 -14
p69
aVRodney Rogers NJN 05/03/2004 NJN @ DET L 26 1 0 6 0.0 0 1 0.0 1 2 50.0 1 5 6 1 2 0 2 2 -15
p70
aVKerry Kittles NJN 05/03/2004 NJN @ DET L 31 15 5 13 38.5 3 6 50.0 2 2 100.0 0 1 1 2 0 1 0 4 -22
p71
aVBrian Scalabrine NJN 05/03/2004 NJN @ DET L 3 0 0 0 - 0 0 - 0 0 - 1 0 1 1 0 0 0 0 -4
p72
aVLucious Harris NJN 05/03/2004 NJN @ DET L 26 9 4 8 50.0 1 2 50.0 0 1 0.0 1 1 2 0 0 1 0 1 -15
p73
aVZoran Planinic NJN 05/03/2004 NJN @ DET L 3 1 0 0 - 0 0 - 1 2 50.0 0 1 1 0 0 0 0 0 -4
p74
aVKenyon Martin NJN 05/03/2004 NJN @ DET L 33 11 4 11 36.4 0 0 - 3 4 75.0 2 3 5 0 1 1 3 5 -8
p75
aVJason Kidd NJN 04/25/2004 NJN @ NYK W 42 20 5 10 50.0 0 1 0.0 10 11 90.9 1 7 8 7 1 0 4 0 6
p76
aVBrian Scalabrine NJN 04/25/2004 NJN @ NYK W 3 0 0 0 - 0 0 - 0 0 - 0 0 0 0 0 0 1 0 -8
p77
aVRichard Jefferson NJN 04/25/2004 NJN @ NYK W 39 13 5 11 45.5 0 2 0.0 3 6 50.0 0 3 3 1 1 0 2 3 5
p78
aVLucious Harris NJN 04/25/2004 NJN @ NYK W 13 4 0 3 0.0 0 0 - 4 4 100.0 0 1 1 1 2 0 0 1 4
p79
aVJason Collins NJN 04/25/2004 NJN @ NYK W 28 4 2 7 28.6 0 0 - 0 0 - 3 2 5 2 0 0 2 4 -4
p80
aVAaron Williams NJN 04/25/2004 NJN @ NYK W 9 4 2 3 66.7 0 0 - 0 1 0.0 2 2 4 0 0 1 1 5 2
p81
aVBrandon Armstrong NJN 04/25/2004 NJN @ NYK W 6 2 1 3 33.3 0 0 - 0 0 - 0 0 0 0 1 0 0 1 -2
p82
aVKerry Kittles NJN 04/25/2004 NJN @ NYK W 39 10 4 10 40.0 1 3 33.3 1 2 50.0 2 2 4 1 0 1 0 1 6
p83
aVRodney Rogers NJN 04/25/2004 NJN @ NYK W 19 7 2 7 28.6 0 3 0.0 3 4 75.0 0 5 5 2 0 0 3 1 3
p84
aVKenyon Martin NJN 04/25/2004 NJN @ NYK W 42 36 13 19 68.4 0 0 - 10 13 76.9 2 11 13 2 1 1 1 5 18
p85
aVKenyon Martin NJN 04/22/2004 NJN @ NYK W 43 19 9 13 69.2 0 1 0.0 1 4 25.0 1 14 15 1 3 1 4 5 9
p86
aVBrandon Armstrong NJN 04/22/2004 NJN @ NYK W 4 0 0 1 0.0 0 0 - 0 0 - 0 0 0 0 0 0 0 0 -8
p87
aVJason Collins NJN 04/22/2004 NJN @ NYK W 26 5 2 4 50.0 0 0 - 1 1 100.0 2 2 4 1 0 0 2 3 0
p88
aVKerry Kittles NJN 04/22/2004 NJN @ NYK W 40 11 5 13 38.5 1 5 20.0 0 0 - 1 7 8 0 2 1 2 4 3
p89
aVJason Kidd NJN 04/22/2004 NJN @ NYK W 43 19 3 9 33.3 2 5 40.0 11 14 78.6 2 5 7 8 4 2 5 2 6
p90
aVRodney Rogers NJN 04/22/2004 NJN @ NYK W 13 0 0 4 0.0 0 3 0.0 0 0 - 2 2 4 0 0 0 0 1 0
p91
aVRichard Jefferson NJN 04/22/2004 NJN @ NYK W 43 17 6 20 30.0 0 2 0.0 5 6 83.3 2 6 8 10 1 0 5 3 9
p92
aVLucious Harris NJN 04/22/2004 NJN @ NYK W 14 6 2 5 40.0 1 3 33.3 1 1 100.0 0 2 2 0 0 0 1 2 0
p93
aVAaron Williams NJN 04/22/2004 NJN @ NYK W 14 4 2 3 66.7 0 0 - 0 0 - 1 0 1 0 0 0 1 5 -4
p94
aVLucious Harris NJN 04/20/2004 NJN vs. NYK W 17 4 1 2 50.0 0 0 - 2 2 100.0 2 1 3 3 2 0 0 0 9
p95
aVJason Kidd NJN 04/20/2004 NJN vs. NYK W 39 15 6 11 54.5 1 5 20.0 2 3 66.7 2 4 6 8 2 1 6 1 18
p96
aVTamar Slay NJN 04/20/2004 NJN vs. NYK W 2 0 0 1 0.0 0 0 - 0 0 - 0 2 2 0 0 0 0 0 -4
p97
aVKerry Kittles NJN 04/20/2004 NJN vs. NYK W 31 16 6 11 54.5 2 4 50.0 2 4 50.0 1 4 5 3 3 1 1 1 10
p98
aVAaron Williams NJN 04/20/2004 NJN vs. NYK W 14 6 3 3 100.0 0 0 - 0 0 - 0 2 2 2 0 1 3 6 12
p99
aVRichard Jefferson NJN 04/20/2004 NJN vs. NYK W 38 20 6 13 46.2 2 4 50.0 6 10 60.0 0 4 4 4 1 0 3 1 8
p100
aVKenyon Martin NJN 04/20/2004 NJN vs. NYK W 35 22 9 16 56.3 0 2 0.0 4 5 80.0 2 14 16 3 3 2 4 4 18
p101
aVZoran Planinic NJN 04/20/2004 NJN vs. NYK W 4 0 0 0 - 0 0 - 0 0 - 0 0 0 0 0 0 0 1 0
p102
aVBrian Scalabrine NJN 04/20/2004 NJN vs. NYK W 2 0 0 1 0.0 0 0 - 0 0 - 0 0 0 0 0 0 1 0 -4
p103
aVRodney Rogers NJN 04/20/2004 NJN vs. NYK W 21 12 5 7 71.4 2 3 66.7 0 0 - 0 6 6 0 1 1 3 2 10
p104
aVBrandon Armstrong NJN 04/20/2004 NJN vs. NYK W 7 2 1 3 33.3 0 0 - 0 0 - 0 0 0 1 0 0 0 0 3
p105
aVJason Collins NJN 04/20/2004 NJN vs. NYK W 30 2 1 3 33.3 0 0 - 0 0 - 0 0 0 4 0 2 2 4 10
p106
aVKerry Kittles NJN 04/17/2004 NJN vs. NYK W 37 20 7 14 50.0 2 7 28.6 4 5 80.0 0 4 4 0 4 0 0 0 12
p107
aVLucious Harris NJN 04/17/2004 NJN vs. NYK W 17 2 0 4 0.0 0 1 0.0 2 2 100.0 2 0 2 3 1 0 0 2 8
p108
aVZoran Planinic NJN 04/17/2004 NJN vs. NYK W 3 0 0 0 - 0 0 - 0 0 - 0 0 0 0 0 0 1 1 3
p109
aVAaron Williams NJN 04/17/2004 NJN vs. NYK W 16 12 5 6 83.3 0 0 - 2 3 66.7 1 2 3 0 0 1 2 3 5
p110
aVJason Collins NJN 04/17/2004 NJN vs. NYK W 13 8 2 2 100.0 0 0 - 4 5 80.0 0 1 1 0 0 2 1 6 9
p111
aVBrian Scalabrine NJN 04/17/2004 NJN vs. NYK W 4 7 3 3 100.0 1 1 100.0 0 0 - 0 1 1 0 0 0 0 0 4
p112
aVRodney Rogers NJN 04/17/2004 NJN vs. NYK W 33 5 2 8 25.0 0 3 0.0 1 2 50.0 0 3 3 3 1 0 1 2 16
p113
aVBrandon Armstrong NJN 04/17/2004 NJN vs. NYK W 4 0 0 1 0.0 0 0 - 0 0 - 1 1 2 1 0 0 0 0 3
p114
aVRichard Jefferson NJN 04/17/2004 NJN vs. NYK W 35 21 6 12 50.0 0 2 0.0 9 11 81.8 1 4 5 4 2 1 3 5 10
p115
aVJason Kidd NJN 04/17/2004 NJN vs. NYK W 39 14 4 11 36.4 2 3 66.7 4 4 100.0 3 2 5 13 2 0 5 2 28
p116
aVKenyon Martin NJN 04/17/2004 NJN vs. NYK W 36 16 7 11 63.6 0 0 - 2 4 50.0 1 11 12 1 0 1 3 3 19
p117
aVTamar Slay NJN 04/17/2004 NJN vs. NYK W 3 2 0 0 - 0 0 - 2 2 100.0 0 0 0 0 0 0 0 0 3
p118
a.