(lp0
VPLAYER TEAM DATE MATCHUP W/L MIN PTS FGM FGA FG% 3PM 3PA 3P% FTM FTA FT% OREB DREB REB AST STL BLK TOV PF +/-
p1
aVToni Kukoc MIL 04/29/2004 MIL @ DET L 13 2 1 7 14.3 0 0 - 0 0 - 1 1 2 0 1 0 1 4 -11
p2
aVBrevin Knight MIL 04/29/2004 MIL @ DET L 16 3 1 4 25.0 0 0 - 1 2 50.0 0 0 0 4 3 0 1 0 1
p3
aVMichael Redd MIL 04/29/2004 MIL @ DET L 42 22 9 17 52.9 0 3 0.0 4 6 66.7 2 4 6 4 0 0 3 2 -10
p4
aVBrian Skinner MIL 04/29/2004 MIL @ DET L 20 4 1 3 33.3 0 0 - 2 2 100.0 1 3 4 0 1 1 1 0 -3
p5
aVDamon Jones MIL 04/29/2004 MIL @ DET L 32 5 2 6 33.3 1 3 33.3 0 0 - 0 1 1 6 0 0 3 3 -15
p6
aVJoe Smith MIL 04/29/2004 MIL @ DET L 41 16 6 15 40.0 0 0 - 4 4 100.0 5 3 8 2 0 2 2 5 -14
p7
aVKeith Van Horn MIL 04/29/2004 MIL @ DET L 34 11 5 10 50.0 1 3 33.3 0 0 - 2 10 12 1 2 0 1 5 -10
p8
aVDesmond Mason MIL 04/29/2004 MIL @ DET L 42 14 6 16 37.5 0 0 - 2 2 100.0 0 3 3 2 1 0 2 1 -8
p9
aVJoe Smith MIL 04/26/2004 MIL vs. DET L 39 17 8 13 61.5 0 0 - 1 1 100.0 7 5 12 0 1 0 1 3 -2
p10
aVToni Kukoc MIL 04/26/2004 MIL vs. DET L 22 15 6 8 75.0 1 2 50.0 2 2 100.0 0 0 0 1 0 0 1 1 -10
p11
aVDesmond Mason MIL 04/26/2004 MIL vs. DET L 32 8 3 12 25.0 0 1 0.0 2 2 100.0 2 3 5 2 1 1 2 4 -12
p12
aVKeith Van Horn MIL 04/26/2004 MIL vs. DET L 36 11 5 13 38.5 1 2 50.0 0 0 - 1 2 3 1 2 1 3 2 -19
p13
aVBrevin Knight MIL 04/26/2004 MIL vs. DET L 17 0 0 3 0.0 0 0 - 0 0 - 0 2 2 2 4 0 0 1 -13
p14
aVMichael Redd MIL 04/26/2004 MIL vs. DET L 35 12 5 19 26.3 1 4 25.0 1 3 33.3 1 4 5 2 0 0 4 2 -11
p15
aVBrian Skinner MIL 04/26/2004 MIL vs. DET L 15 8 3 4 75.0 0 0 - 2 6 33.3 3 3 6 0 0 0 2 0 -8
p16
aVErick Strickland MIL 04/26/2004 MIL vs. DET L 14 4 1 4 25.0 0 2 0.0 2 2 100.0 0 1 1 5 0 0 2 0 -11
p17
aVDamon Jones MIL 04/26/2004 MIL vs. DET L 30 17 6 6 100.0 3 3 100.0 2 2 100.0 1 3 4 10 2 0 1 1 1
p18
aVBrevin Knight MIL 04/24/2004 MIL vs. DET L 25 3 1 6 16.7 0 0 - 1 1 100.0 0 1 1 3 2 0 2 3 10
p19
aVToni Kukoc MIL 04/24/2004 MIL vs. DET L 24 2 1 7 14.3 0 5 0.0 0 2 0.0 0 1 1 3 1 0 0 1 -5
p20
aVJoe Smith MIL 04/24/2004 MIL vs. DET L 40 16 6 11 54.5 0 1 0.0 4 4 100.0 3 3 6 0 1 5 0 4 -17
p21
aVDamon Jones MIL 04/24/2004 MIL vs. DET L 32 14 5 11 45.5 4 8 50.0 0 0 - 0 6 6 7 1 0 0 4 -18
p22
aVBrian Skinner MIL 04/24/2004 MIL vs. DET L 16 4 2 5 40.0 0 0 - 0 0 - 1 4 5 0 0 1 0 4 1
p23
aVKeith Van Horn MIL 04/24/2004 MIL vs. DET L 16 8 2 6 33.3 1 2 50.0 3 4 75.0 1 1 2 1 2 0 2 4 1
p24
aVMichael Redd MIL 04/24/2004 MIL vs. DET L 45 19 8 20 40.0 1 5 20.0 2 3 66.7 1 5 6 5 0 0 1 5 -12
p25
aVDesmond Mason MIL 04/24/2004 MIL vs. DET L 42 19 5 15 33.3 0 0 - 9 12 75.0 1 8 9 3 2 0 2 3 -10
p26
aVJoe Smith MIL 04/21/2004 MIL @ DET W 31 11 4 11 36.4 0 0 - 3 4 75.0 7 6 13 0 2 2 1 1 7
p27
aVKeith Van Horn MIL 04/21/2004 MIL @ DET W 20 2 1 8 12.5 0 0 - 0 1 0.0 1 0 1 1 1 1 1 2 -1
p28
aVErick Strickland MIL 04/21/2004 MIL @ DET W 6 0 0 0 - 0 0 - 0 0 - 0 0 0 1 0 0 1 1 -4
p29
aVBrian Skinner MIL 04/21/2004 MIL @ DET W 24 5 2 3 66.7 0 0 - 1 4 25.0 1 3 4 0 0 0 1 2 0
p30
aVDesmond Mason MIL 04/21/2004 MIL @ DET W 43 15 5 16 31.3 0 1 0.0 5 6 83.3 0 4 4 5 0 0 3 4 20
p31
aVToni Kukoc MIL 04/21/2004 MIL @ DET W 26 15 7 8 87.5 1 2 50.0 0 0 - 3 6 9 0 1 1 3 3 1
p32
aVMichael Redd MIL 04/21/2004 MIL @ DET W 41 26 8 17 47.1 4 7 57.1 6 6 100.0 1 3 4 0 0 0 4 5 -1
p33
aVBrevin Knight MIL 04/21/2004 MIL @ DET W 27 11 3 7 42.9 0 0 - 5 6 83.3 2 5 7 5 2 1 2 2 1
p34
aVDamon Jones MIL 04/21/2004 MIL @ DET W 22 7 2 3 66.7 1 2 50.0 2 4 50.0 1 5 6 7 1 0 2 3 -3
p35
aVDaniel Santiago MIL 04/18/2004 MIL @ DET L 1 0 0 0 - 0 0 - 0 0 - 0 0 0 0 0 0 0 1 1
p36
aVBrevin Knight MIL 04/18/2004 MIL @ DET L 16 4 1 3 33.3 0 0 - 2 2 100.0 1 0 1 3 3 0 2 6 -13
p37
aVDan Gadzuric MIL 04/18/2004 MIL @ DET L 9 4 2 4 50.0 0 0 - 0 1 0.0 0 1 1 2 1 0 0 1 -5
p38
aVBrian Skinner MIL 04/18/2004 MIL @ DET L 19 6 3 6 50.0 0 0 - 0 0 - 2 1 3 0 0 1 3 2 -12
p39
aVToni Kukoc MIL 04/18/2004 MIL @ DET L 20 8 2 4 50.0 2 3 66.7 2 4 50.0 0 2 2 0 0 1 1 2 -8
p40
aVDamon Jones MIL 04/18/2004 MIL @ DET L 28 7 3 8 37.5 1 5 20.0 0 0 - 0 3 3 7 1 0 3 3 -12
p41
aVMarcus Haislip MIL 04/18/2004 MIL @ DET L 3 2 1 1 100.0 0 0 - 0 0 - 1 0 1 0 0 0 0 0 2
p42
aVErick Strickland MIL 04/18/2004 MIL @ DET L 21 10 4 8 50.0 0 3 0.0 2 2 100.0 0 4 4 3 2 0 0 2 -7
p43
aVJoe Smith MIL 04/18/2004 MIL @ DET L 24 6 3 5 60.0 0 0 - 0 0 - 1 10 11 0 0 1 2 2 -19
p44
aVMichael Redd MIL 04/18/2004 MIL @ DET L 29 11 4 10 40.0 0 1 0.0 3 3 100.0 1 3 4 2 0 0 7 2 -21
p45
aVKeith Van Horn MIL 04/18/2004 MIL @ DET L 31 8 3 11 27.3 1 4 25.0 1 1 100.0 0 5 5 3 0 1 3 2 -14
p46
aVDesmond Mason MIL 04/18/2004 MIL @ DET L 39 16 6 15 40.0 0 0 - 4 4 100.0 1 2 3 0 0 1 3 4 -22
p47
a.