(lp0
VPLAYER TEAM DATE MATCHUP W/L MIN PTS FGM FGA FG% 3PM 3PA 3P% FTM FTA FT% OREB DREB REB AST STL BLK TOV PF +/-
p1
aVMaurice Taylor HOU 04/28/2004 HOU @ LAL L 21 8 3 8 37.5 0 0 - 2 2 100.0 1 0 1 3 0 0 2 5 -28
p2
aVKelvin Cato HOU 04/28/2004 HOU @ LAL L 34 5 2 2 100.0 0 0 - 1 1 100.0 4 8 12 0 1 0 3 5 -8
p3
aVSteve Francis HOU 04/28/2004 HOU @ LAL L 40 16 5 15 33.3 0 3 0.0 6 6 100.0 1 8 9 5 1 0 4 3 -22
p4
aVBostjan Nachbar HOU 04/28/2004 HOU @ LAL L 14 4 1 1 100.0 0 0 - 2 2 100.0 0 2 2 1 0 0 0 2 -3
p5
aVYao Ming HOU 04/28/2004 HOU @ LAL L 32 10 3 10 30.0 0 0 - 4 5 80.0 1 4 5 0 2 4 3 3 -12
p6
aVJim Jackson HOU 04/28/2004 HOU @ LAL L 41 17 7 17 41.2 2 5 40.0 1 4 25.0 0 5 5 2 1 0 3 3 -7
p7
aVCuttino Mobley HOU 04/28/2004 HOU @ LAL L 37 16 6 12 50.0 3 6 50.0 1 2 50.0 1 1 2 0 1 1 4 3 -27
p8
aVMark Jackson HOU 04/28/2004 HOU @ LAL L 12 0 0 1 0.0 0 1 0.0 0 0 - 0 0 0 2 1 0 2 1 2
p9
aVMike Wilks HOU 04/28/2004 HOU @ LAL L 3 0 0 0 - 0 0 - 0 0 - 0 0 0 0 0 0 1 0 3
p10
aVScott Padgett HOU 04/28/2004 HOU @ LAL L 6 2 1 2 50.0 0 1 0.0 0 0 - 1 1 2 0 0 0 0 0 7
p11
aVSteve Francis HOU 04/25/2004 HOU vs. LAL L 52 17 6 14 42.9 1 4 25.0 4 6 66.7 0 5 5 9 2 0 5 6 -4
p12
aVMaurice Taylor HOU 04/25/2004 HOU vs. LAL L 26 6 2 6 33.3 0 0 - 2 2 100.0 0 2 2 1 0 1 3 3 -3
p13
aVKelvin Cato HOU 04/25/2004 HOU vs. LAL L 44 12 5 6 83.3 0 0 - 2 3 66.7 4 3 7 1 2 1 0 3 -5
p14
aVCuttino Mobley HOU 04/25/2004 HOU vs. LAL L 44 16 6 19 31.6 2 8 25.0 2 2 100.0 0 5 5 4 1 0 1 4 8
p15
aVEric Piatkowski HOU 04/25/2004 HOU vs. LAL L 4 0 0 1 0.0 0 0 - 0 0 - 0 1 1 0 0 0 0 1 -1
p16
aVBostjan Nachbar HOU 04/25/2004 HOU vs. LAL L 6 5 2 4 50.0 0 1 0.0 1 1 100.0 0 1 1 1 0 0 0 4 2
p17
aVMark Jackson HOU 04/25/2004 HOU vs. LAL L 4 0 0 1 0.0 0 1 0.0 0 0 - 0 0 0 1 0 0 0 0 -8
p18
aVJim Jackson HOU 04/25/2004 HOU vs. LAL L 50 16 6 13 46.2 1 7 14.3 3 3 100.0 1 19 20 1 1 1 4 1 -9
p19
aVScott Padgett HOU 04/25/2004 HOU vs. LAL L 1 0 0 1 0.0 0 1 0.0 0 0 - 0 0 0 0 0 0 0 0 0
p20
aVYao Ming HOU 04/25/2004 HOU vs. LAL L 34 16 7 15 46.7 0 0 - 2 2 100.0 3 4 7 1 0 0 3 6 0
p21
aVSteve Francis HOU 04/23/2004 HOU vs. LAL W 43 27 7 16 43.8 4 5 80.0 9 12 75.0 0 9 9 7 0 0 3 3 13
p22
aVJim Jackson HOU 04/23/2004 HOU vs. LAL W 39 11 4 11 36.4 3 6 50.0 0 0 - 1 9 10 5 0 0 0 2 6
p23
aVMark Jackson HOU 04/23/2004 HOU vs. LAL W 5 0 0 2 0.0 0 1 0.0 0 0 - 0 2 2 2 0 0 0 0 -2
p24
aVKelvin Cato HOU 04/23/2004 HOU vs. LAL W 27 4 2 2 100.0 0 0 - 0 2 0.0 3 5 8 0 1 1 0 2 10
p25
aVMaurice Taylor HOU 04/23/2004 HOU vs. LAL W 26 16 6 10 60.0 0 0 - 4 6 66.7 1 1 2 0 0 0 1 5 7
p26
aVYao Ming HOU 04/23/2004 HOU vs. LAL W 42 18 9 13 69.2 0 0 - 0 1 0.0 3 7 10 2 0 1 1 4 7
p27
aVBostjan Nachbar HOU 04/23/2004 HOU vs. LAL W 14 5 1 3 33.3 1 2 50.0 2 2 100.0 1 2 3 0 0 0 1 2 4
p28
aVCuttino Mobley HOU 04/23/2004 HOU vs. LAL W 44 21 8 20 40.0 1 2 50.0 4 4 100.0 1 4 5 5 0 0 5 0 10
p29
aVCuttino Mobley HOU 04/19/2004 HOU @ LAL L 41 9 4 11 36.4 0 2 0.0 1 2 50.0 2 3 5 2 0 0 1 4 -8
p30
aVMark Jackson HOU 04/19/2004 HOU @ LAL L 11 0 0 1 0.0 0 0 - 0 0 - 0 1 1 0 0 0 0 0 -5
p31
aVMike Wilks HOU 04/19/2004 HOU @ LAL L 2 0 0 0 - 0 0 - 0 0 - 0 0 0 1 0 0 0 0 2
p32
aVKelvin Cato HOU 04/19/2004 HOU @ LAL L 16 2 1 5 20.0 0 0 - 0 0 - 1 1 2 1 0 0 1 6 -16
p33
aVMaurice Taylor HOU 04/19/2004 HOU @ LAL L 26 8 3 7 42.9 0 0 - 2 4 50.0 1 6 7 0 0 0 1 2 -12
p34
aVClar. Weatherspoon HOU 04/19/2004 HOU @ LAL L 11 4 1 2 50.0 0 0 - 2 4 50.0 1 0 1 0 0 0 0 2 6
p35
aVYao Ming HOU 04/19/2004 HOU @ LAL L 40 21 8 19 42.1 0 0 - 5 7 71.4 1 3 4 3 0 1 4 1 -9
p36
aVJim Jackson HOU 04/19/2004 HOU @ LAL L 45 19 7 13 53.8 1 4 25.0 4 5 80.0 0 5 5 1 0 0 0 2 -13
p37
aVSteve Francis HOU 04/19/2004 HOU @ LAL L 44 18 6 11 54.5 1 3 33.3 5 8 62.5 3 7 10 12 3 1 2 3 -16
p38
aVBostjan Nachbar HOU 04/19/2004 HOU @ LAL L 2 0 0 0 - 0 0 - 0 0 - 0 0 0 0 1 0 1 1 -1
p39
aVScott Padgett HOU 04/19/2004 HOU @ LAL L 2 3 1 2 50.0 1 1 100.0 0 0 - 0 1 1 0 0 1 0 0 2
p40
aVCuttino Mobley HOU 04/17/2004 HOU @ LAL L 44 10 5 13 38.5 0 3 0.0 0 0 - 1 6 7 3 1 2 7 3 0
p41
aVScott Padgett HOU 04/17/2004 HOU @ LAL L 5 0 0 0 - 0 0 - 0 0 - 0 0 0 0 1 0 1 1 2
p42
aVJim Jackson HOU 04/17/2004 HOU @ LAL L 46 11 5 19 26.3 1 7 14.3 0 0 - 1 11 12 1 3 0 2 1 1
p43
aVYao Ming HOU 04/17/2004 HOU @ LAL L 37 10 4 11 36.4 0 0 - 2 2 100.0 3 8 11 3 0 1 2 6 -5
p44
aVMark Jackson HOU 04/17/2004 HOU @ LAL L 6 2 1 1 100.0 0 0 - 0 0 - 0 0 0 0 1 0 0 0 -7
p45
aVSteve Francis HOU 04/17/2004 HOU @ LAL L 43 18 6 14 42.9 1 2 50.0 5 8 62.5 2 7 9 5 1 0 7 3 4
p46
aVClar. Weatherspoon HOU 04/17/2004 HOU @ LAL L 11 3 1 3 33.3 0 0 - 1 2 50.0 1 2 3 0 0 0 0 1 -6
p47
aVBostjan Nachbar HOU 04/17/2004 HOU @ LAL L 5 0 0 1 0.0 0 0 - 0 0 - 0 0 0 0 0 0 0 0 -1
p48
aVKelvin Cato HOU 04/17/2004 HOU @ LAL L 27 6 3 7 42.9 0 0 - 0 1 0.0 2 3 5 0 1 2 1 2 7
p49
aVMaurice Taylor HOU 04/17/2004 HOU @ LAL L 16 11 4 7 57.1 0 0 - 3 3 100.0 2 2 4 1 0 0 0 5 0
p50
a.