(lp0
VPLAYER TEAM DATE MATCHUP W/L MIN PTS FGM FGA FG% 3PM 3PA 3P% FTM FTA FT% OREB DREB REB AST STL BLK TOV PF +/-
p1
aVBrandon Hunter BOS 04/25/2004 BOS vs. IND L 1 0 0 0 - 0 0 - 0 0 - 0 1 1 1 0 0 0 0 2
p2
aVRicky Davis BOS 04/25/2004 BOS vs. IND L 27 5 2 6 33.3 1 2 50.0 0 1 0.0 1 1 2 2 0 0 6 1 0
p3
aVJiri Welsch BOS 04/25/2004 BOS vs. IND L 22 6 3 4 75.0 0 0 - 0 0 - 0 1 1 1 0 0 4 1 -16
p4
aVMarcus Banks BOS 04/25/2004 BOS vs. IND L 23 9 3 8 37.5 1 3 33.3 2 2 100.0 0 1 1 4 1 0 2 3 -1
p5
aVPaul Pierce BOS 04/25/2004 BOS vs. IND L 47 27 10 23 43.5 3 8 37.5 4 4 100.0 1 10 11 1 2 2 6 2 -14
p6
aVWalter McCarty BOS 04/25/2004 BOS vs. IND L 27 0 0 2 0.0 0 2 0.0 0 0 - 0 2 2 5 1 0 1 1 -16
p7
aVChris Mihm BOS 04/25/2004 BOS vs. IND L 25 5 1 6 16.7 0 0 - 3 4 75.0 2 6 8 0 1 1 1 6 -12
p8
aVMark Blount BOS 04/25/2004 BOS vs. IND L 43 21 7 12 58.3 0 0 - 7 7 100.0 4 9 13 1 0 2 3 5 -4
p9
aVChucky Atkins BOS 04/25/2004 BOS vs. IND L 25 2 1 6 16.7 0 2 0.0 0 0 - 2 5 7 3 0 0 3 0 -14
p10
aVJiri Welsch BOS 04/23/2004 BOS vs. IND L 21 11 2 4 50.0 1 1 100.0 6 6 100.0 0 2 2 3 1 0 2 1 -11
p11
aVMark Blount BOS 04/23/2004 BOS vs. IND L 34 11 5 10 50.0 0 0 - 1 4 25.0 2 6 8 1 3 2 1 3 -18
p12
aVBrandon Hunter BOS 04/23/2004 BOS vs. IND L 3 0 0 0 - 0 0 - 0 0 - 1 0 1 0 0 1 1 0 0
p13
aVJumaine Jones BOS 04/23/2004 BOS vs. IND L 16 4 2 5 40.0 0 1 0.0 0 0 - 1 1 2 0 0 0 0 2 -18
p14
aVChucky Atkins BOS 04/23/2004 BOS vs. IND L 34 12 4 7 57.1 0 2 0.0 4 4 100.0 0 2 2 2 0 0 2 0 -15
p15
aVWalter McCarty BOS 04/23/2004 BOS vs. IND L 32 11 5 11 45.5 1 6 16.7 0 0 - 2 4 6 2 1 1 0 3 -4
p16
aVRicky Davis BOS 04/23/2004 BOS vs. IND L 35 16 5 12 41.7 0 0 - 6 8 75.0 2 4 6 7 0 0 4 3 -14
p17
aVChris Mihm BOS 04/23/2004 BOS vs. IND L 14 6 3 7 42.9 0 0 - 0 0 - 2 3 5 0 1 2 1 1 -5
p18
aVMarcus Banks BOS 04/23/2004 BOS vs. IND L 14 5 2 3 66.7 1 2 50.0 0 0 - 0 3 3 1 0 1 1 3 -8
p19
aVPaul Pierce BOS 04/23/2004 BOS vs. IND L 37 9 4 17 23.5 0 2 0.0 1 1 100.0 0 7 7 4 0 0 4 3 -22
p20
aVChucky Atkins BOS 04/20/2004 BOS @ IND L 39 21 6 14 42.9 0 2 0.0 9 9 100.0 1 4 5 6 2 0 1 2 -4
p21
aVMarcus Banks BOS 04/20/2004 BOS @ IND L 9 4 1 2 50.0 0 0 - 2 2 100.0 0 1 1 1 0 0 0 2 -10
p22
aVJumaine Jones BOS 04/20/2004 BOS @ IND L 12 0 0 1 0.0 0 1 0.0 0 0 - 0 3 3 2 0 0 0 2 -13
p23
aVJiri Welsch BOS 04/20/2004 BOS @ IND L 31 9 3 8 37.5 0 2 0.0 3 3 100.0 0 3 3 1 1 0 1 2 -16
p24
aVRicky Davis BOS 04/20/2004 BOS @ IND L 29 7 3 10 30.0 1 5 20.0 0 0 - 0 3 3 3 1 0 2 3 -2
p25
aVMark Blount BOS 04/20/2004 BOS @ IND L 42 10 3 7 42.9 0 0 - 4 6 66.7 2 8 10 2 3 3 3 4 -3
p26
aVPaul Pierce BOS 04/20/2004 BOS @ IND L 35 27 7 18 38.9 0 2 0.0 13 16 81.3 2 5 7 1 0 1 7 4 -12
p27
aVChris Mihm BOS 04/20/2004 BOS @ IND L 4 0 0 0 - 0 0 - 0 2 0.0 0 0 0 0 0 0 0 0 -7
p28
aVWalter McCarty BOS 04/20/2004 BOS @ IND L 39 12 4 7 57.1 4 6 66.7 0 0 - 0 6 6 1 0 1 1 2 -3
p29
aVJiri Welsch BOS 04/17/2004 BOS @ IND L 30 6 3 7 42.9 0 1 0.0 0 0 - 0 6 6 4 0 0 1 3 -15
p30
aVChris Mihm BOS 04/17/2004 BOS @ IND L 22 9 3 9 33.3 0 0 - 3 4 75.0 4 1 5 0 2 1 1 5 -1
p31
aVRicky Davis BOS 04/17/2004 BOS @ IND L 32 19 6 12 50.0 2 3 66.7 5 7 71.4 0 1 1 2 1 0 0 0 -3
p32
aVMichael Stewart BOS 04/17/2004 BOS @ IND L 2 0 0 0 - 0 0 - 0 0 - 0 0 0 0 0 0 0 2 -6
p33
aVBrandon Hunter BOS 04/17/2004 BOS @ IND L 6 2 1 1 100.0 0 0 - 0 0 - 1 0 1 0 0 0 0 2 -13
p34
aVPaul Pierce BOS 04/17/2004 BOS @ IND L 43 20 5 18 27.8 2 5 40.0 8 10 80.0 3 7 10 4 3 1 8 3 -8
p35
aVWalter McCarty BOS 04/17/2004 BOS @ IND L 29 5 2 3 66.7 1 1 100.0 0 0 - 1 6 7 0 0 0 2 1 -8
p36
aVMark Blount BOS 04/17/2004 BOS @ IND L 26 6 2 6 33.3 0 0 - 2 2 100.0 2 4 6 0 0 1 2 5 -12
p37
aVChucky Atkins BOS 04/17/2004 BOS @ IND L 35 19 6 12 50.0 3 4 75.0 4 6 66.7 0 0 0 4 1 0 4 0 -13
p38
aVMarcus Banks BOS 04/17/2004 BOS @ IND L 14 2 1 3 33.3 0 0 - 0 0 - 1 1 2 1 1 0 0 1 -3
p39
aVDana Barros BOS 04/17/2004 BOS @ IND L 1 0 0 1 0.0 0 0 - 0 0 - 0 0 0 0 0 0 0 0 2
p40
a.