(lp0
VPLAYER TEAM DATE MATCHUP W/L MIN PTS FGM FGA FG% 3PM 3PA 3P% FTM FTA FT% OREB DREB REB AST STL BLK TOV PF +/-
p1
aVFred Jones IND 06/01/2004 IND @ DET L 14 2 1 1 100.0 0 0 - 0 0 - 0 2 2 1 0 0 0 3 1
p2
aVReggie Miller IND 06/01/2004 IND @ DET L 28 6 2 8 25.0 2 7 28.6 0 1 0.0 0 3 3 2 2 1 1 2 1
p3
aVAl Harrington IND 06/01/2004 IND @ DET L 29 4 2 6 33.3 0 0 - 0 0 - 0 4 4 0 1 0 1 4 -3
p4
aVJermaine O'Neal IND 06/01/2004 IND @ DET L 41 20 8 19 42.1 0 0 - 4 4 100.0 0 10 10 1 0 3 3 1 -2
p5
aVJamaal Tinsley IND 06/01/2004 IND @ DET L 3 0 0 1 0.0 0 0 - 0 0 - 0 1 1 1 0 0 0 1 1
p6
aVMetta World Peace IND 06/01/2004 IND @ DET L 43 11 4 13 30.8 2 7 28.6 1 2 50.0 0 10 10 5 2 0 2 3 -2
p7
aVJeff Foster IND 06/01/2004 IND @ DET L 2 0 0 0 - 0 0 - 0 0 - 0 0 0 0 0 0 0 0 -1
p8
aVAnthony Johnson IND 06/01/2004 IND @ DET L 37 9 3 9 33.3 1 3 33.3 2 2 100.0 3 0 3 7 1 0 0 1 4
p9
aVKenny Anderson IND 06/01/2004 IND @ DET L 6 0 0 1 0.0 0 0 - 0 0 - 0 0 0 0 1 0 3 1 -7
p10
aVJonathan Bender IND 06/01/2004 IND @ DET L 11 1 0 2 0.0 0 2 0.0 1 2 50.0 0 1 1 0 0 3 2 2 -8
p11
aVAustin Croshere IND 06/01/2004 IND @ DET L 26 12 4 6 66.7 1 2 50.0 3 4 75.0 3 4 7 0 0 0 1 2 -4
p12
aVReggie Miller IND 05/30/2004 IND vs. DET L 26 5 2 5 40.0 0 1 0.0 1 2 50.0 1 3 4 3 2 1 2 2 -17
p13
aVJeff Foster IND 05/30/2004 IND vs. DET L 4 0 0 1 0.0 0 0 - 0 0 - 1 1 2 0 0 0 0 0 0
p14
aVMetta World Peace IND 05/30/2004 IND vs. DET L 38 13 4 15 26.7 1 5 20.0 4 6 66.7 2 9 11 3 1 1 0 3 -15
p15
aVAl Harrington IND 05/30/2004 IND vs. DET L 23 9 4 11 36.4 0 0 - 1 2 50.0 2 3 5 1 0 0 0 2 -2
p16
aVAnthony Johnson IND 05/30/2004 IND vs. DET L 21 4 2 6 33.3 0 3 0.0 0 0 - 0 3 3 4 2 1 1 2 -3
p17
aVJonathan Bender IND 05/30/2004 IND vs. DET L 4 0 0 0 - 0 0 - 0 0 - 0 0 0 0 0 2 2 0 1
p18
aVJamaal Tinsley IND 05/30/2004 IND vs. DET L 27 8 3 13 23.1 0 5 0.0 2 2 100.0 0 3 3 5 1 1 1 3 -15
p19
aVFred Jones IND 05/30/2004 IND vs. DET L 26 13 5 8 62.5 3 4 75.0 0 0 - 1 2 3 0 1 2 1 2 -3
p20
aVAustin Croshere IND 05/30/2004 IND vs. DET L 33 2 0 7 0.0 0 3 0.0 2 2 100.0 2 3 5 2 2 1 2 1 -14
p21
aVJermaine O'Neal IND 05/30/2004 IND vs. DET L 38 11 5 10 50.0 0 0 - 1 4 25.0 2 4 6 1 0 3 1 5 -22
p22
aVReggie Miller IND 05/28/2004 IND @ DET W 31 15 6 7 85.7 3 4 75.0 0 0 - 0 1 1 3 0 0 1 2 13
p23
aVAustin Croshere IND 05/28/2004 IND @ DET W 30 14 5 8 62.5 3 4 75.0 1 2 50.0 0 3 3 1 0 1 1 1 16
p24
aVJermaine O'Neal IND 05/28/2004 IND @ DET W 38 12 5 11 45.5 0 0 - 2 2 100.0 3 10 13 0 1 4 1 5 22
p25
aVMetta World Peace IND 05/28/2004 IND @ DET W 39 20 8 19 42.1 2 5 40.0 2 4 50.0 1 9 10 4 2 1 2 2 10
p26
aVFred Jones IND 05/28/2004 IND @ DET W 18 0 0 4 0.0 0 1 0.0 0 0 - 0 2 2 0 1 0 1 4 2
p27
aVJeff Foster IND 05/28/2004 IND @ DET W 3 0 0 0 - 0 0 - 0 0 - 0 1 1 0 1 0 0 1 -5
p28
aVAl Harrington IND 05/28/2004 IND @ DET W 23 8 2 6 33.3 0 1 0.0 4 4 100.0 0 4 4 0 1 0 1 4 -3
p29
aVJamaal Tinsley IND 05/28/2004 IND @ DET W 20 4 2 5 40.0 0 0 - 0 0 - 0 2 2 5 0 0 3 3 14
p30
aVKenny Anderson IND 05/28/2004 IND @ DET W 3 0 0 1 0.0 0 0 - 0 0 - 0 0 0 0 0 0 0 1 -6
p31
aVAnthony Johnson IND 05/28/2004 IND @ DET W 26 6 2 4 50.0 0 0 - 2 2 100.0 0 4 4 2 0 0 1 4 7
p32
aVJonathan Bender IND 05/28/2004 IND @ DET W 9 4 2 5 40.0 0 1 0.0 0 0 - 1 0 1 0 0 0 0 0 5
p33
aVJamaal Tinsley IND 05/26/2004 IND @ DET L 30 12 4 11 36.4 1 4 25.0 3 4 75.0 0 1 1 4 2 0 3 6 -13
p34
aVAustin Croshere IND 05/26/2004 IND @ DET L 21 6 2 7 28.6 1 1 100.0 1 2 50.0 2 5 7 2 0 0 0 6 16
p35
aVAl Harrington IND 05/26/2004 IND @ DET L 27 13 5 12 41.7 1 2 50.0 2 2 100.0 1 2 3 1 2 1 3 4 -5
p36
aVJonathan Bender IND 05/26/2004 IND @ DET L 5 3 1 1 100.0 1 1 100.0 0 0 - 0 0 0 0 0 0 0 2 -6
p37
aVJermaine O'Neal IND 05/26/2004 IND @ DET L 42 24 7 17 41.2 0 1 0.0 10 11 90.9 1 8 9 2 0 1 3 3 -13
p38
aVFred Jones IND 05/26/2004 IND @ DET L 15 2 1 3 33.3 0 1 0.0 0 0 - 0 2 2 0 1 0 1 2 6
p39
aVMetta World Peace IND 05/26/2004 IND @ DET L 37 13 4 13 30.8 0 5 0.0 5 6 83.3 2 3 5 1 3 1 1 5 -13
p40
aVJeff Foster IND 05/26/2004 IND @ DET L 14 0 0 1 0.0 0 0 - 0 0 - 2 3 5 0 0 0 1 1 -4
p41
aVAnthony Johnson IND 05/26/2004 IND @ DET L 18 2 0 3 0.0 0 1 0.0 2 2 100.0 2 1 3 1 2 1 0 0 7
p42
aVReggie Miller IND 05/26/2004 IND @ DET L 31 3 1 4 25.0 1 3 33.3 0 0 - 0 2 2 1 0 0 1 2 -5
p43
aVJeff Foster IND 05/24/2004 IND vs. DET L 28 2 1 2 50.0 0 0 - 0 0 - 4 5 9 1 2 1 0 3 -6
p44
aVReggie Miller IND 05/24/2004 IND vs. DET L 34 21 5 13 38.5 1 6 16.7 10 10 100.0 2 4 6 1 0 0 4 2 -3
p45
aVAnthony Johnson IND 05/24/2004 IND vs. DET L 30 6 2 7 28.6 1 2 50.0 1 2 50.0 1 2 3 4 1 0 2 4 -3
p46
aVJermaine O'Neal IND 05/24/2004 IND vs. DET L 39 16 6 18 33.3 0 1 0.0 4 4 100.0 1 7 8 0 0 2 2 3 -3
p47
aVMetta World Peace IND 05/24/2004 IND vs. DET L 40 13 5 21 23.8 0 4 0.0 3 4 75.0 1 6 7 0 1 0 4 6 1
p48
aVJonathan Bender IND 05/24/2004 IND vs. DET L 14 3 1 4 25.0 1 2 50.0 0 0 - 0 2 2 1 0 2 2 2 -3
p49
aVAustin Croshere IND 05/24/2004 IND vs. DET L 13 2 0 3 0.0 0 1 0.0 2 2 100.0 1 4 5 0 0 0 0 0 0
p50
aVAl Harrington IND 05/24/2004 IND vs. DET L 19 0 0 4 0.0 0 0 - 0 2 0.0 3 4 7 0 0 0 0 3 -4
p51
aVJamaal Tinsley IND 05/24/2004 IND vs. DET L 18 4 2 7 28.6 0 3 0.0 0 0 - 1 2 3 1 1 1 2 6 -2
p52
aVFred Jones IND 05/24/2004 IND vs. DET L 4 0 0 1 0.0 0 1 0.0 0 0 - 0 1 1 0 0 1 0 1 -2
p53
aVMetta World Peace IND 05/22/2004 IND vs. DET W 43 17 6 23 26.1 1 5 20.0 4 5 80.0 4 3 7 1 3 3 1 1 1
p54
aVReggie Miller IND 05/22/2004 IND vs. DET W 32 6 1 7 14.3 1 3 33.3 3 4 75.0 0 3 3 4 0 0 0 1 11
p55
aVJeff Foster IND 05/22/2004 IND vs. DET W 26 2 1 4 25.0 0 0 - 0 0 - 4 4 8 0 1 2 0 2 -1
p56
aVAnthony Johnson IND 05/22/2004 IND vs. DET W 15 0 0 1 0.0 0 0 - 0 0 - 0 0 0 2 1 0 0 2 -7
p57
aVAustin Croshere IND 05/22/2004 IND vs. DET W 7 0 0 1 0.0 0 1 0.0 0 0 - 0 0 0 0 0 0 0 0 -5
p58
aVAl Harrington IND 05/22/2004 IND vs. DET W 25 14 6 12 50.0 0 0 - 2 3 66.7 3 5 8 0 3 0 2 3 10
p59
aVJamaal Tinsley IND 05/22/2004 IND vs. DET W 33 13 5 12 41.7 1 5 20.0 2 2 100.0 0 1 1 5 4 0 3 4 11
p60
aVJermaine O'Neal IND 05/22/2004 IND vs. DET W 41 21 7 20 35.0 0 0 - 7 9 77.8 5 9 14 1 0 2 2 1 9
p61
aVFred Jones IND 05/22/2004 IND vs. DET W 4 0 0 0 - 0 0 - 0 0 - 0 0 0 0 0 0 0 2 -8
p62
aVJonathan Bender IND 05/22/2004 IND vs. DET W 14 5 2 3 66.7 1 1 100.0 0 0 - 0 0 0 1 0 0 2 3 -1
p63
aVMetta World Peace IND 05/18/2004 IND @ MIA W 42 27 8 15 53.3 1 3 33.3 10 15 66.7 2 4 6 1 0 3 5 2 3
p64
aVJeff Foster IND 05/18/2004 IND @ MIA W 27 2 1 2 50.0 0 0 - 0 0 - 1 6 7 1 0 0 2 3 -7
p65
aVJamaal Tinsley IND 05/18/2004 IND @ MIA W 31 10 4 14 28.6 0 5 0.0 2 2 100.0 2 4 6 3 3 0 4 3 2
p66
aVAl Harrington IND 05/18/2004 IND @ MIA W 26 7 2 5 40.0 0 0 - 3 4 75.0 1 4 5 0 0 1 1 3 2
p67
aVAustin Croshere IND 05/18/2004 IND @ MIA W 5 0 0 2 0.0 0 0 - 0 0 - 1 0 1 0 0 0 0 0 5
p68
aVJermaine O'Neal IND 05/18/2004 IND @ MIA W 37 7 2 10 20.0 0 0 - 3 4 75.0 3 10 13 1 0 3 2 4 4
p69
aVAnthony Johnson IND 05/18/2004 IND @ MIA W 17 2 0 3 0.0 0 0 - 2 2 100.0 0 4 4 2 0 0 1 1 3
p70
aVReggie Miller IND 05/18/2004 IND @ MIA W 35 15 4 10 40.0 1 5 20.0 6 6 100.0 0 6 6 2 1 0 3 2 0
p71
aVJonathan Bender IND 05/18/2004 IND @ MIA W 20 3 1 7 14.3 1 2 50.0 0 0 - 1 4 5 0 0 1 0 0 3
p72
aVReggie Miller IND 05/15/2004 IND vs. MIA W 34 13 3 4 75.0 1 1 100.0 6 6 100.0 0 3 3 5 2 1 0 1 26
p73
aVMetta World Peace IND 05/15/2004 IND vs. MIA W 41 14 5 12 41.7 2 3 66.7 2 3 66.7 0 3 3 6 0 0 4 4 3
p74
aVAnthony Johnson IND 05/15/2004 IND vs. MIA W 18 3 1 3 33.3 1 2 50.0 0 0 - 0 0 0 3 1 1 0 2 -3
p75
aVJermaine O'Neal IND 05/15/2004 IND vs. MIA W 35 22 10 18 55.6 0 0 - 2 5 40.0 1 7 8 1 0 1 2 2 24
p76
aVAl Harrington IND 05/15/2004 IND vs. MIA W 21 7 2 7 28.6 0 0 - 3 6 50.0 3 4 7 0 0 0 3 4 -11
p77
aVAustin Croshere IND 05/15/2004 IND vs. MIA W 6 3 1 2 50.0 0 0 - 1 1 100.0 0 0 0 0 1 0 0 0 -3
p78
aVJeff Foster IND 05/15/2004 IND vs. MIA W 35 20 9 10 90.0 0 0 - 2 2 100.0 7 9 16 1 1 0 3 3 12
p79
aVJamaal Tinsley IND 05/15/2004 IND vs. MIA W 31 7 3 9 33.3 0 3 0.0 1 1 100.0 1 5 6 8 3 0 3 4 8
p80
aVJonathan Bender IND 05/15/2004 IND vs. MIA W 19 5 2 5 40.0 1 3 33.3 0 0 - 1 3 4 3 0 0 1 1 -1
p81
aVJeff Foster IND 05/12/2004 IND @ MIA L 16 1 0 2 0.0 0 1 0.0 1 2 50.0 2 2 4 2 0 0 2 4 -5
p82
aVJonathan Bender IND 05/12/2004 IND @ MIA L 2 0 0 0 - 0 0 - 0 0 - 0 0 0 0 0 0 0 0 -1
p83
aVAnthony Johnson IND 05/12/2004 IND @ MIA L 16 4 2 4 50.0 0 1 0.0 0 0 - 0 2 2 0 0 0 1 3 -10
p84
aVAl Harrington IND 05/12/2004 IND @ MIA L 22 4 2 5 40.0 0 1 0.0 0 2 0.0 1 1 2 2 1 0 0 3 -4
p85
aVJamaal Tinsley IND 05/12/2004 IND @ MIA L 32 4 1 5 20.0 0 3 0.0 2 2 100.0 0 8 8 5 3 0 1 4 -2
p86
aVFred Jones IND 05/12/2004 IND @ MIA L 13 0 0 1 0.0 0 1 0.0 0 0 - 0 3 3 0 0 0 0 1 -1
p87
aVJermaine O'Neal IND 05/12/2004 IND @ MIA L 39 37 14 24 58.3 0 0 - 9 12 75.0 2 4 6 0 1 1 2 5 -11
p88
aVReggie Miller IND 05/12/2004 IND @ MIA L 37 3 0 5 0.0 0 4 0.0 3 4 75.0 0 1 1 3 0 0 1 2 -12
p89
aVAustin Croshere IND 05/12/2004 IND @ MIA L 19 7 2 5 40.0 1 3 33.3 2 2 100.0 1 2 3 2 0 0 0 2 -8
p90
aVMetta World Peace IND 05/12/2004 IND @ MIA L 44 28 12 22 54.5 2 2 100.0 2 2 100.0 6 2 8 1 2 2 3 4 -6
p91
aVJonathan Bender IND 05/10/2004 IND @ MIA L 9 4 1 4 25.0 0 2 0.0 2 2 100.0 1 0 1 0 0 0 0 0 -3
p92
aVMetta World Peace IND 05/10/2004 IND @ MIA L 39 14 4 18 22.2 2 7 28.6 4 7 57.1 2 4 6 4 3 0 3 6 -1
p93
aVJermaine O'Neal IND 05/10/2004 IND @ MIA L 42 29 9 21 42.9 0 1 0.0 11 16 68.8 1 8 9 2 0 4 0 5 -2
p94
aVJeff Foster IND 05/10/2004 IND @ MIA L 26 3 1 2 50.0 0 0 - 1 2 50.0 4 4 8 2 0 0 2 2 -13
p95
aVJamaal Tinsley IND 05/10/2004 IND @ MIA L 31 16 6 8 75.0 4 5 80.0 0 0 - 0 3 3 5 0 0 2 5 3
p96
aVAl Harrington IND 05/10/2004 IND @ MIA L 28 13 5 12 41.7 1 1 100.0 2 4 50.0 1 2 3 1 1 1 2 6 1
p97
aVReggie Miller IND 05/10/2004 IND @ MIA L 26 4 1 2 50.0 1 2 50.0 1 1 100.0 0 0 0 2 2 0 2 1 -7
p98
aVAnthony Johnson IND 05/10/2004 IND @ MIA L 17 3 1 3 33.3 1 1 100.0 0 0 - 1 1 2 0 0 0 1 3 -13
p99
aVFred Jones IND 05/10/2004 IND @ MIA L 22 1 0 2 0.0 0 1 0.0 1 2 50.0 0 3 3 1 1 0 0 1 0
p100
aVKenny Anderson IND 05/08/2004 IND vs. MIA W 4 0 0 1 0.0 0 0 - 0 0 - 0 0 0 0 0 0 1 1 -11
p101
aVJonathan Bender IND 05/08/2004 IND vs. MIA W 16 5 2 4 50.0 0 1 0.0 1 2 50.0 1 1 2 0 0 0 1 1 0
p102
aVJermaine O'Neal IND 05/08/2004 IND vs. MIA W 29 17 5 15 33.3 0 0 - 7 11 63.6 3 6 9 1 0 2 1 5 6
p103
aVAustin Croshere IND 05/08/2004 IND vs. MIA W 14 3 1 4 25.0 1 4 25.0 0 0 - 0 1 1 2 0 0 1 2 0
p104
aVJamaal Tinsley IND 05/08/2004 IND vs. MIA W 26 1 0 1 0.0 0 1 0.0 1 1 100.0 0 2 2 9 3 0 0 2 13
p105
aVAnthony Johnson IND 05/08/2004 IND vs. MIA W 22 9 4 5 80.0 0 1 0.0 1 4 25.0 0 2 2 2 1 0 0 1 1
p106
aVReggie Miller IND 05/08/2004 IND vs. MIA W 18 19 6 10 60.0 3 6 50.0 4 4 100.0 0 0 0 0 1 0 1 1 6
p107
aVAl Harrington IND 05/08/2004 IND vs. MIA W 34 8 3 6 50.0 0 0 - 2 5 40.0 2 7 9 0 0 1 6 4 15
p108
aVMetta World Peace IND 05/08/2004 IND vs. MIA W 35 20 8 16 50.0 1 3 33.3 3 5 60.0 0 4 4 5 1 3 3 2 15
p109
aVFred Jones IND 05/08/2004 IND vs. MIA W 23 8 2 2 100.0 2 2 100.0 2 2 100.0 0 1 1 2 1 1 2 1 11
p110
aVScot Pollard IND 05/08/2004 IND vs. MIA W 6 1 0 1 0.0 0 0 - 1 2 50.0 0 3 3 0 0 0 0 1 -6
p111
aVJeff Foster IND 05/08/2004 IND vs. MIA W 13 0 0 0 - 0 0 - 0 0 - 1 4 5 0 0 0 0 1 5
p112
aVJonathan Bender IND 05/06/2004 IND vs. MIA W 10 4 2 4 50.0 0 1 0.0 0 0 - 0 1 1 0 0 2 1 0 -6
p113
aVFred Jones IND 05/06/2004 IND vs. MIA W 20 7 2 4 50.0 1 2 50.0 2 2 100.0 0 2 2 2 0 1 0 2 -3
p114
aVMetta World Peace IND 05/06/2004 IND vs. MIA W 39 25 7 17 41.2 1 4 25.0 10 13 76.9 2 4 6 4 0 0 2 3 21
p115
aVAl Harrington IND 05/06/2004 IND vs. MIA W 25 7 3 7 42.9 0 0 - 1 4 25.0 1 5 6 0 1 3 1 4 -3
p116
aVJermaine O'Neal IND 05/06/2004 IND vs. MIA W 40 13 5 17 29.4 0 0 - 3 4 75.0 0 7 7 3 1 1 2 3 13
p117
aVAustin Croshere IND 05/06/2004 IND vs. MIA W 5 0 0 1 0.0 0 0 - 0 0 - 0 1 1 0 0 0 1 0 -1
p118
aVAnthony Johnson IND 05/06/2004 IND vs. MIA W 21 2 0 2 0.0 0 2 0.0 2 2 100.0 0 2 2 1 0 0 0 0 -1
p119
aVReggie Miller IND 05/06/2004 IND vs. MIA W 28 12 3 6 50.0 2 3 66.7 4 4 100.0 0 2 2 3 0 0 2 0 16
p120
aVJamaal Tinsley IND 05/06/2004 IND vs. MIA W 27 17 6 7 85.7 5 6 83.3 0 0 - 0 2 2 5 2 0 3 4 14
p121
aVJeff Foster IND 05/06/2004 IND vs. MIA W 25 7 2 4 50.0 0 0 - 3 3 100.0 6 4 10 1 2 0 1 4 15
p122
aVAnthony Johnson IND 04/25/2004 IND @ BOS W 19 6 2 5 40.0 0 1 0.0 2 2 100.0 0 4 4 1 1 0 1 0 -4
p123
aVFred Jones IND 04/25/2004 IND @ BOS W 23 2 1 4 25.0 0 2 0.0 0 0 - 0 1 1 1 1 1 2 5 2
p124
aVJonathan Bender IND 04/25/2004 IND @ BOS W 12 7 3 6 50.0 1 3 33.3 0 0 - 0 0 0 1 1 1 0 4 -3
p125
aVReggie Miller IND 04/25/2004 IND @ BOS W 25 14 4 9 44.4 4 8 50.0 2 2 100.0 0 3 3 2 5 0 2 0 13
p126
aVJermaine O'Neal IND 04/25/2004 IND @ BOS W 39 18 8 18 44.4 0 0 - 2 4 50.0 0 5 5 1 3 3 1 2 24
p127
aVJamaal Tinsley IND 04/25/2004 IND @ BOS W 29 6 2 2 100.0 0 0 - 2 2 100.0 0 1 1 7 1 0 4 2 19
p128
aVMetta World Peace IND 04/25/2004 IND @ BOS W 36 22 9 17 52.9 2 3 66.7 2 3 66.7 0 3 3 3 1 0 1 0 18
p129
aVAl Harrington IND 04/25/2004 IND @ BOS W 31 13 3 9 33.3 0 0 - 7 9 77.8 2 5 7 2 3 0 2 3 7
p130
aVJeff Foster IND 04/25/2004 IND @ BOS W 26 2 1 3 33.3 0 0 - 0 0 - 2 5 7 1 3 0 0 2 -1
p131
aVJamaal Tinsley IND 04/23/2004 IND @ BOS W 25 7 3 9 33.3 1 4 25.0 0 0 - 0 2 2 4 2 0 1 3 5
p132
aVAnthony Johnson IND 04/23/2004 IND @ BOS W 17 6 2 4 50.0 2 2 100.0 0 0 - 0 0 0 2 2 0 0 4 18
p133
aVAustin Croshere IND 04/23/2004 IND @ BOS W 11 4 1 3 33.3 0 1 0.0 2 2 100.0 1 1 2 0 1 0 0 1 0
p134
aVAl Harrington IND 04/23/2004 IND @ BOS W 28 19 9 14 64.3 0 0 - 1 5 20.0 3 6 9 1 2 0 1 2 25
p135
aVKenny Anderson IND 04/23/2004 IND @ BOS W 6 4 2 4 50.0 0 0 - 0 0 - 0 1 1 1 0 0 1 0 0
p136
aVJonathan Bender IND 04/23/2004 IND @ BOS W 19 19 6 12 50.0 2 3 66.7 5 5 100.0 1 3 4 0 1 2 1 0 18
p137
aVScot Pollard IND 04/23/2004 IND @ BOS W 6 1 0 1 0.0 0 0 - 1 2 50.0 1 0 1 0 1 0 0 0 0
p138
aVFred Jones IND 04/23/2004 IND @ BOS W 28 5 2 5 40.0 1 2 50.0 0 0 - 1 5 6 4 1 0 0 3 23
p139
aVJermaine O'Neal IND 04/23/2004 IND @ BOS W 28 14 6 12 50.0 0 1 0.0 2 4 50.0 1 6 7 2 0 2 1 3 11
p140
aVReggie Miller IND 04/23/2004 IND @ BOS W 20 7 2 4 50.0 1 3 33.3 2 2 100.0 0 1 1 5 1 0 2 1 0
p141
aVMetta World Peace IND 04/23/2004 IND @ BOS W 29 15 6 17 35.3 1 6 16.7 2 2 100.0 1 5 6 5 2 0 2 0 5
p142
aVJeff Foster IND 04/23/2004 IND @ BOS W 23 7 3 4 75.0 0 0 - 1 1 100.0 5 2 7 3 1 0 0 4 10
p143
aVReggie Miller IND 04/20/2004 IND vs. BOS W 21 7 2 10 20.0 1 5 20.0 2 2 100.0 0 1 1 7 0 0 2 3 -5
p144
aVJamaal Tinsley IND 04/20/2004 IND vs. BOS W 29 15 6 13 46.2 3 6 50.0 0 0 - 1 1 2 6 2 0 1 3 -6
p145
aVJonathan Bender IND 04/20/2004 IND vs. BOS W 28 11 4 10 40.0 1 3 33.3 2 3 66.7 4 3 7 0 0 1 0 2 16
p146
aVScot Pollard IND 04/20/2004 IND vs. BOS W 1 0 0 0 - 0 0 - 0 0 - 0 0 0 0 0 0 0 1 0
p147
aVJermaine O'Neal IND 04/20/2004 IND vs. BOS W 35 22 9 20 45.0 0 0 - 4 8 50.0 2 9 11 2 1 1 4 3 -3
p148
aVJeff Foster IND 04/20/2004 IND vs. BOS W 18 4 2 3 66.7 0 0 - 0 0 - 2 4 6 0 2 1 0 4 -9
p149
aVAl Harrington IND 04/20/2004 IND vs. BOS W 34 12 6 14 42.9 0 0 - 0 0 - 4 9 13 1 3 1 3 4 12
p150
aVFred Jones IND 04/20/2004 IND vs. BOS W 32 17 7 11 63.6 3 4 75.0 0 0 - 0 3 3 3 0 0 1 2 22
p151
aVAustin Croshere IND 04/20/2004 IND vs. BOS W 23 10 3 6 50.0 1 4 25.0 3 4 75.0 2 3 5 3 0 1 0 2 23
p152
aVAnthony Johnson IND 04/20/2004 IND vs. BOS W 19 5 2 5 40.0 0 1 0.0 1 2 50.0 0 1 1 1 1 0 0 3 20
p153
aVFred Jones IND 04/17/2004 IND vs. BOS W 20 9 4 5 80.0 1 1 100.0 0 1 0.0 1 3 4 2 0 1 1 2 -3
p154
aVJamaal Tinsley IND 04/17/2004 IND vs. BOS W 29 5 2 6 33.3 1 4 25.0 0 0 - 1 2 3 7 1 1 0 3 7
p155
aVJonathan Bender IND 04/17/2004 IND vs. BOS W 9 3 1 2 50.0 0 0 - 1 2 50.0 0 0 0 1 0 0 0 2 1
p156
aVMetta World Peace IND 04/17/2004 IND vs. BOS W 39 24 8 21 38.1 1 4 25.0 7 8 87.5 1 5 6 5 0 2 4 4 15
p157
aVAnthony Johnson IND 04/17/2004 IND vs. BOS W 20 6 2 5 40.0 0 0 - 2 2 100.0 0 1 1 2 0 1 3 4 7
p158
aVJeff Foster IND 04/17/2004 IND vs. BOS W 22 8 4 5 80.0 0 0 - 0 0 - 3 7 10 0 0 1 2 3 1
p159
aVReggie Miller IND 04/17/2004 IND vs. BOS W 28 11 3 8 37.5 2 3 66.7 3 3 100.0 0 1 1 2 2 0 4 1 19
p160
aVJermaine O'Neal IND 04/17/2004 IND vs. BOS W 40 24 9 22 40.9 0 0 - 6 8 75.0 4 7 11 1 1 3 2 3 22
p161
aVAl Harrington IND 04/17/2004 IND vs. BOS W 33 14 6 10 60.0 0 0 - 2 3 66.7 6 4 10 3 5 1 2 3 11
p162
a.