(lp0
VPLAYER TEAM DATE MATCHUP W/L MIN PTS FGM FGA FG% 3PM 3PA 3P% FTM FTA FT% OREB DREB REB AST STL BLK TOV PF +/-
p1
aVStephon Marbury NYK 04/25/2004 NYK vs. NJN L 45 31 11 26 42.3 2 7 28.6 7 11 63.6 1 2 3 7 3 0 4 3 -9
p2
aVNazr Mohammed NYK 04/25/2004 NYK vs. NJN L 23 3 1 4 25.0 0 0 - 1 2 50.0 0 4 4 1 0 1 1 6 -6
p3
aVMichael Sweetney NYK 04/25/2004 NYK vs. NJN L 8 2 0 1 0.0 0 0 - 2 2 100.0 0 3 3 0 0 0 0 2 0
p4
aVDerMarr Johnson NYK 04/25/2004 NYK vs. NJN L 5 0 0 1 0.0 0 1 0.0 0 0 - 0 0 0 0 0 0 0 0 -5
p5
aVAnfernee Hardaway NYK 04/25/2004 NYK vs. NJN L 47 17 5 15 33.3 2 7 28.6 5 6 83.3 2 1 3 6 0 0 1 2 -4
p6
aVShandon Anderson NYK 04/25/2004 NYK vs. NJN L 18 4 2 5 40.0 0 0 - 0 0 - 0 2 2 1 0 0 0 5 -3
p7
aVKurt Thomas NYK 04/25/2004 NYK vs. NJN L 39 14 5 10 50.0 0 0 - 4 6 66.7 2 13 15 3 3 1 3 4 -6
p8
aVFrank Williams NYK 04/25/2004 NYK vs. NJN L 31 11 4 9 44.4 2 6 33.3 1 1 100.0 0 1 1 4 0 0 1 5 1
p9
aVVin Baker NYK 04/25/2004 NYK vs. NJN L 24 12 5 8 62.5 0 0 - 2 2 100.0 4 2 6 0 3 2 1 6 2
p10
aVVin Baker NYK 04/22/2004 NYK vs. NJN L 15 2 1 2 50.0 0 0 - 0 0 - 1 1 2 0 0 0 0 0 -6
p11
aVKurt Thomas NYK 04/22/2004 NYK vs. NJN L 38 15 7 13 53.8 0 0 - 1 2 50.0 3 9 12 2 1 0 0 5 5
p12
aVDikembe Mutombo NYK 04/22/2004 NYK vs. NJN L 2 0 0 0 - 0 0 - 0 0 - 0 1 1 0 0 0 0 0 -1
p13
aVNazr Mohammed NYK 04/22/2004 NYK vs. NJN L 33 18 8 11 72.7 0 0 - 2 4 50.0 1 6 7 0 0 1 2 4 3
p14
aVMichael Sweetney NYK 04/22/2004 NYK vs. NJN L 8 0 0 0 - 0 0 - 0 2 0.0 0 1 1 0 0 0 0 0 -6
p15
aVFrank Williams NYK 04/22/2004 NYK vs. NJN L 23 7 2 9 22.2 2 5 40.0 1 2 50.0 1 0 1 0 2 0 1 5 -5
p16
aVAnfernee Hardaway NYK 04/22/2004 NYK vs. NJN L 44 18 6 17 35.3 2 3 66.7 4 6 66.7 0 6 6 4 1 1 6 3 -10
p17
aVStephon Marbury NYK 04/22/2004 NYK vs. NJN L 48 18 7 23 30.4 1 4 25.0 3 6 50.0 2 4 6 10 2 0 3 2 -3
p18
aVShandon Anderson NYK 04/22/2004 NYK vs. NJN L 29 0 0 1 0.0 0 0 - 0 0 - 1 2 3 2 0 0 3 4 8
p19
aVDerMarr Johnson NYK 04/20/2004 NYK @ NJN L 6 0 0 2 0.0 0 1 0.0 0 0 - 0 1 1 0 0 0 0 1 0
p20
aVAnfernee Hardaway NYK 04/20/2004 NYK @ NJN L 40 13 5 16 31.3 0 3 0.0 3 3 100.0 2 5 7 10 3 0 1 3 -17
p21
aVMichael Sweetney NYK 04/20/2004 NYK @ NJN L 19 2 1 3 33.3 0 0 - 0 0 - 3 0 3 0 0 1 0 1 -13
p22
aVDikembe Mutombo NYK 04/20/2004 NYK @ NJN L 22 5 2 4 50.0 0 0 - 1 1 100.0 3 3 6 0 1 1 2 3 0
p23
aVShandon Anderson NYK 04/20/2004 NYK @ NJN L 40 9 3 15 20.0 2 6 33.3 1 2 50.0 2 0 2 3 3 0 2 5 -6
p24
aVNazr Mohammed NYK 04/20/2004 NYK @ NJN L 15 4 2 7 28.6 0 0 - 0 0 - 5 0 5 0 2 0 3 4 -20
p25
aVStephon Marbury NYK 04/20/2004 NYK @ NJN L 43 23 7 20 35.0 2 5 40.0 7 8 87.5 1 2 3 7 0 0 5 3 -16
p26
aVVin Baker NYK 04/20/2004 NYK @ NJN L 9 7 2 2 100.0 0 0 - 3 5 60.0 0 3 3 0 0 0 1 0 4
p27
aVKurt Thomas NYK 04/20/2004 NYK @ NJN L 36 18 8 16 50.0 0 0 - 2 2 100.0 2 10 12 0 3 2 4 4 -15
p28
aVFrank Williams NYK 04/20/2004 NYK @ NJN L 10 0 0 3 0.0 0 1 0.0 0 0 - 0 0 0 0 1 0 0 0 -7
p29
aVAnfernee Hardaway NYK 04/17/2004 NYK @ NJN L 37 18 7 15 46.7 1 1 100.0 3 3 100.0 0 2 2 3 2 0 2 0 -15
p30
aVDerMarr Johnson NYK 04/17/2004 NYK @ NJN L 6 0 0 2 0.0 0 1 0.0 0 0 - 0 1 1 2 0 1 0 1 -6
p31
aVTim Thomas NYK 04/17/2004 NYK @ NJN L 23 12 4 10 40.0 0 1 0.0 4 5 80.0 1 4 5 3 0 0 2 5 -7
p32
aVStephon Marbury NYK 04/17/2004 NYK @ NJN L 39 13 6 14 42.9 1 4 25.0 0 0 - 1 4 5 2 2 0 2 1 -16
p33
aVKurt Thomas NYK 04/17/2004 NYK @ NJN L 27 4 1 10 10.0 0 0 - 2 2 100.0 2 5 7 1 0 0 3 4 -13
p34
aVVin Baker NYK 04/17/2004 NYK @ NJN L 9 1 0 2 0.0 0 0 - 1 2 50.0 1 0 1 1 0 0 0 2 -8
p35
aVNazr Mohammed NYK 04/17/2004 NYK @ NJN L 25 16 4 8 50.0 0 0 - 8 10 80.0 4 3 7 0 4 1 1 4 -9
p36
aVFrank Williams NYK 04/17/2004 NYK @ NJN L 9 1 0 1 0.0 0 1 0.0 1 2 50.0 0 0 0 1 0 0 2 3 -8
p37
aVShandon Anderson NYK 04/17/2004 NYK @ NJN L 30 4 2 6 33.3 0 1 0.0 0 0 - 2 0 2 5 1 1 3 5 -20
p38
aVDikembe Mutombo NYK 04/17/2004 NYK @ NJN L 14 2 0 2 0.0 0 0 - 2 2 100.0 1 2 3 0 0 3 1 3 -7
p39
aVMichael Sweetney NYK 04/17/2004 NYK @ NJN L 21 12 5 7 71.4 0 0 - 2 2 100.0 1 2 3 0 0 0 0 4 -11
p40
a.