(lp0
VPLAYER TEAM DATE MATCHUP W/L MIN PTS FGM FGA FG% 3PM 3PA 3P% FTM FTA FT% OREB DREB REB AST STL BLK TOV PF +/-
p1
aVOliver Miller MIN 05/31/2004 MIN @ LAL L 5 0 0 1 0.0 0 0 - 0 0 - 0 0 0 0 0 1 1 4 1
p2
aVWally Szczerbiak MIN 05/31/2004 MIN @ LAL L 29 13 3 8 37.5 1 3 33.3 6 6 100.0 0 5 5 1 1 1 2 4 -4
p3
aVMark Madsen MIN 05/31/2004 MIN @ LAL L 14 3 1 2 50.0 0 0 - 1 1 100.0 2 1 3 1 0 0 1 4 -12
p4
aVMichael Olowokandi MIN 05/31/2004 MIN @ LAL L 17 2 1 1 100.0 0 0 - 0 0 - 1 3 4 0 0 1 0 4 3
p5
aVLatrell Sprewell MIN 05/31/2004 MIN @ LAL L 44 27 8 22 36.4 0 3 0.0 11 11 100.0 0 4 4 5 1 0 3 1 -3
p6
aVFred Hoiberg MIN 05/31/2004 MIN @ LAL L 26 4 2 4 50.0 0 0 - 0 0 - 1 6 7 2 1 0 2 0 -7
p7
aVDarrick Martin MIN 05/31/2004 MIN @ LAL L 24 8 3 6 50.0 0 1 0.0 2 2 100.0 3 3 6 5 0 0 1 2 2
p8
aVTrenton Hassell MIN 05/31/2004 MIN @ LAL L 33 11 5 10 50.0 1 1 100.0 0 0 - 1 0 1 1 0 0 0 3 -8
p9
aVErvin Johnson MIN 05/31/2004 MIN @ LAL L 5 0 0 0 - 0 0 - 0 0 - 0 1 1 0 0 0 0 3 2
p10
aVKevin Garnett MIN 05/31/2004 MIN @ LAL L 43 22 9 20 45.0 0 1 0.0 4 6 66.7 4 13 17 2 1 2 8 6 -4
p11
aVWally Szczerbiak MIN 05/29/2004 MIN vs. LAL W 31 11 3 9 33.3 0 4 0.0 5 7 71.4 0 2 2 2 1 0 1 1 11
p12
aVFred Hoiberg MIN 05/29/2004 MIN vs. LAL W 38 14 5 10 50.0 1 3 33.3 3 3 100.0 1 2 3 1 2 0 1 3 6
p13
aVKevin Garnett MIN 05/29/2004 MIN vs. LAL W 46 30 10 23 43.5 0 0 - 10 11 90.9 3 16 19 4 1 1 0 3 0
p14
aVMark Madsen MIN 05/29/2004 MIN vs. LAL W 17 6 3 4 75.0 0 0 - 0 1 0.0 2 3 5 0 0 0 0 4 -1
p15
aVLatrell Sprewell MIN 05/29/2004 MIN vs. LAL W 44 28 11 21 52.4 1 4 25.0 5 6 83.3 0 4 4 5 2 0 1 1 3
p16
aVErvin Johnson MIN 05/29/2004 MIN vs. LAL W 5 0 0 0 - 0 0 - 0 0 - 0 1 1 0 0 0 0 2 1
p17
aVMichael Olowokandi MIN 05/29/2004 MIN vs. LAL W 19 1 0 3 0.0 0 0 - 1 2 50.0 2 5 7 0 0 2 2 5 5
p18
aVDarrick Martin MIN 05/29/2004 MIN vs. LAL W 12 2 1 6 16.7 0 1 0.0 0 0 - 0 0 0 1 0 0 0 1 -5
p19
aVTrenton Hassell MIN 05/29/2004 MIN vs. LAL W 28 6 2 4 50.0 0 0 - 2 2 100.0 0 1 1 1 1 0 0 2 -10
p20
aVDarrick Martin MIN 05/27/2004 MIN @ LAL L 15 3 1 6 16.7 1 3 33.3 0 0 - 0 0 0 1 0 0 0 1 -8
p21
aVWally Szczerbiak MIN 05/27/2004 MIN @ LAL L 34 19 6 15 40.0 1 1 100.0 6 6 100.0 2 3 5 0 1 0 2 4 2
p22
aVTrenton Hassell MIN 05/27/2004 MIN @ LAL L 22 8 3 4 75.0 0 0 - 2 2 100.0 0 0 0 2 2 0 1 2 -4
p23
aVKevin Garnett MIN 05/27/2004 MIN @ LAL L 47 28 12 24 50.0 1 2 50.0 3 4 75.0 2 11 13 9 1 1 4 3 -5
p24
aVFred Hoiberg MIN 05/27/2004 MIN @ LAL L 28 7 3 8 37.5 1 4 25.0 0 0 - 1 4 5 3 0 0 0 2 3
p25
aVOliver Miller MIN 05/27/2004 MIN @ LAL L 3 0 0 0 - 0 0 - 0 0 - 0 1 1 0 0 0 1 2 -6
p26
aVLatrell Sprewell MIN 05/27/2004 MIN @ LAL L 41 12 4 18 22.2 0 5 0.0 4 5 80.0 2 3 5 4 0 0 1 3 -13
p27
aVMichael Olowokandi MIN 05/27/2004 MIN @ LAL L 9 0 0 1 0.0 0 0 - 0 0 - 2 1 3 0 0 0 0 5 -1
p28
aVErvin Johnson MIN 05/27/2004 MIN @ LAL L 19 2 1 1 100.0 0 0 - 0 2 0.0 0 3 3 0 0 0 1 3 -12
p29
aVSam Cassell MIN 05/27/2004 MIN @ LAL L 5 3 1 4 25.0 1 2 50.0 0 0 - 0 0 0 0 0 1 0 1 -2
p30
aVMark Madsen MIN 05/27/2004 MIN @ LAL L 17 3 1 3 33.3 0 0 - 1 2 50.0 3 3 6 0 0 0 0 4 11
p31
aVKevin Garnett MIN 05/25/2004 MIN @ LAL L 42 22 9 21 42.9 1 2 50.0 3 4 75.0 3 8 11 7 0 0 4 6 -7
p32
aVTrenton Hassell MIN 05/25/2004 MIN @ LAL L 16 6 3 4 75.0 0 0 - 0 0 - 1 0 1 1 0 0 0 3 -4
p33
aVOliver Miller MIN 05/25/2004 MIN @ LAL L 6 0 0 0 - 0 0 - 0 0 - 0 1 1 1 0 1 0 4 -4
p34
aVLatrell Sprewell MIN 05/25/2004 MIN @ LAL L 43 18 7 17 41.2 3 7 42.9 1 2 50.0 1 1 2 3 4 0 4 2 -11
p35
aVMark Madsen MIN 05/25/2004 MIN @ LAL L 10 0 0 1 0.0 0 0 - 0 0 - 0 0 0 0 0 0 1 3 -11
p36
aVSam Cassell MIN 05/25/2004 MIN @ LAL L 26 18 7 12 58.3 3 5 60.0 1 1 100.0 0 1 1 2 0 0 2 2 -9
p37
aVGary Trent MIN 05/25/2004 MIN @ LAL L 1 0 0 1 0.0 0 1 0.0 0 0 - 0 0 0 0 0 0 0 0 -1
p38
aVErvin Johnson MIN 05/25/2004 MIN @ LAL L 19 2 1 1 100.0 0 0 - 0 0 - 1 4 5 1 0 0 0 5 -1
p39
aVDarrick Martin MIN 05/25/2004 MIN @ LAL L 19 0 0 2 0.0 0 2 0.0 0 0 - 0 0 0 1 1 0 0 2 5
p40
aVMichael Olowokandi MIN 05/25/2004 MIN @ LAL L 16 0 0 4 0.0 0 1 0.0 0 0 - 0 2 2 0 0 0 1 4 4
p41
aVWally Szczerbiak MIN 05/25/2004 MIN @ LAL L 25 21 6 12 50.0 2 4 50.0 7 7 100.0 2 5 7 2 2 0 4 4 -4
p42
aVFred Hoiberg MIN 05/25/2004 MIN @ LAL L 17 2 1 1 100.0 0 0 - 0 0 - 1 4 5 1 0 0 0 1 -12
p43
aVMichael Olowokandi MIN 05/23/2004 MIN vs. LAL W 8 0 0 0 - 0 0 - 0 0 - 0 1 1 0 0 1 1 4 -2
p44
aVFred Hoiberg MIN 05/23/2004 MIN vs. LAL W 17 0 0 3 0.0 0 1 0.0 0 0 - 1 4 5 0 0 0 0 1 8
p45
aVDarrick Martin MIN 05/23/2004 MIN vs. LAL W 36 15 4 11 36.4 1 4 25.0 6 6 100.0 1 1 2 6 1 0 0 0 16
p46
aVTrenton Hassell MIN 05/23/2004 MIN vs. LAL W 7 0 0 0 - 0 0 - 0 0 - 0 0 0 1 0 0 0 2 -4
p47
aVOliver Miller MIN 05/23/2004 MIN vs. LAL W 11 2 1 2 50.0 0 0 - 0 0 - 0 3 3 0 0 1 0 2 1
p48
aVGary Trent MIN 05/23/2004 MIN vs. LAL W 4 2 1 1 100.0 0 0 - 0 0 - 1 0 1 0 0 0 0 0 -2
p49
aVLatrell Sprewell MIN 05/23/2004 MIN vs. LAL W 43 17 6 14 42.9 3 8 37.5 2 2 100.0 1 2 3 8 2 0 1 2 18
p50
aVWally Szczerbiak MIN 05/23/2004 MIN vs. LAL W 39 16 6 16 37.5 2 7 28.6 2 2 100.0 1 4 5 7 0 0 4 4 21
p51
aVKevin Garnett MIN 05/23/2004 MIN vs. LAL W 42 24 10 20 50.0 1 1 100.0 3 5 60.0 1 10 11 3 2 1 2 0 16
p52
aVMark Madsen MIN 05/23/2004 MIN vs. LAL W 8 6 3 4 75.0 0 0 - 0 0 - 2 0 2 0 0 0 0 4 1
p53
aVErvin Johnson MIN 05/23/2004 MIN vs. LAL W 24 7 2 3 66.7 0 0 - 3 4 75.0 2 6 8 0 2 3 0 5 17
p54
aVSam Cassell MIN 05/23/2004 MIN vs. LAL W 1 0 0 0 - 0 0 - 0 0 - 0 0 0 0 0 0 0 1 0
p55
aVMichael Olowokandi MIN 05/21/2004 MIN vs. LAL L 33 10 4 7 57.1 0 0 - 2 2 100.0 3 8 11 0 0 1 2 4 -11
p56
aVMark Madsen MIN 05/21/2004 MIN vs. LAL L 6 0 0 0 - 0 0 - 0 0 - 0 0 0 0 1 0 0 2 1
p57
aVWally Szczerbiak MIN 05/21/2004 MIN vs. LAL L 24 9 4 8 50.0 1 2 50.0 0 0 - 0 3 3 1 0 0 4 2 -11
p58
aVGary Trent MIN 05/21/2004 MIN vs. LAL L 2 0 0 0 - 0 0 - 0 0 - 0 0 0 0 0 0 0 0 0
p59
aVErvin Johnson MIN 05/21/2004 MIN vs. LAL L 8 2 1 2 50.0 0 0 - 0 0 - 0 1 1 0 0 0 0 2 -1
p60
aVSam Cassell MIN 05/21/2004 MIN vs. LAL L 32 16 5 14 35.7 0 4 0.0 6 6 100.0 0 1 1 8 1 0 1 3 -3
p61
aVTrenton Hassell MIN 05/21/2004 MIN vs. LAL L 20 6 3 4 75.0 0 0 - 0 0 - 0 0 0 1 0 0 0 3 2
p62
aVFred Hoiberg MIN 05/21/2004 MIN vs. LAL L 22 6 2 2 100.0 2 2 100.0 0 0 - 0 3 3 1 0 0 0 2 -6
p63
aVKevin Garnett MIN 05/21/2004 MIN vs. LAL L 45 16 7 15 46.7 0 1 0.0 2 2 100.0 0 10 10 2 2 2 4 2 -9
p64
aVOliver Miller MIN 05/21/2004 MIN vs. LAL L 2 0 0 1 0.0 0 0 - 0 0 - 0 0 0 0 0 0 0 0 2
p65
aVLatrell Sprewell MIN 05/21/2004 MIN vs. LAL L 46 23 8 16 50.0 3 7 42.9 4 5 80.0 0 6 6 5 0 0 4 1 -9
p66
aVWally Szczerbiak MIN 05/19/2004 MIN vs. SAC W 19 10 4 7 57.1 0 0 - 2 2 100.0 4 0 4 3 1 0 1 1 9
p67
aVSam Cassell MIN 05/19/2004 MIN vs. SAC W 38 23 6 12 50.0 1 2 50.0 10 11 90.9 0 4 4 7 0 1 4 4 2
p68
aVFred Hoiberg MIN 05/19/2004 MIN vs. SAC W 19 0 0 2 0.0 0 1 0.0 0 0 - 0 6 6 1 1 0 1 2 1
p69
aVGary Trent MIN 05/19/2004 MIN vs. SAC W 6 0 0 3 0.0 0 1 0.0 0 0 - 0 0 0 0 0 0 0 3 1
p70
aVLatrell Sprewell MIN 05/19/2004 MIN vs. SAC W 44 14 6 16 37.5 1 5 20.0 1 3 33.3 0 4 4 2 2 0 6 2 -2
p71
aVMark Madsen MIN 05/19/2004 MIN vs. SAC W 15 0 0 0 - 0 0 - 0 0 - 0 2 2 0 0 0 3 2 0
p72
aVErvin Johnson MIN 05/19/2004 MIN vs. SAC W 29 0 0 3 0.0 0 0 - 0 0 - 2 5 7 1 2 2 1 4 4
p73
aVKevin Garnett MIN 05/19/2004 MIN vs. SAC W 46 32 12 23 52.2 1 1 100.0 7 11 63.6 1 20 21 2 4 5 2 1 1
p74
aVTrenton Hassell MIN 05/19/2004 MIN vs. SAC W 24 4 2 5 40.0 0 0 - 0 0 - 2 0 2 1 0 0 0 1 -1
p75
aVWally Szczerbiak MIN 05/16/2004 MIN @ SAC L 19 12 4 9 44.4 0 1 0.0 4 4 100.0 0 2 2 1 0 0 1 2 -14
p76
aVKevin Garnett MIN 05/16/2004 MIN @ SAC L 45 19 8 19 42.1 0 0 - 3 4 75.0 2 8 10 5 0 2 5 5 -11
p77
aVErvin Johnson MIN 05/16/2004 MIN @ SAC L 14 0 0 2 0.0 0 0 - 0 0 - 2 3 5 0 0 0 0 1 -14
p78
aVFred Hoiberg MIN 05/16/2004 MIN @ SAC L 37 10 3 7 42.9 3 5 60.0 1 1 100.0 1 1 2 1 1 0 1 2 -11
p79
aVMark Madsen MIN 05/16/2004 MIN @ SAC L 22 3 1 2 50.0 0 0 - 1 2 50.0 4 2 6 1 2 0 0 2 3
p80
aVSam Cassell MIN 05/16/2004 MIN @ SAC L 30 16 7 11 63.6 0 3 0.0 2 3 66.7 0 1 1 2 2 0 3 6 7
p81
aVLatrell Sprewell MIN 05/16/2004 MIN @ SAC L 44 27 10 22 45.5 6 7 85.7 1 2 50.0 0 4 4 1 5 1 4 1 -10
p82
aVDarrick Martin MIN 05/16/2004 MIN @ SAC L 9 0 0 2 0.0 0 0 - 0 0 - 1 0 1 0 0 0 1 3 -13
p83
aVTrenton Hassell MIN 05/16/2004 MIN @ SAC L 17 0 0 6 0.0 0 0 - 0 0 - 0 1 1 0 0 1 0 1 -12
p84
aVGary Trent MIN 05/16/2004 MIN @ SAC L 3 0 0 1 0.0 0 0 - 0 0 - 1 0 1 0 0 0 0 0 -10
p85
aVMark Madsen MIN 05/14/2004 MIN vs. SAC W 26 7 1 6 16.7 0 0 - 5 8 62.5 8 5 13 0 0 0 0 5 13
p86
aVLatrell Sprewell MIN 05/14/2004 MIN vs. SAC W 43 34 13 21 61.9 3 7 42.9 5 6 83.3 0 7 7 6 1 0 4 3 14
p87
aVGary Trent MIN 05/14/2004 MIN vs. SAC W 9 3 1 2 50.0 0 0 - 1 2 50.0 0 0 0 0 0 0 0 1 2
p88
aVTrenton Hassell MIN 05/14/2004 MIN vs. SAC W 20 6 3 6 50.0 0 0 - 0 0 - 0 1 1 1 0 1 0 0 -9
p89
aVDarrick Martin MIN 05/14/2004 MIN vs. SAC W 12 2 0 3 0.0 0 1 0.0 2 2 100.0 0 1 1 1 0 0 1 2 1
p90
aVKevin Garnett MIN 05/14/2004 MIN vs. SAC W 43 23 9 21 42.9 0 0 - 5 6 83.3 3 9 12 3 2 3 8 2 8
p91
aVWally Szczerbiak MIN 05/14/2004 MIN vs. SAC W 6 0 0 2 0.0 0 1 0.0 0 0 - 0 0 0 0 0 0 0 0 0
p92
aVFred Hoiberg MIN 05/14/2004 MIN vs. SAC W 32 8 2 5 40.0 1 3 33.3 3 3 100.0 0 8 8 3 2 0 0 0 20
p93
aVSam Cassell MIN 05/14/2004 MIN vs. SAC W 31 3 1 5 20.0 0 2 0.0 1 2 50.0 0 4 4 7 1 0 2 5 10
p94
aVErvin Johnson MIN 05/14/2004 MIN vs. SAC W 18 0 0 1 0.0 0 0 - 0 0 - 0 2 2 0 1 0 0 3 1
p95
aVFred Hoiberg MIN 05/12/2004 MIN @ SAC L 24 8 2 3 66.7 2 3 66.7 2 2 100.0 0 3 3 1 1 0 0 0 -11
p96
aVGary Trent MIN 05/12/2004 MIN @ SAC L 16 10 3 7 42.9 0 0 - 4 4 100.0 3 2 5 0 0 0 2 4 -4
p97
aVErvin Johnson MIN 05/12/2004 MIN @ SAC L 23 4 2 4 50.0 0 0 - 0 0 - 1 4 5 0 0 1 0 1 -1
p98
aVSam Cassell MIN 05/12/2004 MIN @ SAC L 42 15 4 15 26.7 1 5 20.0 6 7 85.7 0 2 2 6 3 0 5 5 -2
p99
aVTrenton Hassell MIN 05/12/2004 MIN @ SAC L 34 9 4 9 44.4 0 1 0.0 1 1 100.0 1 1 2 1 0 0 3 4 0
p100
aVMark Madsen MIN 05/12/2004 MIN @ SAC L 6 0 0 0 - 0 0 - 0 0 - 1 0 1 0 1 0 1 1 -6
p101
aVMichael Olowokandi MIN 05/12/2004 MIN @ SAC L 3 0 0 0 - 0 0 - 0 0 - 1 1 2 0 0 0 3 1 -1
p102
aVKevin Garnett MIN 05/12/2004 MIN @ SAC L 45 19 8 18 44.4 1 3 33.3 2 2 100.0 6 15 21 6 1 2 5 4 -2
p103
aVLatrell Sprewell MIN 05/12/2004 MIN @ SAC L 43 13 5 15 33.3 0 3 0.0 3 4 75.0 1 4 5 4 0 0 1 1 0
p104
aVDarrick Martin MIN 05/12/2004 MIN @ SAC L 3 3 1 1 100.0 1 1 100.0 0 0 - 0 0 0 0 0 0 2 2 -3
p105
aVLatrell Sprewell MIN 05/10/2004 MIN @ SAC W 49 25 9 22 40.9 1 5 20.0 6 6 100.0 1 8 9 6 2 2 4 2 5
p106
aVFred Hoiberg MIN 05/10/2004 MIN @ SAC W 35 14 4 9 44.4 4 8 50.0 2 3 66.7 1 4 5 0 0 0 0 1 -4
p107
aVMichael Olowokandi MIN 05/10/2004 MIN @ SAC W 10 2 1 4 25.0 0 0 - 0 0 - 0 0 0 0 1 0 0 3 -10
p108
aVTrenton Hassell MIN 05/10/2004 MIN @ SAC W 39 16 7 12 58.3 0 0 - 2 2 100.0 2 1 3 5 0 1 2 5 -1
p109
aVGary Trent MIN 05/10/2004 MIN @ SAC W 8 2 1 2 50.0 0 0 - 0 2 0.0 0 1 1 1 0 0 0 1 7
p110
aVMark Madsen MIN 05/10/2004 MIN @ SAC W 14 4 2 2 100.0 0 0 - 0 2 0.0 1 4 5 0 0 1 0 3 -3
p111
aVDarrick Martin MIN 05/10/2004 MIN @ SAC W 4 3 0 1 0.0 0 0 - 3 4 75.0 0 1 1 0 1 0 0 1 -8
p112
aVSam Cassell MIN 05/10/2004 MIN @ SAC W 32 9 4 14 28.6 1 4 25.0 0 0 - 0 2 2 4 1 0 1 6 6
p113
aVKevin Garnett MIN 05/10/2004 MIN @ SAC W 44 30 11 23 47.8 0 1 0.0 8 9 88.9 2 13 15 3 3 5 1 4 -6
p114
aVErvin Johnson MIN 05/10/2004 MIN @ SAC W 30 9 4 4 100.0 0 0 - 1 1 100.0 1 1 2 4 2 0 0 3 19
p115
aVDarrick Martin MIN 05/08/2004 MIN vs. SAC W 10 3 1 4 25.0 1 2 50.0 0 0 - 0 1 1 2 0 0 0 0 -3
p116
aVGary Trent MIN 05/08/2004 MIN vs. SAC W 13 2 1 3 33.3 0 0 - 0 0 - 1 2 3 0 0 0 1 2 0
p117
aVFred Hoiberg MIN 05/08/2004 MIN vs. SAC W 23 13 4 7 57.1 3 5 60.0 2 2 100.0 1 1 2 2 3 0 0 4 16
p118
aVLatrell Sprewell MIN 05/08/2004 MIN vs. SAC W 41 15 6 13 46.2 1 3 33.3 2 4 50.0 0 3 3 3 0 2 3 3 1
p119
aVKevin Garnett MIN 05/08/2004 MIN vs. SAC W 43 28 8 16 50.0 0 1 0.0 12 14 85.7 0 11 11 4 1 6 4 1 13
p120
aVTrenton Hassell MIN 05/08/2004 MIN vs. SAC W 35 12 5 12 41.7 0 0 - 2 2 100.0 1 3 4 3 0 1 2 1 -7
p121
aVErvin Johnson MIN 05/08/2004 MIN vs. SAC W 24 0 0 3 0.0 0 0 - 0 0 - 2 9 11 0 0 0 0 3 5
p122
aVSam Cassell MIN 05/08/2004 MIN vs. SAC W 34 19 8 15 53.3 1 2 50.0 2 6 33.3 0 5 5 7 0 0 1 5 9
p123
aVMichael Olowokandi MIN 05/08/2004 MIN vs. SAC W 17 2 1 4 25.0 0 0 - 0 0 - 1 4 5 0 0 1 0 3 -9
p124
aVLatrell Sprewell MIN 05/04/2004 MIN vs. SAC L 43 5 2 14 14.3 1 7 14.3 0 0 - 1 4 5 4 1 1 1 3 -2
p125
aVSam Cassell MIN 05/04/2004 MIN vs. SAC L 42 40 15 25 60.0 7 11 63.6 3 3 100.0 1 2 3 5 1 0 4 2 -2
p126
aVDarrick Martin MIN 05/04/2004 MIN vs. SAC L 4 0 0 0 - 0 0 - 0 0 - 0 0 0 0 0 0 0 0 -4
p127
aVTrenton Hassell MIN 05/04/2004 MIN vs. SAC L 33 17 8 13 61.5 0 0 - 1 1 100.0 2 3 5 2 0 2 2 3 -6
p128
aVErvin Johnson MIN 05/04/2004 MIN vs. SAC L 18 6 3 4 75.0 0 0 - 0 0 - 5 3 8 3 1 0 0 4 -12
p129
aVFred Hoiberg MIN 05/04/2004 MIN vs. SAC L 23 8 3 7 42.9 2 5 40.0 0 0 - 0 3 3 3 0 0 2 4 -2
p130
aVMichael Olowokandi MIN 05/04/2004 MIN vs. SAC L 12 0 0 1 0.0 0 0 - 0 0 - 1 3 4 0 1 0 3 2 0
p131
aVMark Madsen MIN 05/04/2004 MIN vs. SAC L 20 6 2 3 66.7 0 0 - 2 4 50.0 1 1 2 0 0 1 0 5 10
p132
aVKevin Garnett MIN 05/04/2004 MIN vs. SAC L 45 16 6 21 28.6 0 2 0.0 4 4 100.0 4 14 18 7 1 1 6 3 -12
p133
aVDarrick Martin MIN 04/30/2004 MIN vs. DEN W 7 5 2 4 50.0 1 2 50.0 0 2 0.0 0 1 1 0 1 0 1 1 6
p134
aVOliver Miller MIN 04/30/2004 MIN vs. DEN W 0 0 0 0 - 0 0 - 0 0 - 0 0 0 0 0 0 0 0 0
p135
aVFred Hoiberg MIN 04/30/2004 MIN vs. DEN W 31 6 2 3 66.7 1 1 100.0 1 1 100.0 0 4 4 2 1 0 0 2 8
p136
aVLatrell Sprewell MIN 04/30/2004 MIN vs. DEN W 46 19 8 18 44.4 3 5 60.0 0 1 0.0 1 3 4 5 4 1 2 2 22
p137
aVKevin Garnett MIN 04/30/2004 MIN vs. DEN W 39 28 9 16 56.3 0 0 - 10 13 76.9 0 7 7 8 2 2 6 3 17
p138
aVErvin Johnson MIN 04/30/2004 MIN vs. DEN W 17 6 2 3 66.7 0 0 - 2 2 100.0 1 3 4 1 1 0 0 4 -7
p139
aVMichael Olowokandi MIN 04/30/2004 MIN vs. DEN W 15 0 0 1 0.0 0 0 - 0 0 - 2 0 2 0 0 2 2 2 13
p140
aVSam Cassell MIN 04/30/2004 MIN vs. DEN W 34 26 6 13 46.2 2 3 66.7 12 12 100.0 0 5 5 2 1 0 6 1 -1
p141
aVTrenton Hassell MIN 04/30/2004 MIN vs. DEN W 28 4 2 5 40.0 0 0 - 0 0 - 1 4 5 3 0 0 3 3 -6
p142
aVMark Madsen MIN 04/30/2004 MIN vs. DEN W 23 8 3 4 75.0 0 0 - 2 5 40.0 2 5 7 0 0 0 1 1 3
p143
aVDarrick Martin MIN 04/27/2004 MIN @ DEN W 3 2 0 0 - 0 0 - 2 2 100.0 0 0 0 0 0 0 1 1 0
p144
aVSam Cassell MIN 04/27/2004 MIN @ DEN W 37 15 4 10 40.0 1 3 33.3 6 7 85.7 0 6 6 4 0 0 4 3 -4
p145
aVKevin Garnett MIN 04/27/2004 MIN @ DEN W 44 27 8 17 47.1 0 0 - 11 15 73.3 0 14 14 5 1 2 5 4 12
p146
aVLatrell Sprewell MIN 04/27/2004 MIN @ DEN W 39 13 6 16 37.5 1 1 100.0 0 2 0.0 0 6 6 4 1 1 2 2 0
p147
aVFred Hoiberg MIN 04/27/2004 MIN @ DEN W 29 9 4 8 50.0 1 3 33.3 0 0 - 1 1 2 2 2 0 0 3 2
p148
aVTrenton Hassell MIN 04/27/2004 MIN @ DEN W 36 14 7 10 70.0 0 0 - 0 0 - 3 1 4 0 5 0 2 2 8
p149
aVErvin Johnson MIN 04/27/2004 MIN @ DEN W 37 4 1 3 33.3 0 0 - 2 4 50.0 1 4 5 0 0 3 1 3 10
p150
aVGary Trent MIN 04/27/2004 MIN @ DEN W 2 0 0 1 0.0 0 0 - 0 0 - 0 0 0 0 0 0 0 0 -4
p151
aVMichael Olowokandi MIN 04/27/2004 MIN @ DEN W 11 0 0 1 0.0 0 0 - 0 0 - 0 3 3 0 0 1 2 3 -8
p152
aVMark Madsen MIN 04/27/2004 MIN @ DEN W 2 0 0 0 - 0 0 - 0 0 - 0 0 0 0 0 0 0 1 -6
p153
aVMark Madsen MIN 04/24/2004 MIN @ DEN L 9 1 0 0 - 0 0 - 1 2 50.0 1 3 4 0 1 2 0 2 -5
p154
aVGary Trent MIN 04/24/2004 MIN @ DEN L 5 2 1 3 33.3 0 0 - 0 0 - 0 1 1 1 0 0 0 0 -3
p155
aVDarrick Martin MIN 04/24/2004 MIN @ DEN L 9 3 1 4 25.0 1 2 50.0 0 0 - 0 0 0 2 0 0 0 0 -6
p156
aVLatrell Sprewell MIN 04/24/2004 MIN @ DEN L 42 25 8 16 50.0 3 8 37.5 6 7 85.7 1 3 4 1 1 3 1 1 -18
p157
aVMichael Olowokandi MIN 04/24/2004 MIN @ DEN L 11 2 1 4 25.0 0 0 - 0 0 - 0 1 1 2 0 0 0 5 -12
p158
aVErvin Johnson MIN 04/24/2004 MIN @ DEN L 18 0 0 1 0.0 0 0 - 0 0 - 2 5 7 0 1 0 2 2 -4
p159
aVOliver Miller MIN 04/24/2004 MIN @ DEN L 2 0 0 0 - 0 0 - 0 0 - 0 0 0 0 0 0 1 1 -2
p160
aVTrenton Hassell MIN 04/24/2004 MIN @ DEN L 22 7 3 5 60.0 0 0 - 1 2 50.0 1 3 4 3 1 1 0 2 -10
p161
aVFred Hoiberg MIN 04/24/2004 MIN @ DEN L 18 1 0 3 0.0 0 2 0.0 1 1 100.0 0 1 1 0 1 0 0 0 -5
p162
aVSam Cassell MIN 04/24/2004 MIN @ DEN L 32 10 4 11 36.4 2 4 50.0 0 0 - 0 2 2 4 0 1 3 5 -18
p163
aVWally Szczerbiak MIN 04/24/2004 MIN @ DEN L 28 11 4 12 33.3 2 4 50.0 1 2 50.0 0 1 1 0 0 0 3 2 -7
p164
aVKevin Garnett MIN 04/24/2004 MIN @ DEN L 44 24 10 18 55.6 0 0 - 4 7 57.1 2 9 11 8 0 1 4 4 -15
p165
aVErvin Johnson MIN 04/21/2004 MIN vs. DEN W 18 2 1 1 100.0 0 0 - 0 0 - 2 2 4 0 1 0 1 4 11
p166
aVDarrick Martin MIN 04/21/2004 MIN vs. DEN W 9 0 0 0 - 0 0 - 0 0 - 0 0 0 3 0 0 1 1 2
p167
aVSam Cassell MIN 04/21/2004 MIN vs. DEN W 38 12 6 17 35.3 0 4 0.0 0 0 - 0 1 1 9 2 0 3 2 12
p168
aVMichael Olowokandi MIN 04/21/2004 MIN vs. DEN W 26 8 2 3 66.7 0 0 - 4 4 100.0 2 3 5 0 0 1 1 4 6
p169
aVGary Trent MIN 04/21/2004 MIN vs. DEN W 1 0 0 1 0.0 0 0 - 0 0 - 0 0 0 0 0 0 0 0 -3
p170
aVKevin Garnett MIN 04/21/2004 MIN vs. DEN W 44 20 9 27 33.3 0 1 0.0 2 2 100.0 2 20 22 10 1 3 2 1 12
p171
aVTrenton Hassell MIN 04/21/2004 MIN vs. DEN W 27 5 2 4 50.0 0 0 - 1 2 50.0 3 2 5 0 0 0 1 3 2
p172
aVMark Madsen MIN 04/21/2004 MIN vs. DEN W 6 0 0 0 - 0 0 - 0 0 - 0 0 0 0 0 0 0 0 2
p173
aVOliver Miller MIN 04/21/2004 MIN vs. DEN W 1 1 0 0 - 0 0 - 1 2 50.0 0 0 0 0 0 0 0 0 -3
p174
aVFred Hoiberg MIN 04/21/2004 MIN vs. DEN W 15 5 2 3 66.7 1 2 50.0 0 0 - 0 0 0 0 1 0 0 1 13
p175
aVLatrell Sprewell MIN 04/21/2004 MIN vs. DEN W 36 31 11 17 64.7 7 8 87.5 2 3 66.7 0 0 0 2 0 0 3 4 -1
p176
aVWally Szczerbiak MIN 04/21/2004 MIN vs. DEN W 19 11 4 6 66.7 0 0 - 3 3 100.0 0 1 1 1 0 0 0 5 17
p177
aVDarrick Martin MIN 04/18/2004 MIN vs. DEN W 6 1 0 1 0.0 0 1 0.0 1 2 50.0 0 1 1 1 0 0 0 0 -4
p178
aVKevin Garnett MIN 04/18/2004 MIN vs. DEN W 37 30 13 30 43.3 0 0 - 4 6 66.7 4 16 20 4 1 2 5 5 32
p179
aVWally Szczerbiak MIN 04/18/2004 MIN vs. DEN W 26 9 3 8 37.5 1 2 50.0 2 2 100.0 0 4 4 2 0 1 2 2 3
p180
aVOliver Miller MIN 04/18/2004 MIN vs. DEN W 0 0 0 0 - 0 0 - 0 0 - 0 0 0 0 0 0 0 0 -3
p181
aVFred Hoiberg MIN 04/18/2004 MIN vs. DEN W 5 0 0 1 0.0 0 0 - 0 0 - 0 2 2 0 0 0 1 1 -6
p182
aVMichael Olowokandi MIN 04/18/2004 MIN vs. DEN W 18 4 2 3 66.7 0 0 - 0 0 - 1 1 2 0 0 1 0 1 -4
p183
aVMark Madsen MIN 04/18/2004 MIN vs. DEN W 8 0 0 1 0.0 0 0 - 0 2 0.0 1 1 2 0 0 0 0 0 -18
p184
aVSam Cassell MIN 04/18/2004 MIN vs. DEN W 42 40 16 24 66.7 5 6 83.3 3 3 100.0 2 1 3 3 0 0 4 2 18
p185
aVLatrell Sprewell MIN 04/18/2004 MIN vs. DEN W 39 11 2 11 18.2 0 3 0.0 7 8 87.5 2 2 4 4 3 1 2 1 24
p186
aVErvin Johnson MIN 04/18/2004 MIN vs. DEN W 29 4 1 2 50.0 0 0 - 2 3 66.7 5 0 5 3 0 1 0 4 21
p187
aVTrenton Hassell MIN 04/18/2004 MIN vs. DEN W 30 7 3 6 50.0 0 0 - 1 2 50.0 3 2 5 1 1 0 0 2 10
p188
aVGary Trent MIN 04/18/2004 MIN vs. DEN W 0 0 0 0 - 0 0 - 0 0 - 0 0 0 0 0 0 0 0 -3
p189
a.