(lp0
VPLAYER TEAM DATE MATCHUP W/L MIN PTS FGM FGA FG% 3PM 3PA 3P% FTM FTA FT% OREB DREB REB AST STL BLK TOV PF +/-
p1
aVEduardo Najera DAL 04/29/2004 DAL @ SAC L 2 0 0 0 - 0 0 - 0 0 - 0 0 0 0 0 0 0 1 -6
p2
aVSteve Nash DAL 04/29/2004 DAL @ SAC L 41 24 9 19 47.4 2 4 50.0 4 4 100.0 1 6 7 14 1 0 3 1 2
p3
aVDirk Nowitzki DAL 04/29/2004 DAL @ SAC L 48 31 11 23 47.8 2 2 100.0 7 7 100.0 5 9 14 0 1 4 3 4 -1
p4
aVJosh Howard DAL 04/29/2004 DAL @ SAC L 7 0 0 1 0.0 0 0 - 0 0 - 0 0 0 0 0 0 0 1 -7
p5
aVMarquis Daniels DAL 04/29/2004 DAL @ SAC L 37 19 7 12 58.3 1 2 50.0 4 4 100.0 2 4 6 3 2 1 1 0 -4
p6
aVAntawn Jamison DAL 04/29/2004 DAL @ SAC L 30 17 7 15 46.7 1 3 33.3 2 2 100.0 2 3 5 0 1 1 3 4 -8
p7
aVShawn Bradley DAL 04/29/2004 DAL @ SAC L 1 0 0 0 - 0 0 - 0 0 - 0 0 0 0 0 0 0 0 -3
p8
aVMichael Finley DAL 04/29/2004 DAL @ SAC L 35 12 5 13 38.5 2 3 66.7 0 0 - 2 2 4 3 0 0 3 1 7
p9
aVAntoine Walker DAL 04/29/2004 DAL @ SAC L 39 15 7 17 41.2 0 2 0.0 1 1 100.0 4 9 13 3 1 1 3 4 15
p10
aVMarquis Daniels DAL 04/26/2004 DAL vs. SAC L 28 9 4 13 30.8 0 1 0.0 1 4 25.0 1 5 6 4 0 0 0 5 2
p11
aVScott Williams DAL 04/26/2004 DAL vs. SAC L 1 0 0 0 - 0 0 - 0 0 - 0 1 1 0 0 0 0 0 0
p12
aVEduardo Najera DAL 04/26/2004 DAL vs. SAC L 18 6 3 6 50.0 0 0 - 0 0 - 4 1 5 1 0 0 1 2 5
p13
aVAntawn Jamison DAL 04/26/2004 DAL vs. SAC L 19 10 4 8 50.0 1 2 50.0 1 5 20.0 3 4 7 1 1 0 0 2 -1
p14
aVDirk Nowitzki DAL 04/26/2004 DAL vs. SAC L 43 21 5 22 22.7 0 1 0.0 11 14 78.6 7 7 14 2 0 2 0 1 -5
p15
aVAntoine Walker DAL 04/26/2004 DAL vs. SAC L 25 12 6 14 42.9 0 3 0.0 0 0 - 3 5 8 0 2 0 2 3 -6
p16
aVMichael Finley DAL 04/26/2004 DAL vs. SAC L 46 16 7 15 46.7 1 7 14.3 1 3 33.3 2 0 2 2 1 2 2 3 -2
p17
aVSteve Nash DAL 04/26/2004 DAL vs. SAC L 44 11 4 11 36.4 2 6 33.3 1 1 100.0 1 6 7 9 1 0 1 5 -3
p18
aVJosh Howard DAL 04/26/2004 DAL vs. SAC L 16 7 1 9 11.1 0 1 0.0 5 6 83.3 2 3 5 0 2 0 2 5 0
p19
aVMichael Finley DAL 04/24/2004 DAL vs. SAC W 38 18 6 15 40.0 1 2 50.0 5 7 71.4 0 3 3 3 1 0 0 2 23
p20
aVMarquis Daniels DAL 04/24/2004 DAL vs. SAC W 42 22 10 20 50.0 0 2 0.0 2 5 40.0 1 1 2 3 3 0 5 4 22
p21
aVAntawn Jamison DAL 04/24/2004 DAL vs. SAC W 29 20 8 22 36.4 0 2 0.0 4 4 100.0 8 1 9 1 3 1 1 4 3
p22
aVEduardo Najera DAL 04/24/2004 DAL vs. SAC W 9 2 0 1 0.0 0 0 - 2 2 100.0 1 1 2 1 3 0 0 3 14
p23
aVDirk Nowitzki DAL 04/24/2004 DAL vs. SAC W 32 21 7 14 50.0 1 1 100.0 6 8 75.0 0 8 8 0 2 0 1 3 29
p24
aVAntoine Walker DAL 04/24/2004 DAL vs. SAC W 27 8 4 11 36.4 0 1 0.0 0 0 - 4 5 9 3 2 0 2 1 11
p25
aVSteve Nash DAL 04/24/2004 DAL vs. SAC W 28 7 3 6 50.0 1 1 100.0 0 0 - 1 4 5 5 0 0 2 4 18
p26
aVScott Williams DAL 04/24/2004 DAL vs. SAC W 8 0 0 2 0.0 0 0 - 0 0 - 2 1 3 0 0 1 0 3 -4
p27
aVTony Delk DAL 04/24/2004 DAL vs. SAC W 5 0 0 0 - 0 0 - 0 0 - 0 1 1 2 1 0 0 0 0
p28
aVJosh Howard DAL 04/24/2004 DAL vs. SAC W 22 6 2 9 22.2 0 1 0.0 2 2 100.0 6 8 14 2 4 2 4 3 9
p29
aVMarquis Daniels DAL 04/20/2004 DAL @ SAC L 36 16 5 15 33.3 0 0 - 6 6 100.0 5 6 11 0 1 0 3 2 -6
p30
aVScott Williams DAL 04/20/2004 DAL @ SAC L 2 0 0 2 0.0 0 0 - 0 0 - 0 0 0 0 0 0 0 0 0
p31
aVEduardo Najera DAL 04/20/2004 DAL @ SAC L 20 4 2 3 66.7 0 0 - 0 0 - 5 4 9 0 0 2 1 5 5
p32
aVSteve Nash DAL 04/20/2004 DAL @ SAC L 46 13 6 20 30.0 0 4 0.0 1 2 50.0 1 4 5 9 0 0 3 3 -4
p33
aVJosh Howard DAL 04/20/2004 DAL @ SAC L 19 3 1 9 11.1 0 2 0.0 1 1 100.0 6 2 8 1 0 2 1 2 1
p34
aVDirk Nowitzki DAL 04/20/2004 DAL @ SAC L 46 28 10 22 45.5 0 5 0.0 8 9 88.9 1 9 10 2 1 2 1 3 -4
p35
aVMichael Finley DAL 04/20/2004 DAL @ SAC L 39 10 4 12 33.3 2 6 33.3 0 0 - 0 3 3 2 2 1 3 2 -5
p36
aVAntawn Jamison DAL 04/20/2004 DAL @ SAC L 11 0 0 2 0.0 0 1 0.0 0 0 - 0 1 1 0 0 0 0 2 3
p37
aVAntoine Walker DAL 04/20/2004 DAL @ SAC L 21 5 2 8 25.0 0 1 0.0 1 2 50.0 5 5 10 2 1 0 1 1 -10
p38
aVJosh Howard DAL 04/18/2004 DAL @ SAC L 22 11 4 8 50.0 1 1 100.0 2 2 100.0 3 2 5 1 0 2 0 1 -5
p39
aVMichael Finley DAL 04/18/2004 DAL @ SAC L 38 9 4 13 30.8 1 8 12.5 0 0 - 2 2 4 3 0 0 1 0 -6
p40
aVShawn Bradley DAL 04/18/2004 DAL @ SAC L 2 0 0 0 - 0 0 - 0 0 - 0 0 0 0 0 0 0 1 2
p41
aVAntoine Walker DAL 04/18/2004 DAL @ SAC L 28 9 3 11 27.3 1 3 33.3 2 4 50.0 7 3 10 4 0 2 1 4 -13
p42
aVAntawn Jamison DAL 04/18/2004 DAL @ SAC L 20 18 7 10 70.0 0 0 - 4 4 100.0 2 1 3 0 0 0 1 3 -4
p43
aVSteve Nash DAL 04/18/2004 DAL @ SAC L 38 13 5 14 35.7 1 1 100.0 2 2 100.0 2 0 2 8 2 0 3 1 -14
p44
aVDirk Nowitzki DAL 04/18/2004 DAL @ SAC L 43 32 12 19 63.2 4 6 66.7 4 4 100.0 0 13 13 3 3 5 1 5 -14
p45
aVEduardo Najera DAL 04/18/2004 DAL @ SAC L 8 0 0 1 0.0 0 0 - 0 0 - 0 1 1 1 0 0 0 1 2
p46
aVMarquis Daniels DAL 04/18/2004 DAL @ SAC L 41 13 6 15 40.0 0 2 0.0 1 3 33.3 1 5 6 5 4 2 6 3 -3
p47
a.