(lp0
VPLAYER TEAM DATE MATCHUP W/L MIN PTS FGM FGA FG% 3PM 3PA 3P% FTM FTA FT% OREB DREB REB AST STL BLK TOV PF +/-
p1
aVAntonio Davis CHI 05/06/2005 CHI @ WAS L 30 6 3 7 42.9 0 0 - 0 0 - 4 5 9 1 0 1 1 3 -5
p2
aVAdrian Griffin CHI 05/06/2005 CHI @ WAS L 19 9 4 8 50.0 0 0 - 1 1 100.0 2 4 6 1 0 0 1 5 -10
p3
aVJannero Pargo CHI 05/06/2005 CHI @ WAS L 18 11 4 14 28.6 3 8 37.5 0 0 - 0 1 1 1 0 0 2 1 6
p4
aVChris Duhon CHI 05/06/2005 CHI @ WAS L 22 5 1 5 20.0 1 4 25.0 2 2 100.0 1 4 5 0 0 0 2 0 2
p5
aVKirk Hinrich CHI 05/06/2005 CHI @ WAS L 42 22 7 15 46.7 3 4 75.0 5 5 100.0 0 4 4 9 1 2 3 5 -5
p6
aVBen Gordon CHI 05/06/2005 CHI @ WAS L 15 0 0 1 0.0 0 1 0.0 0 0 - 0 3 3 2 1 0 5 1 -11
p7
aVLawrence Funderburke CHI 05/06/2005 CHI @ WAS L 8 2 1 1 100.0 0 0 - 0 0 - 0 0 0 1 0 0 0 2 9
p8
aVAndres Nocioni CHI 05/06/2005 CHI @ WAS L 37 22 7 12 58.3 2 3 66.7 6 8 75.0 1 6 7 2 0 0 1 5 2
p9
aVTyson Chandler CHI 05/06/2005 CHI @ WAS L 36 14 4 11 36.4 0 0 - 6 8 75.0 4 7 11 1 1 2 1 1 -10
p10
aVOthella Harrington CHI 05/06/2005 CHI @ WAS L 12 0 0 3 0.0 0 0 - 0 2 0.0 1 1 2 1 1 0 0 2 7
p11
aVTyson Chandler CHI 05/04/2005 CHI vs. WAS L 36 22 9 11 81.8 0 0 - 4 9 44.4 5 5 10 1 0 2 1 5 7
p12
aVKirk Hinrich CHI 05/04/2005 CHI vs. WAS L 40 23 7 19 36.8 6 7 85.7 3 5 60.0 1 2 3 7 3 1 4 3 0
p13
aVAntonio Davis CHI 05/04/2005 CHI vs. WAS L 27 3 1 4 25.0 0 0 - 1 2 50.0 2 4 6 1 0 0 1 4 -6
p14
aVAndres Nocioni CHI 05/04/2005 CHI vs. WAS L 28 3 1 8 12.5 0 2 0.0 1 2 50.0 1 4 5 3 0 2 1 2 -14
p15
aVLawrence Funderburke CHI 05/04/2005 CHI vs. WAS L 2 0 0 0 - 0 0 - 0 0 - 0 0 0 0 0 0 0 0 -6
p16
aVChris Duhon CHI 05/04/2005 CHI vs. WAS L 33 8 3 9 33.3 2 6 33.3 0 0 - 1 1 2 4 0 0 2 3 0
p17
aVOthella Harrington CHI 05/04/2005 CHI vs. WAS L 21 12 5 8 62.5 0 0 - 2 4 50.0 1 1 2 0 0 0 3 2 -8
p18
aVJannero Pargo CHI 05/04/2005 CHI vs. WAS L 3 10 3 4 75.0 3 3 100.0 1 2 50.0 0 0 0 1 0 0 0 3 4
p19
aVEric Piatkowski CHI 05/04/2005 CHI vs. WAS L 7 0 0 0 - 0 0 - 0 0 - 0 2 2 1 0 0 0 0 -5
p20
aVBen Gordon CHI 05/04/2005 CHI vs. WAS L 34 27 10 19 52.6 2 5 40.0 5 6 83.3 2 2 4 5 0 0 3 5 18
p21
aVAdrian Griffin CHI 05/04/2005 CHI vs. WAS L 9 2 1 3 33.3 0 0 - 0 0 - 0 2 2 1 2 0 0 0 0
p22
aVAdrian Griffin CHI 05/02/2005 CHI @ WAS L 22 13 6 8 75.0 0 0 - 1 2 50.0 2 2 4 3 1 0 0 6 9
p23
aVLawrence Funderburke CHI 05/02/2005 CHI @ WAS L 13 1 0 0 - 0 0 - 1 2 50.0 0 2 2 0 0 0 0 5 8
p24
aVChris Duhon CHI 05/02/2005 CHI @ WAS L 9 0 0 0 - 0 0 - 0 0 - 0 0 0 0 0 0 1 0 -18
p25
aVKirk Hinrich CHI 05/02/2005 CHI @ WAS L 40 18 6 17 35.3 2 6 33.3 4 4 100.0 0 4 4 5 3 0 1 0 -23
p26
aVBen Gordon CHI 05/02/2005 CHI @ WAS L 26 8 1 13 7.7 1 7 14.3 5 5 100.0 1 2 3 5 2 0 1 3 -2
p27
aVAndres Nocioni CHI 05/02/2005 CHI @ WAS L 20 5 2 6 33.3 1 3 33.3 0 0 - 1 2 3 1 0 0 1 1 -19
p28
aVEric Piatkowski CHI 05/02/2005 CHI @ WAS L 16 9 2 6 33.3 2 6 33.3 3 4 75.0 0 3 3 1 1 0 0 1 13
p29
aVOthella Harrington CHI 05/02/2005 CHI @ WAS L 9 6 2 4 50.0 0 0 - 2 3 66.7 1 1 2 0 0 0 1 4 -8
p30
aVAntonio Davis CHI 05/02/2005 CHI @ WAS L 29 8 3 9 33.3 0 0 - 2 4 50.0 4 3 7 0 1 0 4 4 -11
p31
aVJannero Pargo CHI 05/02/2005 CHI @ WAS L 20 18 6 17 35.3 4 11 36.4 2 3 66.7 1 1 2 2 1 0 3 5 9
p32
aVTyson Chandler CHI 05/02/2005 CHI @ WAS L 36 13 1 6 16.7 0 0 - 11 15 73.3 6 7 13 1 0 1 2 4 7
p33
aVAdrian Griffin CHI 04/30/2005 CHI @ WAS L 13 4 1 5 20.0 0 0 - 2 2 100.0 0 1 1 1 0 0 1 2 -6
p34
aVAndres Nocioni CHI 04/30/2005 CHI @ WAS L 32 12 5 11 45.5 1 4 25.0 1 2 50.0 1 8 9 2 0 0 4 5 -10
p35
aVJannero Pargo CHI 04/30/2005 CHI @ WAS L 22 5 2 10 20.0 1 7 14.3 0 0 - 0 2 2 4 1 0 2 3 0
p36
aVJared Reiner CHI 04/30/2005 CHI @ WAS L 4 0 0 1 0.0 0 0 - 0 0 - 1 1 2 0 0 0 0 1 0
p37
aVChris Duhon CHI 04/30/2005 CHI @ WAS L 31 12 3 8 37.5 2 4 50.0 4 5 80.0 1 0 1 4 0 0 3 2 -13
p38
aVBen Gordon CHI 04/30/2005 CHI @ WAS L 24 8 2 9 22.2 1 3 33.3 3 4 75.0 2 1 3 0 1 0 3 3 -19
p39
aVTyson Chandler CHI 04/30/2005 CHI @ WAS L 27 15 4 8 50.0 0 0 - 7 8 87.5 8 2 10 1 0 4 2 6 -4
p40
aVLawrence Funderburke CHI 04/30/2005 CHI @ WAS L 0 0 0 0 - 0 0 - 0 0 - 0 0 0 0 0 0 0 0 0
p41
aVOthella Harrington CHI 04/30/2005 CHI @ WAS L 20 12 5 6 83.3 0 0 - 2 2 100.0 0 1 1 0 0 0 1 5 -20
p42
aVKirk Hinrich CHI 04/30/2005 CHI @ WAS L 27 13 5 11 45.5 1 6 16.7 2 5 40.0 1 3 4 4 0 0 1 4 -12
p43
aVEric Piatkowski CHI 04/30/2005 CHI @ WAS L 9 5 2 4 50.0 1 2 50.0 0 0 - 0 0 0 0 1 0 0 1 -5
p44
aVAntonio Davis CHI 04/30/2005 CHI @ WAS L 29 13 4 11 36.4 0 0 - 5 6 83.3 5 6 11 3 2 0 2 6 -1
p45
aVJannero Pargo CHI 04/27/2005 CHI vs. WAS W 12 8 3 6 50.0 2 3 66.7 0 0 - 0 0 0 2 1 0 1 2 7
p46
aVTyson Chandler CHI 04/27/2005 CHI vs. WAS W 23 4 1 3 33.3 0 0 - 2 2 100.0 3 4 7 1 0 1 1 6 9
p47
aVChris Duhon CHI 04/27/2005 CHI vs. WAS W 33 5 1 7 14.3 0 4 0.0 3 4 75.0 0 8 8 7 0 0 2 0 0
p48
aVJared Reiner CHI 04/27/2005 CHI vs. WAS W 0 0 0 0 - 0 0 - 0 0 - 0 0 0 0 0 0 0 0 -2
p49
aVOthella Harrington CHI 04/27/2005 CHI vs. WAS W 23 8 4 10 40.0 0 0 - 0 0 - 1 2 3 1 0 0 1 2 -10
p50
aVKirk Hinrich CHI 04/27/2005 CHI vs. WAS W 25 34 12 15 80.0 5 5 100.0 5 6 83.3 1 1 2 3 2 0 4 4 -4
p51
aVAdrian Griffin CHI 04/27/2005 CHI vs. WAS W 23 6 3 5 60.0 0 0 - 0 0 - 1 6 7 3 2 0 1 1 13
p52
aVBen Gordon CHI 04/27/2005 CHI vs. WAS W 19 14 6 13 46.2 0 1 0.0 2 2 100.0 0 0 0 1 0 0 1 2 5
p53
aVAndres Nocioni CHI 04/27/2005 CHI vs. WAS W 36 10 4 12 33.3 0 1 0.0 2 3 66.7 1 6 7 2 1 3 2 3 11
p54
aVEric Piatkowski CHI 04/27/2005 CHI vs. WAS W 16 6 1 2 50.0 1 1 100.0 3 3 100.0 0 3 3 0 2 0 1 1 16
p55
aVAntonio Davis CHI 04/27/2005 CHI vs. WAS W 29 18 5 9 55.6 0 0 - 8 9 88.9 1 4 5 3 1 1 1 5 5
p56
aVTyson Chandler CHI 04/24/2005 CHI vs. WAS W 17 2 0 1 0.0 0 0 - 2 4 50.0 3 4 7 3 0 3 1 5 14
p57
aVChris Duhon CHI 04/24/2005 CHI vs. WAS W 34 7 3 8 37.5 1 4 25.0 0 0 - 3 7 10 6 2 0 2 1 5
p58
aVEric Piatkowski CHI 04/24/2005 CHI vs. WAS W 16 3 1 7 14.3 1 4 25.0 0 0 - 1 0 1 1 0 1 0 0 0
p59
aVKirk Hinrich CHI 04/24/2005 CHI vs. WAS W 40 17 8 23 34.8 0 5 0.0 1 4 25.0 1 4 5 7 3 1 1 2 10
p60
aVAntonio Davis CHI 04/24/2005 CHI vs. WAS W 29 9 4 6 66.7 0 0 - 1 2 50.0 1 2 3 3 0 2 0 3 7
p61
aVBen Gordon CHI 04/24/2005 CHI vs. WAS W 33 30 11 19 57.9 3 5 60.0 5 8 62.5 1 2 3 2 1 2 0 4 10
p62
aVOthella Harrington CHI 04/24/2005 CHI vs. WAS W 19 10 5 11 45.5 0 0 - 0 0 - 2 3 5 1 0 0 2 4 -6
p63
aVLawrence Funderburke CHI 04/24/2005 CHI vs. WAS W 3 0 0 1 0.0 0 0 - 0 0 - 0 1 1 0 0 0 0 1 0
p64
aVAndres Nocioni CHI 04/24/2005 CHI vs. WAS W 47 25 8 18 44.4 2 4 50.0 7 8 87.5 3 15 18 4 0 1 2 4 10
p65
aVJared Reiner CHI 04/24/2005 CHI vs. WAS W 2 0 0 0 - 0 0 - 0 0 - 1 0 1 0 0 0 1 2 -5
p66
a.