(lp0
VPLAYER TEAM DATE MATCHUP W/L MIN PTS FGM FGA FG% 3PM 3PA 3P% FTM FTA FT% OREB DREB REB AST STL BLK TOV PF +/-
p1
aVKeyon Dooling MIA 06/06/2005 MIA vs. DET L 16 6 3 6 50.0 0 1 0.0 0 0 - 0 0 0 1 0 0 2 3 -5
p2
aVDwyane Wade MIA 06/06/2005 MIA vs. DET L 43 20 7 20 35.0 0 1 0.0 6 7 85.7 1 0 1 4 1 0 5 5 -4
p3
aVShaquille O'Neal MIA 06/06/2005 MIA vs. DET L 40 27 12 19 63.2 0 0 - 3 6 50.0 2 7 9 1 2 3 5 5 -4
p4
aVDamon Jones MIA 06/06/2005 MIA vs. DET L 32 1 0 2 0.0 0 1 0.0 1 2 50.0 0 2 2 2 1 0 1 3 2
p5
aVEddie Jones MIA 06/06/2005 MIA vs. DET L 42 10 4 12 33.3 2 6 33.3 0 0 - 2 5 7 3 2 1 1 1 -7
p6
aVRasual Butler MIA 06/06/2005 MIA vs. DET L 11 0 0 2 0.0 0 2 0.0 0 0 - 0 2 2 0 0 0 1 2 -3
p7
aVAlonzo Mourning MIA 06/06/2005 MIA vs. DET L 10 5 2 2 100.0 0 0 - 1 2 50.0 1 3 4 0 0 1 0 0 -12
p8
aVUdonis Haslem MIA 06/06/2005 MIA vs. DET L 45 13 4 6 66.7 0 0 - 5 7 71.4 2 8 10 1 3 1 0 3 3
p9
aVSteven Smith MIA 06/06/2005 MIA vs. DET L 1 0 0 0 - 0 0 - 0 0 - 0 0 0 0 0 0 0 0 0
p10
aVShandon Anderson MIA 06/04/2005 MIA @ DET L 7 0 0 0 - 0 0 - 0 0 - 0 1 1 0 1 0 1 1 0
p11
aVEddie Jones MIA 06/04/2005 MIA @ DET L 34 3 1 9 11.1 0 6 0.0 1 1 100.0 0 3 3 1 0 0 2 2 -11
p12
aVChristian Laettner MIA 06/04/2005 MIA @ DET L 6 0 0 1 0.0 0 0 - 0 0 - 0 1 1 0 0 0 0 1 -9
p13
aVUdonis Haslem MIA 06/04/2005 MIA @ DET L 36 8 3 5 60.0 0 0 - 2 2 100.0 0 10 10 0 0 0 1 2 -10
p14
aVDamon Jones MIA 06/04/2005 MIA @ DET L 37 7 3 7 42.9 1 3 33.3 0 0 - 0 2 2 6 0 0 3 0 -25
p15
aVSteven Smith MIA 06/04/2005 MIA @ DET L 6 0 0 2 0.0 0 0 - 0 0 - 0 0 0 0 0 0 0 0 3
p16
aVShaquille O'Neal MIA 06/04/2005 MIA @ DET L 35 24 11 18 61.1 0 0 - 2 6 33.3 4 9 13 4 0 5 6 3 -15
p17
aVKeyon Dooling MIA 06/04/2005 MIA @ DET L 20 10 3 8 37.5 0 0 - 4 5 80.0 0 3 3 2 0 0 2 5 -12
p18
aVAlonzo Mourning MIA 06/04/2005 MIA @ DET L 14 1 0 2 0.0 0 0 - 1 2 50.0 1 3 4 0 0 5 1 3 -14
p19
aVMichael Doleac MIA 06/04/2005 MIA @ DET L 5 0 0 1 0.0 0 0 - 0 0 - 0 1 1 0 0 0 0 0 -2
p20
aVRasual Butler MIA 06/04/2005 MIA @ DET L 41 13 5 11 45.5 2 4 50.0 1 2 50.0 0 2 2 2 0 0 0 3 -30
p21
aVDwyane Wade MIA 06/02/2005 MIA vs. DET W 27 15 4 9 44.4 0 0 - 7 8 87.5 1 2 3 4 5 0 1 2 24
p22
aVShaquille O'Neal MIA 06/02/2005 MIA vs. DET W 33 20 9 15 60.0 0 0 - 2 6 33.3 0 5 5 0 0 0 3 5 5
p23
aVRasual Butler MIA 06/02/2005 MIA vs. DET W 23 12 5 10 50.0 2 4 50.0 0 0 - 0 3 3 1 0 1 0 3 0
p24
aVDamon Jones MIA 06/02/2005 MIA vs. DET W 36 15 7 12 58.3 1 4 25.0 0 0 - 0 2 2 6 0 0 1 1 9
p25
aVAlonzo Mourning MIA 06/02/2005 MIA vs. DET W 15 5 2 3 66.7 0 0 - 1 4 25.0 1 4 5 0 0 4 2 3 7
p26
aVKeyon Dooling MIA 06/02/2005 MIA vs. DET W 16 0 0 3 0.0 0 0 - 0 0 - 0 0 0 3 0 0 1 2 -1
p27
aVEddie Jones MIA 06/02/2005 MIA vs. DET W 42 7 3 8 37.5 0 0 - 1 2 50.0 1 6 7 3 0 0 4 3 4
p28
aVChristian Laettner MIA 06/02/2005 MIA vs. DET W 5 0 0 1 0.0 0 0 - 0 0 - 0 0 0 0 1 0 1 1 -2
p29
aVUdonis Haslem MIA 06/02/2005 MIA vs. DET W 43 14 6 8 75.0 0 0 - 2 3 66.7 2 11 13 0 0 1 1 2 14
p30
aVChristian Laettner MIA 05/31/2005 MIA @ DET L 9 4 1 2 50.0 0 0 - 2 2 100.0 0 3 3 0 0 0 0 0 -4
p31
aVDwyane Wade MIA 05/31/2005 MIA @ DET L 42 28 10 22 45.5 0 2 0.0 8 10 80.0 0 2 2 6 1 0 3 4 -6
p32
aVRasual Butler MIA 05/31/2005 MIA @ DET L 17 2 1 4 25.0 0 3 0.0 0 0 - 0 1 1 1 1 0 0 2 -14
p33
aVMichael Doleac MIA 05/31/2005 MIA @ DET L 10 4 2 3 66.7 0 0 - 0 0 - 1 1 2 0 0 0 0 2 -6
p34
aVShaquille O'Neal MIA 05/31/2005 MIA @ DET L 25 12 4 9 44.4 0 0 - 4 10 40.0 2 3 5 1 0 0 2 4 -2
p35
aVKeyon Dooling MIA 05/31/2005 MIA @ DET L 22 11 3 7 42.9 1 4 25.0 4 4 100.0 0 1 1 2 0 0 2 3 -12
p36
aVAlonzo Mourning MIA 05/31/2005 MIA @ DET L 16 4 2 2 100.0 0 0 - 0 2 0.0 2 2 4 0 0 4 2 3 -6
p37
aVUdonis Haslem MIA 05/31/2005 MIA @ DET L 35 14 4 9 44.4 0 0 - 6 6 100.0 4 5 9 0 0 0 1 4 -2
p38
aVDamon Jones MIA 05/31/2005 MIA @ DET L 25 6 2 4 50.0 2 3 66.7 0 0 - 0 1 1 3 0 0 0 3 2
p39
aVEddie Jones MIA 05/31/2005 MIA @ DET L 39 11 3 10 30.0 0 2 0.0 5 5 100.0 1 9 10 4 0 1 0 5 0
p40
aVAlonzo Mourning MIA 05/29/2005 MIA @ DET W 17 4 0 1 0.0 0 0 - 4 4 100.0 0 4 4 1 0 1 0 6 4
p41
aVShaquille O'Neal MIA 05/29/2005 MIA @ DET W 36 24 8 13 61.5 0 0 - 8 12 66.7 0 6 6 5 0 1 3 4 15
p42
aVDamon Jones MIA 05/29/2005 MIA @ DET W 29 8 2 6 33.3 1 4 25.0 3 7 42.9 1 6 7 5 0 0 0 0 19
p43
aVEddie Jones MIA 05/29/2005 MIA @ DET W 40 19 4 9 44.4 3 6 50.0 8 8 100.0 1 3 4 4 0 0 1 5 14
p44
aVChristian Laettner MIA 05/29/2005 MIA @ DET W 12 0 0 0 - 0 0 - 0 0 - 0 3 3 1 0 0 1 2 -9
p45
aVRasual Butler MIA 05/29/2005 MIA @ DET W 18 9 3 4 75.0 3 3 100.0 0 1 0.0 0 4 4 0 0 0 0 2 5
p46
aVDwyane Wade MIA 05/29/2005 MIA @ DET W 38 36 12 21 57.1 0 0 - 12 18 66.7 2 5 7 2 0 1 2 5 -1
p47
aVKeyon Dooling MIA 05/29/2005 MIA @ DET W 19 7 2 5 40.0 0 1 0.0 3 4 75.0 0 1 1 3 2 0 1 2 -10
p48
aVUdonis Haslem MIA 05/29/2005 MIA @ DET W 31 6 3 6 50.0 0 0 - 0 0 - 1 2 3 1 1 0 0 3 8
p49
aVDamon Jones MIA 05/25/2005 MIA vs. DET W 32 14 5 7 71.4 2 3 66.7 2 2 100.0 1 6 7 4 2 0 1 2 13
p50
aVShaquille O'Neal MIA 05/25/2005 MIA vs. DET W 34 17 8 15 53.3 0 0 - 1 5 20.0 2 8 10 1 0 2 2 4 7
p51
aVMichael Doleac MIA 05/25/2005 MIA vs. DET W 4 0 0 0 - 0 0 - 0 0 - 0 0 0 0 0 0 0 0 1
p52
aVAlonzo Mourning MIA 05/25/2005 MIA vs. DET W 21 6 2 2 100.0 0 0 - 2 2 100.0 1 1 2 0 2 4 2 4 4
p53
aVKeyon Dooling MIA 05/25/2005 MIA vs. DET W 19 3 1 7 14.3 0 2 0.0 1 2 50.0 0 2 2 0 0 0 0 1 -2
p54
aVDwyane Wade MIA 05/25/2005 MIA vs. DET W 42 40 15 28 53.6 0 0 - 10 10 100.0 3 5 8 6 1 2 4 2 9
p55
aVEddie Jones MIA 05/25/2005 MIA vs. DET W 43 6 2 8 25.0 1 5 20.0 1 2 50.0 0 7 7 3 0 1 4 4 4
p56
aVChristian Laettner MIA 05/25/2005 MIA vs. DET W 13 4 2 4 50.0 0 0 - 0 0 - 1 2 3 0 0 0 1 1 -10
p57
aVRasual Butler MIA 05/25/2005 MIA vs. DET W 8 2 1 3 33.3 0 1 0.0 0 0 - 0 0 0 0 0 0 0 0 -6
p58
aVUdonis Haslem MIA 05/25/2005 MIA vs. DET W 25 0 0 4 0.0 0 0 - 0 0 - 1 6 7 0 1 0 2 5 10
p59
aVEddie Jones MIA 05/23/2005 MIA vs. DET L 43 22 9 13 69.2 3 4 75.0 1 1 100.0 1 7 8 3 2 1 1 3 -9
p60
aVRasual Butler MIA 05/23/2005 MIA vs. DET L 10 0 0 3 0.0 0 2 0.0 0 0 - 1 2 3 0 0 0 1 0 3
p61
aVAlonzo Mourning MIA 05/23/2005 MIA vs. DET L 21 4 2 2 100.0 0 0 - 0 2 0.0 1 2 3 1 1 2 1 1 -7
p62
aVUdonis Haslem MIA 05/23/2005 MIA vs. DET L 39 6 3 7 42.9 0 0 - 0 0 - 2 4 6 2 0 0 1 2 -6
p63
aVDamon Jones MIA 05/23/2005 MIA vs. DET L 26 5 2 6 33.3 1 4 25.0 0 1 0.0 0 1 1 5 0 0 0 1 -9
p64
aVShaquille O'Neal MIA 05/23/2005 MIA vs. DET L 33 20 9 14 64.3 0 0 - 2 4 50.0 1 4 5 0 0 3 2 1 -1
p65
aVChristian Laettner MIA 05/23/2005 MIA vs. DET L 3 0 0 0 - 0 0 - 0 0 - 0 1 1 0 0 0 0 0 -2
p66
aVDwyane Wade MIA 05/23/2005 MIA vs. DET L 43 16 7 25 28.0 0 1 0.0 2 2 100.0 1 5 6 4 2 3 2 3 -14
p67
aVKeyon Dooling MIA 05/23/2005 MIA vs. DET L 22 8 4 7 57.1 0 0 - 0 0 - 0 1 1 2 1 0 1 1 0
p68
aVDwyane Wade MIA 05/14/2005 MIA @ WAS W 42 42 13 22 59.1 0 0 - 16 17 94.1 3 4 7 4 2 1 6 5 1
p69
aVShandon Anderson MIA 05/14/2005 MIA @ WAS W 5 0 0 0 - 0 0 - 0 0 - 0 2 2 0 0 0 0 1 -2
p70
aVAlonzo Mourning MIA 05/14/2005 MIA @ WAS W 17 0 0 1 0.0 0 0 - 0 0 - 1 6 7 1 0 2 3 4 -14
p71
aVEddie Jones MIA 05/14/2005 MIA @ WAS W 40 13 5 14 35.7 2 8 25.0 1 3 33.3 0 5 5 2 3 1 2 3 0
p72
aVKeyon Dooling MIA 05/14/2005 MIA @ WAS W 8 0 0 2 0.0 0 1 0.0 0 0 - 0 1 1 1 0 0 0 5 2
p73
aVMichael Doleac MIA 05/14/2005 MIA @ WAS W 19 8 3 8 37.5 0 0 - 2 2 100.0 1 5 6 0 1 0 3 4 3
p74
aVRasual Butler MIA 05/14/2005 MIA @ WAS W 13 5 2 4 50.0 1 2 50.0 0 0 - 0 2 2 1 0 0 0 3 7
p75
aVUdonis Haslem MIA 05/14/2005 MIA @ WAS W 43 8 2 9 22.2 0 0 - 4 6 66.7 5 8 13 0 0 1 1 1 4
p76
aVDamon Jones MIA 05/14/2005 MIA @ WAS W 40 19 6 14 42.9 6 13 46.2 1 1 100.0 0 3 3 6 1 0 2 3 4
p77
aVChristian Laettner MIA 05/14/2005 MIA @ WAS W 12 4 1 2 50.0 0 0 - 2 2 100.0 0 1 1 3 0 0 0 3 15
p78
aVDamon Jones MIA 05/12/2005 MIA @ WAS W 41 16 5 11 45.5 3 9 33.3 3 4 75.0 0 1 1 6 0 0 2 1 7
p79
aVEddie Jones MIA 05/12/2005 MIA @ WAS W 42 16 4 9 44.4 2 4 50.0 6 7 85.7 0 4 4 2 1 1 1 3 7
p80
aVMichael Doleac MIA 05/12/2005 MIA @ WAS W 13 2 1 3 33.3 0 0 - 0 0 - 0 3 3 0 0 0 0 4 -3
p81
aVAlonzo Mourning MIA 05/12/2005 MIA @ WAS W 35 14 5 8 62.5 0 0 - 4 4 100.0 4 9 13 0 0 4 2 3 10
p82
aVUdonis Haslem MIA 05/12/2005 MIA @ WAS W 40 12 6 9 66.7 0 0 - 0 0 - 6 6 12 4 1 0 1 5 4
p83
aVDwyane Wade MIA 05/12/2005 MIA @ WAS W 44 31 14 27 51.9 0 1 0.0 3 4 75.0 3 6 9 6 0 2 8 3 8
p84
aVKeyon Dooling MIA 05/12/2005 MIA @ WAS W 17 9 4 8 50.0 1 1 100.0 0 0 - 0 0 0 4 1 0 0 1 1
p85
aVShandon Anderson MIA 05/12/2005 MIA @ WAS W 9 2 1 3 33.3 0 0 - 0 0 - 1 0 1 0 0 0 0 0 1
p86
aVUdonis Haslem MIA 05/10/2005 MIA vs. WAS W 45 14 5 9 55.6 0 0 - 4 5 80.0 3 10 13 1 0 1 4 3 2
p87
aVEddie Jones MIA 05/10/2005 MIA vs. WAS W 44 21 8 13 61.5 5 9 55.6 0 1 0.0 0 3 3 0 2 1 2 3 12
p88
aVMichael Doleac MIA 05/10/2005 MIA vs. WAS W 3 0 0 0 - 0 0 - 0 0 - 0 0 0 0 0 0 0 0 0
p89
aVChristian Laettner MIA 05/10/2005 MIA vs. WAS W 3 1 0 1 0.0 0 0 - 1 2 50.0 0 2 2 0 0 0 0 2 4
p90
aVKeyon Dooling MIA 05/10/2005 MIA vs. WAS W 17 5 2 4 50.0 1 2 50.0 0 0 - 1 2 3 2 2 0 1 5 -1
p91
aVAlonzo Mourning MIA 05/10/2005 MIA vs. WAS W 8 3 1 1 100.0 0 0 - 1 4 25.0 1 2 3 0 0 0 0 4 10
p92
aVRasual Butler MIA 05/10/2005 MIA vs. WAS W 6 3 1 2 50.0 1 2 50.0 0 0 - 0 0 0 0 0 0 0 2 -8
p93
aVDwyane Wade MIA 05/10/2005 MIA vs. WAS W 40 31 10 15 66.7 0 2 0.0 11 19 57.9 1 6 7 15 3 2 7 2 7
p94
aVDamon Jones MIA 05/10/2005 MIA vs. WAS W 37 14 5 10 50.0 3 8 37.5 1 1 100.0 0 2 2 1 0 0 1 0 8
p95
aVShaquille O'Neal MIA 05/10/2005 MIA vs. WAS W 37 16 6 11 54.5 0 0 - 4 8 50.0 1 6 7 2 0 2 3 4 -4
p96
aVUdonis Haslem MIA 05/08/2005 MIA vs. WAS W 24 8 4 5 80.0 0 0 - 0 0 - 1 6 7 0 1 0 1 5 22
p97
aVShaquille O'Neal MIA 05/08/2005 MIA vs. WAS W 25 19 8 12 66.7 0 0 - 3 8 37.5 3 4 7 1 2 0 4 6 12
p98
aVEddie Jones MIA 05/08/2005 MIA vs. WAS W 41 12 5 9 55.6 1 5 20.0 1 2 50.0 0 8 8 5 2 1 0 4 31
p99
aVShandon Anderson MIA 05/08/2005 MIA vs. WAS W 5 0 0 1 0.0 0 0 - 0 0 - 0 2 2 1 0 0 0 1 -15
p100
aVRasual Butler MIA 05/08/2005 MIA vs. WAS W 12 8 3 8 37.5 2 5 40.0 0 0 - 0 0 0 1 0 0 0 0 4
p101
aVMichael Doleac MIA 05/08/2005 MIA vs. WAS W 6 0 0 0 - 0 0 - 0 0 - 0 2 2 0 0 0 0 1 2
p102
aVChristian Laettner MIA 05/08/2005 MIA vs. WAS W 23 6 3 6 50.0 0 0 - 0 0 - 1 3 4 1 1 0 1 1 2
p103
aVDwyane Wade MIA 05/08/2005 MIA vs. WAS W 39 20 7 18 38.9 0 1 0.0 6 8 75.0 2 3 5 7 0 1 4 2 13
p104
aVAlonzo Mourning MIA 05/08/2005 MIA vs. WAS W 18 7 3 4 75.0 0 0 - 1 3 33.3 1 3 4 0 1 3 1 4 5
p105
aVDamon Jones MIA 05/08/2005 MIA vs. WAS W 25 10 4 10 40.0 2 5 40.0 0 0 - 1 2 3 4 1 0 2 2 3
p106
aVKeyon Dooling MIA 05/08/2005 MIA vs. WAS W 23 15 6 9 66.7 2 4 50.0 1 2 50.0 0 3 3 3 0 1 2 2 16
p107
aVShandon Anderson MIA 05/01/2005 MIA @ NJN W 19 2 0 0 - 0 0 - 2 2 100.0 0 1 1 3 0 0 2 2 -7
p108
aVShaquille O'Neal MIA 05/01/2005 MIA @ NJN W 27 17 7 14 50.0 0 0 - 3 6 50.0 1 7 8 3 1 1 6 4 13
p109
aVDwyane Wade MIA 05/01/2005 MIA @ NJN W 40 34 13 20 65.0 1 1 100.0 7 9 77.8 1 3 4 9 1 0 3 4 14
p110
aVAlonzo Mourning MIA 05/01/2005 MIA @ NJN W 20 11 4 5 80.0 0 0 - 3 6 50.0 1 3 4 1 0 1 3 4 -2
p111
aVMichael Doleac MIA 05/01/2005 MIA @ NJN W 1 0 0 0 - 0 0 - 0 0 - 0 0 0 0 0 0 0 0 -2
p112
aVEddie Jones MIA 05/01/2005 MIA @ NJN W 36 21 7 11 63.6 5 7 71.4 2 3 66.7 1 4 5 4 2 0 2 6 17
p113
aVDamon Jones MIA 05/01/2005 MIA @ NJN W 34 10 3 9 33.3 2 8 25.0 2 4 50.0 0 5 5 3 0 0 0 2 18
p114
aVChristian Laettner MIA 05/01/2005 MIA @ NJN W 12 0 0 1 0.0 0 1 0.0 0 0 - 0 1 1 0 0 0 1 1 -1
p115
aVKeyon Dooling MIA 05/01/2005 MIA @ NJN W 15 11 4 6 66.7 1 1 100.0 2 2 100.0 0 0 0 1 0 0 0 1 -1
p116
aVUdonis Haslem MIA 05/01/2005 MIA @ NJN W 36 4 1 5 20.0 0 0 - 2 2 100.0 1 10 11 0 1 1 3 4 16
p117
aVAlonzo Mourning MIA 04/28/2005 MIA @ NJN W 12 0 0 1 0.0 0 0 - 0 0 - 1 2 3 1 1 1 1 2 -10
p118
aVSteven Smith MIA 04/28/2005 MIA @ NJN W 0 0 0 0 - 0 0 - 0 0 - 0 0 0 0 0 0 0 0 3
p119
aVDamon Jones MIA 04/28/2005 MIA @ NJN W 38 12 4 13 30.8 4 11 36.4 0 0 - 0 2 2 3 1 0 2 2 3
p120
aVShandon Anderson MIA 04/28/2005 MIA @ NJN W 17 2 1 3 33.3 0 1 0.0 0 0 - 0 4 4 1 2 0 1 2 -1
p121
aVShaquille O'Neal MIA 04/28/2005 MIA @ NJN W 46 25 8 19 42.1 0 0 - 9 15 60.0 1 5 6 3 0 1 3 5 10
p122
aVChristian Laettner MIA 04/28/2005 MIA @ NJN W 11 0 0 0 - 0 0 - 0 0 - 0 1 1 2 1 0 0 3 11
p123
aVEddie Jones MIA 04/28/2005 MIA @ NJN W 49 20 7 12 58.3 5 9 55.6 1 3 33.3 0 5 5 1 0 0 1 5 -3
p124
aVUdonis Haslem MIA 04/28/2005 MIA @ NJN W 47 14 6 10 60.0 0 0 - 2 8 25.0 6 13 19 3 0 0 1 2 -8
p125
aVDwyane Wade MIA 04/28/2005 MIA @ NJN W 52 22 6 19 31.6 0 0 - 10 12 83.3 1 9 10 8 4 1 9 3 5
p126
aVKeyon Dooling MIA 04/28/2005 MIA @ NJN W 18 13 6 7 85.7 1 1 100.0 0 0 - 0 1 1 0 0 0 0 1 5
p127
aVAlonzo Mourning MIA 04/26/2005 MIA vs. NJN W 17 21 6 8 75.0 0 0 - 9 12 75.0 4 5 9 0 0 1 3 6 7
p128
aVShaquille O'Neal MIA 04/26/2005 MIA vs. NJN W 27 14 4 9 44.4 0 0 - 6 11 54.5 1 9 10 4 0 1 2 4 10
p129
aVUdonis Haslem MIA 04/26/2005 MIA vs. NJN W 22 6 2 7 28.6 0 0 - 2 2 100.0 2 4 6 0 0 0 0 5 7
p130
aVMichael Doleac MIA 04/26/2005 MIA vs. NJN W 5 2 1 1 100.0 0 0 - 0 0 - 0 0 0 0 0 1 0 2 0
p131
aVRasual Butler MIA 04/26/2005 MIA vs. NJN W 17 2 1 7 14.3 0 2 0.0 0 0 - 0 0 0 1 0 0 0 1 1
p132
aVDamon Jones MIA 04/26/2005 MIA vs. NJN W 31 14 4 6 66.7 4 6 66.7 2 4 50.0 0 1 1 2 1 0 1 3 16
p133
aVShandon Anderson MIA 04/26/2005 MIA vs. NJN W 17 2 1 4 25.0 0 0 - 0 0 - 1 3 4 1 0 0 0 0 -3
p134
aVKeyon Dooling MIA 04/26/2005 MIA vs. NJN W 17 10 4 4 100.0 0 0 - 2 2 100.0 0 0 0 0 0 0 1 1 1
p135
aVEddie Jones MIA 04/26/2005 MIA vs. NJN W 34 14 6 10 60.0 1 4 25.0 1 1 100.0 2 4 6 1 2 1 1 5 23
p136
aVDwyane Wade MIA 04/26/2005 MIA vs. NJN W 40 17 6 17 35.3 0 1 0.0 5 6 83.3 3 3 6 10 2 2 6 3 17
p137
aVChristian Laettner MIA 04/26/2005 MIA vs. NJN W 13 2 1 2 50.0 0 0 - 0 0 - 1 4 5 0 1 0 1 1 6
p138
aVShaquille O'Neal MIA 04/24/2005 MIA vs. NJN W 32 17 7 13 53.8 0 0 - 3 9 33.3 1 10 11 0 0 0 1 3 8
p139
aVUdonis Haslem MIA 04/24/2005 MIA vs. NJN W 34 11 3 7 42.9 0 0 - 5 5 100.0 2 9 11 3 0 1 1 2 14
p140
aVAlonzo Mourning MIA 04/24/2005 MIA vs. NJN W 13 6 2 2 100.0 0 0 - 2 5 40.0 1 2 3 0 0 0 1 2 5
p141
aVChristian Laettner MIA 04/24/2005 MIA vs. NJN W 13 8 4 4 100.0 0 0 - 0 0 - 0 0 0 0 0 0 0 1 6
p142
aVDwyane Wade MIA 04/24/2005 MIA vs. NJN W 40 32 12 18 66.7 0 0 - 8 9 88.9 1 4 5 8 0 1 2 0 11
p143
aVKeyon Dooling MIA 04/24/2005 MIA vs. NJN W 13 2 1 4 25.0 0 1 0.0 0 0 - 0 0 0 1 0 0 1 1 8
p144
aVEddie Jones MIA 04/24/2005 MIA vs. NJN W 35 10 3 9 33.3 2 5 40.0 2 3 66.7 1 4 5 3 2 0 0 5 12
p145
aVDamon Jones MIA 04/24/2005 MIA vs. NJN W 38 30 10 12 83.3 7 9 77.8 3 4 75.0 0 2 2 4 0 0 1 1 7
p146
aVRasual Butler MIA 04/24/2005 MIA vs. NJN W 5 0 0 1 0.0 0 0 - 0 0 - 0 1 1 0 0 0 0 3 2
p147
aVShandon Anderson MIA 04/24/2005 MIA vs. NJN W 18 0 0 1 0.0 0 0 - 0 0 - 1 3 4 2 2 0 2 3 17
p148
a.