(lp0
VPLAYER TEAM DATE MATCHUP W/L MIN PTS FGM FGA FG% 3PM 3PA 3P% FTM FTA FT% OREB DREB REB AST STL BLK TOV PF +/-
p1
aVElden Campbell DET 06/23/2005 DET @ SAS L 1 0 0 0 - 0 0 - 0 0 - 0 0 0 1 0 0 0 0 -1
p2
aVLindsey Hunter DET 06/23/2005 DET @ SAS L 21 4 2 8 25.0 0 1 0.0 0 0 - 0 1 1 2 1 0 0 2 -6
p3
aVChauncey Billups DET 06/23/2005 DET @ SAS L 40 13 3 8 37.5 0 3 0.0 7 8 87.5 1 3 4 8 1 0 1 4 -3
p4
aVRonald Dupree DET 06/23/2005 DET @ SAS L 1 0 0 0 - 0 0 - 0 0 - 0 0 0 0 0 0 0 0 0
p5
aVRasheed Wallace DET 06/23/2005 DET @ SAS L 28 11 5 10 50.0 1 4 25.0 0 0 - 0 1 1 1 2 1 1 5 -6
p6
aVDarvin Ham DET 06/23/2005 DET @ SAS L 1 0 0 0 - 0 0 - 0 0 - 0 0 0 0 0 0 0 0 0
p7
aVAntonio McDyess DET 06/23/2005 DET @ SAS L 23 10 5 7 71.4 0 0 - 0 0 - 3 4 7 2 0 2 2 4 5
p8
aVRichard Hamilton DET 06/23/2005 DET @ SAS L 46 15 6 18 33.3 0 2 0.0 3 4 75.0 1 7 8 1 0 1 1 3 -7
p9
aVTayshaun Prince DET 06/23/2005 DET @ SAS L 41 9 4 13 30.8 1 4 25.0 0 0 - 1 1 2 1 2 0 1 1 -10
p10
aVBen Wallace DET 06/23/2005 DET @ SAS L 38 12 6 10 60.0 0 0 - 0 2 0.0 2 9 11 1 2 2 0 5 -7
p11
aVChauncey Billups DET 06/21/2005 DET @ SAS W 39 21 6 16 37.5 5 9 55.6 4 4 100.0 2 4 6 6 0 0 0 4 7
p12
aVRichard Hamilton DET 06/21/2005 DET @ SAS W 44 23 9 19 47.4 1 1 100.0 4 5 80.0 1 4 5 3 0 0 2 0 9
p13
aVBen Wallace DET 06/21/2005 DET @ SAS W 44 8 4 6 66.7 0 0 - 0 2 0.0 3 6 9 0 2 3 0 2 12
p14
aVLindsey Hunter DET 06/21/2005 DET @ SAS W 16 4 2 3 66.7 0 0 - 0 0 - 1 1 2 2 1 0 0 3 -1
p15
aVCarlos Arroyo DET 06/21/2005 DET @ SAS W 1 0 0 0 - 0 0 - 0 0 - 0 0 0 0 0 0 0 0 -1
p16
aVTayshaun Prince DET 06/21/2005 DET @ SAS W 44 13 5 10 50.0 0 2 0.0 3 4 75.0 3 4 7 4 1 1 0 3 13
p17
aVRasheed Wallace DET 06/21/2005 DET @ SAS W 24 16 7 15 46.7 2 5 40.0 0 1 0.0 1 2 3 3 2 3 1 5 8
p18
aVAntonio McDyess DET 06/21/2005 DET @ SAS W 28 10 4 10 40.0 0 0 - 2 3 66.7 2 6 8 1 0 1 2 4 -2
p19
aVTayshaun Prince DET 06/19/2005 DET vs. SAS L 48 10 5 10 50.0 0 1 0.0 0 0 - 3 6 9 3 3 1 1 3 -4
p20
aVAntonio McDyess DET 06/19/2005 DET vs. SAS L 17 9 4 6 66.7 0 0 - 1 2 50.0 3 3 6 1 0 2 1 3 -14
p21
aVRichard Hamilton DET 06/19/2005 DET vs. SAS L 49 15 7 15 46.7 0 0 - 1 2 50.0 1 3 4 2 0 0 5 5 3
p22
aVBen Wallace DET 06/19/2005 DET vs. SAS L 48 13 4 9 44.4 0 0 - 5 6 83.3 5 7 12 1 0 4 2 1 8
p23
aVChauncey Billups DET 06/19/2005 DET vs. SAS L 44 34 11 26 42.3 2 7 28.6 10 11 90.9 3 2 5 7 0 0 1 2 7
p24
aVLindsey Hunter DET 06/19/2005 DET vs. SAS L 18 2 0 3 0.0 0 1 0.0 2 2 100.0 0 1 1 2 1 0 1 1 -9
p25
aVRasheed Wallace DET 06/19/2005 DET vs. SAS L 41 12 6 15 40.0 0 0 - 0 0 - 1 4 5 1 3 4 0 5 4
p26
aVBen Wallace DET 06/16/2005 DET vs. SAS W 39 11 5 11 45.5 0 0 - 1 4 25.0 5 8 13 1 3 3 0 3 12
p27
aVRasheed Wallace DET 06/16/2005 DET vs. SAS W 33 14 6 10 60.0 2 2 100.0 0 1 0.0 2 6 8 2 2 2 0 3 34
p28
aVRichard Hamilton DET 06/16/2005 DET vs. SAS W 38 12 4 16 25.0 0 1 0.0 4 4 100.0 2 7 9 4 1 0 1 4 24
p29
aVLindsey Hunter DET 06/16/2005 DET vs. SAS W 22 17 7 10 70.0 0 0 - 3 3 100.0 0 1 1 5 2 0 0 4 14
p30
aVDarko Milicic DET 06/16/2005 DET vs. SAS W 2 2 1 1 100.0 0 0 - 0 0 - 0 2 2 0 0 0 0 0 5
p31
aVTayshaun Prince DET 06/16/2005 DET vs. SAS W 36 13 6 14 42.9 0 2 0.0 1 1 100.0 2 0 2 1 2 0 0 2 26
p32
aVRonald Dupree DET 06/16/2005 DET vs. SAS W 2 0 0 0 - 0 0 - 0 0 - 0 0 0 0 0 0 0 0 5
p33
aVCarlos Arroyo DET 06/16/2005 DET vs. SAS W 7 3 1 3 33.3 0 0 - 1 2 50.0 0 0 0 2 0 0 0 0 8
p34
aVChauncey Billups DET 06/16/2005 DET vs. SAS W 38 17 5 14 35.7 0 4 0.0 7 7 100.0 0 5 5 7 2 0 1 1 19
p35
aVDarvin Ham DET 06/16/2005 DET vs. SAS W 4 0 0 0 - 0 0 - 0 0 - 0 0 0 0 0 0 0 1 6
p36
aVAntonio McDyess DET 06/16/2005 DET vs. SAS W 19 13 6 11 54.5 0 0 - 1 1 100.0 2 5 7 1 1 1 1 4 2
p37
aVDarvin Ham DET 06/14/2005 DET vs. SAS W 1 0 0 0 - 0 0 - 0 0 - 1 0 1 0 0 0 0 0 0
p38
aVRichard Hamilton DET 06/14/2005 DET vs. SAS W 43 24 11 23 47.8 0 1 0.0 2 3 66.7 1 2 3 4 2 0 3 5 16
p39
aVDarko Milicic DET 06/14/2005 DET vs. SAS W 1 0 0 1 0.0 0 0 - 0 0 - 0 0 0 0 0 0 0 0 0
p40
aVTayshaun Prince DET 06/14/2005 DET vs. SAS W 40 12 4 10 40.0 0 0 - 4 4 100.0 0 6 6 5 1 1 2 0 17
p41
aVCarlos Arroyo DET 06/14/2005 DET vs. SAS W 1 2 1 1 100.0 0 0 - 0 0 - 0 0 0 0 0 0 0 0 0
p42
aVRasheed Wallace DET 06/14/2005 DET vs. SAS W 37 8 4 13 30.8 0 4 0.0 0 0 - 3 4 7 1 1 1 3 3 11
p43
aVRonald Dupree DET 06/14/2005 DET vs. SAS W 1 0 0 0 - 0 0 - 0 0 - 0 0 0 0 0 0 0 0 0
p44
aVAntonio McDyess DET 06/14/2005 DET vs. SAS W 19 12 6 9 66.7 0 0 - 0 0 - 4 5 9 0 3 2 1 1 11
p45
aVBen Wallace DET 06/14/2005 DET vs. SAS W 39 15 7 10 70.0 0 0 - 1 2 50.0 6 5 11 1 3 5 1 2 12
p46
aVChauncey Billups DET 06/14/2005 DET vs. SAS W 37 20 6 12 50.0 3 7 42.9 5 7 71.4 2 4 6 7 0 0 1 5 15
p47
aVLindsey Hunter DET 06/14/2005 DET vs. SAS W 21 3 1 6 16.7 0 2 0.0 1 1 100.0 0 1 1 4 2 1 0 2 3
p48
aVDarko Milicic DET 06/12/2005 DET @ SAS L 3 0 0 1 0.0 0 0 - 0 0 - 0 0 0 0 0 0 0 0 0
p49
aVLindsey Hunter DET 06/12/2005 DET @ SAS L 24 7 3 7 42.9 0 1 0.0 1 2 50.0 2 2 4 3 1 0 1 1 0
p50
aVChauncey Billups DET 06/12/2005 DET @ SAS L 40 13 6 14 42.9 0 3 0.0 1 1 100.0 1 4 5 3 0 0 4 3 -21
p51
aVDarvin Ham DET 06/12/2005 DET @ SAS L 4 0 0 1 0.0 0 0 - 0 0 - 2 0 2 0 0 0 0 0 -5
p52
aVBen Wallace DET 06/12/2005 DET @ SAS L 33 9 4 6 66.7 0 0 - 1 3 33.3 4 4 8 2 0 1 3 3 -17
p53
aVRichard Hamilton DET 06/12/2005 DET @ SAS L 35 14 5 15 33.3 0 0 - 4 5 80.0 2 5 7 3 1 0 0 4 -18
p54
aVRonald Dupree DET 06/12/2005 DET @ SAS L 3 0 0 2 0.0 0 0 - 0 0 - 0 0 0 0 0 0 0 0 0
p55
aVCarlos Arroyo DET 06/12/2005 DET @ SAS L 8 4 2 3 66.7 0 0 - 0 0 - 0 1 1 0 0 0 1 1 -3
p56
aVRasheed Wallace DET 06/12/2005 DET @ SAS L 33 11 5 12 41.7 0 2 0.0 1 2 50.0 3 5 8 4 2 0 1 5 -9
p57
aVTayshaun Prince DET 06/12/2005 DET @ SAS L 33 3 1 7 14.3 0 0 - 1 1 100.0 1 2 3 0 0 1 1 4 -19
p58
aVAntonio McDyess DET 06/12/2005 DET @ SAS L 24 15 7 14 50.0 0 0 - 1 2 50.0 3 4 7 2 1 0 2 4 -13
p59
aVTayshaun Prince DET 06/09/2005 DET @ SAS L 32 11 4 12 33.3 0 0 - 3 4 75.0 2 3 5 4 1 0 3 2 -12
p60
aVLindsey Hunter DET 06/09/2005 DET @ SAS L 16 2 1 5 20.0 0 1 0.0 0 0 - 2 1 3 1 1 0 2 3 -11
p61
aVRonald Dupree DET 06/09/2005 DET @ SAS L 1 0 0 0 - 0 0 - 0 0 - 0 0 0 0 0 0 0 0 -1
p62
aVRasheed Wallace DET 06/09/2005 DET @ SAS L 33 4 2 5 40.0 0 0 - 0 0 - 3 4 7 1 2 6 1 4 -3
p63
aVBen Wallace DET 06/09/2005 DET @ SAS L 39 7 3 6 50.0 0 0 - 1 2 50.0 2 6 8 1 2 3 1 3 -17
p64
aVDarvin Ham DET 06/09/2005 DET @ SAS L 1 2 1 1 100.0 0 0 - 0 0 - 0 0 0 0 0 0 0 0 -1
p65
aVChauncey Billups DET 06/09/2005 DET @ SAS L 43 25 9 16 56.3 1 4 25.0 6 6 100.0 0 4 4 6 4 1 1 1 -9
p66
aVCarlos Arroyo DET 06/09/2005 DET @ SAS L 13 2 1 3 33.3 0 0 - 0 0 - 0 0 0 1 1 0 1 2 -1
p67
aVAntonio McDyess DET 06/09/2005 DET @ SAS L 23 2 1 8 12.5 0 0 - 0 1 0.0 1 6 7 0 1 0 1 2 -9
p68
aVRichard Hamilton DET 06/09/2005 DET @ SAS L 39 14 7 21 33.3 0 1 0.0 0 1 0.0 1 0 1 1 0 0 2 2 -11
p69
aVBen Wallace DET 06/06/2005 DET @ MIA W 39 8 4 9 44.4 0 0 - 0 2 0.0 3 6 9 1 1 0 2 2 6
p70
aVTayshaun Prince DET 06/06/2005 DET @ MIA W 41 13 5 13 38.5 1 2 50.0 2 2 100.0 4 4 8 2 2 0 2 4 3
p71
aVLindsey Hunter DET 06/06/2005 DET @ MIA W 14 0 0 5 0.0 0 2 0.0 0 0 - 1 2 3 2 0 0 0 2 3
p72
aVChauncey Billups DET 06/06/2005 DET @ MIA W 42 18 5 15 33.3 2 7 28.6 6 7 85.7 1 3 4 8 1 0 1 1 5
p73
aVElden Campbell DET 06/06/2005 DET @ MIA W 7 1 0 2 0.0 0 0 - 1 2 50.0 2 4 6 1 0 0 2 2 7
p74
aVRichard Hamilton DET 06/06/2005 DET @ MIA W 48 22 11 16 68.8 0 0 - 0 0 - 0 3 3 7 1 0 2 4 6
p75
aVAntonio McDyess DET 06/06/2005 DET @ MIA W 13 6 3 6 50.0 0 0 - 0 0 - 0 1 1 0 1 0 1 3 4
p76
aVRasheed Wallace DET 06/06/2005 DET @ MIA W 36 20 8 13 61.5 2 2 100.0 2 2 100.0 2 5 7 0 1 0 3 5 -4
p77
aVLindsey Hunter DET 06/04/2005 DET vs. MIA W 22 9 4 8 50.0 1 2 50.0 0 0 - 0 1 1 5 1 0 1 1 18
p78
aVRichard Hamilton DET 06/04/2005 DET vs. MIA W 40 24 10 17 58.8 0 1 0.0 4 4 100.0 3 3 6 6 1 0 0 1 19
p79
aVChauncey Billups DET 06/04/2005 DET vs. MIA W 35 14 5 9 55.6 3 5 60.0 1 1 100.0 0 1 1 7 0 0 0 3 10
p80
aVRonald Dupree DET 06/04/2005 DET vs. MIA W 4 0 0 0 - 0 0 - 0 0 - 0 0 0 0 0 0 0 0 2
p81
aVTayshaun Prince DET 06/04/2005 DET vs. MIA W 40 16 7 17 41.2 2 5 40.0 0 0 - 2 7 9 4 3 0 2 1 27
p82
aVDarko Milicic DET 06/04/2005 DET vs. MIA W 2 0 0 0 - 0 0 - 0 0 - 0 0 0 0 0 0 0 0 0
p83
aVCarlos Arroyo DET 06/04/2005 DET vs. MIA W 4 4 2 2 100.0 0 0 - 0 0 - 0 2 2 1 0 0 0 1 2
p84
aVAntonio McDyess DET 06/04/2005 DET vs. MIA W 21 7 3 10 30.0 0 0 - 1 2 50.0 3 5 8 0 1 0 0 4 14
p85
aVBen Wallace DET 06/04/2005 DET vs. MIA W 37 6 2 7 28.6 0 0 - 2 8 25.0 3 4 7 1 4 5 2 3 19
p86
aVElden Campbell DET 06/04/2005 DET vs. MIA W 4 0 0 3 0.0 0 0 - 0 0 - 0 3 3 0 0 0 0 0 4
p87
aVRasheed Wallace DET 06/04/2005 DET vs. MIA W 31 11 3 13 23.1 1 4 25.0 4 4 100.0 3 6 9 0 1 0 1 3 10
p88
aVElden Campbell DET 06/02/2005 DET @ MIA L 8 1 0 0 - 0 0 - 1 2 50.0 0 3 3 0 0 0 1 4 3
p89
aVChauncey Billups DET 06/02/2005 DET @ MIA L 37 19 7 15 46.7 2 5 40.0 3 5 60.0 1 3 4 4 0 0 1 3 -7
p90
aVCarlos Arroyo DET 06/02/2005 DET @ MIA L 9 4 2 8 25.0 0 0 - 0 0 - 0 0 0 1 1 0 0 0 -3
p91
aVTayshaun Prince DET 06/02/2005 DET @ MIA L 37 11 5 11 45.5 1 3 33.3 0 0 - 0 1 1 2 0 0 2 1 -8
p92
aVRichard Hamilton DET 06/02/2005 DET @ MIA L 42 21 7 18 38.9 0 2 0.0 7 8 87.5 1 2 3 5 2 2 5 1 -11
p93
aVLindsey Hunter DET 06/02/2005 DET @ MIA L 17 5 2 7 28.6 0 0 - 1 2 50.0 1 2 3 0 1 1 1 2 -11
p94
aVRasheed Wallace DET 06/02/2005 DET @ MIA L 27 2 1 3 33.3 0 1 0.0 0 0 - 2 6 8 0 0 1 4 5 -18
p95
aVBen Wallace DET 06/02/2005 DET @ MIA L 38 9 4 8 50.0 0 0 - 1 3 33.3 1 6 7 3 2 1 0 4 -8
p96
aVRonald Dupree DET 06/02/2005 DET @ MIA L 2 0 0 1 0.0 0 0 - 0 0 - 1 1 2 0 0 0 0 0 4
p97
aVAntonio McDyess DET 06/02/2005 DET @ MIA L 23 4 2 7 28.6 0 0 - 0 0 - 6 3 9 1 0 0 1 3 -1
p98
aVAntonio McDyess DET 05/31/2005 DET vs. MIA W 18 6 3 5 60.0 0 0 - 0 0 - 1 2 3 1 0 1 0 4 7
p99
aVElden Campbell DET 05/31/2005 DET vs. MIA W 9 5 2 2 100.0 0 0 - 1 2 50.0 0 0 0 0 0 0 1 3 7
p100
aVRonald Dupree DET 05/31/2005 DET vs. MIA W 1 0 0 0 - 0 0 - 0 0 - 0 0 0 0 0 0 0 0 -1
p101
aVCarlos Arroyo DET 05/31/2005 DET vs. MIA W 7 5 0 3 0.0 0 0 - 5 6 83.3 1 2 3 2 0 0 0 2 1
p102
aVTayshaun Prince DET 05/31/2005 DET vs. MIA W 42 15 6 12 50.0 0 1 0.0 3 5 60.0 3 6 9 4 0 1 1 2 3
p103
aVLindsey Hunter DET 05/31/2005 DET vs. MIA W 17 6 0 2 0.0 0 1 0.0 6 8 75.0 0 1 1 2 1 0 0 3 9
p104
aVRichard Hamilton DET 05/31/2005 DET vs. MIA W 45 28 10 18 55.6 0 1 0.0 8 12 66.7 2 2 4 8 1 0 3 3 11
p105
aVDarko Milicic DET 05/31/2005 DET vs. MIA W 1 0 0 0 - 0 0 - 0 0 - 0 0 0 0 0 0 0 0 -3
p106
aVChauncey Billups DET 05/31/2005 DET vs. MIA W 40 17 5 11 45.5 3 4 75.0 4 5 80.0 0 1 1 7 1 0 0 1 9
p107
aVDarvin Ham DET 05/31/2005 DET vs. MIA W 2 0 0 0 - 0 0 - 0 0 - 0 0 0 0 0 0 0 0 2
p108
aVRasheed Wallace DET 05/31/2005 DET vs. MIA W 22 20 9 13 69.2 1 1 100.0 1 1 100.0 0 3 3 0 1 1 1 6 7
p109
aVBen Wallace DET 05/31/2005 DET vs. MIA W 36 4 2 11 18.2 0 0 - 0 0 - 2 13 15 3 1 2 0 4 -2
p110
aVAntonio McDyess DET 05/29/2005 DET vs. MIA L 15 9 4 7 57.1 0 0 - 1 1 100.0 1 5 6 0 1 0 1 5 -3
p111
aVBen Wallace DET 05/29/2005 DET vs. MIA L 31 8 3 6 50.0 0 1 0.0 2 6 33.3 1 6 7 0 0 0 1 5 -14
p112
aVRichard Hamilton DET 05/29/2005 DET vs. MIA L 46 33 10 21 47.6 1 2 50.0 12 14 85.7 2 2 4 5 0 0 1 4 -5
p113
aVLindsey Hunter DET 05/29/2005 DET vs. MIA L 13 3 1 5 20.0 1 4 25.0 0 2 0.0 1 1 2 1 1 1 1 1 5
p114
aVTayshaun Prince DET 05/29/2005 DET vs. MIA L 37 18 7 14 50.0 1 1 100.0 3 4 75.0 4 0 4 4 0 0 3 4 -11
p115
aVRasheed Wallace DET 05/29/2005 DET vs. MIA L 41 13 4 9 44.4 0 2 0.0 5 9 55.6 1 7 8 4 1 0 0 5 -7
p116
aVChauncey Billups DET 05/29/2005 DET vs. MIA L 43 18 6 19 31.6 1 3 33.3 5 5 100.0 2 4 6 4 0 0 1 6 -6
p117
aVElden Campbell DET 05/29/2005 DET vs. MIA L 7 2 1 1 100.0 0 0 - 0 0 - 0 1 1 0 1 0 0 2 4
p118
aVCarlos Arroyo DET 05/29/2005 DET vs. MIA L 7 0 0 0 - 0 0 - 0 2 0.0 0 0 0 4 0 0 1 1 -8
p119
aVChauncey Billups DET 05/25/2005 DET @ MIA L 45 14 6 11 54.5 2 6 33.3 0 2 0.0 2 6 8 6 3 0 8 3 -4
p120
aVBen Wallace DET 05/25/2005 DET @ MIA L 42 4 2 10 20.0 0 0 - 0 0 - 4 10 14 1 1 1 1 3 2
p121
aVCarlos Arroyo DET 05/25/2005 DET @ MIA L 8 4 1 2 50.0 0 0 - 2 2 100.0 0 0 0 0 0 0 0 1 -8
p122
aVRasheed Wallace DET 05/25/2005 DET @ MIA L 30 15 4 12 33.3 1 5 20.0 6 8 75.0 0 4 4 1 1 1 1 4 -7
p123
aVDarvin Ham DET 05/25/2005 DET @ MIA L 0 0 0 0 - 0 0 - 0 0 - 0 0 0 0 0 0 0 0 0
p124
aVTayshaun Prince DET 05/25/2005 DET @ MIA L 36 17 6 13 46.2 3 5 60.0 2 2 100.0 1 3 4 1 0 0 1 4 5
p125
aVAntonio McDyess DET 05/25/2005 DET @ MIA L 18 2 1 4 25.0 0 0 - 0 0 - 1 4 5 1 0 2 2 2 -3
p126
aVElden Campbell DET 05/25/2005 DET @ MIA L 6 3 1 2 50.0 0 0 - 1 2 50.0 0 1 1 1 1 0 0 1 -4
p127
aVRichard Hamilton DET 05/25/2005 DET @ MIA L 44 21 8 23 34.8 1 3 33.3 4 7 57.1 2 3 5 5 3 0 1 4 -12
p128
aVLindsey Hunter DET 05/25/2005 DET @ MIA L 11 6 2 4 50.0 2 4 50.0 0 0 - 0 0 0 1 0 1 1 4 1
p129
aVLindsey Hunter DET 05/23/2005 DET @ MIA W 5 0 0 1 0.0 0 0 - 0 0 - 0 0 0 0 0 0 1 1 2
p130
aVTayshaun Prince DET 05/23/2005 DET @ MIA W 42 13 6 14 42.9 1 1 100.0 0 0 - 1 2 3 3 0 0 1 0 6
p131
aVAntonio McDyess DET 05/23/2005 DET @ MIA W 19 10 5 6 83.3 0 0 - 0 0 - 3 3 6 0 0 1 2 3 -5
p132
aVRasheed Wallace DET 05/23/2005 DET @ MIA W 30 20 7 10 70.0 4 5 80.0 2 2 100.0 1 9 10 0 0 3 1 2 14
p133
aVElden Campbell DET 05/23/2005 DET @ MIA W 3 0 0 1 0.0 0 0 - 0 0 - 0 1 1 0 0 0 0 0 0
p134
aVChauncey Billups DET 05/23/2005 DET @ MIA W 41 18 6 15 40.0 1 3 33.3 5 6 83.3 0 3 3 5 0 0 2 3 9
p135
aVBen Wallace DET 05/23/2005 DET @ MIA W 44 13 6 12 50.0 0 1 0.0 1 2 50.0 4 9 13 0 3 2 0 2 9
p136
aVRichard Hamilton DET 05/23/2005 DET @ MIA W 46 16 7 20 35.0 0 1 0.0 2 2 100.0 0 3 3 5 0 0 1 1 9
p137
aVCarlos Arroyo DET 05/23/2005 DET @ MIA W 10 0 0 2 0.0 0 0 - 0 0 - 0 2 2 7 0 0 1 0 1
p138
aVCarlos Arroyo DET 05/19/2005 DET @ IND W 8 2 1 4 25.0 0 1 0.0 0 0 - 0 0 0 3 0 0 0 1 -3
p139
aVBen Wallace DET 05/19/2005 DET @ IND W 41 4 1 5 20.0 0 0 - 2 2 100.0 2 9 11 1 1 3 0 1 8
p140
aVAntonio McDyess DET 05/19/2005 DET @ IND W 13 4 2 3 66.7 0 0 - 0 0 - 1 1 2 1 0 0 0 0 -4
p141
aVRasheed Wallace DET 05/19/2005 DET @ IND W 42 14 5 17 29.4 1 2 50.0 3 4 75.0 5 6 11 2 0 0 3 4 14
p142
aVLindsey Hunter DET 05/19/2005 DET @ IND W 6 2 1 3 33.3 0 2 0.0 0 0 - 0 1 1 1 3 0 1 1 0
p143
aVRichard Hamilton DET 05/19/2005 DET @ IND W 46 28 10 16 62.5 0 0 - 8 9 88.9 2 4 6 0 1 0 4 2 5
p144
aVChauncey Billups DET 05/19/2005 DET @ IND W 41 23 7 15 46.7 2 6 33.3 7 7 100.0 0 1 1 8 1 0 2 5 12
p145
aVTayshaun Prince DET 05/19/2005 DET @ IND W 43 11 4 8 50.0 1 2 50.0 2 2 100.0 1 7 8 1 1 0 0 1 13
p146
aVChauncey Billups DET 05/17/2005 DET vs. IND W 38 13 5 15 33.3 3 8 37.5 0 0 - 2 4 6 7 1 1 1 2 25
p147
aVTayshaun Prince DET 05/17/2005 DET vs. IND W 39 16 7 18 38.9 2 4 50.0 0 0 - 5 7 12 3 1 0 1 3 20
p148
aVAntonio McDyess DET 05/17/2005 DET vs. IND W 24 8 4 9 44.4 0 0 - 0 0 - 3 3 6 3 0 2 2 5 12
p149
aVDarko Milicic DET 05/17/2005 DET vs. IND W 4 3 1 3 33.3 0 0 - 1 1 100.0 1 0 1 1 0 0 0 1 -3
p150
aVElden Campbell DET 05/17/2005 DET vs. IND W 6 0 0 1 0.0 0 0 - 0 0 - 1 0 1 1 0 0 0 1 -5
p151
aVBen Wallace DET 05/17/2005 DET vs. IND W 37 19 8 13 61.5 0 2 0.0 3 7 42.9 6 5 11 0 2 3 0 1 23
p152
aVCarlos Arroyo DET 05/17/2005 DET vs. IND W 18 2 1 3 33.3 0 0 - 0 0 - 0 0 0 6 0 0 3 1 -3
p153
aVRasheed Wallace DET 05/17/2005 DET vs. IND W 25 10 3 8 37.5 0 1 0.0 4 4 100.0 1 7 8 0 1 2 0 3 11
p154
aVLindsey Hunter DET 05/17/2005 DET vs. IND W 6 0 0 0 - 0 0 - 0 0 - 0 0 0 0 0 0 0 0 5
p155
aVRonald Dupree DET 05/17/2005 DET vs. IND W 7 2 1 2 50.0 0 0 - 0 0 - 0 1 1 0 0 0 1 2 -4
p156
aVRichard Hamilton DET 05/17/2005 DET vs. IND W 36 13 6 12 50.0 0 0 - 1 2 50.0 3 3 6 2 4 0 4 2 14
p157
aVCarlos Arroyo DET 05/15/2005 DET @ IND W 12 2 1 2 50.0 0 0 - 0 0 - 0 0 0 4 1 0 1 1 3
p158
aVRonald Dupree DET 05/15/2005 DET @ IND W 2 0 0 0 - 0 0 - 0 0 - 0 0 0 0 0 0 0 0 -2
p159
aVBen Wallace DET 05/15/2005 DET @ IND W 29 6 3 8 37.5 0 0 - 0 1 0.0 5 5 10 0 0 3 0 4 3
p160
aVChauncey Billups DET 05/15/2005 DET @ IND W 40 29 10 20 50.0 1 4 25.0 8 8 100.0 0 3 3 6 2 0 5 2 8
p161
aVDarvin Ham DET 05/15/2005 DET @ IND W 1 0 0 0 - 0 0 - 0 0 - 0 0 0 0 0 0 0 0 -2
p162
aVLindsey Hunter DET 05/15/2005 DET @ IND W 12 3 1 2 50.0 1 1 100.0 0 0 - 0 1 1 0 1 0 0 1 -3
p163
aVTayshaun Prince DET 05/15/2005 DET @ IND W 40 7 2 8 25.0 1 2 50.0 2 2 100.0 4 6 10 4 0 0 1 3 13
p164
aVAntonio McDyess DET 05/15/2005 DET @ IND W 20 12 3 8 37.5 0 0 - 6 7 85.7 2 4 6 1 1 0 1 2 13
p165
aVRasheed Wallace DET 05/15/2005 DET @ IND W 39 17 8 20 40.0 0 3 0.0 1 1 100.0 3 9 12 0 2 5 3 3 19
p166
aVRichard Hamilton DET 05/15/2005 DET @ IND W 45 13 6 16 37.5 0 3 0.0 1 1 100.0 1 4 5 7 0 0 4 4 13
p167
aVAntonio McDyess DET 05/13/2005 DET @ IND L 15 6 2 3 66.7 0 0 - 2 2 100.0 0 2 2 1 0 0 1 5 -8
p168
aVRasheed Wallace DET 05/13/2005 DET @ IND L 35 13 6 14 42.9 0 4 0.0 1 2 50.0 1 8 9 0 0 2 1 3 7
p169
aVBen Wallace DET 05/13/2005 DET @ IND L 45 7 2 4 50.0 0 0 - 3 4 75.0 6 8 14 0 3 2 1 2 -9
p170
aVLindsey Hunter DET 05/13/2005 DET @ IND L 19 0 0 3 0.0 0 3 0.0 0 0 - 0 2 2 2 1 1 1 2 -9
p171
aVChauncey Billups DET 05/13/2005 DET @ IND L 40 23 6 17 35.3 3 8 37.5 8 9 88.9 0 3 3 5 1 2 3 3 -8
p172
aVRichard Hamilton DET 05/13/2005 DET @ IND L 39 16 6 16 37.5 0 0 - 4 5 80.0 0 3 3 3 0 0 5 6 5
p173
aVTayshaun Prince DET 05/13/2005 DET @ IND L 46 9 2 8 25.0 0 1 0.0 5 6 83.3 2 7 9 6 2 0 5 2 -3
p174
aVLindsey Hunter DET 05/11/2005 DET vs. IND L 17 5 2 7 28.6 1 3 33.3 0 0 - 0 2 2 1 0 0 0 2 -6
p175
aVBen Wallace DET 05/11/2005 DET vs. IND L 42 3 0 4 0.0 0 0 - 3 6 50.0 1 15 16 1 1 2 3 3 -7
p176
aVAntonio McDyess DET 05/11/2005 DET vs. IND L 21 8 3 9 33.3 0 0 - 2 2 100.0 1 4 5 1 0 1 0 2 -6
p177
aVRasheed Wallace DET 05/11/2005 DET vs. IND L 33 14 6 12 50.0 2 5 40.0 0 0 - 1 5 6 1 0 3 1 3 -5
p178
aVRonald Dupree DET 05/11/2005 DET vs. IND L 5 2 1 2 50.0 0 0 - 0 0 - 1 0 1 0 0 0 0 2 2
p179
aVTayshaun Prince DET 05/11/2005 DET vs. IND L 45 24 10 15 66.7 2 2 100.0 2 4 50.0 5 4 9 7 0 2 0 0 -6
p180
aVRichard Hamilton DET 05/11/2005 DET vs. IND L 40 14 6 17 35.3 0 1 0.0 2 2 100.0 1 2 3 2 0 0 7 4 -9
p181
aVChauncey Billups DET 05/11/2005 DET vs. IND L 37 13 4 11 36.4 1 6 16.7 4 5 80.0 0 1 1 10 1 0 2 0 -8
p182
aVChauncey Billups DET 05/09/2005 DET vs. IND W 33 11 3 6 50.0 1 3 33.3 4 5 80.0 1 3 4 7 0 0 2 4 10
p183
aVDarvin Ham DET 05/09/2005 DET vs. IND W 0 0 0 0 - 0 0 - 0 0 - 0 0 0 0 0 0 0 0 0
p184
aVRasheed Wallace DET 05/09/2005 DET vs. IND W 31 11 3 13 23.1 0 2 0.0 5 5 100.0 0 7 7 2 1 2 1 4 19
p185
aVTayshaun Prince DET 05/09/2005 DET vs. IND W 38 8 4 11 36.4 0 2 0.0 0 2 0.0 2 0 2 2 1 1 3 2 19
p186
aVAntonio McDyess DET 05/09/2005 DET vs. IND W 19 5 2 4 50.0 0 0 - 1 3 33.3 0 9 9 0 2 2 0 3 7
p187
aVRichard Hamilton DET 05/09/2005 DET vs. IND W 40 28 9 16 56.3 1 1 100.0 9 10 90.0 1 2 3 4 1 0 2 3 17
p188
aVElden Campbell DET 05/09/2005 DET vs. IND W 6 0 0 1 0.0 0 0 - 0 0 - 0 2 2 1 0 0 0 0 -6
p189
aVCarlos Arroyo DET 05/09/2005 DET vs. IND W 9 4 2 3 66.7 0 0 - 0 0 - 0 0 0 2 1 0 0 2 2
p190
aVLindsey Hunter DET 05/09/2005 DET vs. IND W 19 8 3 7 42.9 2 4 50.0 0 0 - 1 0 1 1 0 1 2 1 5
p191
aVRonald Dupree DET 05/09/2005 DET vs. IND W 5 0 0 0 - 0 0 - 0 0 - 0 2 2 0 0 0 0 2 -8
p192
aVDarko Milicic DET 05/09/2005 DET vs. IND W 3 0 0 0 - 0 0 - 0 0 - 0 0 0 0 0 0 0 1 -6
p193
aVBen Wallace DET 05/09/2005 DET vs. IND W 37 21 8 12 66.7 0 0 - 5 15 33.3 6 9 15 1 4 1 0 0 16
p194
aVLindsey Hunter DET 05/03/2005 DET vs. PHI W 12 0 0 5 0.0 0 1 0.0 0 0 - 1 2 3 2 0 1 0 0 3
p195
aVRichard Hamilton DET 05/03/2005 DET vs. PHI W 46 23 10 24 41.7 1 5 20.0 2 2 100.0 0 5 5 5 1 0 3 4 7
p196
aVRasheed Wallace DET 05/03/2005 DET vs. PHI W 32 9 4 11 36.4 0 3 0.0 1 2 50.0 0 9 9 1 0 0 3 3 7
p197
aVDarvin Ham DET 05/03/2005 DET vs. PHI W 1 0 0 0 - 0 0 - 0 0 - 0 0 0 0 0 0 0 0 -5
p198
aVTayshaun Prince DET 05/03/2005 DET vs. PHI W 45 14 6 12 50.0 0 3 0.0 2 3 66.7 2 7 9 3 1 0 2 2 11
p199
aVBen Wallace DET 05/03/2005 DET vs. PHI W 42 11 5 12 41.7 0 0 - 1 2 50.0 8 5 13 1 1 1 1 4 2
p200
aVChauncey Billups DET 05/03/2005 DET vs. PHI W 41 23 4 10 40.0 1 3 33.3 14 14 100.0 3 1 4 7 1 0 1 2 9
p201
aVAntonio McDyess DET 05/03/2005 DET vs. PHI W 21 8 3 6 50.0 0 0 - 2 4 50.0 0 3 3 1 1 3 1 3 16
p202
aVCarlos Arroyo DET 05/01/2005 DET @ PHI W 4 0 0 1 0.0 0 0 - 0 0 - 0 0 0 0 0 1 0 1 10
p203
aVChauncey Billups DET 05/01/2005 DET @ PHI W 48 25 8 15 53.3 3 4 75.0 6 6 100.0 1 5 6 7 3 0 3 5 12
p204
aVTayshaun Prince DET 05/01/2005 DET @ PHI W 45 17 6 15 40.0 3 7 42.9 2 2 100.0 4 3 7 6 1 0 2 1 5
p205
aVRichard Hamilton DET 05/01/2005 DET @ PHI W 49 20 7 16 43.8 0 1 0.0 6 8 75.0 0 2 2 4 0 0 6 4 -5
p206
aVLindsey Hunter DET 05/01/2005 DET @ PHI W 13 0 0 4 0.0 0 2 0.0 0 0 - 0 1 1 0 1 0 0 1 -7
p207
aVRasheed Wallace DET 05/01/2005 DET @ PHI W 49 17 7 17 41.2 3 6 50.0 0 0 - 1 5 6 3 2 2 3 2 2
p208
aVBen Wallace DET 05/01/2005 DET @ PHI W 40 12 5 6 83.3 0 0 - 2 4 50.0 5 7 12 0 2 2 5 3 13
p209
aVDarvin Ham DET 05/01/2005 DET @ PHI W 1 0 0 0 - 0 0 - 0 0 - 0 0 0 0 0 0 0 0 -3
p210
aVAntonio McDyess DET 05/01/2005 DET @ PHI W 16 6 1 5 20.0 0 0 - 4 4 100.0 1 4 5 0 0 0 1 3 -2
p211
aVChauncey Billups DET 04/29/2005 DET @ PHI L 38 15 4 8 50.0 2 6 33.3 5 7 71.4 0 6 6 8 1 0 1 2 3
p212
aVTayshaun Prince DET 04/29/2005 DET @ PHI L 45 19 6 14 42.9 2 5 40.0 5 5 100.0 0 5 5 5 1 0 1 2 -7
p213
aVRasheed Wallace DET 04/29/2005 DET @ PHI L 34 15 6 12 50.0 3 8 37.5 0 0 - 0 1 1 1 1 1 1 3 -9
p214
aVBen Wallace DET 04/29/2005 DET @ PHI L 44 29 11 17 64.7 0 0 - 7 9 77.8 7 9 16 0 0 1 2 4 -3
p215
aVRichard Hamilton DET 04/29/2005 DET @ PHI L 47 24 9 15 60.0 2 3 66.7 4 4 100.0 2 2 4 12 0 0 7 4 -9
p216
aVCarlos Arroyo DET 04/29/2005 DET @ PHI L 5 0 0 2 0.0 0 0 - 0 0 - 0 0 0 1 0 0 0 1 -9
p217
aVLindsey Hunter DET 04/29/2005 DET @ PHI L 8 0 0 0 - 0 0 - 0 0 - 0 0 0 0 0 0 1 2 -11
p218
aVAntonio McDyess DET 04/29/2005 DET @ PHI L 17 2 1 5 20.0 0 0 - 0 0 - 2 2 4 0 0 0 1 2 -7
p219
aVDarvin Ham DET 04/29/2005 DET @ PHI L 1 0 0 0 - 0 0 - 0 0 - 0 0 0 0 0 0 0 0 -3
p220
aVDarvin Ham DET 04/26/2005 DET vs. PHI W 3 2 0 1 0.0 0 0 - 2 2 100.0 0 0 0 0 0 0 0 1 -4
p221
aVBen Wallace DET 04/26/2005 DET vs. PHI W 34 5 2 5 40.0 0 0 - 1 2 50.0 2 8 10 1 1 2 5 0 10
p222
aVTayshaun Prince DET 04/26/2005 DET vs. PHI W 41 14 5 13 38.5 0 2 0.0 4 4 100.0 1 7 8 5 2 1 1 2 11
p223
aVAntonio McDyess DET 04/26/2005 DET vs. PHI W 28 12 6 10 60.0 0 0 - 0 0 - 1 7 8 0 0 3 0 5 17
p224
aVRichard Hamilton DET 04/26/2005 DET vs. PHI W 42 23 9 13 69.2 2 2 100.0 3 3 100.0 1 3 4 4 1 0 4 3 20
p225
aVCarlos Arroyo DET 04/26/2005 DET vs. PHI W 11 2 1 2 50.0 0 0 - 0 0 - 0 1 1 2 0 0 1 1 0
p226
aVLindsey Hunter DET 04/26/2005 DET vs. PHI W 13 6 2 5 40.0 0 0 - 2 2 100.0 0 3 3 0 2 0 0 1 6
p227
aVDarko Milicic DET 04/26/2005 DET vs. PHI W 4 0 0 0 - 0 0 - 0 0 - 0 0 0 0 0 1 1 1 -3
p228
aVRonald Dupree DET 04/26/2005 DET vs. PHI W 3 0 0 0 - 0 0 - 0 0 - 0 0 0 0 0 0 0 0 -4
p229
aVRasheed Wallace DET 04/26/2005 DET vs. PHI W 26 15 6 13 46.2 2 8 25.0 1 2 50.0 1 5 6 2 0 3 0 3 10
p230
aVChauncey Billups DET 04/26/2005 DET vs. PHI W 34 20 5 10 50.0 2 5 40.0 8 8 100.0 0 6 6 8 1 0 5 4 12
p231
aVRonald Dupree DET 04/23/2005 DET vs. PHI W 1 0 0 0 - 0 0 - 0 0 - 0 0 0 0 0 0 0 0 0
p232
aVLindsey Hunter DET 04/23/2005 DET vs. PHI W 10 4 2 3 66.7 0 1 0.0 0 0 - 0 3 3 2 1 0 1 4 3
p233
aVDarvin Ham DET 04/23/2005 DET vs. PHI W 2 0 0 0 - 0 0 - 0 0 - 0 0 0 0 0 0 0 0 0
p234
aVAntonio McDyess DET 04/23/2005 DET vs. PHI W 20 15 7 9 77.8 0 0 - 1 2 50.0 2 6 8 1 1 0 1 2 21
p235
aVChauncey Billups DET 04/23/2005 DET vs. PHI W 33 11 3 11 27.3 0 3 0.0 5 5 100.0 1 5 6 4 1 1 2 2 8
p236
aVRichard Hamilton DET 04/23/2005 DET vs. PHI W 45 17 8 16 50.0 1 2 50.0 0 2 0.0 0 2 2 5 1 0 5 2 23
p237
aVTayshaun Prince DET 04/23/2005 DET vs. PHI W 47 23 10 15 66.7 1 3 33.3 2 3 66.7 3 4 7 3 1 0 1 1 21
p238
aVRasheed Wallace DET 04/23/2005 DET vs. PHI W 35 29 11 20 55.0 4 7 57.1 3 4 75.0 4 6 10 2 0 1 4 4 7
p239
aVDarko Milicic DET 04/23/2005 DET vs. PHI W 1 0 0 1 0.0 0 0 - 0 0 - 0 1 1 0 0 0 0 0 0
p240
aVCarlos Arroyo DET 04/23/2005 DET vs. PHI W 8 0 0 1 0.0 0 0 - 0 0 - 0 1 1 3 0 1 1 3 8
p241
aVBen Wallace DET 04/23/2005 DET vs. PHI W 38 7 1 5 20.0 0 0 - 5 8 62.5 2 8 10 4 4 7 0 1 14
p242
a.