(lp0
VPLAYER TEAM DATE MATCHUP W/L MIN PTS FGM FGA FG% 3PM 3PA 3P% FTM FTA FT% OREB DREB REB AST STL BLK TOV PF +/-
p1
aVRyan Bowen HOU 05/07/2005 HOU @ DAL L 12 0 0 2 0.0 0 0 - 0 0 - 1 0 1 1 0 0 1 3 -16
p2
aVDavid Wesley HOU 05/07/2005 HOU @ DAL L 41 7 2 9 22.2 1 3 33.3 2 3 66.7 1 2 3 0 3 0 2 4 -27
p3
aVMoochie Norris HOU 05/07/2005 HOU @ DAL L 6 0 0 1 0.0 0 0 - 0 0 - 0 0 0 0 0 0 0 0 -9
p4
aVScott Padgett HOU 05/07/2005 HOU @ DAL L 31 3 1 6 16.7 1 3 33.3 0 0 - 3 3 6 1 0 1 0 5 -18
p5
aVBob Sura HOU 05/07/2005 HOU @ DAL L 25 0 0 2 0.0 0 1 0.0 0 0 - 0 0 0 1 1 0 3 2 -22
p6
aVDikembe Mutombo HOU 05/07/2005 HOU @ DAL L 4 0 0 0 - 0 0 - 0 0 - 0 0 0 0 0 0 0 0 -9
p7
aVTracy McGrady HOU 05/07/2005 HOU @ DAL L 36 27 10 26 38.5 1 7 14.3 6 7 85.7 4 3 7 7 0 3 4 1 -28
p8
aVJon Barry HOU 05/07/2005 HOU @ DAL L 25 2 1 6 16.7 0 4 0.0 0 0 - 0 5 5 3 0 0 0 3 -23
p9
aVYao Ming HOU 05/07/2005 HOU @ DAL L 43 33 13 23 56.5 0 0 - 7 8 87.5 4 6 10 1 1 5 2 4 -33
p10
aVMike James HOU 05/07/2005 HOU @ DAL L 17 4 2 7 28.6 0 0 - 0 0 - 0 1 1 2 0 0 1 3 -15
p11
aVJon Barry HOU 05/05/2005 HOU vs. DAL W 30 14 4 7 57.1 2 2 100.0 4 4 100.0 1 4 5 1 0 0 3 2 18
p12
aVDavid Wesley HOU 05/05/2005 HOU vs. DAL W 43 6 2 6 33.3 0 1 0.0 2 2 100.0 0 3 3 5 1 0 1 4 12
p13
aVBob Sura HOU 05/05/2005 HOU vs. DAL W 21 0 0 3 0.0 0 0 - 0 0 - 0 4 4 2 0 0 2 1 -10
p14
aVDikembe Mutombo HOU 05/05/2005 HOU vs. DAL W 18 2 1 2 50.0 0 0 - 0 0 - 2 8 10 0 0 4 1 0 24
p15
aVMoochie Norris HOU 05/05/2005 HOU vs. DAL W 1 0 0 0 - 0 0 - 0 0 - 0 0 0 0 0 0 0 0 0
p16
aVTracy McGrady HOU 05/05/2005 HOU vs. DAL W 42 37 14 28 50.0 6 10 60.0 3 3 100.0 2 6 8 7 1 1 2 3 19
p17
aVYao Ming HOU 05/05/2005 HOU vs. DAL W 27 8 3 8 37.5 0 0 - 2 6 33.3 2 3 5 2 0 2 3 3 -3
p18
aVScott Padgett HOU 05/05/2005 HOU vs. DAL W 17 5 2 5 40.0 1 3 33.3 0 0 - 1 1 2 1 0 0 0 1 -6
p19
aVRyan Bowen HOU 05/05/2005 HOU vs. DAL W 13 7 3 4 75.0 0 0 - 1 1 100.0 1 1 2 1 2 0 1 1 11
p20
aVMike James HOU 05/05/2005 HOU vs. DAL W 28 22 7 11 63.6 0 1 0.0 8 9 88.9 0 4 4 2 1 0 3 2 25
p21
aVRyan Bowen HOU 05/02/2005 HOU @ DAL L 4 0 0 1 0.0 0 0 - 0 0 - 0 2 2 0 0 0 1 1 -10
p22
aVJon Barry HOU 05/02/2005 HOU @ DAL L 25 7 3 7 42.9 1 3 33.3 0 0 - 0 5 5 1 0 0 1 2 6
p23
aVMike James HOU 05/02/2005 HOU @ DAL L 30 16 6 9 66.7 0 0 - 4 4 100.0 0 2 2 5 1 0 1 3 -2
p24
aVScott Padgett HOU 05/02/2005 HOU @ DAL L 21 4 1 3 33.3 0 1 0.0 2 2 100.0 2 2 4 0 3 0 1 4 5
p25
aVBob Sura HOU 05/02/2005 HOU @ DAL L 23 7 3 5 60.0 1 2 50.0 0 0 - 1 1 2 2 0 0 2 2 -1
p26
aVDikembe Mutombo HOU 05/02/2005 HOU @ DAL L 12 3 1 2 50.0 0 0 - 1 2 50.0 1 4 5 0 0 1 3 2 -5
p27
aVYao Ming HOU 05/02/2005 HOU @ DAL L 35 30 10 13 76.9 0 0 - 10 16 62.5 3 5 8 0 0 3 2 4 2
p28
aVDavid Wesley HOU 05/02/2005 HOU @ DAL L 48 8 2 5 40.0 2 3 66.7 2 2 100.0 0 2 2 1 1 0 1 2 -3
p29
aVTracy McGrady HOU 05/02/2005 HOU @ DAL L 42 25 7 22 31.8 1 4 25.0 10 14 71.4 3 6 9 6 3 2 2 5 -7
p30
aVTracy McGrady HOU 04/30/2005 HOU vs. DAL L 45 36 13 26 50.0 3 9 33.3 7 8 87.5 1 5 6 5 1 1 5 2 -7
p31
aVYao Ming HOU 04/30/2005 HOU vs. DAL L 25 20 6 7 85.7 0 0 - 8 10 80.0 3 2 5 0 0 5 5 5 -6
p32
aVRyan Bowen HOU 04/30/2005 HOU vs. DAL L 16 2 1 3 33.3 0 0 - 0 0 - 0 1 1 0 0 0 1 2 -6
p33
aVBob Sura HOU 04/30/2005 HOU vs. DAL L 24 5 2 6 33.3 0 1 0.0 1 2 50.0 0 2 2 1 2 0 0 3 -6
p34
aVJon Barry HOU 04/30/2005 HOU vs. DAL L 24 6 2 6 33.3 0 2 0.0 2 2 100.0 0 5 5 1 1 0 0 1 14
p35
aVScott Padgett HOU 04/30/2005 HOU vs. DAL L 18 5 2 3 66.7 1 1 100.0 0 0 - 1 2 3 1 0 0 2 4 -10
p36
aVMike James HOU 04/30/2005 HOU vs. DAL L 28 7 3 11 27.3 0 2 0.0 1 1 100.0 2 2 4 4 1 1 3 4 3
p37
aVDavid Wesley HOU 04/30/2005 HOU vs. DAL L 40 7 3 7 42.9 1 2 50.0 0 1 0.0 1 3 4 3 3 0 0 3 -3
p38
aVDikembe Mutombo HOU 04/30/2005 HOU vs. DAL L 20 5 2 3 66.7 0 0 - 1 2 50.0 3 4 7 0 1 1 2 4 1
p39
aVScott Padgett HOU 04/28/2005 HOU vs. DAL L 16 6 2 4 50.0 2 3 66.7 0 0 - 1 1 2 0 0 1 0 3 10
p40
aVRyan Bowen HOU 04/28/2005 HOU vs. DAL L 19 0 0 2 0.0 0 0 - 0 0 - 0 1 1 3 0 0 1 6 4
p41
aVYao Ming HOU 04/28/2005 HOU vs. DAL L 34 15 7 11 63.6 0 0 - 1 2 50.0 5 5 10 2 0 1 4 5 5
p42
aVJon Barry HOU 04/28/2005 HOU vs. DAL L 23 7 2 4 50.0 2 2 100.0 1 2 50.0 0 2 2 0 1 0 0 3 -20
p43
aVBob Sura HOU 04/28/2005 HOU vs. DAL L 37 21 8 19 42.1 2 3 66.7 3 6 50.0 5 6 11 6 0 0 1 2 7
p44
aVDikembe Mutombo HOU 04/28/2005 HOU vs. DAL L 8 2 1 1 100.0 0 0 - 0 0 - 2 2 4 0 0 1 1 3 -8
p45
aVDavid Wesley HOU 04/28/2005 HOU vs. DAL L 41 17 5 11 45.5 5 8 62.5 2 3 66.7 1 4 5 5 0 0 2 1 -4
p46
aVMike James HOU 04/28/2005 HOU vs. DAL L 19 6 1 5 20.0 0 2 0.0 4 4 100.0 0 0 0 0 0 0 1 1 -4
p47
aVTracy McGrady HOU 04/28/2005 HOU vs. DAL L 43 28 10 23 43.5 2 7 28.6 6 8 75.0 1 8 9 6 1 0 5 3 -10
p48
aVMike James HOU 04/25/2005 HOU @ DAL W 24 10 3 6 50.0 0 2 0.0 4 4 100.0 0 1 1 1 2 1 0 2 9
p49
aVBob Sura HOU 04/25/2005 HOU @ DAL W 28 14 4 5 80.0 4 5 80.0 2 2 100.0 0 2 2 1 1 0 2 2 1
p50
aVScott Padgett HOU 04/25/2005 HOU @ DAL W 5 2 1 2 50.0 0 0 - 0 0 - 1 1 2 0 0 0 0 1 4
p51
aVRyan Bowen HOU 04/25/2005 HOU @ DAL W 29 5 2 6 33.3 0 0 - 1 2 50.0 3 1 4 1 2 0 1 4 -9
p52
aVTracy McGrady HOU 04/25/2005 HOU @ DAL W 46 28 10 19 52.6 1 2 50.0 7 8 87.5 0 8 8 10 3 3 4 4 -1
p53
aVDikembe Mutombo HOU 04/25/2005 HOU @ DAL W 11 2 0 0 - 0 0 - 2 2 100.0 0 1 1 1 1 0 0 2 3
p54
aVClar. Weatherspoon HOU 04/25/2005 HOU @ DAL W 0 0 0 0 - 0 0 - 0 0 - 0 0 0 0 0 0 0 1 -1
p55
aVYao Ming HOU 04/25/2005 HOU @ DAL W 37 33 13 14 92.9 0 0 - 7 7 100.0 2 6 8 0 1 2 1 4 0
p56
aVJon Barry HOU 04/25/2005 HOU @ DAL W 29 16 6 11 54.5 4 6 66.7 0 0 - 0 3 3 2 1 0 2 1 7
p57
aVDavid Wesley HOU 04/25/2005 HOU @ DAL W 31 3 1 10 10.0 0 3 0.0 1 2 50.0 0 0 0 6 1 1 1 3 -3
p58
aVScott Padgett HOU 04/23/2005 HOU @ DAL W 1 0 0 1 0.0 0 1 0.0 0 0 - 0 0 0 1 0 0 0 0 -2
p59
aVYao Ming HOU 04/23/2005 HOU @ DAL W 20 11 3 8 37.5 0 0 - 5 6 83.3 4 4 8 0 0 1 2 6 5
p60
aVRyan Bowen HOU 04/23/2005 HOU @ DAL W 31 4 2 7 28.6 0 0 - 0 0 - 2 1 3 0 2 0 0 6 -8
p61
aVDavid Wesley HOU 04/23/2005 HOU @ DAL W 36 9 4 6 66.7 1 1 100.0 0 0 - 1 3 4 3 0 0 2 3 15
p62
aVJon Barry HOU 04/23/2005 HOU @ DAL W 28 8 3 7 42.9 2 4 50.0 0 0 - 0 4 4 1 2 0 0 1 17
p63
aVTracy McGrady HOU 04/23/2005 HOU @ DAL W 47 34 14 27 51.9 3 7 42.9 3 3 100.0 1 4 5 6 2 0 4 2 13
p64
aVMike James HOU 04/23/2005 HOU @ DAL W 26 16 7 13 53.8 0 2 0.0 2 2 100.0 0 1 1 2 1 0 1 2 9
p65
aVBob Sura HOU 04/23/2005 HOU @ DAL W 24 8 3 6 50.0 0 1 0.0 2 2 100.0 0 6 6 1 3 0 1 3 4
p66
aVDikembe Mutombo HOU 04/23/2005 HOU @ DAL W 27 8 1 3 33.3 0 0 - 6 7 85.7 3 5 8 1 0 0 0 4 7
p67
a.