(lp0
VPLAYER TEAM DATE MATCHUP W/L MIN PTS FGM FGA FG% 3PM 3PA 3P% FTM FTA FT% OREB DREB REB AST STL BLK TOV PF +/-
p1
aVRodney Buford NJN 05/01/2005 NJN vs. MIA L 1 0 0 0 - 0 0 - 0 0 - 0 0 0 0 0 0 0 0 -3
p2
aVZoran Planinic NJN 05/01/2005 NJN vs. MIA L 1 0 0 0 - 0 0 - 0 0 - 0 0 0 0 0 0 0 0 -3
p3
aVJabari Smith NJN 05/01/2005 NJN vs. MIA L 1 0 0 0 - 0 0 - 0 0 - 0 0 0 0 0 0 0 0 -3
p4
aVClifford Robinson NJN 05/01/2005 NJN vs. MIA L 17 8 3 6 50.0 2 3 66.7 0 0 - 0 1 1 2 0 1 0 5 2
p5
aVBilly Thomas NJN 05/01/2005 NJN vs. MIA L 1 0 0 1 0.0 0 0 - 0 0 - 0 0 0 0 0 0 0 0 -3
p6
aVBrian Scalabrine NJN 05/01/2005 NJN vs. MIA L 8 0 0 1 0.0 0 0 - 0 0 - 1 0 1 1 1 0 0 0 0
p7
aVTravis Best NJN 05/01/2005 NJN vs. MIA L 16 4 1 2 50.0 0 1 0.0 2 2 100.0 0 2 2 0 0 0 0 3 -2
p8
aVNenad Krstic NJN 05/01/2005 NJN vs. MIA L 38 17 6 12 50.0 0 0 - 5 6 83.3 3 3 6 1 0 2 2 4 -15
p9
aVRichard Jefferson NJN 05/01/2005 NJN vs. MIA L 42 17 4 11 36.4 0 2 0.0 9 11 81.8 1 5 6 6 1 0 4 3 -9
p10
aVJason Collins NJN 05/01/2005 NJN vs. MIA L 34 3 1 2 50.0 0 0 - 1 2 50.0 2 4 6 0 1 0 2 5 -7
p11
aVJason Kidd NJN 05/01/2005 NJN vs. MIA L 41 25 9 19 47.4 4 10 40.0 3 4 75.0 1 4 5 7 1 0 4 5 -8
p12
aVVince Carter NJN 05/01/2005 NJN vs. MIA L 40 23 6 22 27.3 0 3 0.0 11 12 91.7 1 9 10 2 3 0 2 5 -14
p13
aVVince Carter NJN 04/28/2005 NJN vs. MIA L 56 36 15 37 40.5 2 9 22.2 4 6 66.7 3 6 9 10 3 0 7 5 0
p14
aVJason Collins NJN 04/28/2005 NJN vs. MIA L 42 3 1 5 20.0 0 0 - 1 2 50.0 2 8 10 0 1 0 2 5 -3
p15
aVJason Kidd NJN 04/28/2005 NJN vs. MIA L 55 16 6 19 31.6 1 6 16.7 3 6 50.0 4 12 16 13 3 0 1 4 -10
p16
aVTravis Best NJN 04/28/2005 NJN vs. MIA L 9 3 1 2 50.0 0 1 0.0 1 1 100.0 0 0 0 0 0 0 2 1 -2
p17
aVNenad Krstic NJN 04/28/2005 NJN vs. MIA L 51 18 9 14 64.3 0 0 - 0 0 - 4 4 8 1 1 0 0 6 -2
p18
aVBrian Scalabrine NJN 04/28/2005 NJN vs. MIA L 14 2 0 4 0.0 0 1 0.0 2 2 100.0 1 1 2 1 0 1 0 1 -15
p19
aVClifford Robinson NJN 04/28/2005 NJN vs. MIA L 19 4 2 6 33.3 0 2 0.0 0 0 - 1 3 4 1 1 0 0 5 6
p20
aVRichard Jefferson NJN 04/28/2005 NJN vs. MIA L 45 23 8 20 40.0 0 4 0.0 7 10 70.0 3 5 8 1 1 0 2 5 11
p21
aVBrian Scalabrine NJN 04/26/2005 NJN @ MIA L 13 0 0 3 0.0 0 1 0.0 0 0 - 0 2 2 0 0 1 3 3 -10
p22
aVJason Kidd NJN 04/26/2005 NJN @ MIA L 44 10 4 12 33.3 2 6 33.3 0 0 - 1 5 6 5 5 0 3 3 -20
p23
aVTravis Best NJN 04/26/2005 NJN @ MIA L 31 9 3 10 30.0 0 5 0.0 3 4 75.0 1 1 2 5 0 0 0 2 3
p24
aVRichard Jefferson NJN 04/26/2005 NJN @ MIA L 30 14 5 12 41.7 2 2 100.0 2 6 33.3 2 3 5 0 0 0 2 3 -6
p25
aVNenad Krstic NJN 04/26/2005 NJN @ MIA L 34 27 8 13 61.5 0 0 - 11 12 91.7 2 6 8 3 0 0 3 5 -12
p26
aVJabari Smith NJN 04/26/2005 NJN @ MIA L 2 0 0 0 - 0 0 - 0 0 - 0 0 0 0 0 0 0 2 -2
p27
aVJason Collins NJN 04/26/2005 NJN @ MIA L 28 1 0 4 0.0 0 0 - 1 4 25.0 4 4 8 0 0 0 0 5 -13
p28
aVClifford Robinson NJN 04/26/2005 NJN @ MIA L 15 5 2 8 25.0 1 6 16.7 0 0 - 1 1 2 1 1 0 0 6 -6
p29
aVZoran Planinic NJN 04/26/2005 NJN @ MIA L 1 0 0 0 - 0 0 - 0 0 - 0 0 0 0 0 0 0 0 -1
p30
aVVince Carter NJN 04/26/2005 NJN @ MIA L 40 21 6 16 37.5 1 2 50.0 8 9 88.9 3 2 5 3 2 0 3 5 -17
p31
aVRodney Buford NJN 04/26/2005 NJN @ MIA L 1 0 0 0 - 0 0 - 0 0 - 0 0 0 0 0 0 0 0 -1
p32
aVTravis Best NJN 04/24/2005 NJN @ MIA L 25 11 4 8 50.0 1 2 50.0 2 2 100.0 1 1 2 4 1 0 1 3 -14
p33
aVJason Collins NJN 04/24/2005 NJN @ MIA L 24 4 2 6 33.3 0 0 - 0 0 - 1 1 2 1 0 0 1 4 -5
p34
aVJabari Smith NJN 04/24/2005 NJN @ MIA L 1 0 0 0 - 0 0 - 0 0 - 0 0 0 0 0 0 0 0 -2
p35
aVVince Carter NJN 04/24/2005 NJN @ MIA L 45 27 8 21 38.1 3 5 60.0 8 9 88.9 2 8 10 8 1 0 3 2 -14
p36
aVClifford Robinson NJN 04/24/2005 NJN @ MIA L 19 11 4 7 57.1 1 3 33.3 2 2 100.0 0 3 3 1 1 0 0 4 -19
p37
aVJason Kidd NJN 04/24/2005 NJN @ MIA L 43 18 7 17 41.2 4 8 50.0 0 1 0.0 4 5 9 4 1 0 1 4 -13
p38
aVRichard Jefferson NJN 04/24/2005 NJN @ MIA L 23 9 3 7 42.9 0 2 0.0 3 4 75.0 2 1 3 2 1 0 0 3 -8
p39
aVNenad Krstic NJN 04/24/2005 NJN @ MIA L 33 11 4 9 44.4 0 0 - 3 6 50.0 1 7 8 2 0 0 1 5 -7
p40
aVBilly Thomas NJN 04/24/2005 NJN @ MIA L 1 0 0 0 - 0 0 - 0 0 - 0 0 0 0 0 0 0 0 -2
p41
aVZoran Planinic NJN 04/24/2005 NJN @ MIA L 1 0 0 0 - 0 0 - 0 0 - 0 0 0 0 0 0 0 0 -2
p42
aVBrian Scalabrine NJN 04/24/2005 NJN @ MIA L 26 7 2 3 66.7 1 2 50.0 2 2 100.0 0 2 2 0 0 0 1 2 -2
p43
aVRodney Buford NJN 04/24/2005 NJN @ MIA L 1 0 0 0 - 0 0 - 0 0 - 0 0 0 0 0 0 0 0 -2
p44
a.