(lp0
VPLAYER TEAM DATE MATCHUP W/L MIN PTS FGM FGA FG% 3PM 3PA 3P% FTM FTA FT% OREB DREB REB AST STL BLK TOV PF +/-
p1
aVErick Dampier DAL 05/20/2005 DAL vs. PHX L 30 13 6 8 75.0 0 0 - 1 2 50.0 2 4 6 1 1 2 0 4 10
p2
aVMichael Finley DAL 05/20/2005 DAL vs. PHX L 31 7 2 10 20.0 1 5 20.0 2 2 100.0 2 3 5 1 2 0 0 4 2
p3
aVAlan Henderson DAL 05/20/2005 DAL vs. PHX L 15 2 1 2 50.0 0 0 - 0 0 - 1 1 2 0 0 0 0 2 -10
p4
aVDirk Nowitzki DAL 05/20/2005 DAL vs. PHX L 51 28 9 25 36.0 2 5 40.0 8 10 80.0 3 10 13 6 0 0 2 5 -4
p5
aVJosh Howard DAL 05/20/2005 DAL vs. PHX L 46 21 7 14 50.0 0 1 0.0 7 8 87.5 3 11 14 3 2 1 3 4 -4
p6
aVJerry Stackhouse DAL 05/20/2005 DAL vs. PHX L 38 19 4 13 30.8 0 2 0.0 11 12 91.7 0 2 2 0 0 0 2 0 -8
p7
aVDarrell Armstrong DAL 05/20/2005 DAL vs. PHX L 6 0 0 0 - 0 0 - 0 0 - 0 0 0 0 1 1 1 3 -7
p8
aVJason Terry DAL 05/20/2005 DAL vs. PHX L 48 36 13 25 52.0 4 7 57.1 6 9 66.7 0 5 5 2 2 1 1 4 1
p9
aVMichael Finley DAL 05/18/2005 DAL @ PHX L 35 7 3 11 27.3 1 3 33.3 0 0 - 0 1 1 2 2 0 1 4 -6
p10
aVJerry Stackhouse DAL 05/18/2005 DAL @ PHX L 36 29 11 21 52.4 3 6 50.0 4 4 100.0 1 5 6 2 1 1 0 1 0
p11
aVJosh Howard DAL 05/18/2005 DAL @ PHX L 36 19 8 13 61.5 2 3 66.7 1 2 50.0 2 8 10 4 1 0 3 2 2
p12
aVJason Terry DAL 05/18/2005 DAL @ PHX L 42 17 8 17 47.1 1 4 25.0 0 0 - 0 1 1 8 0 2 2 4 1
p13
aVDirk Nowitzki DAL 05/18/2005 DAL @ PHX L 41 34 11 22 50.0 1 3 33.3 11 14 78.6 2 8 10 1 3 1 2 4 -2
p14
aVErick Dampier DAL 05/18/2005 DAL @ PHX L 36 2 0 7 0.0 0 0 - 2 4 50.0 8 6 14 1 2 3 0 4 -16
p15
aVDarrell Armstrong DAL 05/18/2005 DAL @ PHX L 6 0 0 3 0.0 0 3 0.0 0 0 - 0 0 0 1 0 0 0 1 0
p16
aVMarquis Daniels DAL 05/18/2005 DAL @ PHX L 8 0 0 0 - 0 0 - 0 0 - 0 0 0 0 0 0 0 1 -9
p17
aVDirk Nowitzki DAL 05/15/2005 DAL vs. PHX W 44 25 9 15 60.0 1 2 50.0 6 7 85.7 2 6 8 3 2 0 4 4 7
p18
aVMarquis Daniels DAL 05/15/2005 DAL vs. PHX W 10 9 3 3 100.0 0 0 - 3 4 75.0 2 1 3 1 0 0 2 1 2
p19
aVDarrell Armstrong DAL 05/15/2005 DAL vs. PHX W 12 5 2 3 66.7 1 2 50.0 0 0 - 0 0 0 2 0 0 1 2 6
p20
aVErick Dampier DAL 05/15/2005 DAL vs. PHX W 32 13 6 8 75.0 0 0 - 1 4 25.0 4 7 11 2 1 4 1 4 18
p21
aVJosh Howard DAL 05/15/2005 DAL vs. PHX W 40 29 13 21 61.9 0 2 0.0 3 6 50.0 6 4 10 2 2 0 4 5 11
p22
aVJerry Stackhouse DAL 05/15/2005 DAL vs. PHX W 34 22 7 16 43.8 2 5 40.0 6 6 100.0 2 5 7 2 0 0 1 3 3
p23
aVMichael Finley DAL 05/15/2005 DAL vs. PHX W 31 9 3 8 37.5 1 1 100.0 2 2 100.0 0 3 3 1 0 0 1 2 2
p24
aVJason Terry DAL 05/15/2005 DAL vs. PHX W 37 7 3 9 33.3 1 2 50.0 0 0 - 0 1 1 8 3 0 1 2 1
p25
aVAlan Henderson DAL 05/13/2005 DAL vs. PHX L 13 2 1 3 33.3 0 0 - 0 0 - 3 1 4 0 1 0 1 2 -2
p26
aVDevin Harris DAL 05/13/2005 DAL vs. PHX L 1 0 0 1 0.0 0 1 0.0 0 0 - 0 0 0 0 0 0 0 0 -1
p27
aVDirk Nowitzki DAL 05/13/2005 DAL vs. PHX L 42 21 8 24 33.3 0 2 0.0 5 5 100.0 4 9 13 4 1 3 2 2 -10
p28
aVJason Terry DAL 05/13/2005 DAL vs. PHX L 41 14 7 14 50.0 0 3 0.0 0 0 - 3 6 9 7 2 1 0 3 -18
p29
aVShawn Bradley DAL 05/13/2005 DAL vs. PHX L 2 0 0 1 0.0 0 0 - 0 0 - 1 1 2 0 0 0 0 0 -1
p30
aVErick Dampier DAL 05/13/2005 DAL vs. PHX L 13 4 2 4 50.0 0 0 - 0 0 - 2 2 4 0 0 2 2 3 -12
p31
aVJerry Stackhouse DAL 05/13/2005 DAL vs. PHX L 34 20 6 18 33.3 1 4 25.0 7 8 87.5 5 2 7 1 1 0 2 0 -12
p32
aVMichael Finley DAL 05/13/2005 DAL vs. PHX L 43 11 4 14 28.6 0 5 0.0 3 4 75.0 2 1 3 0 2 0 2 1 -17
p33
aVMarquis Daniels DAL 05/13/2005 DAL vs. PHX L 20 13 5 11 45.5 0 2 0.0 3 4 75.0 3 1 4 2 3 1 2 2 -6
p34
aVDarrell Armstrong DAL 05/13/2005 DAL vs. PHX L 4 2 1 1 100.0 0 0 - 0 0 - 0 0 0 2 0 0 0 0 4
p35
aVJosh Howard DAL 05/13/2005 DAL vs. PHX L 27 15 5 9 55.6 0 1 0.0 5 6 83.3 1 5 6 2 1 1 2 4 -10
p36
aVMarquis Daniels DAL 05/11/2005 DAL @ PHX W 29 9 4 12 33.3 0 0 - 1 1 100.0 4 4 8 3 2 0 3 3 -2
p37
aVMichael Finley DAL 05/11/2005 DAL @ PHX W 40 31 12 18 66.7 5 6 83.3 2 2 100.0 0 6 6 5 2 0 2 4 10
p38
aVJerry Stackhouse DAL 05/11/2005 DAL @ PHX W 31 8 2 11 18.2 0 2 0.0 4 4 100.0 0 2 2 5 0 1 2 3 -5
p39
aVJosh Howard DAL 05/11/2005 DAL @ PHX W 35 10 5 10 50.0 0 1 0.0 0 2 0.0 0 2 2 1 0 0 0 5 1
p40
aVDarrell Armstrong DAL 05/11/2005 DAL @ PHX W 2 0 0 0 - 0 0 - 0 0 - 0 0 0 0 0 0 0 0 0
p41
aVAlan Henderson DAL 05/11/2005 DAL @ PHX W 1 0 0 0 - 0 0 - 0 0 - 0 1 1 0 0 0 0 0 0
p42
aVJason Terry DAL 05/11/2005 DAL @ PHX W 36 12 5 10 50.0 0 2 0.0 2 2 100.0 0 3 3 2 0 0 4 2 -2
p43
aVErick Dampier DAL 05/11/2005 DAL @ PHX W 27 15 7 8 87.5 0 0 - 1 4 25.0 7 5 12 0 1 1 1 5 4
p44
aVDirk Nowitzki DAL 05/11/2005 DAL @ PHX W 39 23 8 18 44.4 1 2 50.0 6 9 66.7 1 11 12 2 0 2 3 4 4
p45
aVErick Dampier DAL 05/09/2005 DAL @ PHX L 15 0 0 2 0.0 0 0 - 0 0 - 1 4 5 0 0 0 2 4 -15
p46
aVJosh Howard DAL 05/09/2005 DAL @ PHX L 28 12 6 13 46.2 0 0 - 0 0 - 5 3 8 1 0 0 5 5 -11
p47
aVAlan Henderson DAL 05/09/2005 DAL @ PHX L 16 2 1 2 50.0 0 0 - 0 0 - 2 1 3 0 0 0 0 2 -3
p48
aVMarquis Daniels DAL 05/09/2005 DAL @ PHX L 18 13 5 13 38.5 0 1 0.0 3 4 75.0 3 1 4 2 1 1 0 0 -11
p49
aVDarrell Armstrong DAL 05/09/2005 DAL @ PHX L 6 2 1 3 33.3 0 1 0.0 0 0 - 1 0 1 0 0 0 0 0 -4
p50
aVJason Terry DAL 05/09/2005 DAL @ PHX L 32 13 6 10 60.0 1 4 25.0 0 0 - 0 3 3 3 2 0 2 2 -19
p51
aVJerry Stackhouse DAL 05/09/2005 DAL @ PHX L 32 14 5 15 33.3 1 4 25.0 3 5 60.0 1 5 6 3 0 0 3 2 -13
p52
aVDevin Harris DAL 05/09/2005 DAL @ PHX L 8 3 1 2 50.0 1 1 100.0 0 0 - 0 0 0 2 0 0 1 0 -3
p53
aVMichael Finley DAL 05/09/2005 DAL @ PHX L 36 13 5 13 38.5 1 5 20.0 2 2 100.0 1 2 3 3 0 0 0 3 -20
p54
aVShawn Bradley DAL 05/09/2005 DAL @ PHX L 9 2 1 1 100.0 0 0 - 0 0 - 0 0 0 0 0 1 0 2 -8
p55
aVDirk Nowitzki DAL 05/09/2005 DAL @ PHX L 40 28 13 24 54.2 1 2 50.0 1 1 100.0 3 10 13 4 1 2 3 2 -18
p56
aVJason Terry DAL 05/07/2005 DAL vs. HOU W 41 31 8 14 57.1 3 5 60.0 12 12 100.0 0 2 2 3 2 0 5 2 43
p57
aVDarrell Armstrong DAL 05/07/2005 DAL vs. HOU W 19 9 4 4 100.0 1 1 100.0 0 0 - 1 1 2 4 1 1 0 3 19
p58
aVDirk Nowitzki DAL 05/07/2005 DAL vs. HOU W 36 14 5 14 35.7 0 1 0.0 4 6 66.7 3 11 14 2 1 3 2 1 26
p59
aVAlan Henderson DAL 05/07/2005 DAL vs. HOU W 9 4 1 1 100.0 0 0 - 2 2 100.0 2 1 3 0 0 1 1 1 8
p60
aVJosh Howard DAL 05/07/2005 DAL vs. HOU W 38 21 8 13 61.5 0 2 0.0 5 5 100.0 1 10 11 3 2 4 2 5 27
p61
aVDevin Harris DAL 05/07/2005 DAL vs. HOU W 4 2 1 2 50.0 0 0 - 0 0 - 0 0 0 2 0 0 0 0 6
p62
aVMarquis Daniels DAL 05/07/2005 DAL vs. HOU W 6 3 1 1 100.0 1 1 100.0 0 0 - 0 1 1 0 0 0 0 0 10
p63
aVShawn Bradley DAL 05/07/2005 DAL vs. HOU W 3 2 1 2 50.0 0 0 - 0 0 - 1 1 2 0 0 0 0 1 6
p64
aVJerry Stackhouse DAL 05/07/2005 DAL vs. HOU W 23 9 4 10 40.0 0 0 - 1 1 100.0 1 1 2 4 1 0 1 0 23
p65
aVMichael Finley DAL 05/07/2005 DAL vs. HOU W 37 13 5 13 38.5 3 6 50.0 0 0 - 3 4 7 3 0 0 1 3 18
p66
aVErick Dampier DAL 05/07/2005 DAL vs. HOU W 24 8 3 6 50.0 0 0 - 2 2 100.0 4 4 8 0 0 1 1 3 14
p67
aVShawn Bradley DAL 05/05/2005 DAL @ HOU L 2 0 0 0 - 0 0 - 0 0 - 0 0 0 0 0 0 0 0 0
p68
aVJosh Howard DAL 05/05/2005 DAL @ HOU L 22 8 3 8 37.5 0 0 - 2 2 100.0 1 2 3 0 0 0 2 6 2
p69
aVMichael Finley DAL 05/05/2005 DAL @ HOU L 40 14 6 16 37.5 2 9 22.2 0 0 - 1 2 3 3 3 0 0 3 -7
p70
aVAlan Henderson DAL 05/05/2005 DAL @ HOU L 5 0 0 0 - 0 0 - 0 0 - 0 1 1 0 0 0 0 1 -4
p71
aVMarquis Daniels DAL 05/05/2005 DAL @ HOU L 15 3 1 6 16.7 0 2 0.0 1 2 50.0 2 3 5 0 0 1 0 1 -13
p72
aVDarrell Armstrong DAL 05/05/2005 DAL @ HOU L 10 0 0 2 0.0 0 1 0.0 0 0 - 1 0 1 0 1 0 0 0 -3
p73
aVErick Dampier DAL 05/05/2005 DAL @ HOU L 28 8 4 4 100.0 0 0 - 0 0 - 5 4 9 1 1 0 1 6 -13
p74
aVDevin Harris DAL 05/05/2005 DAL @ HOU L 6 3 0 0 - 0 0 - 3 3 100.0 0 1 1 0 0 0 2 1 -8
p75
aVDirk Nowitzki DAL 05/05/2005 DAL @ HOU L 44 19 5 22 22.7 2 6 33.3 7 9 77.8 0 13 13 4 1 5 2 4 -22
p76
aVJerry Stackhouse DAL 05/05/2005 DAL @ HOU L 31 21 9 16 56.3 2 3 66.7 1 1 100.0 2 2 4 2 1 0 3 1 -16
p77
aVJason Terry DAL 05/05/2005 DAL @ HOU L 37 7 3 12 25.0 1 5 20.0 0 0 - 2 1 3 4 2 0 1 0 -6
p78
aVJosh Howard DAL 05/02/2005 DAL vs. HOU W 31 17 6 13 46.2 0 1 0.0 5 7 71.4 2 6 8 2 1 0 0 5 -5
p79
aVJerry Stackhouse DAL 05/02/2005 DAL vs. HOU W 27 17 6 13 46.2 3 4 75.0 2 2 100.0 3 0 3 3 1 0 2 1 15
p80
aVJason Terry DAL 05/02/2005 DAL vs. HOU W 37 13 4 9 44.4 1 2 50.0 4 6 66.7 0 3 3 7 1 1 1 1 -10
p81
aVMichael Finley DAL 05/02/2005 DAL vs. HOU W 44 12 5 10 50.0 1 4 25.0 1 2 50.0 1 5 6 1 1 0 3 3 0
p82
aVErick Dampier DAL 05/02/2005 DAL vs. HOU W 16 1 0 0 - 0 0 - 1 2 50.0 1 0 1 0 0 0 2 5 -4
p83
aVDevin Harris DAL 05/02/2005 DAL vs. HOU W 11 5 2 3 66.7 0 1 0.0 1 2 50.0 0 3 3 2 0 0 1 1 13
p84
aVAlan Henderson DAL 05/02/2005 DAL vs. HOU W 17 4 2 4 50.0 0 0 - 0 0 - 1 0 1 0 0 1 0 3 5
p85
aVDirk Nowitzki DAL 05/02/2005 DAL vs. HOU W 43 23 9 22 40.9 1 3 33.3 4 6 66.7 4 9 13 2 4 1 0 5 2
p86
aVMarquis Daniels DAL 05/02/2005 DAL vs. HOU W 14 11 3 5 60.0 0 0 - 5 7 71.4 1 3 4 0 0 0 2 2 -1
p87
aVJosh Howard DAL 04/30/2005 DAL @ HOU W 30 8 3 11 27.3 0 2 0.0 2 3 66.7 2 1 3 4 1 0 1 3 5
p88
aVErick Dampier DAL 04/30/2005 DAL @ HOU W 18 2 1 3 33.3 0 1 0.0 0 0 - 3 2 5 0 0 1 0 6 7
p89
aVJerry Stackhouse DAL 04/30/2005 DAL @ HOU W 31 10 3 10 30.0 0 2 0.0 4 6 66.7 1 5 6 2 2 0 3 3 4
p90
aVMichael Finley DAL 04/30/2005 DAL @ HOU W 43 18 8 13 61.5 2 6 33.3 0 0 - 0 3 3 0 3 0 1 1 1
p91
aVDevin Harris DAL 04/30/2005 DAL @ HOU W 4 0 0 0 - 0 0 - 0 0 - 0 0 0 0 0 0 1 0 -7
p92
aVMarquis Daniels DAL 04/30/2005 DAL @ HOU W 18 5 1 1 100.0 0 0 - 3 5 60.0 0 2 2 2 0 0 4 1 -4
p93
aVJason Terry DAL 04/30/2005 DAL @ HOU W 41 32 11 18 61.1 6 8 75.0 4 4 100.0 1 3 4 3 0 0 5 1 11
p94
aVAlan Henderson DAL 04/30/2005 DAL @ HOU W 12 4 2 2 100.0 0 0 - 0 0 - 2 0 2 0 1 0 0 4 -5
p95
aVDirk Nowitzki DAL 04/30/2005 DAL @ HOU W 43 18 4 14 28.6 1 1 100.0 9 9 100.0 1 6 7 6 1 1 1 3 8
p96
aVMichael Finley DAL 04/28/2005 DAL @ HOU W 40 20 6 10 60.0 4 6 66.7 4 4 100.0 0 3 3 3 0 0 0 1 2
p97
aVDirk Nowitzki DAL 04/28/2005 DAL @ HOU W 44 28 9 16 56.3 0 0 - 10 10 100.0 0 6 6 3 2 1 3 5 1
p98
aVDarrell Armstrong DAL 04/28/2005 DAL @ HOU W 0 0 0 0 - 0 0 - 0 0 - 0 0 0 0 0 0 0 0 -2
p99
aVErick Dampier DAL 04/28/2005 DAL @ HOU W 19 4 2 4 50.0 0 0 - 0 2 0.0 4 2 6 1 0 0 1 5 0
p100
aVMarquis Daniels DAL 04/28/2005 DAL @ HOU W 19 6 3 6 50.0 0 0 - 0 0 - 0 0 0 4 0 0 0 4 4
p101
aVKeith Van Horn DAL 04/28/2005 DAL @ HOU W 6 4 0 2 0.0 0 1 0.0 4 4 100.0 1 0 1 0 0 0 0 0 4
p102
aVJason Terry DAL 04/28/2005 DAL @ HOU W 32 13 4 5 80.0 3 4 75.0 2 2 100.0 0 6 6 4 2 1 0 3 -1
p103
aVJerry Stackhouse DAL 04/28/2005 DAL @ HOU W 37 18 4 12 33.3 1 3 33.3 9 10 90.0 2 3 5 3 1 0 1 2 12
p104
aVDevin Harris DAL 04/28/2005 DAL @ HOU W 26 6 2 5 40.0 0 2 0.0 2 4 50.0 0 5 5 2 2 0 4 2 4
p105
aVShawn Bradley DAL 04/28/2005 DAL @ HOU W 0 0 0 0 - 0 0 - 0 0 - 0 0 0 0 0 0 0 0 0
p106
aVJosh Howard DAL 04/28/2005 DAL @ HOU W 17 7 3 8 37.5 0 1 0.0 1 1 100.0 1 2 3 1 0 0 2 6 -4
p107
aVMichael Finley DAL 04/25/2005 DAL vs. HOU L 39 10 4 9 44.4 2 3 66.7 0 0 - 2 5 7 4 1 0 1 1 -1
p108
aVDirk Nowitzki DAL 04/25/2005 DAL vs. HOU L 43 26 8 21 38.1 0 1 0.0 10 12 83.3 1 1 2 3 2 1 3 1 0
p109
aVDevin Harris DAL 04/25/2005 DAL vs. HOU L 11 3 1 3 33.3 1 1 100.0 0 0 - 0 2 2 2 2 1 0 0 -5
p110
aVAlan Henderson DAL 04/25/2005 DAL vs. HOU L 4 0 0 0 - 0 0 - 0 0 - 0 0 0 0 0 0 0 0 -3
p111
aVShawn Bradley DAL 04/25/2005 DAL vs. HOU L 7 5 2 2 100.0 0 0 - 1 2 50.0 2 0 2 0 0 0 0 2 -4
p112
aVMarquis Daniels DAL 04/25/2005 DAL vs. HOU L 9 0 0 2 0.0 0 0 - 0 0 - 0 3 3 0 0 0 0 0 -4
p113
aVKeith Van Horn DAL 04/25/2005 DAL vs. HOU L 12 13 5 6 83.3 0 1 0.0 3 3 100.0 0 0 0 0 1 0 1 5 6
p114
aVErick Dampier DAL 04/25/2005 DAL vs. HOU L 25 14 6 7 85.7 0 0 - 2 4 50.0 5 4 9 1 0 1 1 3 -2
p115
aVJason Terry DAL 04/25/2005 DAL vs. HOU L 37 15 5 11 45.5 3 4 75.0 2 2 100.0 0 8 8 6 0 0 4 2 3
p116
aVJerry Stackhouse DAL 04/25/2005 DAL vs. HOU L 20 8 3 8 37.5 2 3 66.7 0 0 - 0 0 0 2 0 0 1 4 -10
p117
aVJosh Howard DAL 04/25/2005 DAL vs. HOU L 35 17 7 13 53.8 2 2 100.0 1 3 33.3 4 4 8 0 0 1 3 4 10
p118
aVMichael Finley DAL 04/23/2005 DAL vs. HOU L 32 5 2 8 25.0 1 2 50.0 0 0 - 1 5 6 2 1 0 1 2 -3
p119
aVErick Dampier DAL 04/23/2005 DAL vs. HOU L 25 7 3 6 50.0 0 0 - 1 4 25.0 5 2 7 0 1 3 0 2 -3
p120
aVShawn Bradley DAL 04/23/2005 DAL vs. HOU L 3 0 0 0 - 0 0 - 0 0 - 0 0 0 0 0 1 0 2 -4
p121
aVJerry Stackhouse DAL 04/23/2005 DAL vs. HOU L 31 14 4 13 30.8 1 2 50.0 5 7 71.4 2 1 3 1 0 1 0 2 -14
p122
aVDirk Nowitzki DAL 04/23/2005 DAL vs. HOU L 42 21 5 19 26.3 0 2 0.0 11 13 84.6 1 6 7 3 0 1 6 2 -20
p123
aVJason Terry DAL 04/23/2005 DAL vs. HOU L 42 17 4 6 66.7 3 5 60.0 6 6 100.0 3 3 6 3 1 1 4 2 -3
p124
aVDevin Harris DAL 04/23/2005 DAL vs. HOU L 7 0 0 0 - 0 0 - 0 0 - 0 0 0 1 0 0 1 1 -11
p125
aVKeith Van Horn DAL 04/23/2005 DAL vs. HOU L 15 5 2 7 28.6 0 2 0.0 1 2 50.0 2 3 5 1 0 0 0 1 -2
p126
aVJosh Howard DAL 04/23/2005 DAL vs. HOU L 43 17 4 9 44.4 0 0 - 9 10 90.0 5 5 10 1 1 0 1 6 0
p127
a.