(lp0
VPLAYER TEAM DATE MATCHUP W/L MIN PTS FGM FGA FG% 3PM 3PA 3P% FTM FTA FT% OREB DREB REB AST STL BLK TOV PF +/-
p1
aVLorenzen Wright MEM 05/01/2006 MEM vs. DAL L 19 4 2 5 40.0 0 0 - 0 0 - 2 2 4 1 0 0 1 1 -12
p2
aVBobby Jackson MEM 05/01/2006 MEM vs. DAL L 22 8 3 7 42.9 0 1 0.0 2 3 66.7 0 1 1 0 0 0 2 1 -19
p3
aVAntonio Burks MEM 05/01/2006 MEM vs. DAL L 5 3 1 1 100.0 0 0 - 1 2 50.0 0 1 1 1 1 0 0 1 4
p4
aVEddie Jones MEM 05/01/2006 MEM vs. DAL L 5 0 0 0 - 0 0 - 0 0 - 0 1 1 1 0 0 0 0 0
p5
aVChucky Atkins MEM 05/01/2006 MEM vs. DAL L 26 8 3 8 37.5 0 1 0.0 2 2 100.0 0 1 1 4 1 0 0 2 -12
p6
aVShane Battier MEM 05/01/2006 MEM vs. DAL L 30 5 2 5 40.0 0 2 0.0 1 3 33.3 4 3 7 0 0 0 1 3 -12
p7
aVPau Gasol MEM 05/01/2006 MEM vs. DAL L 39 25 9 19 47.4 0 0 - 7 8 87.5 1 5 6 0 1 0 4 2 -23
p8
aVMike Miller MEM 05/01/2006 MEM vs. DAL L 38 10 4 11 36.4 0 2 0.0 2 2 100.0 0 3 3 2 1 0 2 1 -33
p9
aVHakim Warrick MEM 05/01/2006 MEM vs. DAL L 17 4 1 6 16.7 0 1 0.0 2 2 100.0 0 4 4 0 0 0 2 3 -2
p10
aVBrian Cardinal MEM 05/01/2006 MEM vs. DAL L 10 0 0 0 - 0 0 - 0 0 - 0 1 1 0 0 0 0 1 -4
p11
aVJake Tsakalidis MEM 05/01/2006 MEM vs. DAL L 10 2 1 1 100.0 0 0 - 0 0 - 0 0 0 0 0 1 1 2 -6
p12
aVDahntay Jones MEM 05/01/2006 MEM vs. DAL L 19 7 2 4 50.0 0 0 - 3 6 50.0 1 2 3 0 1 0 1 2 -11
p13
aVHakim Warrick MEM 04/29/2006 MEM vs. DAL L 13 11 2 7 28.6 0 0 - 7 8 87.5 1 0 1 0 1 0 1 1 -5
p14
aVJake Tsakalidis MEM 04/29/2006 MEM vs. DAL L 6 0 0 1 0.0 0 0 - 0 0 - 0 1 1 0 0 0 2 3 4
p15
aVBobby Jackson MEM 04/29/2006 MEM vs. DAL L 17 2 1 3 33.3 0 1 0.0 0 0 - 0 4 4 0 0 0 2 0 -2
p16
aVPau Gasol MEM 04/29/2006 MEM vs. DAL L 38 16 6 17 35.3 0 0 - 4 6 66.7 1 6 7 3 0 1 4 5 3
p17
aVDahntay Jones MEM 04/29/2006 MEM vs. DAL L 7 0 0 0 - 0 0 - 0 0 - 0 1 1 0 0 0 0 1 0
p18
aVShane Battier MEM 04/29/2006 MEM vs. DAL L 43 10 4 8 50.0 1 3 33.3 1 3 33.3 1 5 6 1 1 0 0 4 -3
p19
aVEddie Jones MEM 04/29/2006 MEM vs. DAL L 48 14 4 11 36.4 0 2 0.0 6 7 85.7 2 4 6 5 2 1 0 3 -5
p20
aVChucky Atkins MEM 04/29/2006 MEM vs. DAL L 36 20 8 16 50.0 3 5 60.0 1 2 50.0 0 2 2 3 1 0 1 5 -3
p21
aVMike Miller MEM 04/29/2006 MEM vs. DAL L 17 6 3 7 42.9 0 2 0.0 0 0 - 1 3 4 2 0 0 1 4 -5
p22
aVLorenzen Wright MEM 04/29/2006 MEM vs. DAL L 40 10 3 6 50.0 0 0 - 4 4 100.0 5 5 10 2 0 3 0 2 -9
p23
aVDahntay Jones MEM 04/26/2006 MEM @ DAL L 20 8 3 3 100.0 0 0 - 2 2 100.0 0 3 3 0 0 0 1 4 -7
p24
aVBrian Cardinal MEM 04/26/2006 MEM @ DAL L 6 0 0 0 - 0 0 - 0 0 - 1 2 3 0 0 0 0 0 2
p25
aVLorenzen Wright MEM 04/26/2006 MEM @ DAL L 14 8 3 3 100.0 0 0 - 2 4 50.0 3 1 4 0 0 1 2 3 1
p26
aVMike Miller MEM 04/26/2006 MEM @ DAL L 24 9 2 7 28.6 0 3 0.0 5 5 100.0 0 5 5 2 0 2 2 4 -14
p27
aVBobby Jackson MEM 04/26/2006 MEM @ DAL L 28 12 5 11 45.5 2 4 50.0 0 0 - 0 0 0 1 1 0 5 4 2
p28
aVChucky Atkins MEM 04/26/2006 MEM @ DAL L 25 7 2 8 25.0 1 3 33.3 2 4 50.0 0 0 0 4 0 0 1 2 -20
p29
aVJake Tsakalidis MEM 04/26/2006 MEM @ DAL L 16 0 0 0 - 0 0 - 0 0 - 1 1 2 0 0 0 2 3 -15
p30
aVPau Gasol MEM 04/26/2006 MEM @ DAL L 38 16 6 13 46.2 0 0 - 4 5 80.0 1 6 7 5 0 2 1 1 -15
p31
aVHakim Warrick MEM 04/26/2006 MEM @ DAL L 12 5 1 3 33.3 0 0 - 3 4 75.0 0 2 2 0 0 0 1 3 5
p32
aVEddie Jones MEM 04/26/2006 MEM @ DAL L 33 11 5 10 50.0 1 2 50.0 0 2 0.0 1 3 4 2 0 0 1 3 -13
p33
aVAntonio Burks MEM 04/26/2006 MEM @ DAL L 8 0 0 0 - 0 0 - 0 0 - 0 0 0 1 0 0 0 1 5
p34
aVShane Battier MEM 04/26/2006 MEM @ DAL L 16 3 1 3 33.3 1 2 50.0 0 0 - 0 4 4 0 0 0 4 4 -6
p35
aVJake Tsakalidis MEM 04/23/2006 MEM @ DAL L 27 11 5 8 62.5 0 0 - 1 2 50.0 3 5 8 2 1 0 2 5 -14
p36
aVEddie Jones MEM 04/23/2006 MEM @ DAL L 34 16 5 8 62.5 2 3 66.7 4 6 66.7 0 0 0 2 1 0 0 4 -1
p37
aVShane Battier MEM 04/23/2006 MEM @ DAL L 40 6 3 4 75.0 0 0 - 0 0 - 2 4 6 1 3 2 3 5 5
p38
aVPau Gasol MEM 04/23/2006 MEM @ DAL L 40 24 8 18 44.4 0 1 0.0 8 11 72.7 1 6 7 4 1 2 2 3 -2
p39
aVBrian Cardinal MEM 04/23/2006 MEM @ DAL L 8 3 1 2 50.0 1 2 50.0 0 0 - 0 0 0 1 1 0 0 1 -8
p40
aVChucky Atkins MEM 04/23/2006 MEM @ DAL L 15 4 2 5 40.0 0 2 0.0 0 0 - 0 0 0 1 0 0 2 6 -6
p41
aVMike Miller MEM 04/23/2006 MEM @ DAL L 28 9 3 5 60.0 1 1 100.0 2 2 100.0 0 3 3 1 1 0 3 2 -14
p42
aVDahntay Jones MEM 04/23/2006 MEM @ DAL L 3 2 0 0 - 0 0 - 2 2 100.0 0 0 0 0 0 0 0 0 1
p43
aVLorenzen Wright MEM 04/23/2006 MEM @ DAL L 12 7 3 4 75.0 0 0 - 1 2 50.0 1 1 2 0 0 0 2 3 -7
p44
aVBobby Jackson MEM 04/23/2006 MEM @ DAL L 33 11 3 8 37.5 2 5 40.0 3 4 75.0 0 3 3 4 0 0 5 2 -4
p45
a.