(lp0
VPLAYER TEAM DATE MATCHUP W/L MIN PTS FGM FGA FG% 3PM 3PA 3P% FTM FTA FT% OREB DREB REB AST STL BLK TOV PF +/-
p1
aVDevean George LAL 05/06/2006 LAL @ PHX L 15 0 0 4 0.0 0 2 0.0 0 0 - 1 2 3 0 0 0 0 2 -6
p2
aVKobe Bryant LAL 05/06/2006 LAL @ PHX L 43 24 8 16 50.0 4 8 50.0 4 5 80.0 0 4 4 1 0 1 3 4 -28
p3
aVSasha Vujacic LAL 05/06/2006 LAL @ PHX L 21 11 2 6 33.3 1 1 100.0 6 6 100.0 2 4 6 0 2 0 0 1 0
p4
aVBrian Cook LAL 05/06/2006 LAL @ PHX L 13 8 4 11 36.4 0 3 0.0 0 0 - 2 2 4 1 0 0 0 1 5
p5
aVLuke Walton LAL 05/06/2006 LAL @ PHX L 33 16 6 13 46.2 2 3 66.7 2 2 100.0 0 5 5 1 1 0 1 2 -25
p6
aVAndrew Bynum LAL 05/06/2006 LAL @ PHX L 2 0 0 1 0.0 0 0 - 0 0 - 0 0 0 0 0 0 0 0 -6
p7
aVSmush Parker LAL 05/06/2006 LAL @ PHX L 36 9 4 13 30.8 1 6 16.7 0 0 - 3 2 5 4 3 0 3 3 -36
p8
aVKwame Brown LAL 05/06/2006 LAL @ PHX L 22 8 2 10 20.0 0 0 - 4 4 100.0 2 3 5 1 0 0 1 2 -29
p9
aVLamar Odom LAL 05/06/2006 LAL @ PHX L 42 12 5 14 35.7 0 4 0.0 2 2 100.0 2 3 5 2 0 1 1 4 -23
p10
aVRonny Turiaf LAL 05/06/2006 LAL @ PHX L 13 2 1 3 33.3 0 0 - 0 0 - 3 1 4 0 0 0 1 2 -7
p11
aVKobe Bryant LAL 05/04/2006 LAL vs. PHX L 52 50 20 35 57.1 5 8 62.5 5 6 83.3 1 7 8 5 3 0 7 4 -6
p12
aVLamar Odom LAL 05/04/2006 LAL vs. PHX L 51 22 8 14 57.1 1 5 20.0 5 8 62.5 1 10 11 9 0 0 5 3 -8
p13
aVSasha Vujacic LAL 05/04/2006 LAL vs. PHX L 16 2 1 3 33.3 0 2 0.0 0 0 - 0 1 1 3 0 0 0 5 -3
p14
aVBrian Cook LAL 05/04/2006 LAL vs. PHX L 7 0 0 0 - 0 0 - 0 0 - 0 0 0 1 0 0 1 2 4
p15
aVRonny Turiaf LAL 05/04/2006 LAL vs. PHX L 4 1 0 0 - 0 0 - 1 2 50.0 1 2 3 0 0 0 0 1 0
p16
aVDevean George LAL 05/04/2006 LAL vs. PHX L 23 14 5 8 62.5 3 5 60.0 1 3 33.3 1 1 2 1 1 0 0 1 2
p17
aVSmush Parker LAL 05/04/2006 LAL vs. PHX L 41 2 0 5 0.0 0 2 0.0 2 2 100.0 0 0 0 2 3 0 3 6 -5
p18
aVKwame Brown LAL 05/04/2006 LAL vs. PHX L 40 17 8 9 88.9 0 0 - 1 1 100.0 5 4 9 1 0 1 2 4 -14
p19
aVLuke Walton LAL 05/04/2006 LAL vs. PHX L 31 10 5 11 45.5 0 1 0.0 0 0 - 3 2 5 1 1 0 2 4 -10
p20
aVSmush Parker LAL 05/02/2006 LAL @ PHX L 27 5 1 7 14.3 1 3 33.3 2 2 100.0 0 3 3 0 1 1 1 2 -5
p21
aVBrian Cook LAL 05/02/2006 LAL @ PHX L 15 9 4 5 80.0 1 1 100.0 0 0 - 0 2 2 2 0 0 0 1 7
p22
aVAaron McKie LAL 05/02/2006 LAL @ PHX L 8 0 0 0 - 0 0 - 0 0 - 0 0 0 0 0 0 0 0 -10
p23
aVKobe Bryant LAL 05/02/2006 LAL @ PHX L 43 29 10 17 58.8 3 8 37.5 6 9 66.7 0 7 7 5 0 1 5 3 -19
p24
aVDevean George LAL 05/02/2006 LAL @ PHX L 17 5 2 6 33.3 1 3 33.3 0 0 - 0 1 1 0 1 0 0 3 -5
p25
aVLuke Walton LAL 05/02/2006 LAL @ PHX L 33 9 4 11 36.4 1 2 50.0 0 0 - 2 4 6 2 1 0 4 1 -16
p26
aVSasha Vujacic LAL 05/02/2006 LAL @ PHX L 15 0 0 1 0.0 0 1 0.0 0 0 - 0 0 0 0 1 0 1 3 12
p27
aVKwame Brown LAL 05/02/2006 LAL @ PHX L 24 14 6 6 100.0 0 0 - 2 4 50.0 1 2 3 0 1 0 3 5 -24
p28
aVLamar Odom LAL 05/02/2006 LAL @ PHX L 42 18 7 14 50.0 0 2 0.0 4 5 80.0 2 13 15 6 0 1 2 3 -21
p29
aVRonny Turiaf LAL 05/02/2006 LAL @ PHX L 9 8 2 2 100.0 0 0 - 4 4 100.0 0 0 0 0 0 1 1 2 0
p30
aVJim Jackson LAL 05/02/2006 LAL @ PHX L 7 0 0 1 0.0 0 1 0.0 0 0 - 0 0 0 1 0 0 1 1 -4
p31
aVLamar Odom LAL 04/30/2006 LAL vs. PHX W 49 25 7 16 43.8 0 4 0.0 11 14 78.6 2 6 8 5 1 1 4 5 4
p32
aVKobe Bryant LAL 04/30/2006 LAL vs. PHX W 39 24 9 14 64.3 0 1 0.0 6 8 75.0 1 3 4 8 0 0 7 5 -1
p33
aVBrian Cook LAL 04/30/2006 LAL vs. PHX W 12 7 3 8 37.5 1 3 33.3 0 0 - 1 1 2 0 1 0 1 2 -2
p34
aVKwame Brown LAL 04/30/2006 LAL vs. PHX W 35 12 4 12 33.3 0 0 - 4 6 66.7 2 8 10 0 0 0 2 2 2
p35
aVSasha Vujacic LAL 04/30/2006 LAL vs. PHX W 29 9 2 3 66.7 2 3 66.7 3 3 100.0 0 5 5 1 0 0 1 2 10
p36
aVSmush Parker LAL 04/30/2006 LAL vs. PHX W 41 5 2 12 16.7 1 5 20.0 0 0 - 2 1 3 1 2 0 1 5 -11
p37
aVDevean George LAL 04/30/2006 LAL vs. PHX W 21 11 4 7 57.1 3 5 60.0 0 0 - 0 1 1 2 0 0 0 1 6
p38
aVLuke Walton LAL 04/30/2006 LAL vs. PHX W 39 6 3 5 60.0 0 0 - 0 0 - 1 8 9 4 1 0 1 0 -3
p39
aVSmush Parker LAL 04/28/2006 LAL vs. PHX W 40 18 9 16 56.3 0 4 0.0 0 0 - 0 0 0 0 1 0 0 0 10
p40
aVLuke Walton LAL 04/28/2006 LAL vs. PHX W 39 17 8 19 42.1 0 2 0.0 1 1 100.0 2 8 10 1 0 0 1 2 -9
p41
aVKobe Bryant LAL 04/28/2006 LAL vs. PHX W 46 17 6 18 33.3 0 3 0.0 5 6 83.3 1 4 5 7 4 0 4 2 11
p42
aVBrian Cook LAL 04/28/2006 LAL vs. PHX W 11 9 3 11 27.3 1 1 100.0 2 2 100.0 6 1 7 0 0 0 0 3 2
p43
aVDevean George LAL 04/28/2006 LAL vs. PHX W 14 4 1 4 25.0 1 3 33.3 1 2 50.0 0 1 1 0 2 0 0 1 5
p44
aVSasha Vujacic LAL 04/28/2006 LAL vs. PHX W 14 6 2 4 50.0 2 2 100.0 0 0 - 0 2 2 0 1 0 1 0 2
p45
aVKwame Brown LAL 04/28/2006 LAL vs. PHX W 36 13 5 8 62.5 0 0 - 3 4 75.0 3 8 11 5 1 3 0 4 4
p46
aVLamar Odom LAL 04/28/2006 LAL vs. PHX W 40 15 5 14 35.7 1 6 16.7 4 8 50.0 4 13 17 4 0 3 3 2 10
p47
aVDevean George LAL 04/26/2006 LAL @ PHX W 22 3 1 4 25.0 1 3 33.3 0 0 - 0 6 6 1 0 1 0 2 15
p48
aVLuke Walton LAL 04/26/2006 LAL @ PHX W 25 8 3 8 37.5 0 1 0.0 2 2 100.0 0 4 4 1 1 0 2 4 4
p49
aVKwame Brown LAL 04/26/2006 LAL @ PHX W 36 12 4 8 50.0 0 0 - 4 7 57.1 1 1 2 0 0 2 3 1 -6
p50
aVJim Jackson LAL 04/26/2006 LAL @ PHX W 5 2 1 3 33.3 0 0 - 0 0 - 1 1 2 1 1 0 0 1 -4
p51
aVSmush Parker LAL 04/26/2006 LAL @ PHX W 30 8 3 6 50.0 0 1 0.0 2 2 100.0 1 3 4 3 3 0 3 4 4
p52
aVLamar Odom LAL 04/26/2006 LAL @ PHX W 44 21 9 12 75.0 3 5 60.0 0 0 - 1 6 7 5 2 1 4 3 -3
p53
aVBrian Cook LAL 04/26/2006 LAL @ PHX W 12 5 2 4 50.0 1 1 100.0 0 0 - 1 1 2 2 0 0 1 4 12
p54
aVSasha Vujacic LAL 04/26/2006 LAL @ PHX W 21 11 3 6 50.0 3 4 75.0 2 2 100.0 0 2 2 2 0 0 0 1 6
p55
aVKobe Bryant LAL 04/26/2006 LAL @ PHX W 45 29 12 24 50.0 1 1 100.0 4 6 66.7 0 10 10 5 1 0 4 4 2
p56
aVLamar Odom LAL 04/23/2006 LAL @ PHX L 45 21 8 15 53.3 1 4 25.0 4 8 50.0 3 11 14 3 0 1 4 3 -5
p57
aVLuke Walton LAL 04/23/2006 LAL @ PHX L 34 19 9 16 56.3 1 2 50.0 0 0 - 2 4 6 2 2 1 0 3 2
p58
aVSasha Vujacic LAL 04/23/2006 LAL @ PHX L 12 3 1 3 33.3 1 2 50.0 0 0 - 1 0 1 0 0 0 0 2 -5
p59
aVDevean George LAL 04/23/2006 LAL @ PHX L 10 0 0 1 0.0 0 0 - 0 0 - 0 2 2 0 0 0 0 3 -7
p60
aVJim Jackson LAL 04/23/2006 LAL @ PHX L 9 2 1 2 50.0 0 0 - 0 0 - 1 0 1 0 0 1 1 2 4
p61
aVBrian Cook LAL 04/23/2006 LAL @ PHX L 11 6 2 7 28.6 0 2 0.0 2 2 100.0 1 4 5 2 0 0 0 2 0
p62
aVSmush Parker LAL 04/23/2006 LAL @ PHX L 42 15 5 13 38.5 1 5 20.0 4 4 100.0 3 3 6 1 2 0 1 4 -4
p63
aVKwame Brown LAL 04/23/2006 LAL @ PHX L 30 14 5 12 41.7 0 0 - 4 5 80.0 3 3 6 0 0 0 1 3 -3
p64
aVKobe Bryant LAL 04/23/2006 LAL @ PHX L 47 22 7 21 33.3 1 6 16.7 7 8 87.5 1 5 6 5 0 1 3 3 -7
p65
a.