(lp0
VPLAYER TEAM DATE MATCHUP W/L MIN PTS FGM FGA FG% 3PM 3PA 3P% FTM FTA FT% OREB DREB REB AST STL BLK TOV PF +/-
p1
aVEarl Boykins DEN 05/01/2006 DEN @ LAC L 30 11 4 10 40.0 0 3 0.0 3 5 60.0 0 0 0 2 1 0 1 1 -15
p2
aVFrancisco Elson DEN 05/01/2006 DEN @ LAC L 26 2 1 2 50.0 0 0 - 0 0 - 4 2 6 2 1 0 1 4 -12
p3
aVGreg Buckner DEN 05/01/2006 DEN @ LAC L 33 20 8 13 61.5 4 5 80.0 0 0 - 1 2 3 3 1 0 1 2 -11
p4
aVMarcus Camby DEN 05/01/2006 DEN @ LAC L 29 6 3 10 30.0 0 0 - 0 0 - 3 8 11 2 3 2 1 2 -11
p5
aVReggie Evans DEN 05/01/2006 DEN @ LAC L 4 2 1 1 100.0 0 0 - 0 0 - 0 1 1 0 0 0 0 0 -1
p6
aVEduardo Najera DEN 05/01/2006 DEN @ LAC L 26 0 0 6 0.0 0 0 - 0 0 - 0 4 4 1 1 0 1 4 -14
p7
aVLinas Kleiza DEN 05/01/2006 DEN @ LAC L 10 4 2 5 40.0 0 0 - 0 0 - 1 2 3 1 0 0 0 1 0
p8
aVDerMarr Johnson DEN 05/01/2006 DEN @ LAC L 11 0 0 3 0.0 0 3 0.0 0 0 - 0 3 3 0 0 0 0 1 -4
p9
aVAndre Miller DEN 05/01/2006 DEN @ LAC L 31 15 7 18 38.9 0 0 - 1 2 50.0 2 4 6 8 1 0 1 3 -15
p10
aVCarmelo Anthony DEN 05/01/2006 DEN @ LAC L 40 23 8 24 33.3 0 1 0.0 7 8 87.5 3 1 4 1 2 1 4 3 -7
p11
aVCarmelo Anthony DEN 04/29/2006 DEN vs. LAC L 35 17 5 17 29.4 0 2 0.0 7 8 87.5 3 8 11 4 1 0 4 6 -8
p12
aVMarcus Camby DEN 04/29/2006 DEN vs. LAC L 39 14 7 14 50.0 0 0 - 0 0 - 0 6 6 2 0 3 0 2 -7
p13
aVEduardo Najera DEN 04/29/2006 DEN vs. LAC L 25 1 0 1 0.0 0 0 - 1 2 50.0 0 2 2 0 0 0 1 1 -4
p14
aVReggie Evans DEN 04/29/2006 DEN vs. LAC L 10 1 0 2 0.0 0 1 0.0 1 2 50.0 1 1 2 0 0 0 1 2 -10
p15
aVDerMarr Johnson DEN 04/29/2006 DEN vs. LAC L 13 5 2 5 40.0 1 4 25.0 0 0 - 0 4 4 2 0 1 1 0 1
p16
aVGreg Buckner DEN 04/29/2006 DEN vs. LAC L 36 11 5 13 38.5 1 7 14.3 0 0 - 0 3 3 2 1 0 0 4 2
p17
aVRuben Patterson DEN 04/29/2006 DEN vs. LAC L 8 6 3 4 75.0 0 0 - 0 0 - 1 1 2 1 0 0 0 2 -10
p18
aVAndre Miller DEN 04/29/2006 DEN vs. LAC L 38 14 7 13 53.8 0 0 - 0 0 - 1 3 4 9 3 1 7 2 -1
p19
aVLinas Kleiza DEN 04/29/2006 DEN vs. LAC L 4 2 1 3 33.3 0 1 0.0 0 0 - 0 1 1 1 0 0 0 2 3
p20
aVFrancisco Elson DEN 04/29/2006 DEN vs. LAC L 13 4 2 2 100.0 0 0 - 0 0 - 0 0 0 0 0 0 1 1 -14
p21
aVEarl Boykins DEN 04/29/2006 DEN vs. LAC L 19 11 4 11 36.4 3 7 42.9 0 0 - 2 0 2 4 0 0 0 1 -22
p22
aVGreg Buckner DEN 04/27/2006 DEN vs. LAC W 26 13 3 12 25.0 0 8 0.0 7 8 87.5 1 2 3 0 0 1 0 1 4
p23
aVAndre Miller DEN 04/27/2006 DEN vs. LAC W 40 14 6 14 42.9 0 0 - 2 4 50.0 2 1 3 7 1 0 2 5 14
p24
aVCarmelo Anthony DEN 04/27/2006 DEN vs. LAC W 45 24 6 17 35.3 0 0 - 12 19 63.2 1 6 7 4 1 0 2 3 9
p25
aVRuben Patterson DEN 04/27/2006 DEN vs. LAC W 16 8 4 6 66.7 0 0 - 0 0 - 3 0 3 1 0 0 2 1 -4
p26
aVEarl Boykins DEN 04/27/2006 DEN vs. LAC W 27 13 4 13 30.8 0 2 0.0 5 7 71.4 0 0 0 5 0 0 1 1 2
p27
aVLinas Kleiza DEN 04/27/2006 DEN vs. LAC W 1 0 0 0 - 0 0 - 0 0 - 0 0 0 0 0 0 0 0 1
p28
aVMarcus Camby DEN 04/27/2006 DEN vs. LAC W 32 12 5 12 41.7 0 0 - 2 2 100.0 2 12 14 3 0 2 2 4 14
p29
aVReggie Evans DEN 04/27/2006 DEN vs. LAC W 22 5 1 2 50.0 0 1 0.0 3 4 75.0 0 4 4 0 1 1 5 3 -10
p30
aVFrancisco Elson DEN 04/27/2006 DEN vs. LAC W 10 0 0 1 0.0 0 0 - 0 0 - 0 1 1 0 3 0 0 6 -10
p31
aVEduardo Najera DEN 04/27/2006 DEN vs. LAC W 21 5 2 5 40.0 0 0 - 1 2 50.0 4 1 5 1 2 0 1 4 15
p32
aVCarmelo Anthony DEN 04/24/2006 DEN @ LAC L 30 16 5 15 33.3 0 0 - 6 8 75.0 1 3 4 2 0 0 3 5 1
p33
aVKenyon Martin DEN 04/24/2006 DEN @ LAC L 7 0 0 2 0.0 0 0 - 0 0 - 1 0 1 0 0 0 1 1 -11
p34
aVMarcus Camby DEN 04/24/2006 DEN @ LAC L 36 16 7 14 50.0 0 0 - 2 4 50.0 4 10 14 2 0 4 0 4 -8
p35
aVAndre Miller DEN 04/24/2006 DEN @ LAC L 36 14 3 11 27.3 0 0 - 8 8 100.0 2 4 6 6 0 0 6 2 -4
p36
aVReggie Evans DEN 04/24/2006 DEN @ LAC L 19 7 0 0 - 0 0 - 7 10 70.0 3 5 8 0 1 0 0 3 1
p37
aVRuben Patterson DEN 04/24/2006 DEN @ LAC L 20 2 0 3 0.0 0 0 - 2 4 50.0 1 0 1 1 0 0 1 1 -11
p38
aVEarl Boykins DEN 04/24/2006 DEN @ LAC L 33 14 5 17 29.4 1 6 16.7 3 3 100.0 0 3 3 5 1 0 0 1 -9
p39
aVDerMarr Johnson DEN 04/24/2006 DEN @ LAC L 9 2 1 5 20.0 0 3 0.0 0 0 - 2 1 3 0 0 0 0 0 -8
p40
aVEduardo Najera DEN 04/24/2006 DEN @ LAC L 17 2 1 2 50.0 0 0 - 0 0 - 0 4 4 0 0 0 1 4 15
p41
aVGreg Buckner DEN 04/24/2006 DEN @ LAC L 24 14 5 10 50.0 4 8 50.0 0 0 - 1 3 4 1 0 0 0 2 -8
p42
aVFrancisco Elson DEN 04/24/2006 DEN @ LAC L 9 0 0 0 - 0 0 - 0 0 - 1 0 1 0 0 0 0 0 -13
p43
aVReggie Evans DEN 04/22/2006 DEN @ LAC L 13 4 1 2 50.0 0 0 - 2 2 100.0 4 4 8 0 0 0 0 3 4
p44
aVGreg Buckner DEN 04/22/2006 DEN @ LAC L 20 5 2 7 28.6 1 4 25.0 0 0 - 0 1 1 0 1 0 0 3 4
p45
aVKenyon Martin DEN 04/22/2006 DEN @ LAC L 28 9 4 11 36.4 0 0 - 1 2 50.0 5 3 8 1 4 2 2 4 8
p46
aVFrancisco Elson DEN 04/22/2006 DEN @ LAC L 15 0 0 0 - 0 0 - 0 0 - 0 3 3 0 0 0 1 2 -7
p47
aVEarl Boykins DEN 04/22/2006 DEN @ LAC L 31 6 2 8 25.0 0 1 0.0 2 2 100.0 1 1 2 4 2 0 1 2 3
p48
aVMarcus Camby DEN 04/22/2006 DEN @ LAC L 40 9 4 12 33.3 0 0 - 1 3 33.3 4 6 10 2 1 3 1 2 -9
p49
aVAndre Miller DEN 04/22/2006 DEN @ LAC L 36 25 11 21 52.4 0 0 - 3 3 100.0 1 2 3 6 0 0 0 0 -9
p50
aVCarmelo Anthony DEN 04/22/2006 DEN @ LAC L 44 25 9 26 34.6 0 1 0.0 7 9 77.8 4 3 7 3 0 0 2 3 -3
p51
aVRuben Patterson DEN 04/22/2006 DEN @ LAC L 13 4 2 4 50.0 0 0 - 0 1 0.0 0 0 0 0 1 0 0 2 -1
p52
a.