(lp0
VPLAYER TEAM DATE MATCHUP W/L MIN PTS FGM FGA FG% 3PM 3PA 3P% FTM FTA FT% OREB DREB REB AST STL BLK TOV PF +/-
p1
aVJason Collins NJN 05/16/2006 NJN @ MIA L 34 1 0 1 0.0 0 0 - 1 2 50.0 0 4 4 0 0 0 2 5 1
p2
aVJacque Vaughn NJN 05/16/2006 NJN @ MIA L 12 3 1 1 100.0 0 0 - 1 2 50.0 0 0 0 2 0 0 0 1 -5
p3
aVNenad Krstic NJN 05/16/2006 NJN @ MIA L 29 1 0 3 0.0 0 0 - 1 2 50.0 0 2 2 0 1 0 4 5 -5
p4
aVRichard Jefferson NJN 05/16/2006 NJN @ MIA L 36 33 13 22 59.1 3 4 75.0 4 5 80.0 0 7 7 5 3 0 1 3 2
p5
aVVince Carter NJN 05/16/2006 NJN @ MIA L 46 33 13 25 52.0 1 7 14.3 6 9 66.7 1 6 7 5 1 0 2 4 5
p6
aVJohn Thomas NJN 05/16/2006 NJN @ MIA L 6 0 0 0 - 0 0 - 0 0 - 0 1 1 1 0 0 1 3 -1
p7
aVJason Kidd NJN 05/16/2006 NJN @ MIA L 47 20 7 11 63.6 2 4 50.0 4 4 100.0 0 6 6 8 4 0 4 4 -1
p8
aVLamond Murray NJN 05/16/2006 NJN @ MIA L 30 14 6 11 54.5 1 4 25.0 1 2 50.0 2 5 7 0 0 0 0 2 -1
p9
aVLamond Murray NJN 05/14/2006 NJN vs. MIA L 24 4 1 5 20.0 1 4 25.0 1 2 50.0 2 7 9 0 0 0 0 5 -3
p10
aVVince Carter NJN 05/14/2006 NJN vs. MIA L 46 26 12 28 42.9 0 7 0.0 2 4 50.0 1 1 2 5 0 0 3 2 -11
p11
aVJohn Thomas NJN 05/14/2006 NJN vs. MIA L 8 1 0 2 0.0 0 0 - 1 2 50.0 3 0 3 0 1 0 0 1 -4
p12
aVRichard Jefferson NJN 05/14/2006 NJN vs. MIA L 35 17 7 13 53.8 2 3 66.7 1 2 50.0 0 3 3 3 0 0 3 5 -8
p13
aVJason Collins NJN 05/14/2006 NJN vs. MIA L 32 7 2 3 66.7 0 0 - 3 6 50.0 2 2 4 1 0 0 1 6 -6
p14
aVAntoine Wright NJN 05/14/2006 NJN vs. MIA L 1 0 0 0 - 0 0 - 0 0 - 0 0 0 0 0 0 0 0 -2
p15
aVNenad Krstic NJN 05/14/2006 NJN vs. MIA L 45 20 9 16 56.3 0 0 - 2 2 100.0 5 9 14 0 0 1 1 3 -12
p16
aVJacque Vaughn NJN 05/14/2006 NJN vs. MIA L 5 0 0 1 0.0 0 0 - 0 0 - 0 0 0 0 0 0 0 2 4
p17
aVJason Kidd NJN 05/14/2006 NJN vs. MIA L 44 17 5 16 31.3 1 6 16.7 6 6 100.0 3 10 13 12 0 0 2 3 -8
p18
aVJacque Vaughn NJN 05/12/2006 NJN vs. MIA L 16 3 1 1 100.0 0 0 - 1 2 50.0 1 2 3 2 0 0 0 5 -11
p19
aVJohn Thomas NJN 05/12/2006 NJN vs. MIA L 8 0 0 0 - 0 0 - 0 0 - 0 0 0 0 1 0 1 4 -7
p20
aVJason Collins NJN 05/12/2006 NJN vs. MIA L 36 2 0 3 0.0 0 0 - 2 2 100.0 4 7 11 0 1 0 2 6 -4
p21
aVNenad Krstic NJN 05/12/2006 NJN vs. MIA L 33 8 4 14 28.6 0 0 - 0 2 0.0 1 7 8 3 0 1 0 2 -4
p22
aVVince Carter NJN 05/12/2006 NJN vs. MIA L 41 43 17 34 50.0 3 6 50.0 6 9 66.7 2 4 6 3 0 0 3 4 -23
p23
aVLamond Murray NJN 05/12/2006 NJN vs. MIA L 18 9 4 8 50.0 1 4 25.0 0 0 - 1 1 2 0 0 0 0 2 -4
p24
aVRichard Jefferson NJN 05/12/2006 NJN vs. MIA L 45 17 7 13 53.8 1 2 50.0 2 3 66.7 0 4 4 6 1 0 5 5 -8
p25
aVJason Kidd NJN 05/12/2006 NJN vs. MIA L 43 10 4 12 33.3 1 6 16.7 1 2 50.0 4 4 8 12 0 0 2 3 6
p26
aVZoran Planinic NJN 05/10/2006 NJN @ MIA L 3 0 0 0 - 0 0 - 0 0 - 0 0 0 1 1 0 1 1 1
p27
aVScott Padgett NJN 05/10/2006 NJN @ MIA L 6 3 1 1 100.0 0 0 - 1 2 50.0 2 0 2 0 0 0 0 1 2
p28
aVClifford Robinson NJN 05/10/2006 NJN @ MIA L 28 3 1 4 25.0 0 2 0.0 1 2 50.0 0 4 4 1 2 1 1 3 2
p29
aVNenad Krstic NJN 05/10/2006 NJN @ MIA L 27 14 4 10 40.0 0 0 - 6 8 75.0 2 5 7 0 0 2 3 4 -21
p30
aVRichard Jefferson NJN 05/10/2006 NJN @ MIA L 37 16 8 16 50.0 0 2 0.0 0 0 - 0 3 3 1 2 0 3 4 -21
p31
aVLamond Murray NJN 05/10/2006 NJN @ MIA L 21 11 2 6 33.3 2 4 50.0 5 5 100.0 0 1 1 0 1 0 1 1 1
p32
aVJohn Thomas NJN 05/10/2006 NJN @ MIA L 9 0 0 1 0.0 0 0 - 0 0 - 1 0 1 0 0 0 0 2 -1
p33
aVAntoine Wright NJN 05/10/2006 NJN @ MIA L 6 0 0 2 0.0 0 0 - 0 0 - 0 0 0 0 0 0 0 0 2
p34
aVJacque Vaughn NJN 05/10/2006 NJN @ MIA L 13 0 0 5 0.0 0 0 - 0 0 - 0 2 2 1 0 0 0 1 -8
p35
aVJason Kidd NJN 05/10/2006 NJN @ MIA L 35 15 5 11 45.5 2 6 33.3 3 3 100.0 1 2 3 6 1 0 1 3 -19
p36
aVJason Collins NJN 05/10/2006 NJN @ MIA L 21 5 2 3 66.7 0 0 - 1 3 33.3 1 1 2 0 0 0 1 5 -23
p37
aVVince Carter NJN 05/10/2006 NJN @ MIA L 34 22 5 11 45.5 1 2 50.0 11 12 91.7 2 3 5 5 1 1 2 2 -25
p38
aVJacque Vaughn NJN 05/08/2006 NJN @ MIA W 15 2 1 4 25.0 0 0 - 0 0 - 0 0 0 1 0 0 2 2 -11
p39
aVAntoine Wright NJN 05/08/2006 NJN @ MIA W 1 0 0 0 - 0 0 - 0 0 - 0 0 0 0 0 0 0 0 0
p40
aVNenad Krstic NJN 05/08/2006 NJN @ MIA W 26 11 5 8 62.5 0 0 - 1 2 50.0 0 1 1 0 0 1 3 5 20
p41
aVRichard Jefferson NJN 05/08/2006 NJN @ MIA W 23 20 7 11 63.6 2 3 66.7 4 5 80.0 2 2 4 5 2 0 1 0 12
p42
aVLamond Murray NJN 05/08/2006 NJN @ MIA W 33 8 2 10 20.0 2 8 25.0 2 2 100.0 0 7 7 1 1 0 1 4 -4
p43
aVVince Carter NJN 05/08/2006 NJN @ MIA W 39 27 6 15 40.0 0 3 0.0 15 19 78.9 1 7 8 6 3 1 4 3 24
p44
aVClifford Robinson NJN 05/08/2006 NJN @ MIA W 20 3 1 2 50.0 1 2 50.0 0 0 - 0 3 3 0 1 0 2 4 1
p45
aVJason Kidd NJN 05/08/2006 NJN @ MIA W 43 22 9 17 52.9 4 6 66.7 0 0 - 2 7 9 7 4 0 3 3 12
p46
aVJason Collins NJN 05/08/2006 NJN @ MIA W 24 5 2 2 100.0 0 0 - 1 2 50.0 1 4 5 0 0 0 0 5 6
p47
aVJohn Thomas NJN 05/08/2006 NJN @ MIA W 16 2 1 1 100.0 0 0 - 0 0 - 0 5 5 0 1 1 2 4 0
p48
aVVince Carter NJN 05/04/2006 NJN @ IND W 39 24 6 18 33.3 3 7 42.9 9 10 90.0 0 5 5 7 2 0 3 1 10
p49
aVLamond Murray NJN 05/04/2006 NJN @ IND W 23 8 3 4 75.0 2 3 66.7 0 0 - 0 4 4 1 1 0 1 3 10
p50
aVJohn Thomas NJN 05/04/2006 NJN @ IND W 1 0 0 0 - 0 0 - 0 0 - 0 0 0 0 0 0 0 0 -2
p51
aVJason Kidd NJN 05/04/2006 NJN @ IND W 38 8 3 12 25.0 2 6 33.3 0 0 - 5 7 12 11 0 0 1 3 3
p52
aVRichard Jefferson NJN 05/04/2006 NJN @ IND W 47 30 10 13 76.9 2 4 50.0 8 9 88.9 0 6 6 4 1 1 3 3 4
p53
aVNenad Krstic NJN 05/04/2006 NJN @ IND W 25 17 7 11 63.6 0 0 - 3 3 100.0 3 1 4 1 2 0 2 4 -2
p54
aVClifford Robinson NJN 05/04/2006 NJN @ IND W 27 7 3 8 37.5 1 2 50.0 0 0 - 1 2 3 0 0 1 2 3 16
p55
aVJason Collins NJN 05/04/2006 NJN @ IND W 28 0 0 0 - 0 0 - 0 0 - 3 4 7 0 1 0 2 4 -13
p56
aVJacque Vaughn NJN 05/04/2006 NJN @ IND W 12 2 1 5 20.0 0 0 - 0 1 0.0 1 2 3 0 0 0 1 1 4
p57
aVLamond Murray NJN 05/02/2006 NJN vs. IND W 14 3 1 5 20.0 1 3 33.3 0 0 - 3 1 4 0 0 0 0 1 -2
p58
aVJacque Vaughn NJN 05/02/2006 NJN vs. IND W 12 2 1 2 50.0 0 1 0.0 0 0 - 0 0 0 2 0 0 1 2 -4
p59
aVVince Carter NJN 05/02/2006 NJN vs. IND W 42 34 13 24 54.2 1 4 25.0 7 7 100.0 1 14 15 7 2 1 4 5 11
p60
aVClifford Robinson NJN 05/02/2006 NJN vs. IND W 31 3 1 6 16.7 1 3 33.3 0 0 - 0 7 7 3 2 1 2 3 -3
p61
aVJason Kidd NJN 05/02/2006 NJN vs. IND W 40 5 2 6 33.3 0 2 0.0 1 2 50.0 2 4 6 15 0 1 4 1 2
p62
aVRichard Jefferson NJN 05/02/2006 NJN vs. IND W 43 24 10 19 52.6 1 3 33.3 3 5 60.0 2 1 3 4 0 1 3 3 6
p63
aVNenad Krstic NJN 05/02/2006 NJN vs. IND W 43 19 7 14 50.0 0 0 - 5 6 83.3 2 9 11 1 0 2 1 4 9
p64
aVJason Collins NJN 05/02/2006 NJN vs. IND W 15 2 1 2 50.0 0 0 - 0 0 - 0 4 4 0 0 0 1 5 11
p65
aVVince Carter NJN 04/29/2006 NJN @ IND W 38 28 9 15 60.0 1 2 50.0 9 12 75.0 2 4 6 7 6 1 0 5 20
p66
aVJason Kidd NJN 04/29/2006 NJN @ IND W 42 10 4 14 28.6 0 4 0.0 2 2 100.0 0 6 6 8 3 0 2 3 7
p67
aVJason Collins NJN 04/29/2006 NJN @ IND W 33 6 1 4 25.0 0 0 - 4 5 80.0 3 2 5 0 2 0 0 5 21
p68
aVJacque Vaughn NJN 04/29/2006 NJN @ IND W 11 2 1 4 25.0 0 0 - 0 0 - 0 0 0 2 0 0 0 3 -2
p69
aVNenad Krstic NJN 04/29/2006 NJN @ IND W 34 21 10 16 62.5 0 0 - 1 2 50.0 2 6 8 0 0 0 3 4 5
p70
aVClifford Robinson NJN 04/29/2006 NJN @ IND W 25 5 2 5 40.0 1 2 50.0 0 0 - 0 4 4 0 0 0 1 6 -9
p71
aVLamond Murray NJN 04/29/2006 NJN @ IND W 10 3 1 1 100.0 1 1 100.0 0 0 - 0 0 0 0 0 0 0 1 -1
p72
aVRichard Jefferson NJN 04/29/2006 NJN @ IND W 44 22 9 17 52.9 1 4 25.0 3 4 75.0 0 3 3 4 1 0 3 2 4
p73
aVJohn Thomas NJN 04/29/2006 NJN @ IND W 3 0 0 0 - 0 0 - 0 0 - 0 0 0 0 0 0 1 0 0
p74
aVNenad Krstic NJN 04/27/2006 NJN @ IND L 28 9 3 9 33.3 0 0 - 3 4 75.0 3 1 4 0 1 0 2 6 -14
p75
aVJason Kidd NJN 04/27/2006 NJN @ IND L 38 14 5 12 41.7 3 5 60.0 1 2 50.0 0 6 6 6 2 0 2 2 -15
p76
aVRichard Jefferson NJN 04/27/2006 NJN @ IND L 45 25 6 13 46.2 0 1 0.0 13 14 92.9 2 2 4 7 0 1 3 2 -21
p77
aVVince Carter NJN 04/27/2006 NJN @ IND L 41 25 8 21 38.1 2 6 33.3 7 9 77.8 2 3 5 2 2 0 0 3 -21
p78
aVJohn Thomas NJN 04/27/2006 NJN @ IND L 6 4 2 2 100.0 0 0 - 0 0 - 0 0 0 1 0 0 0 1 7
p79
aVAntoine Wright NJN 04/27/2006 NJN @ IND L 3 4 1 2 50.0 0 0 - 2 3 66.7 0 0 0 0 0 0 0 0 5
p80
aVClifford Robinson NJN 04/27/2006 NJN @ IND L 19 8 2 5 40.0 2 3 66.7 2 2 100.0 0 1 1 0 2 0 1 5 -8
p81
aVZoran Planinic NJN 04/27/2006 NJN @ IND L 2 0 0 1 0.0 0 0 - 0 0 - 0 1 1 1 0 0 0 0 5
p82
aVJacque Vaughn NJN 04/27/2006 NJN @ IND L 26 6 2 4 50.0 0 0 - 2 2 100.0 1 0 1 0 1 0 0 3 5
p83
aVJason Collins NJN 04/27/2006 NJN @ IND L 22 0 0 4 0.0 0 0 - 0 0 - 3 3 6 0 0 1 0 5 -7
p84
aVLamond Murray NJN 04/27/2006 NJN @ IND L 7 0 0 1 0.0 0 0 - 0 0 - 0 1 1 0 0 0 0 3 -1
p85
aVScott Padgett NJN 04/27/2006 NJN @ IND L 3 0 0 1 0.0 0 1 0.0 0 0 - 0 1 1 0 1 0 0 1 5
p86
aVJason Kidd NJN 04/25/2006 NJN vs. IND W 38 6 3 10 30.0 0 2 0.0 0 0 - 4 7 11 13 0 1 2 3 8
p87
aVScott Padgett NJN 04/25/2006 NJN vs. IND W 1 0 0 0 - 0 0 - 0 0 - 0 0 0 0 0 0 0 1 -1
p88
aVZoran Planinic NJN 04/25/2006 NJN vs. IND W 1 0 0 0 - 0 0 - 0 2 0.0 0 0 0 0 0 0 0 0 -1
p89
aVClifford Robinson NJN 04/25/2006 NJN vs. IND W 23 0 0 3 0.0 0 3 0.0 0 0 - 1 1 2 1 2 0 0 2 -4
p90
aVLamond Murray NJN 04/25/2006 NJN vs. IND W 10 3 1 2 50.0 1 2 50.0 0 0 - 1 1 2 0 0 0 0 1 6
p91
aVJacque Vaughn NJN 04/25/2006 NJN vs. IND W 22 6 3 4 75.0 0 0 - 0 0 - 0 2 2 0 1 0 0 0 5
p92
aVAntoine Wright NJN 04/25/2006 NJN vs. IND W 1 0 0 0 - 0 0 - 0 0 - 0 0 0 0 0 0 0 0 -1
p93
aVRichard Jefferson NJN 04/25/2006 NJN vs. IND W 43 21 7 17 41.2 0 2 0.0 7 8 87.5 0 4 4 2 0 1 2 2 11
p94
aVNenad Krstic NJN 04/25/2006 NJN vs. IND W 35 20 7 13 53.8 0 0 - 6 7 85.7 3 7 10 0 0 2 3 4 18
p95
aVBostjan Nachbar NJN 04/25/2006 NJN vs. IND W 1 0 0 0 - 0 0 - 0 0 - 0 0 0 0 0 0 0 0 -1
p96
aVVince Carter NJN 04/25/2006 NJN vs. IND W 40 33 12 20 60.0 1 6 16.7 8 9 88.9 0 5 5 5 1 1 5 3 22
p97
aVJason Collins NJN 04/25/2006 NJN vs. IND W 25 1 0 2 0.0 0 0 - 1 2 50.0 3 1 4 1 0 0 0 3 13
p98
aVJason Kidd NJN 04/23/2006 NJN vs. IND L 41 5 2 11 18.2 0 3 0.0 1 2 50.0 1 3 4 8 3 0 1 3 1
p99
aVJason Collins NJN 04/23/2006 NJN vs. IND L 33 2 1 1 100.0 0 0 - 0 0 - 0 3 3 1 1 1 0 6 0
p100
aVJacque Vaughn NJN 04/23/2006 NJN vs. IND L 13 2 1 2 50.0 0 0 - 0 0 - 0 0 0 2 0 0 0 3 -4
p101
aVVince Carter NJN 04/23/2006 NJN vs. IND L 42 31 12 33 36.4 1 8 12.5 6 8 75.0 4 9 13 6 2 1 0 2 -4
p102
aVClifford Robinson NJN 04/23/2006 NJN vs. IND L 24 7 3 6 50.0 0 2 0.0 1 1 100.0 0 2 2 0 0 0 1 2 -4
p103
aVNenad Krstic NJN 04/23/2006 NJN vs. IND L 39 22 9 15 60.0 0 0 - 4 7 57.1 4 2 6 3 1 1 0 5 0
p104
aVRichard Jefferson NJN 04/23/2006 NJN vs. IND L 41 19 6 11 54.5 0 1 0.0 7 8 87.5 1 3 4 4 0 0 3 3 5
p105
aVLamond Murray NJN 04/23/2006 NJN vs. IND L 7 0 0 1 0.0 0 1 0.0 0 0 - 0 1 1 0 0 0 0 2 -4
p106
a.