(lp0
VPLAYER TEAM DATE MATCHUP W/L MIN PTS FGM FGA FG% 3PM 3PA 3P% FTM FTA FT% OREB DREB REB AST STL BLK TOV PF +/-
p1
aVRaja Bell PHX 06/03/2006 PHX vs. DAL L 35 6 2 6 33.3 2 6 33.3 0 0 - 0 2 2 2 2 0 1 5 -2
p2
aVShawn Marion PHX 06/03/2006 PHX vs. DAL L 46 13 5 10 50.0 1 2 50.0 2 2 100.0 1 10 11 0 1 0 1 3 -5
p3
aVSteve Nash PHX 06/03/2006 PHX vs. DAL L 42 19 7 13 53.8 1 2 50.0 4 4 100.0 0 6 6 9 1 0 3 2 -7
p4
aVBoris Diaw PHX 06/03/2006 PHX vs. DAL L 40 30 11 16 68.8 0 0 - 8 10 80.0 2 9 11 2 1 1 6 5 -6
p5
aVTim Thomas PHX 06/03/2006 PHX vs. DAL L 30 8 4 11 36.4 0 3 0.0 0 2 0.0 2 2 4 2 0 0 2 6 -6
p6
aVLeandro Barbosa PHX 06/03/2006 PHX vs. DAL L 27 14 6 12 50.0 2 4 50.0 0 0 - 0 2 2 3 0 0 1 6 -11
p7
aVJames Jones PHX 06/03/2006 PHX vs. DAL L 19 3 1 4 25.0 0 0 - 1 2 50.0 0 0 0 0 0 1 2 0 -8
p8
aVTim Thomas PHX 06/01/2006 PHX @ DAL L 42 26 9 14 64.3 6 8 75.0 2 2 100.0 0 3 3 1 0 0 1 5 -11
p9
aVLeandro Barbosa PHX 06/01/2006 PHX @ DAL L 29 14 5 12 41.7 0 0 - 4 4 100.0 0 1 1 3 0 0 1 3 -18
p10
aVSteve Nash PHX 06/01/2006 PHX @ DAL L 39 20 5 17 29.4 1 6 16.7 9 9 100.0 0 6 6 11 1 1 3 3 -9
p11
aVShawn Marion PHX 06/01/2006 PHX @ DAL L 39 20 9 13 69.2 1 3 33.3 1 1 100.0 0 10 10 0 1 0 1 5 -13
p12
aVRaja Bell PHX 06/01/2006 PHX @ DAL L 29 3 1 5 20.0 1 4 25.0 0 0 - 2 0 2 3 0 0 0 4 0
p13
aVEddie House PHX 06/01/2006 PHX @ DAL L 10 0 0 3 0.0 0 2 0.0 0 0 - 0 1 1 1 0 0 0 0 -7
p14
aVJames Jones PHX 06/01/2006 PHX @ DAL L 14 2 1 1 100.0 0 0 - 0 0 - 0 3 3 1 0 1 1 1 -8
p15
aVBoris Diaw PHX 06/01/2006 PHX @ DAL L 38 16 6 14 42.9 1 1 100.0 3 4 75.0 4 5 9 1 1 2 3 4 -14
p16
aVTim Thomas PHX 05/30/2006 PHX vs. DAL W 25 5 2 2 100.0 0 0 - 1 4 25.0 1 2 3 1 0 0 2 4 8
p17
aVJames Jones PHX 05/30/2006 PHX vs. DAL W 18 3 1 4 25.0 1 2 50.0 0 0 - 1 7 8 0 1 1 0 2 8
p18
aVKurt Thomas PHX 05/30/2006 PHX vs. DAL W 6 1 0 0 - 0 0 - 1 2 50.0 0 1 1 0 0 0 0 2 -5
p19
aVBoris Diaw PHX 05/30/2006 PHX vs. DAL W 39 20 9 21 42.9 0 2 0.0 2 4 50.0 2 7 9 4 0 2 1 3 29
p20
aVPat Burke PHX 05/30/2006 PHX vs. DAL W 3 0 0 2 0.0 0 1 0.0 0 0 - 0 0 0 0 0 0 0 0 -3
p21
aVSteve Nash PHX 05/30/2006 PHX vs. DAL W 32 21 8 13 61.5 1 1 100.0 4 4 100.0 0 0 0 7 0 1 2 1 14
p22
aVRaja Bell PHX 05/30/2006 PHX vs. DAL W 32 9 4 7 57.1 0 2 0.0 1 1 100.0 1 3 4 3 0 0 0 4 19
p23
aVNikoloz Tskitishvili PHX 05/30/2006 PHX vs. DAL W 1 0 0 0 - 0 0 - 0 0 - 0 0 0 0 0 0 0 0 -3
p24
aVLeandro Barbosa PHX 05/30/2006 PHX vs. DAL W 34 24 10 13 76.9 4 6 66.7 0 0 - 0 4 4 2 1 0 1 4 19
p25
aVShawn Marion PHX 05/30/2006 PHX vs. DAL W 37 15 6 11 54.5 1 1 100.0 2 4 50.0 4 4 8 2 3 3 1 2 14
p26
aVEddie House PHX 05/30/2006 PHX vs. DAL W 13 8 3 6 50.0 0 0 - 2 2 100.0 0 0 0 2 0 1 0 1 0
p27
aVJames Jones PHX 05/28/2006 PHX vs. DAL L 29 4 1 5 20.0 0 1 0.0 2 2 100.0 3 3 6 1 0 1 0 1 4
p28
aVLeandro Barbosa PHX 05/28/2006 PHX vs. DAL L 41 17 6 14 42.9 1 1 100.0 4 5 80.0 0 3 3 0 0 0 1 2 -12
p29
aVSteve Nash PHX 05/28/2006 PHX vs. DAL L 37 21 9 18 50.0 3 7 42.9 0 0 - 0 1 1 7 0 1 4 1 -5
p30
aVBoris Diaw PHX 05/28/2006 PHX vs. DAL L 37 20 10 22 45.5 0 1 0.0 0 0 - 3 3 6 4 0 3 5 4 -8
p31
aVShawn Marion PHX 05/28/2006 PHX vs. DAL L 47 10 4 12 33.3 0 2 0.0 2 2 100.0 6 12 18 0 0 1 0 2 -7
p32
aVTim Thomas PHX 05/28/2006 PHX vs. DAL L 37 14 4 8 50.0 3 5 60.0 3 4 75.0 0 10 10 1 0 3 2 6 -5
p33
aVEddie House PHX 05/28/2006 PHX vs. DAL L 12 2 1 3 33.3 0 2 0.0 0 0 - 0 1 1 0 0 0 0 0 -2
p34
aVJames Jones PHX 05/26/2006 PHX @ DAL L 23 3 1 2 50.0 0 0 - 1 2 50.0 1 2 3 0 0 6 0 3 2
p35
aVTim Thomas PHX 05/26/2006 PHX @ DAL L 40 20 8 18 44.4 4 10 40.0 0 0 - 0 1 1 0 1 0 1 6 -3
p36
aVShawn Marion PHX 05/26/2006 PHX @ DAL L 42 19 9 20 45.0 1 3 33.3 0 0 - 4 15 19 2 3 0 1 3 -8
p37
aVEddie House PHX 05/26/2006 PHX @ DAL L 15 7 3 7 42.9 1 2 50.0 0 0 - 0 2 2 0 0 0 0 1 -5
p38
aVLeandro Barbosa PHX 05/26/2006 PHX @ DAL L 38 8 3 15 20.0 2 6 33.3 0 0 - 0 2 2 4 1 0 1 5 -21
p39
aVSteve Nash PHX 05/26/2006 PHX @ DAL L 39 16 6 10 60.0 2 2 100.0 2 3 66.7 0 2 2 11 0 0 4 4 1
p40
aVBoris Diaw PHX 05/26/2006 PHX @ DAL L 43 25 10 17 58.8 0 0 - 5 6 83.3 2 8 10 6 1 1 2 2 -1
p41
aVBoris Diaw PHX 05/24/2006 PHX @ DAL W 39 34 13 23 56.5 0 0 - 8 10 80.0 4 2 6 2 1 1 3 4 5
p42
aVLeandro Barbosa PHX 05/24/2006 PHX @ DAL W 34 3 1 7 14.3 0 3 0.0 1 4 25.0 2 1 3 3 1 0 4 2 4
p43
aVSteve Nash PHX 05/24/2006 PHX @ DAL W 39 27 11 18 61.1 2 5 40.0 3 3 100.0 1 4 5 16 0 0 3 2 6
p44
aVShawn Marion PHX 05/24/2006 PHX @ DAL W 39 24 10 15 66.7 0 1 0.0 4 4 100.0 4 9 13 0 3 3 3 3 6
p45
aVEddie House PHX 05/24/2006 PHX @ DAL W 8 6 3 5 60.0 0 2 0.0 0 0 - 0 1 1 2 0 0 1 1 -3
p46
aVRaja Bell PHX 05/24/2006 PHX @ DAL W 36 8 3 5 60.0 1 1 100.0 1 2 50.0 0 1 1 0 0 0 0 3 -7
p47
aVJames Jones PHX 05/24/2006 PHX @ DAL W 11 2 1 1 100.0 0 0 - 0 0 - 0 2 2 1 0 0 0 0 -12
p48
aVTim Thomas PHX 05/24/2006 PHX @ DAL W 34 17 5 11 45.5 2 3 66.7 5 6 83.3 1 6 7 0 2 0 1 5 16
p49
aVTim Thomas PHX 05/22/2006 PHX vs. LAC W 42 16 5 11 45.5 2 6 33.3 4 4 100.0 1 5 6 6 0 0 1 5 18
p50
aVShawn Marion PHX 05/22/2006 PHX vs. LAC W 45 30 12 20 60.0 5 9 55.6 1 1 100.0 2 7 9 0 1 2 0 3 20
p51
aVRaja Bell PHX 05/22/2006 PHX vs. LAC W 35 10 3 7 42.9 1 2 50.0 3 4 75.0 0 2 2 6 1 0 1 4 13
p52
aVBoris Diaw PHX 05/22/2006 PHX vs. LAC W 40 14 6 10 60.0 0 0 - 2 2 100.0 4 4 8 5 2 1 3 4 20
p53
aVJames Jones PHX 05/22/2006 PHX vs. LAC W 15 10 3 6 50.0 1 3 33.3 3 4 75.0 1 3 4 1 0 0 0 0 7
p54
aVSteve Nash PHX 05/22/2006 PHX vs. LAC W 39 29 11 16 68.8 4 5 80.0 3 4 75.0 0 2 2 11 1 0 4 2 12
p55
aVLeandro Barbosa PHX 05/22/2006 PHX vs. LAC W 24 18 8 10 80.0 2 2 100.0 0 0 - 1 0 1 3 0 0 3 4 10
p56
aVBoris Diaw PHX 05/18/2006 PHX @ LAC L 40 14 6 12 50.0 1 1 100.0 1 3 33.3 3 6 9 7 2 1 3 5 -2
p57
aVRaja Bell PHX 05/18/2006 PHX @ LAC L 46 13 2 9 22.2 1 6 16.7 8 10 80.0 0 1 1 3 0 0 1 4 -9
p58
aVShawn Marion PHX 05/18/2006 PHX @ LAC L 43 34 13 22 59.1 4 7 57.1 4 4 100.0 4 5 9 1 6 1 1 2 -16
p59
aVTim Thomas PHX 05/18/2006 PHX @ LAC L 26 3 1 6 16.7 1 4 25.0 0 0 - 0 5 5 2 0 0 1 4 -7
p60
aVLeandro Barbosa PHX 05/18/2006 PHX @ LAC L 35 25 10 20 50.0 4 8 50.0 1 3 33.3 0 0 0 2 1 0 1 5 -11
p61
aVSteve Nash PHX 05/18/2006 PHX @ LAC L 39 17 6 16 37.5 2 5 40.0 3 3 100.0 1 1 2 11 1 0 1 2 -22
p62
aVJames Jones PHX 05/18/2006 PHX @ LAC L 11 0 0 2 0.0 0 0 - 0 0 - 1 1 2 0 0 0 2 1 7
p63
aVLeandro Barbosa PHX 05/16/2006 PHX vs. LAC W 41 15 4 12 33.3 1 3 33.3 6 6 100.0 0 3 3 5 1 1 2 3 2
p64
aVRaja Bell PHX 05/16/2006 PHX vs. LAC W 52 22 8 13 61.5 5 7 71.4 1 2 50.0 1 4 5 1 4 0 1 5 -1
p65
aVTim Thomas PHX 05/16/2006 PHX vs. LAC W 46 25 10 17 58.8 5 8 62.5 0 0 - 2 2 4 1 0 0 2 6 5
p66
aVShawn Marion PHX 05/16/2006 PHX vs. LAC W 54 36 16 33 48.5 0 5 0.0 4 6 66.7 6 14 20 3 0 1 1 4 11
p67
aVJames Jones PHX 05/16/2006 PHX vs. LAC W 18 2 0 5 0.0 0 1 0.0 2 2 100.0 5 3 8 0 2 1 0 0 -4
p68
aVSteve Nash PHX 05/16/2006 PHX vs. LAC W 49 17 7 17 41.2 0 5 0.0 3 3 100.0 0 7 7 13 0 2 5 4 15
p69
aVBoris Diaw PHX 05/16/2006 PHX vs. LAC W 30 8 4 10 40.0 0 0 - 0 2 0.0 0 3 3 6 0 0 1 0 7
p70
aVLeandro Barbosa PHX 05/14/2006 PHX @ LAC L 31 15 7 15 46.7 1 6 16.7 0 0 - 0 2 2 4 1 0 2 5 -4
p71
aVRaja Bell PHX 05/14/2006 PHX @ LAC L 46 33 13 20 65.0 7 12 58.3 0 0 - 2 5 7 4 0 0 1 2 -4
p72
aVJames Jones PHX 05/14/2006 PHX @ LAC L 15 3 1 5 20.0 0 2 0.0 1 2 50.0 0 2 2 0 0 0 0 1 -3
p73
aVSteve Nash PHX 05/14/2006 PHX @ LAC L 39 8 3 11 27.3 0 2 0.0 2 3 66.7 2 1 3 11 0 0 2 2 -2
p74
aVShawn Marion PHX 05/14/2006 PHX @ LAC L 35 14 5 11 45.5 0 4 0.0 4 4 100.0 1 9 10 2 0 1 0 5 -12
p75
aVTim Thomas PHX 05/14/2006 PHX @ LAC L 35 13 3 12 25.0 2 10 20.0 5 6 83.3 2 4 6 1 2 2 0 4 -1
p76
aVBoris Diaw PHX 05/14/2006 PHX @ LAC L 39 21 8 14 57.1 0 0 - 5 7 71.4 2 5 7 8 2 0 0 2 -9
p77
aVLeandro Barbosa PHX 05/12/2006 PHX @ LAC W 24 6 2 8 25.0 0 3 0.0 2 2 100.0 0 1 1 1 0 0 1 3 9
p78
aVRaja Bell PHX 05/12/2006 PHX @ LAC W 33 14 4 9 44.4 2 5 40.0 4 5 80.0 1 1 2 2 0 0 0 6 -10
p79
aVBrian Grant PHX 05/12/2006 PHX @ LAC W 2 0 0 2 0.0 0 0 - 0 0 - 0 0 0 0 0 0 0 1 -5
p80
aVShawn Marion PHX 05/12/2006 PHX @ LAC W 47 32 12 24 50.0 3 7 42.9 5 5 100.0 4 15 19 3 4 1 3 1 4
p81
aVJames Jones PHX 05/12/2006 PHX @ LAC W 11 0 0 3 0.0 0 1 0.0 0 0 - 0 1 1 0 0 1 0 0 3
p82
aVTim Thomas PHX 05/12/2006 PHX @ LAC W 41 19 7 18 38.9 2 7 28.6 3 3 100.0 2 12 14 2 2 0 1 2 4
p83
aVSteve Nash PHX 05/12/2006 PHX @ LAC W 43 12 3 9 33.3 0 4 0.0 6 6 100.0 0 3 3 10 1 0 4 2 6
p84
aVBoris Diaw PHX 05/12/2006 PHX @ LAC W 39 11 4 13 30.8 0 0 - 3 5 60.0 1 5 6 7 1 4 3 4 4
p85
aVEddie House PHX 05/10/2006 PHX vs. LAC L 10 0 0 3 0.0 0 2 0.0 0 0 - 0 0 0 0 1 0 1 0 -9
p86
aVRaja Bell PHX 05/10/2006 PHX vs. LAC L 38 20 7 15 46.7 4 7 57.1 2 2 100.0 0 1 1 1 0 1 1 4 -22
p87
aVLeandro Barbosa PHX 05/10/2006 PHX vs. LAC L 35 18 6 13 46.2 2 6 33.3 4 5 80.0 0 2 2 4 0 1 0 1 -4
p88
aVTim Thomas PHX 05/10/2006 PHX vs. LAC L 24 15 5 9 55.6 3 5 60.0 2 2 100.0 0 4 4 2 1 1 0 5 5
p89
aVBoris Diaw PHX 05/10/2006 PHX vs. LAC L 38 14 6 8 75.0 0 0 - 2 3 66.7 0 3 3 5 0 1 6 2 -29
p90
aVNikoloz Tskitishvili PHX 05/10/2006 PHX vs. LAC L 3 1 0 2 0.0 0 0 - 1 2 50.0 0 1 1 1 0 0 0 0 -1
p91
aVSteve Nash PHX 05/10/2006 PHX vs. LAC L 33 14 6 12 50.0 0 2 0.0 2 3 66.7 0 3 3 8 1 0 1 1 -16
p92
aVJames Jones PHX 05/10/2006 PHX vs. LAC L 19 0 0 4 0.0 0 2 0.0 0 0 - 0 4 4 0 0 1 0 2 -27
p93
aVBrian Grant PHX 05/10/2006 PHX vs. LAC L 6 2 1 1 100.0 0 0 - 0 0 - 2 0 2 0 0 0 0 3 -6
p94
aVShawn Marion PHX 05/10/2006 PHX vs. LAC L 34 13 5 12 41.7 0 2 0.0 3 6 50.0 3 3 6 3 1 4 1 3 -16
p95
aVJames Jones PHX 05/08/2006 PHX vs. LAC W 19 9 4 5 80.0 0 0 - 1 1 100.0 2 1 3 0 0 0 0 3 -1
p96
aVSteve Nash PHX 05/08/2006 PHX vs. LAC W 42 31 10 15 66.7 3 5 60.0 8 9 88.9 2 1 3 12 0 0 4 3 14
p97
aVEddie House PHX 05/08/2006 PHX vs. LAC W 4 0 0 2 0.0 0 0 - 0 0 - 0 0 0 0 0 0 0 1 -5
p98
aVTim Thomas PHX 05/08/2006 PHX vs. LAC W 15 12 5 8 62.5 2 5 40.0 0 0 - 0 4 4 0 1 0 0 5 -1
p99
aVShawn Marion PHX 05/08/2006 PHX vs. LAC W 38 20 5 13 38.5 0 4 0.0 10 10 100.0 1 14 15 3 1 0 2 4 11
p100
aVLeandro Barbosa PHX 05/08/2006 PHX vs. LAC W 33 17 6 12 50.0 2 4 50.0 3 3 100.0 1 1 2 4 1 0 2 5 4
p101
aVBoris Diaw PHX 05/08/2006 PHX vs. LAC W 44 19 9 16 56.3 1 1 100.0 0 0 - 1 4 5 5 2 1 3 2 3
p102
aVRaja Bell PHX 05/08/2006 PHX vs. LAC W 45 22 8 15 53.3 4 8 50.0 2 2 100.0 1 1 2 2 1 0 0 2 10
p103
aVLeandro Barbosa PHX 05/06/2006 PHX vs. LAL W 31 26 10 12 83.3 1 1 100.0 5 5 100.0 0 1 1 2 1 0 2 1 15
p104
aVPat Burke PHX 05/06/2006 PHX vs. LAL W 2 3 1 1 100.0 1 1 100.0 0 0 - 0 2 2 0 0 1 0 0 6
p105
aVSteve Nash PHX 05/06/2006 PHX vs. LAL W 35 13 6 12 50.0 1 5 20.0 0 0 - 0 6 6 9 0 0 6 1 35
p106
aVShawn Marion PHX 05/06/2006 PHX vs. LAL W 36 14 6 13 46.2 0 1 0.0 2 2 100.0 1 9 10 2 2 1 2 1 27
p107
aVJames Jones PHX 05/06/2006 PHX vs. LAL W 19 10 2 4 50.0 2 3 66.7 4 4 100.0 0 3 3 0 0 1 0 1 15
p108
aVTim Thomas PHX 05/06/2006 PHX vs. LAL W 27 12 6 10 60.0 0 3 0.0 0 0 - 0 6 6 1 0 0 0 4 19
p109
aVEddie House PHX 05/06/2006 PHX vs. LAL W 10 9 3 4 75.0 2 2 100.0 1 2 50.0 0 0 0 0 0 0 0 2 -3
p110
aVNikoloz Tskitishvili PHX 05/06/2006 PHX vs. LAL W 2 0 0 0 - 0 0 - 0 0 - 0 0 0 1 0 0 0 1 6
p111
aVRaja Bell PHX 05/06/2006 PHX vs. LAL W 40 13 5 7 71.4 3 5 60.0 0 0 - 0 3 3 0 1 0 0 2 25
p112
aVBoris Diaw PHX 05/06/2006 PHX vs. LAL W 38 21 8 14 57.1 0 0 - 5 5 100.0 0 6 6 9 1 0 0 0 10
p113
aVLeandro Barbosa PHX 05/04/2006 PHX @ LAL W 48 22 7 9 77.8 2 4 50.0 6 7 85.7 0 0 0 2 2 0 2 5 17
p114
aVShawn Marion PHX 05/04/2006 PHX @ LAL W 50 20 9 20 45.0 2 4 50.0 0 0 - 4 8 12 4 4 0 0 5 8
p115
aVTim Thomas PHX 05/04/2006 PHX @ LAL W 36 21 7 15 46.7 2 5 40.0 5 5 100.0 1 9 10 0 0 0 3 5 -2
p116
aVJames Jones PHX 05/04/2006 PHX @ LAL W 26 10 4 6 66.7 2 3 66.7 0 0 - 0 5 5 0 1 0 1 2 -3
p117
aVBoris Diaw PHX 05/04/2006 PHX @ LAL W 49 19 9 14 64.3 0 0 - 1 2 50.0 1 1 2 7 1 1 4 4 11
p118
aVBrian Grant PHX 05/04/2006 PHX @ LAL W 3 0 0 0 - 0 0 - 0 2 0.0 0 0 0 0 0 0 0 1 1
p119
aVEddie House PHX 05/04/2006 PHX @ LAL W 7 2 1 3 33.3 0 1 0.0 0 0 - 0 0 0 0 0 0 0 0 2
p120
aVSteve Nash PHX 05/04/2006 PHX @ LAL W 46 32 9 14 64.3 1 3 33.3 13 13 100.0 0 2 2 13 0 0 3 1 6
p121
aVLeandro Barbosa PHX 05/02/2006 PHX vs. LAL W 25 11 4 9 44.4 1 4 25.0 2 2 100.0 0 0 0 2 1 0 1 2 -13
p122
aVBoris Diaw PHX 05/02/2006 PHX vs. LAL W 38 25 7 12 58.3 0 0 - 11 11 100.0 4 6 10 9 1 0 0 3 36
p123
aVSteve Nash PHX 05/02/2006 PHX vs. LAL W 40 22 8 13 61.5 1 2 50.0 5 6 83.3 0 3 3 4 0 0 4 1 27
p124
aVNikoloz Tskitishvili PHX 05/02/2006 PHX vs. LAL W 2 0 0 1 0.0 0 1 0.0 0 0 - 0 0 0 0 0 0 1 0 -6
p125
aVRaja Bell PHX 05/02/2006 PHX vs. LAL W 37 11 4 9 44.4 2 5 40.0 1 1 100.0 0 1 1 0 0 0 0 5 11
p126
aVTim Thomas PHX 05/02/2006 PHX vs. LAL W 16 13 5 8 62.5 1 3 33.3 2 4 50.0 0 2 2 1 2 0 0 2 -4
p127
aVPat Burke PHX 05/02/2006 PHX vs. LAL W 2 2 1 1 100.0 0 0 - 0 1 0.0 1 0 1 0 0 0 0 0 -6
p128
aVShawn Marion PHX 05/02/2006 PHX vs. LAL W 43 21 9 22 40.9 2 5 40.0 1 1 100.0 5 4 9 2 1 2 0 2 25
p129
aVJames Jones PHX 05/02/2006 PHX vs. LAL W 29 9 4 10 40.0 1 3 33.3 0 0 - 2 7 9 0 1 1 2 4 25
p130
aVEddie House PHX 05/02/2006 PHX vs. LAL W 8 0 0 1 0.0 0 0 - 0 0 - 0 1 1 0 0 0 0 0 -10
p131
aVEddie House PHX 04/30/2006 PHX @ LAL L 10 2 1 4 25.0 0 1 0.0 0 0 - 0 0 0 0 0 0 1 0 -2
p132
aVRaja Bell PHX 04/30/2006 PHX @ LAL L 45 7 3 7 42.9 1 3 33.3 0 0 - 0 5 5 3 0 1 1 4 -2
p133
aVSteve Nash PHX 04/30/2006 PHX @ LAL L 44 22 9 22 40.9 3 8 37.5 1 2 50.0 0 3 3 11 0 0 2 0 -1
p134
aVJames Jones PHX 04/30/2006 PHX @ LAL L 35 8 3 10 30.0 1 3 33.3 1 1 100.0 0 5 5 1 0 1 0 2 3
p135
aVBoris Diaw PHX 04/30/2006 PHX @ LAL L 46 21 9 16 56.3 0 0 - 3 4 75.0 1 7 8 7 0 1 5 5 6
p136
aVShawn Marion PHX 04/30/2006 PHX @ LAL L 45 20 7 13 53.8 0 1 0.0 6 6 100.0 4 8 12 1 2 0 0 6 3
p137
aVTim Thomas PHX 04/30/2006 PHX @ LAL L 25 12 5 10 50.0 2 3 66.7 0 0 - 2 5 7 1 1 0 1 4 -5
p138
aVLeandro Barbosa PHX 04/30/2006 PHX @ LAL L 15 6 2 7 28.6 0 1 0.0 2 2 100.0 0 1 1 1 2 0 1 4 -7
p139
aVEddie House PHX 04/28/2006 PHX @ LAL L 5 2 1 3 33.3 0 0 - 0 0 - 0 2 2 1 0 0 0 0 7
p140
aVTim Thomas PHX 04/28/2006 PHX @ LAL L 32 18 5 10 50.0 4 7 57.1 4 4 100.0 1 5 6 2 4 0 1 4 -1
p141
aVRaja Bell PHX 04/28/2006 PHX @ LAL L 46 10 3 9 33.3 2 5 40.0 2 2 100.0 0 4 4 2 0 1 3 5 -11
p142
aVLeandro Barbosa PHX 04/28/2006 PHX @ LAL L 30 9 3 7 42.9 1 3 33.3 2 2 100.0 0 1 1 4 1 0 1 1 6
p143
aVBoris Diaw PHX 04/28/2006 PHX @ LAL L 37 14 6 11 54.5 0 0 - 2 3 66.7 2 3 5 4 1 1 1 4 -17
p144
aVJames Jones PHX 04/28/2006 PHX @ LAL L 9 2 1 3 33.3 0 0 - 0 0 - 0 2 2 0 0 1 1 1 0
p145
aVShawn Marion PHX 04/28/2006 PHX @ LAL L 40 20 8 19 42.1 0 2 0.0 4 5 80.0 0 7 7 1 1 2 3 6 -8
p146
aVSteve Nash PHX 04/28/2006 PHX @ LAL L 41 17 7 16 43.8 3 6 50.0 0 1 0.0 0 7 7 11 1 0 4 1 -11
p147
aVLeandro Barbosa PHX 04/26/2006 PHX vs. LAL L 27 0 0 5 0.0 0 2 0.0 0 0 - 1 1 2 4 1 1 2 2 -6
p148
aVJames Jones PHX 04/26/2006 PHX vs. LAL L 8 2 0 1 0.0 0 1 0.0 2 2 100.0 0 1 1 0 0 1 0 1 -9
p149
aVRaja Bell PHX 04/26/2006 PHX vs. LAL L 45 23 8 15 53.3 3 5 60.0 4 4 100.0 0 3 3 3 1 1 0 6 1
p150
aVBoris Diaw PHX 04/26/2006 PHX vs. LAL L 39 13 5 10 50.0 0 0 - 3 3 100.0 0 4 4 2 0 1 4 3 1
p151
aVBrian Grant PHX 04/26/2006 PHX vs. LAL L 2 0 0 0 - 0 0 - 0 0 - 0 0 0 0 0 0 0 2 -6
p152
aVTim Thomas PHX 04/26/2006 PHX vs. LAL L 29 11 4 12 33.3 3 8 37.5 0 0 - 1 8 9 1 0 1 0 3 -7
p153
aVSteve Nash PHX 04/26/2006 PHX vs. LAL L 40 29 10 17 58.8 2 7 28.6 7 7 100.0 2 5 7 9 1 0 6 4 3
p154
aVShawn Marion PHX 04/26/2006 PHX vs. LAL L 40 13 5 15 33.3 1 4 25.0 2 2 100.0 2 7 9 0 1 0 1 1 1
p155
aVEddie House PHX 04/26/2006 PHX vs. LAL L 10 2 1 3 33.3 0 0 - 0 0 - 0 0 0 0 0 1 1 3 -8
p156
aVShawn Marion PHX 04/23/2006 PHX vs. LAL W 46 19 8 15 53.3 1 3 33.3 2 2 100.0 1 6 7 2 2 1 1 4 1
p157
aVBrian Grant PHX 04/23/2006 PHX vs. LAL W 1 0 0 0 - 0 0 - 0 0 - 0 0 0 0 0 0 0 0 0
p158
aVJames Jones PHX 04/23/2006 PHX vs. LAL W 9 4 0 1 0.0 0 1 0.0 4 4 100.0 0 1 1 0 0 0 0 0 1
p159
aVRaja Bell PHX 04/23/2006 PHX vs. LAL W 33 8 1 7 14.3 1 3 33.3 5 6 83.3 0 3 3 2 1 0 0 5 11
p160
aVBoris Diaw PHX 04/23/2006 PHX vs. LAL W 41 15 6 16 37.5 0 1 0.0 3 4 75.0 3 3 6 4 1 0 2 4 -2
p161
aVTim Thomas PHX 04/23/2006 PHX vs. LAL W 34 22 8 10 80.0 4 5 80.0 2 3 66.7 0 15 15 0 2 1 3 5 10
p162
aVLeandro Barbosa PHX 04/23/2006 PHX vs. LAL W 29 15 3 7 42.9 1 2 50.0 8 8 100.0 0 1 1 1 0 1 0 3 -1
p163
aVSteve Nash PHX 04/23/2006 PHX vs. LAL W 37 20 5 12 41.7 2 5 40.0 8 8 100.0 1 1 2 10 0 0 2 1 5
p164
aVEddie House PHX 04/23/2006 PHX vs. LAL W 10 4 2 5 40.0 0 0 - 0 0 - 0 1 1 0 0 0 1 1 0
p165
a.