(lp0
VPLAYER TEAM DATE MATCHUP W/L MIN PTS FGM FGA FG% 3PM 3PA 3P% FTM FTA FT% OREB DREB REB AST STL BLK TOV PF +/-
p1
aVVladimir Radmanovic LAC 05/22/2006 LAC @ PHX L 10 0 0 0 - 0 0 - 0 0 - 0 2 2 0 1 0 0 1 -8
p2
aVChris Kaman LAC 05/22/2006 LAC @ PHX L 20 10 4 4 100.0 0 0 - 2 2 100.0 2 1 3 0 0 0 3 3 -15
p3
aVSam Cassell LAC 05/22/2006 LAC @ PHX L 39 11 4 11 36.4 0 0 - 3 4 75.0 0 1 1 6 1 0 3 2 -16
p4
aVShaun Livingston LAC 05/22/2006 LAC @ PHX L 27 14 4 6 66.7 0 0 - 6 6 100.0 2 0 2 3 0 0 0 0 -16
p5
aVElton Brand LAC 05/22/2006 LAC @ PHX L 48 36 16 26 61.5 0 0 - 4 4 100.0 7 2 9 1 0 1 1 2 -20
p6
aVWalter McCarty LAC 05/22/2006 LAC @ PHX L 1 0 0 1 0.0 0 0 - 0 0 - 0 0 0 0 0 0 0 0 0
p7
aVCuttino Mobley LAC 05/22/2006 LAC @ PHX L 39 10 4 10 40.0 0 1 0.0 2 2 100.0 0 5 5 0 2 0 0 2 -17
p8
aVQuinton Ross LAC 05/22/2006 LAC @ PHX L 25 8 4 7 57.1 0 0 - 0 0 - 0 1 1 0 1 1 1 3 2
p9
aVCorey Maggette LAC 05/22/2006 LAC @ PHX L 31 18 5 13 38.5 0 3 0.0 8 8 100.0 0 9 9 1 2 0 3 4 -10
p10
aVShaun Livingston LAC 05/18/2006 LAC vs. PHX W 19 4 2 7 28.6 0 0 - 0 0 - 2 3 5 4 0 1 1 1 4
p11
aVCorey Maggette LAC 05/18/2006 LAC vs. PHX W 27 25 7 8 87.5 2 3 66.7 9 9 100.0 0 8 8 4 0 0 1 3 4
p12
aVVladimir Radmanovic LAC 05/18/2006 LAC vs. PHX W 10 2 1 1 100.0 0 0 - 0 0 - 0 1 1 1 0 0 0 1 4
p13
aVQuinton Ross LAC 05/18/2006 LAC vs. PHX W 39 18 9 14 64.3 0 0 - 0 0 - 0 5 5 1 0 0 2 4 2
p14
aVChris Kaman LAC 05/18/2006 LAC vs. PHX W 29 15 7 8 87.5 0 0 - 1 1 100.0 1 9 10 1 0 1 4 3 9
p15
aVElton Brand LAC 05/18/2006 LAC vs. PHX W 43 30 14 21 66.7 0 0 - 2 3 66.7 2 10 12 3 1 5 2 2 6
p16
aVSam Cassell LAC 05/18/2006 LAC vs. PHX W 31 15 5 11 45.5 0 0 - 5 6 83.3 1 2 3 8 0 0 6 5 9
p17
aVCuttino Mobley LAC 05/18/2006 LAC vs. PHX W 42 9 3 8 37.5 0 2 0.0 3 4 75.0 1 3 4 6 0 1 3 3 22
p18
aVQuinton Ross LAC 05/16/2006 LAC @ PHX L 26 9 3 7 42.9 0 0 - 3 3 100.0 1 1 2 1 2 1 0 3 -5
p19
aVShaun Livingston LAC 05/16/2006 LAC @ PHX L 36 2 1 5 20.0 0 0 - 0 0 - 1 6 7 3 0 0 3 5 -6
p20
aVDaniel Ewing LAC 05/16/2006 LAC @ PHX L 2 0 0 0 - 0 0 - 0 0 - 0 0 0 0 0 0 0 0 -5
p21
aVCuttino Mobley LAC 05/16/2006 LAC @ PHX L 50 10 5 17 29.4 0 0 - 0 0 - 3 4 7 0 1 0 2 3 -1
p22
aVElton Brand LAC 05/16/2006 LAC @ PHX L 54 33 10 23 43.5 0 0 - 13 17 76.5 7 8 15 5 0 5 4 4 -4
p23
aVJames Singleton LAC 05/16/2006 LAC @ PHX L 2 0 0 0 - 0 0 - 0 0 - 0 0 0 0 0 0 0 0 -2
p24
aVCorey Maggette LAC 05/16/2006 LAC @ PHX L 17 8 3 11 27.3 0 0 - 2 2 100.0 1 5 6 0 0 1 3 1 -13
p25
aVWalter McCarty LAC 05/16/2006 LAC @ PHX L 1 0 0 0 - 0 0 - 0 0 - 0 0 0 0 0 0 0 0 -3
p26
aVSam Cassell LAC 05/16/2006 LAC @ PHX L 48 32 11 24 45.8 5 13 38.5 5 6 83.3 0 3 3 5 2 0 4 3 -2
p27
aVVladimir Radmanovic LAC 05/16/2006 LAC @ PHX L 34 13 4 7 57.1 4 7 57.1 1 2 50.0 0 7 7 0 0 2 0 4 18
p28
aVChris Kaman LAC 05/16/2006 LAC @ PHX L 20 11 5 9 55.6 0 0 - 1 2 50.0 7 3 10 0 1 0 0 0 -12
p29
aVShaun Livingston LAC 05/14/2006 LAC vs. PHX W 34 11 4 10 40.0 1 1 100.0 2 2 100.0 4 1 5 4 0 2 0 4 5
p30
aVQuinton Ross LAC 05/14/2006 LAC vs. PHX W 16 4 2 3 66.7 0 0 - 0 0 - 1 3 4 1 0 0 0 1 9
p31
aVDaniel Ewing LAC 05/14/2006 LAC vs. PHX W 1 0 0 0 - 0 0 - 0 0 - 0 0 0 0 0 0 0 0 0
p32
aVElton Brand LAC 05/14/2006 LAC vs. PHX W 46 30 13 24 54.2 0 1 0.0 4 5 80.0 5 4 9 8 1 1 2 0 7
p33
aVJames Singleton LAC 05/14/2006 LAC vs. PHX W 4 0 0 0 - 0 0 - 0 0 - 0 1 1 0 0 0 0 0 -1
p34
aVSam Cassell LAC 05/14/2006 LAC vs. PHX W 39 28 9 20 45.0 3 5 60.0 7 10 70.0 3 8 11 9 0 0 1 4 7
p35
aVVladimir Radmanovic LAC 05/14/2006 LAC vs. PHX W 25 13 5 10 50.0 1 4 25.0 2 2 100.0 1 0 1 2 1 1 1 3 -9
p36
aVCorey Maggette LAC 05/14/2006 LAC vs. PHX W 34 18 5 9 55.6 0 1 0.0 8 8 100.0 0 15 15 1 0 0 3 5 13
p37
aVCuttino Mobley LAC 05/14/2006 LAC vs. PHX W 40 10 4 10 40.0 0 4 0.0 2 2 100.0 2 6 8 1 0 1 2 2 4
p38
aVWalter McCarty LAC 05/14/2006 LAC vs. PHX W 1 0 0 0 - 0 0 - 0 0 - 0 1 1 0 0 0 0 0 0
p39
aVVladimir Radmanovic LAC 05/12/2006 LAC vs. PHX L 23 18 6 8 75.0 5 6 83.3 1 2 50.0 2 2 4 0 0 0 1 4 -3
p40
aVCorey Maggette LAC 05/12/2006 LAC vs. PHX L 26 7 3 10 30.0 0 1 0.0 1 2 50.0 1 13 14 5 1 0 3 4 -1
p41
aVWalter McCarty LAC 05/12/2006 LAC vs. PHX L 1 2 1 1 100.0 0 0 - 0 0 - 0 0 0 0 0 0 0 0 2
p42
aVCuttino Mobley LAC 05/12/2006 LAC vs. PHX L 41 14 6 14 42.9 2 2 100.0 0 0 - 0 2 2 2 1 0 4 0 -13
p43
aVElton Brand LAC 05/12/2006 LAC vs. PHX L 42 20 7 17 41.2 0 0 - 6 7 85.7 3 6 9 8 2 5 1 4 -7
p44
aVQuinton Ross LAC 05/12/2006 LAC vs. PHX L 18 10 4 7 57.1 0 0 - 2 2 100.0 0 2 2 0 0 0 0 3 -6
p45
aVSam Cassell LAC 05/12/2006 LAC vs. PHX L 33 6 2 10 20.0 0 4 0.0 2 2 100.0 1 5 6 4 1 0 2 2 -3
p46
aVShaun Livingston LAC 05/12/2006 LAC vs. PHX L 22 3 1 5 20.0 0 0 - 1 2 50.0 1 2 3 3 0 0 2 3 1
p47
aVChris Kaman LAC 05/12/2006 LAC vs. PHX L 34 11 5 11 45.5 0 0 - 1 3 33.3 0 7 7 1 1 4 2 6 15
p48
aVElton Brand LAC 05/10/2006 LAC @ PHX W 43 27 10 16 62.5 0 0 - 7 10 70.0 6 4 10 2 3 1 3 3 24
p49
aVShaun Livingston LAC 05/10/2006 LAC @ PHX W 26 8 4 8 50.0 0 0 - 0 0 - 2 3 5 1 1 0 0 2 8
p50
aVSam Cassell LAC 05/10/2006 LAC @ PHX W 34 23 8 12 66.7 2 2 100.0 5 7 71.4 1 4 5 6 0 1 0 2 26
p51
aVQuinton Ross LAC 05/10/2006 LAC @ PHX W 19 11 5 10 50.0 0 0 - 1 1 100.0 1 2 3 0 0 0 1 2 16
p52
aVVladimir Radmanovic LAC 05/10/2006 LAC @ PHX W 30 10 4 12 33.3 1 3 33.3 1 1 100.0 3 6 9 1 0 0 0 3 10
p53
aVJames Singleton LAC 05/10/2006 LAC @ PHX W 2 2 1 1 100.0 0 0 - 0 0 - 0 0 0 0 0 0 0 0 1
p54
aVChris Kaman LAC 05/10/2006 LAC @ PHX W 23 14 6 8 75.0 0 0 - 2 2 100.0 4 12 16 2 1 0 4 5 24
p55
aVCorey Maggette LAC 05/10/2006 LAC @ PHX W 17 2 1 4 25.0 0 1 0.0 0 0 - 0 1 1 0 0 1 3 3 0
p56
aVDaniel Ewing LAC 05/10/2006 LAC @ PHX W 3 2 1 1 100.0 0 0 - 0 0 - 0 0 0 0 0 0 0 0 1
p57
aVWalter McCarty LAC 05/10/2006 LAC @ PHX W 3 0 0 2 0.0 0 1 0.0 0 0 - 0 0 0 0 0 0 0 0 -2
p58
aVCuttino Mobley LAC 05/10/2006 LAC @ PHX W 40 23 9 16 56.3 1 2 50.0 4 4 100.0 2 6 8 3 1 0 1 3 17
p59
aVCuttino Mobley LAC 05/08/2006 LAC @ PHX L 33 3 1 6 16.7 0 1 0.0 1 1 100.0 0 3 3 1 0 0 1 1 2
p60
aVDaniel Ewing LAC 05/08/2006 LAC @ PHX L 1 0 0 0 - 0 0 - 0 0 - 0 0 0 0 0 0 0 0 2
p61
aVQuinton Ross LAC 05/08/2006 LAC @ PHX L 20 9 3 5 60.0 0 0 - 3 4 75.0 1 2 3 1 2 0 1 4 -15
p62
aVWalter McCarty LAC 05/08/2006 LAC @ PHX L 1 0 0 0 - 0 0 - 0 0 - 0 0 0 0 0 0 0 0 0
p63
aVSam Cassell LAC 05/08/2006 LAC @ PHX L 32 28 10 19 52.6 1 3 33.3 7 8 87.5 2 2 4 4 0 0 2 5 -6
p64
aVVladimir Radmanovic LAC 05/08/2006 LAC @ PHX L 20 5 1 3 33.3 1 3 33.3 2 3 66.7 0 2 2 1 0 2 0 4 4
p65
aVShaun Livingston LAC 05/08/2006 LAC @ PHX L 33 10 5 8 62.5 0 0 - 0 0 - 0 6 6 9 0 0 3 2 2
p66
aVChris Kaman LAC 05/08/2006 LAC @ PHX L 30 8 3 7 42.9 0 0 - 2 2 100.0 1 6 7 0 0 0 4 3 -25
p67
aVCorey Maggette LAC 05/08/2006 LAC @ PHX L 28 20 7 11 63.6 2 5 40.0 4 5 80.0 0 5 5 1 2 0 2 1 3
p68
aVElton Brand LAC 05/08/2006 LAC @ PHX L 42 40 18 22 81.8 0 0 - 4 6 66.7 5 4 9 3 0 4 1 2 -2
p69
aVCorey Maggette LAC 05/01/2006 LAC vs. DEN W 27 23 8 17 47.1 2 3 66.7 5 5 100.0 2 3 5 1 0 2 1 4 30
p70
aVSam Cassell LAC 05/01/2006 LAC vs. DEN W 23 10 4 10 40.0 0 2 0.0 2 2 100.0 0 7 7 4 0 1 2 1 -12
p71
aVJames Singleton LAC 05/01/2006 LAC vs. DEN W 1 0 0 0 - 0 0 - 0 0 - 0 0 0 1 0 0 0 0 3
p72
aVDaniel Ewing LAC 05/01/2006 LAC vs. DEN W 1 0 0 0 - 0 0 - 0 0 - 0 0 0 0 0 0 0 0 3
p73
aVShaun Livingston LAC 05/01/2006 LAC vs. DEN W 29 8 2 3 66.7 0 0 - 4 4 100.0 3 2 5 14 0 0 2 3 34
p74
aVQuinton Ross LAC 05/01/2006 LAC vs. DEN W 25 5 1 2 50.0 0 0 - 3 4 75.0 2 1 3 0 0 1 2 4 -17
p75
aVChris Kaman LAC 05/01/2006 LAC vs. DEN W 36 10 5 6 83.3 0 0 - 0 0 - 1 6 7 1 0 0 3 2 7
p76
aVVladimir Radmanovic LAC 05/01/2006 LAC vs. DEN W 12 1 0 4 0.0 0 3 0.0 1 2 50.0 0 4 4 0 0 1 0 1 12
p77
aVElton Brand LAC 05/01/2006 LAC vs. DEN W 42 21 9 17 52.9 0 0 - 3 4 75.0 2 11 13 3 1 1 2 2 13
p78
aVCuttino Mobley LAC 05/01/2006 LAC vs. DEN W 44 23 8 15 53.3 1 4 25.0 6 6 100.0 0 4 4 1 2 0 5 3 17
p79
aVCorey Maggette LAC 04/29/2006 LAC @ DEN W 28 19 4 9 44.4 0 1 0.0 11 12 91.7 0 6 6 3 0 1 1 5 16
p80
aVQuinton Ross LAC 04/29/2006 LAC @ DEN W 26 6 3 5 60.0 0 0 - 0 0 - 1 4 5 4 1 1 0 3 14
p81
aVJames Singleton LAC 04/29/2006 LAC @ DEN W 1 0 0 0 - 0 0 - 0 0 - 0 1 1 0 0 0 0 0 -2
p82
aVShaun Livingston LAC 04/29/2006 LAC @ DEN W 32 16 7 10 70.0 0 0 - 2 2 100.0 0 6 6 6 3 0 4 1 18
p83
aVWalter McCarty LAC 04/29/2006 LAC @ DEN W 1 0 0 0 - 0 0 - 0 0 - 0 0 0 0 0 0 0 0 -2
p84
aVElton Brand LAC 04/29/2006 LAC @ DEN W 37 11 5 14 35.7 0 0 - 1 1 100.0 3 7 10 4 0 0 5 3 13
p85
aVSam Cassell LAC 04/29/2006 LAC @ DEN W 20 11 4 11 36.4 1 1 100.0 2 3 66.7 0 1 1 2 1 0 3 2 0
p86
aVDaniel Ewing LAC 04/29/2006 LAC @ DEN W 2 0 0 0 - 0 0 - 0 0 - 0 0 0 0 0 0 0 0 -2
p87
aVCuttino Mobley LAC 04/29/2006 LAC @ DEN W 35 11 3 11 27.3 0 2 0.0 5 6 83.3 1 0 1 1 0 0 1 2 -2
p88
aVVladimir Radmanovic LAC 04/29/2006 LAC @ DEN W 27 14 5 7 71.4 4 5 80.0 0 0 - 0 4 4 4 2 0 1 3 1
p89
aVChris Kaman LAC 04/29/2006 LAC @ DEN W 31 12 6 9 66.7 0 0 - 0 0 - 0 5 5 2 1 2 3 2 16
p90
aVVladimir Radmanovic LAC 04/27/2006 LAC @ DEN L 19 8 2 6 33.3 1 4 25.0 3 4 75.0 1 2 3 1 0 0 2 5 1
p91
aVElton Brand LAC 04/27/2006 LAC @ DEN L 40 17 6 15 40.0 0 0 - 5 6 83.3 2 6 8 4 2 1 3 6 -2
p92
aVQuinton Ross LAC 04/27/2006 LAC @ DEN L 28 2 0 3 0.0 0 0 - 2 2 100.0 0 1 1 0 0 1 0 3 6
p93
aVShaun Livingston LAC 04/27/2006 LAC @ DEN L 32 7 3 7 42.9 0 0 - 1 2 50.0 1 7 8 4 3 2 4 6 -5
p94
aVSam Cassell LAC 04/27/2006 LAC @ DEN L 33 20 6 13 46.2 1 5 20.0 7 9 77.8 0 3 3 3 2 0 3 4 -15
p95
aVJames Singleton LAC 04/27/2006 LAC @ DEN L 0 0 0 0 - 0 0 - 0 0 - 0 0 0 0 0 0 0 0 0
p96
aVCorey Maggette LAC 04/27/2006 LAC @ DEN L 21 23 8 13 61.5 1 3 33.3 6 8 75.0 0 5 5 0 1 0 5 5 8
p97
aVChris Kaman LAC 04/27/2006 LAC @ DEN L 29 2 1 6 16.7 0 0 - 0 0 - 0 4 4 1 0 1 4 5 -9
p98
aVCuttino Mobley LAC 04/27/2006 LAC @ DEN L 32 8 3 8 37.5 2 2 100.0 0 0 - 1 4 5 1 0 1 3 4 -23
p99
aVZeljko Rebraca LAC 04/27/2006 LAC @ DEN L 6 0 0 1 0.0 0 0 - 0 0 - 0 1 1 0 0 1 0 2 4
p100
aVCorey Maggette LAC 04/24/2006 LAC vs. DEN W 18 12 4 9 44.4 0 1 0.0 4 4 100.0 1 5 6 0 0 0 0 2 -2
p101
aVQuinton Ross LAC 04/24/2006 LAC vs. DEN W 29 10 5 8 62.5 0 0 - 0 0 - 1 2 3 0 1 3 0 4 9
p102
aVCuttino Mobley LAC 04/24/2006 LAC vs. DEN W 37 21 9 18 50.0 2 6 33.3 1 2 50.0 0 4 4 5 0 0 0 5 8
p103
aVShaun Livingston LAC 04/24/2006 LAC vs. DEN W 21 5 2 3 66.7 0 0 - 1 1 100.0 0 3 3 3 0 1 3 2 7
p104
aVElton Brand LAC 04/24/2006 LAC vs. DEN W 38 19 8 14 57.1 0 0 - 3 5 60.0 5 6 11 2 1 3 1 2 13
p105
aVSam Cassell LAC 04/24/2006 LAC vs. DEN W 34 13 4 15 26.7 1 4 25.0 4 4 100.0 0 3 3 11 1 0 2 3 10
p106
aVVladimir Radmanovic LAC 04/24/2006 LAC vs. DEN W 21 8 2 5 40.0 1 4 25.0 3 5 60.0 0 6 6 2 2 0 0 3 7
p107
aVZeljko Rebraca LAC 04/24/2006 LAC vs. DEN W 4 0 0 0 - 0 0 - 0 0 - 1 0 1 0 0 0 0 1 -5
p108
aVChris Kaman LAC 04/24/2006 LAC vs. DEN W 27 10 4 6 66.7 0 0 - 2 4 50.0 2 4 6 1 1 1 5 5 11
p109
aVJames Singleton LAC 04/24/2006 LAC vs. DEN W 5 0 0 2 0.0 0 2 0.0 0 0 - 0 1 1 1 0 0 0 3 -7
p110
aVWalter McCarty LAC 04/24/2006 LAC vs. DEN W 6 0 0 0 - 0 0 - 0 0 - 0 0 0 0 0 0 0 2 4
p111
aVShaun Livingston LAC 04/22/2006 LAC vs. DEN W 20 2 1 4 25.0 0 0 - 0 2 0.0 0 1 1 3 0 0 1 2 -8
p112
aVZeljko Rebraca LAC 04/22/2006 LAC vs. DEN W 10 2 1 2 50.0 0 0 - 0 0 - 0 2 2 0 0 0 2 3 -3
p113
aVQuinton Ross LAC 04/22/2006 LAC vs. DEN W 25 0 0 2 0.0 0 0 - 0 0 - 0 0 0 1 0 0 2 2 2
p114
aVSam Cassell LAC 04/22/2006 LAC vs. DEN W 33 19 6 11 54.5 1 4 25.0 6 7 85.7 1 0 1 7 0 0 0 2 19
p115
aVCuttino Mobley LAC 04/22/2006 LAC vs. DEN W 38 17 6 10 60.0 3 4 75.0 2 2 100.0 0 6 6 3 1 0 1 0 13
p116
aVChris Kaman LAC 04/22/2006 LAC vs. DEN W 44 15 5 12 41.7 0 0 - 5 5 100.0 3 10 13 1 0 0 1 4 7
p117
aVElton Brand LAC 04/22/2006 LAC vs. DEN W 41 21 8 16 50.0 0 0 - 5 8 62.5 4 4 8 5 0 4 4 4 0
p118
aVCorey Maggette LAC 04/22/2006 LAC vs. DEN W 15 8 2 8 25.0 1 2 50.0 3 4 75.0 2 5 7 1 1 0 1 2 -16
p119
aVVladimir Radmanovic LAC 04/22/2006 LAC vs. DEN W 14 5 1 3 33.3 1 2 50.0 2 2 100.0 2 3 5 1 1 0 3 3 -4
p120
a.