(lp0
VPLAYER TEAM DATE MATCHUP W/L MIN PTS FGM FGA FG% 3PM 3PA 3P% FTM FTA FT% OREB DREB REB AST STL BLK TOV PF +/-
p1
aVSarunas Jasikevicius IND 05/04/2006 IND vs. NJN L 13 0 0 2 0.0 0 1 0.0 0 0 - 0 2 2 0 0 0 1 1 2
p2
aVJermaine O'Neal IND 05/04/2006 IND vs. NJN L 39 21 8 14 57.1 0 0 - 5 9 55.6 2 4 6 0 0 0 3 5 -5
p3
aVStephen Jackson IND 05/04/2006 IND vs. NJN L 38 9 2 10 20.0 0 3 0.0 5 5 100.0 0 4 4 4 2 1 0 4 -8
p4
aVAnthony Johnson IND 05/04/2006 IND vs. NJN L 45 40 16 23 69.6 3 5 60.0 5 9 55.6 1 4 5 5 2 0 2 2 -8
p5
aVFred Jones IND 05/04/2006 IND vs. NJN L 26 0 0 4 0.0 0 2 0.0 0 0 - 0 4 4 2 1 0 2 2 5
p6
aVDanny Granger IND 05/04/2006 IND vs. NJN L 36 13 5 8 62.5 3 4 75.0 0 0 - 3 2 5 1 1 0 2 2 -12
p7
aVDavid Harrison IND 05/04/2006 IND vs. NJN L 4 0 0 1 0.0 0 0 - 0 0 - 0 0 0 0 0 0 0 1 -1
p8
aVAustin Croshere IND 05/04/2006 IND vs. NJN L 39 7 2 8 25.0 1 4 25.0 2 2 100.0 0 4 4 0 1 0 2 2 -3
p9
aVDavid Harrison IND 05/02/2006 IND @ NJN L 5 0 0 2 0.0 0 0 - 0 0 - 0 0 0 0 1 1 0 0 -7
p10
aVDanny Granger IND 05/02/2006 IND @ NJN L 34 9 4 8 50.0 1 3 33.3 0 0 - 2 10 12 2 2 2 0 4 -12
p11
aVJermaine O'Neal IND 05/02/2006 IND @ NJN L 43 19 8 18 44.4 0 1 0.0 3 8 37.5 2 5 7 2 1 4 4 4 1
p12
aVAnthony Johnson IND 05/02/2006 IND @ NJN L 43 14 5 15 33.3 1 4 25.0 3 4 75.0 2 4 6 4 2 0 1 4 -2
p13
aVAustin Croshere IND 05/02/2006 IND @ NJN L 33 11 3 8 37.5 3 7 42.9 2 2 100.0 0 4 4 2 2 0 1 2 -2
p14
aVSarunas Jasikevicius IND 05/02/2006 IND @ NJN L 16 6 3 5 60.0 0 1 0.0 0 0 - 0 0 0 0 0 0 1 0 0
p15
aVFred Jones IND 05/02/2006 IND @ NJN L 28 14 5 9 55.6 1 2 50.0 3 3 100.0 0 3 3 2 3 1 1 5 1
p16
aVStephen Jackson IND 05/02/2006 IND @ NJN L 38 13 6 16 37.5 1 7 14.3 0 0 - 2 3 5 7 0 0 3 4 -9
p17
aVDavid Harrison IND 04/29/2006 IND vs. NJN L 11 10 2 3 66.7 0 0 - 6 10 60.0 1 2 3 0 0 0 1 3 -1
p18
aVAnthony Johnson IND 04/29/2006 IND vs. NJN L 33 12 5 9 55.6 1 3 33.3 1 2 50.0 2 2 4 4 0 0 6 4 -1
p19
aVScot Pollard IND 04/29/2006 IND vs. NJN L 2 0 0 1 0.0 0 0 - 0 0 - 1 0 1 0 0 0 0 0 -7
p20
aVStephen Jackson IND 04/29/2006 IND vs. NJN L 42 13 4 14 28.6 1 4 25.0 4 5 80.0 0 3 3 3 1 0 6 4 -4
p21
aVFred Jones IND 04/29/2006 IND vs. NJN L 24 3 1 3 33.3 1 2 50.0 0 0 - 0 0 0 3 1 0 1 0 -20
p22
aVJeff Foster IND 04/29/2006 IND vs. NJN L 11 0 0 2 0.0 0 0 - 0 0 - 2 3 5 0 1 0 0 2 -10
p23
aVAustin Croshere IND 04/29/2006 IND vs. NJN L 40 15 4 7 57.1 4 6 66.7 3 4 75.0 1 2 3 4 0 0 1 4 0
p24
aVDanny Granger IND 04/29/2006 IND vs. NJN L 31 10 3 5 60.0 2 2 100.0 2 2 100.0 0 8 8 1 0 1 2 2 5
p25
aVSarunas Jasikevicius IND 04/29/2006 IND vs. NJN L 15 3 1 4 25.0 1 4 25.0 0 0 - 0 3 3 4 0 1 0 1 -8
p26
aVJermaine O'Neal IND 04/29/2006 IND vs. NJN L 31 22 8 15 53.3 0 0 - 6 9 66.7 1 6 7 2 1 2 5 6 1
p27
aVEddie Gill IND 04/27/2006 IND vs. NJN W 1 0 0 0 - 0 0 - 0 0 - 0 0 0 0 0 0 1 0 -6
p28
aVJeff Foster IND 04/27/2006 IND vs. NJN W 16 2 1 2 50.0 0 0 - 0 0 - 0 2 2 0 2 0 0 4 -2
p29
aVDanny Granger IND 04/27/2006 IND vs. NJN W 23 6 3 4 75.0 0 1 0.0 0 0 - 0 2 2 1 0 1 2 4 2
p30
aVAnthony Johnson IND 04/27/2006 IND vs. NJN W 40 25 8 13 61.5 2 3 66.7 7 9 77.8 1 4 5 8 1 0 0 3 23
p31
aVFred Jones IND 04/27/2006 IND vs. NJN W 24 2 0 3 0.0 0 2 0.0 2 2 100.0 0 2 2 0 0 0 1 3 -2
p32
aVAustin Croshere IND 04/27/2006 IND vs. NJN W 15 5 0 3 0.0 0 1 0.0 5 6 83.3 2 1 3 1 1 0 0 2 -1
p33
aVSarunas Jasikevicius IND 04/27/2006 IND vs. NJN W 9 3 1 4 25.0 0 1 0.0 1 2 50.0 1 0 1 0 0 0 2 1 -10
p34
aVDavid Harrison IND 04/27/2006 IND vs. NJN W 4 0 0 1 0.0 0 0 - 0 0 - 0 2 2 0 0 0 2 4 -9
p35
aVJermaine O'Neal IND 04/27/2006 IND vs. NJN W 39 37 12 15 80.0 0 0 - 13 14 92.9 4 11 15 2 1 4 3 3 26
p36
aVStephen Jackson IND 04/27/2006 IND vs. NJN W 40 17 6 13 46.2 2 6 33.3 3 4 75.0 1 2 3 3 1 0 1 2 15
p37
aVPeja Stojakovic IND 04/27/2006 IND vs. NJN W 24 10 3 7 42.9 0 1 0.0 4 5 80.0 0 4 4 3 0 0 1 2 15
p38
aVScot Pollard IND 04/27/2006 IND vs. NJN W 5 0 0 0 - 0 0 - 0 0 - 0 4 4 0 1 0 1 4 9
p39
aVDavid Harrison IND 04/25/2006 IND @ NJN L 4 1 0 1 0.0 0 0 - 1 2 50.0 0 0 0 0 0 0 1 2 -3
p40
aVJeff Foster IND 04/25/2006 IND @ NJN L 24 4 2 5 40.0 0 0 - 0 0 - 4 4 8 1 1 1 0 1 -3
p41
aVJamaal Tinsley IND 04/25/2006 IND @ NJN L 7 2 1 3 33.3 0 2 0.0 0 0 - 0 0 0 1 1 0 1 1 -16
p42
aVDanny Granger IND 04/25/2006 IND @ NJN L 31 11 3 8 37.5 3 5 60.0 2 2 100.0 1 2 3 3 1 2 0 5 -12
p43
aVScot Pollard IND 04/25/2006 IND @ NJN L 2 0 0 0 - 0 0 - 0 0 - 0 0 0 0 0 0 0 1 -9
p44
aVAustin Croshere IND 04/25/2006 IND @ NJN L 24 2 1 6 16.7 0 3 0.0 0 0 - 1 2 3 0 0 0 0 0 -7
p45
aVFred Jones IND 04/25/2006 IND @ NJN L 38 13 5 10 50.0 1 4 25.0 2 3 66.7 1 5 6 4 1 0 0 2 -16
p46
aVEddie Gill IND 04/25/2006 IND @ NJN L 2 0 0 0 - 0 0 - 0 0 - 0 0 0 0 0 0 0 0 1
p47
aVJermaine O'Neal IND 04/25/2006 IND @ NJN L 32 12 3 12 25.0 0 1 0.0 6 6 100.0 0 7 7 2 0 3 6 5 -6
p48
aVStephen Jackson IND 04/25/2006 IND @ NJN L 31 10 4 14 28.6 1 4 25.0 1 3 33.3 2 2 4 2 0 0 2 6 0
p49
aVSarunas Jasikevicius IND 04/25/2006 IND @ NJN L 5 3 1 3 33.3 1 2 50.0 0 0 - 0 0 0 1 0 0 0 1 -4
p50
aVAnthony Johnson IND 04/25/2006 IND @ NJN L 40 17 8 17 47.1 1 4 25.0 0 1 0.0 1 5 6 4 0 0 3 0 0
p51
aVDavid Harrison IND 04/23/2006 IND @ NJN W 5 2 1 1 100.0 0 0 - 0 0 - 0 0 0 0 0 0 0 1 1
p52
aVJermaine O'Neal IND 04/23/2006 IND @ NJN W 29 15 5 10 50.0 0 0 - 5 7 71.4 0 3 3 2 0 1 5 5 6
p53
aVStephen Jackson IND 04/23/2006 IND @ NJN W 41 18 8 15 53.3 1 2 50.0 1 1 100.0 0 8 8 1 0 0 3 3 10
p54
aVSarunas Jasikevicius IND 04/23/2006 IND @ NJN W 8 2 1 1 100.0 0 0 - 0 0 - 0 0 0 1 0 0 1 3 -3
p55
aVAnthony Johnson IND 04/23/2006 IND @ NJN W 39 12 3 10 30.0 0 1 0.0 6 8 75.0 1 3 4 6 1 0 2 4 5
p56
aVJeff Foster IND 04/23/2006 IND @ NJN W 28 5 1 2 50.0 0 0 - 3 4 75.0 5 4 9 2 0 0 0 2 -8
p57
aVDanny Granger IND 04/23/2006 IND @ NJN W 10 0 0 1 0.0 0 1 0.0 0 0 - 1 0 1 2 0 1 1 3 -7
p58
aVFred Jones IND 04/23/2006 IND @ NJN W 27 15 4 7 57.1 3 4 75.0 4 4 100.0 1 4 5 4 0 0 3 1 5
p59
aVPeja Stojakovic IND 04/23/2006 IND @ NJN W 26 12 5 11 45.5 0 2 0.0 2 2 100.0 0 5 5 1 1 1 0 2 -6
p60
aVScot Pollard IND 04/23/2006 IND @ NJN W 4 0 0 0 - 0 0 - 0 0 - 0 0 0 0 0 0 0 0 -1
p61
aVAustin Croshere IND 04/23/2006 IND @ NJN W 23 9 2 6 33.3 1 2 50.0 4 4 100.0 1 4 5 0 1 0 2 1 8
p62
a.