(lp0
VPLAYER TEAM DATE MATCHUP W/L MIN PTS FGM FGA FG% 3PM 3PA 3P% FTM FTA FT% OREB DREB REB AST STL BLK TOV PF +/-
p1
aVKirk Hinrich CHI 05/04/2006 CHI vs. MIA L 40 23 7 17 41.2 1 5 20.0 8 9 88.9 0 4 4 6 1 0 3 1 -17
p2
aVChris Duhon CHI 05/04/2006 CHI vs. MIA L 21 6 2 5 40.0 2 4 50.0 0 0 - 0 1 1 3 0 0 0 2 -3
p3
aVBen Gordon CHI 05/04/2006 CHI vs. MIA L 35 21 7 18 38.9 2 6 33.3 5 9 55.6 1 2 3 3 1 0 4 2 -18
p4
aVLuke Schenscher CHI 05/04/2006 CHI vs. MIA L 1 0 0 0 - 0 0 - 0 0 - 1 0 1 0 0 0 0 0 0
p5
aVJannero Pargo CHI 05/04/2006 CHI vs. MIA L 10 10 2 6 33.3 2 4 50.0 4 5 80.0 1 1 2 2 0 0 0 0 -1
p6
aVTyson Chandler CHI 05/04/2006 CHI vs. MIA L 19 0 0 1 0.0 0 0 - 0 0 - 1 2 3 0 0 0 1 5 -17
p7
aVMalik Allen CHI 05/04/2006 CHI vs. MIA L 24 2 1 4 25.0 0 0 - 0 0 - 1 4 5 3 1 1 1 3 -3
p8
aVAndres Nocioni CHI 05/04/2006 CHI vs. MIA L 34 20 7 10 70.0 2 5 40.0 4 5 80.0 0 5 5 1 0 0 2 3 -19
p9
aVLuol Deng CHI 05/04/2006 CHI vs. MIA L 40 12 5 10 50.0 1 3 33.3 1 2 50.0 2 4 6 1 1 0 0 4 -8
p10
aVEric Piatkowski CHI 05/04/2006 CHI vs. MIA L 6 2 0 3 0.0 0 3 0.0 2 2 100.0 1 1 2 0 0 0 0 0 4
p11
aVMichael Sweetney CHI 05/04/2006 CHI vs. MIA L 10 0 0 1 0.0 0 0 - 0 0 - 0 2 2 0 0 0 0 6 -3
p12
aVChris Duhon CHI 05/02/2006 CHI @ MIA L 21 2 1 3 33.3 0 1 0.0 0 0 - 0 3 3 1 0 0 0 1 -10
p13
aVKirk Hinrich CHI 05/02/2006 CHI @ MIA L 40 9 3 13 23.1 0 4 0.0 3 4 75.0 0 5 5 5 2 1 6 3 -9
p14
aVMichael Sweetney CHI 05/02/2006 CHI @ MIA L 26 16 5 9 55.6 0 0 - 6 6 100.0 4 5 9 0 0 2 3 5 0
p15
aVTyson Chandler CHI 05/02/2006 CHI @ MIA L 6 0 0 0 - 0 0 - 0 0 - 0 0 0 0 0 0 1 5 -5
p16
aVLuol Deng CHI 05/02/2006 CHI @ MIA L 30 4 2 8 25.0 0 0 - 0 2 0.0 2 5 7 0 0 1 1 4 -12
p17
aVAndres Nocioni CHI 05/02/2006 CHI @ MIA L 35 23 6 11 54.5 2 3 66.7 9 11 81.8 1 9 10 0 0 0 3 5 -15
p18
aVMalik Allen CHI 05/02/2006 CHI @ MIA L 19 6 3 8 37.5 0 0 - 0 0 - 2 3 5 0 0 1 1 2 -10
p19
aVBen Gordon CHI 05/02/2006 CHI @ MIA L 39 10 3 16 18.8 1 7 14.3 3 3 100.0 0 3 3 3 1 0 3 2 -19
p20
aVOthella Harrington CHI 05/02/2006 CHI @ MIA L 3 0 0 1 0.0 0 0 - 0 0 - 0 2 2 0 0 0 0 0 3
p21
aVJannero Pargo CHI 05/02/2006 CHI @ MIA L 2 3 1 2 50.0 1 1 100.0 0 0 - 0 0 0 0 0 0 0 0 5
p22
aVEric Piatkowski CHI 05/02/2006 CHI @ MIA L 9 0 0 0 - 0 0 - 0 0 - 0 2 2 1 0 0 0 0 -4
p23
aVLuke Schenscher CHI 05/02/2006 CHI @ MIA L 10 5 1 1 100.0 0 0 - 3 4 75.0 1 3 4 0 0 0 1 2 6
p24
aVEric Piatkowski CHI 04/30/2006 CHI vs. MIA W 1 0 0 0 - 0 0 - 0 0 - 0 0 0 0 0 1 0 0 -2
p25
aVTyson Chandler CHI 04/30/2006 CHI vs. MIA W 22 1 0 0 - 0 0 - 1 4 25.0 2 1 3 1 0 1 3 4 13
p26
aVAndres Nocioni CHI 04/30/2006 CHI vs. MIA W 46 24 8 17 47.1 1 3 33.3 7 8 87.5 1 6 7 1 3 0 2 2 12
p27
aVChris Duhon CHI 04/30/2006 CHI vs. MIA W 24 7 2 4 50.0 1 1 100.0 2 2 100.0 0 6 6 2 2 0 1 0 -6
p28
aVMichael Sweetney CHI 04/30/2006 CHI vs. MIA W 22 9 2 6 33.3 0 0 - 5 5 100.0 3 3 6 0 1 1 2 5 2
p29
aVLuol Deng CHI 04/30/2006 CHI vs. MIA W 21 4 2 6 33.3 0 0 - 0 0 - 1 0 1 1 0 1 1 1 -11
p30
aVBen Gordon CHI 04/30/2006 CHI vs. MIA W 43 23 8 15 53.3 4 9 44.4 3 4 75.0 1 4 5 2 2 0 3 2 12
p31
aVKirk Hinrich CHI 04/30/2006 CHI vs. MIA W 41 21 7 15 46.7 1 4 25.0 6 8 75.0 0 4 4 9 1 1 4 2 15
p32
aVJannero Pargo CHI 04/30/2006 CHI vs. MIA W 1 0 0 0 - 0 0 - 0 0 - 0 0 0 0 0 0 1 0 -2
p33
aVMalik Allen CHI 04/30/2006 CHI vs. MIA W 19 4 2 5 40.0 0 0 - 0 0 - 0 2 2 2 0 2 0 1 -3
p34
aVKirk Hinrich CHI 04/27/2006 CHI vs. MIA W 31 22 6 17 35.3 2 6 33.3 8 9 88.9 0 2 2 11 3 0 1 5 19
p35
aVBen Gordon CHI 04/27/2006 CHI vs. MIA W 32 24 8 18 44.4 3 6 50.0 5 8 62.5 1 2 3 3 0 0 3 1 21
p36
aVMalik Allen CHI 04/27/2006 CHI vs. MIA W 9 2 1 1 100.0 0 0 - 0 0 - 0 0 0 1 0 0 1 2 8
p37
aVAndres Nocioni CHI 04/27/2006 CHI vs. MIA W 23 19 5 11 45.5 0 2 0.0 9 10 90.0 1 8 9 3 0 1 2 4 15
p38
aVJannero Pargo CHI 04/27/2006 CHI vs. MIA W 7 4 2 4 50.0 0 0 - 0 0 - 0 4 4 1 0 0 2 0 0
p39
aVLuke Schenscher CHI 04/27/2006 CHI vs. MIA W 8 2 1 1 100.0 0 0 - 0 0 - 1 1 2 0 0 0 0 0 2
p40
aVLuol Deng CHI 04/27/2006 CHI vs. MIA W 27 21 8 16 50.0 0 0 - 5 8 62.5 2 6 8 1 2 1 0 1 11
p41
aVMichael Sweetney CHI 04/27/2006 CHI vs. MIA W 20 10 4 5 80.0 0 0 - 2 6 33.3 2 5 7 1 1 1 1 5 11
p42
aVChris Duhon CHI 04/27/2006 CHI vs. MIA W 8 3 0 3 0.0 0 2 0.0 3 4 75.0 1 1 2 2 0 0 1 3 4
p43
aVTyson Chandler CHI 04/27/2006 CHI vs. MIA W 9 2 1 1 100.0 0 0 - 0 1 0.0 1 4 5 0 0 0 0 5 5
p44
aVOthella Harrington CHI 04/27/2006 CHI vs. MIA W 9 0 0 1 0.0 0 0 - 0 0 - 0 0 0 0 1 0 0 1 0
p45
aVEric Piatkowski CHI 04/27/2006 CHI vs. MIA W 2 0 0 0 - 0 0 - 0 0 - 0 0 0 0 0 0 0 0 -1
p46
aVEric Piatkowski CHI 04/24/2006 CHI @ MIA L 8 5 2 2 100.0 1 1 100.0 0 0 - 0 1 1 0 0 0 0 1 -5
p47
aVChris Duhon CHI 04/24/2006 CHI @ MIA L 24 6 2 5 40.0 2 5 40.0 0 0 - 0 2 2 3 0 0 1 2 5
p48
aVAndres Nocioni CHI 04/24/2006 CHI @ MIA L 40 30 13 15 86.7 3 3 100.0 1 1 100.0 0 6 6 0 1 0 3 4 -2
p49
aVTyson Chandler CHI 04/24/2006 CHI @ MIA L 22 3 1 1 100.0 0 0 - 1 4 25.0 2 7 9 2 0 0 0 4 9
p50
aVMichael Sweetney CHI 04/24/2006 CHI @ MIA L 19 4 1 4 25.0 0 0 - 2 2 100.0 2 2 4 3 1 1 1 1 -7
p51
aVLuol Deng CHI 04/24/2006 CHI @ MIA L 34 14 5 12 41.7 0 0 - 4 5 80.0 1 3 4 0 2 1 2 2 -10
p52
aVKirk Hinrich CHI 04/24/2006 CHI @ MIA L 35 29 10 18 55.6 2 2 100.0 7 8 87.5 0 4 4 7 1 0 6 5 -4
p53
aVJannero Pargo CHI 04/24/2006 CHI @ MIA L 1 0 0 0 - 0 0 - 0 0 - 0 0 0 0 0 0 0 0 -2
p54
aVMalik Allen CHI 04/24/2006 CHI @ MIA L 17 4 2 4 50.0 0 0 - 0 0 - 1 1 2 1 0 1 3 4 -10
p55
aVBen Gordon CHI 04/24/2006 CHI @ MIA L 40 13 5 16 31.3 0 3 0.0 3 6 50.0 2 2 4 4 1 0 2 3 -9
p56
aVBen Gordon CHI 04/22/2006 CHI @ MIA L 45 35 12 23 52.2 5 10 50.0 6 7 85.7 0 2 2 3 1 0 2 2 0
p57
aVChris Duhon CHI 04/22/2006 CHI @ MIA L 26 6 2 5 40.0 2 3 66.7 0 0 - 0 2 2 2 0 0 2 5 -4
p58
aVOthella Harrington CHI 04/22/2006 CHI @ MIA L 3 0 0 1 0.0 0 0 - 0 0 - 0 0 0 0 0 0 0 1 -4
p59
aVLuol Deng CHI 04/22/2006 CHI @ MIA L 22 6 2 4 50.0 0 2 0.0 2 4 50.0 0 3 3 0 0 0 1 1 1
p60
aVMalik Allen CHI 04/22/2006 CHI @ MIA L 21 10 5 8 62.5 0 0 - 0 1 0.0 1 3 4 0 1 1 4 4 5
p61
aVTyson Chandler CHI 04/22/2006 CHI @ MIA L 27 5 2 3 66.7 0 0 - 1 1 100.0 2 5 7 0 2 1 1 6 -10
p62
aVAndres Nocioni CHI 04/22/2006 CHI @ MIA L 42 18 8 20 40.0 2 5 40.0 0 0 - 2 14 16 4 1 1 2 3 -1
p63
aVEric Piatkowski CHI 04/22/2006 CHI @ MIA L 2 3 1 1 100.0 1 1 100.0 0 0 - 0 0 0 0 0 0 0 0 -1
p64
aVKirk Hinrich CHI 04/22/2006 CHI @ MIA L 39 19 6 14 42.9 3 5 60.0 4 4 100.0 0 1 1 8 0 0 4 6 -5
p65
aVMichael Sweetney CHI 04/22/2006 CHI @ MIA L 14 4 2 9 22.2 0 0 - 0 0 - 5 0 5 3 0 1 0 2 -6
p66
a.