(lp0
VPLAYER TEAM DATE MATCHUP W/L MIN PTS FGM FGA FG% 3PM 3PA 3P% FTM FTA FT% OREB DREB REB AST STL BLK TOV PF +/-
p1
aVJarvis Hayes WAS 04/30/2007 WAS vs. CLE L 26 5 1 5 20.0 1 4 25.0 2 2 100.0 0 4 4 1 0 0 0 3 2
p2
aVRoger Mason Jr. WAS 04/30/2007 WAS vs. CLE L 19 5 2 5 40.0 1 3 33.3 0 0 - 0 1 1 0 0 0 1 2 -8
p3
aVCalvin Booth WAS 04/30/2007 WAS vs. CLE L 18 4 2 3 66.7 0 0 - 0 0 - 2 2 4 1 1 0 1 3 1
p4
aVMichael Ruffin WAS 04/30/2007 WAS vs. CLE L 0 0 0 0 - 0 0 - 0 0 - 0 0 0 0 0 0 0 0 0
p5
aVDonell Taylor WAS 04/30/2007 WAS vs. CLE L 15 3 1 4 25.0 0 0 - 1 1 100.0 0 2 2 4 0 0 2 2 0
p6
aVDeShawn Stevenson WAS 04/30/2007 WAS vs. CLE L 22 0 0 8 0.0 0 4 0.0 0 0 - 0 4 4 1 1 0 0 2 0
p7
aVAndray Blatche WAS 04/30/2007 WAS vs. CLE L 21 7 3 4 75.0 0 0 - 1 1 100.0 2 3 5 0 0 0 1 1 -13
p8
aVEtan Thomas WAS 04/30/2007 WAS vs. CLE L 18 6 2 5 40.0 0 0 - 2 2 100.0 0 3 3 0 1 0 2 2 -2
p9
aVDarius Songaila WAS 04/30/2007 WAS vs. CLE L 19 16 8 13 61.5 0 0 - 0 0 - 1 1 2 0 0 0 1 3 -6
p10
aVAntonio Daniels WAS 04/30/2007 WAS vs. CLE L 38 13 3 8 37.5 1 2 50.0 6 7 85.7 0 6 6 12 1 0 2 1 -2
p11
aVAntawn Jamison WAS 04/30/2007 WAS vs. CLE L 43 31 12 25 48.0 3 6 50.0 4 5 80.0 1 3 4 1 0 0 2 2 -7
p12
aVAntawn Jamison WAS 04/28/2007 WAS vs. CLE L 45 38 15 27 55.6 2 6 33.3 6 6 100.0 5 6 11 1 1 0 4 3 -6
p13
aVDeShawn Stevenson WAS 04/28/2007 WAS vs. CLE L 34 7 3 14 21.4 1 7 14.3 0 1 0.0 0 1 1 3 0 1 1 0 6
p14
aVMichael Ruffin WAS 04/28/2007 WAS vs. CLE L 5 0 0 1 0.0 0 1 0.0 0 0 - 1 1 2 0 0 0 0 1 -7
p15
aVBrendan Haywood WAS 04/28/2007 WAS vs. CLE L 10 0 0 0 - 0 0 - 0 0 - 0 0 0 0 0 0 0 1 -10
p16
aVDarius Songaila WAS 04/28/2007 WAS vs. CLE L 24 6 3 10 30.0 0 0 - 0 0 - 2 0 2 1 3 0 1 3 -21
p17
aVAntonio Daniels WAS 04/28/2007 WAS vs. CLE L 48 20 7 13 53.8 0 0 - 6 6 100.0 1 3 4 13 1 1 1 0 -6
p18
aVJarvis Hayes WAS 04/28/2007 WAS vs. CLE L 40 15 6 13 46.2 3 6 50.0 0 0 - 1 3 4 0 0 0 0 4 3
p19
aVEtan Thomas WAS 04/28/2007 WAS vs. CLE L 28 3 1 3 33.3 0 0 - 1 3 33.3 1 8 9 0 1 1 0 2 13
p20
aVRoger Mason Jr. WAS 04/28/2007 WAS vs. CLE L 7 3 1 2 50.0 1 2 50.0 0 0 - 0 0 0 0 0 0 0 2 -2
p21
aVJarvis Hayes WAS 04/25/2007 WAS @ CLE L 33 5 2 13 15.4 1 4 25.0 0 0 - 2 2 4 1 2 1 0 2 -10
p22
aVDarius Songaila WAS 04/25/2007 WAS @ CLE L 30 13 6 13 46.2 0 1 0.0 1 1 100.0 2 6 8 2 0 0 1 5 4
p23
aVBrendan Haywood WAS 04/25/2007 WAS @ CLE L 19 13 5 6 83.3 0 0 - 3 4 75.0 3 1 4 1 1 0 1 4 0
p24
aVRoger Mason Jr. WAS 04/25/2007 WAS @ CLE L 21 10 2 6 33.3 2 4 50.0 4 5 80.0 0 1 1 1 0 0 0 4 10
p25
aVAntonio Daniels WAS 04/25/2007 WAS @ CLE L 44 11 4 10 40.0 0 1 0.0 3 4 75.0 0 1 1 11 2 0 2 1 0
p26
aVDeShawn Stevenson WAS 04/25/2007 WAS @ CLE L 31 8 3 12 25.0 0 4 0.0 2 4 50.0 2 0 2 2 1 0 0 2 -21
p27
aVAntawn Jamison WAS 04/25/2007 WAS @ CLE L 39 31 12 24 50.0 3 8 37.5 4 6 66.7 2 8 10 1 0 3 0 4 -4
p28
aVEtan Thomas WAS 04/25/2007 WAS @ CLE L 16 9 3 5 60.0 0 0 - 3 4 75.0 1 4 5 1 0 1 1 1 -14
p29
aVMichael Ruffin WAS 04/25/2007 WAS @ CLE L 7 2 1 1 100.0 0 0 - 0 0 - 1 2 3 0 1 0 0 0 0
p30
aVAntawn Jamison WAS 04/22/2007 WAS @ CLE L 45 28 10 27 37.0 1 6 16.7 7 11 63.6 5 9 14 2 1 1 1 4 -16
p31
aVMichael Ruffin WAS 04/22/2007 WAS @ CLE L 15 0 0 1 0.0 0 0 - 0 0 - 3 1 4 0 2 0 0 1 5
p32
aVAntonio Daniels WAS 04/22/2007 WAS @ CLE L 46 9 3 7 42.9 0 2 0.0 3 4 75.0 1 6 7 11 1 0 2 2 -15
p33
aVDarius Songaila WAS 04/22/2007 WAS @ CLE L 17 8 3 5 60.0 0 1 0.0 2 2 100.0 0 1 1 1 0 0 1 6 -14
p34
aVJarvis Hayes WAS 04/22/2007 WAS @ CLE L 40 18 6 15 40.0 2 5 40.0 4 5 80.0 1 1 2 2 0 0 0 3 -11
p35
aVRoger Mason Jr. WAS 04/22/2007 WAS @ CLE L 9 6 2 3 66.7 1 1 100.0 1 1 100.0 0 0 0 0 1 0 2 2 1
p36
aVDeShawn Stevenson WAS 04/22/2007 WAS @ CLE L 36 9 3 12 25.0 2 4 50.0 1 2 50.0 0 3 3 1 0 2 2 0 -14
p37
aVBrendan Haywood WAS 04/22/2007 WAS @ CLE L 5 0 0 1 0.0 0 0 - 0 0 - 0 1 1 0 0 0 0 2 -3
p38
aVAndray Blatche WAS 04/22/2007 WAS @ CLE L 4 2 1 2 50.0 0 0 - 0 0 - 1 1 2 0 0 0 0 1 2
p39
aVDonell Taylor WAS 04/22/2007 WAS @ CLE L 2 0 0 2 0.0 0 0 - 0 0 - 0 1 1 0 0 0 0 0 0
p40
aVEtan Thomas WAS 04/22/2007 WAS @ CLE L 21 2 1 4 25.0 0 0 - 0 0 - 0 5 5 0 0 1 3 4 -10
p41
a.