(lp0
VPLAYER TEAM DATE MATCHUP W/L MIN PTS FGM FGA FG% 3PM 3PA 3P% FTM FTA FT% OREB DREB REB AST STL BLK TOV PF +/-
p1
aVDevean George DAL 05/03/2007 DAL @ GSW L 11 0 0 3 0.0 0 2 0.0 0 0 - 0 4 4 0 1 1 0 1 2
p2
aVGreg Buckner DAL 05/03/2007 DAL @ GSW L 3 0 0 1 0.0 0 1 0.0 0 0 - 0 0 0 1 0 0 0 0 1
p3
aVJosh Howard DAL 05/03/2007 DAL @ GSW L 41 20 8 19 42.1 3 7 42.9 1 2 50.0 2 4 6 2 1 0 2 4 -22
p4
aVJerry Stackhouse DAL 05/03/2007 DAL @ GSW L 27 20 7 15 46.7 4 9 44.4 2 2 100.0 1 3 4 2 1 0 3 3 -7
p5
aVMaurice Ager DAL 05/03/2007 DAL @ GSW L 12 10 3 4 75.0 2 2 100.0 2 2 100.0 0 0 0 0 0 0 0 2 -2
p6
aVAustin Croshere DAL 05/03/2007 DAL @ GSW L 10 0 0 3 0.0 0 0 - 0 0 - 1 1 2 0 0 0 1 3 -13
p7
aVDeSagana Diop DAL 05/03/2007 DAL @ GSW L 29 2 1 2 50.0 0 0 - 0 0 - 4 4 8 0 0 1 1 2 -15
p8
aVDirk Nowitzki DAL 05/03/2007 DAL @ GSW L 39 8 2 13 15.4 0 6 0.0 4 4 100.0 2 8 10 2 1 0 3 2 -25
p9
aVJason Terry DAL 05/03/2007 DAL @ GSW L 35 13 6 14 42.9 1 6 16.7 0 0 - 0 2 2 4 0 0 5 4 -30
p10
aVDevin Harris DAL 05/03/2007 DAL @ GSW L 33 13 5 11 45.5 2 4 50.0 1 3 33.3 0 2 2 9 0 0 0 5 -14
p11
aVErick Dampier DAL 05/01/2007 DAL vs. GSW W 7 0 0 0 - 0 0 - 0 0 - 2 2 4 0 0 0 1 1 -2
p12
aVDevean George DAL 05/01/2007 DAL vs. GSW W 15 3 1 2 50.0 1 1 100.0 0 0 - 0 2 2 2 2 0 0 2 1
p13
aVGreg Buckner DAL 05/01/2007 DAL vs. GSW W 1 0 0 0 - 0 0 - 0 0 - 0 0 0 0 0 0 0 0 -2
p14
aVJason Terry DAL 05/01/2007 DAL vs. GSW W 40 11 4 11 36.4 1 1 100.0 2 2 100.0 0 3 3 3 0 0 3 2 4
p15
aVJerry Stackhouse DAL 05/01/2007 DAL vs. GSW W 31 15 4 13 30.8 2 6 33.3 5 6 83.3 1 2 3 1 0 0 3 1 4
p16
aVDeSagana Diop DAL 05/01/2007 DAL vs. GSW W 23 11 5 5 100.0 0 0 - 1 3 33.3 2 5 7 1 1 1 1 3 -8
p17
aVDirk Nowitzki DAL 05/01/2007 DAL vs. GSW W 40 30 7 15 46.7 2 3 66.7 14 15 93.3 4 8 12 3 0 1 2 4 14
p18
aVJosh Howard DAL 05/01/2007 DAL vs. GSW W 40 23 10 16 62.5 0 2 0.0 3 6 50.0 1 7 8 5 3 0 3 5 15
p19
aVAustin Croshere DAL 05/01/2007 DAL vs. GSW W 12 9 3 6 50.0 3 4 75.0 0 0 - 1 1 2 0 0 0 0 1 -5
p20
aVDevin Harris DAL 05/01/2007 DAL vs. GSW W 32 16 6 11 54.5 1 4 25.0 3 4 75.0 0 3 3 7 1 0 1 4 14
p21
aVDeSagana Diop DAL 04/29/2007 DAL @ GSW L 28 2 1 3 33.3 0 0 - 0 0 - 3 10 13 0 0 4 1 5 0
p22
aVJason Terry DAL 04/29/2007 DAL @ GSW L 42 19 7 19 36.8 3 8 37.5 2 4 50.0 1 3 4 5 0 0 3 3 -2
p23
aVDevean George DAL 04/29/2007 DAL @ GSW L 14 0 0 3 0.0 0 2 0.0 0 0 - 0 0 0 0 0 0 1 3 -2
p24
aVGreg Buckner DAL 04/29/2007 DAL @ GSW L 5 1 0 4 0.0 0 1 0.0 1 2 50.0 1 0 1 0 1 0 0 1 -9
p25
aVJosh Howard DAL 04/29/2007 DAL @ GSW L 46 22 9 13 69.2 1 1 100.0 3 3 100.0 4 8 12 4 0 2 1 4 -2
p26
aVDirk Nowitzki DAL 04/29/2007 DAL @ GSW L 47 23 9 19 47.4 2 5 40.0 3 4 75.0 6 9 15 3 4 1 3 5 3
p27
aVDevin Harris DAL 04/29/2007 DAL @ GSW L 20 8 3 5 60.0 0 0 - 2 3 66.7 0 1 1 3 1 0 3 5 0
p28
aVErick Dampier DAL 04/29/2007 DAL @ GSW L 1 0 0 0 - 0 0 - 0 0 - 0 0 0 0 0 0 0 0 -1
p29
aVJerry Stackhouse DAL 04/29/2007 DAL @ GSW L 36 24 6 14 42.9 3 8 37.5 9 10 90.0 0 3 3 3 0 1 4 2 -7
p30
aVDirk Nowitzki DAL 04/27/2007 DAL @ GSW L 38 20 7 16 43.8 0 1 0.0 6 8 75.0 6 6 12 2 3 1 4 5 -13
p31
aVJ.J. Barea DAL 04/27/2007 DAL @ GSW L 2 0 0 0 - 0 0 - 0 2 0.0 0 0 0 0 0 0 0 0 4
p32
aVJosh Howard DAL 04/27/2007 DAL @ GSW L 37 20 8 17 47.1 0 1 0.0 4 7 57.1 1 8 9 1 1 0 1 2 -14
p33
aVDevean George DAL 04/27/2007 DAL @ GSW L 18 5 1 4 25.0 0 0 - 3 4 75.0 1 2 3 1 2 0 2 2 -3
p34
aVDevin Harris DAL 04/27/2007 DAL @ GSW L 23 8 4 11 36.4 0 0 - 0 0 - 1 1 2 5 1 0 1 4 -22
p35
aVMaurice Ager DAL 04/27/2007 DAL @ GSW L 11 5 2 4 50.0 0 1 0.0 1 4 25.0 1 2 3 0 0 0 0 1 4
p36
aVJason Terry DAL 04/27/2007 DAL @ GSW L 34 14 4 11 36.4 2 6 33.3 4 4 100.0 0 0 0 5 1 1 3 1 -15
p37
aVAustin Croshere DAL 04/27/2007 DAL @ GSW L 12 6 1 3 33.3 0 0 - 4 4 100.0 1 1 2 0 0 0 1 1 -1
p38
aVDeSagana Diop DAL 04/27/2007 DAL @ GSW L 17 0 0 1 0.0 0 0 - 0 0 - 0 1 1 0 0 1 1 3 -13
p39
aVJerry Stackhouse DAL 04/27/2007 DAL @ GSW L 24 10 3 9 33.3 2 4 50.0 2 2 100.0 1 2 3 2 1 0 1 0 -16
p40
aVGreg Buckner DAL 04/27/2007 DAL @ GSW L 12 0 0 2 0.0 0 2 0.0 0 0 - 0 1 1 0 0 0 0 3 5
p41
aVErick Dampier DAL 04/27/2007 DAL @ GSW L 13 3 1 2 50.0 0 0 - 1 2 50.0 5 3 8 0 0 0 2 3 -6
p42
aVGreg Buckner DAL 04/25/2007 DAL vs. GSW W 10 0 0 0 - 0 0 - 0 0 - 0 1 1 0 1 1 1 3 -3
p43
aVDevean George DAL 04/25/2007 DAL vs. GSW W 20 3 0 5 0.0 0 2 0.0 3 4 75.0 3 1 4 0 0 1 2 0 0
p44
aVMaurice Ager DAL 04/25/2007 DAL vs. GSW W 2 0 0 1 0.0 0 0 - 0 0 - 0 0 0 0 0 0 0 0 -3
p45
aVJason Terry DAL 04/25/2007 DAL vs. GSW W 41 28 12 23 52.2 1 7 14.3 3 3 100.0 0 1 1 2 3 1 3 0 14
p46
aVJosh Howard DAL 04/25/2007 DAL vs. GSW W 41 22 8 13 61.5 0 3 0.0 6 7 85.7 3 8 11 3 5 2 3 4 14
p47
aVDevin Harris DAL 04/25/2007 DAL vs. GSW W 19 15 5 7 71.4 0 0 - 5 5 100.0 0 1 1 4 1 1 3 5 1
p48
aVJ.J. Barea DAL 04/25/2007 DAL vs. GSW W 2 0 0 0 - 0 0 - 0 0 - 0 0 0 0 0 0 0 0 -3
p49
aVJerry Stackhouse DAL 04/25/2007 DAL vs. GSW W 30 17 3 9 33.3 0 2 0.0 11 13 84.6 2 6 8 4 1 0 2 1 19
p50
aVDirk Nowitzki DAL 04/25/2007 DAL vs. GSW W 36 23 7 15 46.7 0 2 0.0 9 11 81.8 2 5 7 0 1 2 0 2 13
p51
aVDeSagana Diop DAL 04/25/2007 DAL vs. GSW W 27 2 1 2 50.0 0 0 - 0 0 - 2 4 6 1 2 1 0 3 26
p52
aVErick Dampier DAL 04/25/2007 DAL vs. GSW W 14 2 1 1 100.0 0 0 - 0 0 - 0 2 2 1 0 0 1 5 -13
p53
aVDirk Nowitzki DAL 04/22/2007 DAL vs. GSW L 39 14 4 16 25.0 0 2 0.0 6 8 75.0 5 7 12 4 2 3 2 2 -17
p54
aVErick Dampier DAL 04/22/2007 DAL vs. GSW L 2 0 0 0 - 0 0 - 0 0 - 2 1 3 0 0 0 0 0 0
p55
aVDeSagana Diop DAL 04/22/2007 DAL vs. GSW L 16 4 1 2 50.0 0 0 - 2 4 50.0 5 1 6 0 0 2 0 5 6
p56
aVDevean George DAL 04/22/2007 DAL vs. GSW L 31 10 3 8 37.5 2 5 40.0 2 2 100.0 0 5 5 1 1 0 2 4 -12
p57
aVJosh Howard DAL 04/22/2007 DAL vs. GSW L 43 21 8 21 38.1 3 4 75.0 2 2 100.0 4 9 13 2 3 1 2 3 1
p58
aVGreg Buckner DAL 04/22/2007 DAL vs. GSW L 13 0 0 0 - 0 0 - 0 0 - 1 2 3 1 0 0 1 0 -10
p59
aVJerry Stackhouse DAL 04/22/2007 DAL vs. GSW L 20 0 0 6 0.0 0 2 0.0 0 0 - 0 1 1 3 1 0 5 2 -19
p60
aVJason Terry DAL 04/22/2007 DAL vs. GSW L 37 17 6 14 42.9 1 4 25.0 4 5 80.0 2 2 4 3 1 0 0 2 -1
p61
aVDevin Harris DAL 04/22/2007 DAL vs. GSW L 37 19 8 18 44.4 0 2 0.0 3 4 75.0 0 3 3 2 2 0 1 0 -8
p62
a.