(lp0
VPLAYER TEAM DATE MATCHUP W/L MIN PTS FGM FGA FG% 3PM 3PA 3P% FTM FTA FT% OREB DREB REB AST STL BLK TOV PF +/-
p1
aVJason Maxiell DET 06/02/2007 DET @ CLE L 1 0 0 0 - 0 0 - 0 0 - 0 0 0 0 0 0 0 0 -1
p2
aVChauncey Billups DET 06/02/2007 DET @ CLE L 44 9 3 7 42.9 1 3 33.3 2 3 66.7 0 0 0 1 2 1 0 1 -11
p3
aVLindsey Hunter DET 06/02/2007 DET @ CLE L 17 4 1 4 25.0 1 4 25.0 1 1 100.0 1 1 2 1 0 0 2 3 -15
p4
aVRichard Hamilton DET 06/02/2007 DET @ CLE L 36 29 10 20 50.0 1 1 100.0 8 8 100.0 0 4 4 3 3 0 4 6 -4
p5
aVChris Webber DET 06/02/2007 DET @ CLE L 26 13 5 8 62.5 0 0 - 3 3 100.0 2 4 6 0 0 0 1 4 -10
p6
aVRasheed Wallace DET 06/02/2007 DET @ CLE L 30 11 5 14 35.7 0 2 0.0 1 1 100.0 1 1 2 2 3 2 1 6 -4
p7
aVTayshaun Prince DET 06/02/2007 DET @ CLE L 40 5 1 10 10.0 0 2 0.0 3 4 75.0 0 6 6 6 2 1 1 4 -3
p8
aVAntonio McDyess DET 06/02/2007 DET @ CLE L 25 7 2 8 25.0 0 0 - 3 5 60.0 2 4 6 1 1 1 1 4 -14
p9
aVNazr Mohammed DET 06/02/2007 DET @ CLE L 1 0 0 1 0.0 0 0 - 0 0 - 0 1 1 0 0 0 0 1 -2
p10
aVDale Davis DET 06/02/2007 DET @ CLE L 6 0 0 0 - 0 0 - 0 0 - 2 0 2 0 0 0 1 1 0
p11
aVRonald Murray DET 06/02/2007 DET @ CLE L 10 4 1 4 25.0 0 1 0.0 2 2 100.0 1 2 3 2 0 0 0 1 -6
p12
aVCarlos Delfino DET 06/02/2007 DET @ CLE L 4 0 0 2 0.0 0 1 0.0 0 0 - 1 0 1 0 0 0 1 1 -10
p13
aVLindsey Hunter DET 05/31/2007 DET vs. CLE L 14 2 1 5 20.0 0 1 0.0 0 0 - 1 3 4 2 1 1 0 1 -10
p14
aVChris Webber DET 05/31/2007 DET vs. CLE L 30 20 9 13 69.2 0 0 - 2 4 50.0 4 3 7 0 1 1 2 5 15
p15
aVRasheed Wallace DET 05/31/2007 DET vs. CLE L 46 17 4 13 30.8 0 2 0.0 9 10 90.0 1 7 8 2 1 2 0 4 0
p16
aVJason Maxiell DET 05/31/2007 DET vs. CLE L 28 9 2 2 100.0 0 0 - 5 6 83.3 1 4 5 0 1 2 1 3 -10
p17
aVDale Davis DET 05/31/2007 DET vs. CLE L 8 0 0 0 - 0 0 - 0 0 - 1 1 2 0 1 0 0 2 -8
p18
aVAntonio McDyess DET 05/31/2007 DET vs. CLE L 4 2 1 2 50.0 0 0 - 0 0 - 0 1 1 0 0 0 0 1 1
p19
aVChauncey Billups DET 05/31/2007 DET vs. CLE L 53 21 6 13 46.2 3 7 42.9 6 9 66.7 0 7 7 4 0 0 1 2 5
p20
aVTayshaun Prince DET 05/31/2007 DET vs. CLE L 50 10 4 13 30.8 1 2 50.0 1 2 50.0 4 5 9 3 1 0 4 4 4
p21
aVRichard Hamilton DET 05/31/2007 DET vs. CLE L 49 26 7 18 38.9 0 1 0.0 12 12 100.0 0 2 2 5 0 1 4 5 -1
p22
aVCarlos Delfino DET 05/31/2007 DET vs. CLE L 8 0 0 1 0.0 0 1 0.0 0 0 - 0 0 0 2 1 0 1 0 -6
p23
aVRichard Hamilton DET 05/29/2007 DET @ CLE L 37 19 9 21 42.9 0 0 - 1 2 50.0 4 4 8 2 0 0 0 3 -9
p24
aVCarlos Delfino DET 05/29/2007 DET @ CLE L 2 0 0 1 0.0 0 1 0.0 0 0 - 0 0 0 0 0 0 0 1 -3
p25
aVChauncey Billups DET 05/29/2007 DET @ CLE L 45 23 6 16 37.5 2 9 22.2 9 10 90.0 2 7 9 2 1 0 5 3 2
p26
aVLindsey Hunter DET 05/29/2007 DET @ CLE L 7 3 1 1 100.0 1 1 100.0 0 0 - 0 1 1 2 0 0 0 3 3
p27
aVAntonio McDyess DET 05/29/2007 DET @ CLE L 24 12 5 9 55.6 0 0 - 2 3 66.7 3 2 5 3 0 2 0 3 2
p28
aVTayshaun Prince DET 05/29/2007 DET @ CLE L 46 15 4 11 36.4 0 2 0.0 7 8 87.5 1 6 7 4 1 0 4 3 -1
p29
aVRonald Murray DET 05/29/2007 DET @ CLE L 7 0 0 1 0.0 0 0 - 0 0 - 0 1 1 1 0 0 1 0 -4
p30
aVRasheed Wallace DET 05/29/2007 DET @ CLE L 41 9 4 10 40.0 0 4 0.0 1 2 50.0 0 5 5 1 3 3 1 4 -1
p31
aVJason Maxiell DET 05/29/2007 DET @ CLE L 11 4 1 2 50.0 0 0 - 2 2 100.0 0 1 1 0 0 1 0 2 -11
p32
aVChris Webber DET 05/29/2007 DET @ CLE L 20 2 1 3 33.3 0 0 - 0 2 0.0 0 3 3 1 2 0 1 2 2
p33
aVCarlos Delfino DET 05/27/2007 DET @ CLE L 4 2 1 1 100.0 0 0 - 0 0 - 0 0 0 0 0 0 0 0 -3
p34
aVAntonio McDyess DET 05/27/2007 DET @ CLE L 29 8 4 7 57.1 0 0 - 0 0 - 1 8 9 1 0 1 1 5 1
p35
aVRonald Murray DET 05/27/2007 DET @ CLE L 20 8 3 4 75.0 0 0 - 2 2 100.0 0 2 2 3 0 0 1 1 10
p36
aVJason Maxiell DET 05/27/2007 DET @ CLE L 3 0 0 1 0.0 0 0 - 0 0 - 0 1 1 0 0 0 0 0 -4
p37
aVRasheed Wallace DET 05/27/2007 DET @ CLE L 37 16 5 11 45.5 2 4 50.0 4 5 80.0 0 5 5 2 1 0 1 3 -5
p38
aVTayshaun Prince DET 05/27/2007 DET @ CLE L 44 13 6 13 46.2 1 2 50.0 0 0 - 4 1 5 1 1 0 3 2 -3
p39
aVRichard Hamilton DET 05/27/2007 DET @ CLE L 38 7 2 8 25.0 0 1 0.0 3 3 100.0 1 3 4 2 1 0 2 4 -17
p40
aVChris Webber DET 05/27/2007 DET @ CLE L 28 15 5 8 62.5 0 0 - 5 6 83.3 2 5 7 3 1 0 2 4 -4
p41
aVChauncey Billups DET 05/27/2007 DET @ CLE L 38 13 4 14 28.6 2 8 25.0 3 4 75.0 0 1 1 3 2 0 5 1 -5
p42
aVRonald Murray DET 05/24/2007 DET vs. CLE W 7 2 1 2 50.0 0 0 - 0 0 - 0 0 0 0 0 0 0 0 -5
p43
aVTayshaun Prince DET 05/24/2007 DET vs. CLE W 41 1 0 8 0.0 0 0 - 1 2 50.0 1 3 4 4 0 0 1 1 14
p44
aVChris Webber DET 05/24/2007 DET vs. CLE W 24 9 4 13 30.8 0 0 - 1 2 50.0 3 4 7 5 2 1 2 2 13
p45
aVLindsey Hunter DET 05/24/2007 DET vs. CLE W 5 0 0 0 - 0 0 - 0 0 - 0 0 0 0 0 0 2 0 -6
p46
aVChauncey Billups DET 05/24/2007 DET vs. CLE W 43 13 4 7 57.1 2 2 100.0 3 3 100.0 0 1 1 6 0 0 5 1 11
p47
aVRasheed Wallace DET 05/24/2007 DET vs. CLE W 33 16 7 10 70.0 1 3 33.3 1 2 50.0 2 9 11 3 2 2 2 4 6
p48
aVJason Maxiell DET 05/24/2007 DET vs. CLE W 22 15 7 9 77.8 0 0 - 1 6 16.7 2 4 6 0 1 2 1 2 -8
p49
aVCarlos Delfino DET 05/24/2007 DET vs. CLE W 11 6 2 4 50.0 2 3 66.7 0 0 - 0 2 2 1 0 0 0 1 -12
p50
aVAntonio McDyess DET 05/24/2007 DET vs. CLE W 16 4 2 5 40.0 0 0 - 0 0 - 2 2 4 1 0 1 2 1 -7
p51
aVRichard Hamilton DET 05/24/2007 DET vs. CLE W 37 13 5 14 35.7 1 3 33.3 2 4 50.0 1 1 2 3 2 0 3 4 9
p52
aVCarlos Delfino DET 05/21/2007 DET vs. CLE W 5 0 0 0 - 0 0 - 0 0 - 2 0 2 0 0 0 1 2 -4
p53
aVJason Maxiell DET 05/21/2007 DET vs. CLE W 13 0 0 0 - 0 0 - 0 0 - 1 0 1 1 0 1 0 2 4
p54
aVLindsey Hunter DET 05/21/2007 DET vs. CLE W 14 2 0 1 0.0 0 1 0.0 2 2 100.0 0 1 1 0 1 0 1 1 -2
p55
aVTayshaun Prince DET 05/21/2007 DET vs. CLE W 43 8 1 11 9.1 0 4 0.0 6 6 100.0 2 4 6 9 0 0 3 1 7
p56
aVChauncey Billups DET 05/21/2007 DET vs. CLE W 39 13 4 6 66.7 2 4 50.0 3 4 75.0 1 4 5 5 0 0 7 2 5
p57
aVDale Davis DET 05/21/2007 DET vs. CLE W 5 5 2 4 50.0 0 0 - 1 2 50.0 1 2 3 0 0 0 0 1 2
p58
aVAntonio McDyess DET 05/21/2007 DET vs. CLE W 19 2 1 5 20.0 0 0 - 0 0 - 1 3 4 1 0 2 0 2 -8
p59
aVRasheed Wallace DET 05/21/2007 DET vs. CLE W 40 15 7 13 53.8 1 2 50.0 0 0 - 1 11 12 2 0 7 1 2 6
p60
aVChris Webber DET 05/21/2007 DET vs. CLE W 19 10 5 11 45.5 0 0 - 0 3 0.0 1 3 4 0 0 0 2 3 1
p61
aVRichard Hamilton DET 05/21/2007 DET vs. CLE W 43 24 11 21 52.4 2 3 66.7 0 0 - 1 2 3 7 2 0 1 1 4
p62
aVTayshaun Prince DET 05/17/2007 DET @ CHI W 45 17 8 15 53.3 1 2 50.0 0 1 0.0 1 8 9 3 0 1 0 2 16
p63
aVChris Webber DET 05/17/2007 DET @ CHI W 23 5 2 6 33.3 0 0 - 1 2 50.0 4 5 9 1 0 1 0 3 8
p64
aVAntonio McDyess DET 05/17/2007 DET @ CHI W 25 5 1 5 20.0 0 0 - 3 4 75.0 3 7 10 0 1 0 1 4 0
p65
aVChauncey Billups DET 05/17/2007 DET @ CHI W 42 21 3 12 25.0 1 5 20.0 14 14 100.0 0 2 2 7 2 0 0 3 10
p66
aVJason Maxiell DET 05/17/2007 DET @ CHI W 8 1 0 0 - 0 0 - 1 2 50.0 1 0 1 0 0 0 1 2 -3
p67
aVCarlos Delfino DET 05/17/2007 DET @ CHI W 2 0 0 1 0.0 0 0 - 0 0 - 0 1 1 0 0 0 0 0 -4
p68
aVLindsey Hunter DET 05/17/2007 DET @ CHI W 13 7 2 5 40.0 1 2 50.0 2 2 100.0 0 0 0 0 0 0 1 3 3
p69
aVRasheed Wallace DET 05/17/2007 DET @ CHI W 39 16 7 14 50.0 2 8 25.0 0 1 0.0 3 10 13 4 0 2 5 5 12
p70
aVRichard Hamilton DET 05/17/2007 DET @ CHI W 43 23 9 18 50.0 0 1 0.0 5 5 100.0 2 1 3 2 1 1 1 3 8
p71
aVCarlos Delfino DET 05/15/2007 DET vs. CHI L 10 2 1 2 50.0 0 1 0.0 0 0 - 0 2 2 0 0 0 1 0 -2
p72
aVLindsey Hunter DET 05/15/2007 DET vs. CHI L 11 0 0 3 0.0 0 2 0.0 0 0 - 0 1 1 0 0 0 1 3 1
p73
aVRichard Hamilton DET 05/15/2007 DET vs. CHI L 36 16 5 14 35.7 0 1 0.0 6 8 75.0 6 0 6 5 0 0 1 4 -30
p74
aVNazr Mohammed DET 05/15/2007 DET vs. CHI L 4 5 1 1 100.0 0 0 - 3 3 100.0 1 1 2 0 0 0 0 0 7
p75
aVRonald Murray DET 05/15/2007 DET vs. CHI L 19 0 0 2 0.0 0 0 - 0 0 - 1 0 1 1 0 1 3 0 -4
p76
aVAntonio McDyess DET 05/15/2007 DET vs. CHI L 15 12 5 9 55.6 0 1 0.0 2 2 100.0 1 2 3 0 1 0 3 0 -10
p77
aVRasheed Wallace DET 05/15/2007 DET vs. CHI L 34 15 6 15 40.0 1 3 33.3 2 2 100.0 2 3 5 1 2 0 0 3 -16
p78
aVTayshaun Prince DET 05/15/2007 DET vs. CHI L 37 11 5 11 45.5 1 3 33.3 0 0 - 1 2 3 3 2 0 2 1 -13
p79
aVChauncey Billups DET 05/15/2007 DET vs. CHI L 34 17 5 12 41.7 3 7 42.9 4 4 100.0 0 3 3 6 2 0 1 4 -2
p80
aVJason Maxiell DET 05/15/2007 DET vs. CHI L 15 5 2 3 66.7 0 0 - 1 2 50.0 2 1 3 1 0 0 0 2 11
p81
aVChris Webber DET 05/15/2007 DET vs. CHI L 24 9 3 6 50.0 0 1 0.0 3 4 75.0 2 6 8 0 0 0 1 2 -22
p82
aVAntonio McDyess DET 05/13/2007 DET @ CHI L 29 5 2 6 33.3 0 0 - 1 1 100.0 2 6 8 1 2 1 1 6 -4
p83
aVRasheed Wallace DET 05/13/2007 DET @ CHI L 43 14 4 16 25.0 2 12 16.7 4 4 100.0 2 5 7 1 2 0 4 4 -11
p84
aVRonald Murray DET 05/13/2007 DET @ CHI L 23 10 5 11 45.5 0 1 0.0 0 1 0.0 0 1 1 2 0 0 1 2 -7
p85
aVChris Webber DET 05/13/2007 DET @ CHI L 17 0 0 3 0.0 0 0 - 0 0 - 0 1 1 1 0 1 1 2 -16
p86
aVRichard Hamilton DET 05/13/2007 DET @ CHI L 33 11 4 12 33.3 0 0 - 3 5 60.0 4 2 6 5 0 0 2 6 -17
p87
aVTayshaun Prince DET 05/13/2007 DET @ CHI L 43 18 8 16 50.0 2 5 40.0 0 2 0.0 1 6 7 4 3 0 1 3 -12
p88
aVJason Maxiell DET 05/13/2007 DET @ CHI L 6 2 1 2 50.0 0 0 - 0 0 - 0 0 0 0 0 0 0 0 5
p89
aVChauncey Billups DET 05/13/2007 DET @ CHI L 35 23 5 14 35.7 2 6 33.3 11 14 78.6 2 1 3 8 1 0 2 6 -4
p90
aVCarlos Delfino DET 05/13/2007 DET @ CHI L 5 2 1 1 100.0 0 0 - 0 0 - 0 0 0 1 0 0 0 0 -4
p91
aVLindsey Hunter DET 05/13/2007 DET @ CHI L 6 2 1 2 50.0 0 1 0.0 0 0 - 0 0 0 0 1 0 0 1 -5
p92
aVChauncey Billups DET 05/10/2007 DET @ CHI W 42 21 7 17 41.2 3 8 37.5 4 6 66.7 0 4 4 7 2 0 3 0 11
p93
aVCarlos Delfino DET 05/10/2007 DET @ CHI W 5 0 0 1 0.0 0 0 - 0 0 - 0 0 0 0 1 0 0 2 -10
p94
aVLindsey Hunter DET 05/10/2007 DET @ CHI W 6 0 0 2 0.0 0 1 0.0 0 0 - 0 0 0 1 0 0 1 0 -4
p95
aVRonald Murray DET 05/10/2007 DET @ CHI W 3 0 0 0 - 0 0 - 0 0 - 0 0 0 0 0 0 0 1 0
p96
aVRasheed Wallace DET 05/10/2007 DET @ CHI W 40 16 7 18 38.9 2 7 28.6 0 0 - 2 9 11 2 1 5 1 4 19
p97
aVChris Webber DET 05/10/2007 DET @ CHI W 24 0 0 5 0.0 0 0 - 0 2 0.0 1 2 3 2 1 1 2 2 -17
p98
aVTayshaun Prince DET 05/10/2007 DET @ CHI W 43 23 9 16 56.3 1 2 50.0 4 5 80.0 2 9 11 2 0 1 0 0 17
p99
aVAntonio McDyess DET 05/10/2007 DET @ CHI W 30 3 1 5 20.0 0 0 - 1 2 50.0 4 5 9 3 1 1 0 4 16
p100
aVRichard Hamilton DET 05/10/2007 DET @ CHI W 45 16 7 15 46.7 0 2 0.0 2 2 100.0 1 4 5 3 1 0 1 5 7
p101
aVJason Maxiell DET 05/10/2007 DET @ CHI W 3 2 1 2 50.0 0 1 0.0 0 0 - 0 0 0 0 0 2 0 1 -4
p102
aVChauncey Billups DET 05/07/2007 DET vs. CHI W 39 14 4 11 36.4 3 6 50.0 3 4 75.0 1 0 1 10 0 0 2 2 32
p103
aVCarlos Delfino DET 05/07/2007 DET vs. CHI W 17 1 0 3 0.0 0 1 0.0 1 2 50.0 1 2 3 2 0 0 1 1 0
p104
aVLindsey Hunter DET 05/07/2007 DET vs. CHI W 11 3 1 3 33.3 1 2 50.0 0 0 - 0 0 0 1 0 0 0 3 -8
p105
aVJason Maxiell DET 05/07/2007 DET vs. CHI W 15 4 2 5 40.0 0 0 - 0 2 0.0 2 6 8 0 1 0 2 5 9
p106
aVAntonio McDyess DET 05/07/2007 DET vs. CHI W 24 5 2 5 40.0 0 0 - 1 1 100.0 3 4 7 0 1 0 3 5 -5
p107
aVChris Webber DET 05/07/2007 DET vs. CHI W 27 22 10 11 90.9 0 0 - 2 3 66.7 3 4 7 3 1 1 3 5 8
p108
aVRichard Hamilton DET 05/07/2007 DET vs. CHI W 41 24 9 16 56.3 2 2 100.0 4 4 100.0 4 5 9 6 0 0 5 4 21
p109
aVRasheed Wallace DET 05/07/2007 DET vs. CHI W 18 10 4 4 100.0 1 1 100.0 1 1 100.0 0 7 7 1 0 0 3 6 25
p110
aVTayshaun Prince DET 05/07/2007 DET vs. CHI W 41 25 9 20 45.0 3 7 42.9 4 6 66.7 1 6 7 2 1 0 2 3 17
p111
aVDale Davis DET 05/07/2007 DET vs. CHI W 5 0 0 0 - 0 0 - 0 0 - 0 2 2 0 0 0 0 2 2
p112
aVRonald Murray DET 05/07/2007 DET vs. CHI W 2 0 0 0 - 0 0 - 0 0 - 0 0 0 0 0 0 0 0 4
p113
aVChris Webber DET 05/05/2007 DET vs. CHI W 20 5 1 3 33.3 0 0 - 3 4 75.0 3 4 7 0 2 0 4 4 2
p114
aVRonald Murray DET 05/05/2007 DET vs. CHI W 8 0 0 1 0.0 0 0 - 0 0 - 0 0 0 2 0 0 0 1 3
p115
aVRasheed Wallace DET 05/05/2007 DET vs. CHI W 35 13 4 10 40.0 3 5 60.0 2 2 100.0 0 6 6 1 2 1 0 3 22
p116
aVJason Maxiell DET 05/05/2007 DET vs. CHI W 17 12 5 6 83.3 0 0 - 2 3 66.7 2 4 6 0 1 0 2 2 8
p117
aVDale Davis DET 05/05/2007 DET vs. CHI W 3 0 0 0 - 0 0 - 0 0 - 0 1 1 0 0 0 0 1 1
p118
aVCarlos Delfino DET 05/05/2007 DET vs. CHI W 12 6 3 6 50.0 0 3 0.0 0 0 - 1 1 2 0 0 1 1 1 -1
p119
aVLindsey Hunter DET 05/05/2007 DET vs. CHI W 20 0 0 3 0.0 0 1 0.0 0 0 - 0 1 1 6 3 0 1 3 21
p120
aVAntonio McDyess DET 05/05/2007 DET vs. CHI W 21 6 3 8 37.5 0 0 - 0 0 - 4 6 10 2 0 2 1 5 19
p121
aVRichard Hamilton DET 05/05/2007 DET vs. CHI W 40 20 8 18 44.4 1 1 100.0 3 3 100.0 2 2 4 5 1 0 1 2 25
p122
aVTayshaun Prince DET 05/05/2007 DET vs. CHI W 38 13 5 13 38.5 1 3 33.3 2 2 100.0 2 6 8 4 1 0 1 0 25
p123
aVChauncey Billups DET 05/05/2007 DET vs. CHI W 28 20 7 14 50.0 3 5 60.0 3 4 75.0 0 1 1 4 2 0 4 3 5
p124
aVDale Davis DET 04/28/2007 DET @ ORL W 5 0 0 0 - 0 0 - 0 0 - 0 1 1 0 1 1 1 4 -3
p125
aVRichard Hamilton DET 04/28/2007 DET @ ORL W 34 19 6 13 46.2 1 2 50.0 6 6 100.0 0 1 1 0 1 0 4 2 2
p126
aVAntonio McDyess DET 04/28/2007 DET @ ORL W 20 4 2 10 20.0 0 0 - 0 0 - 3 3 6 1 2 1 2 5 -12
p127
aVChris Webber DET 04/28/2007 DET @ ORL W 35 11 5 8 62.5 0 0 - 1 6 16.7 2 8 10 4 1 0 2 4 11
p128
aVCarlos Delfino DET 04/28/2007 DET @ ORL W 10 8 3 3 100.0 0 0 - 2 2 100.0 0 1 1 0 1 0 0 1 3
p129
aVRonald Murray DET 04/28/2007 DET @ ORL W 16 4 1 3 33.3 0 0 - 2 4 50.0 0 0 0 1 4 0 1 2 0
p130
aVTayshaun Prince DET 04/28/2007 DET @ ORL W 38 13 4 7 57.1 1 2 50.0 4 4 100.0 3 3 6 3 0 1 3 0 0
p131
aVRasheed Wallace DET 04/28/2007 DET @ ORL W 35 13 3 9 33.3 1 5 20.0 6 6 100.0 1 7 8 2 1 0 0 5 13
p132
aVChauncey Billups DET 04/28/2007 DET @ ORL W 46 25 6 12 50.0 3 6 50.0 10 10 100.0 1 3 4 6 0 0 2 3 6
p133
aVAntonio McDyess DET 04/26/2007 DET @ ORL W 21 4 2 5 40.0 0 0 - 0 0 - 3 8 11 2 0 2 0 3 16
p134
aVCarlos Delfino DET 04/26/2007 DET @ ORL W 11 0 0 2 0.0 0 2 0.0 0 0 - 0 3 3 0 1 0 0 0 0
p135
aVJason Maxiell DET 04/26/2007 DET @ ORL W 2 0 0 0 - 0 0 - 0 0 - 0 0 0 0 0 0 0 0 3
p136
aVChris Webber DET 04/26/2007 DET @ ORL W 28 15 7 13 53.8 0 0 - 1 2 50.0 2 5 7 0 1 2 0 3 2
p137
aVTayshaun Prince DET 04/26/2007 DET @ ORL W 43 23 8 16 50.0 3 5 60.0 4 4 100.0 1 6 7 5 3 0 2 0 13
p138
aVDale Davis DET 04/26/2007 DET @ ORL W 15 3 1 3 33.3 0 0 - 1 2 50.0 1 0 1 1 0 1 0 1 11
p139
aVChauncey Billups DET 04/26/2007 DET @ ORL W 38 21 8 13 61.5 2 3 66.7 3 6 50.0 0 6 6 3 2 0 3 1 16
p140
aVRichard Hamilton DET 04/26/2007 DET @ ORL W 39 10 2 11 18.2 0 0 - 6 7 85.7 3 2 5 2 1 0 2 4 19
p141
aVRonald Murray DET 04/26/2007 DET @ ORL W 13 2 0 2 0.0 0 0 - 2 2 100.0 0 1 1 2 0 0 1 3 0
p142
aVRasheed Wallace DET 04/26/2007 DET @ ORL W 30 15 6 13 46.2 3 3 100.0 0 0 - 2 4 6 0 0 1 0 4 0
p143
aVCarlos Delfino DET 04/23/2007 DET vs. ORL W 12 1 0 3 0.0 0 1 0.0 1 2 50.0 0 2 2 1 0 0 0 1 -11
p144
aVLindsey Hunter DET 04/23/2007 DET vs. ORL W 2 0 0 1 0.0 0 1 0.0 0 0 - 0 0 0 0 0 0 1 0 -7
p145
aVRichard Hamilton DET 04/23/2007 DET vs. ORL W 45 22 5 14 35.7 0 2 0.0 12 14 85.7 1 2 3 6 0 0 0 4 14
p146
aVRonald Murray DET 04/23/2007 DET vs. ORL W 8 0 0 1 0.0 0 0 - 0 0 - 0 0 0 0 0 0 0 1 -1
p147
aVChauncey Billups DET 04/23/2007 DET vs. ORL W 42 21 7 12 58.3 2 5 40.0 5 6 83.3 0 2 2 8 1 0 1 2 10
p148
aVTayshaun Prince DET 04/23/2007 DET vs. ORL W 36 18 7 13 53.8 3 3 100.0 1 2 50.0 3 3 6 1 0 0 1 4 19
p149
aVAntonio McDyess DET 04/23/2007 DET vs. ORL W 33 9 2 11 18.2 0 1 0.0 5 6 83.3 5 6 11 0 1 0 2 2 -3
p150
aVChris Webber DET 04/23/2007 DET vs. ORL W 26 10 4 8 50.0 0 0 - 2 3 66.7 6 3 9 3 2 1 1 4 6
p151
aVRasheed Wallace DET 04/23/2007 DET vs. ORL W 37 17 7 15 46.7 3 6 50.0 0 0 - 1 10 11 3 0 3 0 4 13
p152
aVChauncey Billups DET 04/21/2007 DET vs. ORL W 41 22 5 13 38.5 1 6 16.7 11 12 91.7 0 4 4 11 2 1 5 5 18
p153
aVChris Webber DET 04/21/2007 DET vs. ORL W 33 12 5 7 71.4 0 0 - 2 3 66.7 1 4 5 1 0 0 1 2 4
p154
aVJason Maxiell DET 04/21/2007 DET vs. ORL W 4 2 1 1 100.0 0 0 - 0 0 - 0 1 1 0 0 1 0 0 -6
p155
aVDale Davis DET 04/21/2007 DET vs. ORL W 4 0 0 1 0.0 0 0 - 0 0 - 0 0 0 0 0 0 0 2 -2
p156
aVTayshaun Prince DET 04/21/2007 DET vs. ORL W 37 12 4 7 57.1 0 0 - 4 6 66.7 0 2 2 6 0 1 2 2 8
p157
aVLindsey Hunter DET 04/21/2007 DET vs. ORL W 7 0 0 1 0.0 0 1 0.0 0 0 - 0 0 0 3 0 0 0 1 -10
p158
aVCarlos Delfino DET 04/21/2007 DET vs. ORL W 16 9 4 6 66.7 1 2 50.0 0 0 - 1 1 2 1 1 0 1 2 0
p159
aVRichard Hamilton DET 04/21/2007 DET vs. ORL W 43 22 9 19 47.4 0 0 - 4 6 66.7 2 2 4 4 1 0 0 3 8
p160
aVRasheed Wallace DET 04/21/2007 DET vs. ORL W 35 16 6 12 50.0 3 5 60.0 1 2 50.0 1 5 6 1 1 0 0 3 14
p161
aVAntonio McDyess DET 04/21/2007 DET vs. ORL W 20 5 2 6 33.3 0 0 - 1 2 50.0 4 5 9 2 1 1 0 5 6
p162
a.