(lp0
VPLAYER TEAM DATE MATCHUP W/L MIN PTS FGM FGA FG% 3PM 3PA 3P% FTM FTA FT% OREB DREB REB AST STL BLK TOV PF +/-
p1
aVAntonio McDyess DET 05/30/2008 DET vs. BOS L 36 6 2 3 66.7 0 0 - 2 2 100.0 0 6 6 1 0 0 1 4 3
p2
aVJason Maxiell DET 05/30/2008 DET vs. BOS L 16 7 3 4 75.0 0 0 - 1 2 50.0 0 1 1 0 2 1 0 2 -9
p3
aVArron Afflalo DET 05/30/2008 DET vs. BOS L 0 0 0 0 - 0 0 - 0 0 - 0 0 0 0 0 0 0 0 0
p4
aVRichard Hamilton DET 05/30/2008 DET vs. BOS L 39 21 9 14 64.3 2 4 50.0 1 1 100.0 1 1 2 4 0 2 3 3 -11
p5
aVChauncey Billups DET 05/30/2008 DET vs. BOS L 41 29 9 20 45.0 3 8 37.5 8 10 80.0 3 3 6 6 0 0 0 1 -9
p6
aVRodney Stuckey DET 05/30/2008 DET vs. BOS L 21 4 1 5 20.0 0 0 - 2 2 100.0 1 2 3 2 1 1 0 2 -3
p7
aVTayshaun Prince DET 05/30/2008 DET vs. BOS L 37 10 3 10 30.0 1 3 33.3 3 4 75.0 1 3 4 3 0 1 3 3 1
p8
aVLindsey Hunter DET 05/30/2008 DET vs. BOS L 6 0 0 0 - 0 0 - 0 0 - 0 1 1 0 0 0 2 0 -4
p9
aVTheo Ratliff DET 05/30/2008 DET vs. BOS L 10 0 0 1 0.0 0 0 - 0 0 - 2 1 3 1 0 1 1 2 7
p10
aVRasheed Wallace DET 05/30/2008 DET vs. BOS L 32 4 2 12 16.7 0 6 0.0 0 0 - 3 7 10 2 0 1 3 5 -15
p11
aVLindsey Hunter DET 05/28/2008 DET @ BOS L 11 0 0 1 0.0 0 1 0.0 0 0 - 0 0 0 2 1 0 0 4 8
p12
aVTheo Ratliff DET 05/28/2008 DET @ BOS L 14 2 1 1 100.0 0 0 - 0 2 0.0 1 1 2 0 0 1 0 1 -4
p13
aVJason Maxiell DET 05/28/2008 DET @ BOS L 11 6 2 4 50.0 0 0 - 2 4 50.0 0 1 1 0 0 0 0 3 8
p14
aVChauncey Billups DET 05/28/2008 DET @ BOS L 36 26 7 17 41.2 3 7 42.9 9 9 100.0 0 5 5 6 1 0 3 4 -13
p15
aVRasheed Wallace DET 05/28/2008 DET @ BOS L 39 18 6 12 50.0 6 9 66.7 0 0 - 1 3 4 0 1 3 0 5 -9
p16
aVAntonio McDyess DET 05/28/2008 DET @ BOS L 28 4 1 2 50.0 0 0 - 2 4 50.0 2 3 5 1 1 0 3 6 -7
p17
aVTayshaun Prince DET 05/28/2008 DET @ BOS L 33 8 3 7 42.9 0 0 - 2 2 100.0 0 4 4 5 0 1 2 2 -15
p18
aVRodney Stuckey DET 05/28/2008 DET @ BOS L 23 13 3 9 33.3 1 2 50.0 6 8 75.0 0 0 0 3 2 0 1 2 15
p19
aVRichard Hamilton DET 05/28/2008 DET @ BOS L 45 25 8 14 57.1 1 2 50.0 8 9 88.9 1 3 4 6 2 0 6 3 -3
p20
aVAntonio McDyess DET 05/26/2008 DET vs. BOS W 34 21 8 14 57.1 0 0 - 5 6 83.3 7 9 16 1 0 1 1 4 18
p21
aVArron Afflalo DET 05/26/2008 DET vs. BOS W 2 0 0 0 - 0 0 - 0 0 - 0 0 0 1 0 0 0 0 3
p22
aVJarvis Hayes DET 05/26/2008 DET vs. BOS W 4 3 1 2 50.0 1 2 50.0 0 0 - 0 0 0 0 0 1 0 2 3
p23
aVChauncey Billups DET 05/26/2008 DET vs. BOS W 32 10 3 12 25.0 1 3 33.3 3 5 60.0 0 0 0 7 2 0 0 3 15
p24
aVAmir Johnson DET 05/26/2008 DET vs. BOS W 1 0 0 0 - 0 0 - 0 0 - 0 2 2 0 0 1 0 0 5
p25
aVLindsey Hunter DET 05/26/2008 DET vs. BOS W 9 0 0 1 0.0 0 1 0.0 0 0 - 0 1 1 2 1 0 0 4 1
p26
aVTheo Ratliff DET 05/26/2008 DET vs. BOS W 8 2 0 0 - 0 0 - 2 2 100.0 1 1 2 0 0 0 0 2 -5
p27
aVRodney Stuckey DET 05/26/2008 DET vs. BOS W 23 3 1 4 25.0 0 0 - 1 2 50.0 0 1 1 5 0 0 2 2 1
p28
aVJason Maxiell DET 05/26/2008 DET vs. BOS W 20 14 6 6 100.0 0 0 - 2 3 66.7 0 3 3 0 0 1 0 1 -1
p29
aVRasheed Wallace DET 05/26/2008 DET vs. BOS W 32 14 6 9 66.7 0 1 0.0 2 2 100.0 1 4 5 1 1 5 1 5 23
p30
aVTayshaun Prince DET 05/26/2008 DET vs. BOS W 41 7 3 12 25.0 0 2 0.0 1 2 50.0 0 2 2 3 2 0 1 4 18
p31
aVRichard Hamilton DET 05/26/2008 DET vs. BOS W 33 20 8 10 80.0 0 0 - 4 4 100.0 0 2 2 7 1 1 2 5 14
p32
aVRasheed Wallace DET 05/24/2008 DET vs. BOS L 37 12 6 13 46.2 0 3 0.0 0 0 - 2 6 8 1 1 3 1 6 -3
p33
aVLindsey Hunter DET 05/24/2008 DET vs. BOS L 9 0 0 1 0.0 0 1 0.0 0 0 - 0 0 0 2 1 0 2 3 5
p34
aVAmir Johnson DET 05/24/2008 DET vs. BOS L 1 0 0 0 - 0 0 - 0 0 - 0 0 0 0 0 0 0 0 -1
p35
aVTayshaun Prince DET 05/24/2008 DET vs. BOS L 41 4 2 11 18.2 0 1 0.0 0 0 - 2 2 4 2 2 1 1 2 -23
p36
aVRodney Stuckey DET 05/24/2008 DET vs. BOS L 28 17 4 12 33.3 0 2 0.0 9 10 90.0 1 1 2 4 4 1 2 1 3
p37
aVRichard Hamilton DET 05/24/2008 DET vs. BOS L 44 26 8 18 44.4 0 2 0.0 10 10 100.0 1 1 2 2 2 2 1 4 -3
p38
aVChauncey Billups DET 05/24/2008 DET vs. BOS L 27 6 1 6 16.7 1 4 25.0 3 4 75.0 0 3 3 4 0 0 2 3 -25
p39
aVJason Maxiell DET 05/24/2008 DET vs. BOS L 20 7 3 5 60.0 0 0 - 1 2 50.0 0 1 1 0 0 2 0 3 -5
p40
aVAntonio McDyess DET 05/24/2008 DET vs. BOS L 33 8 4 7 57.1 0 0 - 0 0 - 4 4 8 0 1 0 1 3 -18
p41
aVRichard Hamilton DET 05/22/2008 DET @ BOS W 41 25 7 16 43.8 1 2 50.0 10 12 83.3 2 1 3 4 2 2 2 1 10
p42
aVAntonio McDyess DET 05/22/2008 DET @ BOS W 39 15 7 12 58.3 0 0 - 1 1 100.0 4 4 8 0 3 0 2 3 3
p43
aVLindsey Hunter DET 05/22/2008 DET @ BOS W 10 4 2 3 66.7 0 0 - 0 0 - 0 0 0 2 1 0 0 1 -6
p44
aVChauncey Billups DET 05/22/2008 DET @ BOS W 32 19 5 10 50.0 2 2 100.0 7 8 87.5 0 0 0 7 1 0 0 2 4
p45
aVRasheed Wallace DET 05/22/2008 DET @ BOS W 36 13 4 7 57.1 2 4 50.0 3 4 75.0 0 10 10 2 0 0 2 3 7
p46
aVTheo Ratliff DET 05/22/2008 DET @ BOS W 15 0 0 0 - 0 0 - 0 0 - 0 2 2 0 0 1 1 4 3
p47
aVRodney Stuckey DET 05/22/2008 DET @ BOS W 17 13 5 8 62.5 0 0 - 3 3 100.0 0 0 0 3 2 0 1 3 2
p48
aVTayshaun Prince DET 05/22/2008 DET @ BOS W 44 14 5 15 33.3 0 2 0.0 4 4 100.0 3 5 8 3 0 1 1 1 8
p49
aVArron Afflalo DET 05/22/2008 DET @ BOS W 0 0 0 0 - 0 0 - 0 0 - 0 0 0 0 0 0 0 0 -2
p50
aVJason Maxiell DET 05/22/2008 DET @ BOS W 5 0 0 0 - 0 0 - 0 0 - 0 0 0 0 0 0 0 1 1
p51
aVTayshaun Prince DET 05/20/2008 DET @ BOS L 42 16 7 16 43.8 2 2 100.0 0 0 - 1 3 4 2 0 0 3 2 -8
p52
aVLindsey Hunter DET 05/20/2008 DET @ BOS L 13 3 1 2 50.0 1 1 100.0 0 0 - 0 2 2 1 1 0 0 2 8
p53
aVTheo Ratliff DET 05/20/2008 DET @ BOS L 4 0 0 0 - 0 0 - 0 0 - 0 0 0 0 0 0 0 2 4
p54
aVAntonio McDyess DET 05/20/2008 DET @ BOS L 37 14 5 10 50.0 0 0 - 4 4 100.0 2 9 11 1 0 1 3 4 -15
p55
aVRichard Hamilton DET 05/20/2008 DET @ BOS L 35 15 5 13 38.5 0 1 0.0 5 6 83.3 2 4 6 3 1 0 3 4 -14
p56
aVRasheed Wallace DET 05/20/2008 DET @ BOS L 38 11 3 12 25.0 0 3 0.0 5 6 83.3 1 4 5 4 2 0 1 4 -6
p57
aVChauncey Billups DET 05/20/2008 DET @ BOS L 31 9 3 6 50.0 1 3 33.3 2 4 50.0 0 2 2 2 2 0 2 1 -18
p58
aVRodney Stuckey DET 05/20/2008 DET @ BOS L 23 9 3 5 60.0 0 1 0.0 3 5 60.0 0 3 3 0 1 0 1 0 5
p59
aVJason Maxiell DET 05/20/2008 DET @ BOS L 17 2 1 2 50.0 0 0 - 0 2 0.0 2 2 4 2 0 0 0 1 -1
p60
aVJuan Dixon DET 05/13/2008 DET vs. ORL W 4 0 0 1 0.0 0 0 - 0 0 - 0 0 0 0 0 0 0 0 4
p61
aVRodney Stuckey DET 05/13/2008 DET vs. ORL W 33 15 5 10 50.0 0 0 - 5 6 83.3 1 2 3 6 2 0 0 3 12
p62
aVLindsey Hunter DET 05/13/2008 DET vs. ORL W 15 3 1 5 20.0 1 3 33.3 0 0 - 0 1 1 1 1 0 0 1 -3
p63
aVJason Maxiell DET 05/13/2008 DET vs. ORL W 15 1 0 3 0.0 0 0 - 1 2 50.0 2 1 3 1 0 1 0 4 -9
p64
aVRichard Hamilton DET 05/13/2008 DET vs. ORL W 42 31 7 20 35.0 1 3 33.3 16 16 100.0 0 2 2 3 4 0 0 3 7
p65
aVTayshaun Prince DET 05/13/2008 DET vs. ORL W 45 10 4 13 30.8 1 2 50.0 1 2 50.0 2 6 8 2 1 1 1 2 13
p66
aVArron Afflalo DET 05/13/2008 DET vs. ORL W 0 0 0 0 - 0 0 - 0 0 - 0 0 0 0 0 0 0 0 0
p67
aVAntonio McDyess DET 05/13/2008 DET vs. ORL W 37 17 6 9 66.7 0 0 - 5 6 83.3 6 5 11 2 1 0 0 4 11
p68
aVTheo Ratliff DET 05/13/2008 DET vs. ORL W 4 0 0 0 - 0 0 - 0 0 - 3 0 3 0 0 0 0 3 -3
p69
aVWalter Herrmann DET 05/13/2008 DET vs. ORL W 4 0 0 1 0.0 0 0 - 0 0 - 0 0 0 0 0 0 0 0 -9
p70
aVRasheed Wallace DET 05/13/2008 DET vs. ORL W 39 14 7 20 35.0 0 6 0.0 0 0 - 1 6 7 1 3 1 2 4 8
p71
aVJarvis Hayes DET 05/13/2008 DET vs. ORL W 2 0 0 1 0.0 0 0 - 0 0 - 0 0 0 0 0 0 0 0 -6
p72
aVJarvis Hayes DET 05/10/2008 DET @ ORL W 4 3 1 3 33.3 1 2 50.0 0 0 - 0 1 1 0 0 0 0 0 -8
p73
aVJason Maxiell DET 05/10/2008 DET @ ORL W 15 0 0 1 0.0 0 0 - 0 0 - 0 1 1 0 2 0 0 2 7
p74
aVRichard Hamilton DET 05/10/2008 DET @ ORL W 43 32 12 24 50.0 0 0 - 8 9 88.9 3 3 6 3 2 0 3 3 1
p75
aVTayshaun Prince DET 05/10/2008 DET @ ORL W 46 17 7 14 50.0 1 3 33.3 2 2 100.0 4 1 5 5 0 1 4 2 5
p76
aVJuan Dixon DET 05/10/2008 DET @ ORL W 3 0 0 1 0.0 0 0 - 0 0 - 0 0 0 0 0 0 0 0 4
p77
aVRodney Stuckey DET 05/10/2008 DET @ ORL W 22 6 2 7 28.6 0 1 0.0 2 2 100.0 0 1 1 3 0 0 0 5 -6
p78
aVRasheed Wallace DET 05/10/2008 DET @ ORL W 42 16 7 15 46.7 0 4 0.0 2 2 100.0 1 7 8 1 3 0 1 4 -9
p79
aVAntonio McDyess DET 05/10/2008 DET @ ORL W 40 8 4 8 50.0 0 0 - 0 0 - 3 11 14 3 1 2 1 5 4
p80
aVLindsey Hunter DET 05/10/2008 DET @ ORL W 26 8 3 6 50.0 2 3 66.7 0 0 - 1 2 3 3 1 0 0 2 7
p81
aVChauncey Billups DET 05/07/2008 DET @ ORL L 4 2 1 1 100.0 0 0 - 0 0 - 0 0 0 0 0 0 0 0 -4
p82
aVTayshaun Prince DET 05/07/2008 DET @ ORL L 41 22 8 14 57.1 0 2 0.0 6 6 100.0 2 5 7 3 0 0 1 2 -18
p83
aVWalter Herrmann DET 05/07/2008 DET @ ORL L 13 4 1 3 33.3 1 1 100.0 1 2 50.0 1 0 1 0 0 0 0 1 -10
p84
aVJason Maxiell DET 05/07/2008 DET @ ORL L 19 0 0 2 0.0 0 0 - 0 2 0.0 1 1 2 0 2 1 1 1 -8
p85
aVTheo Ratliff DET 05/07/2008 DET @ ORL L 21 0 0 1 0.0 0 0 - 0 0 - 2 2 4 0 1 1 0 2 -10
p86
aVArron Afflalo DET 05/07/2008 DET @ ORL L 11 4 2 4 50.0 0 0 - 0 0 - 0 0 0 2 0 0 0 0 -8
p87
aVRasheed Wallace DET 05/07/2008 DET @ ORL L 28 11 4 15 26.7 1 4 25.0 2 4 50.0 0 4 4 0 1 0 0 4 -30
p88
aVRichard Hamilton DET 05/07/2008 DET @ ORL L 44 24 10 20 50.0 0 2 0.0 4 5 80.0 0 6 6 3 2 0 6 3 -14
p89
aVAmir Johnson DET 05/07/2008 DET @ ORL L 3 0 0 0 - 0 0 - 0 0 - 0 0 0 0 0 1 0 0 -7
p90
aVRodney Stuckey DET 05/07/2008 DET @ ORL L 34 19 5 13 38.5 0 0 - 9 9 100.0 1 2 3 2 1 0 2 2 -17
p91
aVAntonio McDyess DET 05/07/2008 DET @ ORL L 15 0 0 2 0.0 0 0 - 0 0 - 1 3 4 1 0 0 0 4 8
p92
aVJarvis Hayes DET 05/07/2008 DET @ ORL L 7 0 0 2 0.0 0 1 0.0 0 0 - 1 3 4 1 0 0 0 1 -7
p93
aVRichard Hamilton DET 05/05/2008 DET vs. ORL W 34 14 4 18 22.2 1 2 50.0 5 6 83.3 0 3 3 2 2 0 0 1 -2
p94
aVArron Afflalo DET 05/05/2008 DET vs. ORL W 9 2 1 3 33.3 0 0 - 0 0 - 0 0 0 0 1 0 0 0 8
p95
aVChauncey Billups DET 05/05/2008 DET vs. ORL W 36 28 8 19 42.1 2 5 40.0 10 10 100.0 1 4 5 4 1 0 1 2 2
p96
aVRodney Stuckey DET 05/05/2008 DET vs. ORL W 21 5 1 5 20.0 0 0 - 3 3 100.0 0 1 1 4 1 0 2 2 7
p97
aVJason Maxiell DET 05/05/2008 DET vs. ORL W 31 11 5 5 100.0 0 0 - 1 2 50.0 1 3 4 3 2 3 1 4 5
p98
aVAntonio McDyess DET 05/05/2008 DET vs. ORL W 22 6 2 2 100.0 0 0 - 2 2 100.0 4 4 8 2 0 0 0 6 13
p99
aVWalter Herrmann DET 05/05/2008 DET vs. ORL W 1 0 0 0 - 0 0 - 0 0 - 0 0 0 0 0 0 0 0 -1
p100
aVTheo Ratliff DET 05/05/2008 DET vs. ORL W 9 0 0 1 0.0 0 0 - 0 0 - 0 1 1 0 0 1 0 1 -5
p101
aVTayshaun Prince DET 05/05/2008 DET vs. ORL W 45 17 8 13 61.5 1 3 33.3 0 0 - 1 9 10 5 2 1 3 1 10
p102
aVRasheed Wallace DET 05/05/2008 DET vs. ORL W 32 17 7 10 70.0 0 2 0.0 3 5 60.0 1 2 3 3 0 0 1 5 -2
p103
aVJason Maxiell DET 05/03/2008 DET vs. ORL W 25 12 5 8 62.5 0 0 - 2 2 100.0 1 8 9 1 1 3 1 3 31
p104
aVTheo Ratliff DET 05/03/2008 DET vs. ORL W 12 6 2 2 100.0 0 0 - 2 2 100.0 3 1 4 0 0 1 0 2 12
p105
aVAmir Johnson DET 05/03/2008 DET vs. ORL W 3 0 0 0 - 0 0 - 0 0 - 0 0 0 0 0 0 0 0 -5
p106
aVRasheed Wallace DET 05/03/2008 DET vs. ORL W 30 8 3 9 33.3 2 4 50.0 0 0 - 1 4 5 3 1 0 1 1 1
p107
aVJarvis Hayes DET 05/03/2008 DET vs. ORL W 4 2 1 4 25.0 0 2 0.0 0 0 - 1 3 4 0 0 0 0 0 -3
p108
aVArron Afflalo DET 05/03/2008 DET vs. ORL W 9 0 0 1 0.0 0 0 - 0 0 - 0 1 1 0 1 0 0 0 2
p109
aVAntonio McDyess DET 05/03/2008 DET vs. ORL W 23 10 5 9 55.6 0 0 - 0 0 - 1 4 5 0 0 2 0 4 2
p110
aVRodney Stuckey DET 05/03/2008 DET vs. ORL W 20 4 2 7 28.6 0 0 - 0 0 - 0 3 3 2 1 0 2 1 14
p111
aVChauncey Billups DET 05/03/2008 DET vs. ORL W 33 19 5 14 35.7 1 2 50.0 8 9 88.9 0 2 2 7 0 0 1 1 6
p112
aVTayshaun Prince DET 05/03/2008 DET vs. ORL W 35 12 6 16 37.5 0 0 - 0 0 - 3 5 8 5 0 1 0 0 10
p113
aVWalter Herrmann DET 05/03/2008 DET vs. ORL W 9 1 0 0 - 0 0 - 1 2 50.0 0 0 0 0 0 0 0 3 4
p114
aVRichard Hamilton DET 05/03/2008 DET vs. ORL W 38 17 7 14 50.0 0 0 - 3 3 100.0 1 5 6 3 1 1 1 2 21
p115
aVRichard Hamilton DET 05/01/2008 DET @ PHI W 33 24 9 14 64.3 1 2 50.0 5 5 100.0 0 2 2 5 1 0 5 2 33
p116
aVAmir Johnson DET 05/01/2008 DET @ PHI W 11 10 5 5 100.0 0 0 - 0 0 - 2 4 6 0 0 0 1 1 -8
p117
aVTayshaun Prince DET 05/01/2008 DET @ PHI W 32 12 5 6 83.3 0 0 - 2 2 100.0 1 6 7 4 0 0 1 0 25
p118
aVArron Afflalo DET 05/01/2008 DET @ PHI W 15 2 1 4 25.0 0 0 - 0 0 - 0 1 1 2 0 0 1 2 -12
p119
aVRodney Stuckey DET 05/01/2008 DET @ PHI W 22 7 2 8 25.0 1 1 100.0 2 2 100.0 2 3 5 4 1 0 2 3 -8
p120
aVLindsey Hunter DET 05/01/2008 DET @ PHI W 0 0 0 0 - 0 0 - 0 0 - 0 0 0 0 0 0 0 0 0
p121
aVTheo Ratliff DET 05/01/2008 DET @ PHI W 14 0 0 2 0.0 0 0 - 0 2 0.0 0 2 2 0 0 1 1 1 0
p122
aVJarvis Hayes DET 05/01/2008 DET @ PHI W 11 6 2 3 66.7 2 3 66.7 0 0 - 1 2 3 1 0 0 1 2 -6
p123
aVJason Maxiell DET 05/01/2008 DET @ PHI W 30 9 3 3 100.0 0 0 - 3 4 75.0 0 4 4 3 0 1 1 3 31
p124
aVRasheed Wallace DET 05/01/2008 DET @ PHI W 25 6 2 8 25.0 2 5 40.0 0 0 - 0 2 2 1 0 0 0 4 20
p125
aVAntonio McDyess DET 05/01/2008 DET @ PHI W 15 4 2 3 66.7 0 0 - 0 0 - 0 4 4 1 0 0 2 5 3
p126
aVChauncey Billups DET 05/01/2008 DET @ PHI W 31 20 8 11 72.7 3 5 60.0 1 1 100.0 1 2 3 7 2 0 1 3 37
p127
aVArron Afflalo DET 04/29/2008 DET vs. PHI W 19 4 2 3 66.7 0 0 - 0 0 - 0 1 1 0 2 0 0 3 -4
p128
aVChauncey Billups DET 04/29/2008 DET vs. PHI W 37 21 7 14 50.0 3 6 50.0 4 6 66.7 0 2 2 12 0 0 3 2 24
p129
aVRodney Stuckey DET 04/29/2008 DET vs. PHI W 14 6 3 5 60.0 0 0 - 0 0 - 2 1 3 4 0 0 2 1 -6
p130
aVRichard Hamilton DET 04/29/2008 DET vs. PHI W 33 20 10 17 58.8 0 1 0.0 0 0 - 1 4 5 2 1 0 2 2 22
p131
aVAmir Johnson DET 04/29/2008 DET vs. PHI W 2 1 0 0 - 0 0 - 1 2 50.0 0 0 0 0 0 1 0 1 0
p132
aVTayshaun Prince DET 04/29/2008 DET vs. PHI W 38 17 8 14 57.1 0 2 0.0 1 3 33.3 2 2 4 2 1 0 2 1 15
p133
aVRasheed Wallace DET 04/29/2008 DET vs. PHI W 31 19 8 12 66.7 3 4 75.0 0 0 - 1 5 6 3 1 6 4 2 20
p134
aVJason Maxiell DET 04/29/2008 DET vs. PHI W 39 6 3 4 75.0 0 0 - 0 1 0.0 4 7 11 2 2 3 2 3 17
p135
aVAntonio McDyess DET 04/29/2008 DET vs. PHI W 23 4 2 5 40.0 0 0 - 0 0 - 0 1 1 1 1 2 1 3 -3
p136
aVJarvis Hayes DET 04/29/2008 DET vs. PHI W 2 0 0 0 - 0 0 - 0 0 - 0 1 1 1 0 0 1 1 0
p137
aVAntonio McDyess DET 04/27/2008 DET @ PHI W 20 10 5 8 62.5 0 0 - 0 0 - 2 2 4 0 0 0 1 3 -1
p138
aVChauncey Billups DET 04/27/2008 DET @ PHI W 41 18 4 16 25.0 1 7 14.3 9 10 90.0 1 5 6 7 2 0 3 2 4
p139
aVRodney Stuckey DET 04/27/2008 DET @ PHI W 12 0 0 4 0.0 0 0 - 0 0 - 3 0 3 4 1 0 0 2 2
p140
aVRasheed Wallace DET 04/27/2008 DET @ PHI W 43 20 5 12 41.7 4 7 57.1 6 8 75.0 2 8 10 3 1 0 5 4 13
p141
aVJason Maxiell DET 04/27/2008 DET @ PHI W 32 4 2 6 33.3 0 0 - 0 0 - 2 3 5 1 1 3 1 5 6
p142
aVTayshaun Prince DET 04/27/2008 DET @ PHI W 45 23 11 12 91.7 1 1 100.0 0 0 - 4 2 6 2 4 0 2 1 11
p143
aVRichard Hamilton DET 04/27/2008 DET @ PHI W 44 18 7 22 31.8 0 1 0.0 4 4 100.0 1 4 5 7 1 0 2 4 12
p144
aVJarvis Hayes DET 04/27/2008 DET @ PHI W 3 0 0 0 - 0 0 - 0 0 - 0 0 0 0 0 0 0 2 -2
p145
aVArron Afflalo DET 04/27/2008 DET @ PHI W 0 0 0 0 - 0 0 - 0 0 - 0 0 0 0 0 0 0 0 0
p146
aVArron Afflalo DET 04/25/2008 DET @ PHI L 6 2 1 1 100.0 0 0 - 0 0 - 0 1 1 0 0 0 0 0 3
p147
aVLindsey Hunter DET 04/25/2008 DET @ PHI L 4 0 0 0 - 0 0 - 0 0 - 0 0 0 1 0 0 0 1 -3
p148
aVTayshaun Prince DET 04/25/2008 DET @ PHI L 38 18 8 9 88.9 1 1 100.0 1 2 50.0 1 2 3 4 1 0 5 3 -20
p149
aVJarvis Hayes DET 04/25/2008 DET @ PHI L 9 3 1 7 14.3 1 4 25.0 0 0 - 1 2 3 0 1 1 1 0 0
p150
aVTheo Ratliff DET 04/25/2008 DET @ PHI L 14 4 2 3 66.7 0 0 - 0 0 - 1 1 2 0 0 2 1 3 -7
p151
aVRasheed Wallace DET 04/25/2008 DET @ PHI L 34 2 1 6 16.7 0 3 0.0 0 2 0.0 1 4 5 1 1 4 4 4 -17
p152
aVAmir Johnson DET 04/25/2008 DET @ PHI L 6 2 1 2 50.0 0 0 - 0 0 - 1 0 1 0 0 0 1 2 3
p153
aVChauncey Billups DET 04/25/2008 DET @ PHI L 33 11 2 11 18.2 0 5 0.0 7 8 87.5 0 4 4 4 0 0 3 2 -15
p154
aVAntonio McDyess DET 04/25/2008 DET @ PHI L 18 2 1 2 50.0 0 0 - 0 0 - 1 2 3 1 0 0 1 2 -6
p155
aVRichard Hamilton DET 04/25/2008 DET @ PHI L 32 23 9 18 50.0 1 2 50.0 4 4 100.0 1 5 6 2 0 0 4 5 -14
p156
aVJason Maxiell DET 04/25/2008 DET @ PHI L 20 2 0 0 - 0 0 - 2 6 33.3 0 5 5 0 2 1 1 5 -11
p157
aVRodney Stuckey DET 04/25/2008 DET @ PHI L 25 6 1 7 14.3 0 0 - 4 4 100.0 0 1 1 5 1 0 2 1 -13
p158
aVJarvis Hayes DET 04/23/2008 DET vs. PHI W 9 6 3 7 42.9 0 0 - 0 0 - 0 0 0 0 0 0 1 2 -4
p159
aVAntonio McDyess DET 04/23/2008 DET vs. PHI W 27 16 8 14 57.1 0 0 - 0 0 - 5 7 12 1 0 0 1 4 27
p160
aVTayshaun Prince DET 04/23/2008 DET vs. PHI W 28 16 7 13 53.8 0 0 - 2 3 66.7 3 1 4 3 1 0 2 1 25
p161
aVRichard Hamilton DET 04/23/2008 DET vs. PHI W 36 20 9 16 56.3 0 1 0.0 2 3 66.7 3 4 7 7 0 1 4 0 18
p162
aVRodney Stuckey DET 04/23/2008 DET vs. PHI W 28 12 5 6 83.3 0 0 - 2 2 100.0 0 0 0 4 0 0 3 3 -5
p163
aVChauncey Billups DET 04/23/2008 DET vs. PHI W 30 9 3 6 50.0 2 4 50.0 1 1 100.0 0 4 4 6 0 1 1 3 26
p164
aVAmir Johnson DET 04/23/2008 DET vs. PHI W 16 8 3 5 60.0 0 1 0.0 2 4 50.0 0 4 4 1 0 0 0 3 -9
p165
aVJason Maxiell DET 04/23/2008 DET vs. PHI W 26 2 1 3 33.3 0 0 - 0 0 - 2 1 3 2 0 1 1 3 -6
p166
aVArron Afflalo DET 04/23/2008 DET vs. PHI W 13 0 0 2 0.0 0 2 0.0 0 0 - 0 1 1 1 0 0 0 0 -9
p167
aVRasheed Wallace DET 04/23/2008 DET vs. PHI W 27 16 6 10 60.0 2 4 50.0 2 2 100.0 1 6 7 1 2 3 1 3 22
p168
aVLindsey Hunter DET 04/20/2008 DET vs. PHI L 12 3 1 2 50.0 1 1 100.0 0 0 - 1 1 2 0 1 0 1 3 0
p169
aVJason Maxiell DET 04/20/2008 DET vs. PHI L 30 12 6 8 75.0 0 0 - 0 0 - 6 5 11 1 1 1 2 4 2
p170
aVTayshaun Prince DET 04/20/2008 DET vs. PHI L 40 12 5 13 38.5 0 1 0.0 2 2 100.0 2 4 6 2 0 0 0 3 -8
p171
aVTheo Ratliff DET 04/20/2008 DET vs. PHI L 6 2 1 1 100.0 0 0 - 0 0 - 1 1 2 0 0 2 0 0 -6
p172
aVRichard Hamilton DET 04/20/2008 DET vs. PHI L 39 13 5 17 29.4 0 1 0.0 3 4 75.0 2 3 5 4 1 0 4 3 -6
p173
aVRasheed Wallace DET 04/20/2008 DET vs. PHI L 40 24 9 21 42.9 2 6 33.3 4 4 100.0 2 7 9 1 1 7 2 4 -5
p174
aVAntonio McDyess DET 04/20/2008 DET vs. PHI L 20 6 2 9 22.2 0 0 - 2 3 66.7 6 0 6 0 2 0 2 1 1
p175
aVJarvis Hayes DET 04/20/2008 DET vs. PHI L 5 0 0 1 0.0 0 0 - 0 0 - 0 0 0 1 0 0 0 1 6
p176
aVChauncey Billups DET 04/20/2008 DET vs. PHI L 35 14 3 9 33.3 1 3 33.3 7 10 70.0 0 2 2 4 1 0 0 3 -7
p177
aVRodney Stuckey DET 04/20/2008 DET vs. PHI L 13 0 0 1 0.0 0 0 - 0 0 - 0 0 0 3 0 0 1 2 3
p178
a.