(lp0
VPLAYER TEAM DATE MATCHUP W/L MIN PTS FGM FGA FG% 3PM 3PA 3P% FTM FTA FT% OREB DREB REB AST STL BLK TOV PF +/-
p1
aVDominic McGuire WAS 05/02/2008 WAS vs. CLE L 2 0 0 0 - 0 0 - 0 0 - 0 0 0 0 0 0 0 0 7
p2
aVDeShawn Stevenson WAS 05/02/2008 WAS vs. CLE L 34 10 2 9 22.2 2 5 40.0 4 4 100.0 0 2 2 3 0 0 1 1 -12
p3
aVAndray Blatche WAS 05/02/2008 WAS vs. CLE L 12 4 2 6 33.3 0 0 - 0 0 - 1 2 3 0 1 1 0 3 8
p4
aVCaron Butler WAS 05/02/2008 WAS vs. CLE L 43 18 6 14 42.9 0 4 0.0 6 7 85.7 4 5 9 1 0 1 4 3 -26
p5
aVNick Young WAS 05/02/2008 WAS vs. CLE L 2 5 1 1 100.0 0 0 - 3 4 75.0 0 1 1 0 1 0 0 0 7
p6
aVAntawn Jamison WAS 05/02/2008 WAS vs. CLE L 46 23 9 22 40.9 2 5 40.0 3 5 60.0 7 8 15 1 1 3 1 3 -24
p7
aVOleksiy Pecherov WAS 05/02/2008 WAS vs. CLE L 2 0 0 0 - 0 0 - 0 0 - 0 1 1 0 0 1 0 0 7
p8
aVRoger Mason Jr. WAS 05/02/2008 WAS vs. CLE L 30 7 3 11 27.3 1 7 14.3 0 0 - 0 0 0 1 0 0 0 2 -19
p9
aVAntonio Daniels WAS 05/02/2008 WAS vs. CLE L 30 8 2 5 40.0 0 0 - 4 4 100.0 0 1 1 5 0 0 2 1 -10
p10
aVBrendan Haywood WAS 05/02/2008 WAS vs. CLE L 39 13 6 10 60.0 0 0 - 1 2 50.0 3 7 10 0 1 2 1 5 -23
p11
aVCaron Butler WAS 04/30/2008 WAS @ CLE W 45 32 11 22 50.0 4 8 50.0 6 7 85.7 4 5 9 5 2 0 3 4 2
p12
aVAntawn Jamison WAS 04/30/2008 WAS @ CLE W 41 8 3 10 30.0 1 3 33.3 1 4 25.0 4 7 11 1 0 2 2 4 -3
p13
aVBrendan Haywood WAS 04/30/2008 WAS @ CLE W 31 4 1 6 16.7 0 0 - 2 2 100.0 2 3 5 0 1 0 1 6 3
p14
aVAndray Blatche WAS 04/30/2008 WAS @ CLE W 8 1 0 0 - 0 0 - 1 2 50.0 0 0 0 0 0 0 0 0 -4
p15
aVDeShawn Stevenson WAS 04/30/2008 WAS @ CLE W 36 17 5 14 35.7 2 7 28.6 5 6 83.3 0 5 5 2 1 0 3 2 0
p16
aVAntonio Daniels WAS 04/30/2008 WAS @ CLE W 40 12 5 9 55.6 0 0 - 2 2 100.0 0 5 5 2 1 1 1 1 1
p17
aVNick Young WAS 04/30/2008 WAS @ CLE W 3 0 0 2 0.0 0 0 - 0 0 - 1 0 1 1 1 0 0 0 -1
p18
aVDarius Songaila WAS 04/30/2008 WAS @ CLE W 16 6 2 5 40.0 0 0 - 2 2 100.0 0 1 1 1 0 0 1 5 6
p19
aVRoger Mason Jr. WAS 04/30/2008 WAS @ CLE W 20 8 4 8 50.0 0 1 0.0 0 0 - 0 2 2 1 0 0 1 2 1
p20
aVCaron Butler WAS 04/27/2008 WAS vs. CLE L 46 19 7 14 50.0 1 2 50.0 4 5 80.0 0 2 2 4 1 0 1 4 0
p21
aVDarius Songaila WAS 04/27/2008 WAS vs. CLE L 11 4 0 0 - 0 0 - 4 4 100.0 1 1 2 0 0 0 0 3 -4
p22
aVAntawn Jamison WAS 04/27/2008 WAS vs. CLE L 41 23 8 17 47.1 1 4 25.0 6 9 66.7 2 9 11 0 3 0 2 2 -9
p23
aVBrendan Haywood WAS 04/27/2008 WAS vs. CLE L 35 16 5 10 50.0 0 0 - 6 8 75.0 1 5 6 2 1 2 1 3 -2
p24
aVAndray Blatche WAS 04/27/2008 WAS vs. CLE L 9 0 0 1 0.0 0 0 - 0 0 - 0 1 1 0 0 1 1 5 2
p25
aVDeShawn Stevenson WAS 04/27/2008 WAS vs. CLE L 33 13 5 12 41.7 2 7 28.6 1 1 100.0 2 3 5 5 1 0 2 2 -8
p26
aVRoger Mason Jr. WAS 04/27/2008 WAS vs. CLE L 16 5 2 4 50.0 1 1 100.0 0 0 - 0 0 0 2 1 0 0 2 5
p27
aVGilbert Arenas WAS 04/27/2008 WAS vs. CLE L 32 10 3 8 37.5 1 4 25.0 3 4 75.0 0 2 2 2 2 0 4 3 -4
p28
aVAntonio Daniels WAS 04/27/2008 WAS vs. CLE L 17 7 2 4 50.0 1 1 100.0 2 2 100.0 0 2 2 3 1 0 1 0 5
p29
aVAntonio Daniels WAS 04/24/2008 WAS vs. CLE W 24 9 2 4 50.0 0 1 0.0 5 7 71.4 0 4 4 6 0 0 0 2 27
p30
aVAntawn Jamison WAS 04/24/2008 WAS vs. CLE W 30 15 5 10 50.0 1 2 50.0 4 6 66.7 0 7 7 1 2 2 0 3 20
p31
aVDarius Songaila WAS 04/24/2008 WAS vs. CLE W 16 4 2 5 40.0 0 0 - 0 1 0.0 1 3 4 0 0 0 2 3 14
p32
aVBrendan Haywood WAS 04/24/2008 WAS vs. CLE W 27 14 5 6 83.3 0 0 - 4 4 100.0 1 5 6 3 1 0 0 3 26
p33
aVGilbert Arenas WAS 04/24/2008 WAS vs. CLE W 10 2 1 2 50.0 0 1 0.0 0 0 - 0 1 1 3 0 0 1 0 3
p34
aVAndray Blatche WAS 04/24/2008 WAS vs. CLE W 25 8 3 6 50.0 0 1 0.0 2 6 33.3 3 4 7 0 1 2 2 1 13
p35
aVRoger Mason Jr. WAS 04/24/2008 WAS vs. CLE W 28 18 8 14 57.1 2 3 66.7 0 0 - 0 2 2 1 2 0 0 3 19
p36
aVCaron Butler WAS 04/24/2008 WAS vs. CLE W 37 17 7 14 50.0 0 3 0.0 3 3 100.0 0 3 3 4 2 0 4 1 28
p37
aVOleksiy Pecherov WAS 04/24/2008 WAS vs. CLE W 3 2 0 1 0.0 0 0 - 2 2 100.0 0 0 0 0 1 0 0 0 0
p38
aVDeShawn Stevenson WAS 04/24/2008 WAS vs. CLE W 29 19 5 9 55.6 5 7 71.4 4 4 100.0 0 0 0 1 3 0 1 0 25
p39
aVNick Young WAS 04/24/2008 WAS vs. CLE W 5 0 0 2 0.0 0 1 0.0 0 0 - 0 0 0 0 0 0 1 0 -2
p40
aVDominic McGuire WAS 04/24/2008 WAS vs. CLE W 6 0 0 0 - 0 0 - 0 0 - 0 2 2 1 1 1 0 1 7
p41
aVAntawn Jamison WAS 04/21/2008 WAS @ CLE L 35 9 4 13 30.8 1 3 33.3 0 2 0.0 3 6 9 1 2 1 2 3 -30
p42
aVBrendan Haywood WAS 04/21/2008 WAS @ CLE L 17 10 3 3 100.0 0 0 - 4 5 80.0 1 2 3 0 0 2 1 3 4
p43
aVGilbert Arenas WAS 04/21/2008 WAS @ CLE L 24 7 2 10 20.0 0 2 0.0 3 4 75.0 0 3 3 3 0 0 3 4 -22
p44
aVCaron Butler WAS 04/21/2008 WAS @ CLE L 35 12 4 13 30.8 0 1 0.0 4 4 100.0 2 5 7 5 3 0 0 3 -19
p45
aVDeShawn Stevenson WAS 04/21/2008 WAS @ CLE L 26 12 4 7 57.1 2 4 50.0 2 3 66.7 0 0 0 2 0 0 1 4 -10
p46
aVOleksiy Pecherov WAS 04/21/2008 WAS @ CLE L 3 0 0 0 - 0 0 - 0 0 - 0 0 0 0 0 0 0 0 -6
p47
aVAndray Blatche WAS 04/21/2008 WAS @ CLE L 25 9 4 8 50.0 0 0 - 1 4 25.0 3 4 7 1 0 2 2 3 -22
p48
aVDominic McGuire WAS 04/21/2008 WAS @ CLE L 7 1 0 0 - 0 0 - 1 2 50.0 1 0 1 0 0 0 0 0 -10
p49
aVDarius Songaila WAS 04/21/2008 WAS @ CLE L 16 12 3 3 100.0 0 0 - 6 6 100.0 0 2 2 2 1 0 2 3 -6
p50
aVNick Young WAS 04/21/2008 WAS @ CLE L 7 0 0 4 0.0 0 1 0.0 0 0 - 0 0 0 0 0 0 0 1 -7
p51
aVRoger Mason Jr. WAS 04/21/2008 WAS @ CLE L 22 10 2 6 33.3 0 3 0.0 6 8 75.0 0 0 0 1 0 1 1 2 -10
p52
aVAntonio Daniels WAS 04/21/2008 WAS @ CLE L 23 4 1 5 20.0 0 2 0.0 2 2 100.0 1 1 2 1 0 1 1 2 -12
p53
aVBrendan Haywood WAS 04/19/2008 WAS @ CLE L 30 15 6 9 66.7 0 0 - 3 4 75.0 5 5 10 0 0 3 2 5 -19
p54
aVAndray Blatche WAS 04/19/2008 WAS @ CLE L 9 0 0 0 - 0 0 - 0 0 - 0 2 2 0 0 0 0 3 7
p55
aVAntawn Jamison WAS 04/19/2008 WAS @ CLE L 43 23 10 24 41.7 1 8 12.5 2 2 100.0 3 16 19 2 0 0 3 2 -8
p56
aVAntonio Daniels WAS 04/19/2008 WAS @ CLE L 20 4 2 4 50.0 0 0 - 0 0 - 0 0 0 1 0 0 2 0 -12
p57
aVDeShawn Stevenson WAS 04/19/2008 WAS @ CLE L 38 3 1 9 11.1 1 6 16.7 0 0 - 0 1 1 5 1 0 1 2 -10
p58
aVDarius Songaila WAS 04/19/2008 WAS @ CLE L 20 3 1 6 16.7 0 0 - 1 2 50.0 2 2 4 1 0 0 1 4 0
p59
aVCaron Butler WAS 04/19/2008 WAS @ CLE L 40 14 5 10 50.0 0 3 0.0 4 5 80.0 0 4 4 4 3 0 4 4 2
p60
aVRoger Mason Jr. WAS 04/19/2008 WAS @ CLE L 12 0 0 4 0.0 0 2 0.0 0 0 - 0 1 1 0 0 0 0 0 2
p61
aVGilbert Arenas WAS 04/19/2008 WAS @ CLE L 28 24 8 16 50.0 4 5 80.0 4 4 100.0 0 1 1 3 0 0 0 6 3
p62
a.