(lp0
VPLAYER TEAM DATE MATCHUP W/L MIN PTS FGM FGA FG% 3PM 3PA 3P% FTM FTA FT% OREB DREB REB AST STL BLK TOV PF +/-
p1
aVAndre Iguodala PHI 04/30/2009 PHI vs. ORL L 45 20 7 16 43.8 4 6 66.7 2 4 50.0 0 3 3 6 3 0 3 1 -16
p2
aVSamuel Dalembert PHI 04/30/2009 PHI vs. ORL L 30 8 4 8 50.0 0 0 - 0 0 - 5 8 13 0 1 1 2 3 -28
p3
aVMarreese Speights PHI 04/30/2009 PHI vs. ORL L 14 4 1 3 33.3 0 0 - 2 2 100.0 2 0 2 0 0 0 0 1 -11
p4
aVTheo Ratliff PHI 04/30/2009 PHI vs. ORL L 5 0 0 1 0.0 0 0 - 0 0 - 0 1 1 0 0 1 1 2 4
p5
aVLou Williams PHI 04/30/2009 PHI vs. ORL L 29 17 5 12 41.7 2 7 28.6 5 5 100.0 0 1 1 3 0 0 4 4 -16
p6
aVThaddeus Young PHI 04/30/2009 PHI vs. ORL L 41 8 4 12 33.3 0 3 0.0 0 0 - 2 4 6 1 0 0 2 4 -22
p7
aVDonyell Marshall PHI 04/30/2009 PHI vs. ORL L 4 0 0 0 - 0 0 - 0 0 - 0 2 2 0 0 0 0 0 7
p8
aVRoyal Ivey PHI 04/30/2009 PHI vs. ORL L 8 4 1 3 33.3 1 2 50.0 1 2 50.0 0 0 0 0 0 0 0 2 -5
p9
aVAndre Miller PHI 04/30/2009 PHI vs. ORL L 44 24 7 13 53.8 0 2 0.0 10 12 83.3 3 4 7 5 0 0 3 3 -25
p10
aVWillie Green PHI 04/30/2009 PHI vs. ORL L 20 4 2 8 25.0 0 0 - 0 0 - 0 1 1 2 0 0 1 1 -13
p11
aVAndre Miller PHI 04/28/2009 PHI @ ORL L 44 17 6 15 40.0 1 4 25.0 4 5 80.0 0 3 3 6 4 0 5 5 -11
p12
aVTheo Ratliff PHI 04/28/2009 PHI @ ORL L 19 4 2 2 100.0 0 0 - 0 0 - 1 3 4 0 0 0 1 4 -1
p13
aVReggie Evans PHI 04/28/2009 PHI @ ORL L 4 2 1 1 100.0 0 0 - 0 0 - 0 0 0 0 0 0 0 1 -5
p14
aVDonyell Marshall PHI 04/28/2009 PHI @ ORL L 8 0 0 3 0.0 0 2 0.0 0 0 - 0 1 1 0 0 0 0 2 -6
p15
aVRoyal Ivey PHI 04/28/2009 PHI @ ORL L 6 0 0 1 0.0 0 1 0.0 0 0 - 0 0 0 0 0 0 0 1 -5
p16
aVWillie Green PHI 04/28/2009 PHI @ ORL L 36 16 7 15 46.7 1 4 25.0 1 1 100.0 0 2 2 0 0 0 0 2 -9
p17
aVThaddeus Young PHI 04/28/2009 PHI @ ORL L 40 9 4 9 44.4 0 2 0.0 1 1 100.0 0 6 6 1 2 0 3 5 -10
p18
aVAndre Iguodala PHI 04/28/2009 PHI @ ORL L 47 26 7 17 41.2 2 5 40.0 10 13 76.9 1 4 5 4 1 0 4 2 -13
p19
aVLou Williams PHI 04/28/2009 PHI @ ORL L 16 0 0 2 0.0 0 0 - 0 0 - 0 3 3 5 0 0 2 1 -6
p20
aVSamuel Dalembert PHI 04/28/2009 PHI @ ORL L 20 4 2 3 66.7 0 0 - 0 0 - 2 7 9 1 0 2 0 5 1
p21
aVAndre Iguodala PHI 04/26/2009 PHI vs. ORL L 45 13 4 13 30.8 1 6 16.7 4 6 66.7 1 6 7 11 2 0 3 1 -5
p22
aVAndre Miller PHI 04/26/2009 PHI vs. ORL L 45 17 6 18 33.3 0 1 0.0 5 5 100.0 0 5 5 4 0 1 1 2 -5
p23
aVDonyell Marshall PHI 04/26/2009 PHI vs. ORL L 5 0 0 2 0.0 0 1 0.0 0 0 - 0 1 1 0 0 0 1 2 -1
p24
aVLou Williams PHI 04/26/2009 PHI vs. ORL L 21 11 4 9 44.4 1 3 33.3 2 2 100.0 1 2 3 2 0 0 2 1 11
p25
aVThaddeus Young PHI 04/26/2009 PHI vs. ORL L 43 15 6 17 35.3 3 4 75.0 0 0 - 5 2 7 2 3 0 1 0 -5
p26
aVTheo Ratliff PHI 04/26/2009 PHI vs. ORL L 11 2 1 1 100.0 0 0 - 0 0 - 2 3 5 0 0 1 0 5 -4
p27
aVWillie Green PHI 04/26/2009 PHI vs. ORL L 30 11 4 8 50.0 3 3 100.0 0 2 0.0 0 1 1 0 0 0 0 2 -12
p28
aVReggie Evans PHI 04/26/2009 PHI vs. ORL L 10 2 1 5 20.0 0 0 - 0 0 - 1 3 4 0 1 0 1 1 3
p29
aVSamuel Dalembert PHI 04/26/2009 PHI vs. ORL L 27 10 5 6 83.3 0 0 - 0 0 - 0 9 9 0 1 1 1 5 -2
p30
aVRoyal Ivey PHI 04/26/2009 PHI vs. ORL L 3 0 0 1 0.0 0 1 0.0 0 0 - 0 1 1 0 1 0 0 0 5
p31
aVThaddeus Young PHI 04/24/2009 PHI vs. ORL W 34 6 3 7 42.9 0 0 - 0 0 - 0 4 4 0 1 0 1 4 7
p32
aVAndre Miller PHI 04/24/2009 PHI vs. ORL W 46 24 10 21 47.6 1 1 100.0 3 4 75.0 2 7 9 7 0 0 4 3 0
p33
aVTheo Ratliff PHI 04/24/2009 PHI vs. ORL W 13 4 2 2 100.0 0 0 - 0 0 - 0 2 2 0 0 0 0 5 -3
p34
aVRoyal Ivey PHI 04/24/2009 PHI vs. ORL W 7 2 0 1 0.0 0 0 - 2 2 100.0 0 0 0 0 1 0 0 1 3
p35
aVSamuel Dalembert PHI 04/24/2009 PHI vs. ORL W 30 4 2 5 40.0 0 0 - 0 0 - 1 8 9 2 0 3 3 3 -3
p36
aVDonyell Marshall PHI 04/24/2009 PHI vs. ORL W 14 5 2 4 50.0 1 2 50.0 0 0 - 0 1 1 0 0 1 0 2 -2
p37
aVLou Williams PHI 04/24/2009 PHI vs. ORL W 24 8 3 7 42.9 0 1 0.0 2 5 40.0 0 2 2 2 1 0 0 1 6
p38
aVReggie Evans PHI 04/24/2009 PHI vs. ORL W 5 2 0 0 - 0 0 - 2 2 100.0 1 0 1 0 1 0 0 1 5
p39
aVWillie Green PHI 04/24/2009 PHI vs. ORL W 24 12 6 9 66.7 0 2 0.0 0 0 - 0 0 0 1 0 1 3 4 -4
p40
aVAndre Iguodala PHI 04/24/2009 PHI vs. ORL W 43 29 9 15 60.0 2 4 50.0 9 13 69.2 2 5 7 4 2 0 4 0 1
p41
aVThaddeus Young PHI 04/22/2009 PHI @ ORL L 41 20 9 15 60.0 2 3 66.7 0 0 - 2 1 3 3 0 0 0 2 -1
p42
aVAndre Iguodala PHI 04/22/2009 PHI @ ORL L 45 21 7 14 50.0 2 5 40.0 5 8 62.5 1 7 8 7 3 0 5 3 -6
p43
aVAndre Miller PHI 04/22/2009 PHI @ ORL L 40 30 12 20 60.0 1 2 50.0 5 6 83.3 2 5 7 3 2 0 4 1 -7
p44
aVMarreese Speights PHI 04/22/2009 PHI @ ORL L 9 5 2 2 100.0 0 0 - 1 2 50.0 1 1 2 0 0 0 0 3 -5
p45
aVReggie Evans PHI 04/22/2009 PHI @ ORL L 8 0 0 3 0.0 0 0 - 0 0 - 0 4 4 0 1 0 1 0 -7
p46
aVWillie Green PHI 04/22/2009 PHI @ ORL L 21 2 1 5 20.0 0 1 0.0 0 0 - 0 1 1 2 0 0 1 2 -2
p47
aVLou Williams PHI 04/22/2009 PHI @ ORL L 28 4 2 10 20.0 0 2 0.0 0 0 - 1 2 3 3 1 1 3 2 -5
p48
aVDonyell Marshall PHI 04/22/2009 PHI @ ORL L 8 0 0 2 0.0 0 2 0.0 0 0 - 0 0 0 0 1 0 0 2 -11
p49
aVRoyal Ivey PHI 04/22/2009 PHI @ ORL L 8 0 0 2 0.0 0 1 0.0 0 0 - 0 1 1 0 0 0 0 1 -4
p50
aVTheo Ratliff PHI 04/22/2009 PHI @ ORL L 22 3 1 1 100.0 0 0 - 1 2 50.0 2 6 8 0 0 0 2 5 4
p51
aVSamuel Dalembert PHI 04/22/2009 PHI @ ORL L 9 2 1 1 100.0 0 0 - 0 0 - 0 0 0 0 0 1 0 4 -1
p52
aVWillie Green PHI 04/19/2009 PHI @ ORL W 17 2 1 6 16.7 0 1 0.0 0 0 - 0 1 1 2 0 0 0 2 -7
p53
aVAndre Miller PHI 04/19/2009 PHI @ ORL W 39 15 7 14 50.0 0 0 - 1 2 50.0 2 5 7 7 1 0 2 3 -9
p54
aVRoyal Ivey PHI 04/19/2009 PHI @ ORL W 13 5 2 3 66.7 1 2 50.0 0 0 - 1 1 2 0 1 0 0 1 6
p55
aVAndre Iguodala PHI 04/19/2009 PHI @ ORL W 44 20 10 23 43.5 0 2 0.0 0 2 0.0 1 7 8 8 0 0 5 2 6
p56
aVSamuel Dalembert PHI 04/19/2009 PHI @ ORL W 17 7 2 2 100.0 0 0 - 3 4 75.0 2 5 7 0 0 1 0 4 -10
p57
aVThaddeus Young PHI 04/19/2009 PHI @ ORL W 29 14 5 10 50.0 0 0 - 4 5 80.0 0 1 1 1 0 1 1 2 -11
p58
aVMarreese Speights PHI 04/19/2009 PHI @ ORL W 6 0 0 2 0.0 0 0 - 0 0 - 0 2 2 0 0 0 0 1 -5
p59
aVTheo Ratliff PHI 04/19/2009 PHI @ ORL W 24 7 3 4 75.0 0 0 - 1 2 50.0 1 2 3 0 1 2 0 3 17
p60
aVReggie Evans PHI 04/19/2009 PHI @ ORL W 9 1 0 0 - 0 0 - 1 2 50.0 0 1 1 0 0 0 0 1 -6
p61
aVLou Williams PHI 04/19/2009 PHI @ ORL W 30 18 7 11 63.6 3 3 100.0 1 3 33.3 0 3 3 2 1 0 1 1 11
p62
aVDonyell Marshall PHI 04/19/2009 PHI @ ORL W 11 11 4 5 80.0 3 4 75.0 0 0 - 0 2 2 0 0 0 1 1 18
p63
a.