(lp0
VPLAYER TEAM DATE MATCHUP W/L MIN PTS FGM FGA FG% 3PM 3PA 3P% FTM FTA FT% OREB DREB REB AST STL BLK TOV PF +/-
p1
aVDerek Fisher LAL 06/14/2009 LAL @ ORL W 32 13 4 7 57.1 1 1 100.0 4 4 100.0 0 4 4 2 0 0 1 4 16
p2
aVJordan Farmar LAL 06/14/2009 LAL @ ORL W 14 2 1 3 33.3 0 1 0.0 0 0 - 0 0 0 1 0 0 0 0 -2
p3
aVPau Gasol LAL 06/14/2009 LAL @ ORL W 42 14 6 9 66.7 0 0 - 2 4 50.0 4 11 15 3 0 4 1 2 15
p4
aVAndrew Bynum LAL 06/14/2009 LAL @ ORL W 17 6 3 11 27.3 0 0 - 0 1 0.0 4 1 5 0 1 0 1 5 -6
p5
aVTrevor Ariza LAL 06/14/2009 LAL @ ORL W 41 15 5 12 41.7 2 5 40.0 3 6 50.0 1 4 5 1 2 0 3 3 12
p6
aVKobe Bryant LAL 06/14/2009 LAL @ ORL W 43 30 10 23 43.5 2 5 40.0 8 8 100.0 0 6 6 5 2 4 1 2 14
p7
aVSasha Vujacic LAL 06/14/2009 LAL @ ORL W 5 0 0 1 0.0 0 0 - 0 0 - 0 0 0 0 0 0 0 0 -1
p8
aVLamar Odom LAL 06/14/2009 LAL @ ORL W 32 17 5 12 41.7 3 3 100.0 4 5 80.0 3 7 10 0 1 0 3 4 16
p9
aVLuke Walton LAL 06/14/2009 LAL @ ORL W 14 2 1 2 50.0 0 1 0.0 0 0 - 1 1 2 1 0 0 0 0 1
p10
aVLuke Walton LAL 06/11/2009 LAL @ ORL W 11 6 2 2 100.0 0 0 - 2 4 50.0 0 2 2 0 0 0 0 0 -6
p11
aVPau Gasol LAL 06/11/2009 LAL @ ORL W 49 16 7 14 50.0 0 0 - 2 4 50.0 2 8 10 1 1 0 1 4 9
p12
aVDerek Fisher LAL 06/11/2009 LAL @ ORL W 42 12 5 11 45.5 2 7 28.6 0 0 - 1 3 4 1 2 0 0 5 15
p13
aVSasha Vujacic LAL 06/11/2009 LAL @ ORL W 4 0 0 2 0.0 0 2 0.0 0 0 - 0 0 0 1 0 0 0 0 -3
p14
aVLamar Odom LAL 06/11/2009 LAL @ ORL W 28 9 4 10 40.0 1 2 50.0 0 0 - 2 3 5 1 1 0 0 5 5
p15
aVJordan Farmar LAL 06/11/2009 LAL @ ORL W 9 0 0 2 0.0 0 2 0.0 0 0 - 0 0 0 0 1 0 0 1 -3
p16
aVShannon Brown LAL 06/11/2009 LAL @ ORL W 2 0 0 0 - 0 0 - 0 0 - 0 0 0 0 0 0 0 0 -4
p17
aVTrevor Ariza LAL 06/11/2009 LAL @ ORL W 44 16 6 14 42.9 3 4 75.0 1 2 50.0 3 6 9 2 2 0 1 3 15
p18
aVDJ Mbenga LAL 06/11/2009 LAL @ ORL W 4 0 0 0 - 0 0 - 0 0 - 0 0 0 0 0 1 0 0 -1
p19
aVKobe Bryant LAL 06/11/2009 LAL @ ORL W 49 32 11 31 35.5 2 6 33.3 8 8 100.0 1 6 7 8 1 1 3 3 11
p20
aVJosh Powell LAL 06/11/2009 LAL @ ORL W 8 2 1 2 50.0 0 0 - 0 0 - 0 0 0 1 0 0 2 2 -6
p21
aVAndrew Bynum LAL 06/11/2009 LAL @ ORL W 16 6 2 3 66.7 0 0 - 2 2 100.0 1 1 2 0 0 0 0 5 8
p22
aVTrevor Ariza LAL 06/09/2009 LAL @ ORL L 42 13 5 13 38.5 2 7 28.6 1 2 50.0 3 4 7 1 2 0 1 4 -1
p23
aVDerek Fisher LAL 06/09/2009 LAL @ ORL L 32 9 4 9 44.4 1 4 25.0 0 0 - 1 2 3 2 1 0 0 2 -5
p24
aVSasha Vujacic LAL 06/09/2009 LAL @ ORL L 3 0 0 1 0.0 0 0 - 0 0 - 0 0 0 0 0 0 0 1 0
p25
aVJordan Farmar LAL 06/09/2009 LAL @ ORL L 16 11 4 6 66.7 1 3 33.3 2 2 100.0 1 2 3 0 0 0 2 1 1
p26
aVKobe Bryant LAL 06/09/2009 LAL @ ORL L 40 31 11 25 44.0 4 9 44.4 5 10 50.0 1 2 3 8 0 0 4 5 -3
p27
aVPau Gasol LAL 06/09/2009 LAL @ ORL L 40 23 9 11 81.8 0 0 - 5 6 83.3 1 2 3 1 1 2 1 3 1
p28
aVDJ Mbenga LAL 06/09/2009 LAL @ ORL L 0 0 0 0 - 0 0 - 0 0 - 0 0 0 0 0 0 0 0 0
p29
aVAndrew Bynum LAL 06/09/2009 LAL @ ORL L 23 4 2 6 33.3 0 0 - 0 1 0.0 2 2 4 1 1 0 1 2 -3
p30
aVLuke Walton LAL 06/09/2009 LAL @ ORL L 11 2 1 1 100.0 0 0 - 0 0 - 1 1 2 2 0 0 2 3 -4
p31
aVLamar Odom LAL 06/09/2009 LAL @ ORL L 32 11 4 6 66.7 0 0 - 3 5 60.0 1 1 2 1 1 1 2 4 -6
p32
aVAndrew Bynum LAL 06/07/2009 LAL vs. ORL W 16 5 2 5 40.0 0 0 - 1 1 100.0 0 1 1 2 0 2 1 5 0
p33
aVSasha Vujacic LAL 06/07/2009 LAL vs. ORL W 5 0 0 1 0.0 0 1 0.0 0 0 - 0 1 1 0 0 0 0 0 3
p34
aVPau Gasol LAL 06/07/2009 LAL vs. ORL W 44 24 7 14 50.0 0 0 - 10 11 90.9 0 10 10 3 2 1 0 3 0
p35
aVShannon Brown LAL 06/07/2009 LAL vs. ORL W 6 0 0 0 - 0 0 - 0 0 - 0 0 0 0 0 0 0 1 0
p36
aVLamar Odom LAL 06/07/2009 LAL vs. ORL W 46 19 8 9 88.9 0 0 - 3 4 75.0 2 6 8 2 1 3 2 5 10
p37
aVKobe Bryant LAL 06/07/2009 LAL vs. ORL W 49 29 10 22 45.5 1 4 25.0 8 10 80.0 0 4 4 8 2 0 7 2 2
p38
aVTrevor Ariza LAL 06/07/2009 LAL vs. ORL W 38 8 3 13 23.1 2 6 33.3 0 0 - 1 6 7 2 3 0 0 3 2
p39
aVLuke Walton LAL 06/07/2009 LAL vs. ORL W 15 0 0 0 - 0 0 - 0 0 - 0 2 2 0 0 0 0 3 3
p40
aVDerek Fisher LAL 06/07/2009 LAL vs. ORL W 41 12 4 9 44.4 2 3 66.7 2 2 100.0 0 1 1 3 3 0 2 2 5
p41
aVJordan Farmar LAL 06/07/2009 LAL vs. ORL W 6 4 2 5 40.0 0 1 0.0 0 0 - 1 0 1 0 1 0 0 1 0
p42
aVKobe Bryant LAL 06/04/2009 LAL vs. ORL W 38 40 16 34 47.1 0 1 0.0 8 8 100.0 1 7 8 8 2 2 1 1 25
p43
aVTrevor Ariza LAL 06/04/2009 LAL vs. ORL W 24 3 1 4 25.0 1 2 50.0 0 0 - 1 1 2 2 0 1 0 3 18
p44
aVDerek Fisher LAL 06/04/2009 LAL vs. ORL W 32 9 4 6 66.7 1 1 100.0 0 0 - 1 2 3 1 0 0 0 3 22
p45
aVLuke Walton LAL 06/04/2009 LAL vs. ORL W 24 9 4 5 80.0 0 0 - 1 2 50.0 1 1 2 2 1 0 0 3 7
p46
aVPau Gasol LAL 06/04/2009 LAL vs. ORL W 37 16 7 12 58.3 0 0 - 2 2 100.0 3 5 8 3 0 2 2 3 14
p47
aVDJ Mbenga LAL 06/04/2009 LAL vs. ORL W 2 0 0 1 0.0 0 0 - 0 0 - 0 1 1 0 0 0 1 0 2
p48
aVSasha Vujacic LAL 06/04/2009 LAL vs. ORL W 5 0 0 1 0.0 0 0 - 0 0 - 0 1 1 1 0 0 1 2 -1
p49
aVAndrew Bynum LAL 06/04/2009 LAL vs. ORL W 22 9 3 8 37.5 0 0 - 3 4 75.0 3 6 9 0 0 1 0 4 9
p50
aVLamar Odom LAL 06/04/2009 LAL vs. ORL W 32 11 5 11 45.5 0 3 0.0 1 2 50.0 2 12 14 0 1 1 2 3 21
p51
aVJordan Farmar LAL 06/04/2009 LAL vs. ORL W 13 0 0 3 0.0 0 1 0.0 0 0 - 0 2 2 1 0 0 1 1 1
p52
aVShannon Brown LAL 06/04/2009 LAL vs. ORL W 8 0 0 2 0.0 0 0 - 0 0 - 1 0 1 0 0 0 0 0 3
p53
aVJosh Powell LAL 06/04/2009 LAL vs. ORL W 3 3 1 2 50.0 1 1 100.0 0 0 - 2 2 4 0 0 0 0 0 4
p54
aVPau Gasol LAL 05/29/2009 LAL @ DEN W 42 20 8 12 66.7 0 0 - 4 4 100.0 2 10 12 6 3 1 3 2 22
p55
aVAndrew Bynum LAL 05/29/2009 LAL @ DEN W 22 2 1 6 16.7 0 0 - 0 0 - 1 0 1 1 1 1 1 3 16
p56
aVLamar Odom LAL 05/29/2009 LAL @ DEN W 32 20 7 12 58.3 2 2 100.0 4 4 100.0 3 5 8 1 0 0 0 2 16
p57
aVJordan Farmar LAL 05/29/2009 LAL @ DEN W 8 0 0 2 0.0 0 2 0.0 0 0 - 0 1 1 2 0 0 2 0 -3
p58
aVShannon Brown LAL 05/29/2009 LAL @ DEN W 8 3 0 2 0.0 0 0 - 3 3 100.0 0 0 0 1 0 0 0 0 5
p59
aVTrevor Ariza LAL 05/29/2009 LAL @ DEN W 22 17 7 9 77.8 3 4 75.0 0 0 - 1 3 4 0 1 0 2 4 17
p60
aVKobe Bryant LAL 05/29/2009 LAL @ DEN W 42 35 12 20 60.0 2 4 50.0 9 9 100.0 0 6 6 10 0 1 1 1 31
p61
aVLuke Walton LAL 05/29/2009 LAL @ DEN W 25 10 5 7 71.4 0 1 0.0 0 0 - 1 0 1 3 1 1 3 4 7
p62
aVDerek Fisher LAL 05/29/2009 LAL @ DEN W 32 5 2 3 66.7 1 1 100.0 0 0 - 0 4 4 4 0 0 1 3 25
p63
aVSasha Vujacic LAL 05/29/2009 LAL @ DEN W 7 7 1 2 50.0 1 2 50.0 4 4 100.0 1 0 1 0 0 0 0 0 -1
p64
aVSasha Vujacic LAL 05/27/2009 LAL vs. DEN W 4 3 1 2 50.0 1 2 50.0 0 0 - 0 1 1 1 0 0 0 1 1
p65
aVTrevor Ariza LAL 05/27/2009 LAL vs. DEN W 32 12 4 7 57.1 0 2 0.0 4 6 66.7 0 5 5 4 1 2 0 4 -2
p66
aVKobe Bryant LAL 05/27/2009 LAL vs. DEN W 45 22 6 13 46.2 1 6 16.7 9 10 90.0 1 4 5 8 1 0 7 3 11
p67
aVLamar Odom LAL 05/27/2009 LAL vs. DEN W 32 19 7 15 46.7 1 1 100.0 4 7 57.1 4 10 14 3 0 4 1 2 18
p68
aVDerek Fisher LAL 05/27/2009 LAL vs. DEN W 27 12 4 9 44.4 0 2 0.0 4 4 100.0 0 0 0 2 0 0 2 5 -2
p69
aVJordan Farmar LAL 05/27/2009 LAL vs. DEN W 7 2 1 3 33.3 0 2 0.0 0 0 - 1 0 1 0 0 0 0 0 -2
p70
aVPau Gasol LAL 05/27/2009 LAL vs. DEN W 45 14 5 8 62.5 0 0 - 4 5 80.0 1 9 10 4 2 5 2 1 6
p71
aVAndrew Bynum LAL 05/27/2009 LAL vs. DEN W 19 9 4 9 44.4 0 0 - 1 3 33.3 1 1 2 1 0 0 1 4 -6
p72
aVLuke Walton LAL 05/27/2009 LAL vs. DEN W 15 4 2 5 40.0 0 0 - 0 0 - 2 2 4 2 1 1 2 2 8
p73
aVShannon Brown LAL 05/27/2009 LAL vs. DEN W 14 6 3 5 60.0 0 1 0.0 0 0 - 0 0 0 0 0 0 0 0 13
p74
aVLamar Odom LAL 05/25/2009 LAL @ DEN L 30 5 1 8 12.5 1 2 50.0 2 4 50.0 4 4 8 1 1 0 3 5 -11
p75
aVAndrew Bynum LAL 05/25/2009 LAL @ DEN L 23 14 6 7 85.7 0 0 - 2 3 66.7 2 3 5 0 0 1 0 5 -6
p76
aVTrevor Ariza LAL 05/25/2009 LAL @ DEN L 26 3 1 4 25.0 1 3 33.3 0 2 0.0 0 1 1 1 0 0 1 5 -8
p77
aVJordan Farmar LAL 05/25/2009 LAL @ DEN L 14 10 3 7 42.9 2 5 40.0 2 3 66.7 0 3 3 2 0 0 1 0 -5
p78
aVSasha Vujacic LAL 05/25/2009 LAL @ DEN L 16 6 2 4 50.0 2 4 50.0 0 1 0.0 0 1 1 0 0 0 1 0 -9
p79
aVLuke Walton LAL 05/25/2009 LAL @ DEN L 13 0 0 2 0.0 0 1 0.0 0 0 - 1 2 3 5 1 1 0 6 -2
p80
aVPau Gasol LAL 05/25/2009 LAL @ DEN L 35 21 8 11 72.7 0 0 - 5 7 71.4 1 9 10 4 0 3 0 4 -16
p81
aVKobe Bryant LAL 05/25/2009 LAL @ DEN L 41 34 10 26 38.5 2 10 20.0 12 13 92.3 1 6 7 5 1 0 1 3 -11
p82
aVDerek Fisher LAL 05/25/2009 LAL @ DEN L 23 5 2 7 28.6 1 5 20.0 0 0 - 0 1 1 1 1 0 1 1 -6
p83
aVDJ Mbenga LAL 05/25/2009 LAL @ DEN L 1 0 0 1 0.0 0 0 - 0 0 - 0 0 0 0 0 0 0 0 0
p84
aVJosh Powell LAL 05/25/2009 LAL @ DEN L 3 0 0 1 0.0 0 0 - 0 0 - 0 0 0 0 0 0 0 0 -8
p85
aVShannon Brown LAL 05/25/2009 LAL @ DEN L 16 3 1 4 25.0 0 1 0.0 1 2 50.0 0 1 1 0 0 0 2 2 -13
p86
aVPau Gasol LAL 05/23/2009 LAL @ DEN W 43 20 7 12 58.3 0 0 - 6 8 75.0 1 10 11 1 0 1 2 2 9
p87
aVKobe Bryant LAL 05/23/2009 LAL @ DEN W 41 41 12 24 50.0 2 5 40.0 15 17 88.2 1 5 6 5 2 0 1 4 3
p88
aVAndrew Bynum LAL 05/23/2009 LAL @ DEN W 21 7 2 6 33.3 0 0 - 3 6 50.0 0 4 4 0 0 3 1 3 1
p89
aVTrevor Ariza LAL 05/23/2009 LAL @ DEN W 32 16 5 8 62.5 3 5 60.0 3 4 75.0 1 3 4 2 2 1 1 4 9
p90
aVSasha Vujacic LAL 05/23/2009 LAL @ DEN W 12 3 1 4 25.0 1 3 33.3 0 0 - 0 2 2 0 0 1 1 2 -5
p91
aVShannon Brown LAL 05/23/2009 LAL @ DEN W 8 2 1 3 33.3 0 2 0.0 0 0 - 0 1 1 0 0 1 0 1 6
p92
aVDerek Fisher LAL 05/23/2009 LAL @ DEN W 26 4 2 6 33.3 0 1 0.0 0 2 0.0 2 1 3 2 3 0 2 2 4
p93
aVJordan Farmar LAL 05/23/2009 LAL @ DEN W 14 2 1 3 33.3 0 1 0.0 0 0 - 0 2 2 3 0 0 3 2 -4
p94
aVLuke Walton LAL 05/23/2009 LAL @ DEN W 14 0 0 1 0.0 0 0 - 0 2 0.0 0 3 3 1 0 0 0 0 4
p95
aVLamar Odom LAL 05/23/2009 LAL @ DEN W 30 8 2 5 40.0 0 2 0.0 4 6 66.7 3 4 7 1 0 0 1 4 3
p96
aVTrevor Ariza LAL 05/21/2009 LAL vs. DEN L 33 20 6 7 85.7 2 2 100.0 6 8 75.0 0 3 3 2 4 0 3 2 -11
p97
aVShannon Brown LAL 05/21/2009 LAL vs. DEN L 17 8 3 8 37.5 1 1 100.0 1 2 50.0 1 1 2 1 0 0 0 2 -5
p98
aVPau Gasol LAL 05/21/2009 LAL vs. DEN L 44 17 5 8 62.5 0 0 - 7 10 70.0 5 12 17 3 0 2 4 4 -5
p99
aVKobe Bryant LAL 05/21/2009 LAL vs. DEN L 40 32 10 20 50.0 2 4 50.0 10 10 100.0 2 3 5 3 1 1 2 4 0
p100
aVAndrew Bynum LAL 05/21/2009 LAL vs. DEN L 18 9 4 8 50.0 0 0 - 1 3 33.3 0 2 2 0 1 1 0 1 7
p101
aVLuke Walton LAL 05/21/2009 LAL vs. DEN L 19 2 1 3 33.3 0 1 0.0 0 0 - 0 2 2 4 1 0 2 2 0
p102
aVDerek Fisher LAL 05/21/2009 LAL vs. DEN L 28 3 1 9 11.1 1 5 20.0 0 0 - 0 1 1 3 1 0 2 5 2
p103
aVJordan Farmar LAL 05/21/2009 LAL vs. DEN L 6 2 1 1 100.0 0 0 - 0 0 - 0 1 1 3 0 0 0 1 -5
p104
aVLamar Odom LAL 05/21/2009 LAL vs. DEN L 30 10 4 9 44.4 0 1 0.0 2 2 100.0 5 4 9 2 1 2 0 5 0
p105
aVSasha Vujacic LAL 05/21/2009 LAL vs. DEN L 6 0 0 4 0.0 0 1 0.0 0 0 - 0 1 1 0 0 0 0 1 2
p106
aVKobe Bryant LAL 05/19/2009 LAL vs. DEN W 43 40 13 28 46.4 2 3 66.7 12 13 92.3 3 3 6 4 0 1 1 3 -5
p107
aVJordan Farmar LAL 05/19/2009 LAL vs. DEN W 9 5 2 5 40.0 1 3 33.3 0 0 - 0 0 0 2 0 1 1 0 4
p108
aVShannon Brown LAL 05/19/2009 LAL vs. DEN W 6 3 1 4 25.0 1 3 33.3 0 0 - 0 1 1 0 0 0 1 1 -4
p109
aVJosh Powell LAL 05/19/2009 LAL vs. DEN W 4 4 1 1 100.0 0 0 - 2 2 100.0 0 0 0 1 0 1 0 1 5
p110
aVSasha Vujacic LAL 05/19/2009 LAL vs. DEN W 13 3 1 5 20.0 1 3 33.3 0 0 - 0 2 2 0 0 0 0 2 0
p111
aVPau Gasol LAL 05/19/2009 LAL vs. DEN W 42 13 5 9 55.6 0 0 - 3 5 60.0 6 8 14 3 1 2 2 4 -3
p112
aVLuke Walton LAL 05/19/2009 LAL vs. DEN W 13 5 2 6 33.3 1 2 50.0 0 0 - 1 1 2 3 0 0 2 1 9
p113
aVTrevor Ariza LAL 05/19/2009 LAL vs. DEN W 28 6 2 8 25.0 1 4 25.0 1 2 50.0 2 3 5 2 3 0 3 4 -2
p114
aVDerek Fisher LAL 05/19/2009 LAL vs. DEN W 31 13 5 13 38.5 3 6 50.0 0 0 - 1 1 2 6 1 0 2 2 4
p115
aVLamar Odom LAL 05/19/2009 LAL vs. DEN W 33 7 3 7 42.9 1 1 100.0 0 0 - 2 6 8 4 2 2 2 3 6
p116
aVDJ Mbenga LAL 05/19/2009 LAL vs. DEN W 0 0 0 0 - 0 0 - 0 0 - 0 0 0 0 0 0 0 0 1
p117
aVAndrew Bynum LAL 05/19/2009 LAL vs. DEN W 16 6 2 4 50.0 0 0 - 2 2 100.0 2 4 6 0 0 2 1 5 -5
p118
aVPau Gasol LAL 05/17/2009 LAL vs. HOU W 41 21 10 19 52.6 0 0 - 1 1 100.0 6 12 18 1 1 3 5 2 21
p119
aVLamar Odom LAL 05/17/2009 LAL vs. HOU W 24 6 2 5 40.0 1 3 33.3 1 2 50.0 1 6 7 3 0 1 2 1 19
p120
aVAndrew Bynum LAL 05/17/2009 LAL vs. HOU W 22 14 6 7 85.7 0 0 - 2 2 100.0 2 4 6 0 1 2 1 2 18
p121
aVDerek Fisher LAL 05/17/2009 LAL vs. HOU W 24 6 2 5 40.0 0 1 0.0 2 2 100.0 0 1 1 1 1 0 1 2 13
p122
aVShannon Brown LAL 05/17/2009 LAL vs. HOU W 12 2 1 3 33.3 0 0 - 0 0 - 1 2 3 0 0 0 1 0 0
p123
aVTrevor Ariza LAL 05/17/2009 LAL vs. HOU W 29 15 5 9 55.6 2 3 66.7 3 4 75.0 1 4 5 1 0 2 2 2 14
p124
aVJosh Powell LAL 05/17/2009 LAL vs. HOU W 4 0 0 1 0.0 0 0 - 0 0 - 1 0 1 0 0 0 0 0 -10
p125
aVKobe Bryant LAL 05/17/2009 LAL vs. HOU W 33 14 4 12 33.3 1 4 25.0 5 6 83.3 1 6 7 5 3 2 1 4 20
p126
aVLuke Walton LAL 05/17/2009 LAL vs. HOU W 9 0 0 1 0.0 0 0 - 0 0 - 0 2 2 0 0 0 1 2 -5
p127
aVDJ Mbenga LAL 05/17/2009 LAL vs. HOU W 3 0 0 1 0.0 0 0 - 0 0 - 0 0 0 0 0 0 0 0 -12
p128
aVJordan Farmar LAL 05/17/2009 LAL vs. HOU W 20 2 1 5 20.0 0 1 0.0 0 1 0.0 0 2 2 3 1 0 3 1 13
p129
aVSasha Vujacic LAL 05/17/2009 LAL vs. HOU W 19 9 4 7 57.1 1 3 33.3 0 0 - 0 3 3 2 1 0 2 1 4
p130
aVPau Gasol LAL 05/14/2009 LAL @ HOU L 43 14 7 15 46.7 0 0 - 0 0 - 2 9 11 2 0 0 2 2 -15
p131
aVAndrew Bynum LAL 05/14/2009 LAL @ HOU L 19 0 0 3 0.0 0 0 - 0 0 - 4 3 7 1 1 0 1 3 -1
p132
aVShannon Brown LAL 05/14/2009 LAL @ HOU L 15 2 0 3 0.0 0 1 0.0 2 2 100.0 1 0 1 1 0 0 0 1 -6
p133
aVSasha Vujacic LAL 05/14/2009 LAL @ HOU L 7 2 1 3 33.3 0 0 - 0 0 - 1 1 2 1 0 0 0 2 -4
p134
aVDerek Fisher LAL 05/14/2009 LAL @ HOU L 21 2 1 7 14.3 0 5 0.0 0 0 - 0 0 0 1 0 0 1 1 -3
p135
aVJordan Farmar LAL 05/14/2009 LAL @ HOU L 21 13 5 10 50.0 3 5 60.0 0 0 - 0 2 2 0 1 0 2 3 -5
p136
aVLamar Odom LAL 05/14/2009 LAL @ HOU L 29 8 3 5 60.0 0 0 - 2 4 50.0 3 11 14 0 1 2 0 6 -8
p137
aVLuke Walton LAL 05/14/2009 LAL @ HOU L 16 0 0 5 0.0 0 2 0.0 0 0 - 1 1 2 0 0 0 0 2 -13
p138
aVKobe Bryant LAL 05/14/2009 LAL @ HOU L 38 32 11 27 40.7 1 5 20.0 9 10 90.0 1 1 2 3 1 3 2 2 -11
p139
aVTrevor Ariza LAL 05/14/2009 LAL @ HOU L 31 7 2 6 33.3 1 5 20.0 2 4 50.0 2 2 4 2 2 0 2 1 -9
p140
aVShannon Brown LAL 05/12/2009 LAL vs. HOU W 17 7 3 7 42.9 1 2 50.0 0 0 - 0 4 4 0 2 1 0 1 13
p141
aVAndrew Bynum LAL 05/12/2009 LAL vs. HOU W 20 14 5 6 83.3 0 0 - 4 4 100.0 3 3 6 0 0 0 0 2 10
p142
aVKobe Bryant LAL 05/12/2009 LAL vs. HOU W 31 26 10 19 52.6 1 3 33.3 5 6 83.3 0 4 4 3 1 1 4 3 30
p143
aVPau Gasol LAL 05/12/2009 LAL vs. HOU W 33 16 5 9 55.6 0 0 - 6 8 75.0 5 8 13 3 1 3 0 1 32
p144
aVDJ Mbenga LAL 05/12/2009 LAL vs. HOU W 6 2 1 3 33.3 0 0 - 0 0 - 0 2 2 0 0 1 1 0 7
p145
aVLuke Walton LAL 05/12/2009 LAL vs. HOU W 21 4 1 2 50.0 0 0 - 2 2 100.0 0 6 6 3 2 0 1 3 17
p146
aVJosh Powell LAL 05/12/2009 LAL vs. HOU W 16 10 4 7 57.1 0 0 - 2 2 100.0 1 2 3 1 0 0 1 1 5
p147
aVJordan Farmar LAL 05/12/2009 LAL vs. HOU W 22 12 4 7 57.1 2 2 100.0 2 3 66.7 0 2 2 6 1 0 1 1 20
p148
aVSasha Vujacic LAL 05/12/2009 LAL vs. HOU W 14 2 1 5 20.0 0 2 0.0 0 0 - 0 1 1 0 0 1 0 3 3
p149
aVTrevor Ariza LAL 05/12/2009 LAL vs. HOU W 24 13 5 8 62.5 1 2 50.0 2 5 40.0 0 2 2 3 3 0 2 1 23
p150
aVDerek Fisher LAL 05/12/2009 LAL vs. HOU W 18 2 1 6 16.7 0 1 0.0 0 0 - 0 0 0 0 1 0 0 2 9
p151
aVLamar Odom LAL 05/12/2009 LAL vs. HOU W 19 10 2 3 66.7 1 1 100.0 5 6 83.3 3 3 6 1 1 0 2 0 31
p152
aVJordan Farmar LAL 05/10/2009 LAL @ HOU L 21 7 2 7 28.6 1 3 33.3 2 2 100.0 0 3 3 1 0 0 0 3 9
p153
aVKobe Bryant LAL 05/10/2009 LAL @ HOU L 35 15 7 17 41.2 1 4 25.0 0 0 - 0 2 2 5 4 0 0 1 -12
p154
aVLuke Walton LAL 05/10/2009 LAL @ HOU L 22 5 2 3 66.7 1 1 100.0 0 0 - 1 4 5 1 0 0 4 1 11
p155
aVPau Gasol LAL 05/10/2009 LAL @ HOU L 39 30 11 17 64.7 0 0 - 8 13 61.5 3 6 9 1 0 2 1 4 -6
p156
aVSasha Vujacic LAL 05/10/2009 LAL @ HOU L 19 7 2 7 28.6 2 4 50.0 1 1 100.0 0 0 0 1 1 0 0 2 8
p157
aVJosh Powell LAL 05/10/2009 LAL @ HOU L 7 0 0 1 0.0 0 0 - 0 0 - 0 3 3 0 0 0 0 0 -3
p158
aVDerek Fisher LAL 05/10/2009 LAL @ HOU L 20 2 1 4 25.0 0 1 0.0 0 0 - 0 2 2 0 1 0 0 0 -26
p159
aVAndrew Bynum LAL 05/10/2009 LAL @ HOU L 12 0 0 1 0.0 0 0 - 0 0 - 1 1 2 0 0 0 1 3 -10
p160
aVTrevor Ariza LAL 05/10/2009 LAL @ HOU L 23 5 2 4 50.0 1 1 100.0 0 2 0.0 1 1 2 2 0 0 3 2 -22
p161
aVLamar Odom LAL 05/10/2009 LAL @ HOU L 25 2 1 4 25.0 0 1 0.0 0 0 - 1 5 6 3 0 2 2 3 -23
p162
aVShannon Brown LAL 05/10/2009 LAL @ HOU L 18 14 6 11 54.5 2 3 66.7 0 0 - 1 2 3 0 1 0 0 3 14
p163
aVPau Gasol LAL 05/08/2009 LAL @ HOU W 36 13 4 11 36.4 0 0 - 5 7 71.4 3 3 6 3 0 1 0 4 13
p164
aVShannon Brown LAL 05/08/2009 LAL @ HOU W 15 8 2 2 100.0 0 0 - 4 4 100.0 0 1 1 0 0 0 1 1 -4
p165
aVAndrew Bynum LAL 05/08/2009 LAL @ HOU W 12 4 2 2 100.0 0 0 - 0 0 - 1 4 5 0 0 2 0 3 1
p166
aVJordan Farmar LAL 05/08/2009 LAL @ HOU W 33 12 3 7 42.9 0 3 0.0 6 8 75.0 2 3 5 7 2 1 1 0 18
p167
aVTrevor Ariza LAL 05/08/2009 LAL @ HOU W 32 13 4 7 57.1 3 4 75.0 2 4 50.0 0 5 5 2 4 0 1 5 16
p168
aVSasha Vujacic LAL 05/08/2009 LAL @ HOU W 13 3 1 6 16.7 1 3 33.3 0 0 - 0 1 1 0 1 0 0 2 -3
p169
aVLamar Odom LAL 05/08/2009 LAL @ HOU W 34 16 7 11 63.6 2 2 100.0 0 0 - 2 11 13 0 1 2 3 3 11
p170
aVLuke Walton LAL 05/08/2009 LAL @ HOU W 19 6 2 6 33.3 1 2 50.0 1 2 50.0 0 1 1 2 1 0 0 2 2
p171
aVJosh Powell LAL 05/08/2009 LAL @ HOU W 3 0 0 2 0.0 0 0 - 0 0 - 0 0 0 0 0 0 0 0 -1
p172
aVKobe Bryant LAL 05/08/2009 LAL @ HOU W 44 33 11 28 39.3 4 6 66.7 7 8 87.5 2 4 6 3 2 3 0 2 17
p173
aVAndrew Bynum LAL 05/06/2009 LAL vs. HOU W 9 0 0 2 0.0 0 0 - 0 0 - 1 0 1 1 1 1 0 3 -6
p174
aVPau Gasol LAL 05/06/2009 LAL vs. HOU W 38 22 9 13 69.2 0 0 - 4 6 66.7 5 9 14 4 0 4 1 2 19
p175
aVJordan Farmar LAL 05/06/2009 LAL vs. HOU W 18 5 2 7 28.6 1 2 50.0 0 0 - 0 0 0 1 1 0 0 0 -4
p176
aVKobe Bryant LAL 05/06/2009 LAL vs. HOU W 40 40 16 27 59.3 2 3 66.7 6 7 85.7 2 4 6 3 1 0 2 1 19
p177
aVLuke Walton LAL 05/06/2009 LAL vs. HOU W 20 6 2 7 28.6 0 2 0.0 2 2 100.0 0 1 1 5 2 0 0 2 6
p178
aVTrevor Ariza LAL 05/06/2009 LAL vs. HOU W 25 8 3 8 37.5 1 3 33.3 1 2 50.0 1 2 3 3 0 1 1 3 11
p179
aVLamar Odom LAL 05/06/2009 LAL vs. HOU W 35 7 2 7 28.6 0 1 0.0 3 6 50.0 5 6 11 4 1 1 4 1 15
p180
aVJosh Powell LAL 05/06/2009 LAL vs. HOU W 3 0 0 0 - 0 0 - 0 0 - 0 0 0 0 0 0 1 1 -6
p181
aVSasha Vujacic LAL 05/06/2009 LAL vs. HOU W 10 4 2 3 66.7 0 1 0.0 0 0 - 0 1 1 0 1 0 1 3 -1
p182
aVShannon Brown LAL 05/06/2009 LAL vs. HOU W 14 7 3 5 60.0 1 2 50.0 0 0 - 0 1 1 0 2 0 0 1 -3
p183
aVDerek Fisher LAL 05/06/2009 LAL vs. HOU W 28 12 4 7 57.1 1 3 33.3 3 3 100.0 0 2 2 2 1 1 1 3 15
p184
aVSasha Vujacic LAL 05/04/2009 LAL vs. HOU L 14 2 1 4 25.0 0 2 0.0 0 0 - 1 0 1 1 1 0 1 4 0
p185
aVLamar Odom LAL 05/04/2009 LAL vs. HOU L 31 9 4 8 50.0 0 0 - 1 6 16.7 4 1 5 3 1 2 1 5 0
p186
aVDerek Fisher LAL 05/04/2009 LAL vs. HOU L 33 8 3 10 30.0 0 4 0.0 2 2 100.0 1 3 4 3 1 0 2 2 -11
p187
aVPau Gasol LAL 05/04/2009 LAL vs. HOU L 44 14 6 14 42.9 0 0 - 2 2 100.0 5 8 13 4 3 1 4 4 -7
p188
aVJosh Powell LAL 05/04/2009 LAL vs. HOU L 5 2 1 2 50.0 0 0 - 0 0 - 0 1 1 0 0 0 0 1 -4
p189
aVTrevor Ariza LAL 05/04/2009 LAL vs. HOU L 38 10 4 8 50.0 0 4 0.0 2 2 100.0 0 4 4 1 2 1 2 2 -10
p190
aVKobe Bryant LAL 05/04/2009 LAL vs. HOU L 44 32 14 31 45.2 1 7 14.3 3 5 60.0 0 8 8 4 2 0 2 3 -6
p191
aVJordan Farmar LAL 05/04/2009 LAL vs. HOU L 3 3 1 1 100.0 1 1 100.0 0 0 - 0 0 0 0 0 0 0 0 4
p192
aVShannon Brown LAL 05/04/2009 LAL vs. HOU L 13 2 0 0 - 0 0 - 2 2 100.0 0 0 0 1 1 0 1 2 -3
p193
aVAndrew Bynum LAL 05/04/2009 LAL vs. HOU L 15 10 5 10 50.0 0 0 - 0 0 - 1 2 3 1 0 0 0 3 -3
p194
aVLamar Odom LAL 04/27/2009 LAL vs. UTA W 38 26 10 15 66.7 2 4 50.0 4 6 66.7 5 10 15 4 0 3 3 2 17
p195
aVTrevor Ariza LAL 04/27/2009 LAL vs. UTA W 27 12 4 6 66.7 2 4 50.0 2 4 50.0 2 5 7 4 1 2 4 4 8
p196
aVShannon Brown LAL 04/27/2009 LAL vs. UTA W 19 2 1 5 20.0 0 2 0.0 0 0 - 0 3 3 2 0 0 1 0 -1
p197
aVJosh Powell LAL 04/27/2009 LAL vs. UTA W 12 2 1 2 50.0 0 0 - 0 0 - 1 2 3 1 0 0 0 1 -8
p198
aVKobe Bryant LAL 04/27/2009 LAL vs. UTA W 43 31 10 21 47.6 3 4 75.0 8 9 88.9 0 2 2 4 4 1 5 2 18
p199
aVPau Gasol LAL 04/27/2009 LAL vs. UTA W 36 17 6 13 46.2 0 0 - 5 8 62.5 3 8 11 4 0 0 1 4 9
p200
aVDerek Fisher LAL 04/27/2009 LAL vs. UTA W 29 9 2 5 40.0 0 2 0.0 5 6 83.3 0 1 1 3 1 0 0 4 12
p201
aVAndrew Bynum LAL 04/27/2009 LAL vs. UTA W 12 2 0 3 0.0 0 0 - 2 2 100.0 3 2 5 0 0 1 0 2 2
p202
aVSasha Vujacic LAL 04/27/2009 LAL vs. UTA W 24 6 2 10 20.0 2 5 40.0 0 0 - 1 2 3 1 2 1 2 2 -2
p203
aVLuke Walton LAL 04/25/2009 LAL @ UTA W 18 9 3 6 50.0 1 1 100.0 2 2 100.0 3 2 5 3 3 0 2 2 4
p204
aVTrevor Ariza LAL 04/25/2009 LAL @ UTA W 28 5 2 5 40.0 1 3 33.3 0 0 - 0 4 4 2 2 0 1 4 5
p205
aVPau Gasol LAL 04/25/2009 LAL @ UTA W 41 13 4 8 50.0 0 0 - 5 7 71.4 2 8 10 1 0 1 4 3 15
p206
aVAndrew Bynum LAL 04/25/2009 LAL @ UTA W 7 2 1 2 50.0 0 0 - 0 0 - 0 1 1 0 0 0 2 2 1
p207
aVKobe Bryant LAL 04/25/2009 LAL @ UTA W 40 38 16 24 66.7 1 2 50.0 5 5 100.0 0 6 6 1 2 0 3 2 4
p208
aVJosh Powell LAL 04/25/2009 LAL @ UTA W 0 0 0 0 - 0 0 - 0 0 - 0 0 0 0 0 0 0 0 -2
p209
aVShannon Brown LAL 04/25/2009 LAL @ UTA W 20 10 3 5 60.0 1 1 100.0 3 5 60.0 1 0 1 1 2 0 1 3 8
p210
aVDerek Fisher LAL 04/25/2009 LAL @ UTA W 28 12 4 8 50.0 1 4 25.0 3 4 75.0 0 1 1 4 1 0 0 5 6
p211
aVLamar Odom LAL 04/25/2009 LAL @ UTA W 41 10 4 10 40.0 0 0 - 2 5 40.0 2 13 15 6 1 2 1 2 20
p212
aVSasha Vujacic LAL 04/25/2009 LAL @ UTA W 17 9 3 9 33.3 3 8 37.5 0 0 - 0 3 3 1 0 0 0 1 9
p213
aVAndrew Bynum LAL 04/23/2009 LAL @ UTA L 7 4 1 2 50.0 0 0 - 2 2 100.0 1 1 2 0 0 0 2 5 0
p214
aVDerek Fisher LAL 04/23/2009 LAL @ UTA L 38 7 3 8 37.5 1 3 33.3 0 0 - 0 3 3 2 0 0 0 2 0
p215
aVPau Gasol LAL 04/23/2009 LAL @ UTA L 43 20 8 15 53.3 0 0 - 4 10 40.0 5 4 9 1 2 1 2 4 -6
p216
aVLuke Walton LAL 04/23/2009 LAL @ UTA L 8 1 0 2 0.0 0 1 0.0 1 2 50.0 0 0 0 0 0 0 0 1 0
p217
aVJosh Powell LAL 04/23/2009 LAL @ UTA L 2 0 0 1 0.0 0 0 - 0 0 - 0 0 0 0 0 0 0 0 2
p218
aVTrevor Ariza LAL 04/23/2009 LAL @ UTA L 38 9 3 9 33.3 2 4 50.0 1 2 50.0 1 0 1 4 0 0 2 3 -4
p219
aVLamar Odom LAL 04/23/2009 LAL @ UTA L 41 21 10 17 58.8 1 2 50.0 0 0 - 5 9 14 1 1 1 1 2 7
p220
aVShannon Brown LAL 04/23/2009 LAL @ UTA L 10 3 1 4 25.0 0 0 - 1 2 50.0 0 0 0 1 0 0 0 3 -2
p221
aVKobe Bryant LAL 04/23/2009 LAL @ UTA L 43 18 5 24 20.8 1 4 25.0 7 8 87.5 2 5 7 6 2 0 2 4 -7
p222
aVSasha Vujacic LAL 04/23/2009 LAL @ UTA L 9 3 1 5 20.0 1 3 33.3 0 0 - 2 2 4 0 2 0 0 1 0
p223
aVTrevor Ariza LAL 04/21/2009 LAL vs. UTA W 32 13 5 6 83.3 3 3 100.0 0 0 - 1 3 4 9 2 0 1 5 11
p224
aVJordan Farmar LAL 04/21/2009 LAL vs. UTA W 4 2 1 2 50.0 0 1 0.0 0 0 - 0 0 0 0 1 0 0 1 -5
p225
aVPau Gasol LAL 04/21/2009 LAL vs. UTA W 36 22 9 11 81.8 0 0 - 4 6 66.7 2 4 6 1 0 2 5 1 17
p226
aVDerek Fisher LAL 04/21/2009 LAL vs. UTA W 28 11 3 7 42.9 3 6 50.0 2 3 66.7 0 1 1 5 2 0 5 3 6
p227
aVSasha Vujacic LAL 04/21/2009 LAL vs. UTA W 15 0 0 3 0.0 0 1 0.0 0 0 - 1 1 2 0 0 0 1 2 -5
p228
aVKobe Bryant LAL 04/21/2009 LAL vs. UTA W 38 26 8 17 47.1 1 3 33.3 9 10 90.0 0 6 6 9 2 0 3 2 17
p229
aVAndrew Bynum LAL 04/21/2009 LAL vs. UTA W 31 10 5 11 45.5 0 0 - 0 2 0.0 0 4 4 2 0 4 3 2 -3
p230
aVLamar Odom LAL 04/21/2009 LAL vs. UTA W 28 19 8 9 88.9 2 3 66.7 1 1 100.0 1 2 3 0 0 0 2 4 6
p231
aVShannon Brown LAL 04/21/2009 LAL vs. UTA W 16 12 4 6 66.7 2 3 66.7 2 2 100.0 0 0 0 2 1 0 0 2 9
p232
aVLuke Walton LAL 04/21/2009 LAL vs. UTA W 11 4 2 3 66.7 0 0 - 0 0 - 2 2 4 5 0 0 1 1 -3
p233
aVShannon Brown LAL 04/19/2009 LAL vs. UTA W 22 9 3 4 75.0 3 3 100.0 0 0 - 2 0 2 3 1 0 2 3 20
p234
aVJosh Powell LAL 04/19/2009 LAL vs. UTA W 4 6 2 4 50.0 0 0 - 2 2 100.0 2 0 2 0 0 0 0 1 1
p235
aVAndrew Bynum LAL 04/19/2009 LAL vs. UTA W 20 7 2 5 40.0 0 0 - 3 5 60.0 0 3 3 0 1 0 2 5 1
p236
aVLamar Odom LAL 04/19/2009 LAL vs. UTA W 34 13 5 8 62.5 0 1 0.0 3 5 60.0 1 7 8 1 0 2 2 4 15
p237
aVJordan Farmar LAL 04/19/2009 LAL vs. UTA W 4 0 0 1 0.0 0 0 - 0 0 - 0 0 0 1 0 1 1 0 1
p238
aVDerek Fisher LAL 04/19/2009 LAL vs. UTA W 23 8 2 4 50.0 0 1 0.0 4 4 100.0 0 4 4 1 0 0 1 3 -8
p239
aVPau Gasol LAL 04/19/2009 LAL vs. UTA W 37 20 7 11 63.6 0 0 - 6 6 100.0 1 8 9 1 2 4 1 6 8
p240
aVSasha Vujacic LAL 04/19/2009 LAL vs. UTA W 12 0 0 2 0.0 0 1 0.0 0 0 - 0 1 1 2 1 1 0 2 8
p241
aVLuke Walton LAL 04/19/2009 LAL vs. UTA W 11 5 2 6 33.3 1 1 100.0 0 0 - 1 0 1 3 1 0 0 1 0
p242
aVKobe Bryant LAL 04/19/2009 LAL vs. UTA W 40 24 9 17 52.9 0 4 0.0 6 7 85.7 0 4 4 8 2 1 6 2 13
p243
aVTrevor Ariza LAL 04/19/2009 LAL vs. UTA W 34 21 8 10 80.0 3 4 75.0 2 3 66.7 0 4 4 2 0 0 2 2 6
p244
a.