(lp0
VPLAYER TEAM DATE MATCHUP W/L MIN PTS FGM FGA FG% 3PM 3PA 3P% FTM FTA FT% OREB DREB REB AST STL BLK TOV PF +/-
p1
aVJerryd Bayless POR 04/30/2009 POR @ HOU L 3 2 1 2 50.0 0 0 - 0 0 - 0 1 1 0 0 0 0 0 4
p2
aVTravis Outlaw POR 04/30/2009 POR @ HOU L 26 9 2 9 22.2 1 2 50.0 4 4 100.0 0 3 3 1 0 0 0 3 -18
p3
aVSergio Rodriguez POR 04/30/2009 POR @ HOU L 5 0 0 0 - 0 0 - 0 0 - 0 1 1 2 0 0 0 0 3
p4
aVBrandon Roy POR 04/30/2009 POR @ HOU L 42 22 8 17 47.1 2 3 66.7 4 6 66.7 1 3 4 4 1 0 3 1 -16
p5
aVRudy Fernandez POR 04/30/2009 POR @ HOU L 41 2 1 7 14.3 0 3 0.0 0 0 - 2 6 8 1 0 1 3 2 -22
p6
aVChanning Frye POR 04/30/2009 POR @ HOU L 3 2 1 2 50.0 0 0 - 0 0 - 0 0 0 0 0 0 0 0 4
p7
aVSteve Blake POR 04/30/2009 POR @ HOU L 41 2 1 4 25.0 0 2 0.0 0 0 - 0 5 5 5 2 0 4 1 -18
p8
aVGreg Oden POR 04/30/2009 POR @ HOU L 16 3 1 3 33.3 0 0 - 1 2 50.0 3 3 6 0 0 2 4 4 -1
p9
aVLaMarcus Aldridge POR 04/30/2009 POR @ HOU L 34 26 12 21 57.1 0 0 - 2 2 100.0 0 5 5 1 0 1 1 4 -7
p10
aVJoel Przybilla POR 04/30/2009 POR @ HOU L 27 3 1 3 33.3 0 0 - 1 2 50.0 6 2 8 0 0 5 0 2 -13
p11
aVNicolas Batum POR 04/30/2009 POR @ HOU L 3 5 2 3 66.7 1 1 100.0 0 0 - 1 0 1 0 0 0 0 0 4
p12
aVGreg Oden POR 04/28/2009 POR vs. HOU W 14 2 0 1 0.0 0 0 - 2 4 50.0 1 3 4 0 1 2 2 4 5
p13
aVBrandon Roy POR 04/28/2009 POR vs. HOU W 39 25 9 20 45.0 2 4 50.0 5 6 83.3 1 3 4 3 2 1 2 1 20
p14
aVTravis Outlaw POR 04/28/2009 POR vs. HOU W 27 10 4 13 30.8 1 3 33.3 1 2 50.0 0 5 5 0 1 0 0 1 -2
p15
aVSergio Rodriguez POR 04/28/2009 POR vs. HOU W 5 0 0 1 0.0 0 0 - 0 0 - 0 0 0 2 0 1 0 1 0
p16
aVNicolas Batum POR 04/28/2009 POR vs. HOU W 6 0 0 0 - 0 0 - 0 0 - 0 0 0 0 0 0 1 0 3
p17
aVSteve Blake POR 04/28/2009 POR vs. HOU W 40 15 5 7 71.4 2 2 100.0 3 4 75.0 2 5 7 3 0 0 1 1 10
p18
aVJoel Przybilla POR 04/28/2009 POR vs. HOU W 33 4 2 3 66.7 0 0 - 0 0 - 1 5 6 4 2 2 0 2 6
p19
aVLaMarcus Aldridge POR 04/28/2009 POR vs. HOU W 41 25 11 20 55.0 0 1 0.0 3 5 60.0 2 5 7 2 1 0 2 1 3
p20
aVRudy Fernandez POR 04/28/2009 POR vs. HOU W 35 7 2 7 28.6 1 4 25.0 2 2 100.0 0 4 4 0 3 2 3 1 10
p21
aVJoel Przybilla POR 04/26/2009 POR @ HOU L 27 4 2 2 100.0 0 0 - 0 0 - 5 7 12 1 1 2 1 4 4
p22
aVTravis Outlaw POR 04/26/2009 POR @ HOU L 32 14 6 14 42.9 2 4 50.0 0 0 - 1 3 4 0 2 2 2 3 -3
p23
aVSteve Blake POR 04/26/2009 POR @ HOU L 43 11 4 9 44.4 2 5 40.0 1 1 100.0 0 3 3 8 0 0 1 5 -7
p24
aVGreg Oden POR 04/26/2009 POR @ HOU L 11 0 0 1 0.0 0 0 - 0 0 - 0 3 3 0 0 0 1 5 -5
p25
aVNicolas Batum POR 04/26/2009 POR @ HOU L 10 2 1 2 50.0 0 1 0.0 0 0 - 0 0 0 1 0 1 2 1 0
p26
aVChanning Frye POR 04/26/2009 POR @ HOU L 3 0 0 2 0.0 0 0 - 0 0 - 0 0 0 0 0 0 0 0 0
p27
aVRudy Fernandez POR 04/26/2009 POR @ HOU L 24 5 2 5 40.0 1 2 50.0 0 0 - 0 4 4 1 1 0 0 2 5
p28
aVBrandon Roy POR 04/26/2009 POR @ HOU L 43 31 8 17 47.1 2 2 100.0 13 13 100.0 1 4 5 5 3 3 4 4 2
p29
aVLaMarcus Aldridge POR 04/26/2009 POR @ HOU L 45 19 8 17 47.1 0 1 0.0 3 3 100.0 2 8 10 2 0 1 1 1 -1
p30
aVSergio Rodriguez POR 04/26/2009 POR @ HOU L 3 2 1 1 100.0 0 0 - 0 0 - 0 0 0 0 0 0 1 2 0
p31
aVBrandon Roy POR 04/24/2009 POR @ HOU L 41 19 6 18 33.3 0 3 0.0 7 8 87.5 3 4 7 2 2 1 3 6 -5
p32
aVRudy Fernandez POR 04/24/2009 POR @ HOU L 22 17 6 9 66.7 5 7 71.4 0 0 - 0 0 0 3 2 0 1 3 -4
p33
aVGreg Oden POR 04/24/2009 POR @ HOU L 21 6 3 5 60.0 0 0 - 0 0 - 2 2 4 0 0 0 1 5 8
p34
aVTravis Outlaw POR 04/24/2009 POR @ HOU L 31 4 2 11 18.2 0 4 0.0 0 0 - 0 3 3 2 0 1 1 1 13
p35
aVChanning Frye POR 04/24/2009 POR @ HOU L 10 6 2 5 40.0 0 0 - 2 2 100.0 1 0 1 1 0 0 0 1 -3
p36
aVLaMarcus Aldridge POR 04/24/2009 POR @ HOU L 44 13 6 15 40.0 1 1 100.0 0 0 - 1 7 8 1 1 5 4 4 3
p37
aVSteve Blake POR 04/24/2009 POR @ HOU L 40 16 6 11 54.5 4 7 57.1 0 0 - 0 3 3 10 1 0 2 1 2
p38
aVJoel Przybilla POR 04/24/2009 POR @ HOU L 20 2 1 1 100.0 0 0 - 0 0 - 2 4 6 0 1 2 0 4 -18
p39
aVNicolas Batum POR 04/24/2009 POR @ HOU L 10 0 0 1 0.0 0 1 0.0 0 0 - 0 0 0 0 0 0 0 0 -11
p40
aVBrandon Roy POR 04/21/2009 POR vs. HOU W 42 42 15 27 55.6 2 3 66.7 10 12 83.3 0 7 7 1 0 1 0 1 5
p41
aVJoel Przybilla POR 04/21/2009 POR vs. HOU W 38 2 0 1 0.0 0 0 - 2 4 50.0 1 6 7 3 0 1 2 5 -2
p42
aVSergio Rodriguez POR 04/21/2009 POR vs. HOU W 3 0 0 0 - 0 0 - 0 0 - 0 1 1 1 0 0 0 1 1
p43
aVGreg Oden POR 04/21/2009 POR vs. HOU W 12 4 1 4 25.0 0 0 - 2 2 100.0 3 1 4 0 1 0 0 6 7
p44
aVLaMarcus Aldridge POR 04/21/2009 POR vs. HOU W 44 27 11 19 57.9 0 0 - 5 8 62.5 2 10 12 0 1 3 0 5 8
p45
aVTravis Outlaw POR 04/21/2009 POR vs. HOU W 28 8 3 9 33.3 0 2 0.0 2 4 50.0 0 1 1 0 1 1 0 1 9
p46
aVSteve Blake POR 04/21/2009 POR vs. HOU W 39 10 4 8 50.0 1 4 25.0 1 2 50.0 0 1 1 5 0 0 1 1 -1
p47
aVRudy Fernandez POR 04/21/2009 POR vs. HOU W 19 11 3 4 75.0 1 1 100.0 4 4 100.0 0 1 1 1 2 0 2 2 -3
p48
aVNicolas Batum POR 04/21/2009 POR vs. HOU W 15 3 1 2 50.0 1 1 100.0 0 0 - 0 2 2 0 0 1 0 4 -4
p49
aVTravis Outlaw POR 04/18/2009 POR vs. HOU L 26 9 4 10 40.0 0 1 0.0 1 2 50.0 1 1 2 0 1 0 2 1 -15
p50
aVJerryd Bayless POR 04/18/2009 POR vs. HOU L 9 4 1 4 25.0 0 1 0.0 2 3 66.7 0 0 0 0 0 1 1 0 -1
p51
aVBrandon Roy POR 04/18/2009 POR vs. HOU L 32 21 10 23 43.5 0 2 0.0 1 1 100.0 0 2 2 2 0 1 1 2 -23
p52
aVLaMarcus Aldridge POR 04/18/2009 POR vs. HOU L 30 7 3 12 25.0 0 1 0.0 1 2 50.0 2 1 3 2 0 0 2 1 -24
p53
aVRudy Fernandez POR 04/18/2009 POR vs. HOU L 20 3 1 3 33.3 0 2 0.0 1 1 100.0 0 0 0 0 0 0 0 2 -6
p54
aVJoel Przybilla POR 04/18/2009 POR vs. HOU L 17 8 4 8 50.0 0 0 - 0 0 - 4 1 5 0 0 0 0 4 -15
p55
aVNicolas Batum POR 04/18/2009 POR vs. HOU L 19 2 1 1 100.0 0 0 - 0 0 - 0 0 0 0 1 0 0 2 -17
p56
aVMichael Ruffin POR 04/18/2009 POR vs. HOU L 5 1 0 1 0.0 0 0 - 1 2 50.0 3 2 5 0 0 0 1 1 2
p57
aVSteve Blake POR 04/18/2009 POR vs. HOU L 29 5 2 6 33.3 1 4 25.0 0 0 - 2 3 5 6 2 0 0 2 -18
p58
aVChanning Frye POR 04/18/2009 POR vs. HOU L 20 4 2 5 40.0 0 0 - 0 1 0.0 0 2 2 0 0 0 0 4 -15
p59
aVGreg Oden POR 04/18/2009 POR vs. HOU L 22 15 6 7 85.7 0 0 - 3 4 75.0 2 3 5 0 0 1 0 3 -5
p60
aVSergio Rodriguez POR 04/18/2009 POR vs. HOU L 11 2 1 4 25.0 0 0 - 0 0 - 1 0 1 2 0 0 1 1 2
p61
a.