(lp0
VPLAYER TEAM DATE MATCHUP W/L MIN PTS FGM FGA FG% 3PM 3PA 3P% FTM FTA FT% OREB DREB REB AST STL BLK TOV PF +/-
p1
aVVon Wafer HOU 05/17/2009 HOU @ LAL L 16 10 5 11 45.5 0 1 0.0 0 1 0.0 0 2 2 0 0 0 1 0 -12
p2
aVLuis Scola HOU 05/17/2009 HOU @ LAL L 39 11 4 12 33.3 0 0 - 3 6 50.0 1 5 6 1 1 0 3 4 -23
p3
aVKyle Lowry HOU 05/17/2009 HOU @ LAL L 18 8 2 2 100.0 2 2 100.0 2 2 100.0 0 2 2 3 2 0 2 1 -5
p4
aVMetta World Peace HOU 05/17/2009 HOU @ LAL L 39 7 3 10 30.0 1 6 16.7 0 1 0.0 0 8 8 5 1 0 1 2 -24
p5
aVAaron Brooks HOU 05/17/2009 HOU @ LAL L 39 13 4 13 30.8 2 3 66.7 3 3 100.0 0 3 3 3 1 0 5 3 -24
p6
aVCharles Hayes HOU 05/17/2009 HOU @ LAL L 25 8 4 8 50.0 0 1 0.0 0 0 - 1 4 5 1 5 1 2 2 -12
p7
aVBrian Cook HOU 05/17/2009 HOU @ LAL L 3 2 1 1 100.0 0 0 - 0 0 - 0 1 1 1 0 0 0 0 12
p8
aVJames White HOU 05/17/2009 HOU @ LAL L 3 4 2 2 100.0 0 0 - 0 0 - 0 0 0 0 0 0 0 0 12
p9
aVShane Battier HOU 05/17/2009 HOU @ LAL L 32 3 1 6 16.7 0 4 0.0 1 1 100.0 3 1 4 1 1 1 1 4 -16
p10
aVCarl Landry HOU 05/17/2009 HOU @ LAL L 22 4 2 10 20.0 0 2 0.0 0 0 - 0 2 2 1 2 1 0 3 -4
p11
aVBrent Barry HOU 05/17/2009 HOU @ LAL L 6 0 0 1 0.0 0 1 0.0 0 0 - 0 0 0 1 0 0 0 1 1
p12
aVShane Battier HOU 05/14/2009 HOU vs. LAL W 41 5 2 8 25.0 1 6 16.7 0 0 - 1 4 5 4 1 0 1 4 8
p13
aVCarl Landry HOU 05/14/2009 HOU vs. LAL W 27 15 6 6 100.0 0 0 - 3 6 50.0 2 7 9 0 0 2 2 3 19
p14
aVKyle Lowry HOU 05/14/2009 HOU vs. LAL W 15 4 1 6 16.7 0 0 - 2 2 100.0 0 2 2 4 0 0 0 1 7
p15
aVVon Wafer HOU 05/14/2009 HOU vs. LAL W 5 5 2 3 66.7 1 1 100.0 0 0 - 0 0 0 0 0 0 0 0 1
p16
aVLuis Scola HOU 05/14/2009 HOU vs. LAL W 36 24 10 17 58.8 0 0 - 4 5 80.0 2 10 12 2 0 0 0 3 6
p17
aVMetta World Peace HOU 05/14/2009 HOU vs. LAL W 44 14 6 17 35.3 2 7 28.6 0 2 0.0 0 3 3 3 2 0 3 3 19
p18
aVCharles Hayes HOU 05/14/2009 HOU vs. LAL W 30 2 1 1 100.0 0 0 - 0 0 - 2 3 5 2 1 0 0 4 3
p19
aVAaron Brooks HOU 05/14/2009 HOU vs. LAL W 41 26 8 13 61.5 3 4 75.0 7 7 100.0 0 3 3 4 2 0 4 1 12
p20
aVAaron Brooks HOU 05/12/2009 HOU @ LAL L 30 14 4 11 36.4 0 3 0.0 6 6 100.0 0 1 1 2 0 0 2 2 -32
p21
aVLuis Scola HOU 05/12/2009 HOU @ LAL L 31 12 4 10 40.0 0 0 - 4 4 100.0 5 8 13 4 0 0 2 4 -13
p22
aVCharles Hayes HOU 05/12/2009 HOU @ LAL L 17 6 3 6 50.0 0 0 - 0 0 - 3 1 4 0 0 0 0 5 -8
p23
aVBrent Barry HOU 05/12/2009 HOU @ LAL L 19 8 3 5 60.0 2 4 50.0 0 0 - 0 4 4 1 2 0 3 1 -12
p24
aVKyle Lowry HOU 05/12/2009 HOU @ LAL L 18 2 1 7 14.3 0 3 0.0 0 0 - 0 2 2 4 0 0 0 2 -8
p25
aVMetta World Peace HOU 05/12/2009 HOU @ LAL L 29 9 4 15 26.7 1 7 14.3 0 0 - 1 3 4 1 1 1 4 3 -25
p26
aVBrian Cook HOU 05/12/2009 HOU @ LAL L 19 0 0 7 0.0 0 4 0.0 0 0 - 2 5 7 1 1 1 3 2 -28
p27
aVJames White HOU 05/12/2009 HOU @ LAL L 6 0 0 6 0.0 0 1 0.0 0 0 - 1 0 1 0 0 0 1 0 -7
p28
aVVon Wafer HOU 05/12/2009 HOU @ LAL L 13 13 4 9 44.4 1 3 33.3 4 4 100.0 0 0 0 2 0 0 1 0 -8
p29
aVCarl Landry HOU 05/12/2009 HOU @ LAL L 28 9 4 6 66.7 0 0 - 1 2 50.0 2 1 3 0 0 1 1 3 -31
p30
aVShane Battier HOU 05/12/2009 HOU @ LAL L 29 5 2 7 28.6 1 4 25.0 0 0 - 2 1 3 0 0 1 0 3 -28
p31
aVCarl Landry HOU 05/10/2009 HOU vs. LAL W 12 2 1 3 33.3 0 0 - 0 0 - 0 1 1 1 0 0 0 1 3
p32
aVBrian Cook HOU 05/10/2009 HOU vs. LAL W 4 3 1 2 50.0 1 1 100.0 0 0 - 0 0 0 0 0 0 0 2 1
p33
aVShane Battier HOU 05/10/2009 HOU vs. LAL W 40 23 6 12 50.0 5 10 50.0 6 6 100.0 3 1 4 1 0 1 1 1 5
p34
aVVon Wafer HOU 05/10/2009 HOU vs. LAL W 7 4 2 3 66.7 0 1 0.0 0 0 - 0 0 0 0 0 0 1 0 3
p35
aVKyle Lowry HOU 05/10/2009 HOU vs. LAL W 27 12 5 8 62.5 0 2 0.0 2 2 100.0 0 2 2 2 2 1 1 1 -12
p36
aVLuis Scola HOU 05/10/2009 HOU vs. LAL W 32 11 4 11 36.4 0 0 - 3 6 50.0 2 12 14 2 0 0 1 3 19
p37
aVMetta World Peace HOU 05/10/2009 HOU vs. LAL W 44 8 4 19 21.1 0 6 0.0 0 0 - 2 8 10 6 1 0 2 2 16
p38
aVCharles Hayes HOU 05/10/2009 HOU vs. LAL W 35 2 1 2 50.0 0 0 - 0 0 - 3 6 9 2 4 1 1 4 16
p39
aVAaron Brooks HOU 05/10/2009 HOU vs. LAL W 39 34 12 20 60.0 4 9 44.4 6 6 100.0 1 2 3 4 0 1 3 2 9
p40
aVMetta World Peace HOU 05/08/2009 HOU vs. LAL L 37 25 10 23 43.5 2 8 25.0 3 4 75.0 2 4 6 1 0 1 4 4 -17
p41
aVAaron Brooks HOU 05/08/2009 HOU vs. LAL L 27 7 3 8 37.5 1 2 50.0 0 0 - 0 3 3 1 0 0 3 5 -16
p42
aVLuis Scola HOU 05/08/2009 HOU vs. LAL L 27 10 5 11 45.5 0 0 - 0 2 0.0 4 8 12 0 0 0 3 3 -18
p43
aVCarl Landry HOU 05/08/2009 HOU vs. LAL L 21 10 4 7 57.1 0 0 - 2 2 100.0 2 4 6 0 0 0 0 1 2
p44
aVYao Ming HOU 05/08/2009 HOU vs. LAL L 40 19 6 14 42.9 0 0 - 7 9 77.8 6 8 14 2 1 2 3 1 -9
p45
aVShane Battier HOU 05/08/2009 HOU vs. LAL L 42 6 2 5 40.0 2 5 40.0 0 0 - 4 4 8 7 1 0 1 2 -11
p46
aVVon Wafer HOU 05/08/2009 HOU vs. LAL L 17 9 2 10 20.0 1 4 25.0 4 5 80.0 0 2 2 0 0 0 2 2 0
p47
aVKyle Lowry HOU 05/08/2009 HOU vs. LAL L 22 8 3 6 50.0 0 0 - 2 3 66.7 1 3 4 4 0 0 0 3 -1
p48
aVCharles Hayes HOU 05/08/2009 HOU vs. LAL L 7 0 0 0 - 0 0 - 0 0 - 0 1 1 1 0 0 1 1 0
p49
aVAaron Brooks HOU 05/06/2009 HOU @ LAL L 43 13 5 15 33.3 3 9 33.3 0 0 - 0 2 2 2 0 1 2 1 -12
p50
aVVon Wafer HOU 05/06/2009 HOU @ LAL L 9 7 3 4 75.0 1 1 100.0 0 0 - 0 2 2 0 0 0 1 3 4
p51
aVYao Ming HOU 05/06/2009 HOU @ LAL L 26 12 3 4 75.0 0 0 - 6 7 85.7 3 7 10 2 0 0 3 5 -29
p52
aVLuis Scola HOU 05/06/2009 HOU @ LAL L 24 12 5 14 35.7 0 0 - 2 2 100.0 2 2 4 0 0 0 2 3 -20
p53
aVMetta World Peace HOU 05/06/2009 HOU @ LAL L 34 25 8 14 57.1 4 7 57.1 5 6 83.3 0 3 3 5 2 0 2 4 -15
p54
aVJames White HOU 05/06/2009 HOU @ LAL L 1 0 0 0 - 0 0 - 0 0 - 0 0 0 0 0 0 0 0 0
p55
aVCharles Hayes HOU 05/06/2009 HOU @ LAL L 21 2 1 2 50.0 0 0 - 0 0 - 1 4 5 1 2 0 0 4 15
p56
aVShane Battier HOU 05/06/2009 HOU @ LAL L 36 6 2 4 50.0 1 3 33.3 1 1 100.0 0 1 1 3 1 1 1 4 -20
p57
aVKyle Lowry HOU 05/06/2009 HOU @ LAL L 22 0 0 7 0.0 0 3 0.0 0 0 - 1 1 2 3 1 0 3 1 1
p58
aVBrian Cook HOU 05/06/2009 HOU @ LAL L 1 0 0 1 0.0 0 1 0.0 0 0 - 0 0 0 0 0 0 0 0 0
p59
aVCarl Landry HOU 05/06/2009 HOU @ LAL L 24 21 7 9 77.8 0 0 - 7 13 53.8 5 5 10 0 0 0 5 0 11
p60
aVAaron Brooks HOU 05/04/2009 HOU @ LAL W 36 19 7 14 50.0 1 5 20.0 4 6 66.7 0 2 2 2 0 1 3 0 11
p61
aVYao Ming HOU 05/04/2009 HOU @ LAL W 40 28 9 17 52.9 0 0 - 10 10 100.0 1 9 10 0 1 2 2 4 5
p62
aVCharles Hayes HOU 05/04/2009 HOU @ LAL W 6 0 0 0 - 0 0 - 0 0 - 2 1 3 0 1 0 0 0 3
p63
aVKyle Lowry HOU 05/04/2009 HOU @ LAL W 17 6 2 4 50.0 0 0 - 2 2 100.0 0 4 4 2 0 0 2 2 0
p64
aVMetta World Peace HOU 05/04/2009 HOU @ LAL W 40 21 8 15 53.3 3 6 50.0 2 3 66.7 1 2 3 7 1 0 2 2 19
p65
aVCarl Landry HOU 05/04/2009 HOU @ LAL W 12 7 3 4 75.0 0 0 - 1 2 50.0 1 1 2 0 0 0 2 0 -2
p66
aVShane Battier HOU 05/04/2009 HOU @ LAL W 39 6 1 5 20.0 0 4 0.0 4 4 100.0 0 3 3 1 3 0 1 2 -2
p67
aVBrent Barry HOU 05/04/2009 HOU @ LAL W 6 3 1 3 33.3 1 3 33.3 0 0 - 0 0 0 1 0 0 1 1 3
p68
aVLuis Scola HOU 05/04/2009 HOU @ LAL W 34 10 4 9 44.4 0 0 - 2 2 100.0 1 7 8 3 2 0 1 2 12
p69
aVVon Wafer HOU 05/04/2009 HOU @ LAL W 8 0 0 2 0.0 0 0 - 0 0 - 0 0 0 0 0 0 2 1 -9
p70
aVCarl Landry HOU 04/30/2009 HOU vs. POR W 19 6 2 5 40.0 0 0 - 2 2 100.0 2 5 7 0 0 1 0 1 12
p71
aVLuis Scola HOU 04/30/2009 HOU vs. POR W 30 9 3 7 42.9 0 0 - 3 4 75.0 0 4 4 2 1 1 3 4 15
p72
aVAaron Brooks HOU 04/30/2009 HOU vs. POR W 32 13 5 11 45.5 2 4 50.0 1 2 50.0 1 4 5 2 2 0 0 2 10
p73
aVYao Ming HOU 04/30/2009 HOU vs. POR W 41 17 8 16 50.0 0 0 - 1 2 50.0 3 7 10 2 1 2 1 3 11
p74
aVKyle Lowry HOU 04/30/2009 HOU vs. POR W 21 5 1 6 16.7 1 3 33.3 2 2 100.0 1 3 4 3 1 0 1 1 4
p75
aVCharles Hayes HOU 04/30/2009 HOU vs. POR W 2 0 0 0 - 0 0 - 0 0 - 0 0 0 0 0 0 0 0 -4
p76
aVMetta World Peace HOU 04/30/2009 HOU vs. POR W 39 27 11 21 52.4 3 11 27.3 2 2 100.0 0 1 1 2 1 0 1 2 14
p77
aVVon Wafer HOU 04/30/2009 HOU vs. POR W 16 5 2 5 40.0 1 2 50.0 0 0 - 0 1 1 1 0 0 0 0 6
p78
aVShane Battier HOU 04/30/2009 HOU vs. POR W 40 7 3 6 50.0 1 3 33.3 0 0 - 3 6 9 2 3 0 2 0 16
p79
aVJames White HOU 04/30/2009 HOU vs. POR W 2 3 1 1 100.0 1 1 100.0 0 0 - 0 0 0 0 0 0 0 0 -4
p80
aVAaron Brooks HOU 04/28/2009 HOU @ POR L 35 13 6 20 30.0 1 8 12.5 0 0 - 0 1 1 5 0 0 2 3 -7
p81
aVYao Ming HOU 04/28/2009 HOU @ POR L 40 15 7 12 58.3 0 0 - 1 1 100.0 0 12 12 0 0 0 2 2 -5
p82
aVShane Battier HOU 04/28/2009 HOU @ POR L 42 4 1 3 33.3 0 1 0.0 2 2 100.0 0 4 4 3 1 1 1 4 -12
p83
aVLuis Scola HOU 04/28/2009 HOU @ POR L 32 21 10 13 76.9 0 0 - 1 1 100.0 0 6 6 2 0 0 4 4 -8
p84
aVMetta World Peace HOU 04/28/2009 HOU @ POR L 40 10 3 9 33.3 2 5 40.0 2 2 100.0 1 3 4 5 2 0 4 1 -16
p85
aVJames White HOU 04/28/2009 HOU @ POR L 1 0 0 0 - 0 0 - 0 0 - 0 0 0 0 0 0 0 0 0
p86
aVVon Wafer HOU 04/28/2009 HOU @ POR L 16 8 4 9 44.4 0 0 - 0 0 - 0 0 0 0 0 0 0 0 -1
p87
aVCharles Hayes HOU 04/28/2009 HOU @ POR L 8 0 0 0 - 0 0 - 0 0 - 0 4 4 0 0 0 0 3 -6
p88
aVBrian Cook HOU 04/28/2009 HOU @ POR L 1 2 1 2 50.0 0 1 0.0 0 0 - 1 0 1 0 0 0 0 0 0
p89
aVCarl Landry HOU 04/28/2009 HOU @ POR L 13 4 1 3 33.3 0 0 - 2 4 50.0 0 2 2 0 1 0 2 5 6
p90
aVKyle Lowry HOU 04/28/2009 HOU @ POR L 14 0 0 2 0.0 0 0 - 0 0 - 1 1 2 2 1 0 1 2 -6
p91
aVKyle Lowry HOU 04/26/2009 HOU vs. POR W 24 4 1 6 16.7 0 0 - 2 4 50.0 3 2 5 1 3 0 2 2 1
p92
aVCharles Hayes HOU 04/26/2009 HOU vs. POR W 4 0 0 0 - 0 0 - 0 0 - 0 0 0 0 0 0 0 1 -4
p93
aVYao Ming HOU 04/26/2009 HOU vs. POR W 44 21 7 14 50.0 0 0 - 7 8 87.5 1 11 12 2 1 1 2 1 5
p94
aVShane Battier HOU 04/26/2009 HOU vs. POR W 41 14 5 8 62.5 4 6 66.7 0 0 - 1 7 8 6 0 0 0 2 -1
p95
aVLuis Scola HOU 04/26/2009 HOU vs. POR W 35 17 8 18 44.4 0 0 - 1 2 50.0 7 1 8 1 2 0 1 5 3
p96
aVCarl Landry HOU 04/26/2009 HOU vs. POR W 13 4 2 4 50.0 0 0 - 0 0 - 2 2 4 0 0 0 1 2 -1
p97
aVMetta World Peace HOU 04/26/2009 HOU vs. POR W 38 12 5 20 25.0 1 5 20.0 1 3 33.3 2 1 3 9 1 0 3 2 5
p98
aVAaron Brooks HOU 04/26/2009 HOU vs. POR W 24 5 1 5 20.0 1 2 50.0 2 4 50.0 0 1 1 2 0 0 0 2 -1
p99
aVVon Wafer HOU 04/26/2009 HOU vs. POR W 17 12 4 8 50.0 3 3 100.0 1 1 100.0 0 2 2 3 0 0 0 1 -2
p100
aVCarl Landry HOU 04/24/2009 HOU vs. POR W 23 10 5 7 71.4 0 0 - 0 0 - 0 2 2 1 1 0 0 3 6
p101
aVAaron Brooks HOU 04/24/2009 HOU vs. POR W 32 11 3 11 27.3 0 2 0.0 5 8 62.5 1 3 4 5 0 0 0 3 -2
p102
aVMetta World Peace HOU 04/24/2009 HOU vs. POR W 38 9 3 8 37.5 1 1 100.0 2 2 100.0 2 3 5 4 2 1 4 0 -3
p103
aVYao Ming HOU 04/24/2009 HOU vs. POR W 36 7 2 7 28.6 0 0 - 3 3 100.0 2 11 13 1 0 2 3 3 2
p104
aVVon Wafer HOU 04/24/2009 HOU vs. POR W 14 6 3 9 33.3 0 2 0.0 0 0 - 0 2 2 3 1 0 1 0 8
p105
aVLuis Scola HOU 04/24/2009 HOU vs. POR W 33 19 8 15 53.3 0 0 - 3 3 100.0 2 7 9 3 1 0 1 5 6
p106
aVKyle Lowry HOU 04/24/2009 HOU vs. POR W 17 8 2 2 100.0 0 0 - 4 6 66.7 0 2 2 2 0 0 1 1 0
p107
aVCharles Hayes HOU 04/24/2009 HOU vs. POR W 3 0 0 0 - 0 0 - 0 0 - 0 0 0 1 0 0 0 0 -3
p108
aVShane Battier HOU 04/24/2009 HOU vs. POR W 44 16 6 10 60.0 2 4 50.0 2 2 100.0 2 2 4 1 2 4 2 1 1
p109
aVAaron Brooks HOU 04/21/2009 HOU @ POR L 30 23 9 12 75.0 4 5 80.0 1 2 50.0 0 2 2 5 0 0 3 3 -6
p110
aVKyle Lowry HOU 04/21/2009 HOU @ POR L 19 10 2 5 40.0 1 2 50.0 5 8 62.5 0 3 3 1 0 0 2 5 3
p111
aVYao Ming HOU 04/21/2009 HOU @ POR L 31 11 3 6 50.0 0 0 - 5 5 100.0 1 7 8 0 0 0 0 4 -1
p112
aVVon Wafer HOU 04/21/2009 HOU @ POR L 27 21 7 13 53.8 1 3 33.3 6 7 85.7 0 0 0 0 1 0 1 1 -5
p113
aVCarl Landry HOU 04/21/2009 HOU @ POR L 14 4 2 4 50.0 0 0 - 0 0 - 0 3 3 0 0 0 0 0 3
p114
aVDikembe Mutombo HOU 04/21/2009 HOU @ POR L 2 0 0 0 - 0 0 - 0 0 - 0 0 0 0 0 0 0 1 -2
p115
aVShane Battier HOU 04/21/2009 HOU @ POR L 33 3 1 2 50.0 0 1 0.0 1 2 50.0 0 6 6 0 0 0 2 5 1
p116
aVLuis Scola HOU 04/21/2009 HOU @ POR L 35 12 5 10 50.0 0 0 - 2 6 33.3 1 4 5 2 0 1 0 4 -13
p117
aVCharles Hayes HOU 04/21/2009 HOU @ POR L 13 0 0 2 0.0 0 1 0.0 0 0 - 1 2 3 2 0 0 0 3 4
p118
aVMetta World Peace HOU 04/21/2009 HOU @ POR L 36 19 8 20 40.0 1 8 12.5 2 2 100.0 1 4 5 2 0 0 1 2 -4
p119
aVKyle Lowry HOU 04/18/2009 HOU @ POR W 21 2 1 2 50.0 0 1 0.0 0 0 - 1 3 4 1 2 0 2 1 -3
p120
aVCarl Landry HOU 04/18/2009 HOU @ POR W 12 1 0 2 0.0 0 0 - 1 2 50.0 0 0 0 0 0 0 1 5 -6
p121
aVMetta World Peace HOU 04/18/2009 HOU @ POR W 31 17 7 12 58.3 2 6 33.3 1 1 100.0 0 1 1 4 0 0 1 0 25
p122
aVAaron Brooks HOU 04/18/2009 HOU @ POR W 35 27 10 17 58.8 5 8 62.5 2 2 100.0 1 3 4 7 0 0 2 2 31
p123
aVDikembe Mutombo HOU 04/18/2009 HOU @ POR W 18 0 0 0 - 0 0 - 0 2 0.0 1 8 9 0 1 2 0 4 10
p124
aVCharles Hayes HOU 04/18/2009 HOU @ POR W 2 0 0 0 - 0 0 - 0 0 - 0 0 0 0 0 0 0 0 -1
p125
aVYao Ming HOU 04/18/2009 HOU @ POR W 24 24 9 9 100.0 0 0 - 6 6 100.0 2 7 9 0 0 2 1 4 22
p126
aVShane Battier HOU 04/18/2009 HOU @ POR W 37 7 1 5 20.0 0 3 0.0 5 5 100.0 2 3 5 2 1 0 2 1 34
p127
aVLuis Scola HOU 04/18/2009 HOU @ POR W 35 19 7 9 77.8 0 0 - 5 6 83.3 1 7 8 1 0 1 1 1 32
p128
aVVon Wafer HOU 04/18/2009 HOU @ POR W 16 6 1 6 16.7 0 1 0.0 4 4 100.0 0 1 1 0 0 1 1 3 -5
p129
aVBrian Cook HOU 04/18/2009 HOU @ POR W 4 3 1 2 50.0 1 2 50.0 0 0 - 0 3 3 1 1 0 1 0 -2
p130
aVBrent Barry HOU 04/18/2009 HOU @ POR W 4 2 1 1 100.0 0 0 - 0 0 - 0 0 0 0 0 0 0 0 -2
p131
a.