(lp0
VPLAYER TEAM DATE MATCHUP W/L MIN PTS FGM FGA FG% 3PM 3PA 3P% FTM FTA FT% OREB DREB REB AST STL BLK TOV PF +/-
p1
aVDelonte West CLE 05/30/2009 CLE @ ORL L 46 22 9 19 47.4 2 3 66.7 2 4 50.0 2 2 4 3 2 1 3 0 -9
p2
aVMo Williams CLE 05/30/2009 CLE @ ORL L 39 17 6 12 50.0 3 4 75.0 2 2 100.0 0 3 3 5 0 0 1 4 -6
p3
aVBen Wallace CLE 05/30/2009 CLE @ ORL L 14 4 2 3 66.7 0 0 - 0 2 0.0 3 0 3 1 0 1 1 0 -8
p4
aVSasha Pavlovic CLE 05/30/2009 CLE @ ORL L 5 0 0 0 - 0 0 - 0 0 - 0 0 0 0 1 0 0 1 3
p5
aVLeBron James CLE 05/30/2009 CLE @ ORL L 45 25 8 20 40.0 2 8 25.0 7 11 63.6 1 6 7 7 0 1 3 4 -12
p6
aVAnderson Varejao CLE 05/30/2009 CLE @ ORL L 33 14 7 12 58.3 0 0 - 0 1 0.0 1 7 8 0 0 0 0 5 -2
p7
aVDaniel Gibson CLE 05/30/2009 CLE @ ORL L 21 3 1 3 33.3 1 2 50.0 0 0 - 0 1 1 1 0 0 1 2 -16
p8
aVTarence Kinsey CLE 05/30/2009 CLE @ ORL L 1 0 0 0 - 0 0 - 0 0 - 0 0 0 0 1 0 0 0 0
p9
aVWally Szczerbiak CLE 05/30/2009 CLE @ ORL L 14 3 1 5 20.0 1 3 33.3 0 0 - 0 1 1 0 0 0 1 1 -9
p10
aVZydrunas Ilgauskas CLE 05/30/2009 CLE @ ORL L 22 2 1 5 20.0 0 0 - 0 2 0.0 1 6 7 0 2 0 0 4 -6
p11
aVDaniel Gibson CLE 05/28/2009 CLE vs. ORL W 22 11 3 5 60.0 3 4 75.0 2 2 100.0 0 1 1 1 0 1 1 2 4
p12
aVZydrunas Ilgauskas CLE 05/28/2009 CLE vs. ORL W 27 16 6 8 75.0 0 0 - 4 5 80.0 0 6 6 1 0 1 0 6 15
p13
aVJoe Smith CLE 05/28/2009 CLE vs. ORL W 3 2 1 1 100.0 0 0 - 0 0 - 0 0 0 0 0 0 0 0 1
p14
aVLeBron James CLE 05/28/2009 CLE vs. ORL W 46 37 11 24 45.8 0 2 0.0 15 19 78.9 3 11 14 12 1 1 4 3 11
p15
aVWally Szczerbiak CLE 05/28/2009 CLE vs. ORL W 14 2 1 3 33.3 0 1 0.0 0 0 - 0 2 2 0 0 0 0 2 -11
p16
aVMo Williams CLE 05/28/2009 CLE vs. ORL W 42 24 7 14 50.0 6 9 66.7 4 5 80.0 0 1 1 2 2 0 1 3 17
p17
aVAnderson Varejao CLE 05/28/2009 CLE vs. ORL W 29 7 3 6 50.0 0 0 - 1 2 50.0 3 5 8 2 0 2 2 6 24
p18
aVSasha Pavlovic CLE 05/28/2009 CLE vs. ORL W 1 0 0 0 - 0 0 - 0 0 - 0 0 0 0 0 0 0 0 -2
p19
aVBen Wallace CLE 05/28/2009 CLE vs. ORL W 16 0 0 2 0.0 0 0 - 0 0 - 2 3 5 0 0 0 0 1 -19
p20
aVDelonte West CLE 05/28/2009 CLE vs. ORL W 41 13 6 13 46.2 0 2 0.0 1 1 100.0 0 2 2 3 1 1 4 2 9
p21
aVTarence Kinsey CLE 05/28/2009 CLE vs. ORL W 0 0 0 0 - 0 0 - 0 0 - 0 0 0 0 0 0 0 0 1
p22
aVDelonte West CLE 05/26/2009 CLE @ ORL L 47 17 7 15 46.7 0 3 0.0 3 3 100.0 0 5 5 7 1 1 0 4 5
p23
aVBen Wallace CLE 05/26/2009 CLE @ ORL L 16 4 2 2 100.0 0 0 - 0 0 - 2 2 4 0 1 1 0 1 -14
p24
aVMo Williams CLE 05/26/2009 CLE @ ORL L 47 18 5 15 33.3 0 3 0.0 8 9 88.9 0 5 5 2 2 0 1 2 -5
p25
aVDaniel Gibson CLE 05/26/2009 CLE @ ORL L 21 8 2 5 40.0 2 5 40.0 2 2 100.0 0 1 1 0 0 0 0 1 6
p26
aVAnderson Varejao CLE 05/26/2009 CLE @ ORL L 26 9 4 8 50.0 0 0 - 1 1 100.0 1 1 2 0 5 0 1 6 5
p27
aVZydrunas Ilgauskas CLE 05/26/2009 CLE @ ORL L 33 12 5 9 55.6 0 0 - 2 2 100.0 3 6 9 0 0 0 0 3 2
p28
aVJoe Smith CLE 05/26/2009 CLE @ ORL L 4 0 0 0 - 0 0 - 0 0 - 0 0 0 0 0 0 0 0 -7
p29
aVLeBron James CLE 05/26/2009 CLE @ ORL L 49 44 13 29 44.8 4 10 40.0 14 18 77.8 1 11 12 7 1 1 8 5 6
p30
aVWally Szczerbiak CLE 05/26/2009 CLE @ ORL L 21 2 1 4 25.0 0 1 0.0 0 1 0.0 0 2 2 1 0 0 2 3 -8
p31
aVMo Williams CLE 05/24/2009 CLE @ ORL L 42 15 5 16 31.3 3 10 30.0 2 3 66.7 3 4 7 3 0 0 5 4 -9
p32
aVAnderson Varejao CLE 05/24/2009 CLE @ ORL L 20 4 1 2 50.0 0 0 - 2 2 100.0 3 1 4 0 1 0 2 6 -2
p33
aVDelonte West CLE 05/24/2009 CLE @ ORL L 43 12 5 11 45.5 1 2 50.0 1 2 50.0 0 1 1 3 1 0 4 5 -13
p34
aVLeBron James CLE 05/24/2009 CLE @ ORL L 42 41 11 28 39.3 1 8 12.5 18 24 75.0 0 7 7 9 2 1 2 3 -12
p35
aVTarence Kinsey CLE 05/24/2009 CLE @ ORL L 0 0 0 0 - 0 0 - 0 0 - 0 0 0 0 0 0 0 1 -1
p36
aVZydrunas Ilgauskas CLE 05/24/2009 CLE @ ORL L 31 9 3 10 30.0 0 3 0.0 3 4 75.0 1 8 9 1 0 1 0 6 -9
p37
aVJoe Smith CLE 05/24/2009 CLE @ ORL L 19 4 2 6 33.3 0 0 - 0 0 - 0 4 4 0 2 1 0 3 0
p38
aVDaniel Gibson CLE 05/24/2009 CLE @ ORL L 3 0 0 1 0.0 0 1 0.0 0 0 - 0 0 0 0 0 0 0 0 -1
p39
aVSasha Pavlovic CLE 05/24/2009 CLE @ ORL L 25 0 0 2 0.0 0 2 0.0 0 0 - 0 4 4 1 1 0 1 3 0
p40
aVBen Wallace CLE 05/24/2009 CLE @ ORL L 15 4 2 2 100.0 0 0 - 0 0 - 4 2 6 0 0 0 1 3 -3
p41
aVJoe Smith CLE 05/22/2009 CLE vs. ORL W 9 5 1 1 100.0 1 1 100.0 2 2 100.0 0 2 2 0 0 0 0 5 14
p42
aVSasha Pavlovic CLE 05/22/2009 CLE vs. ORL W 22 9 4 7 57.1 1 3 33.3 0 1 0.0 0 1 1 2 1 0 0 3 -1
p43
aVZydrunas Ilgauskas CLE 05/22/2009 CLE vs. ORL W 32 12 5 13 38.5 0 2 0.0 2 2 100.0 4 11 15 2 0 2 1 2 8
p44
aVBen Wallace CLE 05/22/2009 CLE vs. ORL W 17 0 0 0 - 0 0 - 0 0 - 1 1 2 1 0 0 0 1 -3
p45
aVDelonte West CLE 05/22/2009 CLE vs. ORL W 46 12 4 7 57.1 1 4 25.0 3 3 100.0 0 5 5 1 1 1 1 3 10
p46
aVAnderson Varejao CLE 05/22/2009 CLE vs. ORL W 30 4 2 5 40.0 0 0 - 0 1 0.0 1 3 4 1 1 1 1 4 -12
p47
aVDaniel Gibson CLE 05/22/2009 CLE vs. ORL W 0 0 0 0 - 0 0 - 0 0 - 0 0 0 0 0 0 0 0 -2
p48
aVLeBron James CLE 05/22/2009 CLE vs. ORL W 43 35 12 23 52.2 1 3 33.3 10 12 83.3 2 2 4 5 1 0 6 3 -7
p49
aVTarence Kinsey CLE 05/22/2009 CLE vs. ORL W 0 0 0 0 - 0 0 - 0 0 - 0 0 0 0 0 0 0 0 -2
p50
aVMo Williams CLE 05/22/2009 CLE vs. ORL W 42 19 7 21 33.3 1 6 16.7 4 5 80.0 0 5 5 5 1 0 3 3 0
p51
aVZydrunas Ilgauskas CLE 05/20/2009 CLE vs. ORL L 32 10 5 11 45.5 0 1 0.0 0 0 - 3 7 10 2 0 0 0 4 12
p52
aVAnderson Varejao CLE 05/20/2009 CLE vs. ORL L 37 14 6 8 75.0 0 0 - 2 2 100.0 1 5 6 0 1 2 1 3 8
p53
aVWally Szczerbiak CLE 05/20/2009 CLE vs. ORL L 13 0 0 2 0.0 0 1 0.0 0 0 - 1 2 3 2 0 0 0 3 -7
p54
aVDaniel Gibson CLE 05/20/2009 CLE vs. ORL L 3 0 0 0 - 0 0 - 0 0 - 0 0 0 0 0 0 0 0 -3
p55
aVBen Wallace CLE 05/20/2009 CLE vs. ORL L 10 0 0 1 0.0 0 0 - 0 0 - 0 2 2 0 0 0 0 1 -14
p56
aVMo Williams CLE 05/20/2009 CLE vs. ORL L 42 17 6 19 31.6 2 8 25.0 3 3 100.0 0 4 4 5 1 0 1 4 0
p57
aVDelonte West CLE 05/20/2009 CLE vs. ORL L 47 11 4 13 30.8 3 8 37.5 0 0 - 0 1 1 6 4 1 1 1 0
p58
aVJoe Smith CLE 05/20/2009 CLE vs. ORL L 15 5 2 4 50.0 0 1 0.0 1 2 50.0 0 1 1 0 0 1 0 2 -8
p59
aVLeBron James CLE 05/20/2009 CLE vs. ORL L 41 49 20 30 66.7 3 6 50.0 6 10 60.0 3 3 6 8 2 3 2 1 7
p60
aVMo Williams CLE 05/11/2009 CLE @ ATL W 34 12 4 11 36.4 4 7 57.1 0 0 - 0 4 4 5 0 0 4 5 18
p61
aVJoe Smith CLE 05/11/2009 CLE @ ATL W 20 2 1 3 33.3 0 0 - 0 0 - 0 6 6 1 1 1 0 3 4
p62
aVSasha Pavlovic CLE 05/11/2009 CLE @ ATL W 4 0 0 0 - 0 0 - 0 0 - 0 2 2 0 0 0 1 0 -8
p63
aVDelonte West CLE 05/11/2009 CLE @ ATL W 45 21 7 13 53.8 2 4 50.0 5 8 62.5 1 3 4 6 1 0 3 3 7
p64
aVZydrunas Ilgauskas CLE 05/11/2009 CLE @ ATL W 31 14 6 13 46.2 1 1 100.0 1 4 25.0 5 5 10 0 1 2 1 3 10
p65
aVAnderson Varejao CLE 05/11/2009 CLE @ ATL W 32 2 0 3 0.0 0 0 - 2 2 100.0 7 4 11 1 1 2 1 4 -4
p66
aVWally Szczerbiak CLE 05/11/2009 CLE @ ATL W 15 6 3 4 75.0 0 0 - 0 1 0.0 1 1 2 0 1 0 1 1 9
p67
aVLeBron James CLE 05/11/2009 CLE @ ATL W 43 27 9 22 40.9 3 6 50.0 6 9 66.7 0 8 8 8 1 0 3 3 1
p68
aVBen Wallace CLE 05/11/2009 CLE @ ATL W 13 0 0 0 - 0 0 - 0 2 0.0 1 0 1 0 0 0 0 2 10
p69
aVDaniel Gibson CLE 05/11/2009 CLE @ ATL W 3 0 0 1 0.0 0 0 - 0 0 - 0 0 0 1 0 0 1 1 3
p70
aVAnderson Varejao CLE 05/09/2009 CLE @ ATL W 25 6 2 5 40.0 0 0 - 2 3 66.7 7 3 10 1 1 0 1 2 18
p71
aVWally Szczerbiak CLE 05/09/2009 CLE @ ATL W 7 0 0 2 0.0 0 2 0.0 0 0 - 0 2 2 0 0 0 1 0 -10
p72
aVMo Williams CLE 05/09/2009 CLE @ ATL W 36 11 5 13 38.5 1 6 16.7 0 0 - 0 2 2 3 0 0 1 1 14
p73
aVLeBron James CLE 05/09/2009 CLE @ ATL W 43 47 15 25 60.0 5 10 50.0 12 16 75.0 2 10 12 8 1 1 1 2 26
p74
aVSasha Pavlovic CLE 05/09/2009 CLE @ ATL W 1 0 0 0 - 0 0 - 0 0 - 0 0 0 0 0 0 0 0 -3
p75
aVDelonte West CLE 05/09/2009 CLE @ ATL W 45 12 4 8 50.0 0 0 - 4 4 100.0 1 3 4 2 1 0 0 3 16
p76
aVJoe Smith CLE 05/09/2009 CLE @ ATL W 26 7 3 4 75.0 0 0 - 1 2 50.0 1 7 8 0 0 1 5 2 4
p77
aVDaniel Gibson CLE 05/09/2009 CLE @ ATL W 14 0 0 3 0.0 0 2 0.0 0 0 - 0 0 0 0 0 0 1 0 3
p78
aVBen Wallace CLE 05/09/2009 CLE @ ATL W 8 0 0 0 - 0 0 - 0 0 - 0 0 0 0 0 0 1 0 -13
p79
aVZydrunas Ilgauskas CLE 05/09/2009 CLE @ ATL W 33 14 6 9 66.7 0 2 0.0 2 4 50.0 2 6 8 1 0 0 0 4 23
p80
aVTarence Kinsey CLE 05/09/2009 CLE @ ATL W 1 0 0 0 - 0 0 - 0 0 - 0 0 0 0 0 0 0 0 -3
p81
aVLeBron James CLE 05/07/2009 CLE vs. ATL W 31 27 9 14 64.3 3 5 60.0 6 12 50.0 0 3 3 5 4 1 0 1 23
p82
aVMo Williams CLE 05/07/2009 CLE vs. ATL W 32 15 5 11 45.5 3 8 37.5 2 3 66.7 3 2 5 5 0 0 2 2 30
p83
aVDaniel Gibson CLE 05/07/2009 CLE vs. ATL W 14 4 0 3 0.0 0 2 0.0 4 4 100.0 0 0 0 1 1 0 0 2 -7
p84
aVJoe Smith CLE 05/07/2009 CLE vs. ATL W 19 4 0 1 0.0 0 0 - 4 4 100.0 0 3 3 0 0 2 1 2 8
p85
aVWally Szczerbiak CLE 05/07/2009 CLE vs. ATL W 21 17 7 9 77.8 0 0 - 3 3 100.0 1 2 3 0 0 1 3 4 1
p86
aVZydrunas Ilgauskas CLE 05/07/2009 CLE vs. ATL W 27 6 3 6 50.0 0 1 0.0 0 0 - 2 5 7 2 0 2 2 3 20
p87
aVBen Wallace CLE 05/07/2009 CLE vs. ATL W 7 0 0 0 - 0 0 - 0 0 - 0 4 4 1 0 1 0 1 11
p88
aVTarence Kinsey CLE 05/07/2009 CLE vs. ATL W 2 0 0 1 0.0 0 0 - 0 0 - 0 0 0 0 0 0 1 1 -8
p89
aVDelonte West CLE 05/07/2009 CLE vs. ATL W 28 14 5 10 50.0 0 1 0.0 4 4 100.0 0 3 3 2 0 0 4 1 22
p90
aVSasha Pavlovic CLE 05/07/2009 CLE vs. ATL W 17 4 2 5 40.0 0 2 0.0 0 0 - 0 3 3 1 0 0 1 2 -7
p91
aVAnderson Varejao CLE 05/07/2009 CLE vs. ATL W 29 12 6 9 66.7 0 0 - 0 0 - 4 4 8 2 2 4 2 2 17
p92
aVDarnell Jackson CLE 05/07/2009 CLE vs. ATL W 12 2 1 2 50.0 0 0 - 0 0 - 0 4 4 0 0 0 1 1 -10
p93
aVWally Szczerbiak CLE 05/05/2009 CLE vs. ATL W 12 5 2 4 50.0 1 2 50.0 0 0 - 0 3 3 2 0 0 0 1 12
p94
aVDelonte West CLE 05/05/2009 CLE vs. ATL W 39 13 5 11 45.5 1 2 50.0 2 2 100.0 1 3 4 9 2 0 2 0 20
p95
aVSasha Pavlovic CLE 05/05/2009 CLE vs. ATL W 12 7 3 5 60.0 0 0 - 1 2 50.0 1 2 3 0 1 0 0 0 11
p96
aVBen Wallace CLE 05/05/2009 CLE vs. ATL W 15 2 1 1 100.0 0 0 - 0 0 - 1 2 3 0 1 0 0 1 12
p97
aVDarnell Jackson CLE 05/05/2009 CLE vs. ATL W 3 0 0 1 0.0 0 0 - 0 0 - 0 1 1 1 0 0 0 2 3
p98
aVAnderson Varejao CLE 05/05/2009 CLE vs. ATL W 27 4 2 8 25.0 0 0 - 0 0 - 5 4 9 0 2 1 0 4 12
p99
aVZydrunas Ilgauskas CLE 05/05/2009 CLE vs. ATL W 27 7 2 9 22.2 0 1 0.0 3 5 60.0 3 0 3 0 1 0 1 2 4
p100
aVLeBron James CLE 05/05/2009 CLE vs. ATL W 34 34 12 20 60.0 2 6 33.3 8 9 88.9 3 7 10 3 4 0 3 0 13
p101
aVDaniel Gibson CLE 05/05/2009 CLE vs. ATL W 10 4 2 3 66.7 0 1 0.0 0 0 - 0 3 3 0 0 0 1 1 5
p102
aVJoe Smith CLE 05/05/2009 CLE vs. ATL W 20 0 0 4 0.0 0 0 - 0 2 0.0 1 1 2 0 0 1 0 3 20
p103
aVTarence Kinsey CLE 05/05/2009 CLE vs. ATL W 3 2 1 1 100.0 0 0 - 0 0 - 0 0 0 0 0 0 0 0 3
p104
aVMo Williams CLE 05/05/2009 CLE vs. ATL W 37 21 7 12 58.3 4 8 50.0 3 4 75.0 0 0 0 1 1 0 0 2 20
p105
aVWally Szczerbiak CLE 04/26/2009 CLE @ DET W 15 4 1 2 50.0 0 1 0.0 2 2 100.0 3 1 4 0 0 0 0 1 3
p106
aVDaniel Gibson CLE 04/26/2009 CLE @ DET W 4 0 0 1 0.0 0 0 - 0 0 - 0 0 0 1 0 0 1 2 -6
p107
aVBen Wallace CLE 04/26/2009 CLE @ DET W 15 0 0 1 0.0 0 0 - 0 0 - 2 1 3 0 2 0 0 2 6
p108
aVLeBron James CLE 04/26/2009 CLE @ DET W 41 36 10 24 41.7 0 3 0.0 16 17 94.1 1 12 13 8 2 1 2 3 10
p109
aVDelonte West CLE 04/26/2009 CLE @ DET W 44 12 5 10 50.0 1 1 100.0 1 1 100.0 0 3 3 5 2 1 1 1 27
p110
aVSasha Pavlovic CLE 04/26/2009 CLE @ DET W 2 3 1 1 100.0 1 1 100.0 0 0 - 0 2 2 0 0 0 0 0 3
p111
aVAnderson Varejao CLE 04/26/2009 CLE @ DET W 31 6 3 5 60.0 0 0 - 0 0 - 2 3 5 0 0 1 0 1 12
p112
aVDarnell Jackson CLE 04/26/2009 CLE @ DET W 2 0 0 1 0.0 0 0 - 0 0 - 0 0 0 0 0 0 0 0 3
p113
aVZydrunas Ilgauskas CLE 04/26/2009 CLE @ DET W 24 8 4 8 50.0 0 0 - 0 0 - 0 4 4 0 0 0 1 3 13
p114
aVTarence Kinsey CLE 04/26/2009 CLE @ DET W 2 0 0 1 0.0 0 0 - 0 0 - 1 1 2 0 0 0 0 0 3
p115
aVJoe Smith CLE 04/26/2009 CLE @ DET W 22 6 2 6 33.3 0 0 - 2 2 100.0 1 3 4 1 0 0 0 2 3
p116
aVMo Williams CLE 04/26/2009 CLE @ DET W 39 24 9 14 64.3 4 7 57.1 2 2 100.0 0 1 1 4 2 0 4 3 28
p117
aVDaniel Gibson CLE 04/24/2009 CLE @ DET W 24 9 2 5 40.0 2 5 40.0 3 3 100.0 0 0 0 0 0 1 1 2 17
p118
aVBen Wallace CLE 04/24/2009 CLE @ DET W 11 2 1 1 100.0 0 0 - 0 2 0.0 0 1 1 0 0 0 0 0 0
p119
aVLeBron James CLE 04/24/2009 CLE @ DET W 43 25 9 19 47.4 0 5 0.0 7 11 63.6 2 9 11 9 3 2 2 0 13
p120
aVSasha Pavlovic CLE 04/24/2009 CLE @ DET W 0 0 0 0 - 0 0 - 0 0 - 0 0 0 0 0 0 0 0 -2
p121
aVMo Williams CLE 04/24/2009 CLE @ DET W 42 2 1 11 9.1 0 6 0.0 0 1 0.0 1 3 4 7 0 0 4 4 3
p122
aVJoe Smith CLE 04/24/2009 CLE @ DET W 19 19 6 8 75.0 1 1 100.0 6 7 85.7 4 6 10 0 0 0 0 2 12
p123
aVDelonte West CLE 04/24/2009 CLE @ DET W 33 2 0 7 0.0 0 3 0.0 2 2 100.0 0 5 5 2 2 0 4 4 4
p124
aVAnderson Varejao CLE 04/24/2009 CLE @ DET W 35 7 3 4 75.0 0 0 - 1 4 25.0 2 2 4 0 2 1 2 3 9
p125
aVWally Szczerbiak CLE 04/24/2009 CLE @ DET W 2 0 0 0 - 0 0 - 0 0 - 0 1 1 0 0 0 0 0 -2
p126
aVZydrunas Ilgauskas CLE 04/24/2009 CLE @ DET W 31 13 6 13 46.2 1 2 50.0 0 0 - 0 6 6 2 1 3 1 2 1
p127
aVJoe Smith CLE 04/21/2009 CLE vs. DET W 22 5 0 2 0.0 0 1 0.0 5 6 83.3 3 3 6 1 2 0 0 1 -1
p128
aVAnderson Varejao CLE 04/21/2009 CLE vs. DET W 32 2 0 4 0.0 0 0 - 2 2 100.0 2 5 7 1 2 0 1 2 17
p129
aVMo Williams CLE 04/21/2009 CLE vs. DET W 35 21 8 13 61.5 2 5 40.0 3 5 60.0 1 1 2 7 1 1 3 4 14
p130
aVZydrunas Ilgauskas CLE 04/21/2009 CLE vs. DET W 29 12 5 12 41.7 0 0 - 2 3 66.7 1 4 5 2 0 1 2 4 14
p131
aVDarnell Jackson CLE 04/21/2009 CLE vs. DET W 6 0 0 1 0.0 0 0 - 0 2 0.0 0 0 0 0 0 0 0 2 -14
p132
aVDaniel Gibson CLE 04/21/2009 CLE vs. DET W 18 3 1 7 14.3 1 4 25.0 0 0 - 1 0 1 0 0 0 0 2 2
p133
aVDelonte West CLE 04/21/2009 CLE vs. DET W 45 20 7 12 58.3 1 2 50.0 5 6 83.3 1 2 3 4 0 0 5 1 8
p134
aVBen Wallace CLE 04/21/2009 CLE vs. DET W 8 0 0 0 - 0 0 - 0 0 - 2 1 3 0 0 1 0 0 8
p135
aVLeBron James CLE 04/21/2009 CLE vs. DET W 38 29 7 14 50.0 2 5 40.0 13 17 76.5 1 12 13 6 0 0 2 1 21
p136
aVWally Szczerbiak CLE 04/21/2009 CLE vs. DET W 8 2 0 1 0.0 0 1 0.0 2 2 100.0 1 2 3 0 0 0 1 1 -9
p137
aVDaniel Gibson CLE 04/18/2009 CLE vs. DET W 14 5 2 3 66.7 1 2 50.0 0 0 - 0 0 0 1 0 1 0 3 13
p138
aVAnderson Varejao CLE 04/18/2009 CLE vs. DET W 35 6 2 3 66.7 0 0 - 2 2 100.0 2 2 4 0 0 2 1 1 13
p139
aVDarnell Jackson CLE 04/18/2009 CLE vs. DET W 1 0 0 0 - 0 0 - 0 0 - 0 0 0 0 0 0 0 0 3
p140
aVZydrunas Ilgauskas CLE 04/18/2009 CLE vs. DET W 28 12 5 12 41.7 0 0 - 2 2 100.0 2 8 10 4 0 1 0 1 16
p141
aVJoe Smith CLE 04/18/2009 CLE vs. DET W 19 13 5 10 50.0 1 1 100.0 2 2 100.0 0 2 2 0 1 0 1 0 -1
p142
aVTarence Kinsey CLE 04/18/2009 CLE vs. DET W 1 2 0 0 - 0 0 - 2 2 100.0 0 0 0 0 0 0 0 0 3
p143
aVDelonte West CLE 04/18/2009 CLE vs. DET W 43 12 5 8 62.5 0 1 0.0 2 2 100.0 0 5 5 5 1 1 2 0 11
p144
aVSasha Pavlovic CLE 04/18/2009 CLE vs. DET W 1 0 0 0 - 0 0 - 0 0 - 0 0 0 0 0 0 0 0 3
p145
aVBen Wallace CLE 04/18/2009 CLE vs. DET W 12 0 0 0 - 0 0 - 0 0 - 0 1 1 1 0 0 0 0 2
p146
aVWally Szczerbiak CLE 04/18/2009 CLE vs. DET W 13 2 0 0 - 0 0 - 2 2 100.0 1 1 2 2 1 0 0 2 -3
p147
aVLeBron James CLE 04/18/2009 CLE vs. DET W 41 38 13 20 65.0 1 4 25.0 11 14 78.6 0 8 8 7 1 0 0 1 22
p148
aVMo Williams CLE 04/18/2009 CLE vs. DET W 32 12 5 14 35.7 2 7 28.6 0 1 0.0 1 1 2 4 0 0 0 2 8
p149
a.