(lp0
VPLAYER TEAM DATE MATCHUP W/L MIN PTS FGM FGA FG% 3PM 3PA 3P% FTM FTA FT% OREB DREB REB AST STL BLK TOV PF +/-
p1
aVJamaal Magloire MIA 05/03/2009 MIA @ ATL L 4 0 0 0 - 0 0 - 0 0 - 0 1 1 0 0 0 1 1 -6
p2
aVMario Chalmers MIA 05/03/2009 MIA @ ATL L 34 4 1 6 16.7 0 2 0.0 2 2 100.0 1 1 2 4 2 0 3 1 -16
p3
aVUdonis Haslem MIA 05/03/2009 MIA @ ATL L 39 14 5 10 50.0 0 0 - 4 4 100.0 4 9 13 0 1 1 3 4 -18
p4
aVMichael Beasley MIA 05/03/2009 MIA @ ATL L 34 17 7 12 58.3 2 4 50.0 1 4 25.0 2 5 7 0 0 2 3 3 10
p5
aVJermaine O'Neal MIA 05/03/2009 MIA @ ATL L 1 0 0 1 0.0 0 0 - 0 0 - 0 0 0 0 0 0 0 2 -4
p6
aVJames Jones MIA 05/03/2009 MIA @ ATL L 40 6 1 5 20.0 0 3 0.0 4 4 100.0 0 5 5 0 0 1 0 3 -24
p7
aVYakhouba Diawara MIA 05/03/2009 MIA @ ATL L 3 0 0 0 - 0 0 - 0 0 - 0 0 0 0 0 0 0 0 9
p8
aVDwyane Wade MIA 05/03/2009 MIA @ ATL L 42 31 10 25 40.0 2 9 22.2 9 9 100.0 0 3 3 4 1 2 4 2 -20
p9
aVJoel Anthony MIA 05/03/2009 MIA @ ATL L 23 2 1 2 50.0 0 0 - 0 0 - 3 3 6 1 0 2 0 3 -2
p10
aVDaequan Cook MIA 05/03/2009 MIA @ ATL L 17 2 0 1 0.0 0 1 0.0 2 2 100.0 1 1 2 1 0 0 1 3 -3
p11
aVChris Quinn MIA 05/03/2009 MIA @ ATL L 4 2 1 1 100.0 0 0 - 0 0 - 0 0 0 2 1 0 2 0 9
p12
aVJames Jones MIA 05/01/2009 MIA vs. ATL W 38 11 2 5 40.0 2 4 50.0 5 5 100.0 0 3 3 0 0 0 1 1 26
p13
aVDorell Wright MIA 05/01/2009 MIA vs. ATL W 3 0 0 0 - 0 0 - 0 0 - 0 0 0 0 0 0 0 0 -2
p14
aVMario Chalmers MIA 05/01/2009 MIA vs. ATL W 42 9 4 8 50.0 1 2 50.0 0 0 - 0 3 3 8 5 0 3 4 29
p15
aVYakhouba Diawara MIA 05/01/2009 MIA vs. ATL W 3 0 0 1 0.0 0 0 - 0 2 0.0 0 0 0 0 0 0 0 0 -2
p16
aVDaequan Cook MIA 05/01/2009 MIA vs. ATL W 17 5 2 6 33.3 1 4 25.0 0 0 - 0 0 0 0 0 0 2 3 -4
p17
aVUdonis Haslem MIA 05/01/2009 MIA vs. ATL W 11 2 1 2 50.0 0 0 - 0 0 - 0 6 6 0 0 0 1 4 11
p18
aVJamaal Magloire MIA 05/01/2009 MIA vs. ATL W 13 2 1 1 100.0 0 0 - 0 0 - 3 4 7 0 0 0 2 1 -3
p19
aVDwyane Wade MIA 05/01/2009 MIA vs. ATL W 39 41 11 23 47.8 3 7 42.9 16 17 94.1 0 5 5 2 0 2 0 1 32
p20
aVMichael Beasley MIA 05/01/2009 MIA vs. ATL W 36 22 11 25 44.0 0 4 0.0 0 0 - 4 11 15 1 0 0 1 3 16
p21
aVJoel Anthony MIA 05/01/2009 MIA vs. ATL W 35 6 3 3 100.0 0 0 - 0 0 - 5 3 8 0 0 3 1 4 29
p22
aVChris Quinn MIA 05/01/2009 MIA vs. ATL W 3 0 0 0 - 0 0 - 0 0 - 0 0 0 1 0 0 0 0 -2
p23
aVJermaine O'Neal MIA 04/29/2009 MIA @ ATL L 29 14 6 11 54.5 0 0 - 2 4 50.0 0 3 3 1 0 1 0 5 -10
p24
aVJamaal Magloire MIA 04/29/2009 MIA @ ATL L 5 0 0 1 0.0 0 0 - 0 0 - 0 0 0 0 0 0 0 0 -8
p25
aVMario Chalmers MIA 04/29/2009 MIA @ ATL L 28 7 3 7 42.9 1 3 33.3 0 0 - 0 1 1 6 0 0 2 3 -12
p26
aVJames Jones MIA 04/29/2009 MIA @ ATL L 42 6 1 2 50.0 1 2 50.0 3 4 75.0 1 1 2 4 1 0 2 3 -16
p27
aVYakhouba Diawara MIA 04/29/2009 MIA @ ATL L 4 2 1 2 50.0 0 1 0.0 0 0 - 0 1 1 0 1 0 0 0 7
p28
aVDaequan Cook MIA 04/29/2009 MIA @ ATL L 21 2 1 4 25.0 0 2 0.0 0 0 - 1 3 4 0 0 0 0 4 -5
p29
aVJoel Anthony MIA 04/29/2009 MIA @ ATL L 4 0 0 0 - 0 0 - 0 0 - 0 0 0 1 0 0 0 0 7
p30
aVMichael Beasley MIA 04/29/2009 MIA @ ATL L 24 18 5 12 41.7 1 2 50.0 7 7 100.0 1 4 5 0 0 0 2 1 -14
p31
aVDwyane Wade MIA 04/29/2009 MIA @ ATL L 39 29 9 19 47.4 1 2 50.0 10 13 76.9 0 4 4 4 0 0 1 4 -20
p32
aVChris Quinn MIA 04/29/2009 MIA @ ATL L 7 2 1 1 100.0 0 0 - 0 0 - 0 1 1 1 0 0 0 1 5
p33
aVUdonis Haslem MIA 04/29/2009 MIA @ ATL L 37 11 4 6 66.7 0 0 - 3 4 75.0 3 5 8 0 0 0 0 3 -9
p34
aVMichael Beasley MIA 04/27/2009 MIA vs. ATL L 11 2 0 3 0.0 0 0 - 2 2 100.0 0 1 1 0 0 1 0 1 -17
p35
aVDaequan Cook MIA 04/27/2009 MIA vs. ATL L 23 0 0 3 0.0 0 3 0.0 0 0 - 1 2 3 1 1 0 1 2 -12
p36
aVUdonis Haslem MIA 04/27/2009 MIA vs. ATL L 37 4 2 8 25.0 0 0 - 0 0 - 3 6 9 0 0 1 0 3 7
p37
aVDwyane Wade MIA 04/27/2009 MIA vs. ATL L 45 22 9 26 34.6 1 8 12.5 3 4 75.0 2 4 6 7 0 1 4 4 -4
p38
aVMario Chalmers MIA 04/27/2009 MIA vs. ATL L 39 4 1 4 25.0 0 1 0.0 2 3 66.7 0 3 3 1 4 0 4 4 -9
p39
aVJoel Anthony MIA 04/27/2009 MIA vs. ATL L 4 0 0 0 - 0 0 - 0 0 - 0 1 1 0 0 0 0 2 -4
p40
aVJermaine O'Neal MIA 04/27/2009 MIA vs. ATL L 42 20 7 11 63.6 0 0 - 6 10 60.0 1 5 6 2 1 0 2 1 -1
p41
aVJames Jones MIA 04/27/2009 MIA vs. ATL L 30 19 4 5 80.0 3 4 75.0 8 9 88.9 0 1 1 0 1 0 1 6 5
p42
aVJamaal Magloire MIA 04/27/2009 MIA vs. ATL L 2 0 0 1 0.0 0 0 - 0 0 - 0 0 0 0 0 0 0 2 -5
p43
aVYakhouba Diawara MIA 04/27/2009 MIA vs. ATL L 7 0 0 0 - 0 0 - 0 0 - 0 3 3 0 0 0 0 2 -10
p44
aVMario Chalmers MIA 04/25/2009 MIA vs. ATL W 33 15 6 10 60.0 3 6 50.0 0 0 - 2 3 5 3 4 1 0 4 31
p45
aVUdonis Haslem MIA 04/25/2009 MIA vs. ATL W 29 12 6 9 66.7 0 0 - 0 0 - 2 11 13 2 1 1 0 2 21
p46
aVJermaine O'Neal MIA 04/25/2009 MIA vs. ATL W 31 22 7 14 50.0 0 0 - 8 8 100.0 5 5 10 1 0 3 3 4 27
p47
aVDwyane Wade MIA 04/25/2009 MIA vs. ATL W 41 29 10 21 47.6 4 8 50.0 5 5 100.0 2 5 7 8 1 4 3 1 34
p48
aVChris Quinn MIA 04/25/2009 MIA vs. ATL W 4 4 1 2 50.0 0 0 - 2 2 100.0 0 0 0 0 0 0 0 0 2
p49
aVJames Jones MIA 04/25/2009 MIA vs. ATL W 31 11 4 5 80.0 3 3 100.0 0 0 - 0 0 0 1 0 0 0 0 22
p50
aVJamaal Magloire MIA 04/25/2009 MIA vs. ATL W 13 0 0 0 - 0 0 - 0 0 - 2 1 3 0 0 0 0 3 0
p51
aVJoel Anthony MIA 04/25/2009 MIA vs. ATL W 4 2 0 0 - 0 0 - 2 2 100.0 0 0 0 0 0 0 0 0 2
p52
aVDaequan Cook MIA 04/25/2009 MIA vs. ATL W 27 6 2 10 20.0 2 6 33.3 0 0 - 0 3 3 2 1 0 0 1 4
p53
aVMichael Beasley MIA 04/25/2009 MIA vs. ATL W 19 4 1 9 11.1 0 0 - 2 2 100.0 2 4 6 1 0 2 1 1 8
p54
aVJamario Moon MIA 04/25/2009 MIA vs. ATL W 5 2 1 1 100.0 0 0 - 0 0 - 0 0 0 0 1 1 2 1 -8
p55
aVYakhouba Diawara MIA 04/25/2009 MIA vs. ATL W 4 0 0 0 - 0 0 - 0 0 - 0 1 1 0 0 0 0 0 2
p56
aVJamario Moon MIA 04/22/2009 MIA @ ATL W 28 5 2 2 100.0 1 1 100.0 0 2 0.0 3 5 8 1 0 0 0 3 10
p57
aVUdonis Haslem MIA 04/22/2009 MIA @ ATL W 26 10 5 8 62.5 0 0 - 0 0 - 1 6 7 1 1 0 1 1 17
p58
aVMario Chalmers MIA 04/22/2009 MIA @ ATL W 22 4 2 5 40.0 0 2 0.0 0 0 - 1 1 2 7 3 0 2 3 5
p59
aVJamaal Magloire MIA 04/22/2009 MIA @ ATL W 11 0 0 0 - 0 0 - 0 0 - 0 0 0 1 0 0 0 2 -4
p60
aVMichael Beasley MIA 04/22/2009 MIA @ ATL W 22 12 5 12 41.7 1 1 100.0 1 2 50.0 0 7 7 3 0 0 2 2 -2
p61
aVJames Jones MIA 04/22/2009 MIA @ ATL W 21 5 2 4 50.0 1 3 33.3 0 0 - 1 0 1 0 0 0 0 2 5
p62
aVJermaine O'Neal MIA 04/22/2009 MIA @ ATL W 37 19 6 9 66.7 0 0 - 7 8 87.5 0 6 6 3 1 4 2 4 19
p63
aVDwyane Wade MIA 04/22/2009 MIA @ ATL W 39 33 11 20 55.0 6 10 60.0 5 6 83.3 0 5 5 7 1 2 5 5 14
p64
aVDaequan Cook MIA 04/22/2009 MIA @ ATL W 35 20 7 12 58.3 6 9 66.7 0 0 - 0 4 4 0 0 0 1 3 11
p65
aVJamario Moon MIA 04/19/2009 MIA @ ATL L 7 5 2 2 100.0 1 1 100.0 0 0 - 0 1 1 0 0 0 0 1 -7
p66
aVDaequan Cook MIA 04/19/2009 MIA @ ATL L 21 2 1 6 16.7 0 5 0.0 0 0 - 0 1 1 0 0 0 1 2 -8
p67
aVDwyane Wade MIA 04/19/2009 MIA @ ATL L 40 19 8 21 38.1 1 6 16.7 2 4 50.0 0 5 5 5 3 0 8 3 -18
p68
aVMario Chalmers MIA 04/19/2009 MIA @ ATL L 34 8 3 10 30.0 1 5 20.0 1 2 50.0 2 1 3 2 2 0 3 2 -27
p69
aVJermaine O'Neal MIA 04/19/2009 MIA @ ATL L 22 5 2 5 40.0 0 0 - 1 2 50.0 1 1 2 2 1 1 3 2 -16
p70
aVJames Jones MIA 04/19/2009 MIA @ ATL L 34 9 3 6 50.0 1 3 33.3 2 2 100.0 0 4 4 0 1 0 0 4 -12
p71
aVJoel Anthony MIA 04/19/2009 MIA @ ATL L 19 0 0 0 - 0 0 - 0 0 - 1 3 4 0 0 2 0 0 -5
p72
aVChris Quinn MIA 04/19/2009 MIA @ ATL L 7 0 0 3 0.0 0 1 0.0 0 0 - 0 0 0 1 1 0 0 0 -3
p73
aVUdonis Haslem MIA 04/19/2009 MIA @ ATL L 25 6 2 3 66.7 0 0 - 2 2 100.0 0 5 5 0 0 0 1 2 -17
p74
aVMichael Beasley MIA 04/19/2009 MIA @ ATL L 32 10 5 15 33.3 0 2 0.0 0 0 - 1 9 10 2 2 2 2 3 -17
p75
a.