(lp0
VPLAYER TEAM DATE MATCHUP W/L MIN PTS FGM FGA FG% 3PM 3PA 3P% FTM FTA FT% OREB DREB REB AST STL BLK TOV PF +/-
p1
aVArron Afflalo DET 04/26/2009 DET vs. CLE L 12 2 1 3 33.3 0 2 0.0 0 0 - 0 0 0 0 0 0 1 1 -2
p2
aVWalter Herrmann DET 04/26/2009 DET vs. CLE L 6 0 0 2 0.0 0 0 - 0 0 - 0 0 0 0 0 0 0 0 -11
p3
aVRasheed Wallace DET 04/26/2009 DET vs. CLE L 29 0 0 7 0.0 0 2 0.0 0 0 - 1 4 5 1 1 1 1 4 -14
p4
aVJason Maxiell DET 04/26/2009 DET vs. CLE L 25 6 1 5 20.0 0 0 - 4 7 57.1 2 3 5 2 1 0 1 3 -20
p5
aVAntonio McDyess DET 04/26/2009 DET vs. CLE L 39 26 11 18 61.1 0 0 - 4 4 100.0 2 8 10 0 0 0 0 5 -5
p6
aVWill Bynum DET 04/26/2009 DET vs. CLE L 28 22 8 12 66.7 1 2 50.0 5 5 100.0 0 1 1 1 2 0 3 2 -9
p7
aVTayshaun Prince DET 04/26/2009 DET vs. CLE L 32 2 1 5 20.0 0 1 0.0 0 0 - 1 4 5 0 0 0 1 0 -5
p8
aVAmir Johnson DET 04/26/2009 DET vs. CLE L 2 0 0 0 - 0 0 - 0 0 - 0 0 0 0 0 1 0 1 -3
p9
aVRodney Stuckey DET 04/26/2009 DET vs. CLE L 28 14 7 14 50.0 0 0 - 0 0 - 0 1 1 6 0 0 0 4 -17
p10
aVRichard Hamilton DET 04/26/2009 DET vs. CLE L 38 6 2 12 16.7 0 3 0.0 2 2 100.0 1 2 3 7 0 0 3 5 -19
p11
aVKwame Brown DET 04/24/2009 DET vs. CLE L 14 4 1 3 33.3 0 0 - 2 2 100.0 1 2 3 0 0 3 0 4 -5
p12
aVRichard Hamilton DET 04/24/2009 DET vs. CLE L 42 15 6 17 35.3 1 2 50.0 2 2 100.0 1 7 8 6 2 0 2 3 -6
p13
aVArron Afflalo DET 04/24/2009 DET vs. CLE L 16 8 3 4 75.0 0 1 0.0 2 2 100.0 0 1 1 0 0 0 1 3 -9
p14
aVJason Maxiell DET 04/24/2009 DET vs. CLE L 10 0 0 0 - 0 0 - 0 0 - 1 1 2 0 0 0 0 1 -4
p15
aVRasheed Wallace DET 04/24/2009 DET vs. CLE L 30 5 2 6 33.3 1 1 100.0 0 0 - 0 7 7 0 1 0 1 3 -10
p16
aVRodney Stuckey DET 04/24/2009 DET vs. CLE L 35 12 5 11 45.5 0 2 0.0 2 4 50.0 0 5 5 5 0 0 4 1 3
p17
aVWalter Herrmann DET 04/24/2009 DET vs. CLE L 5 3 1 2 50.0 1 2 50.0 0 0 - 0 0 0 1 0 0 0 2 1
p18
aVAntonio McDyess DET 04/24/2009 DET vs. CLE L 37 8 4 10 40.0 0 0 - 0 0 - 2 6 8 1 0 2 1 4 -4
p19
aVWill Bynum DET 04/24/2009 DET vs. CLE L 18 6 2 8 25.0 0 0 - 2 2 100.0 0 0 0 2 1 0 3 2 -13
p20
aVTayshaun Prince DET 04/24/2009 DET vs. CLE L 33 7 3 10 30.0 1 4 25.0 0 0 - 0 5 5 2 0 0 3 2 -8
p21
aVWalter Herrmann DET 04/21/2009 DET @ CLE L 8 3 1 1 100.0 1 1 100.0 0 0 - 1 0 1 1 1 0 0 1 18
p22
aVRasheed Wallace DET 04/21/2009 DET @ CLE L 26 8 3 7 42.9 2 2 100.0 0 0 - 0 4 4 0 0 0 1 1 -17
p23
aVRodney Stuckey DET 04/21/2009 DET @ CLE L 32 14 5 15 33.3 0 3 0.0 4 4 100.0 0 1 1 6 0 0 2 2 -20
p24
aVTayshaun Prince DET 04/21/2009 DET @ CLE L 26 2 1 5 20.0 0 0 - 0 0 - 0 3 3 1 0 0 0 1 -17
p25
aVAntonio McDyess DET 04/21/2009 DET @ CLE L 28 8 3 9 33.3 0 0 - 2 2 100.0 2 9 11 1 1 0 3 5 -15
p26
aVRichard Hamilton DET 04/21/2009 DET @ CLE L 40 17 7 16 43.8 1 4 25.0 2 3 66.7 0 0 0 3 3 1 2 3 -30
p27
aVKwame Brown DET 04/21/2009 DET @ CLE L 19 0 0 3 0.0 0 0 - 0 0 - 1 2 3 0 0 0 2 5 -15
p28
aVWill Bynum DET 04/21/2009 DET @ CLE L 18 13 5 13 38.5 0 2 0.0 3 3 100.0 1 3 4 5 2 0 2 4 8
p29
aVJason Maxiell DET 04/21/2009 DET @ CLE L 19 5 2 3 66.7 0 0 - 1 2 50.0 3 1 4 0 0 1 0 0 6
p30
aVArron Afflalo DET 04/21/2009 DET @ CLE L 17 10 4 8 50.0 1 3 33.3 1 2 50.0 0 1 1 0 0 0 0 3 9
p31
aVAmir Johnson DET 04/21/2009 DET @ CLE L 8 2 1 1 100.0 0 0 - 0 0 - 1 1 2 0 0 0 0 2 13
p32
aVTayshaun Prince DET 04/18/2009 DET @ CLE L 38 4 2 7 28.6 0 0 - 0 0 - 0 1 1 2 1 0 1 1 -20
p33
aVAmir Johnson DET 04/18/2009 DET @ CLE L 3 0 0 0 - 0 0 - 0 0 - 0 1 1 0 0 0 0 0 -1
p34
aVKwame Brown DET 04/18/2009 DET @ CLE L 16 5 2 2 100.0 0 0 - 1 2 50.0 4 5 9 0 0 0 1 3 -2
p35
aVArron Afflalo DET 04/18/2009 DET @ CLE L 21 5 2 6 33.3 1 4 25.0 0 1 0.0 1 0 1 1 0 2 1 2 4
p36
aVRodney Stuckey DET 04/18/2009 DET @ CLE L 34 20 7 21 33.3 0 3 0.0 6 6 100.0 2 0 2 4 0 0 0 2 -15
p37
aVJason Maxiell DET 04/18/2009 DET @ CLE L 9 4 2 2 100.0 0 0 - 0 0 - 1 1 2 0 0 0 0 1 -1
p38
aVRasheed Wallace DET 04/18/2009 DET @ CLE L 37 13 6 10 60.0 1 3 33.3 0 0 - 1 8 9 2 0 0 0 4 -17
p39
aVWill Bynum DET 04/18/2009 DET @ CLE L 14 6 3 6 50.0 0 0 - 0 0 - 0 1 1 2 0 0 0 1 -3
p40
aVWalter Herrmann DET 04/18/2009 DET @ CLE L 3 2 1 3 33.3 0 1 0.0 0 0 - 0 0 0 0 0 0 0 0 -1
p41
aVAntonio McDyess DET 04/18/2009 DET @ CLE L 31 10 5 7 71.4 0 0 - 0 0 - 0 5 5 0 1 1 1 3 -15
p42
aVRichard Hamilton DET 04/18/2009 DET @ CLE L 35 15 6 14 42.9 0 1 0.0 3 3 100.0 0 0 0 4 0 0 3 1 -19
p43
a.