(lp0
VPLAYER TEAM DATE MATCHUP W/L MIN PTS FGM FGA FG% 3PM 3PA 3P% FTM FTA FT% OREB DREB REB AST STL BLK TOV PF +/-
p1
aVTyrus Thomas CHI 05/02/2009 CHI @ BOS L 17 4 2 4 50.0 0 0 - 0 0 - 1 4 5 2 2 2 1 2 -3
p2
aVJohn Salmons CHI 05/02/2009 CHI @ BOS L 42 12 3 12 25.0 1 5 20.0 5 6 83.3 0 4 4 3 2 0 2 5 -2
p3
aVBen Gordon CHI 05/02/2009 CHI @ BOS L 46 33 7 23 30.4 4 12 33.3 15 15 100.0 1 2 3 4 0 0 2 3 -6
p4
aVDerrick Rose CHI 05/02/2009 CHI @ BOS L 43 18 9 18 50.0 0 1 0.0 0 0 - 1 3 4 3 0 1 3 4 -12
p5
aVBrad Miller CHI 05/02/2009 CHI @ BOS L 28 9 3 8 37.5 0 1 0.0 3 4 75.0 1 6 7 2 1 2 2 6 -9
p6
aVLindsey Hunter CHI 05/02/2009 CHI @ BOS L 2 0 0 0 - 0 0 - 0 0 - 0 0 0 0 0 0 0 1 3
p7
aVJoakim Noah CHI 05/02/2009 CHI @ BOS L 32 7 1 2 50.0 0 0 - 5 5 100.0 2 13 15 1 1 2 2 6 -8
p8
aVKirk Hinrich CHI 05/02/2009 CHI @ BOS L 29 16 5 10 50.0 2 5 40.0 4 6 66.7 1 1 2 2 4 0 2 2 -13
p9
aVBen Gordon CHI 04/30/2009 CHI vs. BOS W 31 12 4 14 28.6 1 2 50.0 3 4 75.0 0 2 2 4 0 0 2 6 4
p10
aVLinton Johnson CHI 04/30/2009 CHI vs. BOS W 0 0 0 0 - 0 0 - 0 0 - 0 0 0 0 0 0 0 0 -2
p11
aVJohn Salmons CHI 04/30/2009 CHI vs. BOS W 60 35 13 22 59.1 5 9 55.6 4 4 100.0 2 4 6 4 0 0 2 3 4
p12
aVAaron Gray CHI 04/30/2009 CHI vs. BOS W 1 0 0 0 - 0 0 - 0 0 - 0 0 0 0 0 0 0 0 4
p13
aVJoakim Noah CHI 04/30/2009 CHI vs. BOS W 44 9 4 9 44.4 0 0 - 1 1 100.0 6 9 15 3 1 1 1 4 -12
p14
aVTyrus Thomas CHI 04/30/2009 CHI vs. BOS W 38 9 4 9 44.4 0 0 - 1 2 50.0 0 3 3 1 1 2 1 4 -14
p15
aVDerrick Rose CHI 04/30/2009 CHI vs. BOS W 59 28 12 25 48.0 0 0 - 4 6 66.7 1 7 8 7 0 1 5 3 -2
p16
aVKirk Hinrich CHI 04/30/2009 CHI vs. BOS W 43 11 4 11 36.4 1 4 25.0 2 4 50.0 0 2 2 7 2 1 0 3 0
p17
aVBrad Miller CHI 04/30/2009 CHI vs. BOS W 35 23 8 9 88.9 2 2 100.0 5 5 100.0 0 10 10 1 0 2 4 5 26
p18
aVLindsey Hunter CHI 04/30/2009 CHI vs. BOS W 4 1 0 0 - 0 0 - 1 2 50.0 0 0 0 0 0 0 0 2 -3
p19
aVBen Gordon CHI 04/28/2009 CHI @ BOS L 51 26 6 21 28.6 3 10 30.0 11 12 91.7 0 3 3 6 0 1 1 3 -4
p20
aVJohn Salmons CHI 04/28/2009 CHI @ BOS L 49 17 5 15 33.3 2 5 40.0 5 6 83.3 1 4 5 3 1 1 1 3 -3
p21
aVKirk Hinrich CHI 04/28/2009 CHI @ BOS L 31 19 6 12 50.0 3 6 50.0 4 4 100.0 0 4 4 0 1 1 1 3 4
p22
aVLindsey Hunter CHI 04/28/2009 CHI @ BOS L 1 0 0 0 - 0 0 - 0 0 - 0 1 1 0 0 0 0 0 -2
p23
aVBrad Miller CHI 04/28/2009 CHI @ BOS L 18 5 2 4 50.0 1 1 100.0 0 2 0.0 1 3 4 2 0 0 3 2 1
p24
aVTyrus Thomas CHI 04/28/2009 CHI @ BOS L 27 12 4 8 50.0 0 0 - 4 4 100.0 2 6 8 0 1 2 1 3 -10
p25
aVJoakim Noah CHI 04/28/2009 CHI @ BOS L 43 11 4 9 44.4 0 0 - 3 4 75.0 6 11 17 1 1 0 0 4 4
p26
aVDerrick Rose CHI 04/28/2009 CHI @ BOS L 45 14 7 16 43.8 0 1 0.0 0 0 - 4 4 8 6 3 1 6 5 0
p27
aVJoakim Noah CHI 04/26/2009 CHI vs. BOS W 39 12 4 5 80.0 0 0 - 4 6 66.7 1 9 10 3 0 3 1 5 -19
p28
aVLindsey Hunter CHI 04/26/2009 CHI vs. BOS W 0 0 0 0 - 0 0 - 0 0 - 0 0 0 0 0 0 0 0 -3
p29
aVTyrus Thomas CHI 04/26/2009 CHI vs. BOS W 39 14 6 16 37.5 0 0 - 2 4 50.0 4 6 10 2 2 3 2 3 -1
p30
aVKirk Hinrich CHI 04/26/2009 CHI vs. BOS W 43 18 6 13 46.2 2 5 40.0 4 7 57.1 1 2 3 4 3 0 1 2 -1
p31
aVBen Gordon CHI 04/26/2009 CHI vs. BOS W 49 22 10 22 45.5 1 2 50.0 1 2 50.0 1 5 6 1 0 0 2 4 20
p32
aVBrad Miller CHI 04/26/2009 CHI vs. BOS W 25 12 4 6 66.7 1 1 100.0 3 3 100.0 2 3 5 1 1 0 2 6 21
p33
aVDerrick Rose CHI 04/26/2009 CHI vs. BOS W 49 23 10 17 58.8 0 0 - 3 4 75.0 1 10 11 9 0 0 7 4 6
p34
aVJohn Salmons CHI 04/26/2009 CHI vs. BOS W 47 20 5 14 35.7 1 4 25.0 9 9 100.0 0 4 4 3 3 3 0 4 -8
p35
aVDerrick Rose CHI 04/23/2009 CHI vs. BOS L 33 9 4 14 28.6 0 1 0.0 1 3 33.3 2 1 3 2 0 0 7 1 -32
p36
aVAnthony Roberson CHI 04/23/2009 CHI vs. BOS L 4 8 3 4 75.0 2 2 100.0 0 0 - 1 0 1 0 2 0 1 0 8
p37
aVTyrus Thomas CHI 04/23/2009 CHI vs. BOS L 26 6 2 8 25.0 0 0 - 2 2 100.0 1 7 8 0 0 1 2 4 -8
p38
aVLinton Johnson CHI 04/23/2009 CHI vs. BOS L 9 2 0 1 0.0 0 0 - 2 2 100.0 1 2 3 1 0 0 0 0 13
p39
aVKirk Hinrich CHI 04/23/2009 CHI vs. BOS L 22 14 5 10 50.0 3 6 50.0 1 2 50.0 0 1 1 3 0 1 1 2 -7
p40
aVJoakim Noah CHI 04/23/2009 CHI vs. BOS L 30 8 2 5 40.0 0 0 - 4 6 66.7 5 5 10 3 0 2 1 4 -29
p41
aVBen Gordon CHI 04/23/2009 CHI vs. BOS L 37 15 5 13 38.5 1 4 25.0 4 6 66.7 1 1 2 1 2 0 1 2 -29
p42
aVTim Thomas CHI 04/23/2009 CHI vs. BOS L 10 4 2 5 40.0 0 2 0.0 0 0 - 0 1 1 0 0 0 1 2 -3
p43
aVLindsey Hunter CHI 04/23/2009 CHI vs. BOS L 9 3 1 2 50.0 1 2 50.0 0 0 - 0 3 3 3 0 0 0 0 13
p44
aVAaron Gray CHI 04/23/2009 CHI vs. BOS L 9 0 0 2 0.0 0 0 - 0 0 - 0 1 1 0 0 0 1 0 13
p45
aVBrad Miller CHI 04/23/2009 CHI vs. BOS L 18 3 1 5 20.0 0 0 - 1 2 50.0 3 5 8 0 0 0 3 2 -14
p46
aVJohn Salmons CHI 04/23/2009 CHI vs. BOS L 34 14 5 11 45.5 2 5 40.0 2 4 50.0 1 3 4 1 1 0 4 1 -30
p47
aVBrad Miller CHI 04/20/2009 CHI @ BOS L 36 16 4 8 50.0 1 1 100.0 7 8 87.5 1 8 9 2 0 1 4 2 19
p48
aVLinton Johnson CHI 04/20/2009 CHI @ BOS L 1 2 1 1 100.0 0 0 - 0 0 - 1 0 1 0 0 0 0 1 0
p49
aVLindsey Hunter CHI 04/20/2009 CHI @ BOS L 8 2 0 1 0.0 0 1 0.0 2 2 100.0 0 1 1 2 2 0 0 0 2
p50
aVBen Gordon CHI 04/20/2009 CHI @ BOS L 44 42 14 24 58.3 6 11 54.5 8 9 88.9 0 1 1 0 1 0 0 2 -1
p51
aVJohn Salmons CHI 04/20/2009 CHI @ BOS L 39 17 6 17 35.3 1 5 20.0 4 5 80.0 1 1 2 2 1 1 2 1 -7
p52
aVKirk Hinrich CHI 04/20/2009 CHI @ BOS L 19 7 2 2 100.0 1 1 100.0 2 2 100.0 0 4 4 4 1 0 1 4 -4
p53
aVJoakim Noah CHI 04/20/2009 CHI @ BOS L 39 13 6 9 66.7 0 0 - 1 1 100.0 3 5 8 3 2 4 1 4 -4
p54
aVTyrus Thomas CHI 04/20/2009 CHI @ BOS L 20 6 2 7 28.6 0 1 0.0 2 2 100.0 0 4 4 0 0 6 1 2 -21
p55
aVDerrick Rose CHI 04/20/2009 CHI @ BOS L 34 10 5 11 45.5 0 0 - 0 0 - 2 4 6 7 0 2 2 2 1
p56
aVDerrick Rose CHI 04/18/2009 CHI @ BOS W 50 36 12 19 63.2 0 1 0.0 12 12 100.0 1 3 4 11 1 0 5 6 8
p57
aVBrad Miller CHI 04/18/2009 CHI @ BOS W 27 4 2 11 18.2 0 1 0.0 0 0 - 3 9 12 1 0 1 3 2 9
p58
aVJohn Salmons CHI 04/18/2009 CHI @ BOS W 41 12 6 16 37.5 0 5 0.0 0 0 - 1 5 6 0 1 2 1 3 -8
p59
aVJoakim Noah CHI 04/18/2009 CHI @ BOS W 45 11 5 12 41.7 0 0 - 1 2 50.0 5 12 17 2 1 3 2 4 -6
p60
aVBen Gordon CHI 04/18/2009 CHI @ BOS W 46 20 6 17 35.3 1 5 20.0 7 8 87.5 0 3 3 5 0 0 0 2 -1
p61
aVTyrus Thomas CHI 04/18/2009 CHI @ BOS W 28 16 8 12 66.7 0 0 - 0 0 - 0 6 6 1 1 4 3 5 -1
p62
aVKirk Hinrich CHI 04/18/2009 CHI @ BOS W 23 3 1 4 25.0 1 3 33.3 0 0 - 0 3 3 0 1 0 2 2 9
p63
aVTim Thomas CHI 04/18/2009 CHI @ BOS W 5 3 1 5 20.0 1 2 50.0 0 0 - 0 2 2 0 0 0 0 2 0
p64
a.