(lp0
VPLAYER TEAM DATE MATCHUP W/L MIN PTS FGM FGA FG% 3PM 3PA 3P% FTM FTA FT% OREB DREB REB AST STL BLK TOV PF +/-
p1
aVJermaine O'Neal MIA 04/27/2010 MIA @ BOS L 26 7 3 10 30.0 0 0 - 1 2 50.0 2 2 4 2 1 1 0 2 -5
p2
aVCarlos Arroyo MIA 04/27/2010 MIA @ BOS L 18 8 4 4 100.0 0 0 - 0 0 - 0 0 0 3 0 0 1 1 -12
p3
aVDwyane Wade MIA 04/27/2010 MIA @ BOS L 46 31 10 24 41.7 2 7 28.6 9 10 90.0 2 6 8 10 1 2 7 3 -8
p4
aVMario Chalmers MIA 04/27/2010 MIA @ BOS L 31 20 6 13 46.2 3 8 37.5 5 6 83.3 0 4 4 1 0 0 3 4 3
p5
aVJoel Anthony MIA 04/27/2010 MIA @ BOS L 20 6 3 3 100.0 0 0 - 0 0 - 1 2 3 0 0 2 1 4 -4
p6
aVQuentin Richardson MIA 04/27/2010 MIA @ BOS L 39 4 2 8 25.0 0 3 0.0 0 0 - 0 3 3 0 1 1 0 3 -10
p7
aVUdonis Haslem MIA 04/27/2010 MIA @ BOS L 35 6 2 9 22.2 0 0 - 2 2 100.0 4 6 10 0 0 1 1 4 -4
p8
aVDorell Wright MIA 04/27/2010 MIA @ BOS L 12 2 1 5 20.0 0 2 0.0 0 0 - 1 2 3 1 0 0 2 0 -3
p9
aVMichael Beasley MIA 04/27/2010 MIA @ BOS L 14 2 0 3 0.0 0 0 - 2 2 100.0 1 2 3 1 3 0 3 0 -7
p10
aVJoel Anthony MIA 04/25/2010 MIA vs. BOS W 20 1 0 0 - 0 0 - 1 2 50.0 2 0 2 1 0 1 0 3 22
p11
aVMario Chalmers MIA 04/25/2010 MIA vs. BOS W 29 7 3 7 42.9 1 3 33.3 0 0 - 0 2 2 5 1 0 4 1 10
p12
aVJermaine O'Neal MIA 04/25/2010 MIA vs. BOS W 18 2 1 3 33.3 0 0 - 0 2 0.0 2 4 6 1 0 1 2 2 -5
p13
aVDwyane Wade MIA 04/25/2010 MIA vs. BOS W 43 46 16 24 66.7 5 7 71.4 9 14 64.3 0 5 5 5 2 0 6 4 7
p14
aVCarlos Arroyo MIA 04/25/2010 MIA vs. BOS W 21 6 3 7 42.9 0 1 0.0 0 0 - 1 0 1 1 1 0 0 2 2
p15
aVMichael Beasley MIA 04/25/2010 MIA vs. BOS W 34 15 6 13 46.2 0 0 - 3 4 75.0 3 2 5 0 1 0 1 2 -2
p16
aVUdonis Haslem MIA 04/25/2010 MIA vs. BOS W 22 0 0 3 0.0 0 0 - 0 0 - 1 10 11 1 1 0 0 4 7
p17
aVDorell Wright MIA 04/25/2010 MIA vs. BOS W 21 4 2 5 40.0 0 1 0.0 0 0 - 0 4 4 1 0 0 0 2 10
p18
aVQuentin Richardson MIA 04/25/2010 MIA vs. BOS W 31 20 7 14 50.0 4 6 66.7 2 3 66.7 0 7 7 1 3 0 1 2 -6
p19
aVMichael Beasley MIA 04/23/2010 MIA vs. BOS L 29 16 7 11 63.6 0 0 - 2 3 66.7 2 4 6 0 0 0 2 3 6
p20
aVDorell Wright MIA 04/23/2010 MIA vs. BOS L 31 15 4 5 80.0 2 2 100.0 5 5 100.0 1 3 4 5 1 0 1 0 0
p21
aVDwyane Wade MIA 04/23/2010 MIA vs. BOS L 43 34 14 26 53.8 3 11 27.3 3 3 100.0 2 3 5 8 2 2 5 4 5
p22
aVMario Chalmers MIA 04/23/2010 MIA vs. BOS L 33 10 4 8 50.0 0 1 0.0 2 2 100.0 0 1 1 1 1 0 2 3 -6
p23
aVJermaine O'Neal MIA 04/23/2010 MIA vs. BOS L 19 2 1 7 14.3 0 0 - 0 0 - 2 2 4 2 2 1 1 2 -4
p24
aVCarlos Arroyo MIA 04/23/2010 MIA vs. BOS L 19 2 1 4 25.0 0 0 - 0 0 - 0 3 3 0 0 0 0 2 -1
p25
aVUdonis Haslem MIA 04/23/2010 MIA vs. BOS L 34 10 4 8 50.0 0 0 - 2 4 50.0 1 7 8 2 0 0 2 3 2
p26
aVJoel Anthony MIA 04/23/2010 MIA vs. BOS L 13 4 2 2 100.0 0 0 - 0 0 - 1 0 1 0 0 1 0 0 -8
p27
aVQuentin Richardson MIA 04/23/2010 MIA vs. BOS L 17 5 2 6 33.3 1 4 25.0 0 0 - 0 2 2 2 1 0 3 4 -4
p28
aVDorell Wright MIA 04/20/2010 MIA @ BOS L 25 2 1 3 33.3 0 1 0.0 0 0 - 0 5 5 1 0 0 2 0 -3
p29
aVCarlos Arroyo MIA 04/20/2010 MIA @ BOS L 23 4 1 6 16.7 0 0 - 2 2 100.0 0 1 1 4 1 0 1 2 -21
p30
aVDwyane Wade MIA 04/20/2010 MIA @ BOS L 37 29 11 18 61.1 5 8 62.5 2 7 28.6 1 1 2 5 0 2 1 3 -29
p31
aVJamaal Magloire MIA 04/20/2010 MIA @ BOS L 5 0 0 2 0.0 0 0 - 0 0 - 0 1 1 0 0 0 1 1 5
p32
aVUdonis Haslem MIA 04/20/2010 MIA @ BOS L 30 8 4 9 44.4 0 0 - 0 0 - 0 4 4 0 0 0 1 2 -27
p33
aVJoel Anthony MIA 04/20/2010 MIA @ BOS L 14 2 0 1 0.0 0 0 - 2 2 100.0 2 1 3 0 0 0 0 0 -1
p34
aVMario Chalmers MIA 04/20/2010 MIA @ BOS L 18 10 3 5 60.0 2 4 50.0 2 2 100.0 1 1 2 4 0 0 2 6 -7
p35
aVQuentin Richardson MIA 04/20/2010 MIA @ BOS L 32 5 2 7 28.6 1 3 33.3 0 0 - 0 3 3 2 2 0 0 4 -34
p36
aVJames Jones MIA 04/20/2010 MIA @ BOS L 9 2 0 1 0.0 0 1 0.0 2 2 100.0 0 0 0 0 0 0 1 1 6
p37
aVMichael Beasley MIA 04/20/2010 MIA @ BOS L 27 13 6 14 42.9 1 1 100.0 0 0 - 1 6 7 0 0 0 2 4 -16
p38
aVJermaine O'Neal MIA 04/20/2010 MIA @ BOS L 21 2 1 10 10.0 0 0 - 0 1 0.0 1 4 5 0 1 5 2 3 -18
p39
aVDorell Wright MIA 04/17/2010 MIA @ BOS L 22 2 1 7 14.3 0 2 0.0 0 0 - 0 3 3 1 1 0 1 1 -14
p40
aVDwyane Wade MIA 04/17/2010 MIA @ BOS L 40 26 11 18 61.1 0 4 0.0 4 6 66.7 1 7 8 6 3 2 7 2 -11
p41
aVJoel Anthony MIA 04/17/2010 MIA @ BOS L 11 0 0 1 0.0 0 0 - 0 0 - 0 0 0 0 2 1 0 2 -3
p42
aVQuentin Richardson MIA 04/17/2010 MIA @ BOS L 30 15 5 10 50.0 3 6 50.0 2 2 100.0 1 3 4 3 1 0 1 3 1
p43
aVMario Chalmers MIA 04/17/2010 MIA @ BOS L 19 7 2 7 28.6 1 4 25.0 2 3 66.7 0 0 0 2 1 0 1 4 -9
p44
aVJermaine O'Neal MIA 04/17/2010 MIA @ BOS L 32 8 3 14 21.4 0 0 - 2 2 100.0 3 6 9 0 0 2 2 4 3
p45
aVCarlos Arroyo MIA 04/17/2010 MIA @ BOS L 33 6 3 5 60.0 0 0 - 0 0 - 1 3 4 3 1 0 1 2 0
p46
aVMichael Beasley MIA 04/17/2010 MIA @ BOS L 31 6 3 8 37.5 0 1 0.0 0 0 - 3 5 8 2 0 0 5 1 -3
p47
aVUdonis Haslem MIA 04/17/2010 MIA @ BOS L 21 6 3 8 37.5 0 0 - 0 0 - 3 1 4 1 0 0 1 5 -9
p48
a.