(lp0
VPLAYER TEAM DATE MATCHUP W/L MIN PTS FGM FGA FG% 3PM 3PA 3P% FTM FTA FT% OREB DREB REB AST STL BLK TOV PF +/-
p1
aVTheo Ratliff CHA 04/26/2010 CHA vs. ORL L 8 0 0 1 0.0 0 0 - 0 0 - 0 2 2 0 0 0 0 5 -7
p2
aVTyson Chandler CHA 04/26/2010 CHA vs. ORL L 20 6 2 3 66.7 0 0 - 2 2 100.0 0 5 5 0 0 1 0 3 -5
p3
aVD.J. Augustin CHA 04/26/2010 CHA vs. ORL L 19 4 1 5 20.0 0 0 - 2 3 66.7 1 0 1 2 0 1 1 2 0
p4
aVStephen Graham CHA 04/26/2010 CHA vs. ORL L 1 0 0 1 0.0 0 1 0.0 0 0 - 0 0 0 0 0 0 0 0 0
p5
aVRaymond Felton CHA 04/26/2010 CHA vs. ORL L 29 11 3 8 37.5 2 4 50.0 3 5 60.0 0 0 0 6 0 0 1 4 -6
p6
aVLarry Hughes CHA 04/26/2010 CHA vs. ORL L 14 4 1 4 25.0 1 3 33.3 1 3 33.3 1 3 4 2 0 0 0 1 -2
p7
aVGerald Wallace CHA 04/26/2010 CHA vs. ORL L 43 17 6 12 50.0 2 5 40.0 3 6 50.0 0 5 5 4 1 0 1 2 -8
p8
aVDerrick Brown CHA 04/26/2010 CHA vs. ORL L 0 0 0 0 - 0 0 - 0 0 - 0 0 0 0 0 0 0 0 0
p9
aVTyrus Thomas CHA 04/26/2010 CHA vs. ORL L 29 21 9 12 75.0 0 0 - 3 4 75.0 1 8 9 1 0 0 1 5 -5
p10
aVStephen Jackson CHA 04/26/2010 CHA vs. ORL L 39 8 2 11 18.2 0 3 0.0 4 5 80.0 2 2 4 8 1 0 4 4 -8
p11
aVNazr Mohammed CHA 04/26/2010 CHA vs. ORL L 8 6 2 3 66.7 0 0 - 2 3 66.7 0 1 1 0 0 0 0 1 1
p12
aVBoris Diaw CHA 04/26/2010 CHA vs. ORL L 32 13 6 11 54.5 0 3 0.0 1 2 50.0 2 3 5 4 0 0 2 2 -5
p13
aVLarry Hughes CHA 04/24/2010 CHA vs. ORL L 18 14 5 6 83.3 2 3 66.7 2 2 100.0 0 3 3 1 0 0 0 2 9
p14
aVStephen Jackson CHA 04/24/2010 CHA vs. ORL L 42 19 6 18 33.3 1 7 14.3 6 7 85.7 1 3 4 1 3 0 1 2 -10
p15
aVD.J. Augustin CHA 04/24/2010 CHA vs. ORL L 15 5 1 6 16.7 0 3 0.0 3 3 100.0 0 2 2 0 1 0 2 1 9
p16
aVTyson Chandler CHA 04/24/2010 CHA vs. ORL L 12 0 0 0 - 0 0 - 0 0 - 0 0 0 0 0 0 2 5 8
p17
aVRaymond Felton CHA 04/24/2010 CHA vs. ORL L 34 13 5 14 35.7 0 4 0.0 3 3 100.0 0 3 3 6 1 0 2 3 -15
p18
aVTheo Ratliff CHA 04/24/2010 CHA vs. ORL L 9 2 1 1 100.0 0 0 - 0 0 - 0 0 0 0 0 0 0 3 -3
p19
aVBoris Diaw CHA 04/24/2010 CHA vs. ORL L 38 6 3 5 60.0 0 2 0.0 0 0 - 1 3 4 6 1 1 3 3 -12
p20
aVGerald Wallace CHA 04/24/2010 CHA vs. ORL L 40 13 4 12 33.3 2 4 50.0 3 6 50.0 0 8 8 2 3 1 1 1 -5
p21
aVTyrus Thomas CHA 04/24/2010 CHA vs. ORL L 17 8 3 6 50.0 0 0 - 2 2 100.0 2 4 6 0 1 2 2 2 3
p22
aVNazr Mohammed CHA 04/24/2010 CHA vs. ORL L 16 6 3 6 50.0 0 0 - 0 0 - 2 1 3 1 0 1 1 5 -4
p23
aVStephen Graham CHA 04/21/2010 CHA @ ORL L 4 0 0 3 0.0 0 0 - 0 0 - 0 0 0 1 1 0 1 1 -1
p24
aVNazr Mohammed CHA 04/21/2010 CHA @ ORL L 16 10 5 6 83.3 0 0 - 0 0 - 2 1 3 0 1 1 0 4 7
p25
aVLarry Hughes CHA 04/21/2010 CHA @ ORL L 6 0 0 3 0.0 0 2 0.0 0 0 - 0 3 3 1 0 0 1 1 -5
p26
aVD.J. Augustin CHA 04/21/2010 CHA @ ORL L 23 6 2 3 66.7 2 2 100.0 0 0 - 0 1 1 3 0 0 0 0 0
p27
aVGerald Wallace CHA 04/21/2010 CHA @ ORL L 39 15 3 7 42.9 1 2 50.0 8 10 80.0 1 5 6 1 1 4 1 4 -8
p28
aVDerrick Brown CHA 04/21/2010 CHA @ ORL L 1 2 1 1 100.0 0 0 - 0 0 - 0 0 0 0 0 0 0 0 -1
p29
aVBoris Diaw CHA 04/21/2010 CHA @ ORL L 39 5 2 6 33.3 1 2 50.0 0 0 - 3 4 7 4 0 0 5 2 -19
p30
aVRaymond Felton CHA 04/21/2010 CHA @ ORL L 32 4 2 6 33.3 0 1 0.0 0 0 - 2 2 4 4 1 0 1 1 -17
p31
aVTyrus Thomas CHA 04/21/2010 CHA @ ORL L 14 2 1 4 25.0 0 0 - 0 0 - 2 4 6 1 1 0 1 2 5
p32
aVTheo Ratliff CHA 04/21/2010 CHA @ ORL L 13 0 0 3 0.0 0 0 - 0 0 - 0 1 1 0 1 0 1 3 -13
p33
aVTyson Chandler CHA 04/21/2010 CHA @ ORL L 13 6 3 4 75.0 0 0 - 0 1 0.0 1 1 2 0 0 1 1 6 -9
p34
aVStephen Jackson CHA 04/21/2010 CHA @ ORL L 42 27 10 20 50.0 2 5 40.0 5 7 71.4 0 3 3 3 1 0 7 5 -14
p35
aVNazr Mohammed CHA 04/18/2010 CHA @ ORL L 8 2 1 4 25.0 0 0 - 0 0 - 1 0 1 1 0 0 0 3 -14
p36
aVBoris Diaw CHA 04/18/2010 CHA @ ORL L 43 6 3 6 50.0 0 2 0.0 0 0 - 1 3 4 2 0 2 2 4 -12
p37
aVLarry Hughes CHA 04/18/2010 CHA @ ORL L 20 6 2 4 50.0 1 2 50.0 1 2 50.0 0 3 3 2 0 0 2 4 -9
p38
aVTheo Ratliff CHA 04/18/2010 CHA @ ORL L 18 5 2 3 66.7 0 0 - 1 2 50.0 0 0 0 1 1 0 1 4 5
p39
aVD.J. Augustin CHA 04/18/2010 CHA @ ORL L 17 2 1 3 33.3 0 1 0.0 0 0 - 0 0 0 2 0 0 1 1 1
p40
aVTyson Chandler CHA 04/18/2010 CHA @ ORL L 14 2 1 4 25.0 0 0 - 0 0 - 2 1 3 2 2 1 1 2 12
p41
aVStephen Jackson CHA 04/18/2010 CHA @ ORL L 34 18 6 18 33.3 0 3 0.0 6 7 85.7 3 6 9 3 0 1 5 2 -10
p42
aVGerald Wallace CHA 04/18/2010 CHA @ ORL L 43 25 8 13 61.5 0 0 - 9 13 69.2 1 16 17 2 0 1 0 2 -3
p43
aVTyrus Thomas CHA 04/18/2010 CHA @ ORL L 8 4 2 2 100.0 0 0 - 0 0 - 1 0 1 0 0 0 0 0 -5
p44
aVRaymond Felton CHA 04/18/2010 CHA @ ORL L 35 19 7 14 50.0 2 4 50.0 3 4 75.0 1 2 3 4 0 0 2 0 -10
p45
a.