(lp0
VPLAYER TEAM DATE MATCHUP W/L MIN PTS FGM FGA FG% 3PM 3PA 3P% FTM FTA FT% OREB DREB REB AST STL BLK TOV PF +/-
p1
aVMatt Barnes LAL 05/08/2011 LAL @ DAL L 13 9 4 7 57.1 0 2 0.0 1 1 100.0 3 2 5 1 1 0 1 2 -13
p2
aVAndrew Bynum LAL 05/08/2011 LAL @ DAL L 31 6 2 7 28.6 0 0 - 2 2 100.0 1 5 6 1 1 1 3 2 -29
p3
aVMetta World Peace LAL 05/08/2011 LAL @ DAL L 28 11 3 7 42.9 1 3 33.3 4 5 80.0 0 2 2 2 2 0 2 4 -12
p4
aVShannon Brown LAL 05/08/2011 LAL @ DAL L 23 15 5 10 50.0 3 5 60.0 2 3 66.7 1 1 2 2 3 0 0 2 -24
p5
aVLuke Walton LAL 05/08/2011 LAL @ DAL L 4 0 0 2 0.0 0 2 0.0 0 0 - 0 1 1 0 0 0 2 0 -2
p6
aVJoe Smith LAL 05/08/2011 LAL @ DAL L 5 0 0 1 0.0 0 0 - 0 0 - 1 0 1 0 0 0 0 0 -4
p7
aVPau Gasol LAL 05/08/2011 LAL @ DAL L 34 10 4 10 40.0 0 0 - 2 2 100.0 6 2 8 6 1 1 0 3 -23
p8
aVTrey Johnson LAL 05/08/2011 LAL @ DAL L 5 0 0 3 0.0 0 1 0.0 0 0 - 0 1 1 0 0 0 0 1 -4
p9
aVSteve Blake LAL 05/08/2011 LAL @ DAL L 18 3 1 4 25.0 1 4 25.0 0 0 - 0 1 1 1 1 0 0 0 -17
p10
aVDerek Fisher LAL 05/08/2011 LAL @ DAL L 25 5 1 8 12.5 0 2 0.0 3 4 75.0 0 7 7 1 2 0 0 1 -15
p11
aVKobe Bryant LAL 05/08/2011 LAL @ DAL L 37 17 7 18 38.9 0 5 0.0 3 4 75.0 1 2 3 1 0 0 5 1 -29
p12
aVLamar Odom LAL 05/08/2011 LAL @ DAL L 18 10 4 5 80.0 0 0 - 2 5 40.0 2 0 2 1 0 0 3 5 -8
p13
aVShannon Brown LAL 05/06/2011 LAL @ DAL L 19 10 4 8 50.0 1 4 25.0 1 2 50.0 2 1 3 0 0 0 1 3 -1
p14
aVDerek Fisher LAL 05/06/2011 LAL @ DAL L 35 9 3 8 37.5 1 2 50.0 2 2 100.0 0 2 2 5 2 0 1 4 -6
p15
aVKobe Bryant LAL 05/06/2011 LAL @ DAL L 38 17 8 16 50.0 0 3 0.0 1 1 100.0 1 3 4 6 1 0 2 3 -6
p16
aVLamar Odom LAL 05/06/2011 LAL @ DAL L 42 18 8 16 50.0 0 1 0.0 2 3 66.7 1 5 6 3 1 1 1 3 -1
p17
aVSteve Blake LAL 05/06/2011 LAL @ DAL L 15 5 2 3 66.7 1 1 100.0 0 0 - 0 3 3 2 1 0 0 1 -2
p18
aVMatt Barnes LAL 05/06/2011 LAL @ DAL L 11 0 0 2 0.0 0 2 0.0 0 0 - 0 1 1 0 0 0 0 2 4
p19
aVPau Gasol LAL 05/06/2011 LAL @ DAL L 40 12 5 13 38.5 0 0 - 2 3 66.7 5 3 8 2 0 0 2 4 -7
p20
aVAndrew Bynum LAL 05/06/2011 LAL @ DAL L 37 21 9 16 56.3 0 0 - 3 3 100.0 4 6 10 1 1 0 3 5 -9
p21
aVJoe Smith LAL 05/06/2011 LAL @ DAL L 3 0 0 0 - 0 0 - 0 0 - 0 0 0 0 0 0 0 1 -2
p22
aVMetta World Peace LAL 05/04/2011 LAL vs. DAL L 31 11 4 10 40.0 1 4 25.0 2 4 50.0 2 4 6 2 0 3 0 4 -9
p23
aVAndrew Bynum LAL 05/04/2011 LAL vs. DAL L 37 18 8 11 72.7 0 0 - 2 2 100.0 7 6 13 1 0 1 1 2 -5
p24
aVPau Gasol LAL 05/04/2011 LAL vs. DAL L 33 13 5 12 41.7 0 0 - 3 6 50.0 2 8 10 1 1 1 1 5 -1
p25
aVDerek Fisher LAL 05/04/2011 LAL vs. DAL L 32 4 2 7 28.6 0 2 0.0 0 0 - 0 3 3 5 2 0 1 2 -4
p26
aVMatt Barnes LAL 05/04/2011 LAL vs. DAL L 10 0 0 2 0.0 0 1 0.0 0 0 - 0 2 2 1 0 0 1 2 -4
p27
aVSteve Blake LAL 05/04/2011 LAL vs. DAL L 20 0 0 5 0.0 0 5 0.0 0 0 - 0 1 1 1 0 0 2 0 -4
p28
aVKobe Bryant LAL 05/04/2011 LAL vs. DAL L 38 23 9 20 45.0 1 5 20.0 4 5 80.0 0 0 0 3 5 0 1 1 -8
p29
aVLamar Odom LAL 05/04/2011 LAL vs. DAL L 26 6 3 12 25.0 0 2 0.0 0 1 0.0 2 7 9 3 0 0 1 2 -18
p30
aVShannon Brown LAL 05/04/2011 LAL vs. DAL L 13 6 3 4 75.0 0 1 0.0 0 2 0.0 0 0 0 1 0 0 2 2 -7
p31
aVPau Gasol LAL 05/02/2011 LAL vs. DAL L 36 15 5 10 50.0 0 0 - 5 6 83.3 5 6 11 7 0 1 3 3 9
p32
aVDerek Fisher LAL 05/02/2011 LAL vs. DAL L 31 8 3 6 50.0 1 2 50.0 1 1 100.0 0 1 1 6 2 1 0 3 -1
p33
aVLamar Odom LAL 05/02/2011 LAL vs. DAL L 31 15 5 10 50.0 0 1 0.0 5 5 100.0 3 9 12 2 0 1 1 1 3
p34
aVShannon Brown LAL 05/02/2011 LAL vs. DAL L 14 6 3 6 50.0 0 2 0.0 0 1 0.0 0 1 1 0 2 1 2 0 -8
p35
aVMatt Barnes LAL 05/02/2011 LAL vs. DAL L 16 4 2 6 33.3 0 1 0.0 0 0 - 2 3 5 1 0 1 1 2 -3
p36
aVAndrew Bynum LAL 05/02/2011 LAL vs. DAL L 29 8 3 8 37.5 0 0 - 2 2 100.0 0 5 5 1 0 1 0 1 -16
p37
aVMetta World Peace LAL 05/02/2011 LAL vs. DAL L 31 2 1 8 12.5 0 3 0.0 0 0 - 1 2 3 4 3 1 1 0 1
p38
aVKobe Bryant LAL 05/02/2011 LAL vs. DAL L 35 36 14 29 48.3 4 9 44.4 4 5 80.0 0 5 5 0 1 1 3 2 6
p39
aVSteve Blake LAL 05/02/2011 LAL vs. DAL L 17 0 0 1 0.0 0 1 0.0 0 0 - 0 1 1 0 1 0 0 0 -1
p40
aVPau Gasol LAL 04/28/2011 LAL @ NOH W 34 16 5 12 41.7 0 0 - 6 6 100.0 1 7 8 3 0 2 2 4 10
p41
aVJoe Smith LAL 04/28/2011 LAL @ NOH W 1 0 0 0 - 0 0 - 0 0 - 0 0 0 0 0 0 0 0 1
p42
aVAndrew Bynum LAL 04/28/2011 LAL @ NOH W 29 18 8 13 61.5 0 0 - 2 2 100.0 8 4 12 1 1 2 4 2 14
p43
aVLamar Odom LAL 04/28/2011 LAL @ NOH W 32 14 5 10 50.0 1 2 50.0 3 4 75.0 1 7 8 4 0 0 0 1 11
p44
aVSteve Blake LAL 04/28/2011 LAL @ NOH W 13 0 0 3 0.0 0 1 0.0 0 0 - 0 0 0 4 1 0 1 2 2
p45
aVMetta World Peace LAL 04/28/2011 LAL @ NOH W 30 4 2 6 33.3 0 2 0.0 0 0 - 2 3 5 5 1 1 0 2 18
p46
aVKobe Bryant LAL 04/28/2011 LAL @ NOH W 30 24 6 16 37.5 2 4 50.0 10 10 100.0 1 0 1 2 3 0 4 1 15
p47
aVMatt Barnes LAL 04/28/2011 LAL @ NOH W 18 8 3 5 60.0 2 2 100.0 0 0 - 1 4 5 0 0 1 0 3 0
p48
aVDerek Fisher LAL 04/28/2011 LAL @ NOH W 34 6 3 4 75.0 0 1 0.0 0 0 - 0 2 2 3 1 0 1 2 15
p49
aVShannon Brown LAL 04/28/2011 LAL @ NOH W 18 8 2 5 40.0 0 2 0.0 4 4 100.0 0 2 2 0 0 0 0 1 3
p50
aVTrey Johnson LAL 04/28/2011 LAL @ NOH W 1 0 0 0 - 0 0 - 0 0 - 0 0 0 1 0 0 0 0 1
p51
aVSteve Blake LAL 04/26/2011 LAL vs. NOH W 15 3 1 1 100.0 1 1 100.0 0 0 - 0 3 3 3 1 0 0 2 14
p52
aVDerek Fisher LAL 04/26/2011 LAL vs. NOH W 34 13 5 6 83.3 2 3 66.7 1 2 50.0 0 2 2 3 1 1 1 1 2
p53
aVKobe Bryant LAL 04/26/2011 LAL vs. NOH W 29 19 8 13 61.5 0 1 0.0 3 4 75.0 1 1 2 4 1 0 3 3 9
p54
aVMatt Barnes LAL 04/26/2011 LAL vs. NOH W 15 5 1 4 25.0 0 1 0.0 3 4 75.0 4 0 4 1 1 0 2 3 14
p55
aVShannon Brown LAL 04/26/2011 LAL vs. NOH W 19 8 2 8 25.0 2 5 40.0 2 2 100.0 1 3 4 0 0 0 0 1 7
p56
aVAndrew Bynum LAL 04/26/2011 LAL vs. NOH W 29 18 6 11 54.5 0 0 - 6 7 85.7 5 5 10 2 0 2 3 3 7
p57
aVMetta World Peace LAL 04/26/2011 LAL vs. NOH W 33 11 4 8 50.0 1 3 33.3 2 2 100.0 1 1 2 2 0 0 2 2 2
p58
aVLamar Odom LAL 04/26/2011 LAL vs. NOH W 29 13 4 12 33.3 1 4 25.0 4 4 100.0 1 6 7 2 1 1 1 3 13
p59
aVPau Gasol LAL 04/26/2011 LAL vs. NOH W 38 16 6 12 50.0 0 0 - 4 5 80.0 2 6 8 4 0 3 3 2 12
p60
aVLamar Odom LAL 04/24/2011 LAL @ NOH L 25 6 1 7 14.3 0 3 0.0 4 4 100.0 1 3 4 0 0 0 2 0 -8
p61
aVAndrew Bynum LAL 04/24/2011 LAL @ NOH L 35 11 3 8 37.5 0 0 - 5 6 83.3 4 5 9 0 1 3 2 4 3
p62
aVShannon Brown LAL 04/24/2011 LAL @ NOH L 13 6 3 6 50.0 0 2 0.0 0 0 - 0 2 2 0 0 0 1 0 -6
p63
aVKobe Bryant LAL 04/24/2011 LAL @ NOH L 36 17 5 18 27.8 0 3 0.0 7 9 77.8 1 5 6 8 1 0 2 4 -1
p64
aVMatt Barnes LAL 04/24/2011 LAL @ NOH L 12 0 0 2 0.0 0 1 0.0 0 0 - 0 0 0 1 0 0 0 3 -2
p65
aVMetta World Peace LAL 04/24/2011 LAL @ NOH L 35 16 7 10 70.0 2 4 50.0 0 2 0.0 1 3 4 0 2 0 1 2 -1
p66
aVDerek Fisher LAL 04/24/2011 LAL @ NOH L 34 10 4 7 57.1 0 2 0.0 2 2 100.0 0 1 1 2 1 0 1 3 -3
p67
aVSteve Blake LAL 04/24/2011 LAL @ NOH L 14 6 2 3 66.7 2 3 66.7 0 0 - 0 2 2 2 0 0 0 1 -2
p68
aVPau Gasol LAL 04/24/2011 LAL @ NOH L 36 16 6 11 54.5 0 0 - 4 7 57.1 2 2 4 4 1 3 0 5 -5
p69
aVKobe Bryant LAL 04/22/2011 LAL @ NOH W 34 30 10 20 50.0 4 7 57.1 6 7 85.7 0 6 6 2 3 1 4 2 15
p70
aVLamar Odom LAL 04/22/2011 LAL @ NOH W 25 13 4 8 50.0 0 1 0.0 5 6 83.3 2 7 9 2 0 0 3 5 1
p71
aVDerek Fisher LAL 04/22/2011 LAL @ NOH W 32 10 3 4 75.0 1 1 100.0 3 4 75.0 0 1 1 5 3 0 1 2 16
p72
aVMatt Barnes LAL 04/22/2011 LAL @ NOH W 16 2 1 4 25.0 0 2 0.0 0 2 0.0 1 1 2 0 2 0 0 2 -1
p73
aVShannon Brown LAL 04/22/2011 LAL @ NOH W 18 2 1 4 25.0 0 2 0.0 0 0 - 0 2 2 0 0 1 0 0 4
p74
aVJoe Smith LAL 04/22/2011 LAL @ NOH W 1 0 0 1 0.0 0 0 - 0 0 - 0 0 0 0 0 0 0 0 -3
p75
aVAndrew Bynum LAL 04/22/2011 LAL @ NOH W 35 14 6 13 46.2 0 0 - 2 2 100.0 5 6 11 0 0 0 2 4 12
p76
aVSteve Blake LAL 04/22/2011 LAL @ NOH W 16 3 1 1 100.0 1 1 100.0 0 0 - 0 0 0 2 0 0 0 2 -2
p77
aVPau Gasol LAL 04/22/2011 LAL @ NOH W 33 17 7 13 53.8 1 1 100.0 2 2 100.0 4 6 10 4 0 1 3 3 17
p78
aVMetta World Peace LAL 04/22/2011 LAL @ NOH W 30 9 4 8 50.0 0 1 0.0 1 1 100.0 2 0 2 2 0 0 0 3 11
p79
aVAndrew Bynum LAL 04/20/2011 LAL vs. NOH W 32 17 8 11 72.7 0 0 - 1 3 33.3 1 10 11 1 1 2 1 6 8
p80
aVMetta World Peace LAL 04/20/2011 LAL vs. NOH W 33 15 6 14 42.9 2 5 40.0 1 1 100.0 3 3 6 2 2 2 1 1 -6
p81
aVPau Gasol LAL 04/20/2011 LAL vs. NOH W 36 8 2 10 20.0 0 0 - 4 4 100.0 5 0 5 1 1 3 3 2 1
p82
aVDerek Fisher LAL 04/20/2011 LAL vs. NOH W 30 9 2 9 22.2 1 1 100.0 4 4 100.0 1 2 3 4 0 0 0 2 -1
p83
aVShannon Brown LAL 04/20/2011 LAL vs. NOH W 16 3 1 4 25.0 1 1 100.0 0 0 - 0 2 2 3 1 0 2 0 12
p84
aVKobe Bryant LAL 04/20/2011 LAL vs. NOH W 35 11 3 10 30.0 0 2 0.0 5 8 62.5 2 1 3 2 1 0 2 4 1
p85
aVSteve Blake LAL 04/20/2011 LAL vs. NOH W 18 0 0 2 0.0 0 1 0.0 0 0 - 1 2 3 5 0 0 2 0 10
p86
aVLamar Odom LAL 04/20/2011 LAL vs. NOH W 28 16 8 12 66.7 0 1 0.0 0 2 0.0 0 7 7 2 0 1 2 3 12
p87
aVMatt Barnes LAL 04/20/2011 LAL vs. NOH W 12 8 4 4 100.0 0 0 - 0 0 - 0 4 4 0 2 0 0 2 8
p88
aVKobe Bryant LAL 04/17/2011 LAL vs. NOH L 42 34 13 26 50.0 1 2 50.0 7 8 87.5 1 3 4 5 0 1 5 2 2
p89
aVMetta World Peace LAL 04/17/2011 LAL vs. NOH L 36 16 4 8 50.0 2 3 66.7 6 6 100.0 5 6 11 1 0 0 2 5 3
p90
aVJoe Smith LAL 04/17/2011 LAL vs. NOH L 1 0 0 0 - 0 0 - 0 0 - 0 0 0 0 0 0 0 0 2
p91
aVShannon Brown LAL 04/17/2011 LAL vs. NOH L 13 8 4 6 66.7 0 1 0.0 0 0 - 1 0 1 1 0 0 1 1 -12
p92
aVTrey Johnson LAL 04/17/2011 LAL vs. NOH L 6 3 1 2 50.0 0 0 - 1 2 50.0 1 2 3 0 0 0 0 1 -5
p93
aVDerek Fisher LAL 04/17/2011 LAL vs. NOH L 39 8 3 8 37.5 1 1 100.0 1 2 50.0 0 5 5 2 0 0 2 5 -4
p94
aVLamar Odom LAL 04/17/2011 LAL vs. NOH L 31 10 3 6 50.0 2 5 40.0 2 4 50.0 0 1 1 2 0 0 1 2 -8
p95
aVAndrew Bynum LAL 04/17/2011 LAL vs. NOH L 26 13 4 7 57.1 0 0 - 5 7 71.4 1 8 9 0 0 2 1 4 -15
p96
aVMatt Barnes LAL 04/17/2011 LAL vs. NOH L 8 0 0 2 0.0 0 0 - 0 0 - 0 0 0 0 1 0 1 2 -11
p97
aVPau Gasol LAL 04/17/2011 LAL vs. NOH L 38 8 2 9 22.2 0 1 0.0 4 4 100.0 0 6 6 6 0 2 0 2 1
p98
aVTheo Ratliff LAL 04/17/2011 LAL vs. NOH L 1 0 0 0 - 0 0 - 0 0 - 0 1 1 0 0 0 0 0 2
p99
a.