(lp0
VPLAYER TEAM DATE MATCHUP W/L MIN PTS FGM FGA FG% 3PM 3PA 3P% FTM FTA FT% OREB DREB REB AST STL BLK TOV PF +/-
p1
aVLuol Deng CHI 05/26/2011 CHI vs. MIA L 36 18 6 17 35.3 2 4 50.0 4 5 80.0 1 6 7 4 1 0 3 5 -4
p2
aVTaj Gibson CHI 05/26/2011 CHI vs. MIA L 24 0 0 3 0.0 0 0 - 0 0 - 1 6 7 1 1 0 1 2 -2
p3
aVKeith Bogans CHI 05/26/2011 CHI vs. MIA L 20 5 2 5 40.0 1 4 25.0 0 0 - 0 1 1 1 1 0 0 3 -2
p4
aVRonnie Brewer CHI 05/26/2011 CHI vs. MIA L 27 10 4 5 80.0 1 2 50.0 1 2 50.0 1 2 3 1 1 1 0 3 -3
p5
aVKurt Thomas CHI 05/26/2011 CHI vs. MIA L 18 4 2 5 40.0 0 0 - 0 0 - 4 4 8 1 0 1 1 2 -6
p6
aVJoakim Noah CHI 05/26/2011 CHI vs. MIA L 28 5 2 4 50.0 0 0 - 1 2 50.0 1 7 8 0 2 3 0 4 -3
p7
aVCarlos Boozer CHI 05/26/2011 CHI vs. MIA L 26 5 1 6 16.7 0 0 - 3 4 75.0 1 5 6 0 0 0 0 4 5
p8
aVCJ Watson CHI 05/26/2011 CHI vs. MIA L 6 3 1 3 33.3 0 1 0.0 1 2 50.0 0 0 0 2 1 0 0 0 4
p9
aVKyle Korver CHI 05/26/2011 CHI vs. MIA L 13 5 2 4 50.0 1 3 33.3 0 0 - 0 0 0 0 0 1 1 0 3
p10
aVDerrick Rose CHI 05/26/2011 CHI vs. MIA L 42 25 9 29 31.0 2 8 25.0 5 6 83.3 2 3 5 8 1 1 4 5 -7
p11
aVRonnie Brewer CHI 05/24/2011 CHI @ MIA L 21 7 2 3 66.7 1 1 100.0 2 3 66.7 1 1 2 0 0 1 0 2 -12
p12
aVKyle Korver CHI 05/24/2011 CHI @ MIA L 16 5 2 6 33.3 0 3 0.0 1 1 100.0 0 1 1 1 0 0 3 3 0
p13
aVOmer Asik CHI 05/24/2011 CHI @ MIA L 2 0 0 0 - 0 0 - 0 0 - 0 0 0 0 0 0 0 2 -9
p14
aVDerrick Rose CHI 05/24/2011 CHI @ MIA L 49 23 8 27 29.6 1 9 11.1 6 7 85.7 1 2 3 6 2 0 7 3 -2
p15
aVTaj Gibson CHI 05/24/2011 CHI @ MIA L 10 0 0 1 0.0 0 0 - 0 0 - 1 0 1 0 0 0 0 2 -21
p16
aVJoakim Noah CHI 05/24/2011 CHI @ MIA L 45 6 3 10 30.0 0 0 - 0 0 - 6 8 14 6 2 1 2 6 5
p17
aVKeith Bogans CHI 05/24/2011 CHI @ MIA L 23 6 2 6 33.3 2 6 33.3 0 0 - 0 1 1 2 0 1 2 2 10
p18
aVCarlos Boozer CHI 05/24/2011 CHI @ MIA L 49 20 7 14 50.0 0 0 - 6 9 66.7 0 11 11 3 1 0 1 4 9
p19
aVLuol Deng CHI 05/24/2011 CHI @ MIA L 44 20 8 16 50.0 2 5 40.0 2 2 100.0 1 7 8 2 3 2 3 4 -8
p20
aVCJ Watson CHI 05/24/2011 CHI @ MIA L 7 6 3 4 75.0 0 0 - 0 0 - 0 1 1 0 0 0 1 0 -12
p21
aVDerrick Rose CHI 05/22/2011 CHI @ MIA L 39 20 8 19 42.1 1 3 33.3 3 3 100.0 1 4 5 5 1 0 2 2 -13
p22
aVKeith Bogans CHI 05/22/2011 CHI @ MIA L 18 4 1 3 33.3 1 3 33.3 1 2 50.0 0 1 1 0 0 0 2 2 -8
p23
aVCarlos Boozer CHI 05/22/2011 CHI @ MIA L 39 26 8 19 42.1 0 0 - 10 12 83.3 7 10 17 1 0 2 1 3 -6
p24
aVRonnie Brewer CHI 05/22/2011 CHI @ MIA L 25 4 2 6 33.3 0 0 - 0 0 - 0 0 0 1 2 0 0 0 4
p25
aVJoakim Noah CHI 05/22/2011 CHI @ MIA L 29 1 0 4 0.0 0 0 - 1 2 50.0 1 4 5 6 0 2 2 5 -10
p26
aVKyle Korver CHI 05/22/2011 CHI @ MIA L 11 3 1 2 50.0 1 1 100.0 0 0 - 0 1 1 0 0 0 0 4 -6
p27
aVCJ Watson CHI 05/22/2011 CHI @ MIA L 9 2 1 2 50.0 0 0 - 0 0 - 0 0 0 2 0 0 0 1 2
p28
aVOmer Asik CHI 05/22/2011 CHI @ MIA L 15 0 0 3 0.0 0 0 - 0 0 - 0 1 1 0 1 0 0 2 -3
p29
aVTaj Gibson CHI 05/22/2011 CHI @ MIA L 12 11 5 6 83.3 0 0 - 1 2 50.0 3 0 3 0 0 0 1 2 -3
p30
aVLuol Deng CHI 05/22/2011 CHI @ MIA L 42 14 6 13 46.2 2 5 40.0 0 0 - 1 7 8 0 1 0 3 3 -12
p31
aVOmer Asik CHI 05/18/2011 CHI vs. MIA L 17 0 0 0 - 0 0 - 0 1 0.0 0 2 2 0 0 1 1 2 3
p32
aVJoakim Noah CHI 05/18/2011 CHI vs. MIA L 31 9 4 9 44.4 0 0 - 1 2 50.0 5 3 8 1 1 1 1 4 -13
p33
aVTaj Gibson CHI 05/18/2011 CHI vs. MIA L 21 8 4 7 57.1 0 0 - 0 1 0.0 1 0 1 0 0 3 0 2 -7
p34
aVKeith Bogans CHI 05/18/2011 CHI vs. MIA L 16 5 2 5 40.0 1 4 25.0 0 2 0.0 0 2 2 0 0 0 0 3 -9
p35
aVCJ Watson CHI 05/18/2011 CHI vs. MIA L 6 2 0 2 0.0 0 1 0.0 2 2 100.0 0 1 1 0 0 0 0 2 2
p36
aVDerrick Rose CHI 05/18/2011 CHI vs. MIA L 42 21 7 23 30.4 0 3 0.0 7 10 70.0 5 1 6 8 1 0 2 3 -12
p37
aVRonnie Brewer CHI 05/18/2011 CHI vs. MIA L 16 7 2 4 50.0 0 0 - 3 4 75.0 0 4 4 2 2 0 0 0 5
p38
aVLuol Deng CHI 05/18/2011 CHI vs. MIA L 46 13 5 15 33.3 1 7 14.3 2 2 100.0 2 3 5 2 0 0 4 3 -8
p39
aVKyle Korver CHI 05/18/2011 CHI vs. MIA L 18 3 1 7 14.3 1 5 20.0 0 0 - 0 4 4 0 0 0 0 4 -8
p40
aVCarlos Boozer CHI 05/18/2011 CHI vs. MIA L 27 7 3 10 30.0 0 0 - 1 2 50.0 4 4 8 2 2 2 2 2 -3
p41
aVLuol Deng CHI 05/15/2011 CHI vs. MIA W 45 21 7 15 46.7 4 6 66.7 3 3 100.0 2 5 7 2 4 1 0 2 18
p42
aVTaj Gibson CHI 05/15/2011 CHI vs. MIA W 23 9 4 8 50.0 0 0 - 1 1 100.0 3 4 7 2 0 2 1 3 17
p43
aVCJ Watson CHI 05/15/2011 CHI vs. MIA W 10 3 1 4 25.0 1 2 50.0 0 0 - 2 0 2 5 1 0 0 0 7
p44
aVCarlos Boozer CHI 05/15/2011 CHI vs. MIA W 26 14 5 10 50.0 0 0 - 4 4 100.0 4 5 9 2 1 0 1 2 1
p45
aVDerrick Rose CHI 05/15/2011 CHI vs. MIA W 38 28 10 22 45.5 3 7 42.9 5 6 83.3 0 1 1 6 0 0 4 0 14
p46
aVJoakim Noah CHI 05/15/2011 CHI vs. MIA W 36 9 4 14 28.6 0 0 - 1 2 50.0 8 6 14 4 2 2 1 1 15
p47
aVKyle Korver CHI 05/15/2011 CHI vs. MIA W 17 3 1 3 33.3 1 2 50.0 0 0 - 0 0 0 1 1 0 0 2 9
p48
aVKeith Bogans CHI 05/15/2011 CHI vs. MIA W 15 3 1 4 25.0 1 3 33.3 0 0 - 0 0 0 1 1 0 0 2 2
p49
aVRonnie Brewer CHI 05/15/2011 CHI vs. MIA W 19 8 3 5 60.0 0 1 0.0 2 2 100.0 0 3 3 0 1 0 0 1 13
p50
aVOmer Asik CHI 05/15/2011 CHI vs. MIA W 11 5 2 2 100.0 0 0 - 1 2 50.0 0 2 2 0 0 0 2 0 9
p51
aVCJ Watson CHI 05/12/2011 CHI @ ATL W 10 0 0 3 0.0 0 0 - 0 0 - 0 2 2 4 1 0 2 1 -4
p52
aVJoakim Noah CHI 05/12/2011 CHI @ ATL W 27 11 5 7 71.4 0 0 - 1 1 100.0 2 4 6 1 0 3 2 4 10
p53
aVLuol Deng CHI 05/12/2011 CHI @ ATL W 40 13 6 14 42.9 0 3 0.0 1 2 50.0 0 5 5 5 5 0 0 2 22
p54
aVKeith Bogans CHI 05/12/2011 CHI @ ATL W 22 3 1 3 33.3 1 3 33.3 0 0 - 0 0 0 2 0 0 0 1 14
p55
aVCarlos Boozer CHI 05/12/2011 CHI @ ATL W 35 23 10 16 62.5 0 0 - 3 3 100.0 2 8 10 5 1 0 1 2 18
p56
aVRonnie Brewer CHI 05/12/2011 CHI @ ATL W 16 2 1 3 33.3 0 0 - 0 0 - 0 1 1 2 0 0 0 0 5
p57
aVKyle Korver CHI 05/12/2011 CHI @ ATL W 19 7 3 7 42.9 1 3 33.3 0 0 - 0 0 0 2 0 0 0 5 -1
p58
aVTaj Gibson CHI 05/12/2011 CHI @ ATL W 14 10 5 7 71.4 0 0 - 0 0 - 1 3 4 1 0 1 1 1 2
p59
aVOmer Asik CHI 05/12/2011 CHI @ ATL W 20 5 2 3 66.7 0 0 - 1 1 100.0 1 2 3 0 0 2 1 4 10
p60
aVDerrick Rose CHI 05/12/2011 CHI @ ATL W 38 19 8 14 57.1 1 4 25.0 2 3 66.7 0 4 4 12 0 0 3 2 24
p61
aVCarlos Boozer CHI 05/10/2011 CHI vs. ATL W 29 11 4 11 36.4 0 0 - 3 3 100.0 4 8 12 0 0 0 1 1 3
p62
aVKyle Korver CHI 05/10/2011 CHI vs. ATL W 4 0 0 0 - 0 0 - 0 0 - 0 0 0 0 1 0 0 0 1
p63
aVRonnie Brewer CHI 05/10/2011 CHI vs. ATL W 21 4 2 3 66.7 0 0 - 0 0 - 2 3 5 1 2 0 0 1 6
p64
aVTaj Gibson CHI 05/10/2011 CHI vs. ATL W 20 11 5 5 100.0 0 0 - 1 3 33.3 1 1 2 2 0 1 1 3 9
p65
aVCJ Watson CHI 05/10/2011 CHI vs. ATL W 6 2 1 2 50.0 0 0 - 0 0 - 0 0 0 2 0 0 1 0 -5
p66
aVLuol Deng CHI 05/10/2011 CHI vs. ATL W 46 23 8 18 44.4 0 4 0.0 7 7 100.0 0 4 4 3 0 1 1 2 15
p67
aVDerrick Rose CHI 05/10/2011 CHI vs. ATL W 42 33 11 24 45.8 1 5 20.0 10 13 76.9 0 2 2 10 0 0 2 2 17
p68
aVKeith Bogans CHI 05/10/2011 CHI vs. ATL W 24 11 4 7 57.1 3 5 60.0 0 0 - 1 1 2 0 1 0 1 2 2
p69
aVJoakim Noah CHI 05/10/2011 CHI vs. ATL W 27 0 0 2 0.0 0 0 - 0 0 - 1 5 6 3 1 0 1 3 4
p70
aVOmer Asik CHI 05/10/2011 CHI vs. ATL W 20 0 0 0 - 0 0 - 0 2 0.0 1 3 4 0 0 1 1 2 8
p71
aVRasual Butler CHI 05/10/2011 CHI vs. ATL W 1 0 0 0 - 0 0 - 0 0 - 0 0 0 0 0 0 0 0 0
p72
aVCarlos Boozer CHI 05/08/2011 CHI @ ATL L 35 18 7 10 70.0 0 0 - 4 4 100.0 1 5 6 2 0 0 2 4 -6
p73
aVRonnie Brewer CHI 05/08/2011 CHI @ ATL L 13 0 0 2 0.0 0 0 - 0 0 - 0 0 0 0 0 1 0 2 4
p74
aVJoakim Noah CHI 05/08/2011 CHI @ ATL L 35 6 2 4 50.0 0 0 - 2 4 50.0 4 7 11 3 0 1 1 3 -16
p75
aVTaj Gibson CHI 05/08/2011 CHI @ ATL L 13 9 3 3 100.0 0 0 - 3 4 75.0 0 0 0 0 2 4 0 2 -6
p76
aVCJ Watson CHI 05/08/2011 CHI @ ATL L 6 0 0 1 0.0 0 0 - 0 0 - 0 1 1 0 2 0 2 0 0
p77
aVOmer Asik CHI 05/08/2011 CHI @ ATL L 13 3 1 2 50.0 0 0 - 1 2 50.0 3 5 8 1 0 2 0 2 4
p78
aVLuol Deng CHI 05/08/2011 CHI @ ATL L 45 13 5 14 35.7 1 6 16.7 2 2 100.0 2 5 7 2 0 2 0 3 -9
p79
aVDerrick Rose CHI 05/08/2011 CHI @ ATL L 44 34 12 32 37.5 1 3 33.3 9 11 81.8 2 2 4 10 1 0 3 1 -11
p80
aVKyle Korver CHI 05/08/2011 CHI @ ATL L 19 2 1 8 12.5 0 5 0.0 0 0 - 0 0 0 0 1 0 1 0 -13
p81
aVKeith Bogans CHI 05/08/2011 CHI @ ATL L 17 3 1 2 50.0 1 2 50.0 0 0 - 0 0 0 1 0 0 1 3 -7
p82
aVRonnie Brewer CHI 05/06/2011 CHI @ ATL W 15 2 1 2 50.0 0 0 - 0 0 - 0 2 2 1 2 0 0 1 1
p83
aVKyle Korver CHI 05/06/2011 CHI @ ATL W 18 11 4 6 66.7 3 4 75.0 0 0 - 0 1 1 1 1 0 3 3 8
p84
aVTaj Gibson CHI 05/06/2011 CHI @ ATL W 26 13 5 9 55.6 0 0 - 3 4 75.0 7 4 11 0 0 2 1 2 8
p85
aVJoakim Noah CHI 05/06/2011 CHI @ ATL W 34 2 1 8 12.5 0 0 - 0 0 - 8 7 15 3 0 5 0 3 15
p86
aVLuol Deng CHI 05/06/2011 CHI @ ATL W 42 7 3 10 30.0 1 4 25.0 0 1 0.0 0 6 6 1 1 0 0 1 15
p87
aVDerrick Rose CHI 05/06/2011 CHI @ ATL W 38 44 16 27 59.3 4 7 57.1 8 9 88.9 1 4 5 7 1 1 2 1 17
p88
aVCarlos Boozer CHI 05/06/2011 CHI @ ATL W 22 6 3 6 50.0 0 0 - 0 0 - 1 5 6 2 0 0 3 3 9
p89
aVOmer Asik CHI 05/06/2011 CHI @ ATL W 14 0 0 0 - 0 0 - 0 0 - 1 0 1 0 0 1 0 3 2
p90
aVCJ Watson CHI 05/06/2011 CHI @ ATL W 10 8 2 5 40.0 0 1 0.0 4 4 100.0 0 0 0 2 1 0 2 1 0
p91
aVKeith Bogans CHI 05/06/2011 CHI @ ATL W 19 6 2 6 33.3 2 4 50.0 0 0 - 0 0 0 1 1 0 0 2 10
p92
aVRasual Butler CHI 05/06/2011 CHI @ ATL W 2 0 0 0 - 0 0 - 0 0 - 0 0 0 0 0 0 0 0 0
p93
aVDerrick Rose CHI 05/04/2011 CHI vs. ATL W 43 25 10 27 37.0 1 8 12.5 4 6 66.7 0 6 6 10 0 2 8 0 14
p94
aVRonnie Brewer CHI 05/04/2011 CHI vs. ATL W 11 2 1 3 33.3 0 1 0.0 0 0 - 0 2 2 1 0 1 1 0 0
p95
aVOmer Asik CHI 05/04/2011 CHI vs. ATL W 3 0 0 0 - 0 0 - 0 0 - 0 0 0 0 0 0 0 1 0
p96
aVCarlos Boozer CHI 05/04/2011 CHI vs. ATL W 32 8 4 12 33.3 0 0 - 0 0 - 3 8 11 0 1 0 1 3 6
p97
aVJoakim Noah CHI 05/04/2011 CHI vs. ATL W 39 19 6 8 75.0 0 0 - 7 8 87.5 7 7 14 2 3 1 2 5 12
p98
aVKeith Bogans CHI 05/04/2011 CHI vs. ATL W 18 6 2 4 50.0 2 4 50.0 0 0 - 0 4 4 1 1 0 0 2 1
p99
aVKyle Korver CHI 05/04/2011 CHI vs. ATL W 18 5 1 9 11.1 1 5 20.0 2 2 100.0 0 2 2 2 0 0 1 1 11
p100
aVLuol Deng CHI 05/04/2011 CHI vs. ATL W 46 14 6 13 46.2 0 2 0.0 2 2 100.0 1 11 12 2 1 1 0 2 14
p101
aVTaj Gibson CHI 05/04/2011 CHI vs. ATL W 16 2 1 3 33.3 0 0 - 0 0 - 3 2 5 1 0 0 0 0 7
p102
aVKurt Thomas CHI 05/04/2011 CHI vs. ATL W 6 2 1 2 50.0 0 1 0.0 0 0 - 0 1 1 0 0 0 0 2 1
p103
aVCJ Watson CHI 05/04/2011 CHI vs. ATL W 8 3 1 3 33.3 1 1 100.0 0 0 - 0 1 1 0 0 0 0 1 -1
p104
aVRonnie Brewer CHI 05/02/2011 CHI vs. ATL L 14 6 2 4 50.0 1 1 100.0 1 2 50.0 1 0 1 1 0 1 1 2 -15
p105
aVJoakim Noah CHI 05/02/2011 CHI vs. ATL L 39 11 3 7 42.9 0 0 - 5 6 83.3 1 8 9 2 0 1 0 3 0
p106
aVLuol Deng CHI 05/02/2011 CHI vs. ATL L 45 21 8 12 66.7 0 0 - 5 6 83.3 3 3 6 2 1 1 2 2 -9
p107
aVKyle Korver CHI 05/02/2011 CHI vs. ATL L 16 9 3 7 42.9 3 4 75.0 0 0 - 0 1 1 2 2 0 1 1 17
p108
aVKurt Thomas CHI 05/02/2011 CHI vs. ATL L 2 0 0 0 - 0 0 - 0 0 - 0 0 0 0 0 0 0 1 -5
p109
aVOmer Asik CHI 05/02/2011 CHI vs. ATL L 7 0 0 1 0.0 0 0 - 0 0 - 2 0 2 0 0 0 0 1 -4
p110
aVTaj Gibson CHI 05/02/2011 CHI vs. ATL L 13 2 1 3 33.3 0 0 - 0 0 - 1 1 2 0 1 3 2 1 -4
p111
aVDerrick Rose CHI 05/02/2011 CHI vs. ATL L 41 24 11 27 40.7 2 7 28.6 0 0 - 2 3 5 10 2 1 3 1 -4
p112
aVCJ Watson CHI 05/02/2011 CHI vs. ATL L 11 5 2 7 28.6 1 3 33.3 0 0 - 0 3 3 1 0 0 1 1 -10
p113
aVCarlos Boozer CHI 05/02/2011 CHI vs. ATL L 35 14 6 11 54.5 0 0 - 2 2 100.0 0 8 8 3 0 0 1 2 -3
p114
aVKeith Bogans CHI 05/02/2011 CHI vs. ATL L 17 3 1 4 25.0 1 3 33.3 0 0 - 0 0 0 0 1 0 0 1 -3
p115
aVJoakim Noah CHI 04/26/2011 CHI vs. IND W 32 14 3 6 50.0 0 0 - 8 9 88.9 2 6 8 3 1 4 1 5 34
p116
aVRasual Butler CHI 04/26/2011 CHI vs. IND W 4 3 1 1 100.0 1 1 100.0 0 0 - 0 1 1 0 0 0 0 0 2
p117
aVTaj Gibson CHI 04/26/2011 CHI vs. IND W 30 10 5 8 62.5 0 0 - 0 0 - 1 6 7 0 1 1 2 6 19
p118
aVOmer Asik CHI 04/26/2011 CHI vs. IND W 15 2 1 2 50.0 0 0 - 0 2 0.0 2 3 5 0 0 0 2 1 -5
p119
aVLuol Deng CHI 04/26/2011 CHI vs. IND W 41 24 7 14 50.0 3 5 60.0 7 8 87.5 1 5 6 7 3 1 2 1 31
p120
aVKeith Bogans CHI 04/26/2011 CHI vs. IND W 21 15 5 7 71.4 5 7 71.4 0 0 - 1 1 2 1 2 0 1 0 17
p121
aVCJ Watson CHI 04/26/2011 CHI vs. IND W 18 6 3 8 37.5 0 3 0.0 0 0 - 0 1 1 7 0 0 2 1 1
p122
aVCarlos Boozer CHI 04/26/2011 CHI vs. IND W 16 2 1 5 20.0 0 0 - 0 0 - 0 5 5 1 0 0 0 4 4
p123
aVDerrick Rose CHI 04/26/2011 CHI vs. IND W 30 25 8 17 47.1 3 8 37.5 6 7 85.7 1 1 2 6 2 2 2 5 26
p124
aVRonnie Brewer CHI 04/26/2011 CHI vs. IND W 12 2 1 1 100.0 0 0 - 0 0 - 0 0 0 0 0 1 0 0 0
p125
aVKyle Korver CHI 04/26/2011 CHI vs. IND W 22 13 5 14 35.7 2 7 28.6 1 1 100.0 0 1 1 2 1 0 2 0 6
p126
aVCJ Watson CHI 04/23/2011 CHI @ IND L 5 2 0 1 0.0 0 1 0.0 2 2 100.0 0 1 1 1 0 0 2 3 -3
p127
aVKurt Thomas CHI 04/23/2011 CHI @ IND L 8 4 2 2 100.0 0 0 - 0 0 - 0 0 0 0 0 0 1 2 -7
p128
aVCarlos Boozer CHI 04/23/2011 CHI @ IND L 36 15 6 15 40.0 0 1 0.0 3 3 100.0 4 9 13 4 1 2 4 3 13
p129
aVDerrick Rose CHI 04/23/2011 CHI @ IND L 43 15 6 22 27.3 1 9 11.1 2 4 50.0 1 3 4 10 4 1 3 0 -2
p130
aVTaj Gibson CHI 04/23/2011 CHI @ IND L 16 0 0 5 0.0 0 1 0.0 0 0 - 1 3 4 1 0 0 0 3 3
p131
aVKyle Korver CHI 04/23/2011 CHI @ IND L 22 9 3 8 37.5 1 2 50.0 2 2 100.0 0 1 1 0 1 0 0 3 0
p132
aVRonnie Brewer CHI 04/23/2011 CHI @ IND L 9 2 1 1 100.0 0 0 - 0 0 - 0 2 2 0 0 0 0 1 -7
p133
aVOmer Asik CHI 04/23/2011 CHI @ IND L 3 0 0 0 - 0 0 - 0 0 - 0 2 2 0 0 1 0 0 -5
p134
aVJoakim Noah CHI 04/23/2011 CHI @ IND L 33 21 8 13 61.5 0 0 - 5 7 71.4 7 7 14 0 0 0 2 5 -14
p135
aVLuol Deng CHI 04/23/2011 CHI @ IND L 45 16 5 14 35.7 1 5 20.0 5 6 83.3 2 1 3 3 1 0 1 3 -1
p136
aVKeith Bogans CHI 04/23/2011 CHI @ IND L 20 0 0 1 0.0 0 1 0.0 0 0 - 0 2 2 0 0 2 0 0 -2
p137
aVJoakim Noah CHI 04/21/2011 CHI @ IND W 35 11 3 6 50.0 0 0 - 5 6 83.3 1 9 10 2 0 4 0 4 6
p138
aVTaj Gibson CHI 04/21/2011 CHI @ IND W 21 6 3 5 60.0 0 0 - 0 0 - 1 4 5 0 0 2 2 0 -1
p139
aVCarlos Boozer CHI 04/21/2011 CHI @ IND W 32 4 2 10 20.0 0 0 - 0 0 - 3 8 11 3 1 0 3 4 6
p140
aVDerrick Rose CHI 04/21/2011 CHI @ IND W 43 23 4 18 22.2 2 6 33.3 13 15 86.7 1 2 3 2 4 0 5 2 6
p141
aVRonnie Brewer CHI 04/21/2011 CHI @ IND W 10 2 0 2 0.0 0 0 - 2 2 100.0 0 3 3 1 0 0 0 0 0
p142
aVOmer Asik CHI 04/21/2011 CHI @ IND W 3 0 0 0 - 0 0 - 0 0 - 0 0 0 0 1 0 0 1 -3
p143
aVCJ Watson CHI 04/21/2011 CHI @ IND W 8 0 0 1 0.0 0 1 0.0 0 0 - 0 0 0 3 0 0 2 1 -6
p144
aVKeith Bogans CHI 04/21/2011 CHI @ IND W 19 9 3 4 75.0 3 3 100.0 0 0 - 0 0 0 1 1 0 0 1 4
p145
aVKurt Thomas CHI 04/21/2011 CHI @ IND W 5 0 0 1 0.0 0 1 0.0 0 0 - 0 2 2 0 0 1 0 2 0
p146
aVLuol Deng CHI 04/21/2011 CHI @ IND W 45 21 8 19 42.1 2 6 33.3 3 4 75.0 3 3 6 6 0 1 2 3 9
p147
aVKyle Korver CHI 04/21/2011 CHI @ IND W 19 12 5 6 83.3 2 3 66.7 0 0 - 1 1 2 2 0 1 1 2 -1
p148
aVKurt Thomas CHI 04/18/2011 CHI vs. IND W 10 4 2 4 50.0 0 0 - 0 0 - 2 2 4 0 0 1 1 1 -7
p149
aVRonnie Brewer CHI 04/18/2011 CHI vs. IND W 16 4 1 3 33.3 0 1 0.0 2 2 100.0 1 2 3 3 0 0 2 1 -14
p150
aVKyle Korver CHI 04/18/2011 CHI vs. IND W 22 5 2 4 50.0 1 1 100.0 0 0 - 0 3 3 1 0 0 1 5 5
p151
aVDerrick Rose CHI 04/18/2011 CHI vs. IND W 40 36 11 25 44.0 2 5 40.0 12 13 92.3 1 7 8 7 2 0 6 4 11
p152
aVKeith Bogans CHI 04/18/2011 CHI vs. IND W 19 3 1 5 20.0 1 4 25.0 0 0 - 2 0 2 1 1 0 0 1 8
p153
aVJoakim Noah CHI 04/18/2011 CHI vs. IND W 29 4 2 10 20.0 0 0 - 0 1 0.0 6 4 10 3 3 2 4 5 12
p154
aVTaj Gibson CHI 04/18/2011 CHI vs. IND W 12 2 1 1 100.0 0 0 - 0 0 - 0 4 4 0 0 2 0 1 -4
p155
aVCJ Watson CHI 04/18/2011 CHI vs. IND W 8 7 3 6 50.0 0 0 - 1 1 100.0 0 1 1 0 2 0 1 2 -3
p156
aVCarlos Boozer CHI 04/18/2011 CHI vs. IND W 42 17 6 12 50.0 0 0 - 5 9 55.6 5 11 16 0 1 0 3 3 12
p157
aVOmer Asik CHI 04/18/2011 CHI vs. IND W 2 0 0 0 - 0 0 - 0 0 - 0 0 0 0 0 0 0 0 -3
p158
aVLuol Deng CHI 04/18/2011 CHI vs. IND W 39 14 3 13 23.1 1 3 33.3 7 8 87.5 3 3 6 0 2 0 3 1 13
p159
aVKurt Thomas CHI 04/16/2011 CHI vs. IND W 24 6 3 4 75.0 0 0 - 0 0 - 3 1 4 2 1 0 0 2 11
p160
aVJoakim Noah CHI 04/16/2011 CHI vs. IND W 31 10 5 12 41.7 0 0 - 0 1 0.0 8 3 11 1 1 3 0 3 1
p161
aVOmer Asik CHI 04/16/2011 CHI vs. IND W 3 0 0 0 - 0 0 - 0 0 - 0 1 1 0 0 0 0 0 -3
p162
aVDerrick Rose CHI 04/16/2011 CHI vs. IND W 39 39 10 23 43.5 0 9 0.0 19 21 90.5 2 4 6 6 1 3 3 2 5
p163
aVRonnie Brewer CHI 04/16/2011 CHI vs. IND W 16 2 1 3 33.3 0 0 - 0 0 - 1 2 3 1 2 0 0 0 0
p164
aVCarlos Boozer CHI 04/16/2011 CHI vs. IND W 26 12 4 11 36.4 0 0 - 4 5 80.0 1 5 6 0 0 1 4 5 -3
p165
aVLuol Deng CHI 04/16/2011 CHI vs. IND W 41 18 7 13 53.8 2 3 66.7 2 4 50.0 5 5 10 2 1 0 2 3 8
p166
aVCJ Watson CHI 04/16/2011 CHI vs. IND W 9 2 1 4 25.0 0 1 0.0 0 0 - 0 0 0 2 0 0 1 1 0
p167
aVKyle Korver CHI 04/16/2011 CHI vs. IND W 21 13 4 7 57.1 4 4 100.0 1 1 100.0 0 2 2 3 0 1 2 2 13
p168
aVKeith Bogans CHI 04/16/2011 CHI vs. IND W 17 0 0 3 0.0 0 3 0.0 0 0 - 0 3 3 0 0 0 0 1 -11
p169
aVTaj Gibson CHI 04/16/2011 CHI vs. IND W 12 2 1 2 50.0 0 0 - 0 0 - 1 2 3 1 0 1 2 2 4
p170
a.