(lp0
VPLAYER TEAM DATE MATCHUP W/L MIN PTS FGM FGA FG% 3PM 3PA 3P% FTM FTA FT% OREB DREB REB AST STL BLK TOV PF +/-
p1
aVKenyon Martin DEN 04/27/2011 DEN @ OKC L 33 14 7 14 50.0 0 0 - 0 0 - 2 8 10 2 2 0 0 4 -7
p2
aVNene DEN 04/27/2011 DEN @ OKC L 32 8 3 9 33.3 0 0 - 2 3 66.7 1 8 9 0 1 0 3 4 -6
p3
aVRaymond Felton DEN 04/27/2011 DEN @ OKC L 27 13 4 9 44.4 1 3 33.3 4 4 100.0 0 3 3 4 4 0 5 1 6
p4
aVWilson Chandler DEN 04/27/2011 DEN @ OKC L 23 8 3 5 60.0 0 1 0.0 2 3 66.7 0 4 4 0 0 2 0 3 -5
p5
aVTy Lawson DEN 04/27/2011 DEN @ OKC L 30 13 4 8 50.0 2 3 66.7 3 5 60.0 1 2 3 4 0 0 1 1 -1
p6
aVChris Andersen DEN 04/27/2011 DEN @ OKC L 18 2 1 1 100.0 0 0 - 0 0 - 0 2 2 1 0 1 1 1 3
p7
aVJR Smith DEN 04/27/2011 DEN @ OKC L 15 8 3 8 37.5 2 3 66.7 0 0 - 0 1 1 0 0 0 2 1 0
p8
aVDanilo Gallinari DEN 04/27/2011 DEN @ OKC L 26 11 3 6 50.0 1 2 50.0 4 4 100.0 0 2 2 2 1 0 2 5 2
p9
aVArron Afflalo DEN 04/27/2011 DEN @ OKC L 31 15 6 15 40.0 1 5 20.0 2 2 100.0 0 4 4 3 0 0 2 5 -5
p10
aVAl Harrington DEN 04/27/2011 DEN @ OKC L 5 5 2 3 66.7 1 1 100.0 0 0 - 0 0 0 0 0 0 2 2 -2
p11
aVArron Afflalo DEN 04/25/2011 DEN vs. OKC W 22 6 2 7 28.6 0 1 0.0 2 2 100.0 0 3 3 3 0 0 1 1 -2
p12
aVTy Lawson DEN 04/25/2011 DEN vs. OKC W 36 27 8 16 50.0 2 4 50.0 9 9 100.0 3 0 3 3 0 0 1 4 0
p13
aVAl Harrington DEN 04/25/2011 DEN vs. OKC W 16 3 0 4 0.0 0 1 0.0 3 4 75.0 0 2 2 2 2 0 0 1 0
p14
aVWilson Chandler DEN 04/25/2011 DEN vs. OKC W 8 0 0 4 0.0 0 1 0.0 0 0 - 2 1 3 0 0 0 1 1 1
p15
aVRaymond Felton DEN 04/25/2011 DEN vs. OKC W 26 11 2 10 20.0 1 3 33.3 6 9 66.7 0 1 1 3 0 0 1 0 1
p16
aVDanilo Gallinari DEN 04/25/2011 DEN vs. OKC W 34 18 6 13 46.2 3 4 75.0 3 5 60.0 0 6 6 4 1 0 1 2 8
p17
aVNene DEN 04/25/2011 DEN vs. OKC W 30 10 3 8 37.5 0 0 - 4 9 44.4 4 5 9 2 1 1 1 5 -8
p18
aVChris Andersen DEN 04/25/2011 DEN vs. OKC W 18 1 0 2 0.0 0 0 - 1 2 50.0 2 4 6 2 1 2 0 1 11
p19
aVKenyon Martin DEN 04/25/2011 DEN vs. OKC W 27 13 6 8 75.0 0 0 - 1 2 50.0 1 8 9 0 0 1 1 5 0
p20
aVJR Smith DEN 04/25/2011 DEN vs. OKC W 24 15 5 11 45.5 3 5 60.0 2 2 100.0 1 1 2 0 0 0 1 2 4
p21
aVJR Smith DEN 04/23/2011 DEN vs. OKC L 14 15 4 12 33.3 4 9 44.4 3 5 60.0 0 6 6 2 0 0 1 3 14
p22
aVChris Andersen DEN 04/23/2011 DEN vs. OKC L 17 13 3 4 75.0 0 0 - 7 8 87.5 3 2 5 0 1 2 1 2 1
p23
aVNene DEN 04/23/2011 DEN vs. OKC L 31 15 5 10 50.0 0 0 - 5 10 50.0 4 6 10 4 0 3 1 2 -4
p24
aVKenyon Martin DEN 04/23/2011 DEN vs. OKC L 32 15 5 10 50.0 0 0 - 5 8 62.5 2 5 7 1 0 1 5 4 -6
p25
aVTy Lawson DEN 04/23/2011 DEN vs. OKC L 29 8 3 8 37.5 0 1 0.0 2 2 100.0 0 3 3 4 0 0 1 0 -5
p26
aVArron Afflalo DEN 04/23/2011 DEN vs. OKC L 32 13 4 12 33.3 2 6 33.3 3 4 75.0 0 2 2 1 0 0 0 4 -12
p27
aVDanilo Gallinari DEN 04/23/2011 DEN vs. OKC L 19 6 1 6 16.7 0 2 0.0 4 4 100.0 1 1 2 1 0 0 0 1 1
p28
aVWilson Chandler DEN 04/23/2011 DEN vs. OKC L 22 3 1 4 25.0 0 1 0.0 1 2 50.0 0 3 3 1 1 0 1 6 0
p29
aVRaymond Felton DEN 04/23/2011 DEN vs. OKC L 31 6 3 9 33.3 0 2 0.0 0 2 0.0 0 4 4 4 1 0 2 2 -6
p30
aVAl Harrington DEN 04/23/2011 DEN vs. OKC L 12 0 0 3 0.0 0 2 0.0 0 0 - 0 1 1 0 1 0 0 1 2
p31
aVKosta Koufos DEN 04/20/2011 DEN @ OKC L 2 2 1 1 100.0 0 0 - 0 0 - 0 0 0 0 0 0 0 0 2
p32
aVKenyon Martin DEN 04/20/2011 DEN @ OKC L 22 7 2 6 33.3 0 0 - 3 4 75.0 1 5 6 0 0 0 1 1 -14
p33
aVDanilo Gallinari DEN 04/20/2011 DEN @ OKC L 37 7 3 8 37.5 1 3 33.3 0 2 0.0 0 3 3 1 2 0 2 4 -12
p34
aVChris Andersen DEN 04/20/2011 DEN @ OKC L 6 0 0 0 - 0 0 - 0 0 - 0 0 0 0 0 0 0 1 -14
p35
aVTy Lawson DEN 04/20/2011 DEN @ OKC L 37 20 7 13 53.8 1 2 50.0 5 5 100.0 1 3 4 3 2 1 2 2 -4
p36
aVWilson Chandler DEN 04/20/2011 DEN @ OKC L 30 4 0 6 0.0 0 2 0.0 4 4 100.0 0 4 4 1 1 0 2 2 -1
p37
aVJR Smith DEN 04/20/2011 DEN @ OKC L 7 2 1 6 16.7 0 1 0.0 0 0 - 0 0 0 2 1 0 2 1 -17
p38
aVAl Harrington DEN 04/20/2011 DEN @ OKC L 25 15 6 9 66.7 3 4 75.0 0 0 - 1 3 4 2 0 0 1 2 -1
p39
aVNene DEN 04/20/2011 DEN @ OKC L 36 16 2 8 25.0 0 0 - 12 18 66.7 2 7 9 1 1 0 1 4 -6
p40
aVGary Forbes DEN 04/20/2011 DEN @ OKC L 2 0 0 1 0.0 0 0 - 0 0 - 0 1 1 0 0 0 0 0 2
p41
aVRaymond Felton DEN 04/20/2011 DEN @ OKC L 36 16 5 11 45.5 2 4 50.0 4 4 100.0 0 0 0 2 0 0 0 4 -20
p42
aVRaymond Felton DEN 04/17/2011 DEN @ OKC L 33 12 4 11 36.4 0 4 0.0 4 5 80.0 0 1 1 8 1 0 2 3 -8
p43
aVChris Andersen DEN 04/17/2011 DEN @ OKC L 14 8 3 4 75.0 0 0 - 2 4 50.0 0 1 1 0 1 2 1 3 1
p44
aVDanilo Gallinari DEN 04/17/2011 DEN @ OKC L 32 18 6 11 54.5 2 4 50.0 4 6 66.7 0 4 4 2 0 0 2 5 -4
p45
aVWilson Chandler DEN 04/17/2011 DEN @ OKC L 32 9 4 10 40.0 1 2 50.0 0 0 - 0 8 8 0 1 2 0 3 3
p46
aVNene DEN 04/17/2011 DEN @ OKC L 34 22 9 11 81.8 0 0 - 4 8 50.0 3 5 8 1 2 0 2 2 -4
p47
aVKenyon Martin DEN 04/17/2011 DEN @ OKC L 33 10 4 12 33.3 0 0 - 2 4 50.0 0 7 7 5 0 0 0 4 -1
p48
aVTy Lawson DEN 04/17/2011 DEN @ OKC L 34 10 4 7 57.1 0 1 0.0 2 2 100.0 2 2 4 5 3 0 1 2 9
p49
aVJR Smith DEN 04/17/2011 DEN @ OKC L 17 9 3 8 37.5 0 3 0.0 3 4 75.0 0 1 1 1 1 0 2 1 -11
p50
aVAl Harrington DEN 04/17/2011 DEN @ OKC L 11 5 2 3 66.7 1 2 50.0 0 0 - 0 0 0 1 0 0 1 1 -5
p51
a.