(lp0
VPLAYER TEAM DATE MATCHUP W/L MIN PTS FGM FGA FG% 3PM 3PA 3P% FTM FTA FT% OREB DREB REB AST STL BLK TOV PF +/-
p1
aVJermaine O'Neal BOS 05/11/2011 BOS @ MIA L 17 3 1 3 33.3 0 0 - 1 1 100.0 1 1 2 0 0 2 2 3 4
p2
aVRay Allen BOS 05/11/2011 BOS @ MIA L 44 18 6 12 50.0 5 10 50.0 1 1 100.0 0 3 3 2 2 0 0 1 -4
p3
aVPaul Pierce BOS 05/11/2011 BOS @ MIA L 35 12 5 12 41.7 1 3 33.3 1 1 100.0 0 3 3 4 0 0 4 5 -15
p4
aVKevin Garnett BOS 05/11/2011 BOS @ MIA L 38 15 6 13 46.2 0 0 - 3 8 37.5 1 10 11 3 2 1 3 4 -8
p5
aVJeff Green BOS 05/11/2011 BOS @ MIA L 24 9 3 5 60.0 1 1 100.0 2 2 100.0 1 2 3 1 0 0 2 1 -3
p6
aVRajon Rondo BOS 05/11/2011 BOS @ MIA L 30 6 3 5 60.0 0 0 - 0 0 - 0 2 2 3 1 0 2 2 3
p7
aVNenad Krstic BOS 05/11/2011 BOS @ MIA L 16 8 3 3 100.0 0 0 - 2 3 66.7 0 2 2 0 0 2 0 4 -10
p8
aVGlen Davis BOS 05/11/2011 BOS @ MIA L 16 6 2 5 40.0 0 0 - 2 2 100.0 1 1 2 2 0 0 1 2 -3
p9
aVDelonte West BOS 05/11/2011 BOS @ MIA L 20 10 4 9 44.4 0 1 0.0 2 2 100.0 0 2 2 0 0 0 3 3 -14
p10
aVRay Allen BOS 05/09/2011 BOS vs. MIA L 45 17 5 12 41.7 2 5 40.0 5 6 83.3 0 2 2 2 1 0 2 1 -2
p11
aVShaquille O'Neal BOS 05/09/2011 BOS vs. MIA L 4 0 0 0 - 0 0 - 0 0 - 0 0 0 0 0 0 0 2 -2
p12
aVPaul Pierce BOS 05/09/2011 BOS vs. MIA L 45 27 10 20 50.0 1 6 16.7 6 7 85.7 0 8 8 3 1 2 4 4 -11
p13
aVJermaine O'Neal BOS 05/09/2011 BOS vs. MIA L 28 8 3 6 50.0 0 0 - 2 2 100.0 1 3 4 2 1 0 0 3 -2
p14
aVKevin Garnett BOS 05/09/2011 BOS vs. MIA L 41 7 1 10 10.0 0 0 - 5 6 83.3 0 10 10 2 3 2 2 5 -10
p15
aVGlen Davis BOS 05/09/2011 BOS vs. MIA L 17 4 1 4 25.0 0 0 - 2 2 100.0 0 0 0 0 0 0 1 3 2
p16
aVDelonte West BOS 05/09/2011 BOS vs. MIA L 30 10 4 7 57.1 1 3 33.3 1 2 50.0 1 0 1 1 3 0 3 1 -11
p17
aVRajon Rondo BOS 05/09/2011 BOS vs. MIA L 38 10 4 7 57.1 0 0 - 2 2 100.0 1 1 2 5 0 0 3 1 -5
p18
aVJeff Green BOS 05/09/2011 BOS vs. MIA L 17 7 2 4 50.0 1 2 50.0 2 2 100.0 0 1 1 0 0 0 1 3 1
p19
aVShaquille O'Neal BOS 05/07/2011 BOS vs. MIA W 8 2 1 2 50.0 0 0 - 0 2 0.0 0 0 0 1 1 0 0 2 2
p20
aVDelonte West BOS 05/07/2011 BOS vs. MIA W 25 11 4 7 57.1 2 4 50.0 1 2 50.0 0 0 0 3 0 0 1 3 -3
p21
aVJeff Green BOS 05/07/2011 BOS vs. MIA W 21 6 2 3 66.7 0 1 0.0 2 2 100.0 0 2 2 0 1 1 2 0 -1
p22
aVPaul Pierce BOS 05/07/2011 BOS vs. MIA W 41 27 9 20 45.0 5 7 71.4 4 4 100.0 2 3 5 5 2 0 1 2 12
p23
aVRajon Rondo BOS 05/07/2011 BOS vs. MIA W 35 6 3 7 42.9 0 0 - 0 0 - 0 3 3 11 1 0 5 2 19
p24
aVRay Allen BOS 05/07/2011 BOS vs. MIA W 39 15 4 11 36.4 2 5 40.0 5 5 100.0 1 2 3 4 0 0 2 3 21
p25
aVVon Wafer BOS 05/07/2011 BOS vs. MIA W 0 0 0 0 - 0 0 - 0 0 - 0 0 0 0 0 0 0 0 0
p26
aVJermaine O'Neal BOS 05/07/2011 BOS vs. MIA W 22 2 1 3 33.3 0 0 - 0 0 - 1 3 4 1 0 3 0 2 13
p27
aVKevin Garnett BOS 05/07/2011 BOS vs. MIA W 38 28 13 20 65.0 0 1 0.0 2 2 100.0 4 14 18 1 2 0 0 3 17
p28
aVGlen Davis BOS 05/07/2011 BOS vs. MIA W 11 0 0 1 0.0 0 0 - 0 0 - 2 2 4 1 0 0 1 0 0
p29
aVRay Allen BOS 05/03/2011 BOS @ MIA L 34 7 2 7 28.6 1 2 50.0 2 2 100.0 1 4 5 2 1 0 1 5 -15
p30
aVDelonte West BOS 05/03/2011 BOS @ MIA L 15 10 4 4 100.0 2 2 100.0 0 0 - 0 1 1 1 1 0 2 1 -4
p31
aVVon Wafer BOS 05/03/2011 BOS @ MIA L 2 0 0 0 - 0 0 - 0 0 - 0 0 0 0 0 0 0 0 1
p32
aVJermaine O'Neal BOS 05/03/2011 BOS @ MIA L 19 8 2 7 28.6 0 0 - 4 5 80.0 5 4 9 1 0 1 1 4 0
p33
aVJeff Green BOS 05/03/2011 BOS @ MIA L 22 11 4 6 66.7 2 2 100.0 1 2 50.0 1 3 4 0 2 0 1 1 5
p34
aVPaul Pierce BOS 05/03/2011 BOS @ MIA L 33 13 5 11 45.5 1 4 25.0 2 2 100.0 1 4 5 1 0 0 1 2 -10
p35
aVKevin Garnett BOS 05/03/2011 BOS @ MIA L 37 16 8 20 40.0 0 0 - 0 0 - 1 5 6 0 1 1 2 5 -13
p36
aVRajon Rondo BOS 05/03/2011 BOS @ MIA L 42 20 7 16 43.8 0 1 0.0 6 8 75.0 1 5 6 12 1 0 3 3 -6
p37
aVNenad Krstic BOS 05/03/2011 BOS @ MIA L 11 0 0 1 0.0 0 0 - 0 0 - 0 0 0 0 0 0 0 0 1
p38
aVGlen Davis BOS 05/03/2011 BOS @ MIA L 26 6 2 7 28.6 0 0 - 2 3 66.7 0 2 2 1 1 0 0 3 -14
p39
aVGlen Davis BOS 05/01/2011 BOS @ MIA L 23 4 2 5 40.0 0 0 - 0 0 - 1 3 4 0 0 0 1 2 -21
p40
aVJermaine O'Neal BOS 05/01/2011 BOS @ MIA L 21 9 3 6 50.0 0 0 - 3 3 100.0 1 2 3 0 0 0 0 4 2
p41
aVKevin Garnett BOS 05/01/2011 BOS @ MIA L 37 6 3 9 33.3 0 0 - 0 0 - 0 8 8 3 1 2 0 3 6
p42
aVRajon Rondo BOS 05/01/2011 BOS @ MIA L 32 8 3 10 30.0 0 0 - 2 2 100.0 0 7 7 7 3 0 5 4 7
p43
aVPaul Pierce BOS 05/01/2011 BOS @ MIA L 35 19 6 14 42.9 3 7 42.9 4 6 66.7 1 6 7 2 1 0 4 3 -7
p44
aVDelonte West BOS 05/01/2011 BOS @ MIA L 26 10 3 9 33.3 2 5 40.0 2 2 100.0 2 3 5 2 0 0 1 2 -8
p45
aVRay Allen BOS 05/01/2011 BOS @ MIA L 39 25 9 13 69.2 5 8 62.5 2 2 100.0 1 2 3 3 1 0 0 4 -6
p46
aVJeff Green BOS 05/01/2011 BOS @ MIA L 22 9 3 8 37.5 2 4 50.0 1 3 33.3 0 0 0 1 1 1 2 1 -9
p47
aVNenad Krstic BOS 05/01/2011 BOS @ MIA L 6 0 0 1 0.0 0 0 - 0 0 - 1 1 2 0 0 0 0 1 -9
p48
aVPaul Pierce BOS 04/24/2011 BOS @ NYK W 38 13 5 18 27.8 1 4 25.0 2 2 100.0 0 5 5 3 3 0 1 4 13
p49
aVGlen Davis BOS 04/24/2011 BOS @ NYK W 27 14 6 8 75.0 0 0 - 2 2 100.0 0 5 5 0 0 0 3 4 5
p50
aVRay Allen BOS 04/24/2011 BOS @ NYK W 42 14 5 13 38.5 2 6 33.3 2 2 100.0 1 4 5 5 1 1 0 2 11
p51
aVJeff Green BOS 04/24/2011 BOS @ NYK W 17 5 2 7 28.6 0 1 0.0 1 1 100.0 2 5 7 0 0 0 2 3 -1
p52
aVJermaine O'Neal BOS 04/24/2011 BOS @ NYK W 22 2 1 2 50.0 0 0 - 0 0 - 0 6 6 1 1 1 1 4 14
p53
aVNenad Krstic BOS 04/24/2011 BOS @ NYK W 8 4 2 2 100.0 0 0 - 0 0 - 2 3 5 1 0 2 1 2 5
p54
aVDelonte West BOS 04/24/2011 BOS @ NYK W 13 2 1 3 33.3 0 1 0.0 0 0 - 0 5 5 1 0 0 0 2 0
p55
aVKevin Garnett BOS 04/24/2011 BOS @ NYK W 33 26 10 16 62.5 0 0 - 6 6 100.0 4 6 10 1 1 2 1 2 8
p56
aVRajon Rondo BOS 04/24/2011 BOS @ NYK W 41 21 8 12 66.7 0 0 - 5 11 45.5 0 5 5 12 0 0 6 0 5
p57
aVPaul Pierce BOS 04/22/2011 BOS @ NYK W 33 38 14 19 73.7 6 8 75.0 4 4 100.0 0 3 3 1 3 0 3 3 23
p58
aVKevin Garnett BOS 04/22/2011 BOS @ NYK W 33 9 4 9 44.4 0 0 - 1 1 100.0 4 8 12 4 3 0 5 2 31
p59
aVJermaine O'Neal BOS 04/22/2011 BOS @ NYK W 27 6 3 7 42.9 0 0 - 0 0 - 1 2 3 2 0 3 2 5 30
p60
aVRay Allen BOS 04/22/2011 BOS @ NYK W 37 32 11 18 61.1 8 11 72.7 2 2 100.0 0 3 3 1 2 0 2 2 34
p61
aVRajon Rondo BOS 04/22/2011 BOS @ NYK W 41 15 5 13 38.5 0 0 - 5 6 83.3 6 5 11 20 2 0 4 4 23
p62
aVVon Wafer BOS 04/22/2011 BOS @ NYK W 3 0 0 2 0.0 0 1 0.0 0 0 - 0 1 1 0 0 0 0 0 -4
p63
aVDelonte West BOS 04/22/2011 BOS @ NYK W 14 0 0 2 0.0 0 2 0.0 0 0 - 0 0 0 1 1 0 1 1 -16
p64
aVGlen Davis BOS 04/22/2011 BOS @ NYK W 20 4 2 5 40.0 0 0 - 0 0 - 0 4 4 2 0 0 0 1 -16
p65
aVTroy Murphy BOS 04/22/2011 BOS @ NYK W 3 0 0 0 - 0 0 - 0 0 - 1 0 1 0 0 0 0 0 -4
p66
aVJeff Green BOS 04/22/2011 BOS @ NYK W 21 9 3 8 37.5 0 2 0.0 3 4 75.0 0 4 4 0 1 1 1 5 -12
p67
aVNenad Krstic BOS 04/22/2011 BOS @ NYK W 8 0 0 0 - 0 0 - 0 0 - 1 0 1 0 0 0 2 1 -4
p68
aVJeff Green BOS 04/19/2011 BOS vs. NYK W 12 6 2 8 25.0 1 2 50.0 1 2 50.0 2 1 3 0 0 0 0 5 -7
p69
aVRajon Rondo BOS 04/19/2011 BOS vs. NYK W 42 30 13 23 56.5 0 1 0.0 4 7 57.1 0 4 4 7 2 0 4 0 8
p70
aVPaul Pierce BOS 04/19/2011 BOS vs. NYK W 45 20 8 18 44.4 1 3 33.3 3 3 100.0 0 5 5 2 1 2 2 4 8
p71
aVKevin Garnett BOS 04/19/2011 BOS vs. NYK W 36 12 6 16 37.5 0 0 - 0 0 - 2 8 10 6 1 1 3 1 10
p72
aVNenad Krstic BOS 04/19/2011 BOS vs. NYK W 3 0 0 0 - 0 0 - 0 0 - 0 0 0 0 0 0 0 0 -5
p73
aVRay Allen BOS 04/19/2011 BOS vs. NYK W 39 18 6 8 75.0 4 4 100.0 2 2 100.0 0 4 4 2 3 0 1 3 11
p74
aVDelonte West BOS 04/19/2011 BOS vs. NYK W 15 4 1 4 25.0 0 1 0.0 2 2 100.0 1 1 2 1 0 0 0 1 -9
p75
aVGlen Davis BOS 04/19/2011 BOS vs. NYK W 27 4 2 3 66.7 0 0 - 0 0 - 2 4 6 2 1 0 0 4 -11
p76
aVJermaine O'Neal BOS 04/19/2011 BOS vs. NYK W 20 2 1 3 33.3 0 0 - 0 0 - 2 1 3 1 0 2 0 4 10
p77
aVKevin Garnett BOS 04/17/2011 BOS vs. NYK W 34 15 5 14 35.7 0 0 - 5 6 83.3 5 8 13 3 3 0 3 2 3
p78
aVNenad Krstic BOS 04/17/2011 BOS vs. NYK W 5 0 0 1 0.0 0 0 - 0 0 - 1 1 2 1 0 0 0 0 0
p79
aVRajon Rondo BOS 04/17/2011 BOS vs. NYK W 43 10 5 14 35.7 0 1 0.0 0 2 0.0 3 6 9 9 0 0 1 0 2
p80
aVPaul Pierce BOS 04/17/2011 BOS vs. NYK W 39 18 6 16 37.5 2 5 40.0 4 5 80.0 1 3 4 4 1 0 4 3 -4
p81
aVJeff Green BOS 04/17/2011 BOS vs. NYK W 17 4 2 4 50.0 0 1 0.0 0 0 - 0 0 0 0 0 1 1 1 1
p82
aVGlen Davis BOS 04/17/2011 BOS vs. NYK W 25 2 1 8 12.5 0 1 0.0 0 2 0.0 1 4 5 0 1 0 2 2 13
p83
aVDelonte West BOS 04/17/2011 BOS vs. NYK W 12 2 1 2 50.0 0 0 - 0 0 - 0 1 1 2 0 0 1 2 2
p84
aVJermaine O'Neal BOS 04/17/2011 BOS vs. NYK W 23 12 6 6 100.0 0 0 - 0 0 - 3 1 4 0 0 4 2 5 -11
p85
aVRay Allen BOS 04/17/2011 BOS vs. NYK W 42 24 9 15 60.0 3 5 60.0 3 3 100.0 1 5 6 1 0 0 2 0 4
p86
a.