(lp0
VPLAYER TEAM DATE MATCHUP W/L MIN PTS FGM FGA FG% 3PM 3PA 3P% FTM FTA FT% OREB DREB REB AST STL BLK TOV PF +/-
p1
aVJarrett Jack NOH 04/28/2011 NOH vs. LAL L 14 6 3 7 42.9 0 1 0.0 0 0 - 0 1 1 0 0 0 2 1 -4
p2
aVTrevor Ariza NOH 04/28/2011 NOH vs. LAL L 42 12 4 10 40.0 0 3 0.0 4 4 100.0 1 4 5 5 0 0 2 3 -17
p3
aVChris Paul NOH 04/28/2011 NOH vs. LAL L 43 10 4 9 44.4 1 2 50.0 1 1 100.0 0 8 8 11 2 0 5 2 -17
p4
aVMarco Belinelli NOH 04/28/2011 NOH vs. LAL L 27 11 4 12 33.3 1 3 33.3 2 2 100.0 0 1 1 1 2 0 0 2 -5
p5
aVCarl Landry NOH 04/28/2011 NOH vs. LAL L 35 19 6 13 46.2 0 0 - 7 7 100.0 0 2 2 0 0 0 2 3 -14
p6
aVDJ Mbenga NOH 04/28/2011 NOH vs. LAL L 7 0 0 0 - 0 0 - 0 0 - 2 0 2 1 1 0 0 2 -7
p7
aVJason Smith NOH 04/28/2011 NOH vs. LAL L 14 4 2 5 40.0 0 0 - 0 0 - 0 2 2 0 0 0 0 2 -4
p8
aVAaron Gray NOH 04/28/2011 NOH vs. LAL L 7 0 0 0 - 0 0 - 0 0 - 0 2 2 1 0 0 1 1 -5
p9
aVWillie Green NOH 04/28/2011 NOH vs. LAL L 17 9 3 9 33.3 1 4 25.0 2 2 100.0 0 0 0 1 0 0 0 2 -9
p10
aVQuincy Pondexter NOH 04/28/2011 NOH vs. LAL L 1 2 1 2 50.0 0 1 0.0 0 0 - 0 0 0 0 0 0 0 0 -1
p11
aVEmeka Okafor NOH 04/28/2011 NOH vs. LAL L 31 7 3 3 100.0 0 0 - 1 2 50.0 4 3 7 0 2 2 2 5 -6
p12
aVPatrick Ewing Jr. NOH 04/28/2011 NOH vs. LAL L 1 0 0 0 - 0 0 - 0 0 - 0 0 0 0 0 0 0 0 -1
p13
aVWillie Green NOH 04/26/2011 NOH @ LAL L 15 8 4 7 57.1 0 2 0.0 0 0 - 0 1 1 2 0 0 1 4 -1
p14
aVQuincy Pondexter NOH 04/26/2011 NOH @ LAL L 1 0 0 1 0.0 0 1 0.0 0 0 - 0 1 1 0 0 0 0 0 0
p15
aVAaron Gray NOH 04/26/2011 NOH @ LAL L 14 0 0 0 - 0 0 - 0 0 - 0 6 6 0 0 1 1 2 -2
p16
aVMarco Belinelli NOH 04/26/2011 NOH @ LAL L 39 21 8 14 57.1 3 5 60.0 2 2 100.0 0 0 0 1 1 0 0 2 -14
p17
aVJarrett Jack NOH 04/26/2011 NOH @ LAL L 14 1 0 3 0.0 0 1 0.0 1 2 50.0 0 2 2 1 0 0 3 2 -14
p18
aVJason Smith NOH 04/26/2011 NOH @ LAL L 8 2 1 2 50.0 0 0 - 0 0 - 0 0 0 0 0 0 0 3 -15
p19
aVTrevor Ariza NOH 04/26/2011 NOH @ LAL L 33 22 8 17 47.1 5 8 62.5 1 1 100.0 0 2 2 3 3 0 2 3 -13
p20
aVChris Paul NOH 04/26/2011 NOH @ LAL L 41 20 6 12 50.0 1 3 33.3 7 8 87.5 0 4 4 12 1 0 4 1 -7
p21
aVPatrick Ewing Jr. NOH 04/26/2011 NOH @ LAL L 1 3 1 1 100.0 1 1 100.0 0 0 - 0 0 0 0 0 0 0 0 0
p22
aVEmeka Okafor NOH 04/26/2011 NOH @ LAL L 38 5 2 3 66.7 0 0 - 1 4 25.0 1 4 5 0 2 1 3 5 -7
p23
aVCarl Landry NOH 04/26/2011 NOH @ LAL L 36 8 3 7 42.9 0 0 - 2 4 50.0 2 2 4 2 2 1 3 3 -7
p24
aVWillie Green NOH 04/24/2011 NOH vs. LAL W 13 4 1 3 33.3 1 1 100.0 1 2 50.0 0 0 0 1 0 0 0 1 -3
p25
aVCarl Landry NOH 04/24/2011 NOH vs. LAL W 39 16 6 11 54.5 0 0 - 4 4 100.0 4 3 7 3 1 0 1 6 1
p26
aVEmeka Okafor NOH 04/24/2011 NOH vs. LAL W 32 6 3 7 42.9 0 0 - 0 0 - 5 1 6 0 1 2 2 5 1
p27
aVDJ Mbenga NOH 04/24/2011 NOH vs. LAL W 5 2 1 1 100.0 0 0 - 0 0 - 0 0 0 0 0 1 0 0 4
p28
aVMarco Belinelli NOH 04/24/2011 NOH vs. LAL W 32 7 3 11 27.3 1 4 25.0 0 0 - 0 1 1 1 1 0 0 3 -2
p29
aVJarrett Jack NOH 04/24/2011 NOH vs. LAL W 13 5 1 6 16.7 0 2 0.0 3 4 75.0 0 3 3 2 1 0 0 0 10
p30
aVTrevor Ariza NOH 04/24/2011 NOH vs. LAL W 42 19 8 17 47.1 0 3 0.0 3 4 75.0 0 6 6 3 0 0 2 3 1
p31
aVJason Smith NOH 04/24/2011 NOH vs. LAL W 4 0 0 1 0.0 0 0 - 0 0 - 0 0 0 0 0 0 0 2 6
p32
aVChris Paul NOH 04/24/2011 NOH vs. LAL W 44 27 7 14 50.0 2 4 50.0 11 11 100.0 2 11 13 15 2 0 5 2 9
p33
aVAaron Gray NOH 04/24/2011 NOH vs. LAL W 16 7 3 3 100.0 0 0 - 1 2 50.0 1 2 3 0 0 0 0 3 -2
p34
aVJarrett Jack NOH 04/22/2011 NOH vs. LAL L 22 2 1 6 16.7 0 0 - 0 0 - 0 2 2 4 0 1 0 0 -8
p35
aVDJ Mbenga NOH 04/22/2011 NOH vs. LAL L 4 1 0 0 - 0 0 - 1 2 50.0 0 2 2 0 0 0 0 2 -2
p36
aVCarl Landry NOH 04/22/2011 NOH vs. LAL L 35 23 6 12 50.0 0 0 - 11 12 91.7 3 2 5 0 0 0 3 3 -10
p37
aVAaron Gray NOH 04/22/2011 NOH vs. LAL L 7 0 0 1 0.0 0 0 - 0 0 - 0 1 1 0 1 0 0 1 -1
p38
aVJason Smith NOH 04/22/2011 NOH vs. LAL L 9 6 3 3 100.0 0 0 - 0 0 - 0 1 1 1 0 0 0 3 -3
p39
aVMarco Belinelli NOH 04/22/2011 NOH vs. LAL L 22 5 2 8 25.0 1 7 14.3 0 0 - 0 0 0 0 0 0 1 2 -13
p40
aVChris Paul NOH 04/22/2011 NOH vs. LAL L 38 22 9 13 69.2 1 3 33.3 3 5 60.0 1 4 5 8 2 0 5 2 -12
p41
aVWillie Green NOH 04/22/2011 NOH vs. LAL L 13 0 0 4 0.0 0 0 - 0 0 - 1 1 2 0 0 0 0 3 -2
p42
aVTrevor Ariza NOH 04/22/2011 NOH vs. LAL L 42 12 5 13 38.5 0 2 0.0 2 3 66.7 2 10 12 3 4 2 1 5 -11
p43
aVEmeka Okafor NOH 04/22/2011 NOH vs. LAL L 41 15 7 9 77.8 0 0 - 1 2 50.0 4 4 8 0 0 1 4 3 -12
p44
aVQuincy Pondexter NOH 04/22/2011 NOH vs. LAL L 6 0 0 3 0.0 0 1 0.0 0 0 - 0 0 0 1 0 0 0 1 4
p45
aVJarrett Jack NOH 04/20/2011 NOH @ LAL L 27 6 2 6 33.3 0 0 - 2 3 66.7 0 3 3 1 0 0 3 1 -13
p46
aVDJ Mbenga NOH 04/20/2011 NOH @ LAL L 3 0 0 0 - 0 0 - 0 0 - 0 0 0 0 1 1 0 1 1
p47
aVMarco Belinelli NOH 04/20/2011 NOH @ LAL L 22 4 2 9 22.2 0 3 0.0 0 0 - 0 2 2 1 1 0 3 1 7
p48
aVTrevor Ariza NOH 04/20/2011 NOH @ LAL L 42 22 8 15 53.3 2 3 66.7 4 6 66.7 4 3 7 3 0 1 0 0 -8
p49
aVChris Paul NOH 04/20/2011 NOH @ LAL L 43 20 5 11 45.5 2 4 50.0 8 12 66.7 0 3 3 9 0 0 1 4 -7
p50
aVJason Smith NOH 04/20/2011 NOH @ LAL L 8 0 0 1 0.0 0 0 - 0 0 - 0 1 1 0 0 0 0 0 -3
p51
aVAaron Gray NOH 04/20/2011 NOH @ LAL L 23 2 1 4 25.0 0 0 - 0 2 0.0 2 6 8 0 0 1 3 4 -11
p52
aVCarl Landry NOH 04/20/2011 NOH @ LAL L 35 12 4 12 33.3 0 0 - 4 4 100.0 1 6 7 0 1 2 3 5 -10
p53
aVWillie Green NOH 04/20/2011 NOH @ LAL L 12 5 2 6 33.3 0 1 0.0 1 2 50.0 0 0 0 0 2 0 2 2 -2
p54
aVEmeka Okafor NOH 04/20/2011 NOH @ LAL L 24 7 3 5 60.0 0 0 - 1 3 33.3 2 3 5 0 1 0 1 4 1
p55
aVWillie Green NOH 04/17/2011 NOH @ LAL W 13 8 4 7 57.1 0 1 0.0 0 1 0.0 0 2 2 0 0 0 0 2 3
p56
aVCarl Landry NOH 04/17/2011 NOH @ LAL W 33 17 6 13 46.2 0 0 - 5 5 100.0 1 4 5 1 0 0 0 5 -2
p57
aVAaron Gray NOH 04/17/2011 NOH @ LAL W 20 12 5 5 100.0 0 0 - 2 4 50.0 0 1 1 1 1 0 0 2 25
p58
aVJason Smith NOH 04/17/2011 NOH @ LAL W 14 2 1 3 33.3 0 0 - 0 0 - 1 2 3 0 2 0 0 1 10
p59
aVMarco Belinelli NOH 04/17/2011 NOH @ LAL W 30 10 4 9 44.4 2 4 50.0 0 0 - 0 1 1 0 0 0 0 2 -8
p60
aVEmeka Okafor NOH 04/17/2011 NOH @ LAL W 22 4 2 4 50.0 0 0 - 0 0 - 1 1 2 0 0 0 0 6 -16
p61
aVJarrett Jack NOH 04/17/2011 NOH @ LAL W 22 15 5 6 83.3 0 1 0.0 5 7 71.4 1 3 4 5 0 0 0 0 16
p62
aVChris Paul NOH 04/17/2011 NOH @ LAL W 41 33 11 18 61.1 2 3 66.7 9 12 75.0 0 7 7 14 4 0 2 0 7
p63
aVDJ Mbenga NOH 04/17/2011 NOH @ LAL W 6 2 1 1 100.0 0 0 - 0 0 - 0 1 1 0 0 1 1 2 1
p64
aVTrevor Ariza NOH 04/17/2011 NOH @ LAL W 39 6 2 13 15.4 0 2 0.0 2 4 50.0 0 7 7 3 1 0 0 2 9
p65
a.