(lp0
VPLAYER TEAM DATE MATCHUP W/L MIN PTS FGM FGA FG% 3PM 3PA 3P% FTM FTA FT% OREB DREB REB AST STL BLK TOV PF +/-
p1
aVGreivis Vasquez MEM 05/15/2011 MEM @ OKC L 8 5 2 4 50.0 1 2 50.0 0 0 - 1 0 1 2 0 0 2 1 3
p2
aVDarrell Arthur MEM 05/15/2011 MEM @ OKC L 17 5 2 6 33.3 1 1 100.0 0 0 - 0 0 0 0 0 0 0 1 -13
p3
aVIsh Smith MEM 05/15/2011 MEM @ OKC L 0 0 0 0 - 0 0 - 0 0 - 0 0 0 0 0 0 0 0 3
p4
aVMarc Gasol MEM 05/15/2011 MEM @ OKC L 37 12 4 10 40.0 0 0 - 4 4 100.0 2 5 7 1 0 2 2 3 -8
p5
aVHamed Haddadi MEM 05/15/2011 MEM @ OKC L 3 2 1 1 100.0 0 0 - 0 0 - 1 1 2 0 0 0 0 0 4
p6
aVTony Allen MEM 05/15/2011 MEM @ OKC L 27 7 3 6 50.0 0 1 0.0 1 2 50.0 1 2 3 1 4 1 1 3 -3
p7
aVShane Battier MEM 05/15/2011 MEM @ OKC L 28 4 2 6 33.3 0 3 0.0 0 0 - 2 2 4 0 1 0 0 2 -15
p8
aVSam Young MEM 05/15/2011 MEM @ OKC L 8 4 2 6 33.3 0 0 - 0 0 - 1 0 1 0 0 0 0 1 4
p9
aVLeon Powe MEM 05/15/2011 MEM @ OKC L 3 2 1 3 33.3 0 0 - 0 0 - 0 1 1 0 0 0 0 0 4
p10
aVMike Conley MEM 05/15/2011 MEM @ OKC L 40 18 7 19 36.8 2 3 66.7 2 2 100.0 1 4 5 6 0 0 3 2 -18
p11
aVZach Randolph MEM 05/15/2011 MEM @ OKC L 38 17 6 15 40.0 0 0 - 5 6 83.3 6 4 10 1 1 1 1 3 -17
p12
aVO.J. Mayo MEM 05/15/2011 MEM @ OKC L 32 14 5 12 41.7 1 5 20.0 3 5 60.0 1 4 5 2 0 1 1 4 -19
p13
aVTony Allen MEM 05/13/2011 MEM vs. OKC W 21 10 4 6 66.7 1 2 50.0 1 2 50.0 1 4 5 0 1 0 2 4 5
p14
aVZach Randolph MEM 05/13/2011 MEM vs. OKC W 40 30 12 22 54.5 0 1 0.0 6 8 75.0 1 12 13 0 0 2 2 3 16
p15
aVMarc Gasol MEM 05/13/2011 MEM vs. OKC W 39 8 3 8 37.5 0 0 - 2 2 100.0 1 8 9 2 2 3 1 4 17
p16
aVMike Conley MEM 05/13/2011 MEM vs. OKC W 40 11 3 12 25.0 1 4 25.0 4 4 100.0 0 4 4 12 2 0 2 1 16
p17
aVDarrell Arthur MEM 05/13/2011 MEM vs. OKC W 12 8 3 7 42.9 0 0 - 2 2 100.0 1 0 1 0 1 0 1 3 0
p18
aVGreivis Vasquez MEM 05/13/2011 MEM vs. OKC W 8 0 0 2 0.0 0 0 - 0 0 - 0 0 0 2 0 0 0 1 -4
p19
aVO.J. Mayo MEM 05/13/2011 MEM vs. OKC W 39 16 6 12 50.0 2 4 50.0 2 2 100.0 1 3 4 2 4 0 2 3 15
p20
aVHamed Haddadi MEM 05/13/2011 MEM vs. OKC W 2 0 0 1 0.0 0 0 - 0 0 - 0 0 0 0 0 0 0 0 -4
p21
aVShane Battier MEM 05/13/2011 MEM vs. OKC W 29 5 2 6 33.3 1 3 33.3 0 0 - 2 3 5 2 0 0 1 2 12
p22
aVSam Young MEM 05/13/2011 MEM vs. OKC W 12 7 3 7 42.9 0 2 0.0 1 2 50.0 0 0 0 0 0 0 0 1 -13
p23
aVLeon Powe MEM 05/11/2011 MEM @ OKC L 6 3 0 0 - 0 0 - 3 4 75.0 1 1 2 0 0 0 0 0 -5
p24
aVHamed Haddadi MEM 05/11/2011 MEM @ OKC L 7 4 2 4 50.0 0 0 - 0 0 - 0 1 1 0 0 2 1 2 -4
p25
aVZach Randolph MEM 05/11/2011 MEM @ OKC L 36 9 3 9 33.3 0 0 - 3 7 42.9 1 6 7 0 1 0 1 5 -12
p26
aVDarrell Arthur MEM 05/11/2011 MEM @ OKC L 15 9 3 5 60.0 0 0 - 3 4 75.0 1 1 2 0 2 1 2 3 -9
p27
aVMarc Gasol MEM 05/11/2011 MEM @ OKC L 31 15 6 9 66.7 0 0 - 3 6 50.0 0 5 5 1 3 2 2 2 -24
p28
aVSam Young MEM 05/11/2011 MEM @ OKC L 22 4 2 7 28.6 0 0 - 0 0 - 0 2 2 0 0 1 1 2 -3
p29
aVGreivis Vasquez MEM 05/11/2011 MEM @ OKC L 16 6 2 2 100.0 0 0 - 2 2 100.0 0 1 1 3 0 1 0 0 -5
p30
aVShane Battier MEM 05/11/2011 MEM @ OKC L 15 0 0 3 0.0 0 1 0.0 0 0 - 1 2 3 0 0 0 1 1 -10
p31
aVTony Allen MEM 05/11/2011 MEM @ OKC L 27 8 4 13 30.8 0 0 - 0 0 - 1 1 2 2 1 0 3 3 -17
p32
aVIsh Smith MEM 05/11/2011 MEM @ OKC L 4 0 0 1 0.0 0 0 - 0 0 - 0 1 1 1 1 0 0 0 0
p33
aVMike Conley MEM 05/11/2011 MEM @ OKC L 32 9 4 16 25.0 1 2 50.0 0 0 - 2 3 5 4 0 0 3 0 -22
p34
aVO.J. Mayo MEM 05/11/2011 MEM @ OKC L 27 5 2 9 22.2 1 5 20.0 0 0 - 1 1 2 4 0 0 0 1 -24
p35
aVTony Allen MEM 05/09/2011 MEM vs. OKC L 33 6 3 10 30.0 0 1 0.0 0 0 - 1 0 1 2 2 1 4 5 -23
p36
aVDarrell Arthur MEM 05/09/2011 MEM vs. OKC L 9 2 1 6 16.7 0 0 - 0 0 - 0 1 1 0 0 1 0 4 -13
p37
aVShane Battier MEM 05/09/2011 MEM vs. OKC L 39 7 3 6 50.0 0 3 0.0 1 1 100.0 2 1 3 3 0 2 0 4 5
p38
aVHamed Haddadi MEM 05/09/2011 MEM vs. OKC L 3 0 0 2 0.0 0 1 0.0 0 0 - 0 2 2 0 0 2 0 1 7
p39
aVSam Young MEM 05/09/2011 MEM vs. OKC L 16 0 0 4 0.0 0 0 - 0 0 - 0 1 1 1 1 0 0 2 1
p40
aVMarc Gasol MEM 05/09/2011 MEM vs. OKC L 57 26 11 20 55.0 0 2 0.0 4 5 80.0 10 11 21 3 2 1 6 3 -9
p41
aVMike Conley MEM 05/09/2011 MEM vs. OKC L 37 16 2 12 16.7 1 6 16.7 11 12 91.7 0 1 1 5 2 0 2 6 -2
p42
aVIsh Smith MEM 05/09/2011 MEM vs. OKC L 1 0 0 0 - 0 0 - 0 0 - 0 0 0 0 0 0 1 0 -2
p43
aVO.J. Mayo MEM 05/09/2011 MEM vs. OKC L 37 18 7 14 50.0 4 6 66.7 0 0 - 2 3 5 5 0 1 0 6 -1
p44
aVGreivis Vasquez MEM 05/09/2011 MEM vs. OKC L 27 14 4 12 33.3 1 4 25.0 5 5 100.0 1 3 4 2 0 0 0 2 -8
p45
aVZach Randolph MEM 05/09/2011 MEM vs. OKC L 56 34 9 25 36.0 0 0 - 16 17 94.1 8 8 16 3 1 1 5 3 -5
p46
aVGreivis Vasquez MEM 05/07/2011 MEM vs. OKC W 6 2 1 2 50.0 0 0 - 0 0 - 0 2 2 2 2 0 0 0 1
p47
aVMarc Gasol MEM 05/07/2011 MEM vs. OKC W 39 16 4 14 28.6 0 0 - 8 12 66.7 3 4 7 2 1 3 0 3 11
p48
aVSam Young MEM 05/07/2011 MEM vs. OKC W 16 4 2 6 33.3 0 0 - 0 0 - 0 3 3 0 1 0 2 0 -13
p49
aVTony Allen MEM 05/07/2011 MEM vs. OKC W 29 10 2 5 40.0 0 0 - 6 10 60.0 2 2 4 2 1 1 1 2 5
p50
aVO.J. Mayo MEM 05/07/2011 MEM vs. OKC W 42 18 6 18 33.3 2 6 33.3 4 4 100.0 2 4 6 4 2 2 0 3 23
p51
aVShane Battier MEM 05/07/2011 MEM vs. OKC W 25 2 1 2 50.0 0 0 - 0 0 - 2 2 4 1 0 0 0 1 5
p52
aVDarrell Arthur MEM 05/07/2011 MEM vs. OKC W 11 5 2 5 40.0 0 0 - 1 2 50.0 0 1 1 0 0 0 0 2 -2
p53
aVMike Conley MEM 05/07/2011 MEM vs. OKC W 47 18 8 15 53.3 1 3 33.3 1 2 50.0 1 4 5 4 2 1 3 2 7
p54
aVHamed Haddadi MEM 05/07/2011 MEM vs. OKC W 6 5 0 1 0.0 0 0 - 5 6 83.3 2 0 2 0 0 1 0 1 6
p55
aVZach Randolph MEM 05/07/2011 MEM vs. OKC W 44 21 8 22 36.4 0 1 0.0 5 8 62.5 8 13 21 2 0 1 3 3 -3
p56
aVZach Randolph MEM 05/03/2011 MEM @ OKC L 39 15 2 13 15.4 0 0 - 11 12 91.7 4 5 9 3 0 2 2 4 -8
p57
aVMike Conley MEM 05/03/2011 MEM @ OKC L 41 24 10 15 66.7 3 5 60.0 1 1 100.0 0 2 2 8 1 0 4 2 1
p58
aVO.J. Mayo MEM 05/03/2011 MEM @ OKC L 28 16 6 13 46.2 1 4 25.0 3 3 100.0 1 1 2 3 1 0 3 4 -2
p59
aVMarc Gasol MEM 05/03/2011 MEM @ OKC L 37 13 3 9 33.3 0 0 - 7 8 87.5 2 8 10 3 2 5 2 3 -2
p60
aVShane Battier MEM 05/03/2011 MEM @ OKC L 14 4 2 4 50.0 0 1 0.0 0 2 0.0 1 2 3 0 0 0 0 3 -9
p61
aVSam Young MEM 05/03/2011 MEM @ OKC L 26 12 6 11 54.5 0 1 0.0 0 0 - 1 3 4 0 1 0 0 1 -6
p62
aVDarrell Arthur MEM 05/03/2011 MEM @ OKC L 20 9 4 9 44.4 0 0 - 1 2 50.0 3 1 4 2 1 0 3 3 -8
p63
aVGreivis Vasquez MEM 05/03/2011 MEM @ OKC L 7 0 0 0 - 0 0 - 0 0 - 0 1 1 0 1 0 1 0 -10
p64
aVTony Allen MEM 05/03/2011 MEM @ OKC L 28 9 2 5 40.0 0 0 - 5 6 83.3 1 2 3 0 1 0 1 3 -1
p65
aVTony Allen MEM 05/01/2011 MEM @ OKC W 23 10 4 9 44.4 0 0 - 2 4 50.0 3 1 4 1 1 0 1 5 -7
p66
aVMarc Gasol MEM 05/01/2011 MEM @ OKC W 35 20 9 11 81.8 0 0 - 2 4 50.0 3 10 13 4 1 3 0 3 13
p67
aVO.J. Mayo MEM 05/01/2011 MEM @ OKC W 24 6 2 7 28.6 1 3 33.3 1 1 100.0 1 4 5 1 1 0 3 1 16
p68
aVMike Conley MEM 05/01/2011 MEM @ OKC W 39 15 5 13 38.5 0 2 0.0 5 6 83.3 0 1 1 7 2 1 0 5 4
p69
aVZach Randolph MEM 05/01/2011 MEM @ OKC W 38 34 12 22 54.5 1 1 100.0 9 9 100.0 4 6 10 2 3 0 1 3 9
p70
aVSam Young MEM 05/01/2011 MEM @ OKC W 25 8 4 8 50.0 0 1 0.0 0 0 - 3 0 3 0 0 0 0 1 2
p71
aVGreivis Vasquez MEM 05/01/2011 MEM @ OKC W 9 4 2 3 66.7 0 0 - 0 0 - 0 1 1 3 0 0 1 2 9
p72
aVShane Battier MEM 05/01/2011 MEM @ OKC W 28 11 4 9 44.4 1 1 100.0 2 2 100.0 2 3 5 1 2 2 1 1 12
p73
aVDarrell Arthur MEM 05/01/2011 MEM @ OKC W 19 6 2 7 28.6 0 0 - 2 2 100.0 1 2 3 2 1 1 0 2 7
p74
aVSam Young MEM 04/29/2011 MEM vs. SAS W 22 9 4 6 66.7 1 1 100.0 0 0 - 0 1 1 0 0 0 0 1 9
p75
aVDarrell Arthur MEM 04/29/2011 MEM vs. SAS W 14 8 3 6 50.0 0 0 - 2 2 100.0 0 0 0 1 0 1 3 2 -5
p76
aVMike Conley MEM 04/29/2011 MEM vs. SAS W 25 9 3 9 33.3 0 2 0.0 3 4 75.0 0 3 3 3 0 0 1 5 8
p77
aVO.J. Mayo MEM 04/29/2011 MEM vs. SAS W 18 6 1 3 33.3 0 0 - 4 6 66.7 0 1 1 1 0 0 1 1 7
p78
aVZach Randolph MEM 04/29/2011 MEM vs. SAS W 40 31 12 22 54.5 0 2 0.0 7 8 87.5 5 6 11 2 1 0 1 2 14
p79
aVTony Allen MEM 04/29/2011 MEM vs. SAS W 33 11 4 9 44.4 0 1 0.0 3 4 75.0 2 2 4 2 4 1 3 2 0
p80
aVShane Battier MEM 04/29/2011 MEM vs. SAS W 24 2 1 1 100.0 0 0 - 0 0 - 1 6 7 1 0 1 0 2 0
p81
aVMarc Gasol MEM 04/29/2011 MEM vs. SAS W 42 12 6 9 66.7 0 0 - 0 2 0.0 5 8 13 1 0 2 4 3 10
p82
aVGreivis Vasquez MEM 04/29/2011 MEM vs. SAS W 23 11 4 8 50.0 0 3 0.0 3 4 75.0 1 2 3 1 1 0 0 0 0
p83
aVHamed Haddadi MEM 04/29/2011 MEM vs. SAS W 0 0 0 0 - 0 0 - 0 0 - 0 0 0 0 0 0 0 0 -3
p84
aVO.J. Mayo MEM 04/27/2011 MEM @ SAS L 20 9 3 4 75.0 1 1 100.0 2 2 100.0 1 1 2 1 2 0 2 5 -12
p85
aVMike Conley MEM 04/27/2011 MEM @ SAS L 43 20 9 20 45.0 0 2 0.0 2 2 100.0 1 4 5 5 2 1 1 4 2
p86
aVTony Allen MEM 04/27/2011 MEM @ SAS L 24 7 2 6 33.3 0 1 0.0 3 4 75.0 0 2 2 0 4 0 3 1 -7
p87
aVHamed Haddadi MEM 04/27/2011 MEM @ SAS L 0 0 0 0 - 0 0 - 0 0 - 0 0 0 0 0 0 0 0 0
p88
aVGreivis Vasquez MEM 04/27/2011 MEM @ SAS L 10 2 1 2 50.0 0 0 - 0 2 0.0 0 0 0 3 0 0 1 1 -9
p89
aVSam Young MEM 04/27/2011 MEM @ SAS L 32 18 7 12 58.3 1 2 50.0 3 3 100.0 2 4 6 0 2 1 1 2 11
p90
aVDarrell Arthur MEM 04/27/2011 MEM @ SAS L 16 4 2 7 28.6 0 0 - 0 0 - 1 2 3 1 1 1 1 3 -10
p91
aVMarc Gasol MEM 04/27/2011 MEM @ SAS L 42 11 5 14 35.7 0 0 - 1 1 100.0 2 15 17 1 1 1 4 5 -4
p92
aVZach Randolph MEM 04/27/2011 MEM @ SAS L 44 26 10 17 58.8 0 0 - 6 7 85.7 2 9 11 6 0 1 2 3 -2
p93
aVShane Battier MEM 04/27/2011 MEM @ SAS L 34 6 2 5 40.0 1 4 25.0 1 2 50.0 1 3 4 2 0 0 1 4 -4
p94
aVO.J. Mayo MEM 04/25/2011 MEM vs. SAS W 19 11 4 10 40.0 2 3 66.7 1 2 50.0 0 2 2 1 1 0 0 4 15
p95
aVHamed Haddadi MEM 04/25/2011 MEM vs. SAS W 9 0 0 1 0.0 0 0 - 0 0 - 0 1 1 0 0 0 0 3 2
p96
aVZach Randolph MEM 04/25/2011 MEM vs. SAS W 31 11 3 7 42.9 0 1 0.0 5 5 100.0 1 8 9 3 2 0 3 4 12
p97
aVMarc Gasol MEM 04/25/2011 MEM vs. SAS W 35 9 3 5 60.0 0 0 - 3 4 75.0 5 4 9 3 0 2 1 1 13
p98
aVSam Young MEM 04/25/2011 MEM vs. SAS W 21 8 3 7 42.9 0 1 0.0 2 4 50.0 0 3 3 0 0 0 0 0 -3
p99
aVGreivis Vasquez MEM 04/25/2011 MEM vs. SAS W 13 9 4 4 100.0 1 1 100.0 0 0 - 0 2 2 3 0 0 2 0 14
p100
aVDarrell Arthur MEM 04/25/2011 MEM vs. SAS W 17 14 7 10 70.0 0 0 - 0 0 - 1 1 2 1 0 1 0 0 13
p101
aVIsh Smith MEM 04/25/2011 MEM vs. SAS W 3 4 2 2 100.0 0 0 - 0 0 - 0 1 1 1 0 0 0 1 -4
p102
aVMike Conley MEM 04/25/2011 MEM vs. SAS W 37 15 6 15 40.0 1 2 50.0 2 2 100.0 0 2 2 7 0 0 1 3 4
p103
aVLeon Powe MEM 04/25/2011 MEM vs. SAS W 3 2 1 5 20.0 0 0 - 0 0 - 1 0 1 0 0 0 0 0 -4
p104
aVShane Battier MEM 04/25/2011 MEM vs. SAS W 25 9 3 5 60.0 1 3 33.3 2 2 100.0 0 4 4 1 2 0 1 1 16
p105
aVTony Allen MEM 04/25/2011 MEM vs. SAS W 27 12 5 10 50.0 0 1 0.0 2 2 100.0 1 2 3 2 3 0 0 2 12
p106
aVShane Battier MEM 04/23/2011 MEM vs. SAS W 27 9 4 7 57.1 1 3 33.3 0 0 - 1 2 3 1 0 0 0 2 11
p107
aVSam Young MEM 04/23/2011 MEM vs. SAS W 15 5 2 6 33.3 0 1 0.0 1 4 25.0 0 1 1 0 0 0 1 0 0
p108
aVZach Randolph MEM 04/23/2011 MEM vs. SAS W 40 25 8 21 38.1 1 1 100.0 8 10 80.0 2 3 5 3 2 0 2 3 -1
p109
aVMike Conley MEM 04/23/2011 MEM vs. SAS W 41 14 4 12 33.3 0 2 0.0 6 8 75.0 0 6 6 8 3 0 1 3 -1
p110
aVMarc Gasol MEM 04/23/2011 MEM vs. SAS W 40 17 7 13 53.8 0 0 - 3 4 75.0 2 7 9 3 0 1 1 4 8
p111
aVO.J. Mayo MEM 04/23/2011 MEM vs. SAS W 29 10 3 8 37.5 2 4 50.0 2 2 100.0 0 3 3 3 0 0 3 3 8
p112
aVGreivis Vasquez MEM 04/23/2011 MEM vs. SAS W 7 0 0 1 0.0 0 0 - 0 0 - 0 2 2 3 1 1 0 1 4
p113
aVDarrell Arthur MEM 04/23/2011 MEM vs. SAS W 16 9 4 7 57.1 0 0 - 1 1 100.0 3 3 6 0 0 2 1 2 -1
p114
aVTony Allen MEM 04/23/2011 MEM vs. SAS W 25 2 1 3 33.3 0 0 - 0 0 - 0 2 2 3 1 0 1 6 -13
p115
aVGreivis Vasquez MEM 04/20/2011 MEM @ SAS L 4 3 1 1 100.0 1 1 100.0 0 0 - 0 1 1 0 0 0 2 2 -4
p116
aVShane Battier MEM 04/20/2011 MEM @ SAS L 27 3 1 7 14.3 1 5 20.0 0 0 - 2 4 6 1 1 1 0 3 -5
p117
aVTony Allen MEM 04/20/2011 MEM @ SAS L 27 15 7 13 53.8 0 0 - 1 1 100.0 2 0 2 2 1 1 4 4 -6
p118
aVMarc Gasol MEM 04/20/2011 MEM @ SAS L 44 12 2 9 22.2 0 0 - 8 11 72.7 3 14 17 2 2 1 1 5 -4
p119
aVZach Randolph MEM 04/20/2011 MEM @ SAS L 27 11 5 14 35.7 0 0 - 1 1 100.0 1 4 5 3 3 0 0 5 3
p120
aVO.J. Mayo MEM 04/20/2011 MEM @ SAS L 19 5 2 11 18.2 0 4 0.0 1 2 50.0 0 1 1 4 0 0 1 1 4
p121
aVSam Young MEM 04/20/2011 MEM @ SAS L 27 17 7 13 53.8 1 2 50.0 2 2 100.0 0 4 4 1 1 1 1 3 -4
p122
aVLeon Powe MEM 04/20/2011 MEM @ SAS L 3 0 0 0 - 0 0 - 0 0 - 0 0 0 0 0 0 0 0 -4
p123
aVMike Conley MEM 04/20/2011 MEM @ SAS L 41 13 6 15 40.0 0 2 0.0 1 2 50.0 1 6 7 4 0 0 5 2 0
p124
aVDarrell Arthur MEM 04/20/2011 MEM @ SAS L 21 8 4 5 80.0 0 0 - 0 1 0.0 2 2 4 0 1 3 0 0 -10
p125
aVMike Conley MEM 04/17/2011 MEM @ SAS W 44 15 4 10 40.0 1 2 50.0 6 8 75.0 1 3 4 10 0 0 4 4 -1
p126
aVShane Battier MEM 04/17/2011 MEM @ SAS W 25 10 4 5 80.0 2 2 100.0 0 0 - 0 1 1 2 1 0 1 1 -3
p127
aVHamed Haddadi MEM 04/17/2011 MEM @ SAS W 1 0 0 0 - 0 0 - 0 0 - 0 0 0 0 0 0 1 0 0
p128
aVTony Allen MEM 04/17/2011 MEM @ SAS W 25 7 2 6 33.3 0 0 - 3 6 50.0 0 3 3 3 1 0 0 3 8
p129
aVDarrell Arthur MEM 04/17/2011 MEM @ SAS W 15 5 2 5 40.0 0 0 - 1 1 100.0 1 1 2 0 0 1 1 5 -4
p130
aVMarc Gasol MEM 04/17/2011 MEM @ SAS W 39 24 9 10 90.0 0 0 - 6 10 60.0 3 6 9 3 0 2 2 5 8
p131
aVSam Young MEM 04/17/2011 MEM @ SAS W 15 2 1 3 33.3 0 1 0.0 0 0 - 0 1 1 0 0 0 2 4 -4
p132
aVZach Randolph MEM 04/17/2011 MEM @ SAS W 41 25 10 15 66.7 0 1 0.0 5 8 62.5 0 14 14 3 0 2 4 4 2
p133
aVO.J. Mayo MEM 04/17/2011 MEM @ SAS W 30 13 5 13 38.5 3 4 75.0 0 0 - 0 3 3 0 0 0 1 6 7
p134
aVIsh Smith MEM 04/17/2011 MEM @ SAS W 1 0 0 0 - 0 0 - 0 0 - 0 0 0 0 0 0 0 0 -2
p135
aVGreivis Vasquez MEM 04/17/2011 MEM @ SAS W 4 0 0 0 - 0 0 - 0 0 - 0 1 1 1 0 0 0 1 4
p136
a.