(lp0
VPLAYER TEAM DATE MATCHUP W/L MIN PTS FGM FGA FG% 3PM 3PA 3P% FTM FTA FT% OREB DREB REB AST STL BLK TOV PF +/-
p1
aVDirk Nowitzki DAL 06/12/2011 DAL @ MIA W 39 21 9 27 33.3 1 7 14.3 2 2 100.0 0 11 11 1 2 0 2 4 -4
p2
aVShawn Marion DAL 06/12/2011 DAL @ MIA W 35 12 4 10 40.0 0 0 - 4 6 66.7 3 5 8 1 1 0 2 3 18
p3
aVTyson Chandler DAL 06/12/2011 DAL @ MIA W 30 5 2 4 50.0 0 0 - 1 2 50.0 2 6 8 1 2 0 1 5 3
p4
aVJ.J. Barea DAL 06/12/2011 DAL @ MIA W 30 15 7 12 58.3 1 3 33.3 0 0 - 2 1 3 5 2 0 3 3 -7
p5
aVDeShawn Stevenson DAL 06/12/2011 DAL @ MIA W 13 9 3 5 60.0 3 5 60.0 0 0 - 0 0 0 0 1 0 0 0 -8
p6
aVIan Mahinmi DAL 06/12/2011 DAL @ MIA W 11 4 2 3 66.7 0 0 - 0 0 - 2 1 3 0 1 0 0 5 -1
p7
aVJason Terry DAL 06/12/2011 DAL @ MIA W 34 27 11 16 68.8 3 7 42.9 2 4 50.0 1 2 3 2 2 0 3 1 13
p8
aVBrian Cardinal DAL 06/12/2011 DAL @ MIA W 12 3 1 1 100.0 1 1 100.0 0 0 - 0 0 0 1 0 0 1 2 18
p9
aVJason Kidd DAL 06/12/2011 DAL @ MIA W 36 9 2 4 50.0 2 3 66.7 3 4 75.0 0 4 4 8 0 1 2 1 18
p10
aVDeShawn Stevenson DAL 06/09/2011 DAL vs. MIA W 14 4 1 2 50.0 1 2 50.0 1 2 50.0 0 0 0 0 0 0 0 2 -12
p11
aVJason Terry DAL 06/09/2011 DAL vs. MIA W 30 21 8 12 66.7 3 5 60.0 2 2 100.0 0 4 4 6 0 0 2 1 1
p12
aVJ.J. Barea DAL 06/09/2011 DAL vs. MIA W 26 17 6 11 54.5 4 5 80.0 1 1 100.0 1 1 2 5 0 0 1 1 4
p13
aVJason Kidd DAL 06/09/2011 DAL vs. MIA W 40 13 4 6 66.7 3 5 60.0 2 2 100.0 0 2 2 6 3 1 3 1 13
p14
aVDirk Nowitzki DAL 06/09/2011 DAL vs. MIA W 40 29 9 18 50.0 1 1 100.0 10 10 100.0 0 6 6 3 1 0 2 2 14
p15
aVShawn Marion DAL 06/09/2011 DAL vs. MIA W 34 8 4 11 36.4 0 0 - 0 0 - 1 3 4 3 2 0 2 3 21
p16
aVBrian Cardinal DAL 06/09/2011 DAL vs. MIA W 10 4 1 1 100.0 1 1 100.0 1 2 50.0 0 0 0 0 1 0 1 3 -7
p17
aVTyson Chandler DAL 06/09/2011 DAL vs. MIA W 39 13 5 7 71.4 0 0 - 3 5 60.0 2 5 7 0 1 2 0 4 14
p18
aVIan Mahinmi DAL 06/09/2011 DAL vs. MIA W 8 3 1 1 100.0 0 0 - 1 3 33.3 0 1 1 0 0 0 0 3 -3
p19
aVJason Kidd DAL 06/07/2011 DAL vs. MIA W 39 0 0 3 0.0 0 3 0.0 0 0 - 0 3 3 3 3 1 4 1 12
p20
aVShawn Marion DAL 06/07/2011 DAL vs. MIA W 26 16 7 12 58.3 0 0 - 2 2 100.0 2 2 4 0 0 1 2 2 -2
p21
aVJ.J. Barea DAL 06/07/2011 DAL vs. MIA W 22 8 3 9 33.3 0 2 0.0 2 2 100.0 1 2 3 4 0 0 1 2 -7
p22
aVBrian Cardinal DAL 06/07/2011 DAL vs. MIA W 7 0 0 1 0.0 0 1 0.0 0 0 - 0 1 1 0 0 0 1 2 -1
p23
aVJason Terry DAL 06/07/2011 DAL vs. MIA W 35 17 6 15 40.0 1 4 25.0 4 6 66.7 0 0 0 3 3 0 0 2 1
p24
aVPeja Stojakovic DAL 06/07/2011 DAL vs. MIA W 0 0 0 0 - 0 0 - 0 0 - 0 0 0 0 0 0 0 0 2
p25
aVDeShawn Stevenson DAL 06/07/2011 DAL vs. MIA W 26 11 3 7 42.9 3 7 42.9 2 2 100.0 0 3 3 1 0 0 0 3 6
p26
aVTyson Chandler DAL 06/07/2011 DAL vs. MIA W 43 13 4 7 57.1 0 0 - 5 8 62.5 9 7 16 1 1 0 0 3 7
p27
aVBrendan Haywood DAL 06/07/2011 DAL vs. MIA W 3 0 0 0 - 0 0 - 0 0 - 0 0 0 0 0 0 0 1 -10
p28
aVDirk Nowitzki DAL 06/07/2011 DAL vs. MIA W 39 21 6 19 31.6 0 2 0.0 9 10 90.0 0 11 11 1 0 0 3 2 7
p29
aVJ.J. Barea DAL 06/05/2011 DAL vs. MIA L 19 6 2 8 25.0 1 5 20.0 1 2 50.0 0 2 2 1 0 0 4 1 3
p30
aVTyson Chandler DAL 06/05/2011 DAL vs. MIA L 40 5 1 4 25.0 0 0 - 3 4 75.0 7 4 11 0 1 3 0 2 4
p31
aVPeja Stojakovic DAL 06/05/2011 DAL vs. MIA L 6 2 1 2 50.0 0 1 0.0 0 0 - 0 3 3 0 0 0 1 1 -11
p32
aVJason Kidd DAL 06/05/2011 DAL vs. MIA L 35 9 3 8 37.5 2 5 40.0 1 2 50.0 1 5 6 10 0 1 4 2 5
p33
aVDeShawn Stevenson DAL 06/05/2011 DAL vs. MIA L 14 3 1 1 100.0 1 1 100.0 0 0 - 0 1 1 1 0 0 0 0 -7
p34
aVBrian Cardinal DAL 06/05/2011 DAL vs. MIA L 0 0 0 0 - 0 0 - 0 0 - 0 0 0 0 0 0 0 0 -3
p35
aVJason Terry DAL 06/05/2011 DAL vs. MIA L 32 15 5 13 38.5 1 3 33.3 4 6 66.7 0 3 3 2 1 0 0 0 -6
p36
aVIan Mahinmi DAL 06/05/2011 DAL vs. MIA L 8 2 0 1 0.0 0 0 - 2 2 100.0 1 0 1 0 0 0 0 5 -6
p37
aVShawn Marion DAL 06/05/2011 DAL vs. MIA L 43 10 4 12 33.3 0 1 0.0 2 2 100.0 2 2 4 3 0 1 2 2 -1
p38
aVDirk Nowitzki DAL 06/05/2011 DAL vs. MIA L 42 34 11 21 52.4 3 5 60.0 9 9 100.0 1 10 11 1 1 3 3 1 12
p39
aVJason Kidd DAL 06/02/2011 DAL @ MIA W 38 6 2 7 28.6 2 5 40.0 0 0 - 1 7 8 5 1 0 5 1 1
p40
aVBrendan Haywood DAL 06/02/2011 DAL @ MIA W 8 2 1 2 50.0 0 0 - 0 0 - 0 0 0 0 0 0 1 2 5
p41
aVDeShawn Stevenson DAL 06/02/2011 DAL @ MIA W 22 9 3 6 50.0 3 5 60.0 0 0 - 1 2 3 0 3 0 1 2 -5
p42
aVPeja Stojakovic DAL 06/02/2011 DAL @ MIA W 5 0 0 0 - 0 0 - 0 0 - 0 0 0 0 0 0 1 0 -7
p43
aVBrian Cardinal DAL 06/02/2011 DAL @ MIA W 1 0 0 0 - 0 0 - 0 0 - 0 0 0 0 0 0 0 1 -4
p44
aVJ.J. Barea DAL 06/02/2011 DAL @ MIA W 14 5 2 7 28.6 0 3 0.0 1 2 50.0 0 3 3 1 0 0 0 1 -11
p45
aVDirk Nowitzki DAL 06/02/2011 DAL @ MIA W 42 24 10 22 45.5 1 2 50.0 3 3 100.0 1 10 11 4 0 1 5 2 13
p46
aVShawn Marion DAL 06/02/2011 DAL @ MIA W 41 20 9 14 64.3 0 0 - 2 2 100.0 3 5 8 3 1 1 3 2 1
p47
aVJason Terry DAL 06/02/2011 DAL @ MIA W 31 16 5 11 45.5 0 2 0.0 6 6 100.0 1 0 1 5 2 0 2 4 13
p48
aVTyson Chandler DAL 06/02/2011 DAL @ MIA W 38 13 4 6 66.7 0 0 - 5 8 62.5 4 3 7 0 1 0 0 5 4
p49
aVShawn Marion DAL 05/31/2011 DAL @ MIA L 35 16 6 12 50.0 0 0 - 4 5 80.0 3 7 10 4 1 1 3 1 -9
p50
aVJason Terry DAL 05/31/2011 DAL @ MIA L 33 12 3 10 30.0 3 7 42.9 3 4 75.0 1 0 1 1 0 0 1 2 0
p51
aVTyson Chandler DAL 05/31/2011 DAL @ MIA L 34 9 3 4 75.0 0 0 - 3 5 60.0 0 4 4 2 1 2 2 5 -2
p52
aVDirk Nowitzki DAL 05/31/2011 DAL @ MIA L 40 27 7 18 38.9 1 2 50.0 12 12 100.0 0 8 8 2 0 0 2 4 -2
p53
aVDeShawn Stevenson DAL 05/31/2011 DAL @ MIA L 14 6 2 3 66.7 2 3 66.7 0 0 - 0 2 2 0 0 1 0 2 -5
p54
aVBrendan Haywood DAL 05/31/2011 DAL @ MIA L 14 3 0 1 0.0 0 0 - 3 6 50.0 2 5 7 0 1 3 0 3 -6
p55
aVJason Kidd DAL 05/31/2011 DAL @ MIA L 36 9 3 8 37.5 3 7 42.9 0 0 - 0 4 4 6 0 1 3 0 -7
p56
aVPeja Stojakovic DAL 05/31/2011 DAL @ MIA L 15 0 0 3 0.0 0 3 0.0 0 0 - 0 0 0 0 2 0 0 3 -3
p57
aVJ.J. Barea DAL 05/31/2011 DAL @ MIA L 18 2 1 8 12.5 0 0 - 0 0 - 0 0 0 3 1 0 0 2 -6
p58
aVTyson Chandler DAL 05/25/2011 DAL vs. OKC W 24 9 3 7 42.9 0 0 - 3 3 100.0 3 6 9 0 0 2 2 6 8
p59
aVDeShawn Stevenson DAL 05/25/2011 DAL vs. OKC W 25 1 0 7 0.0 0 5 0.0 1 2 50.0 0 2 2 0 1 0 0 1 -1
p60
aVShawn Marion DAL 05/25/2011 DAL vs. OKC W 40 26 10 17 58.8 0 1 0.0 6 7 85.7 3 5 8 3 1 3 2 1 9
p61
aVJason Kidd DAL 05/25/2011 DAL vs. OKC W 34 2 1 7 14.3 0 3 0.0 0 0 - 4 3 7 10 1 0 1 0 11
p62
aVDirk Nowitzki DAL 05/25/2011 DAL vs. OKC W 40 26 8 15 53.3 1 2 50.0 9 9 100.0 2 7 9 0 2 0 5 1 8
p63
aVBrendan Haywood DAL 05/25/2011 DAL vs. OKC W 16 7 1 1 100.0 0 0 - 5 6 83.3 1 2 3 0 0 0 0 4 -5
p64
aVPeja Stojakovic DAL 05/25/2011 DAL vs. OKC W 9 3 1 4 25.0 1 4 25.0 0 0 - 0 1 1 1 1 0 0 0 -6
p65
aVJ.J. Barea DAL 05/25/2011 DAL vs. OKC W 22 14 5 11 45.5 1 2 50.0 3 4 75.0 1 3 4 5 1 0 0 0 -8
p66
aVJason Terry DAL 05/25/2011 DAL vs. OKC W 31 12 3 9 33.3 2 3 66.7 4 5 80.0 0 1 1 0 1 0 2 4 4
p67
aVDirk Nowitzki DAL 05/23/2011 DAL @ OKC W 45 40 12 20 60.0 2 3 66.7 14 15 93.3 0 5 5 3 0 0 4 2 9
p68
aVDeShawn Stevenson DAL 05/23/2011 DAL @ OKC W 13 3 1 5 20.0 1 4 25.0 0 0 - 0 0 0 0 0 0 1 3 -10
p69
aVBrendan Haywood DAL 05/23/2011 DAL @ OKC W 18 9 2 2 100.0 0 0 - 5 8 62.5 2 1 3 1 0 1 0 2 -3
p70
aVJ.J. Barea DAL 05/23/2011 DAL @ OKC W 16 7 3 10 30.0 0 3 0.0 1 1 100.0 0 2 2 1 1 0 0 0 -7
p71
aVTyson Chandler DAL 05/23/2011 DAL @ OKC W 35 5 2 4 50.0 0 0 - 1 1 100.0 2 6 8 0 2 0 0 4 10
p72
aVShawn Marion DAL 05/23/2011 DAL @ OKC W 38 7 1 5 20.0 0 0 - 5 6 83.3 0 4 4 1 4 1 0 4 7
p73
aVJason Terry DAL 05/23/2011 DAL @ OKC W 42 20 7 19 36.8 2 6 33.3 4 4 100.0 1 4 5 1 4 0 3 4 19
p74
aVJason Kidd DAL 05/23/2011 DAL @ OKC W 41 17 5 9 55.6 3 6 50.0 4 4 100.0 0 5 5 7 4 0 3 1 8
p75
aVPeja Stojakovic DAL 05/23/2011 DAL @ OKC W 17 4 2 7 28.6 0 3 0.0 0 0 - 0 1 1 2 0 0 2 2 2
p76
aVTyson Chandler DAL 05/21/2011 DAL @ OKC W 36 8 3 3 100.0 0 0 - 2 4 50.0 6 9 15 0 2 1 0 4 10
p77
aVJason Terry DAL 05/21/2011 DAL @ OKC W 31 13 3 12 25.0 1 4 25.0 6 6 100.0 0 1 1 6 2 0 0 2 -3
p78
aVShawn Marion DAL 05/21/2011 DAL @ OKC W 38 18 9 13 69.2 0 0 - 0 0 - 0 4 4 1 2 2 0 5 0
p79
aVJ.J. Barea DAL 05/21/2011 DAL @ OKC W 14 4 2 5 40.0 0 0 - 0 0 - 1 1 2 4 0 0 1 5 0
p80
aVBrendan Haywood DAL 05/21/2011 DAL @ OKC W 10 4 2 5 40.0 0 0 - 0 1 0.0 1 1 2 0 0 1 1 1 -2
p81
aVDirk Nowitzki DAL 05/21/2011 DAL @ OKC W 37 18 7 21 33.3 1 6 16.7 3 3 100.0 0 4 4 1 0 0 7 1 -1
p82
aVPeja Stojakovic DAL 05/21/2011 DAL @ OKC W 16 7 3 7 42.9 1 3 33.3 0 0 - 0 3 3 1 0 0 1 1 15
p83
aVDeShawn Stevenson DAL 05/21/2011 DAL @ OKC W 22 8 3 6 50.0 2 3 66.7 0 0 - 0 0 0 0 1 0 0 2 5
p84
aVJason Kidd DAL 05/21/2011 DAL @ OKC W 37 13 4 10 40.0 2 5 40.0 3 4 75.0 1 5 6 8 4 0 2 3 6
p85
aVShawn Marion DAL 05/19/2011 DAL vs. OKC L 25 9 4 13 30.8 0 1 0.0 1 2 50.0 6 2 8 0 0 0 1 2 2
p86
aVBrendan Haywood DAL 05/19/2011 DAL vs. OKC L 8 2 1 1 100.0 0 0 - 0 0 - 0 1 1 0 0 1 0 4 -7
p87
aVJason Terry DAL 05/19/2011 DAL vs. OKC L 29 8 3 9 33.3 0 2 0.0 2 2 100.0 0 0 0 1 0 0 3 4 -6
p88
aVIan Mahinmi DAL 05/19/2011 DAL vs. OKC L 1 0 0 0 - 0 0 - 0 0 - 0 0 0 0 0 0 0 2 -6
p89
aVJason Kidd DAL 05/19/2011 DAL vs. OKC L 36 13 4 10 40.0 3 8 37.5 2 2 100.0 1 4 5 7 5 0 1 1 -2
p90
aVPeja Stojakovic DAL 05/19/2011 DAL vs. OKC L 19 8 3 6 50.0 2 5 40.0 0 0 - 0 1 1 0 1 1 2 0 0
p91
aVDeShawn Stevenson DAL 05/19/2011 DAL vs. OKC L 28 5 1 6 16.7 1 6 16.7 2 2 100.0 0 1 1 0 1 0 1 4 0
p92
aVTyson Chandler DAL 05/19/2011 DAL vs. OKC L 39 15 5 10 50.0 0 0 - 5 6 83.3 6 7 13 1 0 0 1 2 7
p93
aVDirk Nowitzki DAL 05/19/2011 DAL vs. OKC L 40 29 10 17 58.8 0 0 - 9 10 90.0 1 4 5 5 0 0 3 2 -6
p94
aVJ.J. Barea DAL 05/19/2011 DAL vs. OKC L 16 11 4 8 50.0 3 5 60.0 0 0 - 0 3 3 4 0 0 0 1 -12
p95
aVJason Kidd DAL 05/17/2011 DAL vs. OKC W 35 3 1 3 33.3 1 3 33.3 0 0 - 0 3 3 11 3 0 3 3 9
p96
aVDeShawn Stevenson DAL 05/17/2011 DAL vs. OKC W 15 3 1 4 25.0 1 3 33.3 0 0 - 0 0 0 0 1 0 0 4 -1
p97
aVJason Terry DAL 05/17/2011 DAL vs. OKC W 33 24 8 16 50.0 4 8 50.0 4 4 100.0 0 1 1 2 0 1 1 4 15
p98
aVTyson Chandler DAL 05/17/2011 DAL vs. OKC W 25 3 1 2 50.0 0 0 - 1 2 50.0 2 6 8 0 0 2 1 4 1
p99
aVCorey Brewer DAL 05/17/2011 DAL vs. OKC W 5 2 1 2 50.0 0 0 - 0 0 - 0 0 0 0 1 0 1 1 -6
p100
aVShawn Marion DAL 05/17/2011 DAL vs. OKC W 27 11 5 10 50.0 0 0 - 1 1 100.0 3 4 7 3 1 1 2 6 10
p101
aVJ.J. Barea DAL 05/17/2011 DAL vs. OKC W 16 21 8 12 66.7 2 3 66.7 3 3 100.0 1 2 3 1 0 0 2 0 -2
p102
aVPeja Stojakovic DAL 05/17/2011 DAL vs. OKC W 21 3 1 8 12.5 1 6 16.7 0 0 - 1 1 2 1 1 0 0 0 -1
p103
aVDirk Nowitzki DAL 05/17/2011 DAL vs. OKC W 41 48 12 15 80.0 0 0 - 24 24 100.0 0 6 6 4 0 4 2 3 12
p104
aVBrendan Haywood DAL 05/17/2011 DAL vs. OKC W 23 3 1 1 100.0 0 0 - 1 2 50.0 1 2 3 0 0 0 0 3 8
p105
aVDeShawn Stevenson DAL 05/08/2011 DAL vs. LAL W 18 3 1 6 16.7 1 5 20.0 0 0 - 0 1 1 2 0 0 1 4 1
p106
aVShawn Marion DAL 05/08/2011 DAL vs. LAL W 24 8 3 7 42.9 0 0 - 2 2 100.0 1 5 6 3 1 0 4 4 -1
p107
aVJ.J. Barea DAL 05/08/2011 DAL vs. LAL W 27 22 9 14 64.3 1 4 25.0 3 3 100.0 0 1 1 8 0 0 2 0 29
p108
aVIan Mahinmi DAL 05/08/2011 DAL vs. LAL W 5 2 0 0 - 0 0 - 2 4 50.0 0 1 1 0 0 0 0 1 4
p109
aVTyson Chandler DAL 05/08/2011 DAL vs. LAL W 26 5 2 4 50.0 0 0 - 1 1 100.0 2 7 9 0 0 0 1 2 13
p110
aVCorey Brewer DAL 05/08/2011 DAL vs. LAL W 5 2 1 2 50.0 0 0 - 0 0 - 0 0 0 0 2 0 1 0 4
p111
aVDirk Nowitzki DAL 05/08/2011 DAL vs. LAL W 32 17 7 11 63.6 1 1 100.0 2 2 100.0 0 7 7 4 1 0 1 2 37
p112
aVPeja Stojakovic DAL 05/08/2011 DAL vs. LAL W 30 21 7 7 100.0 6 6 100.0 1 2 50.0 0 3 3 2 3 0 1 2 28
p113
aVJason Kidd DAL 05/08/2011 DAL vs. LAL W 26 3 1 6 16.7 1 5 20.0 0 0 - 0 2 2 7 4 0 2 4 13
p114
aVBrendan Haywood DAL 05/08/2011 DAL vs. LAL W 17 4 1 1 100.0 0 0 - 2 3 66.7 3 5 8 1 0 1 3 2 19
p115
aVBrian Cardinal DAL 05/08/2011 DAL vs. LAL W 5 3 1 1 100.0 1 1 100.0 0 0 - 0 1 1 1 0 0 0 0 4
p116
aVJason Terry DAL 05/08/2011 DAL vs. LAL W 25 32 11 14 78.6 9 10 90.0 1 2 50.0 0 1 1 4 0 1 3 2 29
p117
aVTyson Chandler DAL 05/06/2011 DAL vs. LAL W 33 8 1 1 100.0 0 0 - 6 7 85.7 1 4 5 0 1 1 0 4 9
p118
aVShawn Marion DAL 05/06/2011 DAL vs. LAL W 30 2 1 7 14.3 0 1 0.0 0 0 - 3 5 8 3 1 2 3 1 -1
p119
aVDeShawn Stevenson DAL 05/06/2011 DAL vs. LAL W 11 3 1 1 100.0 1 1 100.0 0 0 - 0 0 0 2 0 0 0 3 -10
p120
aVPeja Stojakovic DAL 05/06/2011 DAL vs. LAL W 23 15 5 11 45.5 3 7 42.9 2 2 100.0 0 3 3 0 0 0 0 2 8
p121
aVDirk Nowitzki DAL 05/06/2011 DAL vs. LAL W 42 32 12 19 63.2 4 5 80.0 4 4 100.0 0 9 9 1 0 1 4 2 9
p122
aVJason Kidd DAL 05/06/2011 DAL vs. LAL W 35 11 3 12 25.0 2 8 25.0 3 4 75.0 0 4 4 9 0 1 4 1 4
p123
aVCorey Brewer DAL 05/06/2011 DAL vs. LAL W 1 0 0 1 0.0 0 1 0.0 0 0 - 0 0 0 0 0 0 0 0 -1
p124
aVJason Terry DAL 05/06/2011 DAL vs. LAL W 36 23 7 10 70.0 2 4 50.0 7 8 87.5 1 2 3 2 2 0 0 1 13
p125
aVJ.J. Barea DAL 05/06/2011 DAL vs. LAL W 14 4 1 5 20.0 0 2 0.0 2 4 50.0 0 0 0 5 0 0 0 0 1
p126
aVBrendan Haywood DAL 05/06/2011 DAL vs. LAL W 14 0 0 0 - 0 0 - 0 0 - 3 4 7 0 0 0 1 4 -2
p127
aVShawn Marion DAL 05/04/2011 DAL @ LAL W 34 14 5 10 50.0 0 0 - 4 5 80.0 4 5 9 1 0 0 2 1 3
p128
aVDirk Nowitzki DAL 05/04/2011 DAL @ LAL W 38 24 9 16 56.3 2 3 66.7 4 5 80.0 1 6 7 2 0 0 1 2 15
p129
aVPeja Stojakovic DAL 05/04/2011 DAL @ LAL W 24 4 2 9 22.2 0 5 0.0 0 0 - 0 1 1 0 0 0 0 2 6
p130
aVJ.J. Barea DAL 05/04/2011 DAL @ LAL W 17 12 4 9 44.4 0 2 0.0 4 4 100.0 0 1 1 4 0 0 2 0 3
p131
aVJason Kidd DAL 05/04/2011 DAL @ LAL W 34 10 3 10 30.0 2 8 25.0 2 3 66.7 0 2 2 6 1 0 4 4 10
p132
aVJason Terry DAL 05/04/2011 DAL @ LAL W 32 9 3 12 25.0 1 1 100.0 2 2 100.0 0 2 2 5 2 0 0 0 13
p133
aVDeShawn Stevenson DAL 05/04/2011 DAL @ LAL W 13 9 3 6 50.0 3 6 50.0 0 0 - 0 2 2 1 1 1 0 2 -2
p134
aVBrendan Haywood DAL 05/04/2011 DAL @ LAL W 17 5 2 5 40.0 0 0 - 1 2 50.0 4 4 8 1 0 3 2 2 10
p135
aVTyson Chandler DAL 05/04/2011 DAL @ LAL W 31 6 3 4 75.0 0 0 - 0 0 - 2 5 7 0 0 0 0 3 2
p136
aVTyson Chandler DAL 05/02/2011 DAL @ LAL W 35 11 5 8 62.5 0 0 - 1 2 50.0 1 8 9 1 0 3 0 2 -6
p137
aVJason Terry DAL 05/02/2011 DAL @ LAL W 30 15 6 10 60.0 1 4 25.0 2 2 100.0 0 3 3 4 1 1 1 2 2
p138
aVDirk Nowitzki DAL 05/02/2011 DAL @ LAL W 38 28 11 22 50.0 1 2 50.0 5 5 100.0 1 13 14 3 2 1 1 1 6
p139
aVShawn Marion DAL 05/02/2011 DAL @ LAL W 34 10 5 13 38.5 0 0 - 0 0 - 2 2 4 4 1 1 2 1 -8
p140
aVJ.J. Barea DAL 05/02/2011 DAL @ LAL W 14 8 3 6 50.0 2 4 50.0 0 0 - 0 2 2 5 0 0 0 1 8
p141
aVJason Kidd DAL 05/02/2011 DAL @ LAL W 34 7 2 4 50.0 2 3 66.7 1 2 50.0 1 4 5 11 3 1 5 2 -4
p142
aVPeja Stojakovic DAL 05/02/2011 DAL @ LAL W 24 10 4 8 50.0 2 3 66.7 0 0 - 0 2 2 0 0 0 0 1 6
p143
aVDeShawn Stevenson DAL 05/02/2011 DAL @ LAL W 10 0 0 3 0.0 0 2 0.0 0 0 - 0 0 0 1 0 0 2 1 -11
p144
aVBrendan Haywood DAL 05/02/2011 DAL @ LAL W 13 2 1 1 100.0 0 0 - 0 0 - 0 0 0 0 0 1 0 4 6
p145
aVCorey Brewer DAL 05/02/2011 DAL @ LAL W 8 5 2 4 50.0 1 2 50.0 0 0 - 0 1 1 1 1 0 0 2 11
p146
aVDeShawn Stevenson DAL 04/28/2011 DAL @ POR W 11 3 1 3 33.3 1 2 50.0 0 0 - 0 1 1 0 1 0 0 3 -7
p147
aVPeja Stojakovic DAL 04/28/2011 DAL @ POR W 24 6 1 7 14.3 1 4 25.0 3 3 100.0 1 0 1 0 1 0 0 0 -4
p148
aVDirk Nowitzki DAL 04/28/2011 DAL @ POR W 39 33 11 17 64.7 0 1 0.0 11 11 100.0 1 10 11 4 0 1 4 5 12
p149
aVShawn Marion DAL 04/28/2011 DAL @ POR W 33 16 7 15 46.7 0 0 - 2 2 100.0 4 2 6 1 0 0 0 3 6
p150
aVTyson Chandler DAL 04/28/2011 DAL @ POR W 33 9 4 5 80.0 0 0 - 1 4 25.0 2 5 7 0 0 1 0 1 1
p151
aVJason Terry DAL 04/28/2011 DAL @ POR W 34 22 9 16 56.3 2 5 40.0 2 2 100.0 1 2 3 8 0 0 3 1 17
p152
aVBrendan Haywood DAL 04/28/2011 DAL @ POR W 15 0 0 3 0.0 0 0 - 0 0 - 3 1 4 0 0 1 1 4 6
p153
aVJason Kidd DAL 04/28/2011 DAL @ POR W 36 7 3 7 42.9 1 4 25.0 0 0 - 0 2 2 6 2 0 1 1 1
p154
aVJ.J. Barea DAL 04/28/2011 DAL @ POR W 15 7 3 5 60.0 1 2 50.0 0 0 - 0 4 4 4 0 0 0 1 3
p155
aVJason Kidd DAL 04/25/2011 DAL vs. POR W 36 4 1 7 14.3 0 5 0.0 2 2 100.0 1 6 7 14 0 0 2 4 18
p156
aVTyson Chandler DAL 04/25/2011 DAL vs. POR W 35 14 3 4 75.0 0 0 - 8 12 66.7 13 7 20 0 0 0 2 4 11
p157
aVIan Mahinmi DAL 04/25/2011 DAL vs. POR W 0 0 0 0 - 0 0 - 0 0 - 0 0 0 0 0 0 0 0 0
p158
aVBrendan Haywood DAL 04/25/2011 DAL vs. POR W 13 3 1 1 100.0 0 0 - 1 3 33.3 1 4 5 0 0 2 0 2 0
p159
aVDirk Nowitzki DAL 04/25/2011 DAL vs. POR W 37 25 8 18 44.4 0 1 0.0 9 11 81.8 3 5 8 3 2 0 3 1 4
p160
aVDeShawn Stevenson DAL 04/25/2011 DAL vs. POR W 13 0 0 3 0.0 0 2 0.0 0 0 - 0 0 0 0 0 0 1 1 1
p161
aVBrian Cardinal DAL 04/25/2011 DAL vs. POR W 1 0 0 0 - 0 0 - 0 0 - 0 0 0 0 0 0 0 0 0
p162
aVCorey Brewer DAL 04/25/2011 DAL vs. POR W 0 0 0 0 - 0 0 - 0 0 - 0 0 0 0 0 0 0 0 0
p163
aVShawn Marion DAL 04/25/2011 DAL vs. POR W 32 14 6 14 42.9 0 0 - 2 2 100.0 2 2 4 3 4 2 1 2 13
p164
aVPeja Stojakovic DAL 04/25/2011 DAL vs. POR W 25 9 3 7 42.9 2 4 50.0 1 2 50.0 0 1 1 0 0 0 0 2 7
p165
aVJ.J. Barea DAL 04/25/2011 DAL vs. POR W 15 4 2 6 33.3 0 0 - 0 0 - 0 2 2 1 1 0 1 1 -7
p166
aVJason Terry DAL 04/25/2011 DAL vs. POR W 33 20 8 18 44.4 1 5 20.0 3 3 100.0 0 2 2 1 1 0 2 2 8
p167
aVPeja Stojakovic DAL 04/23/2011 DAL @ POR L 25 8 3 7 42.9 2 5 40.0 0 0 - 0 0 0 0 2 0 0 1 0
p168
aVJ.J. Barea DAL 04/23/2011 DAL @ POR L 19 4 2 7 28.6 0 2 0.0 0 0 - 1 1 2 3 0 0 3 2 -4
p169
aVJason Terry DAL 04/23/2011 DAL @ POR L 32 13 5 16 31.3 1 5 20.0 2 2 100.0 0 3 3 3 0 0 2 2 -15
p170
aVTyson Chandler DAL 04/23/2011 DAL @ POR L 30 6 2 6 33.3 0 0 - 2 2 100.0 4 3 7 1 0 0 1 5 -6
p171
aVBrendan Haywood DAL 04/23/2011 DAL @ POR L 18 2 1 2 50.0 0 0 - 0 0 - 3 2 5 0 0 2 0 2 4
p172
aVDeShawn Stevenson DAL 04/23/2011 DAL @ POR L 16 8 2 4 50.0 2 4 50.0 2 2 100.0 0 2 2 3 0 0 1 1 13
p173
aVDirk Nowitzki DAL 04/23/2011 DAL @ POR L 38 20 7 17 41.2 2 4 50.0 4 4 100.0 0 2 2 3 0 0 4 1 -8
p174
aVJason Kidd DAL 04/23/2011 DAL @ POR L 29 9 3 6 50.0 3 5 60.0 0 0 - 0 5 5 4 2 0 1 4 2
p175
aVShawn Marion DAL 04/23/2011 DAL @ POR L 33 12 6 11 54.5 0 1 0.0 0 0 - 1 10 11 2 0 0 2 3 4
p176
aVDeShawn Stevenson DAL 04/21/2011 DAL @ POR L 4 0 0 0 - 0 0 - 0 0 - 0 0 0 0 0 0 1 0 -8
p177
aVShawn Marion DAL 04/21/2011 DAL @ POR L 27 9 4 8 50.0 0 0 - 1 1 100.0 2 6 8 1 0 0 2 1 -16
p178
aVPeja Stojakovic DAL 04/21/2011 DAL @ POR L 22 7 3 7 42.9 1 4 25.0 0 0 - 0 3 3 0 0 0 1 0 -6
p179
aVDirk Nowitzki DAL 04/21/2011 DAL @ POR L 40 25 10 21 47.6 1 2 50.0 4 7 57.1 0 9 9 2 0 1 2 3 -1
p180
aVJason Terry DAL 04/21/2011 DAL @ POR L 40 29 10 13 76.9 5 7 71.4 4 5 80.0 0 1 1 7 1 0 2 3 7
p181
aVTyson Chandler DAL 04/21/2011 DAL @ POR L 15 2 1 3 33.3 0 0 - 0 0 - 3 1 4 1 0 0 1 6 -2
p182
aVJ.J. Barea DAL 04/21/2011 DAL @ POR L 21 6 2 5 40.0 0 1 0.0 2 4 50.0 0 0 0 2 0 0 0 4 -2
p183
aVJason Kidd DAL 04/21/2011 DAL @ POR L 38 8 3 9 33.3 2 8 25.0 0 0 - 0 6 6 3 2 1 5 2 -1
p184
aVBrendan Haywood DAL 04/21/2011 DAL @ POR L 30 6 2 2 100.0 0 0 - 2 6 33.3 2 4 6 0 1 1 2 3 4
p185
aVDeShawn Stevenson DAL 04/19/2011 DAL vs. POR W 13 1 0 1 0.0 0 0 - 1 2 50.0 0 0 0 0 1 0 0 1 1
p186
aVShawn Marion DAL 04/19/2011 DAL vs. POR W 27 6 3 5 60.0 0 0 - 0 0 - 0 3 3 2 0 1 0 3 -2
p187
aVJ.J. Barea DAL 04/19/2011 DAL vs. POR W 16 6 2 7 28.6 0 1 0.0 2 2 100.0 0 0 0 4 0 0 2 2 7
p188
aVJason Kidd DAL 04/19/2011 DAL vs. POR W 33 18 7 11 63.6 3 6 50.0 1 1 100.0 0 4 4 8 0 1 0 0 6
p189
aVPeja Stojakovic DAL 04/19/2011 DAL vs. POR W 27 21 8 13 61.5 5 10 50.0 0 0 - 1 4 5 0 1 0 0 2 10
p190
aVTyson Chandler DAL 04/19/2011 DAL vs. POR W 28 4 2 4 50.0 0 0 - 0 0 - 4 6 10 0 1 0 1 4 3
p191
aVBrian Cardinal DAL 04/19/2011 DAL vs. POR W 1 0 0 0 - 0 0 - 0 0 - 0 1 1 0 0 0 0 0 0
p192
aVBrendan Haywood DAL 04/19/2011 DAL vs. POR W 20 2 1 1 100.0 0 0 - 0 4 0.0 4 1 5 1 0 0 1 4 9
p193
aVJason Terry DAL 04/19/2011 DAL vs. POR W 33 10 5 12 41.7 0 2 0.0 0 0 - 0 1 1 1 2 0 1 0 10
p194
aVDirk Nowitzki DAL 04/19/2011 DAL vs. POR W 38 33 9 22 40.9 0 0 - 15 17 88.2 1 6 7 4 1 1 1 2 17
p195
aVCorey Brewer DAL 04/19/2011 DAL vs. POR W 4 0 0 0 - 0 0 - 0 0 - 0 1 1 0 0 0 0 2 -1
p196
aVShawn Marion DAL 04/16/2011 DAL vs. POR W 35 6 2 6 33.3 0 0 - 2 2 100.0 1 4 5 3 1 2 1 3 13
p197
aVJason Terry DAL 04/16/2011 DAL vs. POR W 27 10 2 5 40.0 0 1 0.0 6 8 75.0 0 1 1 3 2 0 1 3 13
p198
aVDirk Nowitzki DAL 04/16/2011 DAL vs. POR W 39 28 7 20 35.0 1 1 100.0 13 13 100.0 0 10 10 2 0 0 6 3 17
p199
aVJ.J. Barea DAL 04/16/2011 DAL vs. POR W 19 4 1 7 14.3 0 1 0.0 2 2 100.0 0 0 0 1 0 0 1 1 -9
p200
aVBrendan Haywood DAL 04/16/2011 DAL vs. POR W 16 2 1 2 50.0 0 0 - 0 2 0.0 4 2 6 0 0 1 1 1 0
p201
aVDeShawn Stevenson DAL 04/16/2011 DAL vs. POR W 19 5 2 4 50.0 1 2 50.0 0 0 - 0 1 1 1 0 0 1 1 -8
p202
aVPeja Stojakovic DAL 04/16/2011 DAL vs. POR W 19 6 2 7 28.6 2 4 50.0 0 0 - 0 2 2 0 0 1 0 2 -4
p203
aVTyson Chandler DAL 04/16/2011 DAL vs. POR W 32 4 1 1 100.0 0 0 - 2 2 100.0 4 5 9 0 0 2 1 2 6
p204
aVJason Kidd DAL 04/16/2011 DAL vs. POR W 34 24 9 14 64.3 6 10 60.0 0 0 - 1 4 5 4 2 1 1 0 12
p205
aVBrian Cardinal DAL 04/16/2011 DAL vs. POR W 0 0 0 0 - 0 0 - 0 0 - 0 0 0 0 0 0 0 0 0
p206
a.