(lp0
VPLAYER TEAM DATE MATCHUP W/L MIN PTS FGM FGA FG% 3PM 3PA 3P% FTM FTA FT% OREB DREB REB AST STL BLK TOV PF +/-
p1
aVJosh Harrellson NYK 05/09/2012 NYK @ MIA L 1 0 0 1 0.0 0 0 - 0 0 - 1 0 1 0 0 0 0 1 -1
p2
aVMike Bibby NYK 05/09/2012 NYK @ MIA L 36 10 4 7 57.1 2 4 50.0 0 0 - 2 4 6 6 0 0 1 1 -6
p3
aVCarmelo Anthony NYK 05/09/2012 NYK @ MIA L 42 35 15 31 48.4 2 5 40.0 3 4 75.0 2 6 8 1 2 0 1 5 -6
p4
aVAmar'e Stoudemire NYK 05/09/2012 NYK @ MIA L 32 14 4 7 57.1 0 0 - 6 6 100.0 1 3 4 1 1 0 5 6 -12
p5
aVJared Jeffries NYK 05/09/2012 NYK @ MIA L 5 2 1 1 100.0 0 0 - 0 0 - 0 0 0 0 0 0 0 2 -4
p6
aVJR Smith NYK 05/09/2012 NYK @ MIA L 36 12 3 15 20.0 0 4 0.0 6 6 100.0 0 0 0 0 0 0 2 3 -20
p7
aVTyson Chandler NYK 05/09/2012 NYK @ MIA L 41 7 3 6 50.0 0 0 - 1 2 50.0 4 7 11 3 1 4 1 3 -10
p8
aVToney Douglas NYK 05/09/2012 NYK @ MIA L 8 2 1 1 100.0 0 0 - 0 0 - 0 0 0 1 0 0 0 0 -2
p9
aVLandry Fields NYK 05/09/2012 NYK @ MIA L 27 12 5 7 71.4 0 0 - 2 3 66.7 1 4 5 1 3 0 3 2 -7
p10
aVSteve Novak NYK 05/09/2012 NYK @ MIA L 12 0 0 0 - 0 0 - 0 0 - 0 1 1 0 0 1 0 0 8
p11
aVBaron Davis NYK 05/06/2012 NYK vs. MIA W 25 2 0 4 0.0 0 4 0.0 2 2 100.0 0 0 0 2 0 0 4 4 5
p12
aVJared Jeffries NYK 05/06/2012 NYK vs. MIA W 4 0 0 0 - 0 0 - 0 0 - 1 1 2 0 0 0 1 0 -10
p13
aVAmar'e Stoudemire NYK 05/06/2012 NYK vs. MIA W 34 20 8 13 61.5 0 0 - 4 7 57.1 5 5 10 1 0 0 4 4 7
p14
aVJosh Harrellson NYK 05/06/2012 NYK vs. MIA W 10 4 1 1 100.0 0 0 - 2 2 100.0 0 2 2 0 0 0 1 3 -2
p15
aVLandry Fields NYK 05/06/2012 NYK vs. MIA W 19 5 2 4 50.0 0 1 0.0 1 2 50.0 0 1 1 2 0 0 1 0 3
p16
aVSteve Novak NYK 05/06/2012 NYK vs. MIA W 16 3 1 2 50.0 1 1 100.0 0 0 - 0 3 3 0 0 0 0 2 -10
p17
aVTyson Chandler NYK 05/06/2012 NYK vs. MIA W 33 1 0 2 0.0 0 0 - 1 2 50.0 1 8 9 1 2 1 2 6 9
p18
aVCarmelo Anthony NYK 05/06/2012 NYK vs. MIA W 41 41 15 29 51.7 1 4 25.0 10 14 71.4 2 4 6 4 1 0 1 3 13
p19
aVMike Bibby NYK 05/06/2012 NYK vs. MIA W 23 6 2 5 40.0 2 4 50.0 0 0 - 1 4 5 2 1 0 2 2 -3
p20
aVJR Smith NYK 05/06/2012 NYK vs. MIA W 36 7 3 15 20.0 1 8 12.5 0 0 - 0 5 5 4 2 0 1 5 -2
p21
aVBaron Davis NYK 05/03/2012 NYK vs. MIA L 27 7 2 5 40.0 0 3 0.0 3 3 100.0 0 1 1 3 0 0 3 2 -16
p22
aVSteve Novak NYK 05/03/2012 NYK vs. MIA L 22 0 0 2 0.0 0 1 0.0 0 0 - 1 1 2 0 0 0 1 1 -22
p23
aVJosh Harrellson NYK 05/03/2012 NYK vs. MIA L 5 2 1 3 33.3 0 0 - 0 0 - 2 1 3 0 0 0 0 2 8
p24
aVJared Jeffries NYK 05/03/2012 NYK vs. MIA L 14 0 0 0 - 0 0 - 0 0 - 1 3 4 0 1 0 0 2 4
p25
aVLandry Fields NYK 05/03/2012 NYK vs. MIA L 34 9 3 8 37.5 1 3 33.3 2 2 100.0 2 2 4 2 0 0 3 2 -15
p26
aVJR Smith NYK 05/03/2012 NYK vs. MIA L 39 12 5 18 27.8 0 5 0.0 2 2 100.0 0 2 2 0 2 0 2 3 -8
p27
aVMike Bibby NYK 05/03/2012 NYK vs. MIA L 18 8 2 4 50.0 2 4 50.0 2 3 66.7 0 3 3 1 0 0 0 1 3
p28
aVTyson Chandler NYK 05/03/2012 NYK vs. MIA L 38 10 2 6 33.3 0 0 - 6 10 60.0 6 9 15 0 2 2 4 3 -14
p29
aVCarmelo Anthony NYK 05/03/2012 NYK vs. MIA L 43 22 7 23 30.4 1 4 25.0 7 9 77.8 2 6 8 2 1 1 5 5 -25
p30
aVJR Smith NYK 04/30/2012 NYK @ MIA L 31 13 6 11 54.5 1 3 33.3 0 0 - 0 2 2 5 0 1 2 4 3
p31
aVCarmelo Anthony NYK 04/30/2012 NYK @ MIA L 45 30 12 26 46.2 0 3 0.0 6 9 66.7 1 8 9 1 1 0 3 5 -11
p32
aVLandry Fields NYK 04/30/2012 NYK @ MIA L 18 2 1 5 20.0 0 1 0.0 0 0 - 1 2 3 1 0 0 1 0 -15
p33
aVAmar'e Stoudemire NYK 04/30/2012 NYK @ MIA L 41 18 6 9 66.7 0 0 - 6 9 66.7 1 6 7 0 2 1 1 3 -9
p34
aVSteve Novak NYK 04/30/2012 NYK @ MIA L 21 3 1 3 33.3 1 3 33.3 0 0 - 0 5 5 0 0 0 2 1 -2
p35
aVTyson Chandler NYK 04/30/2012 NYK @ MIA L 33 13 6 8 75.0 0 0 - 1 1 100.0 6 1 7 0 0 0 1 2 -7
p36
aVJared Jeffries NYK 04/30/2012 NYK @ MIA L 4 0 0 4 0.0 0 0 - 0 0 - 3 0 3 0 0 0 0 0 1
p37
aVBaron Davis NYK 04/30/2012 NYK @ MIA L 27 12 5 8 62.5 2 3 66.7 0 0 - 0 1 1 6 0 0 3 5 -5
p38
aVMike Bibby NYK 04/30/2012 NYK @ MIA L 21 3 1 3 33.3 1 2 50.0 0 0 - 0 3 3 2 0 0 0 2 -5
p39
aVIman Shumpert NYK 04/28/2012 NYK @ MIA L 19 0 0 2 0.0 0 1 0.0 0 0 - 0 1 1 0 1 0 1 2 -28
p40
aVCarmelo Anthony NYK 04/28/2012 NYK @ MIA L 34 11 3 15 20.0 0 2 0.0 5 5 100.0 6 4 10 3 1 0 4 3 -35
p41
aVJerome Jordan NYK 04/28/2012 NYK @ MIA L 4 2 1 2 50.0 0 0 - 0 0 - 2 0 2 0 0 0 0 0 -3
p42
aVSteve Novak NYK 04/28/2012 NYK @ MIA L 24 6 2 2 100.0 2 2 100.0 0 0 - 2 2 4 0 0 0 0 3 -7
p43
aVJosh Harrellson NYK 04/28/2012 NYK @ MIA L 9 4 2 4 50.0 0 1 0.0 0 0 - 0 2 2 0 0 0 1 0 3
p44
aVMike Bibby NYK 04/28/2012 NYK @ MIA L 21 0 0 4 0.0 0 3 0.0 0 0 - 0 4 4 2 0 0 1 1 -8
p45
aVLandry Fields NYK 04/28/2012 NYK @ MIA L 18 8 4 7 57.1 0 0 - 0 0 - 0 2 2 1 0 0 1 1 -6
p46
aVJR Smith NYK 04/28/2012 NYK @ MIA L 33 17 7 17 41.2 3 8 37.5 0 0 - 2 2 4 2 2 0 4 4 -20
p47
aVAmar'e Stoudemire NYK 04/28/2012 NYK @ MIA L 32 9 2 7 28.6 0 0 - 5 6 83.3 1 4 5 1 2 0 2 3 -18
p48
aVTyson Chandler NYK 04/28/2012 NYK @ MIA L 21 0 0 3 0.0 0 0 - 0 0 - 1 2 3 0 2 0 7 4 -19
p49
aVJared Jeffries NYK 04/28/2012 NYK @ MIA L 8 0 0 1 0.0 0 0 - 0 0 - 1 2 3 0 0 0 0 1 -12
p50
aVBaron Davis NYK 04/28/2012 NYK @ MIA L 17 10 4 6 66.7 2 4 50.0 0 0 - 0 1 1 2 0 0 3 4 -12
p51
a.