(lp0
VPLAYER TEAM DATE MATCHUP W/L MIN PTS FGM FGA FG% 3PM 3PA 3P% FTM FTA FT% OREB DREB REB AST STL BLK TOV PF +/-
p1
aVDanny Granger IND 05/24/2012 IND vs. MIA L 38 15 6 14 42.9 1 4 25.0 2 2 100.0 0 4 4 4 0 0 2 5 7
p2
aVGeorge Hill IND 05/24/2012 IND vs. MIA L 36 18 7 13 53.8 1 3 33.3 3 5 60.0 0 2 2 5 2 0 1 3 6
p3
aVLeandro Barbosa IND 05/24/2012 IND vs. MIA L 8 0 0 1 0.0 0 1 0.0 0 0 - 0 1 1 1 0 0 3 1 -12
p4
aVDahntay Jones IND 05/24/2012 IND vs. MIA L 4 3 0 0 - 0 0 - 3 3 100.0 0 0 0 0 0 0 1 2 -10
p5
aVDarren Collison IND 05/24/2012 IND vs. MIA L 17 5 1 3 33.3 1 2 50.0 2 2 100.0 0 1 1 1 0 0 2 0 -25
p6
aVRoy Hibbert IND 05/24/2012 IND vs. MIA L 40 12 5 8 62.5 0 0 - 2 2 100.0 3 5 8 2 0 2 4 3 13
p7
aVDavid West IND 05/24/2012 IND vs. MIA L 41 24 10 16 62.5 0 0 - 4 6 66.7 1 4 5 2 0 0 3 4 -5
p8
aVLou Amundson IND 05/24/2012 IND vs. MIA L 3 2 1 1 100.0 0 0 - 0 0 - 0 1 1 0 0 0 0 0 -7
p9
aVTyler Hansbrough IND 05/24/2012 IND vs. MIA L 9 3 0 4 0.0 0 0 - 3 4 75.0 4 1 5 1 0 0 1 1 -19
p10
aVPaul George IND 05/24/2012 IND vs. MIA L 43 11 4 10 40.0 3 7 42.9 0 0 - 2 8 10 2 1 0 3 3 -8
p11
aVDarren Collison IND 05/22/2012 IND @ MIA L 21 8 2 6 33.3 0 0 - 4 4 100.0 0 0 0 2 4 0 1 1 -12
p12
aVLance Stephenson IND 05/22/2012 IND @ MIA L 6 1 0 4 0.0 0 0 - 1 2 50.0 0 0 0 1 0 0 1 1 -11
p13
aVDavid West IND 05/22/2012 IND @ MIA L 32 10 5 13 38.5 0 0 - 0 0 - 0 4 4 1 0 0 1 3 -19
p14
aVTyler Hansbrough IND 05/22/2012 IND @ MIA L 17 8 2 6 33.3 0 0 - 4 4 100.0 1 2 3 1 0 0 1 1 -5
p15
aVA.J. Price IND 05/22/2012 IND @ MIA L 3 2 1 1 100.0 0 0 - 0 0 - 1 0 1 1 0 0 0 0 -3
p16
aVDanny Granger IND 05/22/2012 IND @ MIA L 20 10 3 6 50.0 3 4 75.0 1 2 50.0 0 1 1 1 1 0 1 2 -6
p17
aVDahntay Jones IND 05/22/2012 IND @ MIA L 24 5 1 8 12.5 1 4 25.0 2 2 100.0 3 0 3 1 0 0 1 1 -20
p18
aVGeorge Hill IND 05/22/2012 IND @ MIA L 28 6 3 9 33.3 0 5 0.0 0 0 - 1 0 1 1 1 0 0 3 -21
p19
aVRoy Hibbert IND 05/22/2012 IND @ MIA L 28 8 3 10 30.0 1 1 100.0 1 2 50.0 4 8 12 1 0 1 1 2 -17
p20
aVPaul George IND 05/22/2012 IND @ MIA L 28 11 3 9 33.3 1 4 25.0 4 5 80.0 1 3 4 3 2 1 2 2 -15
p21
aVLou Amundson IND 05/22/2012 IND @ MIA L 13 6 3 6 50.0 0 0 - 0 2 0.0 1 2 3 0 0 1 0 1 -13
p22
aVJeff Ayres IND 05/22/2012 IND @ MIA L 3 2 1 1 100.0 0 0 - 0 0 - 0 0 0 0 0 0 0 1 -6
p23
aVLeandro Barbosa IND 05/22/2012 IND @ MIA L 18 6 3 10 30.0 0 3 0.0 0 0 - 1 2 3 2 0 0 0 3 -12
p24
aVGeorge Hill IND 05/20/2012 IND vs. MIA L 30 8 2 9 22.2 2 4 50.0 2 2 100.0 0 1 1 4 2 1 2 2 5
p25
aVRoy Hibbert IND 05/20/2012 IND vs. MIA L 32 10 4 9 44.4 0 0 - 2 4 50.0 2 7 9 0 0 3 3 5 0
p26
aVDahntay Jones IND 05/20/2012 IND vs. MIA L 3 0 0 0 - 0 0 - 0 0 - 0 0 0 0 0 0 0 2 -4
p27
aVDanny Granger IND 05/20/2012 IND vs. MIA L 42 20 8 18 44.4 4 9 44.4 0 0 - 1 4 5 3 0 0 1 2 -6
p28
aVTyler Hansbrough IND 05/20/2012 IND vs. MIA L 14 8 2 5 40.0 0 0 - 4 4 100.0 0 1 1 0 0 1 2 2 -5
p29
aVLou Amundson IND 05/20/2012 IND vs. MIA L 16 2 1 2 50.0 0 0 - 0 0 - 0 7 7 1 0 1 2 3 -8
p30
aVDarren Collison IND 05/20/2012 IND vs. MIA L 20 16 6 7 85.7 0 1 0.0 4 6 66.7 1 0 1 1 1 0 2 1 -10
p31
aVDavid West IND 05/20/2012 IND vs. MIA L 28 8 3 8 37.5 0 0 - 2 2 100.0 3 3 6 3 1 0 1 5 -4
p32
aVPaul George IND 05/20/2012 IND vs. MIA L 36 13 4 11 36.4 1 5 20.0 4 4 100.0 1 5 6 5 3 0 1 2 -1
p33
aVLeandro Barbosa IND 05/20/2012 IND vs. MIA L 19 8 3 10 30.0 0 3 0.0 2 2 100.0 0 2 2 0 0 0 1 4 -7
p34
aVA.J. Price IND 05/17/2012 IND vs. MIA W 1 0 0 0 - 0 0 - 0 0 - 0 0 0 0 0 0 0 0 -2
p35
aVLou Amundson IND 05/17/2012 IND vs. MIA W 7 1 0 0 - 0 0 - 1 2 50.0 1 1 2 0 0 0 0 1 -7
p36
aVDanny Granger IND 05/17/2012 IND vs. MIA W 40 17 6 15 40.0 3 6 50.0 2 2 100.0 1 6 7 4 1 0 3 2 17
p37
aVDarren Collison IND 05/17/2012 IND vs. MIA W 14 7 2 7 28.6 0 0 - 3 4 75.0 0 1 1 0 1 0 1 1 -2
p38
aVDavid West IND 05/17/2012 IND vs. MIA W 40 14 5 13 38.5 0 0 - 4 4 100.0 3 6 9 2 0 0 0 2 23
p39
aVPaul George IND 05/17/2012 IND vs. MIA W 33 9 3 6 50.0 1 2 50.0 2 2 100.0 2 3 5 2 1 2 3 1 23
p40
aVLeandro Barbosa IND 05/17/2012 IND vs. MIA W 15 0 0 3 0.0 0 0 - 0 0 - 1 0 1 3 0 0 0 2 -6
p41
aVDahntay Jones IND 05/17/2012 IND vs. MIA W 7 5 1 3 33.3 1 2 50.0 2 2 100.0 1 1 2 1 0 0 0 3 6
p42
aVJeff Ayres IND 05/17/2012 IND vs. MIA W 3 0 0 0 - 0 0 - 0 0 - 0 1 1 0 0 0 0 0 1
p43
aVLance Stephenson IND 05/17/2012 IND vs. MIA W 1 0 0 1 0.0 0 0 - 0 0 - 0 0 0 0 0 0 1 1 -2
p44
aVRoy Hibbert IND 05/17/2012 IND vs. MIA W 33 19 9 16 56.3 0 0 - 1 2 50.0 5 13 18 1 1 5 1 4 22
p45
aVTyler Hansbrough IND 05/17/2012 IND vs. MIA W 14 2 1 4 25.0 0 0 - 0 0 - 2 2 4 2 1 0 1 2 -1
p46
aVGeorge Hill IND 05/17/2012 IND vs. MIA W 33 20 6 8 75.0 3 4 75.0 5 5 100.0 0 2 2 5 1 1 4 1 23
p47
aVRoy Hibbert IND 05/15/2012 IND @ MIA W 33 8 2 6 33.3 0 0 - 4 6 66.7 4 7 11 0 0 3 2 2 12
p48
aVDarren Collison IND 05/15/2012 IND @ MIA W 17 6 2 4 50.0 0 0 - 2 2 100.0 0 1 1 0 0 0 1 1 -8
p49
aVPaul George IND 05/15/2012 IND @ MIA W 33 10 4 11 36.4 2 4 50.0 0 2 0.0 1 10 11 2 3 1 1 4 20
p50
aVLeandro Barbosa IND 05/15/2012 IND @ MIA W 25 8 4 10 40.0 0 2 0.0 0 0 - 2 1 3 1 1 0 2 4 -18
p51
aVDahntay Jones IND 05/15/2012 IND @ MIA W 8 2 1 3 33.3 0 1 0.0 0 0 - 0 1 1 1 0 0 1 1 -6
p52
aVLou Amundson IND 05/15/2012 IND @ MIA W 5 2 1 2 50.0 0 0 - 0 0 - 1 0 1 0 1 0 0 0 -4
p53
aVGeorge Hill IND 05/15/2012 IND @ MIA W 35 15 4 9 44.4 1 3 33.3 6 7 85.7 1 3 4 2 1 0 5 1 8
p54
aVDavid West IND 05/15/2012 IND @ MIA W 41 16 5 13 38.5 0 0 - 6 8 75.0 2 8 10 1 0 2 0 3 9
p55
aVDanny Granger IND 05/15/2012 IND @ MIA W 38 11 5 14 35.7 0 5 0.0 1 2 50.0 4 2 6 3 2 1 4 6 10
p56
aVTyler Hansbrough IND 05/15/2012 IND @ MIA W 7 0 0 2 0.0 0 0 - 0 0 - 0 2 2 0 0 0 1 3 -8
p57
aVRoy Hibbert IND 05/13/2012 IND @ MIA L 29 17 6 12 50.0 0 0 - 5 6 83.3 5 6 11 2 0 1 0 5 -4
p58
aVDanny Granger IND 05/13/2012 IND @ MIA L 39 7 1 10 10.0 1 5 20.0 4 4 100.0 0 4 4 3 0 1 2 4 -8
p59
aVPaul George IND 05/13/2012 IND @ MIA L 26 6 1 5 20.0 1 2 50.0 3 4 75.0 0 2 2 1 3 0 1 6 5
p60
aVDavid West IND 05/13/2012 IND @ MIA L 37 17 6 12 50.0 0 0 - 5 6 83.3 2 10 12 3 1 0 2 3 -6
p61
aVGeorge Hill IND 05/13/2012 IND @ MIA L 25 10 4 10 40.0 2 7 28.6 0 0 - 0 0 0 3 1 0 4 5 -1
p62
aVDahntay Jones IND 05/13/2012 IND @ MIA L 8 2 1 3 33.3 0 2 0.0 0 0 - 0 1 1 0 0 0 0 2 0
p63
aVLeandro Barbosa IND 05/13/2012 IND @ MIA L 23 9 4 10 40.0 0 0 - 1 4 25.0 1 1 2 0 2 0 2 2 -15
p64
aVLou Amundson IND 05/13/2012 IND @ MIA L 13 0 0 2 0.0 0 0 - 0 0 - 0 4 4 0 0 1 1 2 -2
p65
aVDarren Collison IND 05/13/2012 IND @ MIA L 23 10 4 8 50.0 0 1 0.0 2 2 100.0 0 1 1 6 0 0 3 2 -8
p66
aVTyler Hansbrough IND 05/13/2012 IND @ MIA L 17 8 4 5 80.0 0 0 - 0 2 0.0 0 1 1 0 0 0 0 0 -6
p67
aVPaul George IND 05/08/2012 IND vs. ORL W 32 8 3 7 42.9 2 4 50.0 0 1 0.0 1 5 6 2 2 0 4 3 9
p68
aVGeorge Hill IND 05/08/2012 IND vs. ORL W 29 15 5 11 45.5 2 2 100.0 3 4 75.0 2 4 6 1 0 0 0 2 16
p69
aVDavid West IND 05/08/2012 IND vs. ORL W 39 12 6 13 46.2 0 0 - 0 0 - 1 7 8 0 2 2 2 1 23
p70
aVDanny Granger IND 05/08/2012 IND vs. ORL W 43 25 8 20 40.0 4 9 44.4 5 5 100.0 0 4 4 3 0 0 2 3 23
p71
aVA.J. Price IND 05/08/2012 IND vs. ORL W 0 0 0 0 - 0 0 - 0 0 - 0 0 0 0 0 0 0 0 0
p72
aVTyler Hansbrough IND 05/08/2012 IND vs. ORL W 15 2 1 3 33.3 0 0 - 0 0 - 1 2 3 0 0 1 1 3 -3
p73
aVLeandro Barbosa IND 05/08/2012 IND vs. ORL W 20 7 3 4 75.0 0 1 0.0 1 1 100.0 0 6 6 3 0 0 1 0 4
p74
aVLance Stephenson IND 05/08/2012 IND vs. ORL W 0 0 0 0 - 0 0 - 0 0 - 0 0 0 0 0 0 0 0 0
p75
aVDarren Collison IND 05/08/2012 IND vs. ORL W 24 19 9 10 90.0 1 1 100.0 0 0 - 0 2 2 6 3 0 1 2 11
p76
aVLou Amundson IND 05/08/2012 IND vs. ORL W 6 6 3 4 75.0 0 0 - 0 0 - 1 0 1 1 1 0 0 0 -4
p77
aVRoy Hibbert IND 05/08/2012 IND vs. ORL W 31 11 5 10 50.0 0 0 - 1 3 33.3 4 3 7 0 0 2 2 2 11
p78
aVJeff Ayres IND 05/08/2012 IND vs. ORL W 0 0 0 0 - 0 0 - 0 0 - 0 0 0 0 0 0 0 0 0
p79
aVLeandro Barbosa IND 05/05/2012 IND @ ORL W 29 7 3 4 75.0 1 2 50.0 0 1 0.0 0 1 1 2 0 0 1 1 15
p80
aVDarren Collison IND 05/05/2012 IND @ ORL W 18 11 3 6 50.0 2 3 66.7 3 3 100.0 0 1 1 9 2 0 0 0 13
p81
aVPaul George IND 05/05/2012 IND @ ORL W 35 2 1 7 14.3 0 4 0.0 0 0 - 3 6 9 2 0 0 3 4 -4
p82
aVGeorge Hill IND 05/05/2012 IND @ ORL W 36 12 3 10 30.0 1 4 25.0 5 6 83.3 1 2 3 5 2 0 3 3 -13
p83
aVDavid West IND 05/05/2012 IND @ ORL W 47 26 11 23 47.8 0 0 - 4 5 80.0 1 11 12 1 0 0 5 2 0
p84
aVLou Amundson IND 05/05/2012 IND @ ORL W 10 4 2 2 100.0 0 0 - 0 0 - 0 0 0 0 0 0 0 5 13
p85
aVRoy Hibbert IND 05/05/2012 IND @ ORL W 30 14 5 7 71.4 0 0 - 4 4 100.0 4 7 11 2 0 3 1 6 -16
p86
aVDanny Granger IND 05/05/2012 IND @ ORL W 42 21 9 20 45.0 2 8 25.0 1 1 100.0 3 4 7 1 0 1 2 3 -11
p87
aVTyler Hansbrough IND 05/05/2012 IND @ ORL W 17 4 2 5 40.0 0 0 - 0 0 - 1 4 5 1 0 0 1 4 13
p88
aVRoy Hibbert IND 05/02/2012 IND @ ORL W 28 18 8 10 80.0 0 0 - 2 3 66.7 5 5 10 1 1 3 3 3 23
p89
aVLeandro Barbosa IND 05/02/2012 IND @ ORL W 23 5 2 7 28.6 1 2 50.0 0 0 - 0 2 2 1 1 0 0 2 7
p90
aVLou Amundson IND 05/02/2012 IND @ ORL W 5 0 0 0 - 0 0 - 0 0 - 0 0 0 0 0 2 1 2 -2
p91
aVDahntay Jones IND 05/02/2012 IND @ ORL W 5 0 0 1 0.0 0 0 - 0 0 - 0 0 0 0 1 0 0 0 -1
p92
aVTyler Hansbrough IND 05/02/2012 IND @ ORL W 17 2 1 2 50.0 0 0 - 0 3 0.0 1 3 4 0 0 0 0 1 8
p93
aVA.J. Price IND 05/02/2012 IND @ ORL W 3 0 0 1 0.0 0 0 - 0 0 - 0 1 1 0 0 0 0 0 -4
p94
aVDarren Collison IND 05/02/2012 IND @ ORL W 17 10 5 10 50.0 0 2 0.0 0 0 - 1 1 2 2 1 0 0 1 0
p95
aVGeorge Hill IND 05/02/2012 IND @ ORL W 31 15 5 9 55.6 1 2 50.0 4 4 100.0 2 0 2 2 1 0 2 0 26
p96
aVJeff Ayres IND 05/02/2012 IND @ ORL W 3 0 0 2 0.0 0 0 - 0 0 - 0 1 1 0 0 0 0 1 -4
p97
aVDanny Granger IND 05/02/2012 IND @ ORL W 38 26 9 16 56.3 5 9 55.6 3 3 100.0 0 9 9 3 2 0 5 1 23
p98
aVDavid West IND 05/02/2012 IND @ ORL W 35 4 2 9 22.2 0 0 - 0 0 - 3 5 8 3 1 0 1 4 23
p99
aVLance Stephenson IND 05/02/2012 IND @ ORL W 5 5 2 4 50.0 1 2 50.0 0 0 - 0 0 0 0 0 0 0 0 -1
p100
aVPaul George IND 05/02/2012 IND @ ORL W 30 12 3 8 37.5 0 3 0.0 6 7 85.7 1 6 7 4 1 0 0 2 17
p101
aVDanny Granger IND 04/30/2012 IND vs. ORL W 41 18 7 21 33.3 1 10 10.0 3 3 100.0 3 4 7 0 0 1 2 2 19
p102
aVDavid West IND 04/30/2012 IND vs. ORL W 42 18 5 14 35.7 0 0 - 8 10 80.0 3 8 11 4 2 2 1 3 27
p103
aVGeorge Hill IND 04/30/2012 IND vs. ORL W 37 18 6 10 60.0 1 3 33.3 5 6 83.3 2 2 4 1 1 0 1 1 28
p104
aVTyler Hansbrough IND 04/30/2012 IND vs. ORL W 18 4 1 5 20.0 0 0 - 2 2 100.0 0 0 0 0 3 0 0 2 1
p105
aVLeandro Barbosa IND 04/30/2012 IND vs. ORL W 24 10 4 10 40.0 0 5 0.0 2 2 100.0 0 3 3 0 1 1 3 2 -6
p106
aVDarren Collison IND 04/30/2012 IND vs. ORL W 12 2 1 2 50.0 0 0 - 0 0 - 0 0 0 1 0 0 0 0 -10
p107
aVPaul George IND 04/30/2012 IND vs. ORL W 36 17 7 10 70.0 0 2 0.0 3 3 100.0 2 6 8 2 2 0 2 2 12
p108
aVLou Amundson IND 04/30/2012 IND vs. ORL W 7 2 0 0 - 0 0 - 2 2 100.0 0 0 0 0 0 0 0 1 -7
p109
aVRoy Hibbert IND 04/30/2012 IND vs. ORL W 23 4 2 5 40.0 0 0 - 0 0 - 5 8 13 1 0 2 2 4 11
p110
aVDavid West IND 04/28/2012 IND vs. ORL L 34 19 8 14 57.1 0 0 - 3 3 100.0 2 7 9 2 1 0 1 3 5
p111
aVPaul George IND 04/28/2012 IND vs. ORL L 37 8 4 11 36.4 0 4 0.0 0 0 - 1 4 5 1 0 0 1 3 3
p112
aVTyler Hansbrough IND 04/28/2012 IND vs. ORL L 19 7 3 9 33.3 0 0 - 1 2 50.0 2 5 7 1 1 1 0 3 -2
p113
aVRoy Hibbert IND 04/28/2012 IND vs. ORL L 34 8 3 11 27.3 0 0 - 2 4 50.0 4 9 13 2 2 9 3 2 -4
p114
aVLeandro Barbosa IND 04/28/2012 IND vs. ORL L 20 3 1 4 25.0 1 1 100.0 0 2 0.0 0 0 0 1 0 0 0 2 -2
p115
aVDarren Collison IND 04/28/2012 IND vs. ORL L 22 2 1 7 14.3 0 1 0.0 0 0 - 1 3 4 5 2 0 0 2 -6
p116
aVDanny Granger IND 04/28/2012 IND vs. ORL L 39 17 7 20 35.0 2 4 50.0 1 4 25.0 3 5 8 2 0 0 5 1 -10
p117
aVLou Amundson IND 04/28/2012 IND vs. ORL L 9 2 1 4 25.0 0 0 - 0 0 - 2 2 4 0 0 0 0 1 -6
p118
aVGeorge Hill IND 04/28/2012 IND vs. ORL L 26 11 2 7 28.6 1 3 33.3 6 7 85.7 0 0 0 3 1 1 0 0 2
p119
a.