(lp0
VPLAYER TEAM DATE MATCHUP W/L MIN PTS FGM FGA FG% 3PM 3PA 3P% FTM FTA FT% OREB DREB REB AST STL BLK TOV PF +/-
p1
aVTaj Gibson CHI 05/10/2012 CHI @ PHI L 29 14 4 10 40.0 0 0 - 6 7 85.7 2 3 5 0 0 2 1 2 -3
p2
aVJimmy Butler CHI 05/10/2012 CHI @ PHI L 0 0 0 0 - 0 0 - 0 0 - 0 0 0 0 0 0 0 0 0
p3
aVOmer Asik CHI 05/10/2012 CHI @ PHI L 39 10 3 6 50.0 0 0 - 4 7 57.1 3 6 9 1 0 2 2 4 8
p4
aVRichard Hamilton CHI 05/10/2012 CHI @ PHI L 37 19 9 20 45.0 0 2 0.0 1 1 100.0 5 3 8 1 0 0 3 2 9
p5
aVJohn Lucas III CHI 05/10/2012 CHI @ PHI L 9 7 3 5 60.0 1 2 50.0 0 0 - 0 0 0 0 0 0 0 1 3
p6
aVCarlos Boozer CHI 05/10/2012 CHI @ PHI L 27 3 1 11 9.1 0 0 - 1 1 100.0 1 12 13 2 0 0 3 3 -7
p7
aVCJ Watson CHI 05/10/2012 CHI @ PHI L 39 6 2 11 18.2 1 4 25.0 1 2 50.0 0 2 2 10 1 0 0 4 -4
p8
aVLuol Deng CHI 05/10/2012 CHI @ PHI L 42 19 8 16 50.0 0 5 0.0 3 3 100.0 3 14 17 3 2 2 2 1 1
p9
aVRonnie Brewer CHI 05/10/2012 CHI @ PHI L 11 0 0 1 0.0 0 0 - 0 0 - 1 1 2 2 1 0 0 2 -12
p10
aVKyle Korver CHI 05/10/2012 CHI @ PHI L 5 0 0 0 - 0 0 - 0 0 - 0 0 0 0 0 0 1 0 0
p11
aVTaj Gibson CHI 05/08/2012 CHI vs. PHI W 25 8 3 7 42.9 0 0 - 2 2 100.0 3 4 7 1 0 4 1 5 7
p12
aVOmer Asik CHI 05/08/2012 CHI vs. PHI W 28 4 2 3 66.7 0 0 - 0 2 0.0 1 5 6 2 1 3 1 1 5
p13
aVCarlos Boozer CHI 05/08/2012 CHI vs. PHI W 42 19 9 20 45.0 0 0 - 1 2 50.0 2 11 13 6 0 1 5 2 2
p14
aVRonnie Brewer CHI 05/08/2012 CHI vs. PHI W 29 6 3 7 42.9 0 0 - 0 1 0.0 1 7 8 3 3 1 2 1 12
p15
aVLuol Deng CHI 05/08/2012 CHI vs. PHI W 43 24 10 19 52.6 4 5 80.0 0 0 - 1 7 8 1 2 2 2 2 7
p16
aVJohn Lucas III CHI 05/08/2012 CHI vs. PHI W 17 5 2 6 33.3 1 3 33.3 0 0 - 0 2 2 0 0 0 1 2 7
p17
aVRichard Hamilton CHI 05/08/2012 CHI vs. PHI W 18 6 3 9 33.3 0 0 - 0 0 - 0 1 1 0 0 0 0 2 -6
p18
aVKyle Korver CHI 05/08/2012 CHI vs. PHI W 6 0 0 1 0.0 0 1 0.0 0 0 - 0 2 2 2 0 0 0 1 3
p19
aVCJ Watson CHI 05/08/2012 CHI vs. PHI W 32 5 2 10 20.0 0 1 0.0 1 4 25.0 0 2 2 7 2 0 3 5 3
p20
aVOmer Asik CHI 05/06/2012 CHI @ PHI L 22 1 0 1 0.0 0 0 - 1 2 50.0 2 4 6 2 0 3 1 3 -10
p21
aVKyle Korver CHI 05/06/2012 CHI @ PHI L 22 5 2 4 50.0 1 2 50.0 0 0 - 0 2 2 3 1 0 0 3 4
p22
aVJohn Lucas III CHI 05/06/2012 CHI @ PHI L 14 4 2 5 40.0 0 1 0.0 0 0 - 1 0 1 2 0 0 2 2 5
p23
aVTaj Gibson CHI 05/06/2012 CHI @ PHI L 32 14 6 11 54.5 0 0 - 2 3 66.7 2 10 12 2 0 4 1 3 -1
p24
aVCarlos Boozer CHI 05/06/2012 CHI @ PHI L 41 23 11 24 45.8 0 0 - 1 1 100.0 3 8 11 4 2 0 5 3 -2
p25
aVLuol Deng CHI 05/06/2012 CHI @ PHI L 33 11 5 11 45.5 1 3 33.3 0 1 0.0 2 3 5 0 0 0 1 0 -8
p26
aVRichard Hamilton CHI 05/06/2012 CHI @ PHI L 24 7 3 9 33.3 0 0 - 1 1 100.0 0 1 1 1 1 0 2 4 -9
p27
aVRonnie Brewer CHI 05/06/2012 CHI @ PHI L 17 0 0 2 0.0 0 0 - 0 0 - 0 4 4 3 0 0 1 0 1
p28
aVCJ Watson CHI 05/06/2012 CHI @ PHI L 34 17 5 18 27.8 1 5 20.0 6 6 100.0 1 5 6 4 1 0 1 5 -12
p29
aVJimmy Butler CHI 05/06/2012 CHI @ PHI L 0 0 0 0 - 0 0 - 0 0 - 0 0 0 0 0 0 0 0 -3
p30
aVLuol Deng CHI 05/04/2012 CHI @ PHI L 37 5 2 7 28.6 1 3 33.3 0 1 0.0 1 8 9 2 1 3 2 4 0
p31
aVCJ Watson CHI 05/04/2012 CHI @ PHI L 20 0 0 4 0.0 0 1 0.0 0 0 - 0 1 1 4 0 0 1 1 8
p32
aVKyle Korver CHI 05/04/2012 CHI @ PHI L 13 0 0 5 0.0 0 3 0.0 0 0 - 1 1 2 2 1 0 1 2 -5
p33
aVRichard Hamilton CHI 05/04/2012 CHI @ PHI L 42 17 4 15 26.7 1 3 33.3 8 12 66.7 2 4 6 7 0 0 2 3 -3
p34
aVJimmy Butler CHI 05/04/2012 CHI @ PHI L 3 0 0 0 - 0 0 - 0 0 - 0 0 0 0 0 0 0 1 -4
p35
aVTaj Gibson CHI 05/04/2012 CHI @ PHI L 14 6 3 6 50.0 0 0 - 0 2 0.0 4 3 7 1 1 0 0 2 8
p36
aVJohn Lucas III CHI 05/04/2012 CHI @ PHI L 28 12 4 12 33.3 2 4 50.0 2 2 100.0 1 2 3 3 0 0 2 1 -13
p37
aVJoakim Noah CHI 05/04/2012 CHI @ PHI L 26 12 4 7 57.1 0 0 - 4 4 100.0 2 5 7 1 0 2 0 2 -3
p38
aVCarlos Boozer CHI 05/04/2012 CHI @ PHI L 34 18 9 17 52.9 0 0 - 0 0 - 3 7 10 1 2 0 5 5 -13
p39
aVOmer Asik CHI 05/04/2012 CHI @ PHI L 21 4 2 2 100.0 0 0 - 0 2 0.0 1 3 4 1 0 1 2 5 0
p40
aVRichard Hamilton CHI 05/01/2012 CHI vs. PHI L 22 10 4 10 40.0 0 0 - 2 2 100.0 0 0 0 5 0 0 0 1 -16
p41
aVCJ Watson CHI 05/01/2012 CHI vs. PHI L 29 12 4 11 36.4 2 4 50.0 2 2 100.0 0 2 2 3 0 0 1 1 -13
p42
aVLuol Deng CHI 05/01/2012 CHI vs. PHI L 33 8 3 12 25.0 1 3 33.3 1 2 50.0 1 4 5 3 0 2 1 1 -15
p43
aVKyle Korver CHI 05/01/2012 CHI vs. PHI L 24 7 2 4 50.0 2 4 50.0 1 2 50.0 0 0 0 1 1 2 1 0 3
p44
aVTaj Gibson CHI 05/01/2012 CHI vs. PHI L 19 8 3 9 33.3 0 0 - 2 4 50.0 3 2 5 0 0 0 0 3 -15
p45
aVCarlos Boozer CHI 05/01/2012 CHI vs. PHI L 29 9 4 10 40.0 0 0 - 1 2 50.0 1 4 5 1 1 0 2 3 -2
p46
aVRonnie Brewer CHI 05/01/2012 CHI vs. PHI L 13 2 1 5 20.0 0 0 - 0 2 0.0 2 2 4 0 0 0 2 0 -13
p47
aVJohn Lucas III CHI 05/01/2012 CHI vs. PHI L 26 15 7 12 58.3 1 3 33.3 0 0 - 0 1 1 4 0 0 1 1 -1
p48
aVJoakim Noah CHI 05/01/2012 CHI vs. PHI L 38 21 10 11 90.9 0 0 - 1 2 50.0 3 5 8 5 1 0 0 1 -6
p49
aVOmer Asik CHI 05/01/2012 CHI vs. PHI L 8 0 0 0 - 0 0 - 0 0 - 0 2 2 1 0 0 0 0 -7
p50
aVDerrick Rose CHI 04/28/2012 CHI vs. PHI W 37 23 9 23 39.1 3 6 50.0 2 2 100.0 3 6 9 9 1 1 5 1 6
p51
aVCarlos Boozer CHI 04/28/2012 CHI vs. PHI W 27 9 4 8 50.0 0 0 - 1 1 100.0 0 7 7 4 0 1 3 4 12
p52
aVTaj Gibson CHI 04/28/2012 CHI vs. PHI W 19 7 2 3 66.7 0 0 - 3 4 75.0 1 2 3 0 3 0 0 4 1
p53
aVRichard Hamilton CHI 04/28/2012 CHI vs. PHI W 26 19 6 7 85.7 1 1 100.0 6 6 100.0 1 2 3 4 0 0 1 3 15
p54
aVJoakim Noah CHI 04/28/2012 CHI vs. PHI W 35 12 5 8 62.5 0 0 - 2 5 40.0 4 9 13 3 1 2 1 2 6
p55
aVLuol Deng CHI 04/28/2012 CHI vs. PHI W 39 17 8 14 57.1 1 3 33.3 0 0 - 0 6 6 0 0 0 2 2 3
p56
aVKyle Korver CHI 04/28/2012 CHI vs. PHI W 23 11 5 8 62.5 1 3 33.3 0 0 - 0 4 4 1 0 1 2 4 8
p57
aVCJ Watson CHI 04/28/2012 CHI vs. PHI W 11 4 1 4 25.0 0 1 0.0 2 2 100.0 0 0 0 5 1 0 1 0 6
p58
aVOmer Asik CHI 04/28/2012 CHI vs. PHI W 10 1 0 2 0.0 0 0 - 1 4 25.0 1 0 1 1 0 1 2 1 2
p59
aVRonnie Brewer CHI 04/28/2012 CHI vs. PHI W 13 0 0 1 0.0 0 0 - 0 0 - 0 1 1 1 0 0 1 2 1
p60
a.