(lp0
VPLAYER TEAM DATE MATCHUP W/L MIN PTS FGM FGA FG% 3PM 3PA 3P% FTM FTA FT% OREB DREB REB AST STL BLK TOV PF +/-
p1
aVJoe Johnson ATL 05/10/2012 ATL @ BOS L 44 17 7 17 41.2 2 6 33.3 1 1 100.0 1 0 1 2 1 0 2 1 -6
p2
aVTracy McGrady ATL 05/10/2012 ATL @ BOS L 14 4 2 6 33.3 0 1 0.0 0 0 - 0 2 2 2 0 1 2 0 3
p3
aVAl Horford ATL 05/10/2012 ATL @ BOS L 46 15 6 9 66.7 0 0 - 3 4 75.0 0 9 9 4 1 1 7 4 2
p4
aVMarvin Williams ATL 05/10/2012 ATL @ BOS L 36 16 6 13 46.2 4 5 80.0 0 0 - 2 6 8 3 1 1 0 4 2
p5
aVJeff Teague ATL 05/10/2012 ATL @ BOS L 32 5 2 9 22.2 1 2 50.0 0 0 - 1 3 4 6 1 0 0 4 -3
p6
aVErick Dampier ATL 05/10/2012 ATL @ BOS L 12 0 0 1 0.0 0 0 - 0 0 - 2 1 3 0 0 0 1 1 1
p7
aVJannero Pargo ATL 05/10/2012 ATL @ BOS L 0 0 0 0 - 0 0 - 0 0 - 0 0 0 0 0 0 0 0 0
p8
aVJosh Smith ATL 05/10/2012 ATL @ BOS L 37 18 7 18 38.9 0 0 - 4 4 100.0 1 8 9 4 2 1 1 4 -9
p9
aVKirk Hinrich ATL 05/10/2012 ATL @ BOS L 17 5 2 5 40.0 0 1 0.0 1 1 100.0 0 0 0 1 0 0 0 2 -5
p10
aVIvan Johnson ATL 05/08/2012 ATL vs. BOS W 0 0 0 0 - 0 0 - 0 0 - 0 0 0 0 0 0 0 0 -3
p11
aVMarvin Williams ATL 05/08/2012 ATL vs. BOS W 35 15 5 9 55.6 3 6 50.0 2 2 100.0 1 3 4 1 1 0 2 2 14
p12
aVJeff Teague ATL 05/08/2012 ATL vs. BOS W 43 16 5 11 45.5 2 3 66.7 4 4 100.0 1 1 2 5 0 2 3 1 5
p13
aVWillie Green ATL 05/08/2012 ATL vs. BOS W 7 0 0 0 - 0 0 - 0 0 - 0 1 1 0 0 0 0 2 -11
p14
aVErick Dampier ATL 05/08/2012 ATL vs. BOS W 8 2 1 1 100.0 0 0 - 0 0 - 1 1 2 0 0 0 1 2 -5
p15
aVTracy McGrady ATL 05/08/2012 ATL vs. BOS W 7 0 0 0 - 0 0 - 0 0 - 0 0 0 1 0 0 0 0 1
p16
aVJosh Smith ATL 05/08/2012 ATL vs. BOS W 46 13 6 16 37.5 0 1 0.0 1 2 50.0 4 12 16 6 0 1 4 4 0
p17
aVKirk Hinrich ATL 05/08/2012 ATL vs. BOS W 7 7 3 4 75.0 1 1 100.0 0 0 - 1 1 2 0 0 0 0 1 -5
p18
aVJason Collins ATL 05/08/2012 ATL vs. BOS W 0 0 0 0 - 0 0 - 0 0 - 0 0 0 0 0 0 0 0 -3
p19
aVJoe Johnson ATL 05/08/2012 ATL vs. BOS W 45 15 6 17 35.3 1 5 20.0 2 2 100.0 1 2 3 4 2 0 4 2 2
p20
aVAl Horford ATL 05/08/2012 ATL vs. BOS W 41 19 8 15 53.3 0 0 - 3 4 75.0 4 7 11 3 3 3 4 5 10
p21
aVTracy McGrady ATL 05/06/2012 ATL @ BOS L 9 2 1 3 33.3 0 0 - 0 0 - 1 0 1 0 0 0 1 0 -13
p22
aVJannero Pargo ATL 05/06/2012 ATL @ BOS L 21 11 4 11 36.4 3 8 37.5 0 0 - 0 3 3 3 1 0 1 2 -6
p23
aVAl Horford ATL 05/06/2012 ATL @ BOS L 20 12 6 10 60.0 0 0 - 0 0 - 1 4 5 1 0 0 1 2 -10
p24
aVJason Collins ATL 05/06/2012 ATL @ BOS L 12 0 0 0 - 0 0 - 0 0 - 0 1 1 0 0 0 3 1 -17
p25
aVErick Dampier ATL 05/06/2012 ATL @ BOS L 12 8 3 6 50.0 0 0 - 2 3 66.7 2 1 3 0 0 0 0 0 5
p26
aVJosh Smith ATL 05/06/2012 ATL @ BOS L 32 15 5 13 38.5 0 2 0.0 5 6 83.3 2 11 13 5 1 0 6 1 -20
p27
aVKirk Hinrich ATL 05/06/2012 ATL @ BOS L 22 2 1 3 33.3 0 2 0.0 0 0 - 1 1 2 1 1 0 1 2 -18
p28
aVIvan Johnson ATL 05/06/2012 ATL @ BOS L 6 1 0 1 0.0 0 0 - 1 2 50.0 1 3 4 0 0 0 0 0 7
p29
aVVladimir Radmanovic ATL 05/06/2012 ATL @ BOS L 12 0 0 3 0.0 0 2 0.0 0 0 - 0 1 1 1 0 0 0 0 5
p30
aVMarvin Williams ATL 05/06/2012 ATL @ BOS L 18 8 2 6 33.3 1 2 50.0 3 3 100.0 0 3 3 0 0 0 0 0 -5
p31
aVJoe Johnson ATL 05/06/2012 ATL @ BOS L 31 9 4 8 50.0 0 1 0.0 1 2 50.0 0 1 1 3 0 0 1 2 -21
p32
aVJeff Teague ATL 05/06/2012 ATL @ BOS L 27 7 3 9 33.3 0 3 0.0 1 1 100.0 0 1 1 3 0 0 2 4 -16
p33
aVWillie Green ATL 05/06/2012 ATL @ BOS L 17 4 2 3 66.7 0 0 - 0 0 - 0 2 2 1 0 0 1 1 -1
p34
aVWillie Green ATL 05/04/2012 ATL @ BOS L 15 5 2 5 40.0 1 2 50.0 0 0 - 1 0 1 1 0 0 0 0 3
p35
aVIvan Johnson ATL 05/04/2012 ATL @ BOS L 12 2 1 4 25.0 0 0 - 0 0 - 2 1 3 0 1 0 1 1 0
p36
aVJannero Pargo ATL 05/04/2012 ATL @ BOS L 11 0 0 4 0.0 0 1 0.0 0 0 - 0 1 1 2 1 0 2 1 -11
p37
aVTracy McGrady ATL 05/04/2012 ATL @ BOS L 41 12 5 14 35.7 0 3 0.0 2 2 100.0 3 6 9 2 0 0 4 2 -2
p38
aVErick Dampier ATL 05/04/2012 ATL @ BOS L 22 6 3 5 60.0 0 0 - 0 0 - 2 4 6 0 0 1 1 3 -2
p39
aVKirk Hinrich ATL 05/04/2012 ATL @ BOS L 26 0 0 3 0.0 0 3 0.0 0 0 - 0 2 2 1 2 0 0 1 0
p40
aVJason Collins ATL 05/04/2012 ATL @ BOS L 20 4 2 4 50.0 0 0 - 0 0 - 1 2 3 0 0 0 4 4 -2
p41
aVMarvin Williams ATL 05/04/2012 ATL @ BOS L 20 3 1 6 16.7 0 1 0.0 1 2 50.0 0 11 11 1 1 0 1 1 -10
p42
aVJoe Johnson ATL 05/04/2012 ATL @ BOS L 46 29 11 28 39.3 3 7 42.9 4 5 80.0 1 7 8 2 2 1 2 2 -5
p43
aVVladimir Radmanovic ATL 05/04/2012 ATL @ BOS L 3 0 0 1 0.0 0 1 0.0 0 0 - 0 0 0 0 0 0 0 3 3
p44
aVJeff Teague ATL 05/04/2012 ATL @ BOS L 47 23 9 16 56.3 0 2 0.0 5 6 83.3 1 3 4 6 1 2 2 3 -4
p45
aVMarvin Williams ATL 05/01/2012 ATL vs. BOS L 21 3 1 6 16.7 0 2 0.0 1 2 50.0 2 4 6 0 0 1 0 0 -13
p46
aVJannero Pargo ATL 05/01/2012 ATL vs. BOS L 4 0 0 2 0.0 0 1 0.0 0 0 - 1 0 1 0 0 0 0 0 -3
p47
aVJason Collins ATL 05/01/2012 ATL vs. BOS L 22 2 1 2 50.0 0 0 - 0 0 - 1 2 3 0 1 0 2 6 3
p48
aVJoe Johnson ATL 05/01/2012 ATL vs. BOS L 38 22 7 17 41.2 3 8 37.5 5 6 83.3 2 2 4 5 3 0 3 4 -3
p49
aVKirk Hinrich ATL 05/01/2012 ATL vs. BOS L 37 8 3 7 42.9 1 3 33.3 1 1 100.0 2 0 2 1 1 0 0 3 -1
p50
aVTracy McGrady ATL 05/01/2012 ATL vs. BOS L 6 3 0 0 - 0 0 - 3 4 75.0 0 0 0 0 0 1 1 1 -6
p51
aVJeff Teague ATL 05/01/2012 ATL vs. BOS L 42 18 6 18 33.3 2 5 40.0 4 4 100.0 0 5 5 2 2 1 2 4 -1
p52
aVJosh Smith ATL 05/01/2012 ATL vs. BOS L 37 16 8 21 38.1 0 0 - 0 0 - 1 11 12 5 0 2 1 4 4
p53
aVIvan Johnson ATL 05/01/2012 ATL vs. BOS L 20 6 2 7 28.6 0 1 0.0 2 3 66.7 1 4 5 0 0 0 2 2 -9
p54
aVWillie Green ATL 05/01/2012 ATL vs. BOS L 14 2 1 3 33.3 0 2 0.0 0 0 - 0 2 2 1 0 0 0 2 -6
p55
aVJason Collins ATL 04/29/2012 ATL vs. BOS W 32 6 3 5 60.0 0 0 - 0 0 - 2 3 5 0 0 0 1 5 15
p56
aVTracy McGrady ATL 04/29/2012 ATL vs. BOS W 14 4 2 3 66.7 0 0 - 0 0 - 2 3 5 1 0 0 2 1 0
p57
aVJannero Pargo ATL 04/29/2012 ATL vs. BOS W 10 5 2 4 50.0 1 2 50.0 0 0 - 0 0 0 1 0 0 0 2 -6
p58
aVJeff Teague ATL 04/29/2012 ATL vs. BOS W 33 15 5 10 50.0 2 2 100.0 3 4 75.0 1 5 6 3 1 0 1 2 12
p59
aVWillie Green ATL 04/29/2012 ATL vs. BOS W 10 2 1 2 50.0 0 0 - 0 0 - 0 2 2 0 0 0 1 1 -15
p60
aVMarvin Williams ATL 04/29/2012 ATL vs. BOS W 14 2 1 5 20.0 0 0 - 0 0 - 0 1 1 0 0 0 0 2 -6
p61
aVJoe Johnson ATL 04/29/2012 ATL vs. BOS W 38 11 3 15 20.0 0 9 0.0 5 8 62.5 1 3 4 5 0 0 4 0 24
p62
aVKirk Hinrich ATL 04/29/2012 ATL vs. BOS W 32 12 4 8 50.0 4 6 66.7 0 0 - 0 4 4 2 0 0 1 0 12
p63
aVIvan Johnson ATL 04/29/2012 ATL vs. BOS W 15 4 2 4 50.0 0 0 - 0 0 - 3 2 5 0 2 0 0 4 -8
p64
aVJosh Smith ATL 04/29/2012 ATL vs. BOS W 43 22 8 20 40.0 0 1 0.0 6 9 66.7 2 16 18 4 0 1 3 1 17
p65
a.