(lp0
VPLAYER TEAM DATE MATCHUP W/L MIN PTS FGM FGA FG% 3PM 3PA 3P% FTM FTA FT% OREB DREB REB AST STL BLK TOV PF +/-
p1
aVDavid West IND 06/03/2013 IND @ MIA L 37 14 6 15 40.0 0 0 - 2 3 66.7 3 3 6 1 1 2 6 4 -24
p2
aVJeff Ayres IND 06/03/2013 IND @ MIA L 1 2 1 2 50.0 0 0 - 0 0 - 0 0 0 0 0 0 0 0 -2
p3
aVIan Mahinmi IND 06/03/2013 IND @ MIA L 9 0 0 0 - 0 0 - 0 2 0.0 1 0 1 0 0 1 2 2 -14
p4
aVGerald Green IND 06/03/2013 IND @ MIA L 11 2 1 5 20.0 0 4 0.0 0 0 - 0 1 1 0 0 0 1 4 2
p5
aVTyler Hansbrough IND 06/03/2013 IND @ MIA L 11 6 2 2 100.0 0 0 - 2 2 100.0 1 1 2 0 0 0 1 2 1
p6
aVBen Hansbrough IND 06/03/2013 IND @ MIA L 4 0 0 1 0.0 0 0 - 0 0 - 0 1 1 0 0 0 0 1 1
p7
aVLance Stephenson IND 06/03/2013 IND @ MIA L 39 10 4 8 50.0 2 4 50.0 0 0 - 1 5 6 5 2 0 2 1 -19
p8
aVRoy Hibbert IND 06/03/2013 IND @ MIA L 38 18 7 11 63.6 0 0 - 4 5 80.0 2 6 8 1 0 0 3 5 -7
p9
aVSam Young IND 06/03/2013 IND @ MIA L 5 0 0 1 0.0 0 1 0.0 0 0 - 0 1 1 1 0 0 1 0 -11
p10
aVD.J. Augustin IND 06/03/2013 IND @ MIA L 9 2 0 0 - 0 0 - 2 2 100.0 0 0 0 0 0 0 0 0 -15
p11
aVPaul George IND 06/03/2013 IND @ MIA L 34 7 2 9 22.2 1 4 25.0 2 4 50.0 0 7 7 4 0 0 3 6 -14
p12
aVOrlando Johnson IND 06/03/2013 IND @ MIA L 4 2 1 1 100.0 0 0 - 0 0 - 0 0 0 1 0 0 0 0 1
p13
aVGeorge Hill IND 06/03/2013 IND @ MIA L 38 13 4 14 28.6 3 7 42.9 2 2 100.0 0 4 4 1 0 0 2 3 -14
p14
aVPaul George IND 06/01/2013 IND vs. MIA W 43 28 11 19 57.9 3 5 60.0 3 4 75.0 0 8 8 5 3 0 6 4 12
p15
aVDavid West IND 06/01/2013 IND vs. MIA W 36 11 5 14 35.7 0 0 - 1 2 50.0 5 9 14 4 1 2 2 1 18
p16
aVRoy Hibbert IND 06/01/2013 IND vs. MIA W 42 24 11 20 55.0 0 0 - 2 4 50.0 5 6 11 0 0 1 2 6 12
p17
aVD.J. Augustin IND 06/01/2013 IND vs. MIA W 10 2 1 1 100.0 0 0 - 0 0 - 0 0 0 0 0 0 0 0 -8
p18
aVLance Stephenson IND 06/01/2013 IND vs. MIA W 40 4 1 4 25.0 0 1 0.0 2 2 100.0 1 11 12 4 1 0 4 4 18
p19
aVOrlando Johnson IND 06/01/2013 IND vs. MIA W 1 0 0 0 - 0 0 - 0 0 - 0 0 0 0 0 0 0 0 1
p20
aVSam Young IND 06/01/2013 IND vs. MIA W 7 3 1 2 50.0 1 1 100.0 0 0 - 0 1 1 0 0 0 0 0 3
p21
aVGeorge Hill IND 06/01/2013 IND vs. MIA W 43 16 6 12 50.0 2 4 50.0 2 2 100.0 1 1 2 6 0 0 2 3 16
p22
aVIan Mahinmi IND 06/01/2013 IND vs. MIA W 6 0 0 0 - 0 0 - 0 0 - 1 0 1 0 0 0 2 0 2
p23
aVTyler Hansbrough IND 06/01/2013 IND vs. MIA W 12 3 1 2 50.0 0 0 - 1 4 25.0 2 2 4 0 0 0 0 1 -4
p24
aVTyler Hansbrough IND 05/30/2013 IND @ MIA L 8 3 1 3 33.3 0 0 - 1 2 50.0 1 1 2 0 0 0 0 0 8
p25
aVSam Young IND 05/30/2013 IND @ MIA L 17 2 1 1 100.0 0 0 - 0 0 - 0 1 1 0 0 0 2 0 -2
p26
aVRoy Hibbert IND 05/30/2013 IND @ MIA L 40 22 8 14 57.1 0 0 - 6 6 100.0 2 4 6 0 0 2 3 3 -1
p27
aVDavid West IND 05/30/2013 IND @ MIA L 41 17 7 16 43.8 0 0 - 3 4 75.0 2 6 8 0 1 1 0 1 -19
p28
aVPaul George IND 05/30/2013 IND @ MIA L 44 27 11 19 57.9 5 8 62.5 0 0 - 0 11 11 5 1 0 5 2 -6
p29
aVD.J. Augustin IND 05/30/2013 IND @ MIA L 18 0 0 2 0.0 0 2 0.0 0 0 - 0 0 0 0 0 0 1 1 -8
p30
aVIan Mahinmi IND 05/30/2013 IND @ MIA L 8 3 1 3 33.3 0 0 - 1 2 50.0 1 1 2 0 0 1 0 2 -10
p31
aVGeorge Hill IND 05/30/2013 IND @ MIA L 37 1 0 4 0.0 0 2 0.0 1 1 100.0 0 0 0 4 3 0 3 4 -2
p32
aVLance Stephenson IND 05/30/2013 IND @ MIA L 28 4 2 7 28.6 0 1 0.0 0 0 - 0 3 3 2 1 1 3 6 -15
p33
aVDavid West IND 05/28/2013 IND vs. MIA W 39 14 5 11 45.5 0 0 - 4 6 66.7 4 8 12 2 0 1 1 4 6
p34
aVRoy Hibbert IND 05/28/2013 IND vs. MIA W 40 23 10 16 62.5 0 0 - 3 4 75.0 6 6 12 1 1 0 2 1 5
p35
aVPaul George IND 05/28/2013 IND vs. MIA W 33 12 4 10 40.0 0 4 0.0 4 5 80.0 1 7 8 3 0 2 5 4 3
p36
aVSam Young IND 05/28/2013 IND vs. MIA W 14 6 2 3 66.7 0 1 0.0 2 2 100.0 1 5 6 0 2 0 0 3 7
p37
aVTyler Hansbrough IND 05/28/2013 IND vs. MIA W 9 3 0 0 - 0 0 - 3 4 75.0 0 0 0 1 0 0 0 1 1
p38
aVIan Mahinmi IND 05/28/2013 IND vs. MIA W 7 2 1 2 50.0 0 0 - 0 0 - 1 0 1 0 0 1 0 2 4
p39
aVLance Stephenson IND 05/28/2013 IND vs. MIA W 41 20 9 15 60.0 1 3 33.3 1 2 50.0 1 4 5 2 0 0 1 5 14
p40
aVD.J. Augustin IND 05/28/2013 IND vs. MIA W 18 0 0 0 - 0 0 - 0 0 - 0 0 0 3 0 0 2 3 -9
p41
aVGeorge Hill IND 05/28/2013 IND vs. MIA W 39 19 4 13 30.8 2 6 33.3 9 10 90.0 1 4 5 6 0 1 1 2 4
p42
aVIan Mahinmi IND 05/26/2013 IND vs. MIA L 8 4 2 2 100.0 0 0 - 0 0 - 2 2 4 0 0 0 0 1 0
p43
aVD.J. Augustin IND 05/26/2013 IND vs. MIA L 13 3 1 1 100.0 1 1 100.0 0 0 - 0 0 0 0 0 0 0 1 -14
p44
aVTyler Hansbrough IND 05/26/2013 IND vs. MIA L 12 4 2 7 28.6 0 0 - 0 2 0.0 3 2 5 0 0 0 0 4 -11
p45
aVRoy Hibbert IND 05/26/2013 IND vs. MIA L 37 20 4 12 33.3 0 0 - 12 15 80.0 7 10 17 3 0 2 2 4 -16
p46
aVGerald Green IND 05/26/2013 IND vs. MIA L 3 2 1 1 100.0 0 0 - 0 0 - 0 1 1 0 0 0 0 0 -2
p47
aVOrlando Johnson IND 05/26/2013 IND vs. MIA L 3 1 0 3 0.0 0 1 0.0 1 2 50.0 0 1 1 0 0 0 0 0 -2
p48
aVLance Stephenson IND 05/26/2013 IND vs. MIA L 34 7 2 10 20.0 2 5 40.0 1 2 50.0 0 1 1 2 1 0 0 3 2
p49
aVGeorge Hill IND 05/26/2013 IND vs. MIA L 37 19 5 10 50.0 3 3 100.0 6 7 85.7 0 1 1 2 0 0 1 3 -9
p50
aVDavid West IND 05/26/2013 IND vs. MIA L 36 21 8 16 50.0 0 0 - 5 8 62.5 4 6 10 1 0 0 2 5 -5
p51
aVBen Hansbrough IND 05/26/2013 IND vs. MIA L 3 0 0 0 - 0 0 - 0 0 - 0 0 0 0 0 0 0 0 -2
p52
aVJeff Ayres IND 05/26/2013 IND vs. MIA L 3 0 0 0 - 0 0 - 0 0 - 0 0 0 0 0 1 0 0 -2
p53
aVPaul George IND 05/26/2013 IND vs. MIA L 42 13 3 10 30.0 2 4 50.0 5 8 62.5 0 2 2 8 0 0 5 3 -17
p54
aVSam Young IND 05/26/2013 IND vs. MIA L 8 2 1 1 100.0 0 0 - 0 0 - 2 1 3 0 0 0 0 1 -12
p55
aVTyler Hansbrough IND 05/24/2013 IND @ MIA W 7 0 0 0 - 0 0 - 0 0 - 0 2 2 0 0 0 0 1 -12
p56
aVDavid West IND 05/24/2013 IND @ MIA W 41 13 2 9 22.2 0 0 - 9 10 90.0 0 7 7 3 1 1 2 3 16
p57
aVLance Stephenson IND 05/24/2013 IND @ MIA W 39 10 4 12 33.3 2 4 50.0 0 0 - 2 6 8 5 2 0 1 2 15
p58
aVSam Young IND 05/24/2013 IND @ MIA W 9 1 0 2 0.0 0 1 0.0 1 2 50.0 2 0 2 0 0 0 1 2 -15
p59
aVGeorge Hill IND 05/24/2013 IND @ MIA W 41 18 6 8 75.0 2 3 66.7 4 7 57.1 0 5 5 3 3 0 2 3 12
p60
aVIan Mahinmi IND 05/24/2013 IND @ MIA W 9 2 1 1 100.0 0 0 - 0 0 - 0 1 1 0 0 2 1 3 -8
p61
aVD.J. Augustin IND 05/24/2013 IND @ MIA W 15 2 1 3 33.3 0 1 0.0 0 0 - 1 1 2 0 0 0 0 1 -12
p62
aVOrlando Johnson IND 05/24/2013 IND @ MIA W 1 0 0 0 - 0 0 - 0 0 - 0 0 0 0 0 0 0 0 -5
p63
aVPaul George IND 05/24/2013 IND @ MIA W 39 22 9 16 56.3 1 3 33.3 3 3 100.0 0 2 2 6 0 0 2 4 17
p64
aVRoy Hibbert IND 05/24/2013 IND @ MIA W 39 29 10 15 66.7 0 0 - 9 10 90.0 6 4 10 1 0 0 4 4 12
p65
aVTyler Hansbrough IND 05/22/2013 IND @ MIA L 12 10 5 8 62.5 0 0 - 0 0 - 3 3 6 0 1 0 1 2 2
p66
aVD.J. Augustin IND 05/22/2013 IND @ MIA L 15 8 1 2 50.0 1 1 100.0 5 6 83.3 0 0 0 1 0 0 0 3 4
p67
aVRoy Hibbert IND 05/22/2013 IND @ MIA L 41 19 9 18 50.0 0 0 - 1 2 50.0 7 2 9 1 0 2 2 5 2
p68
aVOrlando Johnson IND 05/22/2013 IND @ MIA L 0 0 0 0 - 0 0 - 0 0 - 0 0 0 0 0 0 0 0 0
p69
aVSam Young IND 05/22/2013 IND @ MIA L 10 0 0 1 0.0 0 0 - 0 0 - 0 0 0 0 1 0 0 3 -7
p70
aVLance Stephenson IND 05/22/2013 IND @ MIA L 43 7 2 10 20.0 0 5 0.0 3 4 75.0 2 10 12 3 3 0 4 4 -3
p71
aVDavid West IND 05/22/2013 IND @ MIA L 41 26 11 17 64.7 0 0 - 4 8 50.0 4 1 5 1 0 0 4 4 -6
p72
aVPaul George IND 05/22/2013 IND @ MIA L 47 27 7 16 43.8 3 6 50.0 10 11 90.9 0 4 4 5 0 0 6 4 2
p73
aVGeorge Hill IND 05/22/2013 IND @ MIA L 45 5 2 9 22.2 0 2 0.0 1 1 100.0 0 4 4 7 5 0 3 4 -1
p74
aVIan Mahinmi IND 05/22/2013 IND @ MIA L 12 0 0 2 0.0 0 0 - 0 0 - 1 2 3 0 0 0 0 1 2
p75
aVDavid West IND 05/18/2013 IND vs. NYK W 38 17 6 12 50.0 0 0 - 5 6 83.3 1 4 5 4 0 0 1 1 12
p76
aVPaul George IND 05/18/2013 IND vs. NYK W 45 23 9 15 60.0 2 3 66.7 3 9 33.3 0 5 5 4 1 0 2 3 3
p77
aVSam Young IND 05/18/2013 IND vs. NYK W 9 5 1 2 50.0 0 1 0.0 3 4 75.0 3 2 5 0 0 1 0 3 3
p78
aVGeorge Hill IND 05/18/2013 IND vs. NYK W 42 12 2 10 20.0 1 6 16.7 7 7 100.0 0 5 5 4 0 1 1 1 12
p79
aVIan Mahinmi IND 05/18/2013 IND vs. NYK W 4 0 0 0 - 0 0 - 0 0 - 0 1 1 0 0 0 0 1 1
p80
aVTyler Hansbrough IND 05/18/2013 IND vs. NYK W 11 0 0 0 - 0 0 - 0 0 - 0 0 0 0 0 0 2 3 -8
p81
aVRoy Hibbert IND 05/18/2013 IND vs. NYK W 42 21 6 13 46.2 0 0 - 9 12 75.0 6 6 12 2 1 5 2 2 10
p82
aVD.J. Augustin IND 05/18/2013 IND vs. NYK W 13 3 1 2 50.0 1 2 50.0 0 0 - 0 0 0 0 1 0 1 1 2
p83
aVLance Stephenson IND 05/18/2013 IND vs. NYK W 34 25 9 13 69.2 0 3 0.0 7 8 87.5 1 9 10 3 1 0 0 1 0
p84
aVPaul George IND 05/16/2013 IND @ NYK L 43 23 7 18 38.9 2 6 33.3 7 10 70.0 1 5 6 6 1 0 4 5 -8
p85
aVLance Stephenson IND 05/16/2013 IND @ NYK L 34 4 1 7 14.3 0 1 0.0 2 4 50.0 0 8 8 2 0 0 1 0 -12
p86
aVD.J. Augustin IND 05/16/2013 IND @ NYK L 39 12 3 9 33.3 3 7 42.9 3 5 60.0 0 2 2 0 2 0 2 1 -6
p87
aVIan Mahinmi IND 05/16/2013 IND @ NYK L 17 5 2 2 100.0 0 0 - 1 4 25.0 1 2 3 0 0 1 2 1 -10
p88
aVRoy Hibbert IND 05/16/2013 IND @ NYK L 31 9 3 7 42.9 0 0 - 3 4 75.0 4 3 7 1 0 2 3 5 0
p89
aVGerald Green IND 05/16/2013 IND @ NYK L 13 5 2 5 40.0 1 4 25.0 0 0 - 0 3 3 1 0 0 3 2 5
p90
aVTyler Hansbrough IND 05/16/2013 IND @ NYK L 9 0 0 3 0.0 0 0 - 0 0 - 2 0 2 0 0 0 1 1 2
p91
aVDavid West IND 05/16/2013 IND @ NYK L 39 17 7 17 41.2 0 0 - 3 6 50.0 4 6 10 2 3 0 3 1 -12
p92
aVSam Young IND 05/16/2013 IND @ NYK L 15 0 0 1 0.0 0 1 0.0 0 0 - 0 2 2 0 0 0 0 2 -9
p93
aVLance Stephenson IND 05/14/2013 IND vs. NYK W 35 13 5 13 38.5 3 7 42.9 0 0 - 1 6 7 1 0 0 1 3 6
p94
aVTyler Hansbrough IND 05/14/2013 IND vs. NYK W 14 2 1 3 33.3 0 0 - 0 0 - 1 0 1 0 0 0 0 2 8
p95
aVOrlando Johnson IND 05/14/2013 IND vs. NYK W 0 0 0 0 - 0 0 - 0 0 - 0 0 0 0 0 0 0 0 -3
p96
aVGeorge Hill IND 05/14/2013 IND vs. NYK W 37 26 9 14 64.3 2 6 33.3 6 9 66.7 0 3 3 4 1 0 4 0 5
p97
aVD.J. Augustin IND 05/14/2013 IND vs. NYK W 21 11 2 5 40.0 1 2 50.0 6 6 100.0 0 1 1 0 0 0 0 2 9
p98
aVSam Young IND 05/14/2013 IND vs. NYK W 6 5 2 2 100.0 1 1 100.0 0 0 - 0 1 1 0 0 0 0 0 0
p99
aVRoy Hibbert IND 05/14/2013 IND vs. NYK W 37 6 2 8 25.0 0 0 - 2 3 66.7 6 5 11 2 0 3 0 5 11
p100
aVIan Mahinmi IND 05/14/2013 IND vs. NYK W 10 2 1 3 33.3 0 0 - 0 0 - 4 2 6 0 0 2 0 1 1
p101
aVJeff Ayres IND 05/14/2013 IND vs. NYK W 0 0 0 0 - 0 0 - 0 0 - 0 0 0 0 0 0 0 0 -3
p102
aVPaul George IND 05/14/2013 IND vs. NYK W 45 18 6 19 31.6 1 9 11.1 5 8 62.5 3 11 14 7 2 2 5 3 16
p103
aVDavid West IND 05/14/2013 IND vs. NYK W 35 10 3 9 33.3 0 0 - 4 4 100.0 1 9 10 3 1 1 2 2 5
p104
aVRoy Hibbert IND 05/11/2013 IND vs. NYK W 40 24 9 18 50.0 0 0 - 6 7 85.7 8 4 12 0 0 0 2 5 20
p105
aVPaul George IND 05/11/2013 IND vs. NYK W 43 14 4 17 23.5 2 12 16.7 4 7 57.1 3 5 8 8 5 0 5 4 17
p106
aVGeorge Hill IND 05/11/2013 IND vs. NYK W 41 17 5 16 31.3 5 12 41.7 2 2 100.0 0 6 6 1 1 0 3 4 14
p107
aVOrlando Johnson IND 05/11/2013 IND vs. NYK W 1 0 0 0 - 0 0 - 0 0 - 0 0 0 0 0 0 0 0 -3
p108
aVTyler Hansbrough IND 05/11/2013 IND vs. NYK W 15 3 1 3 33.3 0 0 - 1 3 33.3 1 2 3 0 0 0 1 1 -4
p109
aVLance Stephenson IND 05/11/2013 IND vs. NYK W 34 8 3 7 42.9 2 5 40.0 0 0 - 0 7 7 3 0 0 2 1 2
p110
aVD.J. Augustin IND 05/11/2013 IND vs. NYK W 17 3 1 3 33.3 1 3 33.3 0 0 - 0 0 0 1 0 0 0 2 0
p111
aVSam Young IND 05/11/2013 IND vs. NYK W 7 0 0 3 0.0 0 1 0.0 0 0 - 1 0 1 0 0 0 0 1 6
p112
aVBen Hansbrough IND 05/11/2013 IND vs. NYK W 1 0 0 1 0.0 0 0 - 0 0 - 0 0 0 0 0 0 0 0 -3
p113
aVIan Mahinmi IND 05/11/2013 IND vs. NYK W 6 2 1 1 100.0 0 0 - 0 0 - 0 4 4 0 0 0 1 1 -7
p114
aVDavid West IND 05/11/2013 IND vs. NYK W 35 11 4 11 36.4 0 0 - 3 4 75.0 5 7 12 1 1 1 3 4 13
p115
aVLance Stephenson IND 05/07/2013 IND @ NYK L 34 9 4 13 30.8 1 7 14.3 0 0 - 1 3 4 2 2 0 1 1 -10
p116
aVJeff Ayres IND 05/07/2013 IND @ NYK L 7 0 0 0 - 0 0 - 0 0 - 0 2 2 0 0 0 1 2 -7
p117
aVIan Mahinmi IND 05/07/2013 IND @ NYK L 5 0 0 0 - 0 0 - 0 0 - 0 0 0 0 0 0 1 0 0
p118
aVTyler Hansbrough IND 05/07/2013 IND @ NYK L 15 2 0 0 - 0 0 - 2 4 50.0 1 1 2 0 0 0 1 0 -14
p119
aVGerald Green IND 05/07/2013 IND @ NYK L 6 7 3 5 60.0 1 2 50.0 0 0 - 0 1 1 0 0 0 0 0 -2
p120
aVGeorge Hill IND 05/07/2013 IND @ NYK L 34 12 4 11 36.4 2 5 40.0 2 4 50.0 0 3 3 7 0 1 4 3 -17
p121
aVOrlando Johnson IND 05/07/2013 IND @ NYK L 6 4 1 2 50.0 1 1 100.0 1 2 50.0 0 0 0 0 0 0 0 0 -2
p122
aVSam Young IND 05/07/2013 IND @ NYK L 7 2 1 1 100.0 0 0 - 0 0 - 0 0 0 1 0 0 0 1 0
p123
aVRoy Hibbert IND 05/07/2013 IND @ NYK L 36 6 3 7 42.9 0 0 - 0 0 - 5 7 12 1 0 4 2 3 -19
p124
aVBen Hansbrough IND 05/07/2013 IND @ NYK L 6 0 0 1 0.0 0 1 0.0 0 0 - 0 0 0 2 0 0 1 0 -2
p125
aVDavid West IND 05/07/2013 IND @ NYK L 33 13 4 7 57.1 0 0 - 5 5 100.0 0 6 6 4 0 0 2 3 -12
p126
aVPaul George IND 05/07/2013 IND @ NYK L 38 20 8 16 50.0 3 9 33.3 1 3 33.3 0 4 4 1 1 0 7 4 -28
p127
aVD.J. Augustin IND 05/07/2013 IND @ NYK L 14 4 2 3 66.7 0 0 - 0 0 - 0 1 1 1 1 0 1 1 -17
p128
aVRoy Hibbert IND 05/05/2013 IND @ NYK W 39 14 6 9 66.7 0 0 - 2 2 100.0 3 5 8 4 0 5 2 5 -1
p129
aVIan Mahinmi IND 05/05/2013 IND @ NYK W 9 0 0 0 - 0 0 - 0 0 - 1 0 1 0 0 1 1 0 8
p130
aVD.J. Augustin IND 05/05/2013 IND @ NYK W 13 16 5 6 83.3 4 5 80.0 2 4 50.0 0 0 0 1 0 0 0 1 -5
p131
aVLance Stephenson IND 05/05/2013 IND @ NYK W 39 11 5 9 55.6 0 2 0.0 1 3 33.3 2 11 13 3 3 0 1 0 17
p132
aVDavid West IND 05/05/2013 IND @ NYK W 37 20 8 15 53.3 0 1 0.0 4 5 80.0 2 2 4 2 0 2 3 4 14
p133
aVPaul George IND 05/05/2013 IND @ NYK W 43 19 5 14 35.7 2 6 33.3 7 8 87.5 0 5 5 4 0 0 4 6 3
p134
aVSam Young IND 05/05/2013 IND @ NYK W 6 0 0 0 - 0 0 - 0 0 - 0 2 2 0 0 0 3 1 -5
p135
aVGeorge Hill IND 05/05/2013 IND @ NYK W 43 14 5 17 29.4 2 9 22.2 2 2 100.0 0 7 7 6 0 0 1 0 11
p136
aVTyler Hansbrough IND 05/05/2013 IND @ NYK W 11 8 3 6 50.0 0 0 - 2 2 100.0 3 1 4 1 0 0 1 4 -7
p137
aVGeorge Hill IND 05/03/2013 IND @ ATL W 36 21 7 14 50.0 2 5 40.0 5 7 71.4 1 6 7 2 2 0 4 3 2
p138
aVDavid West IND 05/03/2013 IND @ ATL W 42 21 9 21 42.9 0 0 - 3 4 75.0 0 8 8 2 0 4 2 1 7
p139
aVTyler Hansbrough IND 05/03/2013 IND @ ATL W 6 6 1 1 100.0 0 0 - 4 6 66.7 1 0 1 0 0 0 0 3 1
p140
aVPaul George IND 05/03/2013 IND @ ATL W 44 4 2 10 20.0 0 5 0.0 0 0 - 0 7 7 7 2 1 2 3 10
p141
aVD.J. Augustin IND 05/03/2013 IND @ ATL W 19 2 1 6 16.7 0 4 0.0 0 0 - 0 3 3 0 2 0 2 0 0
p142
aVRoy Hibbert IND 05/03/2013 IND @ ATL W 38 17 8 14 57.1 0 0 - 1 2 50.0 3 8 11 0 0 2 3 4 9
p143
aVIan Mahinmi IND 05/03/2013 IND @ ATL W 10 0 0 3 0.0 0 0 - 0 0 - 2 1 3 0 0 2 0 2 -1
p144
aVJeff Ayres IND 05/03/2013 IND @ ATL W 12 2 1 2 50.0 0 0 - 0 0 - 0 2 2 0 0 0 0 2 4
p145
aVLance Stephenson IND 05/03/2013 IND @ ATL W 34 8 3 5 60.0 1 1 100.0 1 2 50.0 0 11 11 6 1 0 2 2 8
p146
aVOrlando Johnson IND 05/01/2013 IND vs. ATL W 2 2 0 0 - 0 0 - 2 2 100.0 0 0 0 0 0 0 1 0 -2
p147
aVDavid West IND 05/01/2013 IND vs. ATL W 35 24 11 16 68.8 0 0 - 2 2 100.0 0 5 5 0 1 0 3 3 24
p148
aVJeff Ayres IND 05/01/2013 IND vs. ATL W 9 2 1 4 25.0 0 0 - 0 0 - 0 2 2 0 0 1 0 1 1
p149
aVD.J. Augustin IND 05/01/2013 IND vs. ATL W 25 11 3 10 30.0 3 9 33.3 2 3 66.7 0 2 2 2 0 0 0 3 3
p150
aVLance Stephenson IND 05/01/2013 IND vs. ATL W 38 8 3 7 42.9 1 3 33.3 1 2 50.0 0 12 12 4 0 0 3 3 25
p151
aVIan Mahinmi IND 05/01/2013 IND vs. ATL W 9 2 1 2 50.0 0 0 - 0 0 - 0 2 2 0 0 1 1 5 0
p152
aVTyler Hansbrough IND 05/01/2013 IND vs. ATL W 13 3 1 5 20.0 0 0 - 1 1 100.0 3 1 4 0 0 0 3 4 -1
p153
aVGeorge Hill IND 05/01/2013 IND vs. ATL W 36 15 5 10 50.0 1 5 20.0 4 4 100.0 1 4 5 10 1 0 1 3 24
p154
aVPaul George IND 05/01/2013 IND vs. ATL W 34 21 7 8 87.5 2 2 100.0 5 7 71.4 1 9 10 5 0 0 1 4 18
p155
aVGerald Green IND 05/01/2013 IND vs. ATL W 3 0 0 0 - 0 0 - 0 0 - 0 0 0 0 0 0 0 0 1
p156
aVRoy Hibbert IND 05/01/2013 IND vs. ATL W 35 18 3 7 42.9 0 0 - 12 14 85.7 3 6 9 3 0 0 3 4 22
p157
aVLance Stephenson IND 04/29/2013 IND @ ATL L 41 10 4 9 44.4 1 3 33.3 1 2 50.0 1 8 9 8 0 0 3 4 4
p158
aVD.J. Augustin IND 04/29/2013 IND @ ATL L 14 8 3 7 42.9 2 3 66.7 0 0 - 0 2 2 0 0 0 1 3 -15
p159
aVPaul George IND 04/29/2013 IND @ ATL L 41 21 6 16 37.5 3 7 42.9 6 8 75.0 4 8 12 2 4 1 4 5 -7
p160
aVTyler Hansbrough IND 04/29/2013 IND @ ATL L 13 5 2 5 40.0 0 0 - 1 2 50.0 2 1 3 1 0 0 0 2 -10
p161
aVGerald Green IND 04/29/2013 IND @ ATL L 8 3 1 3 33.3 1 2 50.0 0 0 - 0 0 0 0 0 0 0 1 -14
p162
aVRoy Hibbert IND 04/29/2013 IND @ ATL L 31 14 6 11 54.5 0 0 - 2 2 100.0 4 3 7 2 0 2 1 5 1
p163
aVDavid West IND 04/29/2013 IND @ ATL L 39 15 5 14 35.7 0 2 0.0 5 5 100.0 1 5 6 2 1 0 1 3 -2
p164
aVGeorge Hill IND 04/29/2013 IND @ ATL L 41 12 4 15 26.7 0 6 0.0 4 4 100.0 0 2 2 6 3 0 2 1 -5
p165
aVIan Mahinmi IND 04/29/2013 IND @ ATL L 12 3 1 4 25.0 0 0 - 1 2 50.0 3 1 4 1 0 1 1 4 -7
p166
aVOrlando Johnson IND 04/27/2013 IND @ ATL L 6 1 0 4 0.0 0 1 0.0 1 3 33.3 0 1 1 0 0 0 0 0 -1
p167
aVD.J. Augustin IND 04/27/2013 IND @ ATL L 15 1 0 5 0.0 0 4 0.0 1 1 100.0 1 0 1 0 0 0 0 0 -5
p168
aVJeff Ayres IND 04/27/2013 IND @ ATL L 9 0 0 5 0.0 0 1 0.0 0 0 - 0 0 0 0 0 0 2 4 -12
p169
aVIan Mahinmi IND 04/27/2013 IND @ ATL L 5 2 1 2 50.0 0 0 - 0 0 - 1 1 2 0 0 0 0 1 -1
p170
aVGeorge Hill IND 04/27/2013 IND @ ATL L 28 3 1 8 12.5 0 3 0.0 1 2 50.0 0 2 2 3 1 1 3 1 -15
p171
aVDavid West IND 04/27/2013 IND @ ATL L 34 18 7 14 50.0 0 0 - 4 4 100.0 3 3 6 2 1 0 3 4 4
p172
aVRoy Hibbert IND 04/27/2013 IND @ ATL L 24 8 3 8 37.5 0 0 - 2 4 50.0 4 5 9 1 0 2 4 4 -7
p173
aVGerald Green IND 04/27/2013 IND @ ATL L 23 10 4 12 33.3 2 8 25.0 0 0 - 2 1 3 0 0 1 0 2 -19
p174
aVLance Stephenson IND 04/27/2013 IND @ ATL L 28 4 1 7 14.3 1 5 20.0 1 2 50.0 0 8 8 2 2 0 2 2 -4
p175
aVPaul George IND 04/27/2013 IND @ ATL L 37 16 4 11 36.4 1 2 50.0 7 8 87.5 1 8 9 1 0 1 5 4 -17
p176
aVBen Hansbrough IND 04/27/2013 IND @ ATL L 5 0 0 1 0.0 0 1 0.0 0 0 - 1 1 2 1 0 0 0 0 -1
p177
aVSam Young IND 04/27/2013 IND @ ATL L 2 0 0 1 0.0 0 0 - 0 0 - 0 0 0 0 0 0 0 0 -3
p178
aVTyler Hansbrough IND 04/27/2013 IND @ ATL L 24 6 1 3 33.3 0 0 - 4 4 100.0 4 5 9 0 2 0 3 5 -24
p179
aVDavid West IND 04/24/2013 IND vs. ATL W 20 7 1 4 25.0 0 0 - 5 7 71.4 0 1 1 3 1 0 2 3 3
p180
aVGerald Green IND 04/24/2013 IND vs. ATL W 27 15 6 11 54.5 3 6 50.0 0 0 - 0 2 2 0 0 0 1 0 11
p181
aVRoy Hibbert IND 04/24/2013 IND vs. ATL W 31 15 5 10 50.0 0 0 - 5 5 100.0 3 6 9 3 0 3 2 1 18
p182
aVOrlando Johnson IND 04/24/2013 IND vs. ATL W 3 0 0 1 0.0 0 0 - 0 0 - 0 1 1 0 0 0 0 0 -8
p183
aVGeorge Hill IND 04/24/2013 IND vs. ATL W 32 22 7 12 58.3 4 7 57.1 4 4 100.0 1 2 3 3 2 0 2 1 23
p184
aVD.J. Augustin IND 04/24/2013 IND vs. ATL W 17 8 2 6 33.3 2 4 50.0 2 2 100.0 0 0 0 3 0 0 0 3 2
p185
aVLance Stephenson IND 04/24/2013 IND vs. ATL W 18 4 2 4 50.0 0 1 0.0 0 0 - 0 3 3 2 1 0 2 3 2
p186
aVJeff Ayres IND 04/24/2013 IND vs. ATL W 15 8 4 6 66.7 0 0 - 0 0 - 4 3 7 1 0 0 0 2 2
p187
aVIan Mahinmi IND 04/24/2013 IND vs. ATL W 3 2 1 2 50.0 0 0 - 0 0 - 1 2 3 0 0 0 0 1 -8
p188
aVTyler Hansbrough IND 04/24/2013 IND vs. ATL W 23 5 2 6 33.3 0 0 - 1 4 25.0 3 3 6 2 1 0 0 3 23
p189
aVBen Hansbrough IND 04/24/2013 IND vs. ATL W 3 0 0 1 0.0 0 1 0.0 0 0 - 0 0 0 0 0 1 1 1 -8
p190
aVSam Young IND 04/24/2013 IND vs. ATL W 8 0 0 3 0.0 0 2 0.0 0 0 - 2 2 4 2 1 0 0 0 -9
p191
aVPaul George IND 04/24/2013 IND vs. ATL W 39 27 11 21 52.4 1 4 25.0 4 7 57.1 1 7 8 3 4 1 0 1 24
p192
aVRoy Hibbert IND 04/21/2013 IND vs. ATL W 33 16 7 17 41.2 0 0 - 2 2 100.0 6 2 8 0 1 2 1 3 15
p193
aVPaul George IND 04/21/2013 IND vs. ATL W 44 23 3 13 23.1 0 5 0.0 17 18 94.4 1 10 11 12 1 1 4 3 15
p194
aVJeff Ayres IND 04/21/2013 IND vs. ATL W 14 2 1 5 20.0 0 0 - 0 0 - 0 5 5 0 0 0 0 3 4
p195
aVTyler Hansbrough IND 04/21/2013 IND vs. ATL W 17 9 3 5 60.0 0 0 - 3 4 75.0 5 0 5 0 2 0 1 2 2
p196
aVDavid West IND 04/21/2013 IND vs. ATL W 32 13 6 11 54.5 0 0 - 1 1 100.0 2 7 9 2 0 0 3 3 13
p197
aVLance Stephenson IND 04/21/2013 IND vs. ATL W 41 13 5 9 55.6 1 3 33.3 2 4 50.0 1 4 5 4 3 1 3 2 23
p198
aVOrlando Johnson IND 04/21/2013 IND vs. ATL W 1 0 0 0 - 0 0 - 0 0 - 0 0 0 0 0 0 0 0 3
p199
aVD.J. Augustin IND 04/21/2013 IND vs. ATL W 11 2 0 0 - 0 0 - 2 2 100.0 0 1 1 1 1 0 0 0 -2
p200
aVGeorge Hill IND 04/21/2013 IND vs. ATL W 37 18 7 10 70.0 3 4 75.0 1 1 100.0 0 3 3 2 0 0 1 2 19
p201
aVGerald Green IND 04/21/2013 IND vs. ATL W 11 11 3 8 37.5 3 7 42.9 2 2 100.0 0 1 1 2 0 0 1 1 -7
p202
a.