(lp0
VPLAYER TEAM DATE MATCHUP W/L MIN PTS FGM FGA FG% 3PM 3PA 3P% FTM FTA FT% OREB DREB REB AST STL BLK TOV PF +/-
p1
aVLandry Fields TOR 04/17/2013 TOR vs. BOS W 28 8 4 8 50.0 0 0 - 0 0 - 3 8 11 3 0 0 1 2 10
p2
aVKyle Lowry TOR 04/17/2013 TOR vs. BOS W 22 9 3 9 33.3 1 3 33.3 2 2 100.0 0 2 2 8 3 0 2 1 17
p3
aVJohn Lucas III TOR 04/17/2013 TOR vs. BOS W 26 7 3 7 42.9 1 3 33.3 0 0 - 0 1 1 4 0 0 0 0 7
p4
aVRudy Gay TOR 04/17/2013 TOR vs. BOS W 26 19 6 14 42.9 4 6 66.7 3 3 100.0 1 8 9 2 1 0 0 2 15
p5
aVAlan Anderson TOR 04/17/2013 TOR vs. BOS W 19 16 5 10 50.0 2 5 40.0 4 4 100.0 1 3 4 2 0 0 0 1 1
p6
aVAaron Gray TOR 04/17/2013 TOR vs. BOS W 14 3 1 1 100.0 0 0 - 1 2 50.0 0 1 1 2 0 0 1 2 0
p7
aVQuincy Acy TOR 04/17/2013 TOR vs. BOS W 25 4 2 4 50.0 0 0 - 0 2 0.0 0 6 6 1 0 0 1 2 9
p8
aVAmir Johnson TOR 04/17/2013 TOR vs. BOS W 23 6 2 4 50.0 1 1 100.0 1 2 50.0 0 2 2 2 1 2 0 1 18
p9
aVDeMar DeRozan TOR 04/17/2013 TOR vs. BOS W 29 24 8 13 61.5 3 3 100.0 5 5 100.0 1 2 3 2 0 0 0 1 23
p10
aVJonas Valanciunas TOR 04/17/2013 TOR vs. BOS W 29 18 6 10 60.0 0 0 - 6 8 75.0 3 4 7 0 0 3 4 2 20
p11
aVTerrence Ross TOR 04/16/2013 TOR @ ATL W 18 8 3 7 42.9 0 1 0.0 2 2 100.0 0 2 2 0 3 0 0 2 5
p12
aVDeMar DeRozan TOR 04/16/2013 TOR @ ATL W 28 30 11 17 64.7 3 5 60.0 5 6 83.3 0 1 1 0 0 0 1 3 13
p13
aVQuincy Acy TOR 04/16/2013 TOR @ ATL W 22 5 2 5 40.0 0 1 0.0 1 2 50.0 2 5 7 1 0 1 1 2 7
p14
aVJohn Lucas III TOR 04/16/2013 TOR @ ATL W 21 11 4 8 50.0 1 2 50.0 2 2 100.0 0 3 3 4 0 0 1 2 0
p15
aVRudy Gay TOR 04/16/2013 TOR @ ATL W 27 22 9 14 64.3 3 7 42.9 1 1 100.0 0 4 4 5 1 0 4 1 15
p16
aVJonas Valanciunas TOR 04/16/2013 TOR @ ATL W 33 13 4 5 80.0 0 0 - 5 6 83.3 1 7 8 0 0 3 4 4 7
p17
aVLandry Fields TOR 04/16/2013 TOR @ ATL W 9 1 0 2 0.0 0 0 - 1 2 50.0 3 0 3 0 0 0 1 0 -3
p18
aVKyle Lowry TOR 04/16/2013 TOR @ ATL W 27 8 2 6 33.3 2 5 40.0 2 2 100.0 0 5 5 11 3 0 4 3 17
p19
aVAlan Anderson TOR 04/16/2013 TOR @ ATL W 19 4 1 9 11.1 0 4 0.0 2 2 100.0 2 4 6 1 0 0 1 0 2
p20
aVAmir Johnson TOR 04/16/2013 TOR @ ATL W 36 11 4 5 80.0 1 2 50.0 2 2 100.0 2 6 8 2 0 6 1 3 22
p21
aVDeMar DeRozan TOR 04/14/2013 TOR vs. BKN W 42 36 12 22 54.5 3 4 75.0 9 9 100.0 0 5 5 0 0 0 0 3 1
p22
aVJohn Lucas III TOR 04/14/2013 TOR vs. BKN W 11 2 1 4 25.0 0 0 - 0 0 - 0 1 1 2 0 0 0 1 -1
p23
aVQuincy Acy TOR 04/14/2013 TOR vs. BKN W 23 4 2 4 50.0 0 0 - 0 0 - 2 2 4 2 0 0 2 1 -2
p24
aVAaron Gray TOR 04/14/2013 TOR vs. BKN W 34 4 2 4 50.0 0 0 - 0 0 - 3 6 9 2 0 0 0 4 15
p25
aVAmir Johnson TOR 04/14/2013 TOR vs. BKN W 39 10 5 12 41.7 0 0 - 0 0 - 2 7 9 3 0 0 3 5 -3
p26
aVRudy Gay TOR 04/14/2013 TOR vs. BKN W 42 26 10 19 52.6 3 6 50.0 3 4 75.0 2 8 10 3 3 1 4 1 6
p27
aVKyle Lowry TOR 04/14/2013 TOR vs. BKN W 37 7 2 10 20.0 0 3 0.0 3 8 37.5 0 9 9 6 0 0 3 4 7
p28
aVAlan Anderson TOR 04/14/2013 TOR vs. BKN W 12 4 2 7 28.6 0 2 0.0 0 0 - 1 0 1 1 1 0 0 0 7
p29
aVDeMar DeRozan TOR 04/12/2013 TOR vs. CHI W 40 19 6 10 60.0 0 0 - 7 8 87.5 0 1 1 1 1 0 4 2 12
p30
aVAlan Anderson TOR 04/12/2013 TOR vs. CHI W 14 2 1 4 25.0 0 0 - 0 0 - 1 0 1 3 0 0 0 1 4
p31
aVRudy Gay TOR 04/12/2013 TOR vs. CHI W 41 23 8 19 42.1 1 2 50.0 6 8 75.0 0 3 3 2 5 3 4 1 2
p32
aVAmir Johnson TOR 04/12/2013 TOR vs. CHI W 40 24 10 15 66.7 1 2 50.0 3 4 75.0 3 6 9 2 1 1 3 4 10
p33
aVAaron Gray TOR 04/12/2013 TOR vs. CHI W 21 6 2 5 40.0 0 0 - 2 2 100.0 2 4 6 3 0 0 1 1 -13
p34
aVJohn Lucas III TOR 04/12/2013 TOR vs. CHI W 12 0 0 4 0.0 0 1 0.0 0 0 - 0 0 0 0 0 0 0 0 -3
p35
aVKyle Lowry TOR 04/12/2013 TOR vs. CHI W 36 13 4 10 40.0 0 3 0.0 5 5 100.0 1 8 9 11 2 0 1 2 12
p36
aVQuincy Acy TOR 04/12/2013 TOR vs. CHI W 35 10 3 5 60.0 0 0 - 4 6 66.7 4 5 9 0 1 3 0 2 21
p37
aVAmir Johnson TOR 04/09/2013 TOR @ CHI W 45 13 5 8 62.5 0 0 - 3 3 100.0 2 9 11 2 0 1 0 4 7
p38
aVLandry Fields TOR 04/09/2013 TOR @ CHI W 0 0 0 0 - 0 0 - 0 0 - 0 0 0 0 0 0 0 0 -1
p39
aVJonas Valanciunas TOR 04/09/2013 TOR @ CHI W 23 8 2 3 66.7 0 0 - 4 4 100.0 0 3 3 2 1 1 2 5 -1
p40
aVAlan Anderson TOR 04/09/2013 TOR @ CHI W 6 3 1 3 33.3 1 2 50.0 0 0 - 0 0 0 1 0 0 1 1 -1
p41
aVJohn Lucas III TOR 04/09/2013 TOR @ CHI W 14 4 2 6 33.3 0 1 0.0 0 0 - 0 0 0 2 1 0 1 0 -4
p42
aVTerrence Ross TOR 04/09/2013 TOR @ CHI W 18 13 5 9 55.6 2 3 66.7 1 1 100.0 0 2 2 0 0 0 0 1 -3
p43
aVKyle Lowry TOR 04/09/2013 TOR @ CHI W 34 13 6 11 54.5 1 5 20.0 0 0 - 0 3 3 10 2 0 2 2 7
p44
aVDeMar DeRozan TOR 04/09/2013 TOR @ CHI W 34 20 8 13 61.5 0 2 0.0 4 7 57.1 0 2 2 2 1 0 0 1 6
p45
aVRudy Gay TOR 04/09/2013 TOR @ CHI W 37 19 6 14 42.9 3 5 60.0 4 5 80.0 0 6 6 2 0 0 1 4 4
p46
aVQuincy Acy TOR 04/09/2013 TOR @ CHI W 27 8 2 5 40.0 0 0 - 4 4 100.0 1 5 6 1 1 1 1 3 1
p47
aVRudy Gay TOR 04/06/2013 TOR @ MIL L 23 4 1 10 10.0 0 2 0.0 2 2 100.0 3 5 8 2 0 1 1 3 -19
p48
aVSebastian Telfair TOR 04/06/2013 TOR @ MIL L 25 3 0 5 0.0 0 2 0.0 3 4 75.0 0 2 2 7 3 0 3 0 2
p49
aVLandry Fields TOR 04/06/2013 TOR @ MIL L 23 5 2 4 50.0 0 0 - 1 1 100.0 0 5 5 1 0 1 2 1 -17
p50
aVKyle Lowry TOR 04/06/2013 TOR @ MIL L 23 7 3 9 33.3 1 2 50.0 0 1 0.0 1 3 4 4 0 0 3 3 -19
p51
aVDeMar DeRozan TOR 04/06/2013 TOR @ MIL L 24 12 6 14 42.9 0 0 - 0 0 - 1 1 2 0 0 0 2 0 -25
p52
aVAaron Gray TOR 04/06/2013 TOR @ MIL L 1 0 0 0 - 0 0 - 0 0 - 0 0 0 0 0 0 0 0 -2
p53
aVQuincy Acy TOR 04/06/2013 TOR @ MIL L 21 13 4 7 57.1 1 1 100.0 4 4 100.0 0 2 2 2 2 0 1 3 8
p54
aVAmir Johnson TOR 04/06/2013 TOR @ MIL L 25 2 1 7 14.3 0 0 - 0 0 - 2 4 6 1 2 2 3 3 -22
p55
aVAlan Anderson TOR 04/06/2013 TOR @ MIL L 22 14 6 10 60.0 1 3 33.3 1 1 100.0 0 2 2 1 0 0 1 1 10
p56
aVJonas Valanciunas TOR 04/06/2013 TOR @ MIL L 26 12 3 9 33.3 0 0 - 6 6 100.0 1 2 3 0 0 0 0 5 -1
p57
aVTerrence Ross TOR 04/06/2013 TOR @ MIL L 28 11 4 8 50.0 0 0 - 3 4 75.0 0 1 1 0 2 0 0 2 0
p58
aVTerrence Ross TOR 04/05/2013 TOR @ MIN W 16 7 3 5 60.0 1 2 50.0 0 0 - 0 1 1 0 0 0 0 2 6
p59
aVRudy Gay TOR 04/05/2013 TOR @ MIN W 35 26 12 23 52.2 1 3 33.3 1 1 100.0 1 4 5 3 2 0 2 3 1
p60
aVLandry Fields TOR 04/05/2013 TOR @ MIN W 19 2 1 4 25.0 0 0 - 0 0 - 3 4 7 1 0 0 0 0 11
p61
aVAaron Gray TOR 04/05/2013 TOR @ MIN W 15 4 2 3 66.7 0 0 - 0 2 0.0 2 2 4 1 0 1 0 5 3
p62
aVDeMar DeRozan TOR 04/05/2013 TOR @ MIN W 36 25 12 23 52.2 0 1 0.0 1 1 100.0 1 3 4 1 0 0 1 3 -4
p63
aVJonas Valanciunas TOR 04/05/2013 TOR @ MIN W 33 12 2 4 50.0 0 0 - 8 10 80.0 2 2 4 0 0 3 1 4 -1
p64
aVKyle Lowry TOR 04/05/2013 TOR @ MIN W 33 11 5 11 45.5 1 4 25.0 0 0 - 1 1 2 7 2 0 3 4 -7
p65
aVAmir Johnson TOR 04/05/2013 TOR @ MIN W 22 3 1 3 33.3 0 0 - 1 2 50.0 1 7 8 1 0 2 2 3 -15
p66
aVSebastian Telfair TOR 04/05/2013 TOR @ MIN W 15 3 1 4 25.0 1 3 33.3 0 0 - 0 2 2 2 0 0 2 2 9
p67
aVAlan Anderson TOR 04/05/2013 TOR @ MIN W 9 2 1 5 20.0 0 2 0.0 0 0 - 0 2 2 1 1 0 1 0 1
p68
aVQuincy Acy TOR 04/05/2013 TOR @ MIN W 7 0 0 0 - 0 0 - 0 0 - 0 1 1 1 1 0 1 0 6
p69
aVDeMar DeRozan TOR 04/03/2013 TOR vs. WAS W 37 25 11 21 52.4 0 0 - 3 5 60.0 0 1 1 1 1 1 3 0 20
p70
aVJonas Valanciunas TOR 04/03/2013 TOR vs. WAS W 41 24 4 7 57.1 0 0 - 16 18 88.9 0 10 10 1 1 2 3 4 17
p71
aVKyle Lowry TOR 04/03/2013 TOR vs. WAS W 37 9 2 8 25.0 1 3 33.3 4 6 66.7 0 8 8 13 0 0 2 3 13
p72
aVLandry Fields TOR 04/03/2013 TOR vs. WAS W 17 3 1 1 100.0 0 0 - 1 2 50.0 1 2 3 0 0 0 0 2 12
p73
aVSebastian Telfair TOR 04/03/2013 TOR vs. WAS W 11 2 1 5 20.0 0 1 0.0 0 0 - 0 2 2 3 0 0 0 1 -3
p74
aVTerrence Ross TOR 04/03/2013 TOR vs. WAS W 8 2 1 2 50.0 0 0 - 0 0 - 0 0 0 0 0 0 0 0 -10
p75
aVAmir Johnson TOR 04/03/2013 TOR vs. WAS W 35 9 4 8 50.0 0 0 - 1 1 100.0 1 6 7 1 2 2 1 5 6
p76
aVAlan Anderson TOR 04/03/2013 TOR vs. WAS W 8 0 0 1 0.0 0 1 0.0 0 0 - 0 2 2 0 0 0 0 0 -8
p77
aVQuincy Acy TOR 04/03/2013 TOR vs. WAS W 20 8 4 5 80.0 0 0 - 0 0 - 1 2 3 0 0 1 2 5 -4
p78
aVRudy Gay TOR 04/03/2013 TOR vs. WAS W 26 6 2 8 25.0 0 3 0.0 2 4 50.0 1 7 8 2 2 0 4 4 7
p79
aVDeMar DeRozan TOR 04/01/2013 TOR vs. DET L 41 15 7 17 41.2 0 3 0.0 1 2 50.0 1 6 7 5 2 0 2 2 -4
p80
aVTerrence Ross TOR 04/01/2013 TOR vs. DET L 13 0 0 1 0.0 0 0 - 0 0 - 0 1 1 1 0 0 1 2 -11
p81
aVJonas Valanciunas TOR 04/01/2013 TOR vs. DET L 37 17 8 14 57.1 0 0 - 1 2 50.0 3 3 6 0 0 5 2 2 -8
p82
aVKyle Lowry TOR 04/01/2013 TOR vs. DET L 30 9 4 9 44.4 1 5 20.0 0 0 - 0 0 0 7 0 0 2 2 2
p83
aVRudy Gay TOR 04/01/2013 TOR vs. DET L 40 34 13 18 72.2 4 4 100.0 4 4 100.0 1 5 6 5 1 1 1 4 -11
p84
aVAmir Johnson TOR 04/01/2013 TOR vs. DET L 37 6 2 5 40.0 0 0 - 2 2 100.0 0 3 3 0 1 2 1 1 -3
p85
aVAlan Anderson TOR 04/01/2013 TOR vs. DET L 16 7 3 8 37.5 1 4 25.0 0 0 - 0 2 2 1 0 0 0 0 -4
p86
aVSebastian Telfair TOR 04/01/2013 TOR vs. DET L 18 6 2 6 33.3 2 5 40.0 0 0 - 0 1 1 4 1 0 1 2 -12
p87
aVQuincy Acy TOR 04/01/2013 TOR vs. DET L 8 4 2 3 66.7 0 0 - 0 0 - 1 2 3 1 1 0 0 2 1
p88
aVTerrence Ross TOR 03/31/2013 TOR @ WAS L 12 0 0 5 0.0 0 2 0.0 0 0 - 0 1 1 0 0 0 0 3 6
p89
aVAaron Gray TOR 03/31/2013 TOR @ WAS L 5 0 0 0 - 0 0 - 0 0 - 0 0 0 0 0 1 0 1 -6
p90
aVRudy Gay TOR 03/31/2013 TOR @ WAS L 27 11 4 10 40.0 1 3 33.3 2 3 66.7 2 2 4 3 0 1 1 5 -10
p91
aVAmir Johnson TOR 03/31/2013 TOR @ WAS L 26 8 2 7 28.6 0 0 - 4 4 100.0 2 10 12 1 0 0 3 4 -3
p92
aVJonas Valanciunas TOR 03/31/2013 TOR @ WAS L 37 18 5 9 55.6 0 0 - 8 10 80.0 3 7 10 1 0 2 1 3 -17
p93
aVKyle Lowry TOR 03/31/2013 TOR @ WAS L 32 15 4 10 40.0 3 5 60.0 4 4 100.0 1 2 3 7 0 1 4 5 -26
p94
aVAlan Anderson TOR 03/31/2013 TOR @ WAS L 25 7 3 9 33.3 1 5 20.0 0 0 - 1 1 2 1 0 0 1 2 -11
p95
aVDeMar DeRozan TOR 03/31/2013 TOR @ WAS L 34 15 6 18 33.3 0 0 - 3 4 75.0 1 5 6 3 1 0 1 2 -21
p96
aVSebastian Telfair TOR 03/31/2013 TOR @ WAS L 16 10 4 6 66.7 2 4 50.0 0 0 - 0 2 2 3 0 0 0 0 9
p97
aVLandry Fields TOR 03/31/2013 TOR @ WAS L 26 8 4 7 57.1 0 0 - 0 1 0.0 3 2 5 2 1 1 2 1 -6
p98
aVAmir Johnson TOR 03/29/2013 TOR @ DET W 38 20 9 11 81.8 0 0 - 2 2 100.0 2 6 8 2 0 2 0 2 27
p99
aVRudy Gay TOR 03/29/2013 TOR @ DET W 26 21 7 14 50.0 3 4 75.0 4 6 66.7 1 3 4 4 0 0 1 0 17
p100
aVLandry Fields TOR 03/29/2013 TOR @ DET W 20 6 3 7 42.9 0 0 - 0 0 - 3 3 6 0 1 0 1 0 7
p101
aVDeMar DeRozan TOR 03/29/2013 TOR @ DET W 33 21 10 20 50.0 0 0 - 1 1 100.0 0 4 4 3 3 0 0 3 21
p102
aVAlan Anderson TOR 03/29/2013 TOR @ DET W 22 7 3 8 37.5 1 6 16.7 0 0 - 0 2 2 1 1 0 0 2 0
p103
aVJonas Valanciunas TOR 03/29/2013 TOR @ DET W 39 14 7 11 63.6 0 0 - 0 0 - 4 9 13 2 0 4 4 5 0
p104
aVKyle Lowry TOR 03/29/2013 TOR @ DET W 30 4 2 4 50.0 0 2 0.0 0 0 - 0 2 2 11 2 0 3 1 15
p105
aVTerrence Ross TOR 03/29/2013 TOR @ DET W 15 6 3 5 60.0 0 1 0.0 0 0 - 0 0 0 1 0 0 1 1 -4
p106
aVJohn Lucas III TOR 03/29/2013 TOR @ DET W 18 0 0 2 0.0 0 0 - 0 0 - 0 3 3 1 0 0 0 2 2
p107
aVLandry Fields TOR 03/27/2013 TOR vs. ATL L 7 2 1 2 50.0 0 0 - 0 0 - 1 0 1 0 0 0 0 0 -9
p108
aVKyle Lowry TOR 03/27/2013 TOR vs. ATL L 34 3 1 5 20.0 0 3 0.0 1 2 50.0 2 5 7 10 1 0 3 3 -22
p109
aVJonas Valanciunas TOR 03/27/2013 TOR vs. ATL L 32 19 8 11 72.7 0 0 - 3 4 75.0 3 5 8 0 0 1 2 2 -18
p110
aVTerrence Ross TOR 03/27/2013 TOR vs. ATL L 24 13 5 9 55.6 1 2 50.0 2 2 100.0 2 3 5 0 1 0 1 0 -5
p111
aVAaron Gray TOR 03/27/2013 TOR vs. ATL L 6 0 0 1 0.0 0 0 - 0 0 - 0 0 0 1 0 0 1 2 -2
p112
aVAmir Johnson TOR 03/27/2013 TOR vs. ATL L 20 7 3 6 50.0 0 0 - 1 1 100.0 1 4 5 0 0 0 1 3 4
p113
aVAlan Anderson TOR 03/27/2013 TOR vs. ATL L 31 12 5 13 38.5 2 6 33.3 0 1 0.0 0 1 1 2 2 0 3 0 -21
p114
aVJohn Lucas III TOR 03/27/2013 TOR vs. ATL L 14 3 1 3 33.3 1 1 100.0 0 0 - 0 1 1 3 1 0 0 1 3
p115
aVDeMar DeRozan TOR 03/27/2013 TOR vs. ATL L 36 14 5 14 35.7 0 2 0.0 4 6 66.7 0 2 2 1 1 0 3 2 -21
p116
aVRudy Gay TOR 03/27/2013 TOR vs. ATL L 35 15 6 14 42.9 0 3 0.0 3 4 75.0 1 11 12 3 2 0 5 5 -4
p117
aVAlan Anderson TOR 03/23/2013 TOR @ NYK L 31 14 5 14 35.7 1 5 20.0 3 3 100.0 2 2 4 2 0 0 3 4 -16
p118
aVJohn Lucas III TOR 03/23/2013 TOR @ NYK L 22 4 2 11 18.2 0 7 0.0 0 0 - 0 2 2 0 0 0 1 1 -17
p119
aVAmir Johnson TOR 03/23/2013 TOR @ NYK L 18 4 2 3 66.7 0 0 - 0 0 - 2 2 4 2 2 0 1 2 2
p120
aVJonas Valanciunas TOR 03/23/2013 TOR @ NYK L 30 11 4 4 100.0 0 0 - 3 3 100.0 3 5 8 0 0 0 3 2 -28
p121
aVDeMar DeRozan TOR 03/23/2013 TOR @ NYK L 39 17 7 15 46.7 0 2 0.0 3 5 60.0 2 1 3 3 1 1 2 3 -20
p122
aVKyle Lowry TOR 03/23/2013 TOR @ NYK L 32 14 6 13 46.2 0 4 0.0 2 4 50.0 1 3 4 4 1 0 3 2 -16
p123
aVLandry Fields TOR 03/23/2013 TOR @ NYK L 38 7 3 6 50.0 0 0 - 1 3 33.3 1 3 4 1 2 0 2 3 -19
p124
aVTerrence Ross TOR 03/23/2013 TOR @ NYK L 31 13 5 10 50.0 3 5 60.0 0 0 - 0 6 6 1 0 1 3 3 -16
p125
aVDeMar DeRozan TOR 03/22/2013 TOR vs. NYK L 35 18 7 14 50.0 1 3 33.3 3 3 100.0 0 3 3 2 1 0 1 2 -3
p126
aVTerrence Ross TOR 03/22/2013 TOR vs. NYK L 19 5 2 10 20.0 0 5 0.0 1 2 50.0 1 0 1 0 0 0 1 4 1
p127
aVRudy Gay TOR 03/22/2013 TOR vs. NYK L 14 4 2 7 28.6 0 1 0.0 0 0 - 1 2 3 1 1 0 1 2 -15
p128
aVAmir Johnson TOR 03/22/2013 TOR vs. NYK L 17 4 2 5 40.0 0 0 - 0 0 - 2 4 6 0 0 0 0 2 0
p129
aVKyle Lowry TOR 03/22/2013 TOR vs. NYK L 35 9 3 8 37.5 3 6 50.0 0 0 - 0 1 1 10 2 0 2 5 3
p130
aVJohn Lucas III TOR 03/22/2013 TOR vs. NYK L 13 0 0 5 0.0 0 5 0.0 0 0 - 0 2 2 0 0 0 0 1 -8
p131
aVJonas Valanciunas TOR 03/22/2013 TOR vs. NYK L 31 10 5 6 83.3 0 0 - 0 1 0.0 1 6 7 1 0 0 3 1 -4
p132
aVLandry Fields TOR 03/22/2013 TOR vs. NYK L 39 9 4 6 66.7 1 1 100.0 0 0 - 3 1 4 2 2 0 1 2 -4
p133
aVAlan Anderson TOR 03/22/2013 TOR vs. NYK L 36 35 11 18 61.1 6 11 54.5 7 8 87.5 1 5 6 3 1 1 3 4 5
p134
aVSebastian Telfair TOR 03/20/2013 TOR @ CHA L 5 3 1 4 25.0 1 3 33.3 0 0 - 0 0 0 0 0 0 0 0 -1
p135
aVLandry Fields TOR 03/20/2013 TOR @ CHA L 12 2 1 5 20.0 0 0 - 0 0 - 2 2 4 1 1 0 1 2 -6
p136
aVRudy Gay TOR 03/20/2013 TOR @ CHA L 40 25 8 18 44.4 2 5 40.0 7 7 100.0 1 7 8 3 0 2 4 3 -5
p137
aVAlan Anderson TOR 03/20/2013 TOR @ CHA L 12 4 1 3 33.3 0 1 0.0 2 2 100.0 0 1 1 3 0 0 1 1 -11
p138
aVJohn Lucas III TOR 03/20/2013 TOR @ CHA L 6 0 0 3 0.0 0 3 0.0 0 0 - 0 0 0 0 0 0 1 1 -9
p139
aVMickael Pietrus TOR 03/20/2013 TOR @ CHA L 3 0 0 1 0.0 0 1 0.0 0 0 - 0 2 2 0 0 0 0 3 -2
p140
aVJonas Valanciunas TOR 03/20/2013 TOR @ CHA L 31 18 6 11 54.5 0 0 - 6 6 100.0 1 7 8 2 2 2 1 5 6
p141
aVAmir Johnson TOR 03/20/2013 TOR @ CHA L 36 8 3 8 37.5 0 0 - 2 2 100.0 4 6 10 2 2 4 1 6 2
p142
aVTerrence Ross TOR 03/20/2013 TOR @ CHA L 17 4 2 5 40.0 0 1 0.0 0 0 - 2 0 2 0 1 0 0 1 -3
p143
aVDeMar DeRozan TOR 03/20/2013 TOR @ CHA L 40 19 7 12 58.3 1 2 50.0 4 4 100.0 1 2 3 2 0 0 2 2 -3
p144
aVKyle Lowry TOR 03/20/2013 TOR @ CHA L 38 18 6 13 46.2 1 6 16.7 5 5 100.0 4 3 7 5 1 1 5 3 2
p145
aVAlan Anderson TOR 03/17/2013 TOR vs. MIA L 14 0 0 6 0.0 0 3 0.0 0 0 - 1 0 1 0 1 0 0 1 -7
p146
aVLandry Fields TOR 03/17/2013 TOR vs. MIA L 11 4 2 2 100.0 0 0 - 0 0 - 1 2 3 0 0 0 1 1 -1
p147
aVJonas Valanciunas TOR 03/17/2013 TOR vs. MIA L 29 18 7 8 87.5 0 0 - 4 4 100.0 5 2 7 0 0 0 4 2 -8
p148
aVAmir Johnson TOR 03/17/2013 TOR vs. MIA L 37 18 9 18 50.0 0 0 - 0 0 - 8 10 18 3 1 0 2 3 -10
p149
aVRudy Gay TOR 03/17/2013 TOR vs. MIA L 37 27 11 20 55.0 2 6 33.3 3 3 100.0 4 4 8 4 1 0 3 2 -16
p150
aVDeMar DeRozan TOR 03/17/2013 TOR vs. MIA L 37 12 5 17 29.4 0 1 0.0 2 3 66.7 2 3 5 0 0 0 4 2 -16
p151
aVKyle Lowry TOR 03/17/2013 TOR vs. MIA L 29 0 0 7 0.0 0 5 0.0 0 0 - 0 4 4 3 1 1 2 4 -15
p152
aVSebastian Telfair TOR 03/17/2013 TOR vs. MIA L 7 0 0 3 0.0 0 2 0.0 0 0 - 0 0 0 3 0 1 0 1 -8
p153
aVTerrence Ross TOR 03/17/2013 TOR vs. MIA L 27 12 5 10 50.0 0 2 0.0 2 2 100.0 3 1 4 1 0 0 0 4 -10
p154
aVJohn Lucas III TOR 03/17/2013 TOR vs. MIA L 11 0 0 3 0.0 0 1 0.0 0 0 - 0 1 1 1 1 0 0 1 6
p155
aVAlan Anderson TOR 03/15/2013 TOR vs. CHA W 23 6 2 5 40.0 0 0 - 2 3 66.7 0 1 1 0 0 1 1 2 10
p156
aVLandry Fields TOR 03/15/2013 TOR vs. CHA W 14 0 0 4 0.0 0 1 0.0 0 0 - 0 1 1 0 0 0 0 0 4
p157
aVRudy Gay TOR 03/15/2013 TOR vs. CHA W 36 28 11 16 68.8 1 3 33.3 5 5 100.0 0 3 3 2 1 1 6 4 10
p158
aVDeMar DeRozan TOR 03/15/2013 TOR vs. CHA W 31 9 1 5 20.0 0 0 - 7 8 87.5 0 4 4 4 0 1 3 1 -1
p159
aVKyle Lowry TOR 03/15/2013 TOR vs. CHA W 27 7 3 10 30.0 1 4 25.0 0 0 - 1 5 6 2 2 1 1 5 0
p160
aVJonas Valanciunas TOR 03/15/2013 TOR vs. CHA W 21 10 5 6 83.3 0 0 - 0 1 0.0 0 6 6 1 0 1 0 4 2
p161
aVAmir Johnson TOR 03/15/2013 TOR vs. CHA W 44 12 5 11 45.5 0 0 - 2 2 100.0 8 13 21 1 2 3 6 2 11
p162
aVTerrence Ross TOR 03/15/2013 TOR vs. CHA W 24 9 4 5 80.0 1 1 100.0 0 0 - 0 2 2 1 1 0 1 2 20
p163
aVSebastian Telfair TOR 03/15/2013 TOR vs. CHA W 21 11 2 6 33.3 0 1 0.0 7 8 87.5 1 1 2 5 0 0 1 3 14
p164
aVKyle Lowry TOR 03/13/2013 TOR @ BOS L 27 5 2 7 28.6 1 2 50.0 0 0 - 1 3 4 3 1 1 4 5 -10
p165
aVAlan Anderson TOR 03/13/2013 TOR @ BOS L 24 4 2 3 66.7 0 1 0.0 0 0 - 0 2 2 0 0 0 4 1 -29
p166
aVAmir Johnson TOR 03/13/2013 TOR @ BOS L 29 9 3 6 50.0 0 0 - 3 4 75.0 1 4 5 1 3 2 1 2 -5
p167
aVJonas Valanciunas TOR 03/13/2013 TOR @ BOS L 34 9 4 7 57.1 0 0 - 1 2 50.0 3 4 7 0 0 0 1 3 -22
p168
aVLandry Fields TOR 03/13/2013 TOR @ BOS L 16 7 3 5 60.0 0 0 - 1 1 100.0 0 2 2 0 0 1 0 0 -4
p169
aVJohn Lucas III TOR 03/13/2013 TOR @ BOS L 11 0 0 3 0.0 0 2 0.0 0 0 - 0 1 1 2 2 1 0 2 -7
p170
aVSebastian Telfair TOR 03/13/2013 TOR @ BOS L 14 5 2 6 33.3 1 3 33.3 0 0 - 0 2 2 3 1 0 1 2 -11
p171
aVRudy Gay TOR 03/13/2013 TOR @ BOS L 32 19 7 19 36.8 0 1 0.0 5 5 100.0 2 5 7 4 0 0 3 4 4
p172
aVDeMar DeRozan TOR 03/13/2013 TOR @ BOS L 29 17 5 13 38.5 0 0 - 7 7 100.0 0 2 2 2 1 0 2 2 -18
p173
aVTerrence Ross TOR 03/13/2013 TOR @ BOS L 24 13 6 10 60.0 1 4 25.0 0 0 - 0 2 2 2 3 1 1 2 -18
p174
aVJonas Valanciunas TOR 03/10/2013 TOR vs. CLE W 33 11 3 7 42.9 0 0 - 5 5 100.0 0 7 7 1 0 2 0 3 6
p175
aVTerrence Ross TOR 03/10/2013 TOR vs. CLE W 28 14 4 11 36.4 3 7 42.9 3 4 75.0 1 4 5 3 1 0 0 1 0
p176
aVLandry Fields TOR 03/10/2013 TOR vs. CLE W 23 9 4 8 50.0 0 0 - 1 4 25.0 0 3 3 1 1 0 1 3 0
p177
aVKyle Lowry TOR 03/10/2013 TOR vs. CLE W 32 15 4 10 40.0 2 7 28.6 5 6 83.3 2 7 9 5 3 0 1 5 16
p178
aVAmir Johnson TOR 03/10/2013 TOR vs. CLE W 39 17 8 19 42.1 0 0 - 1 1 100.0 6 10 16 2 1 3 4 5 6
p179
aVJohn Lucas III TOR 03/10/2013 TOR vs. CLE W 5 3 1 2 50.0 0 0 - 1 2 50.0 0 1 1 1 1 0 0 1 -5
p180
aVAlan Anderson TOR 03/10/2013 TOR vs. CLE W 26 18 6 11 54.5 3 6 50.0 3 4 75.0 0 3 3 2 1 0 1 0 1
p181
aVSebastian Telfair TOR 03/10/2013 TOR vs. CLE W 13 0 0 3 0.0 0 2 0.0 0 0 - 0 0 0 1 0 0 0 2 -2
p182
aVDeMar DeRozan TOR 03/10/2013 TOR vs. CLE W 40 13 3 13 23.1 0 1 0.0 7 8 87.5 0 3 3 6 1 0 4 2 -2
p183
aVSebastian Telfair TOR 03/08/2013 TOR @ LAL L 5 0 0 2 0.0 0 2 0.0 0 0 - 0 1 1 1 0 0 1 0 -4
p184
aVAmir Johnson TOR 03/08/2013 TOR @ LAL L 28 8 4 4 100.0 0 0 - 0 0 - 0 2 2 1 1 2 2 6 5
p185
aVJonas Valanciunas TOR 03/08/2013 TOR @ LAL L 17 12 6 8 75.0 0 0 - 0 0 - 2 4 6 0 0 1 1 4 4
p186
aVAlan Anderson TOR 03/08/2013 TOR @ LAL L 29 17 6 14 42.9 2 5 40.0 3 5 60.0 1 4 5 1 2 0 1 4 -3
p187
aVDeMar DeRozan TOR 03/08/2013 TOR @ LAL L 44 28 12 18 66.7 0 0 - 4 4 100.0 0 5 5 5 1 0 0 1 0
p188
aVKyle Lowry TOR 03/08/2013 TOR @ LAL L 35 15 5 8 62.5 3 5 60.0 2 3 66.7 0 4 4 10 0 1 3 4 2
p189
aVLandry Fields TOR 03/08/2013 TOR @ LAL L 24 6 2 4 50.0 0 0 - 2 2 100.0 1 2 3 4 1 0 0 0 -3
p190
aVJohn Lucas III TOR 03/08/2013 TOR @ LAL L 18 11 5 7 71.4 1 3 33.3 0 0 - 0 2 2 3 0 0 2 2 -6
p191
aVRudy Gay TOR 03/08/2013 TOR @ LAL L 41 17 7 26 26.9 2 7 28.6 1 2 50.0 0 7 7 4 3 2 6 4 -2
p192
aVAaron Gray TOR 03/08/2013 TOR @ LAL L 15 0 0 1 0.0 0 0 - 0 0 - 3 3 6 3 0 0 0 2 -8
p193
aVAndrea Bargnani TOR 03/08/2013 TOR @ LAL L 9 2 1 1 100.0 0 0 - 0 0 - 0 2 2 0 0 0 1 0 5
p194
aVAlan Anderson TOR 03/06/2013 TOR @ PHX W 25 10 3 6 50.0 3 3 100.0 1 1 100.0 1 3 4 0 0 0 4 0 16
p195
aVDeMar DeRozan TOR 03/06/2013 TOR @ PHX W 30 15 7 13 53.8 0 1 0.0 1 2 50.0 2 4 6 4 1 0 5 1 17
p196
aVRudy Gay TOR 03/06/2013 TOR @ PHX W 23 5 2 7 28.6 0 2 0.0 1 1 100.0 0 5 5 2 0 2 2 2 11
p197
aVTerrence Ross TOR 03/06/2013 TOR @ PHX W 21 10 3 7 42.9 2 3 66.7 2 2 100.0 1 3 4 2 0 0 4 2 17
p198
aVJonas Valanciunas TOR 03/06/2013 TOR @ PHX W 20 10 3 5 60.0 0 0 - 4 5 80.0 0 3 3 0 1 2 2 3 3
p199
aVLandry Fields TOR 03/06/2013 TOR @ PHX W 15 4 2 5 40.0 0 1 0.0 0 0 - 0 2 2 2 1 0 0 0 13
p200
aVAmir Johnson TOR 03/06/2013 TOR @ PHX W 28 14 5 8 62.5 0 0 - 4 4 100.0 3 3 6 1 1 0 2 3 24
p201
aVAndrea Bargnani TOR 03/06/2013 TOR @ PHX W 24 9 4 10 40.0 1 2 50.0 0 0 - 0 5 5 1 1 0 0 1 7
p202
aVJohn Lucas III TOR 03/06/2013 TOR @ PHX W 6 3 1 1 100.0 1 1 100.0 0 0 - 0 1 1 1 0 0 0 0 0
p203
aVSebastian Telfair TOR 03/06/2013 TOR @ PHX W 27 13 5 12 41.7 3 9 33.3 0 0 - 0 2 2 7 4 0 2 3 22
p204
aVKyle Lowry TOR 03/06/2013 TOR @ PHX W 21 5 2 3 66.7 1 2 50.0 0 0 - 0 2 2 4 2 0 0 2 5
p205
aVAndrea Bargnani TOR 03/04/2013 TOR @ GSW L 36 26 8 18 44.4 5 7 71.4 5 6 83.3 3 4 7 0 0 1 0 2 8
p206
aVTerrence Ross TOR 03/04/2013 TOR @ GSW L 8 0 0 4 0.0 0 1 0.0 0 0 - 0 0 0 0 0 0 0 1 -7
p207
aVAaron Gray TOR 03/04/2013 TOR @ GSW L 4 1 0 0 - 0 0 - 1 2 50.0 0 0 0 0 0 0 0 0 -5
p208
aVAlan Anderson TOR 03/04/2013 TOR @ GSW L 13 9 3 6 50.0 2 2 100.0 1 1 100.0 0 1 1 0 0 0 0 1 -10
p209
aVLandry Fields TOR 03/04/2013 TOR @ GSW L 7 0 0 1 0.0 0 0 - 0 0 - 0 1 1 1 0 0 0 1 -13
p210
aVJonas Valanciunas TOR 03/04/2013 TOR @ GSW L 16 3 1 7 14.3 0 0 - 1 2 50.0 2 3 5 0 0 0 0 4 9
p211
aVJohn Lucas III TOR 03/04/2013 TOR @ GSW L 15 4 1 4 25.0 0 3 0.0 2 2 100.0 0 1 1 1 0 0 1 1 -16
p212
aVKyle Lowry TOR 03/04/2013 TOR @ GSW L 33 11 2 9 22.2 1 5 20.0 6 7 85.7 2 9 11 9 2 1 2 5 9
p213
aVDeMar DeRozan TOR 03/04/2013 TOR @ GSW L 39 15 6 13 46.2 0 2 0.0 3 3 100.0 0 1 1 4 0 0 3 3 -6
p214
aVAmir Johnson TOR 03/04/2013 TOR @ GSW L 32 23 10 10 100.0 0 0 - 3 7 42.9 12 3 15 0 0 2 1 4 -13
p215
aVRudy Gay TOR 03/04/2013 TOR @ GSW L 36 26 10 22 45.5 1 6 16.7 5 5 100.0 0 5 5 1 4 1 6 4 9
p216
aVLandry Fields TOR 03/02/2013 TOR @ MIL L 48 15 7 13 53.8 0 2 0.0 1 1 100.0 2 5 7 4 4 0 0 5 0
p217
aVTerrence Ross TOR 03/02/2013 TOR @ MIL L 5 0 0 0 - 0 0 - 0 0 - 0 0 0 0 0 0 0 0 -6
p218
aVAndrea Bargnani TOR 03/02/2013 TOR @ MIL L 33 11 4 14 28.6 1 3 33.3 2 2 100.0 1 6 7 3 0 2 2 2 -7
p219
aVJohn Lucas III TOR 03/02/2013 TOR @ MIL L 18 16 6 9 66.7 4 5 80.0 0 0 - 0 0 0 0 0 0 0 1 3
p220
aVDeMar DeRozan TOR 03/02/2013 TOR @ MIL L 46 18 6 21 28.6 0 0 - 6 8 75.0 0 3 3 9 0 1 2 6 -5
p221
aVAlan Anderson TOR 03/02/2013 TOR @ MIL L 29 21 8 20 40.0 1 8 12.5 4 5 80.0 1 0 1 1 0 0 2 0 -3
p222
aVJonas Valanciunas TOR 03/02/2013 TOR @ MIL L 11 4 2 5 40.0 0 0 - 0 0 - 3 2 5 0 0 0 2 1 -4
p223
aVKyle Lowry TOR 03/02/2013 TOR @ MIL L 36 10 4 7 57.1 2 4 50.0 0 0 - 2 8 10 10 5 0 6 5 -12
p224
aVAmir Johnson TOR 03/02/2013 TOR @ MIL L 39 19 9 11 81.8 0 0 - 1 2 50.0 4 5 9 1 0 0 2 6 -6
p225
aVAmir Johnson TOR 03/01/2013 TOR vs. IND L 18 2 1 3 33.3 0 0 - 0 0 - 1 2 3 1 0 1 1 5 -7
p226
aVRudy Gay TOR 03/01/2013 TOR vs. IND L 32 21 7 16 43.8 0 1 0.0 7 7 100.0 1 4 5 2 1 0 4 2 -9
p227
aVKyle Lowry TOR 03/01/2013 TOR vs. IND L 25 5 2 5 40.0 1 1 100.0 0 0 - 1 3 4 2 1 1 2 2 -1
p228
aVJohn Lucas III TOR 03/01/2013 TOR vs. IND L 24 10 4 9 44.4 2 3 66.7 0 0 - 0 2 2 2 1 0 0 0 -9
p229
aVTerrence Ross TOR 03/01/2013 TOR vs. IND L 13 0 0 4 0.0 0 1 0.0 0 0 - 0 1 1 1 1 0 0 0 -3
p230
aVQuincy Acy TOR 03/01/2013 TOR vs. IND L 5 6 2 2 100.0 0 0 - 2 2 100.0 1 0 1 0 1 1 0 4 6
p231
aVDeMar DeRozan TOR 03/01/2013 TOR vs. IND L 34 9 2 10 20.0 0 0 - 5 10 50.0 1 2 3 3 1 0 0 1 -12
p232
aVAaron Gray TOR 03/01/2013 TOR vs. IND L 7 2 1 1 100.0 0 0 - 0 0 - 0 0 0 0 0 0 1 3 -7
p233
aVAndrea Bargnani TOR 03/01/2013 TOR vs. IND L 33 8 3 7 42.9 0 1 0.0 2 2 100.0 0 0 0 0 1 1 2 2 -14
p234
aVLandry Fields TOR 03/01/2013 TOR vs. IND L 2 0 0 0 - 0 0 - 0 0 - 0 0 0 0 0 0 0 0 1
p235
aVJonas Valanciunas TOR 03/01/2013 TOR vs. IND L 26 4 1 3 33.3 0 0 - 2 2 100.0 3 6 9 0 0 1 1 3 -5
p236
aVAlan Anderson TOR 03/01/2013 TOR vs. IND L 22 14 6 12 50.0 0 4 0.0 2 2 100.0 0 2 2 1 2 1 2 3 0
p237
aVLandry Fields TOR 02/27/2013 TOR @ CLE L 8 4 2 3 66.7 0 0 - 0 0 - 0 0 0 0 0 0 1 2 -16
p238
aVJonas Valanciunas TOR 02/27/2013 TOR @ CLE L 24 5 2 4 50.0 0 0 - 1 2 50.0 3 5 8 1 1 3 3 3 14
p239
aVRudy Gay TOR 02/27/2013 TOR @ CLE L 43 24 10 21 47.6 1 5 20.0 3 3 100.0 2 6 8 6 1 0 2 2 0
p240
aVAndrea Bargnani TOR 02/27/2013 TOR @ CLE L 16 0 0 4 0.0 0 2 0.0 0 0 - 0 1 1 1 0 1 1 0 -12
p241
aVAaron Gray TOR 02/27/2013 TOR @ CLE L 4 0 0 0 - 0 0 - 0 0 - 0 1 1 0 0 0 0 0 -7
p242
aVAmir Johnson TOR 02/27/2013 TOR @ CLE L 41 10 5 8 62.5 0 1 0.0 0 0 - 3 6 9 4 0 4 4 5 7
p243
aVJohn Lucas III TOR 02/27/2013 TOR @ CLE L 7 0 0 2 0.0 0 2 0.0 0 0 - 0 0 0 2 0 0 0 1 -14
p244
aVAlan Anderson TOR 02/27/2013 TOR @ CLE L 14 4 2 5 40.0 0 2 0.0 0 0 - 0 0 0 1 0 0 1 2 -27
p245
aVKyle Lowry TOR 02/27/2013 TOR @ CLE L 34 11 4 12 33.3 1 6 16.7 2 5 40.0 1 5 6 8 1 0 0 4 12
p246
aVSebastian Telfair TOR 02/27/2013 TOR @ CLE L 7 0 0 0 - 0 0 - 0 0 - 0 0 0 0 0 0 0 4 -9
p247
aVDeMar DeRozan TOR 02/27/2013 TOR @ CLE L 44 34 10 19 52.6 0 2 0.0 14 15 93.3 0 5 5 2 0 0 3 2 -3
p248
aVJonas Valanciunas TOR 02/25/2013 TOR vs. WAS L 18 4 2 4 50.0 0 0 - 0 0 - 0 3 3 0 0 0 0 2 -6
p249
aVJohn Lucas III TOR 02/25/2013 TOR vs. WAS L 16 9 4 5 80.0 1 2 50.0 0 0 - 0 1 1 3 0 0 0 2 -3
p250
aVLandry Fields TOR 02/25/2013 TOR vs. WAS L 5 0 0 0 - 0 0 - 0 0 - 0 1 1 0 0 0 0 0 -2
p251
aVKyle Lowry TOR 02/25/2013 TOR vs. WAS L 32 18 6 17 35.3 3 9 33.3 3 6 50.0 1 4 5 3 2 2 2 2 -3
p252
aVAmir Johnson TOR 02/25/2013 TOR vs. WAS L 37 6 2 8 25.0 0 0 - 2 2 100.0 4 9 13 2 1 3 2 4 -3
p253
aVAlan Anderson TOR 02/25/2013 TOR vs. WAS L 24 4 0 4 0.0 0 2 0.0 4 4 100.0 0 3 3 0 0 0 2 4 -2
p254
aVTerrence Ross TOR 02/25/2013 TOR vs. WAS L 6 3 1 2 50.0 1 1 100.0 0 0 - 0 0 0 0 0 0 0 0 -2
p255
aVDeMar DeRozan TOR 02/25/2013 TOR vs. WAS L 39 25 9 17 52.9 0 1 0.0 7 9 77.8 1 3 4 1 1 1 2 2 -4
p256
aVAndrea Bargnani TOR 02/25/2013 TOR vs. WAS L 21 8 4 11 36.4 0 2 0.0 0 0 - 2 1 3 0 1 0 1 1 -2
p257
aVRudy Gay TOR 02/25/2013 TOR vs. WAS L 42 7 1 11 9.1 0 2 0.0 5 6 83.3 1 5 6 4 4 1 5 1 -3
p258
aVAmir Johnson TOR 02/22/2013 TOR vs. NYK W 32 12 5 6 83.3 0 0 - 2 2 100.0 1 5 6 1 1 0 1 3 -9
p259
aVRudy Gay TOR 02/22/2013 TOR vs. NYK W 41 32 11 23 47.8 1 4 25.0 9 11 81.8 1 6 7 2 2 0 2 3 10
p260
aVAndrea Bargnani TOR 02/22/2013 TOR vs. NYK W 13 0 0 2 0.0 0 0 - 0 0 - 0 0 0 0 0 0 0 1 -2
p261
aVAlan Anderson TOR 02/22/2013 TOR vs. NYK W 22 4 1 8 12.5 0 1 0.0 2 2 100.0 1 0 1 2 0 0 1 2 -14
p262
aVDeMar DeRozan TOR 02/22/2013 TOR vs. NYK W 39 18 6 13 46.2 0 1 0.0 6 6 100.0 0 1 1 6 1 1 3 1 8
p263
aVJonas Valanciunas TOR 02/22/2013 TOR vs. NYK W 21 3 1 4 25.0 0 0 - 1 2 50.0 3 7 10 0 0 2 1 2 11
p264
aVLandry Fields TOR 02/22/2013 TOR vs. NYK W 23 6 2 4 50.0 0 0 - 2 2 100.0 0 2 2 0 1 0 0 5 4
p265
aVJohn Lucas III TOR 02/22/2013 TOR vs. NYK W 14 10 4 9 44.4 2 6 33.3 0 1 0.0 0 2 2 0 1 0 1 1 -13
p266
aVKyle Lowry TOR 02/22/2013 TOR vs. NYK W 34 15 5 11 45.5 4 6 66.7 1 2 50.0 0 2 2 7 1 0 0 4 15
p267
aVKyle Lowry TOR 02/20/2013 TOR vs. MEM L 36 12 3 10 30.0 2 4 50.0 4 5 80.0 3 4 7 4 0 0 3 3 -3
p268
aVJonas Valanciunas TOR 02/20/2013 TOR vs. MEM L 18 6 1 3 33.3 0 0 - 4 4 100.0 2 4 6 0 0 0 1 3 -9
p269
aVLandry Fields TOR 02/20/2013 TOR vs. MEM L 5 3 1 3 33.3 0 0 - 1 2 50.0 0 1 1 0 0 0 0 1 -5
p270
aVAlan Anderson TOR 02/20/2013 TOR vs. MEM L 19 19 6 7 85.7 4 5 80.0 3 3 100.0 0 2 2 0 0 0 1 5 1
p271
aVAndrea Bargnani TOR 02/20/2013 TOR vs. MEM L 22 0 0 4 0.0 0 1 0.0 0 0 - 1 1 2 0 1 1 1 4 -9
p272
aVRudy Gay TOR 02/20/2013 TOR vs. MEM L 39 13 5 15 33.3 2 3 66.7 1 2 50.0 2 7 9 3 1 0 5 3 -7
p273
aVTerrence Ross TOR 02/20/2013 TOR vs. MEM L 14 2 1 5 20.0 0 3 0.0 0 0 - 0 1 1 0 0 1 0 0 10
p274
aVAmir Johnson TOR 02/20/2013 TOR vs. MEM L 24 16 6 10 60.0 0 0 - 4 4 100.0 2 3 5 0 1 2 2 5 -1
p275
aVJohn Lucas III TOR 02/20/2013 TOR vs. MEM L 12 2 1 3 33.3 0 1 0.0 0 0 - 0 0 0 2 0 0 0 1 -3
p276
aVAaron Gray TOR 02/20/2013 TOR vs. MEM L 13 2 1 2 50.0 0 0 - 0 0 - 1 5 6 0 0 0 0 1 5
p277
aVDeMar DeRozan TOR 02/20/2013 TOR vs. MEM L 36 7 1 9 11.1 0 1 0.0 5 6 83.3 0 3 3 5 2 0 1 2 -9
p278
aVAndrea Bargnani TOR 02/19/2013 TOR @ WAS W 26 9 4 7 57.1 1 3 33.3 0 0 - 1 3 4 1 1 1 1 1 -2
p279
aVTerrence Ross TOR 02/19/2013 TOR @ WAS W 3 0 0 0 - 0 0 - 0 0 - 0 0 0 0 0 0 0 0 1
p280
aVAmir Johnson TOR 02/19/2013 TOR @ WAS W 39 6 2 4 50.0 0 0 - 2 2 100.0 2 3 5 2 2 2 0 4 19
p281
aVAaron Gray TOR 02/19/2013 TOR @ WAS W 5 0 0 0 - 0 0 - 0 0 - 1 1 2 0 0 0 1 1 -5
p282
aVDeMar DeRozan TOR 02/19/2013 TOR @ WAS W 37 24 9 18 50.0 0 0 - 6 7 85.7 0 3 3 3 3 0 4 4 19
p283
aVKyle Lowry TOR 02/19/2013 TOR @ WAS W 32 11 3 6 50.0 1 3 33.3 4 4 100.0 1 5 6 10 1 0 4 2 12
p284
aVRudy Gay TOR 02/19/2013 TOR @ WAS W 37 24 10 25 40.0 3 6 50.0 1 1 100.0 3 5 8 1 3 0 5 1 -1
p285
aVAlan Anderson TOR 02/19/2013 TOR @ WAS W 24 5 1 9 11.1 1 5 20.0 2 2 100.0 0 5 5 1 0 1 0 3 5
p286
aVJohn Lucas III TOR 02/19/2013 TOR @ WAS W 16 10 4 7 57.1 2 3 66.7 0 0 - 0 1 1 1 0 0 0 0 -4
p287
aVJonas Valanciunas TOR 02/19/2013 TOR @ WAS W 21 7 2 2 100.0 0 0 - 3 4 75.0 0 8 8 1 0 1 1 3 -4
p288
aVTerrence Ross TOR 02/13/2013 TOR @ NYK W 4 0 0 2 0.0 0 0 - 0 0 - 0 0 0 0 0 0 0 2 -11
p289
aVKyle Lowry TOR 02/13/2013 TOR @ NYK W 26 12 3 8 37.5 1 4 25.0 5 6 83.3 0 1 1 1 1 0 0 2 4
p290
aVAlan Anderson TOR 02/13/2013 TOR @ NYK W 30 26 10 16 62.5 6 8 75.0 0 0 - 1 0 1 3 0 0 2 2 6
p291
aVAndrea Bargnani TOR 02/13/2013 TOR @ NYK W 12 2 1 1 100.0 0 0 - 0 0 - 0 0 0 0 0 1 1 0 2
p292
aVJonas Valanciunas TOR 02/13/2013 TOR @ NYK W 13 0 0 1 0.0 0 0 - 0 0 - 3 2 5 0 1 1 1 4 2
p293
aVAmir Johnson TOR 02/13/2013 TOR @ NYK W 29 5 2 4 50.0 0 0 - 1 2 50.0 2 3 5 0 0 4 0 4 7
p294
aVDeMar DeRozan TOR 02/13/2013 TOR @ NYK W 40 20 5 11 45.5 0 1 0.0 10 10 100.0 0 4 4 3 0 0 3 2 10
p295
aVRudy Gay TOR 02/13/2013 TOR @ NYK W 41 11 4 21 19.0 0 5 0.0 3 4 75.0 1 7 8 4 1 1 1 2 6
p296
aVJohn Lucas III TOR 02/13/2013 TOR @ NYK W 22 12 4 5 80.0 2 3 66.7 2 2 100.0 0 1 1 1 0 0 0 1 0
p297
aVLandry Fields TOR 02/13/2013 TOR @ NYK W 24 4 2 4 50.0 0 0 - 0 0 - 1 9 10 0 0 1 2 1 -6
p298
aVLandry Fields TOR 02/12/2013 TOR vs. DEN W 15 8 2 3 66.7 0 0 - 4 5 80.0 0 2 2 0 1 0 1 0 0
p299
aVRudy Gay TOR 02/12/2013 TOR vs. DEN W 25 17 6 14 42.9 1 2 50.0 4 5 80.0 3 1 4 3 3 0 2 5 10
p300
aVAlan Anderson TOR 02/12/2013 TOR vs. DEN W 13 10 4 7 57.1 2 3 66.7 0 0 - 1 0 1 0 0 0 0 0 -7
p301
aVTerrence Ross TOR 02/12/2013 TOR vs. DEN W 14 7 3 6 50.0 1 2 50.0 0 0 - 1 1 2 0 0 0 2 3 -5
p302
aVAmir Johnson TOR 02/12/2013 TOR vs. DEN W 34 8 4 6 66.7 0 0 - 0 0 - 3 4 7 3 2 2 0 5 2
p303
aVJohn Lucas III TOR 02/12/2013 TOR vs. DEN W 14 14 5 9 55.6 4 6 66.7 0 0 - 1 0 1 2 0 0 0 2 1
p304
aVKyle Lowry TOR 02/12/2013 TOR vs. DEN W 37 11 4 10 40.0 2 4 50.0 1 1 100.0 1 3 4 10 2 0 4 3 0
p305
aVJonas Valanciunas TOR 02/12/2013 TOR vs. DEN W 32 8 1 3 33.3 0 0 - 6 6 100.0 3 5 8 2 0 2 4 3 11
p306
aVAndrea Bargnani TOR 02/12/2013 TOR vs. DEN W 18 4 2 7 28.6 0 3 0.0 0 0 - 0 1 1 0 0 0 2 0 -8
p307
aVDeMar DeRozan TOR 02/12/2013 TOR vs. DEN W 39 22 8 18 44.4 0 1 0.0 6 6 100.0 2 6 8 3 2 1 2 0 1
p308
aVJonas Valanciunas TOR 02/10/2013 TOR vs. NOH W 34 11 5 8 62.5 0 0 - 1 2 50.0 4 6 10 0 0 2 2 5 19
p309
aVJohn Lucas III TOR 02/10/2013 TOR vs. NOH W 19 19 7 11 63.6 5 5 100.0 0 0 - 0 0 0 2 0 0 0 2 -2
p310
aVKyle Lowry TOR 02/10/2013 TOR vs. NOH W 29 14 4 7 57.1 2 3 66.7 4 4 100.0 1 4 5 10 2 0 2 3 15
p311
aVRudy Gay TOR 02/10/2013 TOR vs. NOH W 41 20 8 19 42.1 0 4 0.0 4 4 100.0 3 5 8 4 2 1 1 3 27
p312
aVTerrence Ross TOR 02/10/2013 TOR vs. NOH W 8 0 0 1 0.0 0 1 0.0 0 0 - 0 0 0 0 0 0 0 0 -9
p313
aVLandry Fields TOR 02/10/2013 TOR vs. NOH W 18 4 2 3 66.7 0 0 - 0 0 - 1 1 2 1 0 0 0 0 7
p314
aVAlan Anderson TOR 02/10/2013 TOR vs. NOH W 30 11 4 12 33.3 1 2 50.0 2 2 100.0 0 3 3 3 3 0 1 3 4
p315
aVAaron Gray TOR 02/10/2013 TOR vs. NOH W 2 2 1 1 100.0 0 0 - 0 0 - 0 0 0 0 0 0 0 2 1
p316
aVDeMar DeRozan TOR 02/10/2013 TOR vs. NOH W 32 7 3 7 42.9 0 1 0.0 1 2 50.0 0 4 4 2 0 0 4 2 0
p317
aVAmir Johnson TOR 02/10/2013 TOR vs. NOH W 27 14 6 9 66.7 0 0 - 2 4 50.0 3 4 7 2 0 1 1 1 3
p318
aVAaron Gray TOR 02/08/2013 TOR @ IND W 13 2 1 2 50.0 0 0 - 0 2 0.0 3 2 5 1 0 0 1 1 -9
p319
aVRudy Gay TOR 02/08/2013 TOR @ IND W 44 23 9 25 36.0 0 2 0.0 5 6 83.3 2 3 5 2 4 2 1 5 2
p320
aVJohn Lucas III TOR 02/08/2013 TOR @ IND W 19 6 3 10 30.0 0 2 0.0 0 0 - 0 1 1 2 0 0 0 0 6
p321
aVAndrea Bargnani TOR 02/08/2013 TOR @ IND W 29 14 7 10 70.0 0 1 0.0 0 0 - 1 1 2 1 2 0 4 5 6
p322
aVTerrence Ross TOR 02/08/2013 TOR @ IND W 18 3 1 5 20.0 1 2 50.0 0 0 - 0 1 1 1 0 1 0 2 5
p323
aVJonas Valanciunas TOR 02/08/2013 TOR @ IND W 26 14 6 10 60.0 0 0 - 2 2 100.0 5 8 13 0 1 2 1 4 2
p324
aVAlan Anderson TOR 02/08/2013 TOR @ IND W 4 0 0 1 0.0 0 1 0.0 0 0 - 0 1 1 1 0 0 1 2 5
p325
aVAmir Johnson TOR 02/08/2013 TOR @ IND W 36 14 7 12 58.3 0 0 - 0 0 - 6 8 14 3 1 2 3 6 -1
p326
aVDeMar DeRozan TOR 02/08/2013 TOR @ IND W 41 22 7 17 41.2 1 1 100.0 7 9 77.8 0 3 3 2 0 0 1 3 -2
p327
aVKyle Lowry TOR 02/08/2013 TOR @ IND W 34 2 1 4 25.0 0 0 - 0 0 - 0 1 1 6 1 2 2 3 -4
p328
aVAlan Anderson TOR 02/06/2013 TOR vs. BOS L 28 5 2 7 28.6 0 1 0.0 1 1 100.0 0 2 2 0 0 0 0 3 -10
p329
aVAndrea Bargnani TOR 02/06/2013 TOR vs. BOS L 24 13 5 10 50.0 0 3 0.0 3 3 100.0 1 2 3 2 2 0 1 2 2
p330
aVDeMar DeRozan TOR 02/06/2013 TOR vs. BOS L 40 13 5 16 31.3 0 1 0.0 3 5 60.0 1 2 3 2 1 0 2 2 -1
p331
aVTerrence Ross TOR 02/06/2013 TOR vs. BOS L 5 0 0 0 - 0 0 - 0 0 - 0 0 0 1 0 1 1 1 0
p332
aVKyle Lowry TOR 02/06/2013 TOR vs. BOS L 38 17 6 12 50.0 3 6 50.0 2 3 66.7 2 5 7 8 4 0 4 5 8
p333
aVJohn Lucas III TOR 02/06/2013 TOR vs. BOS L 10 2 0 0 - 0 0 - 2 2 100.0 0 2 2 1 0 0 1 1 -12
p334
aVRudy Gay TOR 02/06/2013 TOR vs. BOS L 41 25 8 24 33.3 1 7 14.3 8 8 100.0 2 10 12 3 4 0 3 3 1
p335
aVAmir Johnson TOR 02/06/2013 TOR vs. BOS L 33 16 8 12 66.7 0 0 - 0 0 - 5 7 12 1 1 1 1 4 -3
p336
aVAaron Gray TOR 02/06/2013 TOR vs. BOS L 20 4 0 1 0.0 0 0 - 4 4 100.0 1 1 2 0 0 0 2 2 -2
p337
aVJonas Valanciunas TOR 02/06/2013 TOR vs. BOS L 2 0 0 0 - 0 0 - 0 0 - 0 0 0 0 0 0 0 0 -3
p338
aVRudy Gay TOR 02/03/2013 TOR vs. MIA L 42 29 11 23 47.8 1 5 20.0 6 7 85.7 1 3 4 2 3 1 2 4 -19
p339
aVTerrence Ross TOR 02/03/2013 TOR vs. MIA L 14 3 1 4 25.0 1 3 33.3 0 0 - 0 3 3 1 0 0 0 2 -1
p340
aVKyle Lowry TOR 02/03/2013 TOR vs. MIA L 31 10 3 7 42.9 1 2 50.0 3 4 75.0 1 3 4 3 0 0 5 4 -16
p341
aVDeMar DeRozan TOR 02/03/2013 TOR vs. MIA L 44 27 6 17 35.3 1 3 33.3 14 14 100.0 0 3 3 3 0 0 3 2 -21
p342
aVAmir Johnson TOR 02/03/2013 TOR vs. MIA L 31 2 1 4 25.0 0 0 - 0 0 - 4 3 7 2 5 2 2 4 -6
p343
aVJonas Valanciunas TOR 02/03/2013 TOR vs. MIA L 5 2 1 1 100.0 0 0 - 0 0 - 0 1 1 0 0 0 0 2 -3
p344
aVAlan Anderson TOR 02/03/2013 TOR vs. MIA L 33 4 1 7 14.3 0 3 0.0 2 3 66.7 1 2 3 3 0 0 3 3 -1
p345
aVAaron Gray TOR 02/03/2013 TOR vs. MIA L 23 6 3 6 50.0 0 0 - 0 4 0.0 7 5 12 0 0 0 0 2 -9
p346
aVJohn Lucas III TOR 02/03/2013 TOR vs. MIA L 17 2 1 6 16.7 0 2 0.0 0 0 - 0 1 1 1 2 0 0 1 1
p347
aVAmir Johnson TOR 02/01/2013 TOR vs. LAC W 37 19 7 9 77.8 0 0 - 5 8 62.5 5 11 16 3 1 1 2 5 27
p348
aVJonas Valanciunas TOR 02/01/2013 TOR vs. LAC W 13 0 0 1 0.0 0 0 - 0 0 - 1 2 3 0 0 0 2 5 14
p349
aVDeMar DeRozan TOR 02/01/2013 TOR vs. LAC W 34 19 8 17 47.1 2 3 66.7 1 1 100.0 0 2 2 7 1 1 2 0 31
p350
aVAaron Gray TOR 02/01/2013 TOR vs. LAC W 25 7 3 6 50.0 0 0 - 1 2 50.0 4 8 12 4 0 0 1 3 10
p351
aVRudy Gay TOR 02/01/2013 TOR vs. LAC W 33 20 8 16 50.0 3 6 50.0 1 2 50.0 0 3 3 1 1 1 2 3 20
p352
aVTerrence Ross TOR 02/01/2013 TOR vs. LAC W 15 4 2 8 25.0 0 2 0.0 0 0 - 0 0 0 3 0 0 1 3 -6
p353
aVKyle Lowry TOR 02/01/2013 TOR vs. LAC W 32 3 1 6 16.7 1 4 25.0 0 0 - 1 4 5 8 2 1 0 2 28
p354
aVLandry Fields TOR 02/01/2013 TOR vs. LAC W 15 8 3 4 75.0 1 1 100.0 1 2 50.0 0 1 1 0 1 2 0 0 5
p355
aVQuincy Acy TOR 02/01/2013 TOR vs. LAC W 2 1 0 1 0.0 0 0 - 1 2 50.0 0 1 1 0 0 0 0 1 -2
p356
aVAlan Anderson TOR 02/01/2013 TOR vs. LAC W 13 0 0 4 0.0 0 3 0.0 0 0 - 0 1 1 3 1 0 0 2 -5
p357
aVJohn Lucas III TOR 02/01/2013 TOR vs. LAC W 19 17 6 9 66.7 5 7 71.4 0 0 - 0 1 1 1 0 0 2 1 3
p358
aVAlan Anderson TOR 01/30/2013 TOR @ ATL L 35 15 3 12 25.0 2 5 40.0 7 8 87.5 0 4 4 3 1 0 4 3 -8
p359
aVQuincy Acy TOR 01/30/2013 TOR @ ATL L 7 2 1 1 100.0 0 0 - 0 0 - 1 1 2 0 0 0 1 1 3
p360
aVLandry Fields TOR 01/30/2013 TOR @ ATL L 15 3 1 5 20.0 0 0 - 1 2 50.0 0 4 4 2 0 0 0 0 3
p361
aVDeMar DeRozan TOR 01/30/2013 TOR @ ATL L 35 23 8 16 50.0 2 3 66.7 5 6 83.3 1 3 4 2 2 0 2 1 -3
p362
aVJohn Lucas III TOR 01/30/2013 TOR @ ATL L 24 19 8 16 50.0 3 7 42.9 0 0 - 0 0 0 2 0 0 2 1 4
p363
aVAaron Gray TOR 01/30/2013 TOR @ ATL L 35 8 4 8 50.0 0 0 - 0 0 - 4 7 11 1 0 1 1 3 -11
p364
aVKyle Lowry TOR 01/30/2013 TOR @ ATL L 30 14 5 11 45.5 2 3 66.7 2 2 100.0 3 7 10 5 1 0 3 3 -4
p365
aVAmir Johnson TOR 01/30/2013 TOR @ ATL L 39 6 3 12 25.0 0 1 0.0 0 3 0.0 5 9 14 0 0 4 2 4 1
p366
aVTerrence Ross TOR 01/30/2013 TOR @ ATL L 21 2 0 4 0.0 0 3 0.0 2 2 100.0 1 2 3 1 2 0 2 2 10
p367
aVAaron Gray TOR 01/28/2013 TOR vs. GSW L 32 22 9 12 75.0 0 0 - 4 4 100.0 6 4 10 1 2 0 1 2 -4
p368
aVJose Calderon TOR 01/28/2013 TOR vs. GSW L 35 11 4 13 30.8 3 9 33.3 0 0 - 0 4 4 7 0 0 3 2 -4
p369
aVDeMar DeRozan TOR 01/28/2013 TOR vs. GSW L 36 21 7 18 38.9 0 1 0.0 7 8 87.5 0 0 0 9 0 0 1 2 -4
p370
aVAlan Anderson TOR 01/28/2013 TOR vs. GSW L 26 11 2 11 18.2 1 4 25.0 6 7 85.7 0 4 4 2 3 0 0 2 -6
p371
aVAmir Johnson TOR 01/28/2013 TOR vs. GSW L 24 9 4 6 66.7 0 0 - 1 1 100.0 2 3 5 1 1 1 2 3 1
p372
aVTerrence Ross TOR 01/28/2013 TOR vs. GSW L 23 11 5 9 55.6 1 3 33.3 0 0 - 1 1 2 2 0 0 1 2 -13
p373
aVEd Davis TOR 01/28/2013 TOR vs. GSW L 37 12 5 12 41.7 0 0 - 2 3 66.7 1 8 9 3 1 3 1 4 -19
p374
aVLandry Fields TOR 01/28/2013 TOR vs. GSW L 13 2 1 1 100.0 0 0 - 0 0 - 0 2 2 0 0 0 1 0 -2
p375
aVJohn Lucas III TOR 01/28/2013 TOR vs. GSW L 14 3 1 5 20.0 1 2 50.0 0 0 - 1 0 1 3 0 0 0 1 -9
p376
aVJose Calderon TOR 01/26/2013 TOR vs. CLE L 26 10 4 9 44.4 2 6 33.3 0 0 - 0 1 1 5 1 0 3 2 7
p377
aVAmir Johnson TOR 01/26/2013 TOR vs. CLE L 37 18 7 12 58.3 0 0 - 4 4 100.0 3 9 12 1 1 1 3 5 13
p378
aVTerrence Ross TOR 01/26/2013 TOR vs. CLE L 19 8 3 4 75.0 2 3 66.7 0 0 - 0 1 1 0 0 0 1 1 -12
p379
aVKyle Lowry TOR 01/26/2013 TOR vs. CLE L 22 6 1 7 14.3 1 4 25.0 3 4 75.0 1 4 5 7 0 0 1 3 -8
p380
aVAlan Anderson TOR 01/26/2013 TOR vs. CLE L 31 17 7 14 50.0 0 2 0.0 3 4 75.0 1 1 2 3 2 0 1 4 -10
p381
aVQuincy Acy TOR 01/26/2013 TOR vs. CLE L 12 4 2 4 50.0 0 0 - 0 0 - 0 0 0 0 0 2 1 3 -1
p382
aVLandry Fields TOR 01/26/2013 TOR vs. CLE L 22 4 1 3 33.3 0 1 0.0 2 2 100.0 2 3 5 3 0 0 2 0 1
p383
aVEd Davis TOR 01/26/2013 TOR vs. CLE L 36 16 8 12 66.7 0 0 - 0 1 0.0 3 6 9 1 1 0 2 3 -4
p384
aVDeMar DeRozan TOR 01/26/2013 TOR vs. CLE L 35 15 7 17 41.2 0 1 0.0 1 3 33.3 1 3 4 2 1 1 1 2 9
p385
aVJose Calderon TOR 01/24/2013 TOR @ ORL W 27 10 4 7 57.1 1 4 25.0 1 1 100.0 0 1 1 6 0 0 1 2 2
p386
aVKyle Lowry TOR 01/24/2013 TOR @ ORL W 21 3 1 3 33.3 1 3 33.3 0 0 - 0 4 4 6 0 0 4 1 0
p387
aVAmir Johnson TOR 01/24/2013 TOR @ ORL W 37 21 9 18 50.0 0 0 - 3 5 60.0 3 7 10 0 1 3 2 3 14
p388
aVLandry Fields TOR 01/24/2013 TOR @ ORL W 23 4 1 4 25.0 0 1 0.0 2 2 100.0 2 3 5 2 1 0 1 2 -2
p389
aVDeMar DeRozan TOR 01/24/2013 TOR @ ORL W 43 22 10 17 58.8 0 0 - 2 2 100.0 0 4 4 7 0 1 1 3 4
p390
aVAaron Gray TOR 01/24/2013 TOR @ ORL W 7 2 1 1 100.0 0 0 - 0 0 - 0 0 0 0 0 0 0 0 3
p391
aVAlan Anderson TOR 01/24/2013 TOR @ ORL W 28 13 4 9 44.4 0 4 0.0 5 5 100.0 0 4 4 3 0 0 0 1 4
p392
aVEd Davis TOR 01/24/2013 TOR @ ORL W 31 12 5 11 45.5 0 0 - 2 4 50.0 2 6 8 1 0 3 1 4 -12
p393
aVTerrence Ross TOR 01/24/2013 TOR @ ORL W 24 10 4 8 50.0 2 4 50.0 0 0 - 0 2 2 0 1 0 0 4 -3
p394
aVAmir Johnson TOR 01/23/2013 TOR @ MIA L 32 15 6 9 66.7 0 0 - 3 3 100.0 2 4 6 2 1 1 2 6 2
p395
aVAaron Gray TOR 01/23/2013 TOR @ MIA L 7 0 0 0 - 0 0 - 0 0 - 1 1 2 0 0 0 0 1 -1
p396
aVDeMar DeRozan TOR 01/23/2013 TOR @ MIA L 32 12 5 10 50.0 0 1 0.0 2 4 50.0 0 2 2 7 1 0 1 4 2
p397
aVLandry Fields TOR 01/23/2013 TOR @ MIA L 35 7 3 5 60.0 0 0 - 1 2 50.0 1 4 5 4 1 0 0 3 -2
p398
aVEd Davis TOR 01/23/2013 TOR @ MIA L 24 13 5 8 62.5 0 0 - 3 4 75.0 2 3 5 2 0 0 1 4 -10
p399
aVTerrence Ross TOR 01/23/2013 TOR @ MIA L 26 16 7 16 43.8 2 7 28.6 0 0 - 0 2 2 2 2 0 1 3 -3
p400
aVAlan Anderson TOR 01/23/2013 TOR @ MIA L 36 20 7 18 38.9 4 12 33.3 2 2 100.0 0 1 1 2 0 0 1 1 -11
p401
aVJose Calderon TOR 01/23/2013 TOR @ MIA L 31 17 6 9 66.7 5 6 83.3 0 0 - 0 0 0 3 1 0 0 0 -15
p402
aVQuincy Acy TOR 01/23/2013 TOR @ MIA L 4 0 0 0 - 0 0 - 0 0 - 0 0 0 0 1 0 0 2 3
p403
aVKyle Lowry TOR 01/23/2013 TOR @ MIA L 28 13 4 11 36.4 2 4 50.0 3 3 100.0 1 3 4 1 1 0 2 5 -2
p404
aVJohn Lucas III TOR 01/23/2013 TOR @ MIA L 11 3 1 2 50.0 1 1 100.0 0 0 - 0 1 1 3 0 0 0 1 2
p405
aVLandry Fields TOR 01/20/2013 TOR vs. LAL W 38 18 8 11 72.7 0 1 0.0 2 4 50.0 3 7 10 0 4 0 1 1 8
p406
aVQuincy Acy TOR 01/20/2013 TOR vs. LAL W 8 2 1 2 50.0 0 0 - 0 0 - 0 0 0 0 1 0 0 1 1
p407
aVKyle Lowry TOR 01/20/2013 TOR vs. LAL W 18 8 2 3 66.7 2 3 66.7 2 3 66.7 1 3 4 2 3 0 0 2 -2
p408
aVAmir Johnson TOR 01/20/2013 TOR vs. LAL W 22 9 4 6 66.7 0 0 - 1 2 50.0 3 5 8 3 0 1 1 5 2
p409
aVAlan Anderson TOR 01/20/2013 TOR vs. LAL W 28 14 5 13 38.5 3 7 42.9 1 2 50.0 0 2 2 8 3 0 3 0 -15
p410
aVJose Calderon TOR 01/20/2013 TOR vs. LAL W 30 22 9 15 60.0 1 4 25.0 3 3 100.0 0 2 2 9 0 0 3 4 7
p411
aVAaron Gray TOR 01/20/2013 TOR vs. LAL W 16 5 2 5 40.0 0 0 - 1 1 100.0 1 1 2 1 0 1 1 4 12
p412
aVTerrence Ross TOR 01/20/2013 TOR vs. LAL W 18 4 2 7 28.6 0 4 0.0 0 0 - 0 1 1 1 0 0 0 1 -5
p413
aVDeMar DeRozan TOR 01/20/2013 TOR vs. LAL W 30 8 4 9 44.4 0 1 0.0 0 0 - 0 3 3 3 0 0 5 3 10
p414
aVEd Davis TOR 01/20/2013 TOR vs. LAL W 31 18 9 13 69.2 0 0 - 0 2 0.0 2 6 8 0 0 0 1 1 7
p415
aVTerrence Ross TOR 01/18/2013 TOR @ PHI L 25 18 7 14 50.0 4 5 80.0 0 0 - 1 6 7 1 1 0 0 3 5
p416
aVAmir Johnson TOR 01/18/2013 TOR @ PHI L 47 9 4 8 50.0 0 0 - 1 2 50.0 2 3 5 5 2 0 3 3 -13
p417
aVKyle Lowry TOR 01/18/2013 TOR @ PHI L 36 11 3 11 27.3 2 7 28.6 3 3 100.0 1 4 5 11 0 0 5 6 -5
p418
aVQuincy Acy TOR 01/18/2013 TOR @ PHI L 15 4 2 3 66.7 0 0 - 0 0 - 2 1 3 0 0 1 1 5 11
p419
aVLandry Fields TOR 01/18/2013 TOR @ PHI L 13 2 1 3 33.3 0 0 - 0 0 - 1 1 2 0 0 1 1 0 -11
p420
aVDeMar DeRozan TOR 01/18/2013 TOR @ PHI L 33 8 4 10 40.0 0 3 0.0 0 0 - 0 4 4 0 1 1 2 0 -10
p421
aVJose Calderon TOR 01/18/2013 TOR @ PHI L 20 13 5 7 71.4 3 5 60.0 0 0 - 0 1 1 4 0 0 2 2 -4
p422
aVAlan Anderson TOR 01/18/2013 TOR @ PHI L 34 18 6 17 35.3 2 5 40.0 4 5 80.0 1 4 5 2 1 0 1 0 -3
p423
aVEd Davis TOR 01/18/2013 TOR @ PHI L 42 18 8 15 53.3 0 0 - 2 3 66.7 2 8 10 6 1 2 3 0 -5
p424
aVTerrence Ross TOR 01/16/2013 TOR vs. CHI L 14 0 0 1 0.0 0 0 - 0 0 - 0 1 1 0 0 0 1 1 0
p425
aVQuincy Acy TOR 01/16/2013 TOR vs. CHI L 15 8 4 4 100.0 0 0 - 0 0 - 1 5 6 2 1 1 0 4 14
p426
aVAlan Anderson TOR 01/16/2013 TOR vs. CHI L 35 27 10 18 55.6 4 9 44.4 3 4 75.0 1 4 5 1 1 0 1 6 21
p427
aVJose Calderon TOR 01/16/2013 TOR vs. CHI L 21 9 3 10 30.0 0 3 0.0 3 3 100.0 0 2 2 6 0 0 1 0 -13
p428
aVAaron Gray TOR 01/16/2013 TOR vs. CHI L 5 0 0 0 - 0 0 - 0 0 - 0 0 0 0 0 0 1 2 -4
p429
aVAmir Johnson TOR 01/16/2013 TOR vs. CHI L 44 5 2 9 22.2 0 0 - 1 4 25.0 5 5 10 2 2 1 4 5 1
p430
aVLandry Fields TOR 01/16/2013 TOR vs. CHI L 18 1 0 3 0.0 0 0 - 1 2 50.0 2 3 5 0 0 1 1 1 -17
p431
aVEd Davis TOR 01/16/2013 TOR vs. CHI L 38 11 5 12 41.7 0 0 - 1 2 50.0 2 4 6 1 0 2 1 4 -16
p432
aVKyle Lowry TOR 01/16/2013 TOR vs. CHI L 34 26 8 15 53.3 2 4 50.0 8 11 72.7 2 3 5 7 2 0 0 2 16
p433
aVDeMar DeRozan TOR 01/16/2013 TOR vs. CHI L 40 18 6 13 46.2 0 0 - 6 6 100.0 0 3 3 1 0 0 2 4 -12
p434
aVEd Davis TOR 01/15/2013 TOR @ BKN L 29 12 6 10 60.0 0 0 - 0 0 - 2 5 7 2 0 0 2 3 -11
p435
aVLandry Fields TOR 01/15/2013 TOR @ BKN L 40 8 4 6 66.7 0 0 - 0 0 - 2 9 11 5 2 0 1 3 -13
p436
aVAmir Johnson TOR 01/15/2013 TOR @ BKN L 26 15 6 7 85.7 0 0 - 3 6 50.0 4 2 6 1 1 1 2 4 5
p437
aVQuincy Acy TOR 01/15/2013 TOR @ BKN L 6 6 2 2 100.0 0 0 - 2 2 100.0 0 0 0 0 0 0 1 0 6
p438
aVJohn Lucas III TOR 01/15/2013 TOR @ BKN L 12 5 2 6 33.3 0 0 - 1 1 100.0 0 0 0 1 0 0 0 0 0
p439
aVAaron Gray TOR 01/15/2013 TOR @ BKN L 17 6 2 5 40.0 0 0 - 2 2 100.0 0 2 2 3 0 0 3 2 -4
p440
aVKyle Lowry TOR 01/15/2013 TOR @ BKN L 15 21 5 7 71.4 4 5 80.0 7 7 100.0 0 1 1 2 0 0 0 5 16
p441
aVAlan Anderson TOR 01/15/2013 TOR @ BKN L 9 2 0 4 0.0 0 1 0.0 2 3 66.7 0 0 0 0 0 0 1 0 -5
p442
aVTerrence Ross TOR 01/15/2013 TOR @ BKN L 23 4 2 9 22.2 0 3 0.0 0 0 - 3 6 9 1 0 0 1 2 5
p443
aVJose Calderon TOR 01/15/2013 TOR @ BKN L 29 15 6 11 54.5 3 4 75.0 0 0 - 0 3 3 5 0 0 0 1 -15
p444
aVDeMar DeRozan TOR 01/15/2013 TOR @ BKN L 34 12 5 15 33.3 0 0 - 2 2 100.0 2 0 2 1 0 0 2 1 -19
p445
aVJose Calderon TOR 01/13/2013 TOR vs. MIL L 31 21 9 15 60.0 3 4 75.0 0 0 - 0 2 2 8 1 0 0 1 2
p446
aVEd Davis TOR 01/13/2013 TOR vs. MIL L 36 20 8 12 66.7 0 0 - 4 7 57.1 7 5 12 2 1 0 1 5 11
p447
aVQuincy Acy TOR 01/13/2013 TOR vs. MIL L 13 2 0 3 0.0 0 0 - 2 2 100.0 1 1 2 0 0 0 1 1 -20
p448
aVTerrence Ross TOR 01/13/2013 TOR vs. MIL L 3 0 0 1 0.0 0 0 - 0 0 - 0 0 0 0 0 0 3 0 -9
p449
aVAmir Johnson TOR 01/13/2013 TOR vs. MIL L 44 22 9 16 56.3 0 0 - 4 4 100.0 5 9 14 4 3 2 4 4 -6
p450
aVLandry Fields TOR 01/13/2013 TOR vs. MIL L 29 3 1 5 20.0 0 1 0.0 1 2 50.0 1 0 1 2 0 0 1 4 -9
p451
aVDeMar DeRozan TOR 01/13/2013 TOR vs. MIL L 37 23 7 19 36.8 0 2 0.0 9 10 90.0 2 3 5 2 0 0 1 4 3
p452
aVKyle Lowry TOR 01/13/2013 TOR vs. MIL L 17 0 0 4 0.0 0 1 0.0 0 0 - 0 2 2 6 1 0 1 0 -13
p453
aVAlan Anderson TOR 01/13/2013 TOR vs. MIL L 29 5 2 10 20.0 0 5 0.0 1 2 50.0 1 1 2 1 1 0 3 2 -14
p454
aVDeMar DeRozan TOR 01/11/2013 TOR vs. CHA W 34 6 2 8 25.0 0 1 0.0 2 2 100.0 0 2 2 3 1 0 1 1 12
p455
aVAlan Anderson TOR 01/11/2013 TOR vs. CHA W 26 16 6 17 35.3 4 9 44.4 0 0 - 1 2 3 2 1 0 1 2 14
p456
aVAmir Johnson TOR 01/11/2013 TOR vs. CHA W 31 13 6 10 60.0 0 0 - 1 2 50.0 3 5 8 2 2 2 1 3 21
p457
aVJohn Lucas III TOR 01/11/2013 TOR vs. CHA W 4 7 3 4 75.0 1 1 100.0 0 0 - 1 1 2 0 0 0 0 0 -1
p458
aVTerrence Ross TOR 01/11/2013 TOR vs. CHA W 15 7 3 6 50.0 1 4 25.0 0 0 - 1 1 2 2 2 0 0 2 6
p459
aVQuincy Acy TOR 01/11/2013 TOR vs. CHA W 18 6 3 7 42.9 0 0 - 0 0 - 5 1 6 0 0 2 2 4 7
p460
aVJose Calderon TOR 01/11/2013 TOR vs. CHA W 23 15 6 9 66.7 3 5 60.0 0 0 - 0 0 0 6 1 0 0 2 16
p461
aVLandry Fields TOR 01/11/2013 TOR vs. CHA W 34 8 2 8 25.0 0 1 0.0 4 4 100.0 6 5 11 2 0 0 2 3 11
p462
aVEd Davis TOR 01/11/2013 TOR vs. CHA W 23 12 5 11 45.5 0 0 - 2 3 66.7 3 5 8 1 0 1 0 2 15
p463
aVKyle Lowry TOR 01/11/2013 TOR vs. CHA W 25 9 3 6 50.0 3 6 50.0 0 0 - 0 2 2 6 0 0 2 1 5
p464
aVAaron Gray TOR 01/11/2013 TOR vs. CHA W 7 0 0 0 - 0 0 - 0 0 - 1 3 4 1 0 1 2 2 -1
p465
aVAmir Johnson TOR 01/09/2013 TOR vs. PHI W 40 19 6 11 54.5 0 0 - 7 8 87.5 4 8 12 5 1 1 1 3 21
p466
aVJose Calderon TOR 01/09/2013 TOR vs. PHI W 31 14 7 12 58.3 0 3 0.0 0 0 - 1 1 2 11 1 0 0 1 20
p467
aVMickael Pietrus TOR 01/09/2013 TOR vs. PHI W 8 0 0 3 0.0 0 2 0.0 0 0 - 0 4 4 0 1 0 0 1 -2
p468
aVEd Davis TOR 01/09/2013 TOR vs. PHI W 35 17 8 14 57.1 0 0 - 1 2 50.0 2 7 9 2 0 0 3 5 15
p469
aVAlan Anderson TOR 01/09/2013 TOR vs. PHI W 25 9 4 13 30.8 1 4 25.0 0 0 - 0 1 1 2 1 1 3 3 -1
p470
aVDeMar DeRozan TOR 01/09/2013 TOR vs. PHI W 41 19 8 15 53.3 0 1 0.0 3 3 100.0 0 5 5 1 1 1 1 2 21
p471
aVLandry Fields TOR 01/09/2013 TOR vs. PHI W 42 10 5 10 50.0 0 0 - 0 0 - 2 9 11 1 3 0 3 0 18
p472
aVKyle Lowry TOR 01/09/2013 TOR vs. PHI W 17 2 1 2 50.0 0 1 0.0 0 0 - 1 1 2 4 1 0 0 1 -2
p473
aVJohn Lucas III TOR 01/06/2013 TOR vs. OKC L 3 0 0 2 0.0 0 1 0.0 0 0 - 0 2 2 0 0 0 0 0 6
p474
aVEd Davis TOR 01/06/2013 TOR vs. OKC L 34 4 2 7 28.6 0 0 - 0 0 - 0 3 3 0 0 0 1 2 -15
p475
aVDeMar DeRozan TOR 01/06/2013 TOR vs. OKC L 33 11 4 16 25.0 0 1 0.0 3 4 75.0 1 2 3 2 1 0 2 2 -14
p476
aVKyle Lowry TOR 01/06/2013 TOR vs. OKC L 23 10 3 8 37.5 2 4 50.0 2 3 66.7 0 2 2 8 1 0 4 4 -7
p477
aVLandry Fields TOR 01/06/2013 TOR vs. OKC L 15 2 1 3 33.3 0 0 - 0 0 - 1 2 3 1 0 0 1 2 0
p478
aVQuincy Acy TOR 01/06/2013 TOR vs. OKC L 3 6 1 1 100.0 0 0 - 4 4 100.0 0 1 1 0 1 0 0 0 6
p479
aVAlan Anderson TOR 01/06/2013 TOR vs. OKC L 33 27 10 14 71.4 4 8 50.0 3 3 100.0 1 3 4 3 1 0 3 2 0
p480
aVJose Calderon TOR 01/06/2013 TOR vs. OKC L 31 10 4 8 50.0 1 4 25.0 1 1 100.0 0 2 2 11 2 0 1 2 -12
p481
aVMickael Pietrus TOR 01/06/2013 TOR vs. OKC L 16 3 1 4 25.0 1 4 25.0 0 0 - 0 1 1 1 0 0 1 1 -18
p482
aVAmir Johnson TOR 01/06/2013 TOR vs. OKC L 38 19 8 11 72.7 0 0 - 3 4 75.0 4 5 9 0 0 3 3 1 -18
p483
aVTerrence Ross TOR 01/06/2013 TOR vs. OKC L 12 0 0 2 0.0 0 1 0.0 0 2 0.0 0 1 1 2 1 0 0 2 12
p484
aVTerrence Ross TOR 01/04/2013 TOR vs. SAC L 18 3 1 7 14.3 1 6 16.7 0 0 - 0 1 1 2 0 1 0 2 3
p485
aVAmir Johnson TOR 01/04/2013 TOR vs. SAC L 9 0 0 0 - 0 0 - 0 2 0.0 0 1 1 0 1 0 0 6 -5
p486
aVQuincy Acy TOR 01/04/2013 TOR vs. SAC L 12 0 0 2 0.0 0 0 - 0 0 - 4 1 5 0 0 0 1 3 9
p487
aVKyle Lowry TOR 01/04/2013 TOR vs. SAC L 28 24 5 10 50.0 4 7 57.1 10 12 83.3 0 3 3 4 2 0 2 2 15
p488
aVAaron Gray TOR 01/04/2013 TOR vs. SAC L 7 0 0 2 0.0 0 0 - 0 2 0.0 1 1 2 0 0 0 3 3 -8
p489
aVJose Calderon TOR 01/04/2013 TOR vs. SAC L 27 13 5 11 45.5 3 7 42.9 0 0 - 1 0 1 3 0 0 2 2 -21
p490
aVJohn Lucas III TOR 01/04/2013 TOR vs. SAC L 7 2 1 3 33.3 0 1 0.0 0 0 - 1 1 2 1 0 0 0 0 6
p491
aVDeMar DeRozan TOR 01/04/2013 TOR vs. SAC L 33 14 3 11 27.3 0 2 0.0 8 10 80.0 0 4 4 1 1 0 2 2 -24
p492
aVEd Davis TOR 01/04/2013 TOR vs. SAC L 41 11 4 10 40.0 0 0 - 3 6 50.0 5 8 13 2 1 3 2 2 -21
p493
aVMickael Pietrus TOR 01/04/2013 TOR vs. SAC L 11 3 1 1 100.0 1 1 100.0 0 0 - 0 0 0 1 1 0 1 1 -12
p494
aVLandry Fields TOR 01/04/2013 TOR vs. SAC L 22 6 3 5 60.0 0 0 - 0 1 0.0 1 4 5 2 0 0 1 1 8
p495
aVAlan Anderson TOR 01/04/2013 TOR vs. SAC L 26 20 7 17 41.2 2 9 22.2 4 4 100.0 1 1 2 2 2 1 1 3 5
p496
aVKyle Lowry TOR 01/02/2013 TOR vs. POR W 22 0 0 2 0.0 0 2 0.0 0 0 - 1 1 2 9 2 0 2 2 5
p497
aVJose Calderon TOR 01/02/2013 TOR vs. POR W 23 0 0 1 0.0 0 1 0.0 0 0 - 0 1 1 13 0 0 0 0 15
p498
aVJohn Lucas III TOR 01/02/2013 TOR vs. POR W 3 3 1 2 50.0 1 2 50.0 0 0 - 1 0 1 1 0 0 0 0 3
p499
aVTerrence Ross TOR 01/02/2013 TOR vs. POR W 25 26 8 14 57.1 6 9 66.7 4 6 66.7 1 4 5 2 2 0 0 2 11
p500
aVAlan Anderson TOR 01/02/2013 TOR vs. POR W 20 4 2 9 22.2 0 2 0.0 0 0 - 1 1 2 2 1 0 2 3 8
p501
aVAmir Johnson TOR 01/02/2013 TOR vs. POR W 31 17 7 12 58.3 0 0 - 3 3 100.0 3 4 7 4 1 1 2 1 7
p502
aVQuincy Acy TOR 01/02/2013 TOR vs. POR W 5 2 0 0 - 0 0 - 2 2 100.0 0 0 0 0 0 1 0 2 1
p503
aVMickael Pietrus TOR 01/02/2013 TOR vs. POR W 17 0 0 4 0.0 0 4 0.0 0 0 - 0 1 1 0 1 0 0 0 11
p504
aVLandry Fields TOR 01/02/2013 TOR vs. POR W 20 7 3 4 75.0 0 0 - 1 1 100.0 0 7 7 1 1 0 2 3 13
p505
aVDeMar DeRozan TOR 01/02/2013 TOR vs. POR W 35 24 11 17 64.7 1 3 33.3 1 1 100.0 0 2 2 0 3 0 1 2 20
p506
aVEd Davis TOR 01/02/2013 TOR vs. POR W 30 19 9 12 75.0 0 0 - 1 4 25.0 0 7 7 1 1 0 1 1 12
p507
aVAaron Gray TOR 01/02/2013 TOR vs. POR W 9 0 0 0 - 0 0 - 0 0 - 0 1 1 1 0 0 1 4 9
p508
aVMickael Pietrus TOR 12/29/2012 TOR @ ORL W 22 9 3 6 50.0 3 5 60.0 0 0 - 1 1 2 3 0 0 0 2 16
p509
aVAlan Anderson TOR 12/29/2012 TOR @ ORL W 20 11 4 8 50.0 3 6 50.0 0 0 - 0 0 0 2 0 0 2 4 13
p510
aVAaron Gray TOR 12/29/2012 TOR @ ORL W 12 0 0 2 0.0 0 0 - 0 0 - 1 4 5 0 1 0 3 1 2
p511
aVTerrence Ross TOR 12/29/2012 TOR @ ORL W 22 16 6 10 60.0 4 5 80.0 0 0 - 1 2 3 1 0 1 0 2 20
p512
aVJose Calderon TOR 12/29/2012 TOR @ ORL W 24 15 6 10 60.0 2 5 40.0 1 1 100.0 0 3 3 10 0 0 1 0 9
p513
aVAmir Johnson TOR 12/29/2012 TOR @ ORL W 23 6 2 4 50.0 0 0 - 2 4 50.0 2 4 6 1 0 0 1 3 17
p514
aVDeMar DeRozan TOR 12/29/2012 TOR @ ORL W 33 21 7 14 50.0 0 0 - 7 8 87.5 0 3 3 3 1 0 0 2 21
p515
aVJohn Lucas III TOR 12/29/2012 TOR @ ORL W 3 3 1 1 100.0 1 1 100.0 0 0 - 0 1 1 3 0 0 0 0 9
p516
aVLandry Fields TOR 12/29/2012 TOR @ ORL W 21 6 3 3 100.0 0 0 - 0 0 - 3 6 9 2 0 0 0 1 20
p517
aVKyle Lowry TOR 12/29/2012 TOR @ ORL W 23 16 6 12 50.0 2 5 40.0 2 2 100.0 0 4 4 6 1 0 1 3 21
p518
aVQuincy Acy TOR 12/29/2012 TOR @ ORL W 3 2 1 1 100.0 0 0 - 0 0 - 1 0 1 0 0 0 0 0 9
p519
aVEd Davis TOR 12/29/2012 TOR @ ORL W 34 18 7 11 63.6 0 0 - 4 6 66.7 0 7 7 2 0 1 0 0 18
p520
aVKyle Lowry TOR 12/28/2012 TOR @ NOH W 28 17 5 7 71.4 1 2 50.0 6 6 100.0 0 3 3 8 1 2 0 4 15
p521
aVAlan Anderson TOR 12/28/2012 TOR @ NOH W 36 16 5 14 35.7 2 9 22.2 4 5 80.0 1 1 2 3 3 0 1 1 14
p522
aVDeMar DeRozan TOR 12/28/2012 TOR @ NOH W 49 30 9 22 40.9 1 3 33.3 11 13 84.6 1 5 6 1 3 0 0 1 6
p523
aVMickael Pietrus TOR 12/28/2012 TOR @ NOH W 11 5 2 3 66.7 1 1 100.0 0 0 - 0 0 0 0 1 0 1 3 -13
p524
aVTerrence Ross TOR 12/28/2012 TOR @ NOH W 24 4 1 8 12.5 0 6 0.0 2 2 100.0 1 4 5 0 1 0 0 1 12
p525
aVAmir Johnson TOR 12/28/2012 TOR @ NOH W 38 12 6 9 66.7 0 0 - 0 2 0.0 3 5 8 2 1 3 2 4 18
p526
aVLinas Kleiza TOR 12/28/2012 TOR @ NOH W 5 0 0 1 0.0 0 0 - 0 0 - 1 2 3 0 0 0 0 0 5
p527
aVJose Calderon TOR 12/28/2012 TOR @ NOH W 30 2 1 6 16.7 0 3 0.0 0 0 - 0 5 5 6 0 0 1 0 -8
p528
aVAaron Gray TOR 12/28/2012 TOR @ NOH W 15 5 2 3 66.7 0 0 - 1 3 33.3 2 2 4 1 0 0 1 4 -11
p529
aVEd Davis TOR 12/28/2012 TOR @ NOH W 29 13 6 12 50.0 0 0 - 1 1 100.0 0 5 5 3 0 1 1 4 -3
p530
aVMickael Pietrus TOR 12/26/2012 TOR @ SAS L 12 1 0 2 0.0 0 1 0.0 1 2 50.0 0 2 2 0 1 0 0 0 1
p531
aVAmir Johnson TOR 12/26/2012 TOR @ SAS L 24 12 6 8 75.0 0 0 - 0 0 - 2 4 6 1 1 1 0 4 -11
p532
aVAaron Gray TOR 12/26/2012 TOR @ SAS L 21 5 2 3 66.7 0 0 - 1 4 25.0 2 2 4 2 1 0 2 4 -6
p533
aVAlan Anderson TOR 12/26/2012 TOR @ SAS L 20 12 5 10 50.0 2 4 50.0 0 0 - 0 1 1 1 1 0 1 3 -15
p534
aVLandry Fields TOR 12/26/2012 TOR @ SAS L 19 2 1 2 50.0 0 0 - 0 0 - 0 2 2 1 0 0 2 1 -1
p535
aVEd Davis TOR 12/26/2012 TOR @ SAS L 25 6 3 7 42.9 0 0 - 0 0 - 3 4 7 1 2 1 2 3 -6
p536
aVLinas Kleiza TOR 12/26/2012 TOR @ SAS L 16 5 1 8 12.5 1 3 33.3 2 2 100.0 0 2 2 0 0 0 1 3 -9
p537
aVJose Calderon TOR 12/26/2012 TOR @ SAS L 27 7 3 9 33.3 1 3 33.3 0 0 - 1 3 4 10 1 0 3 0 -7
p538
aVQuincy Acy TOR 12/26/2012 TOR @ SAS L 3 0 0 0 - 0 0 - 0 0 - 1 1 2 0 0 0 0 0 -3
p539
aVTerrence Ross TOR 12/26/2012 TOR @ SAS L 26 11 5 10 50.0 1 3 33.3 0 0 - 0 1 1 1 1 0 2 1 -8
p540
aVJohn Lucas III TOR 12/26/2012 TOR @ SAS L 21 11 4 10 40.0 2 4 50.0 1 2 50.0 0 2 2 6 2 0 0 0 -13
p541
aVDeMar DeRozan TOR 12/26/2012 TOR @ SAS L 27 8 3 9 33.3 0 0 - 2 2 100.0 1 1 2 1 0 0 2 0 -22
p542
aVJohn Lucas III TOR 12/21/2012 TOR vs. ORL W 14 8 3 6 50.0 1 2 50.0 1 2 50.0 0 0 0 4 1 0 1 1 2
p543
aVAlan Anderson TOR 12/21/2012 TOR vs. ORL W 26 10 2 9 22.2 1 3 33.3 5 5 100.0 0 1 1 2 2 0 2 5 -4
p544
aVAmir Johnson TOR 12/21/2012 TOR vs. ORL W 35 10 4 9 44.4 0 0 - 2 2 100.0 1 6 7 1 2 2 1 4 11
p545
aVMickael Pietrus TOR 12/21/2012 TOR vs. ORL W 19 3 1 2 50.0 1 2 50.0 0 0 - 0 1 1 1 1 0 0 0 2
p546
aVJose Calderon TOR 12/21/2012 TOR vs. ORL W 34 13 6 9 66.7 1 2 50.0 0 1 0.0 1 3 4 9 2 0 2 2 1
p547
aVJonas Valanciunas TOR 12/21/2012 TOR vs. ORL W 4 0 0 0 - 0 0 - 0 0 - 1 0 1 0 0 0 0 0 -2
p548
aVEd Davis TOR 12/21/2012 TOR vs. ORL W 32 10 4 12 33.3 0 0 - 2 2 100.0 0 6 6 2 2 1 1 0 0
p549
aVDeMar DeRozan TOR 12/21/2012 TOR vs. ORL W 40 17 5 17 29.4 0 1 0.0 7 7 100.0 2 6 8 0 1 0 2 4 8
p550
aVLinas Kleiza TOR 12/21/2012 TOR vs. ORL W 13 9 3 9 33.3 1 4 25.0 2 2 100.0 1 2 3 1 0 0 0 4 1
p551
aVTerrence Ross TOR 12/21/2012 TOR vs. ORL W 23 13 5 8 62.5 3 5 60.0 0 0 - 1 0 1 0 2 1 0 0 -4
p552
aVEd Davis TOR 12/19/2012 TOR vs. DET W 28 11 5 7 71.4 0 0 - 1 2 50.0 2 7 9 0 0 2 0 2 7
p553
aVAlan Anderson TOR 12/19/2012 TOR vs. DET W 26 16 4 11 36.4 3 8 37.5 5 7 71.4 0 3 3 1 2 0 0 3 5
p554
aVMickael Pietrus TOR 12/19/2012 TOR vs. DET W 22 7 2 3 66.7 1 2 50.0 2 2 100.0 0 2 2 0 0 1 1 2 1
p555
aVJohn Lucas III TOR 12/19/2012 TOR vs. DET W 12 2 1 5 20.0 0 3 0.0 0 0 - 0 0 0 4 0 0 0 0 3
p556
aVDeMar DeRozan TOR 12/19/2012 TOR vs. DET W 37 23 10 19 52.6 2 4 50.0 1 2 50.0 1 1 2 1 1 1 0 2 1
p557
aVAmir Johnson TOR 12/19/2012 TOR vs. DET W 21 5 1 1 100.0 0 0 - 3 4 75.0 3 6 9 0 2 1 1 4 5
p558
aVLinas Kleiza TOR 12/19/2012 TOR vs. DET W 20 5 1 6 16.7 1 6 16.7 2 2 100.0 1 0 1 1 0 0 0 4 -1
p559
aVTerrence Ross TOR 12/19/2012 TOR vs. DET W 11 9 4 6 66.7 1 1 100.0 0 0 - 0 0 0 1 0 0 0 2 5
p560
aVJose Calderon TOR 12/19/2012 TOR vs. DET W 36 7 2 8 25.0 2 5 40.0 1 1 100.0 0 2 2 17 0 0 2 1 7
p561
aVJonas Valanciunas TOR 12/19/2012 TOR vs. DET W 27 12 5 6 83.3 0 0 - 2 2 100.0 2 3 5 1 0 1 2 4 -3
p562
aVLinas Kleiza TOR 12/18/2012 TOR @ CLE W 21 10 2 6 33.3 0 3 0.0 6 7 85.7 0 1 1 0 1 0 1 3 5
p563
aVMickael Pietrus TOR 12/18/2012 TOR @ CLE W 16 3 1 4 25.0 1 3 33.3 0 0 - 0 0 0 0 0 1 2 2 -6
p564
aVJonas Valanciunas TOR 12/18/2012 TOR @ CLE W 19 8 3 6 50.0 0 0 - 2 4 50.0 0 7 7 1 1 0 0 1 -2
p565
aVJose Calderon TOR 12/18/2012 TOR @ CLE W 33 23 10 15 66.7 3 6 50.0 0 0 - 2 3 5 6 2 0 4 2 9
p566
aVDeMar DeRozan TOR 12/18/2012 TOR @ CLE W 36 16 4 9 44.4 0 1 0.0 8 8 100.0 1 4 5 4 2 0 1 2 17
p567
aVAlan Anderson TOR 12/18/2012 TOR @ CLE W 32 18 6 12 50.0 5 7 71.4 1 2 50.0 4 2 6 2 1 0 1 4 22
p568
aVAmir Johnson TOR 12/18/2012 TOR @ CLE W 29 17 6 7 85.7 0 0 - 5 5 100.0 2 4 6 4 1 1 2 5 18
p569
aVEd Davis TOR 12/18/2012 TOR @ CLE W 24 4 2 7 28.6 0 0 - 0 0 - 3 1 4 3 0 0 1 3 1
p570
aVTerrence Ross TOR 12/18/2012 TOR @ CLE W 15 3 1 2 50.0 1 1 100.0 0 0 - 0 1 1 0 0 0 0 0 9
p571
aVJohn Lucas III TOR 12/18/2012 TOR @ CLE W 15 11 4 7 57.1 2 3 66.7 1 1 100.0 1 0 1 5 0 0 2 2 7
p572
aVJohn Lucas III TOR 12/16/2012 TOR vs. HOU W 12 6 2 6 33.3 2 4 50.0 0 0 - 0 1 1 1 1 0 0 1 11
p573
aVAmir Johnson TOR 12/16/2012 TOR vs. HOU W 29 8 4 6 66.7 0 0 - 0 0 - 2 6 8 1 0 5 0 5 -3
p574
aVJonas Valanciunas TOR 12/16/2012 TOR vs. HOU W 14 2 1 2 50.0 0 0 - 0 0 - 0 2 2 1 0 2 1 0 12
p575
aVDeMar DeRozan TOR 12/16/2012 TOR vs. HOU W 35 19 8 19 42.1 1 3 33.3 2 2 100.0 0 7 7 3 3 1 2 4 7
p576
aVTerrence Ross TOR 12/16/2012 TOR vs. HOU W 23 9 4 10 40.0 1 5 20.0 0 2 0.0 1 1 2 1 1 1 2 2 -4
p577
aVAlan Anderson TOR 12/16/2012 TOR vs. HOU W 25 24 6 12 50.0 3 7 42.9 9 9 100.0 0 2 2 2 0 0 0 5 0
p578
aVJose Calderon TOR 12/16/2012 TOR vs. HOU W 37 18 6 12 50.0 1 5 20.0 5 6 83.3 0 10 10 14 1 1 0 1 0
p579
aVEd Davis TOR 12/16/2012 TOR vs. HOU W 26 13 6 9 66.7 0 0 - 1 1 100.0 2 4 6 2 0 3 2 3 12
p580
aVLinas Kleiza TOR 12/16/2012 TOR vs. HOU W 19 2 1 6 16.7 0 4 0.0 0 0 - 0 3 3 3 0 0 0 2 -8
p581
aVMickael Pietrus TOR 12/16/2012 TOR vs. HOU W 21 2 1 3 33.3 0 2 0.0 0 0 - 0 2 2 1 0 0 0 1 8
p582
aVLinas Kleiza TOR 12/14/2012 TOR vs. DAL W 30 20 7 13 53.8 5 11 45.5 1 2 50.0 0 5 5 0 0 0 0 3 22
p583
aVDeMar DeRozan TOR 12/14/2012 TOR vs. DAL W 32 14 6 13 46.2 1 3 33.3 1 2 50.0 0 4 4 4 0 1 2 2 13
p584
aVJose Calderon TOR 12/14/2012 TOR vs. DAL W 28 14 5 9 55.6 2 4 50.0 2 3 66.7 1 3 4 3 1 2 1 1 5
p585
aVJonas Valanciunas TOR 12/14/2012 TOR vs. DAL W 16 1 0 3 0.0 0 0 - 1 4 25.0 2 4 6 1 2 0 0 2 2
p586
aVTerrence Ross TOR 12/14/2012 TOR vs. DAL W 23 18 6 14 42.9 2 7 28.6 4 4 100.0 4 1 5 2 1 0 1 3 15
p587
aVEd Davis TOR 12/14/2012 TOR vs. DAL W 23 6 3 5 60.0 0 0 - 0 0 - 3 5 8 3 1 0 0 1 4
p588
aVJohn Lucas III TOR 12/14/2012 TOR vs. DAL W 23 7 3 8 37.5 1 3 33.3 0 0 - 0 1 1 6 1 0 1 1 19
p589
aVAlan Anderson TOR 12/14/2012 TOR vs. DAL W 21 2 0 8 0.0 0 3 0.0 2 2 100.0 2 3 5 2 1 0 1 2 8
p590
aVQuincy Acy TOR 12/14/2012 TOR vs. DAL W 2 2 1 1 100.0 0 0 - 0 0 - 0 0 0 0 0 0 0 0 1
p591
aVAmir Johnson TOR 12/14/2012 TOR vs. DAL W 25 4 1 3 33.3 0 0 - 2 2 100.0 2 5 7 1 3 0 1 3 13
p592
aVMickael Pietrus TOR 12/14/2012 TOR vs. DAL W 17 7 2 7 28.6 1 5 20.0 2 3 66.7 0 2 2 0 1 0 3 2 3
p593
aVJonas Valanciunas TOR 12/12/2012 TOR vs. BKN L 26 15 6 6 100.0 0 0 - 3 5 60.0 2 2 4 0 0 2 3 3 -8
p594
aVEd Davis TOR 12/12/2012 TOR vs. BKN L 45 24 11 13 84.6 0 0 - 2 3 66.7 3 9 12 1 3 0 1 4 -6
p595
aVJohn Lucas III TOR 12/12/2012 TOR vs. BKN L 19 9 4 10 40.0 0 2 0.0 1 3 33.3 0 1 1 1 1 0 2 2 -16
p596
aVAaron Gray TOR 12/12/2012 TOR vs. BKN L 17 7 2 4 50.0 0 0 - 3 4 75.0 1 1 2 1 0 0 1 4 -7
p597
aVTerrence Ross TOR 12/12/2012 TOR vs. BKN L 21 7 3 8 37.5 1 3 33.3 0 0 - 0 2 2 0 2 0 1 1 -6
p598
aVMickael Pietrus TOR 12/12/2012 TOR vs. BKN L 28 5 2 8 25.0 0 5 0.0 1 2 50.0 1 1 2 1 0 0 0 5 8
p599
aVJose Calderon TOR 12/12/2012 TOR vs. BKN L 40 10 4 13 30.8 2 5 40.0 0 0 - 0 3 3 15 1 0 3 3 6
p600
aVDeMar DeRozan TOR 12/12/2012 TOR vs. BKN L 44 11 5 13 38.5 1 3 33.3 0 0 - 0 5 5 2 4 1 3 3 -1
p601
aVAndrea Bargnani TOR 12/10/2012 TOR @ POR L 8 2 1 3 33.3 0 2 0.0 0 0 - 0 2 2 0 0 0 1 1 3
p602
aVDeMar DeRozan TOR 12/10/2012 TOR @ POR L 43 20 7 16 43.8 0 2 0.0 6 6 100.0 0 4 4 1 0 0 3 0 -11
p603
aVJohn Lucas III TOR 12/10/2012 TOR @ POR L 12 0 0 4 0.0 0 4 0.0 0 0 - 0 0 0 0 0 0 1 0 -16
p604
aVKyle Lowry TOR 12/10/2012 TOR @ POR L 17 1 0 5 0.0 0 1 0.0 1 1 100.0 0 7 7 2 3 0 2 3 2
p605
aVTerrence Ross TOR 12/10/2012 TOR @ POR L 13 2 1 5 20.0 0 1 0.0 0 0 - 0 1 1 0 0 0 0 1 -1
p606
aVJose Calderon TOR 12/10/2012 TOR @ POR L 32 12 4 7 57.1 2 4 50.0 2 2 100.0 0 2 2 6 0 0 1 2 -20
p607
aVEd Davis TOR 12/10/2012 TOR @ POR L 24 14 3 7 42.9 0 0 - 8 8 100.0 4 5 9 2 1 1 1 6 -19
p608
aVJonas Valanciunas TOR 12/10/2012 TOR @ POR L 34 8 4 6 66.7 0 0 - 0 0 - 3 7 10 2 0 3 3 3 -14
p609
aVMickael Pietrus TOR 12/10/2012 TOR @ POR L 38 9 3 13 23.1 1 7 14.3 2 4 50.0 0 3 3 0 1 0 2 1 -8
p610
aVAaron Gray TOR 12/10/2012 TOR @ POR L 9 2 1 2 50.0 0 0 - 0 0 - 0 3 3 0 0 0 0 0 3
p611
aVAmir Johnson TOR 12/10/2012 TOR @ POR L 10 4 2 6 33.3 0 0 - 0 0 - 2 2 4 0 0 1 0 3 -9
p612
aVEd Davis TOR 12/09/2012 TOR @ LAC L 17 6 2 6 33.3 0 0 - 2 2 100.0 2 1 3 0 1 1 1 1 -9
p613
aVAmir Johnson TOR 12/09/2012 TOR @ LAC L 27 11 4 7 57.1 0 0 - 3 4 75.0 6 6 12 0 1 1 1 2 -20
p614
aVJose Calderon TOR 12/09/2012 TOR @ LAC L 16 5 1 5 20.0 1 3 33.3 2 2 100.0 0 3 3 2 0 0 2 0 -6
p615
aVJonas Valanciunas TOR 12/09/2012 TOR @ LAC L 19 1 0 2 0.0 0 0 - 1 2 50.0 2 1 3 1 0 0 1 5 1
p616
aVKyle Lowry TOR 12/09/2012 TOR @ LAC L 32 4 2 6 33.3 0 3 0.0 0 0 - 0 6 6 9 0 0 5 2 -13
p617
aVAndrea Bargnani TOR 12/09/2012 TOR @ LAC L 33 12 5 16 31.3 2 6 33.3 0 0 - 0 2 2 2 0 1 0 2 -10
p618
aVLinas Kleiza TOR 12/09/2012 TOR @ LAC L 30 17 5 11 45.5 5 6 83.3 2 3 66.7 0 3 3 2 1 1 1 4 -6
p619
aVTerrence Ross TOR 12/09/2012 TOR @ LAC L 23 3 1 7 14.3 1 6 16.7 0 0 - 0 2 2 2 0 1 2 3 -14
p620
aVJohn Lucas III TOR 12/09/2012 TOR @ LAC L 1 0 0 0 - 0 0 - 0 0 - 0 0 0 0 0 0 0 0 0
p621
aVDeMar DeRozan TOR 12/09/2012 TOR @ LAC L 42 24 10 17 58.8 1 2 50.0 3 4 75.0 1 4 5 4 0 0 1 3 -18
p622
aVJohn Lucas III TOR 12/07/2012 TOR @ UTA L 12 9 4 8 50.0 1 3 33.3 0 0 - 1 2 3 1 1 0 0 1 -9
p623
aVAaron Gray TOR 12/07/2012 TOR @ UTA L 4 0 0 0 - 0 0 - 0 0 - 0 1 1 1 0 0 2 2 -3
p624
aVKyle Lowry TOR 12/07/2012 TOR @ UTA L 29 10 3 10 30.0 0 4 0.0 4 6 66.7 1 2 3 4 1 0 2 5 -11
p625
aVDeMar DeRozan TOR 12/07/2012 TOR @ UTA L 34 17 5 15 33.3 0 2 0.0 7 7 100.0 1 4 5 2 0 0 2 2 -21
p626
aVEd Davis TOR 12/07/2012 TOR @ UTA L 10 0 0 1 0.0 0 0 - 0 0 - 0 1 1 0 0 0 0 2 -12
p627
aVJose Calderon TOR 12/07/2012 TOR @ UTA L 24 7 1 4 25.0 0 2 0.0 5 6 83.3 1 3 4 3 1 0 1 2 -22
p628
aVLinas Kleiza TOR 12/07/2012 TOR @ UTA L 6 3 1 5 20.0 1 3 33.3 0 0 - 0 1 1 1 0 0 0 1 -2
p629
aVAndrea Bargnani TOR 12/07/2012 TOR @ UTA L 33 20 8 15 53.3 1 3 33.3 3 4 75.0 0 8 8 0 0 2 3 2 -20
p630
aVJonas Valanciunas TOR 12/07/2012 TOR @ UTA L 20 6 1 2 50.0 0 0 - 4 4 100.0 2 2 4 0 0 0 2 5 -24
p631
aVAmir Johnson TOR 12/07/2012 TOR @ UTA L 19 10 4 8 50.0 0 0 - 2 2 100.0 3 1 4 0 1 0 0 3 6
p632
aVMickael Pietrus TOR 12/07/2012 TOR @ UTA L 30 13 4 7 57.1 4 5 80.0 1 2 50.0 2 2 4 0 1 3 3 1 -21
p633
aVTerrence Ross TOR 12/07/2012 TOR @ UTA L 19 4 2 7 28.6 0 2 0.0 0 0 - 1 2 3 1 0 2 0 2 -21
p634
aVJonas Valanciunas TOR 12/05/2012 TOR @ SAC L 16 3 1 4 25.0 0 0 - 1 2 50.0 2 1 3 0 0 1 1 3 -10
p635
aVTerrence Ross TOR 12/05/2012 TOR @ SAC L 12 0 0 3 0.0 0 1 0.0 0 0 - 1 1 2 0 0 0 0 0 5
p636
aVKyle Lowry TOR 12/05/2012 TOR @ SAC L 38 34 9 20 45.0 4 9 44.4 12 12 100.0 0 5 5 11 1 0 3 5 -6
p637
aVMickael Pietrus TOR 12/05/2012 TOR @ SAC L 40 21 8 15 53.3 2 6 33.3 3 3 100.0 1 5 6 1 1 0 1 4 -11
p638
aVDeMar DeRozan TOR 12/05/2012 TOR @ SAC L 40 14 7 16 43.8 0 0 - 0 2 0.0 1 4 5 1 2 4 3 1 -6
p639
aVJose Calderon TOR 12/05/2012 TOR @ SAC L 14 3 1 3 33.3 0 1 0.0 1 1 100.0 0 1 1 4 0 0 1 0 -3
p640
aVAndrea Bargnani TOR 12/05/2012 TOR @ SAC L 27 8 3 14 21.4 0 6 0.0 2 2 100.0 1 2 3 3 0 1 2 2 -18
p641
aVEd Davis TOR 12/05/2012 TOR @ SAC L 23 13 5 10 50.0 0 0 - 3 4 75.0 4 7 11 0 0 1 0 4 9
p642
aVAmir Johnson TOR 12/05/2012 TOR @ SAC L 31 4 1 1 100.0 0 0 - 2 2 100.0 0 4 4 5 2 2 0 4 5
p643
aVKyle Lowry TOR 12/03/2012 TOR @ DEN L 34 24 6 16 37.5 1 4 25.0 11 11 100.0 1 2 3 7 0 3 3 4 3
p644
aVAmir Johnson TOR 12/03/2012 TOR @ DEN L 16 11 5 7 71.4 1 1 100.0 0 0 - 1 3 4 1 1 0 2 4 8
p645
aVJose Calderon TOR 12/03/2012 TOR @ DEN L 16 4 1 4 25.0 1 3 33.3 1 1 100.0 0 0 0 5 0 0 3 2 -7
p646
aVJohn Lucas III TOR 12/03/2012 TOR @ DEN L 5 2 1 3 33.3 0 1 0.0 0 0 - 0 0 0 0 1 0 1 0 -2
p647
aVDeMar DeRozan TOR 12/03/2012 TOR @ DEN L 40 18 8 13 61.5 1 3 33.3 1 1 100.0 1 6 7 2 2 1 1 4 6
p648
aVJonas Valanciunas TOR 12/03/2012 TOR @ DEN L 23 7 3 5 60.0 0 0 - 1 2 50.0 2 2 4 1 2 3 0 4 -18
p649
aVTerrence Ross TOR 12/03/2012 TOR @ DEN L 24 12 4 8 50.0 2 5 40.0 2 2 100.0 1 5 6 0 0 0 2 4 -4
p650
aVMickael Pietrus TOR 12/03/2012 TOR @ DEN L 25 3 1 5 20.0 1 3 33.3 0 0 - 0 0 0 0 1 0 1 4 -5
p651
aVAndrea Bargnani TOR 12/03/2012 TOR @ DEN L 40 23 10 20 50.0 2 8 25.0 1 2 50.0 0 4 4 0 0 1 2 2 7
p652
aVEd Davis TOR 12/03/2012 TOR @ DEN L 17 6 3 5 60.0 0 0 - 0 0 - 3 6 9 3 2 1 1 2 -3
p653
aVKyle Lowry TOR 11/30/2012 TOR vs. PHX W 24 15 5 9 55.6 1 1 100.0 4 6 66.7 2 5 7 2 1 0 2 2 -7
p654
aVDeMar DeRozan TOR 11/30/2012 TOR vs. PHX W 35 23 8 18 44.4 0 0 - 7 9 77.8 1 7 8 4 1 0 2 3 -3
p655
aVAndrea Bargnani TOR 11/30/2012 TOR vs. PHX W 27 4 1 4 25.0 0 1 0.0 2 2 100.0 0 2 2 1 0 0 1 2 -8
p656
aVEd Davis TOR 11/30/2012 TOR vs. PHX W 21 4 2 4 50.0 0 0 - 0 2 0.0 1 7 8 3 0 1 2 3 12
p657
aVTerrence Ross TOR 11/30/2012 TOR vs. PHX W 14 7 3 7 42.9 1 2 50.0 0 0 - 0 1 1 0 2 0 0 2 2
p658
aVAmir Johnson TOR 11/30/2012 TOR vs. PHX W 31 16 7 12 58.3 0 0 - 2 3 66.7 3 3 6 3 1 1 0 3 11
p659
aVJose Calderon TOR 11/30/2012 TOR vs. PHX W 24 13 5 7 71.4 3 3 100.0 0 0 - 0 0 0 9 0 0 2 1 11
p660
aVJonas Valanciunas TOR 11/30/2012 TOR vs. PHX W 17 8 4 8 50.0 0 0 - 0 0 - 3 3 6 1 0 1 1 1 -7
p661
aVLinas Kleiza TOR 11/30/2012 TOR vs. PHX W 15 5 2 5 40.0 1 2 50.0 0 0 - 0 1 1 1 1 0 3 3 -3
p662
aVMickael Pietrus TOR 11/30/2012 TOR vs. PHX W 32 6 2 7 28.6 2 5 40.0 0 0 - 0 2 2 0 1 1 0 0 12
p663
aVAmir Johnson TOR 11/28/2012 TOR @ MEM L 17 2 1 4 25.0 0 0 - 0 0 - 1 2 3 0 0 0 1 5 7
p664
aVTerrence Ross TOR 11/28/2012 TOR @ MEM L 30 8 4 13 30.8 0 6 0.0 0 2 0.0 1 1 2 2 3 0 2 4 -10
p665
aVDominic McGuire TOR 11/28/2012 TOR @ MEM L 3 0 0 1 0.0 0 0 - 0 0 - 1 1 2 0 0 1 0 0 3
p666
aVLinas Kleiza TOR 11/28/2012 TOR @ MEM L 25 11 5 15 33.3 0 0 - 1 1 100.0 1 2 3 1 0 0 0 2 -13
p667
aVAaron Gray TOR 11/28/2012 TOR @ MEM L 18 2 1 1 100.0 0 0 - 0 0 - 0 3 3 1 1 0 3 4 -13
p668
aVKyle Lowry TOR 11/28/2012 TOR @ MEM L 27 12 3 10 30.0 1 4 25.0 5 7 71.4 0 4 4 4 0 0 3 3 -11
p669
aVEd Davis TOR 11/28/2012 TOR @ MEM L 28 10 3 4 75.0 0 0 - 4 4 100.0 3 3 6 0 0 1 4 4 -24
p670
aVJohn Lucas III TOR 11/28/2012 TOR @ MEM L 9 6 2 5 40.0 1 2 50.0 1 1 100.0 0 0 0 0 0 0 0 1 -1
p671
aVJose Calderon TOR 11/28/2012 TOR @ MEM L 18 12 4 6 66.7 1 2 50.0 3 3 100.0 0 2 2 0 0 0 2 0 -11
p672
aVDeMar DeRozan TOR 11/28/2012 TOR @ MEM L 32 16 5 10 50.0 2 3 66.7 4 4 100.0 0 4 4 1 1 0 1 2 -18
p673
aVQuincy Acy TOR 11/28/2012 TOR @ MEM L 4 1 0 1 0.0 0 0 - 1 2 50.0 0 2 2 0 0 0 0 1 -2
p674
aVJonas Valanciunas TOR 11/28/2012 TOR @ MEM L 28 2 1 4 25.0 0 0 - 0 0 - 0 2 2 2 0 3 1 3 -12
p675
aVKyle Lowry TOR 11/27/2012 TOR @ HOU L 27 7 3 10 30.0 0 3 0.0 1 1 100.0 1 7 8 5 1 0 3 4 -17
p676
aVJose Calderon TOR 11/27/2012 TOR @ HOU L 24 12 4 9 44.4 4 8 50.0 0 0 - 0 0 0 7 0 0 0 0 -4
p677
aVJonas Valanciunas TOR 11/27/2012 TOR @ HOU L 32 12 5 10 50.0 0 0 - 2 3 66.7 2 3 5 1 0 1 2 0 -17
p678
aVTerrence Ross TOR 11/27/2012 TOR @ HOU L 36 19 9 17 52.9 1 4 25.0 0 0 - 2 3 5 1 0 0 1 2 -12
p679
aVJohn Lucas III TOR 11/27/2012 TOR @ HOU L 14 2 1 5 20.0 0 2 0.0 0 0 - 0 2 2 5 0 0 0 0 11
p680
aVLinas Kleiza TOR 11/27/2012 TOR @ HOU L 5 0 0 1 0.0 0 0 - 0 0 - 0 0 0 0 0 0 1 2 1
p681
aVDominic McGuire TOR 11/27/2012 TOR @ HOU L 10 0 0 1 0.0 0 0 - 0 0 - 0 1 1 0 0 0 0 0 -11
p682
aVAaron Gray TOR 11/27/2012 TOR @ HOU L 1 0 0 0 - 0 0 - 0 0 - 1 1 2 0 0 0 0 0 1
p683
aVDeMar DeRozan TOR 11/27/2012 TOR @ HOU L 27 12 5 10 50.0 0 0 - 2 3 66.7 0 3 3 1 2 0 4 2 -16
p684
aVAmir Johnson TOR 11/27/2012 TOR @ HOU L 12 4 2 5 40.0 0 2 0.0 0 1 0.0 3 2 5 3 1 0 0 2 8
p685
aVEd Davis TOR 11/27/2012 TOR @ HOU L 21 12 5 6 83.3 0 0 - 2 2 100.0 1 3 4 0 1 1 2 3 0
p686
aVAndrea Bargnani TOR 11/27/2012 TOR @ HOU L 31 21 8 12 66.7 3 4 75.0 2 2 100.0 1 3 4 2 1 0 3 0 -24
p687
aVAndrea Bargnani TOR 11/25/2012 TOR vs. SAS L 36 4 2 19 10.5 0 7 0.0 0 1 0.0 1 7 8 1 1 1 2 3 0
p688
aVDominic McGuire TOR 11/25/2012 TOR vs. SAS L 16 0 0 0 - 0 0 - 0 0 - 0 7 7 0 1 1 1 2 -1
p689
aVJose Calderon TOR 11/25/2012 TOR vs. SAS L 41 9 3 14 21.4 1 5 20.0 2 2 100.0 1 1 2 9 0 0 2 3 -7
p690
aVTerrence Ross TOR 11/25/2012 TOR vs. SAS L 21 3 1 4 25.0 1 2 50.0 0 0 - 1 2 3 1 0 0 0 1 6
p691
aVAmir Johnson TOR 11/25/2012 TOR vs. SAS L 18 4 1 5 20.0 0 0 - 2 2 100.0 3 2 5 0 0 2 2 4 -2
p692
aVDeMar DeRozan TOR 11/25/2012 TOR vs. SAS L 51 29 11 28 39.3 0 2 0.0 7 8 87.5 1 6 7 3 3 0 1 2 -8
p693
aVJonas Valanciunas TOR 11/25/2012 TOR vs. SAS L 39 22 9 13 69.2 0 0 - 4 5 80.0 0 7 7 3 0 3 3 4 -3
p694
aVEd Davis TOR 11/25/2012 TOR vs. SAS L 22 15 7 11 63.6 0 0 - 1 2 50.0 8 6 14 0 0 0 0 1 -5
p695
aVKyle Lowry TOR 11/25/2012 TOR vs. SAS L 45 20 6 16 37.5 4 8 50.0 4 4 100.0 2 6 8 4 1 1 1 5 -5
p696
aVDominic McGuire TOR 11/23/2012 TOR @ DET L 21 0 0 2 0.0 0 0 - 0 0 - 1 3 4 1 1 0 1 1 -6
p697
aVTerrence Ross TOR 11/23/2012 TOR @ DET L 17 0 0 5 0.0 0 2 0.0 0 0 - 0 2 2 0 1 0 1 2 7
p698
aVLinas Kleiza TOR 11/23/2012 TOR @ DET L 24 4 2 8 25.0 0 3 0.0 0 0 - 1 2 3 3 0 1 0 1 -2
p699
aVAmir Johnson TOR 11/23/2012 TOR @ DET L 17 5 2 4 50.0 0 0 - 1 1 100.0 1 4 5 1 0 0 0 4 6
p700
aVJose Calderon TOR 11/23/2012 TOR @ DET L 16 5 1 2 50.0 1 1 100.0 2 2 100.0 0 1 1 3 0 0 1 0 5
p701
aVEd Davis TOR 11/23/2012 TOR @ DET L 10 9 3 5 60.0 0 0 - 3 3 100.0 2 2 4 1 0 2 0 1 2
p702
aVJonas Valanciunas TOR 11/23/2012 TOR @ DET L 31 9 3 6 50.0 0 0 - 3 4 75.0 2 4 6 1 0 2 2 4 -7
p703
aVAndrea Bargnani TOR 11/23/2012 TOR @ DET L 38 34 13 20 65.0 3 5 60.0 5 6 83.3 2 3 5 4 1 1 2 3 -3
p704
aVDeMar DeRozan TOR 11/23/2012 TOR @ DET L 34 5 2 9 22.2 0 0 - 1 2 50.0 0 1 1 1 0 0 2 2 -5
p705
aVKyle Lowry TOR 11/23/2012 TOR @ DET L 32 19 6 17 35.3 2 7 28.6 5 7 71.4 0 6 6 5 3 0 2 5 -2
p706
aVDominic McGuire TOR 11/21/2012 TOR @ CHA L 25 0 0 1 0.0 0 0 - 0 2 0.0 3 5 8 5 0 1 0 2 -4
p707
aVJose Calderon TOR 11/21/2012 TOR @ CHA L 24 7 2 8 25.0 2 6 33.3 1 1 100.0 1 2 3 4 1 1 2 1 4
p708
aVDeMar DeRozan TOR 11/21/2012 TOR @ CHA L 37 14 6 13 46.2 0 0 - 2 3 66.7 1 2 3 2 0 1 5 3 3
p709
aVAmir Johnson TOR 11/21/2012 TOR @ CHA L 11 1 0 1 0.0 0 0 - 1 2 50.0 0 1 1 1 0 0 0 0 -2
p710
aVJonas Valanciunas TOR 11/21/2012 TOR @ CHA L 35 16 8 11 72.7 0 0 - 0 0 - 2 8 10 2 0 1 1 6 8
p711
aVKyle Lowry TOR 11/21/2012 TOR @ CHA L 36 21 6 15 40.0 4 7 57.1 5 7 71.4 0 3 3 8 2 3 3 4 3
p712
aVEd Davis TOR 11/21/2012 TOR @ CHA L 12 2 1 2 50.0 0 0 - 0 0 - 0 2 2 0 1 0 0 2 -7
p713
aVTerrence Ross TOR 11/21/2012 TOR @ CHA L 15 11 5 9 55.6 1 4 25.0 0 0 - 1 2 3 1 1 1 0 4 -7
p714
aVLinas Kleiza TOR 11/21/2012 TOR @ CHA L 12 0 0 3 0.0 0 3 0.0 0 0 - 0 1 1 0 0 0 2 0 -7
p715
aVAndrea Bargnani TOR 11/21/2012 TOR @ CHA L 33 25 9 17 52.9 2 3 66.7 5 5 100.0 1 1 2 0 0 0 1 3 4
p716
aVLinas Kleiza TOR 11/20/2012 TOR @ PHI L 17 5 1 3 33.3 0 2 0.0 3 3 100.0 1 2 3 0 0 0 0 0 -6
p717
aVAmir Johnson TOR 11/20/2012 TOR @ PHI L 21 4 2 5 40.0 0 1 0.0 0 0 - 2 1 3 1 0 1 2 6 -10
p718
aVJohn Lucas III TOR 11/20/2012 TOR @ PHI L 3 0 0 0 - 0 0 - 0 0 - 1 0 1 1 0 0 1 1 2
p719
aVKyle Lowry TOR 11/20/2012 TOR @ PHI L 30 13 5 14 35.7 0 4 0.0 3 8 37.5 1 6 7 7 0 0 2 5 -9
p720
aVDominic McGuire TOR 11/20/2012 TOR @ PHI L 20 4 2 3 66.7 0 0 - 0 0 - 0 4 4 2 0 1 1 4 5
p721
aVEd Davis TOR 11/20/2012 TOR @ PHI L 5 2 1 2 50.0 0 0 - 0 0 - 1 2 3 1 0 0 0 1 0
p722
aVJose Calderon TOR 11/20/2012 TOR @ PHI L 37 13 5 10 50.0 1 3 33.3 2 2 100.0 0 5 5 12 0 0 2 1 -10
p723
aVJonas Valanciunas TOR 11/20/2012 TOR @ PHI L 25 11 3 6 50.0 0 0 - 5 6 83.3 3 8 11 3 0 3 1 0 7
p724
aVAndrea Bargnani TOR 11/20/2012 TOR @ PHI L 40 22 10 21 47.6 2 5 40.0 0 2 0.0 2 5 7 1 1 0 2 2 -8
p725
aVDeMar DeRozan TOR 11/20/2012 TOR @ PHI L 42 24 8 18 44.4 1 1 100.0 7 8 87.5 1 3 4 0 1 0 0 0 -11
p726
aVAmir Johnson TOR 11/18/2012 TOR vs. ORL W 25 15 5 6 83.3 1 1 100.0 4 5 80.0 1 4 5 1 2 0 1 1 3
p727
aVTerrence Ross TOR 11/18/2012 TOR vs. ORL W 4 0 0 1 0.0 0 0 - 0 0 - 0 1 1 0 0 0 0 0 -2
p728
aVJonas Valanciunas TOR 11/18/2012 TOR vs. ORL W 24 6 2 5 40.0 0 0 - 2 6 33.3 4 3 7 0 1 1 2 3 -1
p729
aVDeMar DeRozan TOR 11/18/2012 TOR vs. ORL W 38 20 8 16 50.0 1 2 50.0 3 5 60.0 2 7 9 2 0 0 1 2 8
p730
aVJohn Lucas III TOR 11/18/2012 TOR vs. ORL W 11 2 1 4 25.0 0 1 0.0 0 0 - 0 2 2 0 1 0 0 1 1
p731
aVJose Calderon TOR 11/18/2012 TOR vs. ORL W 43 9 3 8 37.5 2 5 40.0 1 1 100.0 0 2 2 18 1 1 2 2 15
p732
aVEd Davis TOR 11/18/2012 TOR vs. ORL W 8 5 2 3 66.7 0 0 - 1 2 50.0 0 1 1 0 0 1 0 2 0
p733
aVLinas Kleiza TOR 11/18/2012 TOR vs. ORL W 26 12 5 9 55.6 2 5 40.0 0 0 - 1 4 5 0 0 0 2 3 7
p734
aVAndrea Bargnani TOR 11/18/2012 TOR vs. ORL W 40 17 7 19 36.8 1 4 25.0 2 2 100.0 1 4 5 1 2 2 2 3 20
p735
aVDominic McGuire TOR 11/18/2012 TOR vs. ORL W 22 11 5 9 55.6 0 0 - 1 2 50.0 1 2 3 0 1 1 0 4 4
p736
aVAndrea Bargnani TOR 11/17/2012 TOR @ BOS L 26 15 5 14 35.7 1 5 20.0 4 5 80.0 1 1 2 2 0 1 4 2 -22
p737
aVDominic McGuire TOR 11/17/2012 TOR @ BOS L 17 2 1 4 25.0 0 0 - 0 0 - 1 3 4 0 0 0 0 1 -8
p738
aVQuincy Acy TOR 11/17/2012 TOR @ BOS L 12 6 1 1 100.0 0 0 - 4 4 100.0 2 2 4 0 2 1 0 0 5
p739
aVEd Davis TOR 11/17/2012 TOR @ BOS L 21 7 2 3 66.7 0 0 - 3 6 50.0 4 5 9 3 1 1 0 2 -11
p740
aVTerrence Ross TOR 11/17/2012 TOR @ BOS L 24 10 4 6 66.7 2 4 50.0 0 1 0.0 0 4 4 1 1 1 3 2 -13
p741
aVJose Calderon TOR 11/17/2012 TOR @ BOS L 28 10 3 7 42.9 2 3 66.7 2 3 66.7 0 2 2 9 1 0 3 1 -15
p742
aVLinas Kleiza TOR 11/17/2012 TOR @ BOS L 24 10 3 9 33.3 0 2 0.0 4 7 57.1 0 1 1 2 0 0 1 2 -9
p743
aVJohn Lucas III TOR 11/17/2012 TOR @ BOS L 26 15 5 11 45.5 3 7 42.9 2 2 100.0 0 0 0 3 1 0 2 2 -4
p744
aVAmir Johnson TOR 11/17/2012 TOR @ BOS L 16 1 0 1 0.0 0 0 - 1 2 50.0 1 2 3 1 0 0 0 4 -5
p745
aVDeMar DeRozan TOR 11/17/2012 TOR @ BOS L 24 10 5 10 50.0 0 1 0.0 0 0 - 0 3 3 1 1 0 0 1 -5
p746
aVAaron Gray TOR 11/17/2012 TOR @ BOS L 2 0 0 0 - 0 0 - 0 0 - 0 1 1 0 0 0 0 0 4
p747
aVJonas Valanciunas TOR 11/17/2012 TOR @ BOS L 19 3 1 4 25.0 0 0 - 1 1 100.0 0 2 2 0 0 0 2 6 -7
p748
aVLinas Kleiza TOR 11/13/2012 TOR @ IND W 25 10 2 9 22.2 0 1 0.0 6 6 100.0 0 4 4 0 0 0 2 2 -2
p749
aVDeMar DeRozan TOR 11/13/2012 TOR @ IND W 40 15 5 13 38.5 0 0 - 5 6 83.3 1 4 5 0 0 1 2 4 -2
p750
aVJohn Lucas III TOR 11/13/2012 TOR @ IND W 9 3 1 3 33.3 1 1 100.0 0 0 - 0 0 0 0 1 0 0 1 -3
p751
aVDominic McGuire TOR 11/13/2012 TOR @ IND W 18 2 1 1 100.0 0 0 - 0 0 - 2 2 4 0 0 0 0 0 3
p752
aVAmir Johnson TOR 11/13/2012 TOR @ IND W 29 7 2 9 22.2 0 1 0.0 3 4 75.0 3 4 7 0 0 0 1 4 -4
p753
aVJose Calderon TOR 11/13/2012 TOR @ IND W 39 13 5 10 50.0 2 2 100.0 1 1 100.0 1 9 10 10 0 0 4 1 5
p754
aVJonas Valanciunas TOR 11/13/2012 TOR @ IND W 22 9 4 8 50.0 0 0 - 1 2 50.0 1 7 8 2 2 0 1 2 4
p755
aVTerrence Ross TOR 11/13/2012 TOR @ IND W 13 7 3 5 60.0 1 1 100.0 0 0 - 0 0 0 0 1 0 0 1 5
p756
aVAndrea Bargnani TOR 11/13/2012 TOR @ IND W 30 8 3 13 23.1 2 6 33.3 0 0 - 0 2 2 1 0 0 1 3 5
p757
aVEd Davis TOR 11/13/2012 TOR @ IND W 15 0 0 1 0.0 0 0 - 0 0 - 0 5 5 0 0 0 1 5 -1
p758
aVAaron Gray TOR 11/12/2012 TOR vs. UTA L 4 0 0 1 0.0 0 0 - 0 0 - 0 0 0 0 0 0 0 1 -8
p759
aVJonas Valanciunas TOR 11/12/2012 TOR vs. UTA L 16 10 3 3 100.0 0 0 - 4 4 100.0 1 0 1 1 1 0 1 4 -1
p760
aVEd Davis TOR 11/12/2012 TOR vs. UTA L 18 4 2 4 50.0 0 0 - 0 0 - 6 3 9 0 2 1 1 2 -6
p761
aVAmir Johnson TOR 11/12/2012 TOR vs. UTA L 38 11 5 8 62.5 0 0 - 1 3 33.3 7 7 14 2 3 1 2 6 -4
p762
aVTerrence Ross TOR 11/12/2012 TOR vs. UTA L 3 0 0 1 0.0 0 0 - 0 0 - 0 0 0 0 0 0 0 0 2
p763
aVLinas Kleiza TOR 11/12/2012 TOR vs. UTA L 30 20 7 16 43.8 3 7 42.9 3 3 100.0 2 5 7 1 1 0 0 6 0
p764
aVDominic McGuire TOR 11/12/2012 TOR vs. UTA L 33 5 2 3 66.7 0 0 - 1 2 50.0 0 3 3 1 0 1 1 4 -10
p765
aVJohn Lucas III TOR 11/12/2012 TOR vs. UTA L 14 7 3 6 50.0 1 3 33.3 0 0 - 0 0 0 2 0 0 0 0 8
p766
aVJose Calderon TOR 11/12/2012 TOR vs. UTA L 50 20 8 16 50.0 2 4 50.0 2 2 100.0 1 1 2 17 3 0 5 2 -8
p767
aVDeMar DeRozan TOR 11/12/2012 TOR vs. UTA L 60 37 16 33 48.5 1 6 16.7 4 7 57.1 1 7 8 6 2 0 5 4 -9
p768
aVAndrea Bargnani TOR 11/12/2012 TOR vs. UTA L 49 19 5 17 29.4 1 4 25.0 8 9 88.9 2 6 8 1 1 2 2 2 1
p769
aVJonas Valanciunas TOR 11/10/2012 TOR vs. PHI L 20 8 3 6 50.0 0 0 - 2 2 100.0 3 5 8 1 0 1 0 2 -2
p770
aVAmir Johnson TOR 11/10/2012 TOR vs. PHI L 19 2 1 2 50.0 0 0 - 0 0 - 0 4 4 1 0 2 2 5 -9
p771
aVDeMar DeRozan TOR 11/10/2012 TOR vs. PHI L 44 19 6 17 35.3 1 1 100.0 6 8 75.0 1 5 6 0 1 0 1 4 -4
p772
aVAlan Anderson TOR 11/10/2012 TOR vs. PHI L 27 7 3 8 37.5 1 5 20.0 0 0 - 0 3 3 1 0 0 2 1 10
p773
aVLinas Kleiza TOR 11/10/2012 TOR vs. PHI L 12 0 0 1 0.0 0 1 0.0 0 0 - 1 1 2 0 0 0 0 0 -20
p774
aVAndrea Bargnani TOR 11/10/2012 TOR vs. PHI L 41 23 9 19 47.4 3 6 50.0 2 4 50.0 0 5 5 3 3 0 1 1 4
p775
aVTerrence Ross TOR 11/10/2012 TOR vs. PHI L 13 6 2 5 40.0 2 5 40.0 0 0 - 0 1 1 1 1 0 1 2 -6
p776
aVJohn Lucas III TOR 11/10/2012 TOR vs. PHI L 16 4 1 7 14.3 1 1 100.0 1 2 50.0 0 1 1 1 1 0 0 1 -11
p777
aVDominic McGuire TOR 11/10/2012 TOR vs. PHI L 6 0 0 2 0.0 0 0 - 0 0 - 0 0 0 1 0 0 0 0 -6
p778
aVEd Davis TOR 11/10/2012 TOR vs. PHI L 4 0 0 1 0.0 0 0 - 0 0 - 1 1 2 0 0 0 1 2 -9
p779
aVJose Calderon TOR 11/10/2012 TOR vs. PHI L 38 14 5 11 45.5 4 7 57.1 0 0 - 1 2 3 11 0 1 4 3 3
p780
aVTerrence Ross TOR 11/07/2012 TOR @ DAL L 8 2 1 3 33.3 0 2 0.0 0 0 - 0 0 0 0 0 0 0 2 1
p781
aVDominic McGuire TOR 11/07/2012 TOR @ DAL L 13 2 1 1 100.0 0 0 - 0 0 - 0 2 2 0 1 0 1 4 3
p782
aVAaron Gray TOR 11/07/2012 TOR @ DAL L 9 2 1 2 50.0 0 0 - 0 0 - 0 1 1 0 1 0 2 2 4
p783
aVAlan Anderson TOR 11/07/2012 TOR @ DAL L 16 13 3 9 33.3 2 6 33.3 5 5 100.0 0 0 0 0 1 0 0 2 -7
p784
aVEd Davis TOR 11/07/2012 TOR @ DAL L 5 1 0 0 - 0 0 - 1 2 50.0 0 1 1 0 0 0 0 0 -6
p785
aVAndrea Bargnani TOR 11/07/2012 TOR @ DAL L 39 25 9 20 45.0 0 5 0.0 7 7 100.0 2 7 9 3 2 0 0 1 7
p786
aVJohn Lucas III TOR 11/07/2012 TOR @ DAL L 15 0 0 3 0.0 0 1 0.0 0 0 - 0 2 2 1 0 0 0 1 -4
p787
aVAmir Johnson TOR 11/07/2012 TOR @ DAL L 29 18 6 7 85.7 0 0 - 6 7 85.7 6 5 11 3 1 1 1 5 4
p788
aVLandry Fields TOR 11/07/2012 TOR @ DAL L 19 2 1 4 25.0 0 0 - 0 0 - 0 4 4 1 0 0 1 1 -12
p789
aVJonas Valanciunas TOR 11/07/2012 TOR @ DAL L 10 4 2 4 50.0 0 0 - 0 0 - 2 0 2 0 0 0 2 5 -13
p790
aVQuincy Acy TOR 11/07/2012 TOR @ DAL L 4 0 0 1 0.0 0 0 - 0 0 - 0 0 0 0 0 0 0 1 -6
p791
aVJose Calderon TOR 11/07/2012 TOR @ DAL L 33 11 4 10 40.0 3 5 60.0 0 0 - 0 0 0 6 1 0 0 2 -1
p792
aVDeMar DeRozan TOR 11/07/2012 TOR @ DAL L 40 24 8 17 47.1 0 3 0.0 8 10 80.0 0 6 6 7 0 0 1 2 5
p793
aVAlan Anderson TOR 11/06/2012 TOR @ OKC L 19 3 1 6 16.7 0 5 0.0 1 2 50.0 0 0 0 1 0 1 0 3 -9
p794
aVEd Davis TOR 11/06/2012 TOR @ OKC L 21 6 2 4 50.0 0 0 - 2 3 66.7 2 7 9 0 1 0 0 5 0
p795
aVKyle Lowry TOR 11/06/2012 TOR @ OKC L 17 2 1 4 25.0 0 2 0.0 0 0 - 0 1 1 4 1 1 1 1 -13
p796
aVAmir Johnson TOR 11/06/2012 TOR @ OKC L 8 2 1 4 25.0 0 0 - 0 0 - 2 0 2 0 1 0 1 4 -4
p797
aVDeMar DeRozan TOR 11/06/2012 TOR @ OKC L 28 8 2 10 20.0 0 2 0.0 4 4 100.0 0 1 1 0 1 0 2 2 -27
p798
aVAaron Gray TOR 11/06/2012 TOR @ OKC L 7 3 1 1 100.0 0 0 - 1 2 50.0 0 2 2 1 0 0 0 2 -4
p799
aVAndrea Bargnani TOR 11/06/2012 TOR @ OKC L 25 16 5 14 35.7 3 6 50.0 3 3 100.0 0 6 6 0 0 0 2 2 -22
p800
aVTerrence Ross TOR 11/06/2012 TOR @ OKC L 14 10 4 7 57.1 2 3 66.7 0 0 - 0 2 2 1 1 0 1 2 7
p801
aVJonas Valanciunas TOR 11/06/2012 TOR @ OKC L 32 18 6 8 75.0 0 0 - 6 6 100.0 3 3 6 1 0 0 3 1 -9
p802
aVJohn Lucas III TOR 11/06/2012 TOR @ OKC L 16 3 1 9 11.1 1 6 16.7 0 0 - 0 2 2 4 0 0 2 1 4
p803
aVJose Calderon TOR 11/06/2012 TOR @ OKC L 20 8 2 7 28.6 1 4 25.0 3 3 100.0 0 0 0 2 4 0 3 0 -8
p804
aVLandry Fields TOR 11/06/2012 TOR @ OKC L 20 3 1 6 16.7 0 2 0.0 1 2 50.0 0 2 2 2 1 0 0 0 -11
p805
aVDominic McGuire TOR 11/06/2012 TOR @ OKC L 15 6 3 4 75.0 0 0 - 0 0 - 1 3 4 0 1 0 2 1 -4
p806
aVTerrence Ross TOR 11/04/2012 TOR vs. MIN W 7 2 1 4 25.0 0 1 0.0 0 0 - 0 1 1 1 0 0 2 3 -3
p807
aVAmir Johnson TOR 11/04/2012 TOR vs. MIN W 23 9 3 7 42.9 0 0 - 3 4 75.0 2 3 5 3 2 1 1 2 16
p808
aVJonas Valanciunas TOR 11/04/2012 TOR vs. MIN W 23 4 2 8 25.0 0 0 - 0 0 - 3 1 4 2 0 1 1 3 2
p809
aVJohn Lucas III TOR 11/04/2012 TOR vs. MIN W 6 0 0 1 0.0 0 1 0.0 0 0 - 0 0 0 0 0 0 0 0 1
p810
aVJose Calderon TOR 11/04/2012 TOR vs. MIN W 14 7 3 5 60.0 1 2 50.0 0 0 - 1 0 1 3 0 0 0 1 8
p811
aVAndrea Bargnani TOR 11/04/2012 TOR vs. MIN W 24 10 4 16 25.0 2 4 50.0 0 0 - 1 0 1 0 0 0 0 3 5
p812
aVAlan Anderson TOR 11/04/2012 TOR vs. MIN W 31 18 6 14 42.9 4 8 50.0 2 2 100.0 1 2 3 1 0 0 0 4 20
p813
aVLandry Fields TOR 11/04/2012 TOR vs. MIN W 21 5 2 4 50.0 0 0 - 1 1 100.0 0 3 3 0 1 0 2 1 8
p814
aVEd Davis TOR 11/04/2012 TOR vs. MIN W 24 6 3 7 42.9 0 0 - 0 0 - 2 5 7 1 0 0 1 2 14
p815
aVKyle Lowry TOR 11/04/2012 TOR vs. MIN W 32 22 8 10 80.0 2 3 66.7 4 4 100.0 4 3 7 5 3 0 2 1 10
p816
aVDeMar DeRozan TOR 11/04/2012 TOR vs. MIN W 32 22 8 14 57.1 1 2 50.0 5 6 83.3 2 5 7 2 3 0 2 3 13
p817
aVDominic McGuire TOR 11/04/2012 TOR vs. MIN W 2 0 0 0 - 0 0 - 0 0 - 0 0 0 0 0 1 0 1 1
p818
aVDominic McGuire TOR 11/03/2012 TOR @ BKN L 9 0 0 0 - 0 0 - 0 0 - 1 1 2 0 0 1 0 2 -8
p819
aVEd Davis TOR 11/03/2012 TOR @ BKN L 14 11 4 7 57.1 0 0 - 3 4 75.0 1 2 3 0 1 1 0 0 -2
p820
aVAndrea Bargnani TOR 11/03/2012 TOR @ BKN L 34 13 6 12 50.0 1 1 100.0 0 0 - 1 2 3 3 0 0 3 2 -3
p821
aVKyle Lowry TOR 11/03/2012 TOR @ BKN L 40 28 9 19 47.4 4 10 40.0 6 7 85.7 0 8 8 8 3 1 5 5 -2
p822
aVJohn Lucas III TOR 11/03/2012 TOR @ BKN L 6 0 0 4 0.0 0 1 0.0 0 0 - 0 2 2 1 1 0 0 0 6
p823
aVAlan Anderson TOR 11/03/2012 TOR @ BKN L 13 3 1 4 25.0 1 2 50.0 0 0 - 0 0 0 0 0 0 2 2 -5
p824
aVJonas Valanciunas TOR 11/03/2012 TOR @ BKN L 12 2 1 4 25.0 0 0 - 0 0 - 1 2 3 2 0 2 1 3 1
p825
aVAmir Johnson TOR 11/03/2012 TOR @ BKN L 17 11 5 8 62.5 0 0 - 1 2 50.0 3 1 4 0 1 0 1 5 -7
p826
aVAaron Gray TOR 11/03/2012 TOR @ BKN L 19 3 1 2 50.0 0 0 - 1 2 50.0 0 4 4 1 1 0 0 4 0
p827
aVLandry Fields TOR 11/03/2012 TOR @ BKN L 22 2 1 4 25.0 0 0 - 0 0 - 3 2 5 4 0 0 1 3 -5
p828
aVDeMar DeRozan TOR 11/03/2012 TOR @ BKN L 34 25 8 13 61.5 1 2 50.0 8 10 80.0 0 3 3 1 1 0 0 3 -3
p829
aVJose Calderon TOR 11/03/2012 TOR @ BKN L 21 2 1 5 20.0 0 2 0.0 0 0 - 0 0 0 3 0 0 1 2 -7
p830
aVAndrea Bargnani TOR 10/31/2012 TOR vs. IND L 34 16 4 15 26.7 1 4 25.0 7 8 87.5 0 3 3 1 0 3 3 2 -3
p831
aVLandry Fields TOR 10/31/2012 TOR vs. IND L 24 0 0 6 0.0 0 1 0.0 0 0 - 0 2 2 1 1 0 1 1 6
p832
aVJose Calderon TOR 10/31/2012 TOR vs. IND L 26 15 6 12 50.0 3 6 50.0 0 0 - 0 1 1 3 1 0 1 1 -8
p833
aVKyle Lowry TOR 10/31/2012 TOR vs. IND L 36 21 6 11 54.5 2 3 66.7 7 7 100.0 1 6 7 8 5 0 2 3 -1
p834
aVJonas Valanciunas TOR 10/31/2012 TOR vs. IND L 23 12 6 15 40.0 0 0 - 0 0 - 6 4 10 0 0 1 0 4 -7
p835
aVDeMar DeRozan TOR 10/31/2012 TOR vs. IND L 27 10 5 14 35.7 0 0 - 0 0 - 3 2 5 1 0 1 0 1 -5
p836
aVTerrence Ross TOR 10/31/2012 TOR vs. IND L 6 0 0 2 0.0 0 2 0.0 0 0 - 0 1 1 0 0 0 0 0 4
p837
aVEd Davis TOR 10/31/2012 TOR vs. IND L 14 5 2 4 50.0 0 0 - 1 2 50.0 1 1 2 0 0 2 2 1 1
p838
aVAmir Johnson TOR 10/31/2012 TOR vs. IND L 17 5 2 6 33.3 0 0 - 1 2 50.0 3 4 7 0 2 1 0 3 4
p839
aVAlan Anderson TOR 10/31/2012 TOR vs. IND L 19 0 0 3 0.0 0 1 0.0 0 0 - 1 1 2 4 3 0 1 0 1
p840
aVJohn Lucas III TOR 10/31/2012 TOR vs. IND L 5 0 0 1 0.0 0 0 - 0 0 - 0 1 1 0 0 0 0 0 -3
p841
aVAaron Gray TOR 10/31/2012 TOR vs. IND L 8 4 2 2 100.0 0 0 - 0 0 - 0 1 1 0 0 0 0 2 1
p842
a.