(lp0
VPLAYER TEAM DATE MATCHUP W/L MIN PTS FGM FGA FG% 3PM 3PA 3P% FTM FTA FT% OREB DREB REB AST STL BLK TOV PF +/-
p1
aVMike Conley MEM 05/27/2013 MEM vs. SAS L 38 9 4 13 30.8 0 2 0.0 1 2 50.0 1 5 6 7 0 0 3 1 -14
p2
aVMarc Gasol MEM 05/27/2013 MEM vs. SAS L 41 14 5 12 41.7 0 0 - 4 5 80.0 0 5 5 5 1 3 4 4 -7
p3
aVDarrell Arthur MEM 05/27/2013 MEM vs. SAS L 18 8 4 8 50.0 0 0 - 0 0 - 4 2 6 2 0 1 1 1 4
p4
aVQuincy Pondexter MEM 05/27/2013 MEM vs. SAS L 34 22 7 11 63.6 3 6 50.0 5 7 71.4 1 2 3 1 2 0 1 1 4
p5
aVTony Allen MEM 05/27/2013 MEM vs. SAS L 27 4 2 9 22.2 0 0 - 0 0 - 5 3 8 2 2 0 0 5 -7
p6
aVZach Randolph MEM 05/27/2013 MEM vs. SAS L 36 13 4 13 30.8 0 0 - 5 8 62.5 4 4 8 0 1 1 2 3 -9
p7
aVKeyon Dooling MEM 05/27/2013 MEM vs. SAS L 4 0 0 2 0.0 0 0 - 0 0 - 0 0 0 0 0 0 0 1 -1
p8
aVJerryd Bayless MEM 05/27/2013 MEM vs. SAS L 24 8 3 10 30.0 2 4 50.0 0 0 - 0 1 1 2 1 0 1 4 15
p9
aVTayshaun Prince MEM 05/27/2013 MEM vs. SAS L 17 8 3 8 37.5 0 2 0.0 2 2 100.0 1 3 4 0 0 0 1 2 -20
p10
aVTayshaun Prince MEM 05/25/2013 MEM vs. SAS L 21 7 3 7 42.9 1 1 100.0 0 0 - 0 1 1 0 1 1 0 0 1
p11
aVKeyon Dooling MEM 05/25/2013 MEM vs. SAS L 8 0 0 0 - 0 0 - 0 0 - 0 1 1 0 0 0 0 0 -3
p12
aVZach Randolph MEM 05/25/2013 MEM vs. SAS L 45 14 5 14 35.7 0 0 - 4 8 50.0 9 6 15 0 0 0 1 4 -10
p13
aVJon Leuer MEM 05/25/2013 MEM vs. SAS L 3 0 0 1 0.0 0 0 - 0 0 - 1 1 2 0 0 1 0 0 -2
p14
aVMike Conley MEM 05/25/2013 MEM vs. SAS L 47 20 8 21 38.1 2 8 25.0 2 3 66.7 1 2 3 4 5 0 5 0 -10
p15
aVEd Davis MEM 05/25/2013 MEM vs. SAS L 5 0 0 1 0.0 0 0 - 0 0 - 0 1 1 0 0 0 0 1 -9
p16
aVTony Allen MEM 05/25/2013 MEM vs. SAS L 26 12 5 9 55.6 0 0 - 2 4 50.0 2 5 7 3 1 1 1 3 4
p17
aVDarrell Arthur MEM 05/25/2013 MEM vs. SAS L 3 2 1 2 50.0 0 0 - 0 0 - 1 2 3 0 0 0 0 3 3
p18
aVQuincy Pondexter MEM 05/25/2013 MEM vs. SAS L 28 15 6 13 46.2 3 6 50.0 0 1 0.0 0 0 0 2 1 0 0 6 -9
p19
aVJerryd Bayless MEM 05/25/2013 MEM vs. SAS L 31 7 3 11 27.3 1 5 20.0 0 0 - 0 1 1 4 0 2 1 2 -18
p20
aVMarc Gasol MEM 05/25/2013 MEM vs. SAS L 48 16 7 18 38.9 0 0 - 2 2 100.0 5 9 14 5 2 1 2 5 -2
p21
aVMarc Gasol MEM 05/21/2013 MEM @ SAS L 43 12 4 12 33.3 0 0 - 4 4 100.0 3 11 14 4 0 2 1 5 2
p22
aVTayshaun Prince MEM 05/21/2013 MEM @ SAS L 16 2 1 5 20.0 0 0 - 0 0 - 2 0 2 1 0 0 1 1 -11
p23
aVTony Wroten MEM 05/21/2013 MEM @ SAS L 3 0 0 4 0.0 0 1 0.0 0 0 - 1 0 1 0 0 0 0 0 -5
p24
aVMike Conley MEM 05/21/2013 MEM @ SAS L 35 18 6 14 42.9 2 5 40.0 4 6 66.7 1 3 4 4 2 1 1 4 1
p25
aVTony Allen MEM 05/21/2013 MEM @ SAS L 26 8 2 11 18.2 0 1 0.0 4 4 100.0 4 4 8 3 2 0 2 2 -16
p26
aVJerryd Bayless MEM 05/21/2013 MEM @ SAS L 34 18 7 18 38.9 1 5 20.0 3 4 75.0 0 3 3 3 2 1 1 2 -2
p27
aVJon Leuer MEM 05/21/2013 MEM @ SAS L 0 0 0 0 - 0 0 - 0 0 - 0 0 0 0 0 0 0 0 1
p28
aVDarrell Arthur MEM 05/21/2013 MEM @ SAS L 12 4 2 6 33.3 0 0 - 0 0 - 0 0 0 0 1 0 0 4 9
p29
aVQuincy Pondexter MEM 05/21/2013 MEM @ SAS L 37 7 3 6 50.0 1 4 25.0 0 0 - 1 8 9 1 1 0 0 2 3
p30
aVZach Randolph MEM 05/21/2013 MEM @ SAS L 45 15 6 18 33.3 0 0 - 3 8 37.5 7 11 18 3 1 2 4 2 -7
p31
aVKeyon Dooling MEM 05/21/2013 MEM @ SAS L 13 5 2 3 66.7 1 1 100.0 0 0 - 0 1 1 0 0 0 0 0 5
p32
aVAustin Daye MEM 05/19/2013 MEM @ SAS L 9 4 2 5 40.0 0 1 0.0 0 0 - 0 1 1 0 0 0 1 0 -7
p33
aVJerryd Bayless MEM 05/19/2013 MEM @ SAS L 21 8 3 7 42.9 0 2 0.0 2 2 100.0 0 4 4 5 1 1 0 2 -9
p34
aVMike Conley MEM 05/19/2013 MEM @ SAS L 32 14 5 12 41.7 0 0 - 4 6 66.7 0 4 4 8 1 0 4 2 -14
p35
aVTony Wroten MEM 05/19/2013 MEM @ SAS L 2 0 0 1 0.0 0 0 - 0 0 - 0 0 0 0 0 0 0 0 -2
p36
aVKeyon Dooling MEM 05/19/2013 MEM @ SAS L 3 0 0 0 - 0 0 - 0 0 - 0 0 0 0 1 0 0 0 -6
p37
aVTony Allen MEM 05/19/2013 MEM @ SAS L 25 8 3 3 100.0 0 0 - 2 2 100.0 1 3 4 1 0 0 2 2 -16
p38
aVTayshaun Prince MEM 05/19/2013 MEM @ SAS L 29 6 2 5 40.0 0 0 - 2 4 50.0 1 0 1 2 0 0 0 0 -7
p39
aVJon Leuer MEM 05/19/2013 MEM @ SAS L 5 2 1 1 100.0 0 0 - 0 0 - 1 0 1 0 1 0 0 0 0
p40
aVEd Davis MEM 05/19/2013 MEM @ SAS L 11 5 1 3 33.3 0 0 - 3 4 75.0 2 0 2 0 0 1 0 2 5
p41
aVQuincy Pondexter MEM 05/19/2013 MEM @ SAS L 29 17 6 11 54.5 5 9 55.6 0 0 - 0 1 1 0 0 0 2 2 -9
p42
aVDarrell Arthur MEM 05/19/2013 MEM @ SAS L 12 2 1 2 50.0 0 0 - 0 0 - 1 2 3 2 0 1 2 2 -5
p43
aVZach Randolph MEM 05/19/2013 MEM @ SAS L 28 2 1 8 12.5 0 0 - 0 0 - 3 4 7 0 0 1 1 2 -28
p44
aVMarc Gasol MEM 05/19/2013 MEM @ SAS L 34 15 7 16 43.8 0 0 - 1 2 50.0 1 6 7 2 1 2 0 3 -12
p45
aVTayshaun Prince MEM 05/15/2013 MEM @ OKC W 31 8 3 13 23.1 0 2 0.0 2 2 100.0 2 4 6 1 0 0 2 3 -21
p46
aVTony Allen MEM 05/15/2013 MEM @ OKC W 29 11 4 6 66.7 0 1 0.0 3 3 100.0 0 3 3 2 2 0 2 3 12
p47
aVMarc Gasol MEM 05/15/2013 MEM @ OKC W 41 10 5 13 38.5 0 0 - 0 0 - 1 6 7 0 2 4 0 2 1
p48
aVZach Randolph MEM 05/15/2013 MEM @ OKC W 41 28 8 17 47.1 0 0 - 12 16 75.0 3 11 14 2 2 0 1 3 14
p49
aVKeyon Dooling MEM 05/15/2013 MEM @ OKC W 9 2 0 1 0.0 0 1 0.0 2 2 100.0 0 0 0 0 0 0 0 0 13
p50
aVMike Conley MEM 05/15/2013 MEM @ OKC W 39 13 5 18 27.8 0 4 0.0 3 3 100.0 1 7 8 11 2 0 2 2 -9
p51
aVDarrell Arthur MEM 05/15/2013 MEM @ OKC W 9 2 1 2 50.0 0 0 - 0 0 - 1 0 1 0 0 0 0 0 2
p52
aVJerryd Bayless MEM 05/15/2013 MEM @ OKC W 20 8 2 9 22.2 1 4 25.0 3 3 100.0 0 4 4 2 0 0 1 2 1
p53
aVQuincy Pondexter MEM 05/15/2013 MEM @ OKC W 21 6 2 2 100.0 2 2 100.0 0 0 - 0 3 3 0 0 0 1 2 7
p54
aVJerryd Bayless MEM 05/13/2013 MEM vs. OKC W 27 9 3 9 33.3 2 5 40.0 1 1 100.0 0 3 3 3 0 0 0 4 18
p55
aVZach Randolph MEM 05/13/2013 MEM vs. OKC W 40 23 8 17 47.1 0 0 - 7 8 87.5 6 6 12 3 0 1 2 3 9
p56
aVTony Allen MEM 05/13/2013 MEM vs. OKC W 34 10 5 9 55.6 0 0 - 0 0 - 2 4 6 2 3 0 1 5 5
p57
aVMike Conley MEM 05/13/2013 MEM vs. OKC W 49 24 7 21 33.3 4 10 40.0 6 7 85.7 1 2 3 5 4 0 1 3 11
p58
aVTayshaun Prince MEM 05/13/2013 MEM vs. OKC W 35 8 3 7 42.9 0 0 - 2 2 100.0 1 3 4 5 0 0 1 4 3
p59
aVDarrell Arthur MEM 05/13/2013 MEM vs. OKC W 16 6 2 5 40.0 0 1 0.0 2 2 100.0 0 2 2 0 1 0 0 1 -3
p60
aVMarc Gasol MEM 05/13/2013 MEM vs. OKC W 48 23 8 18 44.4 0 0 - 7 9 77.8 3 8 11 0 0 6 2 3 4
p61
aVKeyon Dooling MEM 05/13/2013 MEM vs. OKC W 4 0 0 0 - 0 0 - 0 0 - 0 0 0 0 0 0 0 0 -5
p62
aVQuincy Pondexter MEM 05/13/2013 MEM vs. OKC W 11 0 0 3 0.0 0 1 0.0 0 0 - 0 0 0 0 0 0 0 0 -12
p63
aVJerryd Bayless MEM 05/11/2013 MEM vs. OKC W 25 11 5 13 38.5 1 5 20.0 0 0 - 0 4 4 2 1 1 2 1 3
p64
aVTayshaun Prince MEM 05/11/2013 MEM vs. OKC W 22 2 1 5 20.0 0 1 0.0 0 0 - 1 3 4 1 0 0 1 0 9
p65
aVZach Randolph MEM 05/11/2013 MEM vs. OKC W 37 8 4 12 33.3 0 0 - 0 0 - 1 9 10 2 0 0 2 2 1
p66
aVMarc Gasol MEM 05/11/2013 MEM vs. OKC W 37 20 6 14 42.9 0 0 - 8 10 80.0 1 8 9 4 0 2 2 5 14
p67
aVDarrell Arthur MEM 05/11/2013 MEM vs. OKC W 11 4 2 3 66.7 0 0 - 0 0 - 0 3 3 0 0 1 0 1 -8
p68
aVQuincy Pondexter MEM 05/11/2013 MEM vs. OKC W 27 9 4 5 80.0 1 2 50.0 0 0 - 0 2 2 1 0 1 0 2 2
p69
aVMike Conley MEM 05/11/2013 MEM vs. OKC W 38 14 3 9 33.3 1 2 50.0 7 7 100.0 0 7 7 6 2 1 4 3 4
p70
aVTony Allen MEM 05/11/2013 MEM vs. OKC W 34 14 4 10 40.0 0 1 0.0 6 9 66.7 2 3 5 0 2 0 0 4 3
p71
aVKeyon Dooling MEM 05/11/2013 MEM vs. OKC W 10 5 1 3 33.3 1 3 33.3 2 2 100.0 0 0 0 0 0 0 0 1 2
p72
aVTony Allen MEM 05/07/2013 MEM @ OKC W 23 12 4 13 30.8 0 1 0.0 4 6 66.7 5 2 7 1 5 0 1 4 5
p73
aVQuincy Pondexter MEM 05/07/2013 MEM @ OKC W 17 5 2 5 40.0 1 3 33.3 0 0 - 0 2 2 0 2 0 2 3 4
p74
aVMarc Gasol MEM 05/07/2013 MEM @ OKC W 43 24 8 13 61.5 0 0 - 8 8 100.0 2 3 5 5 2 1 2 3 10
p75
aVEd Davis MEM 05/07/2013 MEM @ OKC W 3 2 1 1 100.0 0 0 - 0 0 - 0 0 0 0 0 0 0 1 -2
p76
aVTayshaun Prince MEM 05/07/2013 MEM @ OKC W 34 4 2 9 22.2 0 0 - 0 0 - 2 3 5 2 1 0 2 1 2
p77
aVZach Randolph MEM 05/07/2013 MEM @ OKC W 43 15 6 12 50.0 0 1 0.0 3 7 42.9 4 4 8 3 1 1 0 3 8
p78
aVMike Conley MEM 05/07/2013 MEM @ OKC W 42 26 11 22 50.0 2 7 28.6 2 3 66.7 2 8 10 9 1 0 2 1 10
p79
aVKeyon Dooling MEM 05/07/2013 MEM @ OKC W 0 0 0 0 - 0 0 - 0 0 - 0 0 0 0 0 0 0 0 -3
p80
aVDarrell Arthur MEM 05/07/2013 MEM @ OKC W 7 2 0 2 0.0 0 0 - 2 2 100.0 0 1 1 0 0 0 0 3 -1
p81
aVTony Wroten MEM 05/07/2013 MEM @ OKC W 6 2 1 3 33.3 0 0 - 0 0 - 0 1 1 1 1 0 1 1 -4
p82
aVJerryd Bayless MEM 05/07/2013 MEM @ OKC W 22 7 1 6 16.7 1 3 33.3 4 6 66.7 1 3 4 1 0 0 0 3 1
p83
aVQuincy Pondexter MEM 05/05/2013 MEM @ OKC L 25 13 4 8 50.0 3 5 60.0 2 5 40.0 1 4 5 3 0 0 0 4 -2
p84
aVAustin Daye MEM 05/05/2013 MEM @ OKC L 5 3 1 2 50.0 0 0 - 1 1 100.0 0 0 0 0 0 0 0 2 -1
p85
aVTony Allen MEM 05/05/2013 MEM @ OKC L 21 3 1 5 20.0 0 0 - 1 1 100.0 2 2 4 0 0 0 2 3 -3
p86
aVDarrell Arthur MEM 05/05/2013 MEM @ OKC L 12 2 1 3 33.3 0 0 - 0 0 - 0 1 1 0 0 0 3 3 1
p87
aVKeyon Dooling MEM 05/05/2013 MEM @ OKC L 8 0 0 2 0.0 0 1 0.0 0 0 - 0 0 0 0 0 0 0 1 -6
p88
aVMarc Gasol MEM 05/05/2013 MEM @ OKC L 40 20 8 14 57.1 0 0 - 4 7 57.1 2 8 10 3 3 2 1 1 3
p89
aVMike Conley MEM 05/05/2013 MEM @ OKC L 38 13 5 15 33.3 1 5 20.0 2 3 66.7 1 4 5 3 2 0 2 1 4
p90
aVZach Randolph MEM 05/05/2013 MEM @ OKC L 37 18 7 16 43.8 0 0 - 4 5 80.0 2 8 10 1 0 0 3 3 -2
p91
aVTayshaun Prince MEM 05/05/2013 MEM @ OKC L 35 9 4 10 40.0 1 4 25.0 0 2 0.0 0 5 5 2 0 0 0 1 0
p92
aVJerryd Bayless MEM 05/05/2013 MEM @ OKC L 20 10 4 7 57.1 2 4 50.0 0 0 - 0 1 1 1 0 0 0 3 -4
p93
aVKeyon Dooling MEM 05/03/2013 MEM vs. LAC W 11 0 0 1 0.0 0 0 - 0 0 - 0 0 0 0 0 0 1 2 -4
p94
aVJerryd Bayless MEM 05/03/2013 MEM vs. LAC W 24 18 6 13 46.2 3 8 37.5 3 3 100.0 0 2 2 3 0 0 3 3 -1
p95
aVMike Conley MEM 05/03/2013 MEM vs. LAC W 32 23 4 7 57.1 3 4 75.0 12 17 70.6 0 4 4 7 0 0 1 4 22
p96
aVMarc Gasol MEM 05/03/2013 MEM vs. LAC W 39 10 4 8 50.0 0 0 - 2 2 100.0 0 7 7 1 1 1 0 5 8
p97
aVDarrell Arthur MEM 05/03/2013 MEM vs. LAC W 9 4 2 2 100.0 0 0 - 0 0 - 0 2 2 0 0 0 1 2 -2
p98
aVTayshaun Prince MEM 05/03/2013 MEM vs. LAC W 41 11 4 12 33.3 0 2 0.0 3 4 75.0 0 6 6 5 1 2 0 0 15
p99
aVTony Allen MEM 05/03/2013 MEM vs. LAC W 31 19 5 9 55.6 0 0 - 9 11 81.8 4 3 7 6 4 0 0 3 11
p100
aVQuincy Pondexter MEM 05/03/2013 MEM vs. LAC W 20 10 3 7 42.9 2 5 40.0 2 2 100.0 1 0 1 1 1 0 1 2 -1
p101
aVZach Randolph MEM 05/03/2013 MEM vs. LAC W 34 23 8 12 66.7 0 0 - 7 8 87.5 1 4 5 4 0 0 3 5 17
p102
aVJerryd Bayless MEM 04/30/2013 MEM @ LAC W 14 9 3 8 37.5 1 3 33.3 2 2 100.0 0 0 0 0 1 0 1 1 0
p103
aVZach Randolph MEM 04/30/2013 MEM @ LAC W 38 25 11 21 52.4 0 0 - 3 5 60.0 5 6 11 1 2 0 0 3 9
p104
aVTayshaun Prince MEM 04/30/2013 MEM @ LAC W 37 15 6 10 60.0 2 3 66.7 1 3 33.3 0 2 2 3 1 1 0 1 14
p105
aVEd Davis MEM 04/30/2013 MEM @ LAC W 6 0 0 1 0.0 0 0 - 0 0 - 0 1 1 0 0 0 0 1 1
p106
aVQuincy Pondexter MEM 04/30/2013 MEM @ LAC W 25 1 0 3 0.0 0 1 0.0 1 2 50.0 1 3 4 0 1 1 1 1 1
p107
aVTony Wroten MEM 04/30/2013 MEM @ LAC W 0 0 0 0 - 0 0 - 0 0 - 0 0 0 0 0 0 0 0 0
p108
aVKeyon Dooling MEM 04/30/2013 MEM @ LAC W 12 2 1 2 50.0 0 1 0.0 0 0 - 0 2 2 1 0 0 1 4 0
p109
aVDarrell Arthur MEM 04/30/2013 MEM @ LAC W 7 4 2 4 50.0 0 0 - 0 0 - 1 2 3 0 0 0 0 4 0
p110
aVMarc Gasol MEM 04/30/2013 MEM @ LAC W 32 21 6 14 42.9 0 0 - 9 9 100.0 2 6 8 4 0 2 1 5 3
p111
aVMike Conley MEM 04/30/2013 MEM @ LAC W 36 20 5 13 38.5 0 2 0.0 10 12 83.3 0 3 3 6 0 1 2 3 12
p112
aVTony Allen MEM 04/30/2013 MEM @ LAC W 33 6 3 9 33.3 0 0 - 0 0 - 5 3 8 4 2 2 1 2 10
p113
aVMarc Gasol MEM 04/27/2013 MEM vs. LAC W 42 24 9 14 64.3 0 0 - 6 7 85.7 3 10 13 4 0 3 1 3 20
p114
aVEd Davis MEM 04/27/2013 MEM vs. LAC W 2 0 0 0 - 0 0 - 0 0 - 0 0 0 0 0 0 1 1 -6
p115
aVMike Conley MEM 04/27/2013 MEM vs. LAC W 40 15 5 13 38.5 2 3 66.7 3 4 75.0 1 3 4 13 0 0 2 2 18
p116
aVTony Allen MEM 04/27/2013 MEM vs. LAC W 27 10 3 8 37.5 0 0 - 4 5 80.0 2 3 5 1 1 1 1 3 11
p117
aVAustin Daye MEM 04/27/2013 MEM vs. LAC W 1 0 0 0 - 0 0 - 0 0 - 0 0 0 0 0 0 0 0 2
p118
aVZach Randolph MEM 04/27/2013 MEM vs. LAC W 37 24 11 17 64.7 0 0 - 2 4 50.0 4 5 9 2 0 1 5 4 28
p119
aVTony Wroten MEM 04/27/2013 MEM vs. LAC W 5 2 0 1 0.0 0 0 - 2 2 100.0 0 2 2 1 0 0 1 0 4
p120
aVTayshaun Prince MEM 04/27/2013 MEM vs. LAC W 37 15 7 12 58.3 1 3 33.3 0 0 - 1 5 6 3 1 1 1 1 19
p121
aVQuincy Pondexter MEM 04/27/2013 MEM vs. LAC W 29 10 3 7 42.9 1 3 33.3 3 5 60.0 1 2 3 1 1 0 0 4 15
p122
aVDarrell Arthur MEM 04/27/2013 MEM vs. LAC W 11 4 1 1 100.0 0 0 - 2 2 100.0 1 1 2 0 0 0 0 2 1
p123
aVJon Leuer MEM 04/27/2013 MEM vs. LAC W 1 0 0 0 - 0 0 - 0 0 - 0 0 0 0 0 0 0 0 2
p124
aVJerryd Bayless MEM 04/27/2013 MEM vs. LAC W 9 0 0 4 0.0 0 3 0.0 0 0 - 0 1 1 0 0 0 1 0 -9
p125
aVJerryd Bayless MEM 04/25/2013 MEM vs. LAC W 10 5 2 6 33.3 1 3 33.3 0 0 - 0 0 0 1 0 0 3 3 -2
p126
aVEd Davis MEM 04/25/2013 MEM vs. LAC W 5 0 0 1 0.0 0 0 - 0 0 - 1 0 1 0 0 0 0 1 -5
p127
aVQuincy Pondexter MEM 04/25/2013 MEM vs. LAC W 26 13 4 9 44.4 1 4 25.0 4 6 66.7 2 1 3 0 1 0 1 2 6
p128
aVMike Conley MEM 04/25/2013 MEM vs. LAC W 37 6 1 9 11.1 0 4 0.0 4 4 100.0 2 4 6 10 3 2 0 0 15
p129
aVKeyon Dooling MEM 04/25/2013 MEM vs. LAC W 10 7 2 5 40.0 1 2 50.0 2 2 100.0 0 0 0 1 0 0 1 1 -3
p130
aVTony Allen MEM 04/25/2013 MEM vs. LAC W 31 13 4 11 36.4 1 3 33.3 4 4 100.0 2 7 9 1 4 0 3 3 9
p131
aVMarc Gasol MEM 04/25/2013 MEM vs. LAC W 36 16 6 13 46.2 0 0 - 4 8 50.0 0 8 8 2 0 1 0 3 16
p132
aVTayshaun Prince MEM 04/25/2013 MEM vs. LAC W 30 2 1 3 33.3 0 0 - 0 2 0.0 1 0 1 0 2 0 1 1 11
p133
aVZach Randolph MEM 04/25/2013 MEM vs. LAC W 37 27 9 18 50.0 0 0 - 9 10 90.0 6 5 11 2 1 0 1 5 19
p134
aVDarrell Arthur MEM 04/25/2013 MEM vs. LAC W 17 5 2 5 40.0 0 0 - 1 2 50.0 3 3 6 1 0 0 0 3 -6
p135
aVMike Conley MEM 04/22/2013 MEM @ LAC L 44 28 9 18 50.0 1 5 20.0 9 13 69.2 0 3 3 9 2 0 3 4 3
p136
aVTayshaun Prince MEM 04/22/2013 MEM @ LAC L 38 6 2 10 20.0 0 1 0.0 2 2 100.0 0 6 6 1 0 0 0 1 7
p137
aVZach Randolph MEM 04/22/2013 MEM @ LAC L 31 13 5 10 50.0 0 0 - 3 5 60.0 4 4 8 0 2 0 3 5 1
p138
aVJerryd Bayless MEM 04/22/2013 MEM @ LAC L 9 2 1 4 25.0 0 1 0.0 0 0 - 0 0 0 2 0 0 0 1 -7
p139
aVMarc Gasol MEM 04/22/2013 MEM @ LAC L 44 17 6 14 42.9 0 0 - 5 6 83.3 2 5 7 2 1 3 2 2 8
p140
aVEd Davis MEM 04/22/2013 MEM @ LAC L 3 0 0 1 0.0 0 0 - 0 0 - 0 0 0 0 0 0 1 0 -4
p141
aVDarrell Arthur MEM 04/22/2013 MEM @ LAC L 18 9 4 5 80.0 0 1 0.0 1 1 100.0 1 1 2 1 0 1 0 3 -11
p142
aVKeyon Dooling MEM 04/22/2013 MEM @ LAC L 3 0 0 1 0.0 0 1 0.0 0 0 - 0 1 1 0 0 0 0 2 -4
p143
aVQuincy Pondexter MEM 04/22/2013 MEM @ LAC L 11 0 0 1 0.0 0 1 0.0 0 0 - 0 1 1 0 1 0 0 0 -8
p144
aVTony Allen MEM 04/22/2013 MEM @ LAC L 39 16 6 9 66.7 1 1 100.0 3 7 42.9 1 9 10 1 2 1 3 3 5
p145
aVJerryd Bayless MEM 04/20/2013 MEM @ LAC L 30 19 6 12 50.0 2 4 50.0 5 5 100.0 0 2 2 3 1 0 2 4 -11
p146
aVEd Davis MEM 04/20/2013 MEM @ LAC L 13 6 3 4 75.0 0 0 - 0 0 - 1 5 6 0 0 0 0 0 -5
p147
aVMarc Gasol MEM 04/20/2013 MEM @ LAC L 41 16 4 12 33.3 0 0 - 8 11 72.7 0 2 2 7 0 0 0 4 -15
p148
aVZach Randolph MEM 04/20/2013 MEM @ LAC L 25 13 6 10 60.0 0 0 - 1 2 50.0 0 4 4 1 0 0 3 5 -9
p149
aVMike Conley MEM 04/20/2013 MEM @ LAC L 28 12 5 11 45.5 0 3 0.0 2 3 66.7 1 0 1 5 2 0 2 4 -16
p150
aVJon Leuer MEM 04/20/2013 MEM @ LAC L 2 0 0 0 - 0 0 - 0 0 - 0 0 0 0 0 0 0 1 -4
p151
aVQuincy Pondexter MEM 04/20/2013 MEM @ LAC L 18 5 2 3 66.7 1 1 100.0 0 0 - 1 0 1 1 0 0 0 0 5
p152
aVAustin Daye MEM 04/20/2013 MEM @ LAC L 6 0 0 1 0.0 0 0 - 0 0 - 0 0 0 0 0 1 0 0 -5
p153
aVTony Allen MEM 04/20/2013 MEM @ LAC L 17 8 3 4 75.0 0 0 - 2 2 100.0 0 0 0 0 0 0 0 3 -10
p154
aVDarrell Arthur MEM 04/20/2013 MEM @ LAC L 12 0 0 3 0.0 0 0 - 0 0 - 1 2 3 0 0 0 0 4 -8
p155
aVTayshaun Prince MEM 04/20/2013 MEM @ LAC L 29 2 1 5 20.0 0 0 - 0 0 - 0 4 4 3 0 0 0 2 -22
p156
aVKeyon Dooling MEM 04/20/2013 MEM @ LAC L 18 6 2 4 50.0 2 3 66.7 0 0 - 0 0 0 2 0 0 0 2 -3
p157
aVTony Wroten MEM 04/20/2013 MEM @ LAC L 2 4 1 2 50.0 0 1 0.0 2 2 100.0 0 0 0 0 0 0 0 0 -2
p158
a.