(lp0
VPLAYER TEAM DATE MATCHUP W/L MIN PTS FGM FGA FG% 3PM 3PA 3P% FTM FTA FT% OREB DREB REB AST STL BLK TOV PF +/-
p1
aVGary Neal SAS 06/20/2013 SAS @ MIA L 26 5 2 7 28.6 1 3 33.3 0 0 - 1 3 4 1 0 0 1 2 -7
p2
aVBoris Diaw SAS 06/20/2013 SAS @ MIA L 13 5 2 2 100.0 1 1 100.0 0 0 - 2 1 3 1 0 0 0 2 -18
p3
aVManu Ginobili SAS 06/20/2013 SAS @ MIA L 35 18 6 12 50.0 2 5 40.0 4 4 100.0 0 3 3 5 0 0 4 4 6
p4
aVDanny Green SAS 06/20/2013 SAS @ MIA L 36 5 1 12 8.3 1 6 16.7 2 2 100.0 1 4 5 0 2 1 2 3 0
p5
aVTim Duncan SAS 06/20/2013 SAS @ MIA L 43 24 8 18 44.4 0 0 - 8 8 100.0 4 8 12 2 4 1 3 4 2
p6
aVTony Parker SAS 06/20/2013 SAS @ MIA L 37 10 3 12 25.0 0 0 - 4 4 100.0 0 0 0 4 3 0 2 1 -4
p7
aVCory Joseph SAS 06/20/2013 SAS @ MIA L 0 0 0 0 - 0 0 - 0 0 - 0 0 0 0 0 0 0 0 0
p8
aVTiago Splitter SAS 06/20/2013 SAS @ MIA L 4 2 1 2 50.0 0 0 - 0 0 - 0 0 0 0 2 0 0 1 -6
p9
aVKawhi Leonard SAS 06/20/2013 SAS @ MIA L 45 19 8 17 47.1 1 4 25.0 2 4 50.0 4 12 16 0 1 1 2 2 -8
p10
aVGary Neal SAS 06/18/2013 SAS @ MIA L 24 5 2 7 28.6 1 3 33.3 0 0 - 0 1 1 0 0 0 1 2 -5
p11
aVTim Duncan SAS 06/18/2013 SAS @ MIA L 44 30 13 21 61.9 0 0 - 4 5 80.0 5 12 17 0 1 0 2 2 16
p12
aVBoris Diaw SAS 06/18/2013 SAS @ MIA L 23 7 2 6 33.3 0 1 0.0 3 4 75.0 1 3 4 2 0 0 0 2 1
p13
aVKawhi Leonard SAS 06/18/2013 SAS @ MIA L 46 22 9 14 64.3 1 3 33.3 3 4 75.0 2 9 11 0 3 0 0 3 11
p14
aVTony Parker SAS 06/18/2013 SAS @ MIA L 43 19 6 23 26.1 1 3 33.3 6 7 85.7 1 2 3 8 2 0 0 1 8
p15
aVMatt Bonner SAS 06/18/2013 SAS @ MIA L 0 0 0 0 - 0 0 - 0 0 - 0 0 0 0 0 0 0 0 0
p16
aVManu Ginobili SAS 06/18/2013 SAS @ MIA L 35 9 2 5 40.0 1 3 33.3 4 6 66.7 1 3 4 3 1 0 8 4 -21
p17
aVDanny Green SAS 06/18/2013 SAS @ MIA L 41 3 1 7 14.3 1 5 20.0 0 0 - 2 2 4 0 1 2 1 4 -12
p18
aVTiago Splitter SAS 06/18/2013 SAS @ MIA L 8 5 2 2 100.0 0 0 - 1 2 50.0 0 1 1 0 0 0 1 3 -13
p19
aVTony Parker SAS 06/16/2013 SAS vs. MIA W 36 26 10 14 71.4 0 1 0.0 6 8 75.0 0 1 1 5 0 0 3 2 -1
p20
aVNando De Colo SAS 06/16/2013 SAS vs. MIA W 1 0 0 0 - 0 0 - 0 0 - 0 0 0 0 0 0 0 0 -3
p21
aVTim Duncan SAS 06/16/2013 SAS vs. MIA W 38 17 7 10 70.0 0 0 - 3 4 75.0 3 9 12 1 0 3 1 1 2
p22
aVGary Neal SAS 06/16/2013 SAS vs. MIA W 21 2 1 4 25.0 0 2 0.0 0 0 - 0 1 1 1 0 0 1 2 17
p23
aVMatt Bonner SAS 06/16/2013 SAS vs. MIA W 1 0 0 0 - 0 0 - 0 0 - 0 0 0 0 1 0 0 0 -1
p24
aVDanny Green SAS 06/16/2013 SAS vs. MIA W 39 24 8 15 53.3 6 10 60.0 2 2 100.0 0 6 6 0 0 3 2 4 6
p25
aVTiago Splitter SAS 06/16/2013 SAS vs. MIA W 10 4 2 4 50.0 0 0 - 0 0 - 0 2 2 0 0 1 3 3 6
p26
aVKawhi Leonard SAS 06/16/2013 SAS vs. MIA W 33 16 6 8 75.0 2 4 50.0 2 2 100.0 1 7 8 1 3 0 2 3 2
p27
aVBoris Diaw SAS 06/16/2013 SAS vs. MIA W 27 1 0 1 0.0 0 1 0.0 1 2 50.0 1 3 4 3 0 1 3 2 6
p28
aVCory Joseph SAS 06/16/2013 SAS vs. MIA W 1 0 0 0 - 0 0 - 0 0 - 0 0 0 0 0 0 0 0 -3
p29
aVManu Ginobili SAS 06/16/2013 SAS vs. MIA W 33 24 8 14 57.1 1 4 25.0 7 8 87.5 0 2 2 10 1 0 3 4 19
p30
aVGary Neal SAS 06/13/2013 SAS vs. MIA L 31 13 4 7 57.1 3 4 75.0 2 2 100.0 0 3 3 0 0 0 2 2 -15
p31
aVKawhi Leonard SAS 06/13/2013 SAS vs. MIA L 33 12 5 10 50.0 1 2 50.0 1 2 50.0 1 6 7 0 1 2 1 2 -6
p32
aVBoris Diaw SAS 06/13/2013 SAS vs. MIA L 11 9 3 6 50.0 1 1 100.0 2 2 100.0 1 2 3 1 0 0 2 1 3
p33
aVTim Duncan SAS 06/13/2013 SAS vs. MIA L 33 20 6 10 60.0 0 0 - 8 10 80.0 1 4 5 1 0 1 3 2 -4
p34
aVTony Parker SAS 06/13/2013 SAS vs. MIA L 31 15 7 16 43.8 0 1 0.0 1 3 33.3 1 3 4 9 1 0 3 0 -6
p35
aVTiago Splitter SAS 06/13/2013 SAS vs. MIA L 14 4 0 3 0.0 0 0 - 4 4 100.0 1 2 3 1 1 0 3 1 -11
p36
aVDeJuan Blair SAS 06/13/2013 SAS vs. MIA L 4 0 0 2 0.0 0 0 - 0 0 - 0 2 2 1 1 0 0 0 -1
p37
aVMatt Bonner SAS 06/13/2013 SAS vs. MIA L 7 4 2 2 100.0 0 0 - 0 0 - 0 1 1 0 0 0 0 1 -4
p38
aVCory Joseph SAS 06/13/2013 SAS vs. MIA L 9 1 0 1 0.0 0 0 - 1 2 50.0 0 1 1 1 0 0 1 0 -9
p39
aVDanny Green SAS 06/13/2013 SAS vs. MIA L 36 10 3 8 37.5 3 5 60.0 1 2 50.0 0 4 4 4 1 1 2 5 -4
p40
aVNando De Colo SAS 06/13/2013 SAS vs. MIA L 4 0 0 0 - 0 0 - 0 0 - 0 1 1 1 0 0 0 0 -1
p41
aVManu Ginobili SAS 06/13/2013 SAS vs. MIA L 26 5 1 5 20.0 0 3 0.0 3 4 75.0 0 2 2 2 0 0 1 4 -22
p42
aVTony Parker SAS 06/11/2013 SAS vs. MIA W 27 6 2 5 40.0 1 1 100.0 1 3 33.3 0 2 2 8 0 0 2 2 27
p43
aVCory Joseph SAS 06/11/2013 SAS vs. MIA W 21 2 1 4 25.0 0 1 0.0 0 1 0.0 1 1 2 4 2 0 3 0 9
p44
aVDeJuan Blair SAS 06/11/2013 SAS vs. MIA W 6 9 4 5 80.0 0 0 - 1 3 33.3 1 1 2 0 0 0 0 1 5
p45
aVDanny Green SAS 06/11/2013 SAS vs. MIA W 31 27 9 15 60.0 7 9 77.8 2 2 100.0 3 1 4 0 2 2 0 1 23
p46
aVTracy McGrady SAS 06/11/2013 SAS vs. MIA W 7 0 0 2 0.0 0 1 0.0 0 0 - 0 2 2 3 0 0 0 0 10
p47
aVManu Ginobili SAS 06/11/2013 SAS vs. MIA W 23 7 3 7 42.9 0 4 0.0 1 2 50.0 0 2 2 6 0 0 2 2 6
p48
aVKawhi Leonard SAS 06/11/2013 SAS vs. MIA W 29 14 6 10 60.0 2 3 66.7 0 0 - 3 9 12 2 4 0 1 2 29
p49
aVTiago Splitter SAS 06/11/2013 SAS vs. MIA W 24 8 3 7 42.9 0 0 - 2 2 100.0 4 1 5 1 2 0 0 2 26
p50
aVMatt Bonner SAS 06/11/2013 SAS vs. MIA W 12 2 0 3 0.0 0 2 0.0 2 2 100.0 0 2 2 1 0 0 0 1 1
p51
aVTim Duncan SAS 06/11/2013 SAS vs. MIA W 29 12 5 11 45.5 0 0 - 2 4 50.0 7 7 14 1 0 2 4 2 18
p52
aVGary Neal SAS 06/11/2013 SAS vs. MIA W 25 24 9 17 52.9 6 10 60.0 0 0 - 0 4 4 3 0 0 0 0 21
p53
aVPatty Mills SAS 06/11/2013 SAS vs. MIA W 6 2 1 2 50.0 0 1 0.0 0 0 - 0 1 1 0 0 0 0 0 5
p54
aVGary Neal SAS 06/09/2013 SAS @ MIA L 22 10 3 7 42.9 2 3 66.7 2 2 100.0 0 2 2 0 0 0 3 2 -28
p55
aVMatt Bonner SAS 06/09/2013 SAS @ MIA L 8 5 2 4 50.0 1 2 50.0 0 0 - 0 1 1 0 0 0 0 0 5
p56
aVDanny Green SAS 06/09/2013 SAS @ MIA L 30 17 6 6 100.0 5 5 100.0 0 0 - 0 1 1 1 0 1 1 4 -9
p57
aVTiago Splitter SAS 06/09/2013 SAS @ MIA L 23 4 2 5 40.0 0 0 - 0 0 - 0 1 1 1 0 1 1 1 -2
p58
aVCory Joseph SAS 06/09/2013 SAS @ MIA L 9 8 3 3 100.0 0 0 - 2 3 66.7 2 1 3 1 0 0 1 0 12
p59
aVTim Duncan SAS 06/09/2013 SAS @ MIA L 30 9 3 13 23.1 0 0 - 3 4 75.0 3 8 11 1 0 0 1 1 -14
p60
aVManu Ginobili SAS 06/09/2013 SAS @ MIA L 18 5 2 6 33.3 1 4 25.0 0 0 - 0 2 2 1 1 0 3 3 -23
p61
aVPatty Mills SAS 06/09/2013 SAS @ MIA L 8 2 1 3 33.3 0 2 0.0 0 0 - 0 0 0 0 0 0 0 0 5
p62
aVTony Parker SAS 06/09/2013 SAS @ MIA L 33 13 5 14 35.7 0 1 0.0 3 4 75.0 1 2 3 5 0 1 5 0 -27
p63
aVDeJuan Blair SAS 06/09/2013 SAS @ MIA L 8 2 1 4 25.0 0 0 - 0 0 - 1 3 4 0 1 0 0 0 5
p64
aVTracy McGrady SAS 06/09/2013 SAS @ MIA L 8 0 0 1 0.0 0 0 - 0 0 - 0 2 2 2 0 1 0 0 5
p65
aVKawhi Leonard SAS 06/09/2013 SAS @ MIA L 33 9 4 12 33.3 1 3 33.3 0 1 0.0 8 6 14 2 1 0 1 2 -21
p66
aVBoris Diaw SAS 06/09/2013 SAS @ MIA L 11 0 0 0 - 0 0 - 0 0 - 0 0 0 2 0 0 0 1 -3
p67
aVDanny Green SAS 06/06/2013 SAS @ MIA W 34 12 4 9 44.4 4 9 44.4 0 0 - 0 5 5 0 1 1 0 3 2
p68
aVGary Neal SAS 06/06/2013 SAS @ MIA W 22 7 3 9 33.3 1 5 20.0 0 0 - 0 2 2 1 0 0 0 0 7
p69
aVCory Joseph SAS 06/06/2013 SAS @ MIA W 2 0 0 1 0.0 0 0 - 0 0 - 0 0 0 0 0 0 0 0 -6
p70
aVKawhi Leonard SAS 06/06/2013 SAS @ MIA W 35 10 3 9 33.3 0 4 0.0 4 4 100.0 2 8 10 1 1 0 0 2 6
p71
aVTiago Splitter SAS 06/06/2013 SAS @ MIA W 25 7 3 6 50.0 0 0 - 1 2 50.0 1 1 2 0 0 1 1 0 -7
p72
aVTony Parker SAS 06/06/2013 SAS @ MIA W 40 21 9 18 50.0 0 0 - 3 4 75.0 0 0 0 6 1 0 0 1 9
p73
aVBoris Diaw SAS 06/06/2013 SAS @ MIA W 9 2 1 1 100.0 0 0 - 0 0 - 0 1 1 1 0 0 0 0 -1
p74
aVMatt Bonner SAS 06/06/2013 SAS @ MIA W 7 0 0 1 0.0 0 0 - 0 0 - 0 3 3 0 0 0 0 0 -2
p75
aVTim Duncan SAS 06/06/2013 SAS @ MIA W 37 20 8 19 42.1 0 0 - 4 4 100.0 3 11 14 4 1 3 2 4 9
p76
aVManu Ginobili SAS 06/06/2013 SAS @ MIA W 30 13 4 11 36.4 2 5 40.0 3 4 75.0 0 0 0 3 2 0 1 2 3
p77
aVKawhi Leonard SAS 05/27/2013 SAS @ MEM W 38 11 5 7 71.4 1 2 50.0 0 0 - 1 5 6 1 5 0 1 2 13
p78
aVManu Ginobili SAS 05/27/2013 SAS @ MEM W 25 6 1 6 16.7 0 3 0.0 4 5 80.0 0 6 6 6 0 0 6 4 8
p79
aVTim Duncan SAS 05/27/2013 SAS @ MEM W 35 15 7 15 46.7 0 0 - 1 1 100.0 0 8 8 1 1 4 1 2 4
p80
aVTony Parker SAS 05/27/2013 SAS @ MEM W 40 37 15 21 71.4 1 1 100.0 6 6 100.0 0 4 4 6 0 0 4 1 0
p81
aVGary Neal SAS 05/27/2013 SAS @ MEM W 7 0 0 1 0.0 0 1 0.0 0 0 - 0 0 0 0 0 0 0 1 -4
p82
aVCory Joseph SAS 05/27/2013 SAS @ MEM W 7 4 2 3 66.7 0 1 0.0 0 0 - 0 0 0 0 1 0 0 1 2
p83
aVBoris Diaw SAS 05/27/2013 SAS @ MEM W 20 4 2 5 40.0 0 0 - 0 0 - 0 2 2 3 0 0 0 3 5
p84
aVTiago Splitter SAS 05/27/2013 SAS @ MEM W 30 9 4 8 50.0 0 0 - 1 1 100.0 1 1 2 3 1 4 1 3 8
p85
aVMatt Bonner SAS 05/27/2013 SAS @ MEM W 11 2 1 4 25.0 0 3 0.0 0 0 - 1 2 3 1 0 0 0 5 -2
p86
aVDanny Green SAS 05/27/2013 SAS @ MEM W 27 5 2 6 33.3 1 2 50.0 0 0 - 1 2 3 2 2 0 1 3 1
p87
aVGary Neal SAS 05/25/2013 SAS @ MEM W 12 2 1 4 25.0 0 0 - 0 0 - 0 0 0 1 0 0 0 0 6
p88
aVMatt Bonner SAS 05/25/2013 SAS @ MEM W 16 8 2 4 50.0 1 1 100.0 3 3 100.0 1 2 3 0 0 1 2 4 4
p89
aVBoris Diaw SAS 05/25/2013 SAS @ MEM W 19 7 3 7 42.9 1 3 33.3 0 0 - 0 2 2 0 0 1 0 1 -2
p90
aVTim Duncan SAS 05/25/2013 SAS @ MEM W 44 24 11 19 57.9 0 0 - 2 5 40.0 4 6 10 5 0 2 3 5 16
p91
aVTiago Splitter SAS 05/25/2013 SAS @ MEM W 24 11 5 5 100.0 0 0 - 1 2 50.0 2 4 6 1 0 1 0 4 0
p92
aVTony Parker SAS 05/25/2013 SAS @ MEM W 44 26 11 22 50.0 1 3 33.3 3 3 100.0 1 3 4 5 3 0 7 2 15
p93
aVManu Ginobili SAS 05/25/2013 SAS @ MEM W 30 19 5 9 55.6 2 5 40.0 7 8 87.5 3 4 7 5 1 0 1 4 13
p94
aVDanny Green SAS 05/25/2013 SAS @ MEM W 33 3 1 5 20.0 1 5 20.0 0 0 - 0 6 6 3 1 1 1 0 0
p95
aVCory Joseph SAS 05/25/2013 SAS @ MEM W 8 0 0 1 0.0 0 0 - 0 0 - 0 1 1 0 0 0 2 0 -3
p96
aVKawhi Leonard SAS 05/25/2013 SAS @ MEM W 35 4 2 6 33.3 0 1 0.0 0 1 0.0 2 9 11 0 1 1 1 1 6
p97
aVMatt Bonner SAS 05/21/2013 SAS vs. MEM W 27 5 2 5 40.0 1 4 25.0 0 0 - 0 2 2 0 0 1 0 4 -12
p98
aVBoris Diaw SAS 05/21/2013 SAS vs. MEM W 12 4 2 5 40.0 0 1 0.0 0 0 - 0 2 2 1 0 0 1 2 -2
p99
aVTiago Splitter SAS 05/21/2013 SAS vs. MEM W 34 14 6 8 75.0 0 0 - 2 2 100.0 0 4 4 2 0 2 2 4 -10
p100
aVTim Duncan SAS 05/21/2013 SAS vs. MEM W 31 17 6 14 42.9 0 0 - 5 7 71.4 2 7 9 3 2 4 3 5 22
p101
aVCory Joseph SAS 05/21/2013 SAS vs. MEM W 10 3 1 4 25.0 0 1 0.0 1 2 50.0 1 4 5 0 0 0 0 0 -8
p102
aVManu Ginobili SAS 05/21/2013 SAS vs. MEM W 29 7 3 6 50.0 1 3 33.3 0 0 - 0 3 3 4 0 1 2 2 2
p103
aVTony Parker SAS 05/21/2013 SAS vs. MEM W 42 15 6 20 30.0 1 4 25.0 2 4 50.0 0 5 5 18 3 0 2 1 12
p104
aVGary Neal SAS 05/21/2013 SAS vs. MEM W 13 5 1 4 25.0 1 3 33.3 2 2 100.0 0 3 3 0 0 0 0 1 -11
p105
aVDanny Green SAS 05/21/2013 SAS vs. MEM W 27 11 4 8 50.0 3 4 75.0 0 0 - 1 3 4 1 0 3 1 3 12
p106
aVKawhi Leonard SAS 05/21/2013 SAS vs. MEM W 40 12 5 9 55.6 2 5 40.0 0 0 - 0 9 9 0 0 1 2 1 15
p107
aVCory Joseph SAS 05/19/2013 SAS vs. MEM W 12 2 1 5 20.0 0 1 0.0 0 0 - 1 2 3 0 0 0 0 0 12
p108
aVTiago Splitter SAS 05/19/2013 SAS vs. MEM W 17 1 0 1 0.0 0 0 - 1 2 50.0 0 0 0 2 0 0 1 4 16
p109
aVBoris Diaw SAS 05/19/2013 SAS vs. MEM W 21 2 0 2 0.0 0 1 0.0 2 2 100.0 1 0 1 2 0 0 0 3 11
p110
aVGary Neal SAS 05/19/2013 SAS vs. MEM W 19 11 5 8 62.5 1 4 25.0 0 0 - 0 1 1 1 0 0 1 0 9
p111
aVPatty Mills SAS 05/19/2013 SAS vs. MEM W 5 3 1 1 100.0 1 1 100.0 0 0 - 0 0 0 1 0 0 0 1 0
p112
aVManu Ginobili SAS 05/19/2013 SAS vs. MEM W 21 8 2 6 33.3 1 3 33.3 3 5 60.0 1 4 5 3 1 1 1 2 2
p113
aVTim Duncan SAS 05/19/2013 SAS vs. MEM W 27 6 3 9 33.3 0 0 - 0 0 - 2 8 10 4 0 2 2 1 4
p114
aVTony Parker SAS 05/19/2013 SAS vs. MEM W 33 20 9 14 64.3 0 0 - 2 2 100.0 0 1 1 9 2 0 3 2 6
p115
aVMatt Bonner SAS 05/19/2013 SAS vs. MEM W 17 12 4 7 57.1 4 6 66.7 0 0 - 0 2 2 1 0 0 0 1 11
p116
aVKawhi Leonard SAS 05/19/2013 SAS vs. MEM W 30 18 7 10 70.0 4 5 80.0 0 0 - 0 2 2 1 2 1 1 0 9
p117
aVDeJuan Blair SAS 05/19/2013 SAS vs. MEM W 5 6 2 2 100.0 0 0 - 2 2 100.0 1 1 2 1 0 0 0 2 0
p118
aVDanny Green SAS 05/19/2013 SAS vs. MEM W 26 16 6 9 66.7 3 6 50.0 1 1 100.0 1 3 4 3 0 0 1 2 28
p119
aVTracy McGrady SAS 05/19/2013 SAS vs. MEM W 7 0 0 2 0.0 0 2 0.0 0 0 - 0 2 2 0 0 0 1 0 2
p120
aVManu Ginobili SAS 05/16/2013 SAS @ GSW W 24 5 1 6 16.7 0 3 0.0 3 4 75.0 0 6 6 11 1 0 2 2 10
p121
aVBoris Diaw SAS 05/16/2013 SAS @ GSW W 19 0 0 1 0.0 0 0 - 0 0 - 0 6 6 4 0 0 1 4 -3
p122
aVMatt Bonner SAS 05/16/2013 SAS @ GSW W 7 2 1 2 50.0 0 1 0.0 0 0 - 0 1 1 0 0 0 0 0 9
p123
aVDeJuan Blair SAS 05/16/2013 SAS @ GSW W 1 0 0 0 - 0 0 - 0 0 - 0 1 1 0 0 0 0 0 1
p124
aVDanny Green SAS 05/16/2013 SAS @ GSW W 34 11 3 5 60.0 3 4 75.0 2 2 100.0 0 4 4 1 1 0 2 2 11
p125
aVGary Neal SAS 05/16/2013 SAS @ GSW W 12 8 4 6 66.7 0 2 0.0 0 0 - 0 5 5 0 0 0 0 1 6
p126
aVTiago Splitter SAS 05/16/2013 SAS @ GSW W 31 14 6 8 75.0 0 0 - 2 2 100.0 1 3 4 1 2 1 1 3 14
p127
aVTony Parker SAS 05/16/2013 SAS @ GSW W 36 13 3 16 18.8 2 3 66.7 5 6 83.3 0 3 3 8 0 0 3 4 4
p128
aVKawhi Leonard SAS 05/16/2013 SAS @ GSW W 34 16 6 13 46.2 1 4 25.0 3 4 75.0 4 6 10 0 2 0 2 3 7
p129
aVPatty Mills SAS 05/16/2013 SAS @ GSW W 1 0 0 0 - 0 0 - 0 0 - 0 0 0 0 0 0 0 0 1
p130
aVCory Joseph SAS 05/16/2013 SAS @ GSW W 10 6 2 3 66.7 1 2 50.0 1 2 50.0 0 0 0 0 0 0 0 1 2
p131
aVTim Duncan SAS 05/16/2013 SAS @ GSW W 32 19 7 13 53.8 0 0 - 5 5 100.0 1 5 6 2 0 3 3 0 -2
p132
aVManu Ginobili SAS 05/14/2013 SAS vs. GSW W 25 10 3 9 33.3 2 4 50.0 2 4 50.0 1 4 5 5 1 0 3 1 17
p133
aVCory Joseph SAS 05/14/2013 SAS vs. GSW W 14 7 3 7 42.9 1 4 25.0 0 1 0.0 0 0 0 3 0 0 0 1 4
p134
aVPatty Mills SAS 05/14/2013 SAS vs. GSW W 3 3 1 2 50.0 1 2 50.0 0 0 - 1 0 1 0 0 0 0 1 3
p135
aVTracy McGrady SAS 05/14/2013 SAS vs. GSW W 4 0 0 1 0.0 0 0 - 0 0 - 1 1 2 1 0 2 0 0 0
p136
aVDanny Green SAS 05/14/2013 SAS vs. GSW W 32 16 6 10 60.0 2 5 40.0 2 2 100.0 0 3 3 3 2 1 0 3 9
p137
aVGary Neal SAS 05/14/2013 SAS vs. GSW W 5 0 0 1 0.0 0 1 0.0 0 0 - 0 0 0 0 0 0 0 1 -6
p138
aVKawhi Leonard SAS 05/14/2013 SAS vs. GSW W 37 17 7 8 87.5 3 4 75.0 0 0 - 2 5 7 1 2 0 1 2 19
p139
aVMatt Bonner SAS 05/14/2013 SAS vs. GSW W 7 3 1 1 100.0 1 1 100.0 0 0 - 0 0 0 0 0 0 0 2 -2
p140
aVTiago Splitter SAS 05/14/2013 SAS vs. GSW W 25 4 1 2 50.0 0 0 - 2 2 100.0 1 5 6 1 4 0 1 3 -4
p141
aVDeJuan Blair SAS 05/14/2013 SAS vs. GSW W 2 2 1 2 50.0 0 0 - 0 0 - 0 0 0 0 0 0 1 1 -3
p142
aVTony Parker SAS 05/14/2013 SAS vs. GSW W 34 25 9 16 56.3 0 0 - 7 10 70.0 0 2 2 10 1 0 2 0 14
p143
aVBoris Diaw SAS 05/14/2013 SAS vs. GSW W 22 8 3 5 60.0 0 0 - 2 2 100.0 0 1 1 3 2 0 1 3 12
p144
aVTim Duncan SAS 05/14/2013 SAS vs. GSW W 30 14 5 13 38.5 0 0 - 4 4 100.0 2 9 11 3 0 0 1 2 27
p145
aVKawhi Leonard SAS 05/12/2013 SAS @ GSW L 45 11 4 11 36.4 0 3 0.0 3 4 75.0 3 5 8 2 1 0 3 4 -11
p146
aVTiago Splitter SAS 05/12/2013 SAS @ GSW L 19 5 2 4 50.0 0 0 - 1 2 50.0 2 0 2 3 1 1 1 1 7
p147
aVMatt Bonner SAS 05/12/2013 SAS @ GSW L 3 0 0 0 - 0 0 - 0 0 - 0 1 1 0 0 0 0 1 2
p148
aVBoris Diaw SAS 05/12/2013 SAS @ GSW L 12 0 0 3 0.0 0 1 0.0 0 0 - 1 2 3 3 0 0 2 0 4
p149
aVTony Parker SAS 05/12/2013 SAS @ GSW L 41 17 6 17 35.3 0 3 0.0 5 6 83.3 0 4 4 3 1 1 1 3 -13
p150
aVDanny Green SAS 05/12/2013 SAS @ GSW L 39 10 4 13 30.8 2 9 22.2 0 2 0.0 4 3 7 0 2 1 0 2 -25
p151
aVCory Joseph SAS 05/12/2013 SAS @ GSW L 9 2 1 2 50.0 0 0 - 0 0 - 1 2 3 1 0 0 0 3 2
p152
aVManu Ginobili SAS 05/12/2013 SAS @ GSW L 37 21 8 18 44.4 5 10 50.0 0 2 0.0 0 4 4 3 3 2 2 2 0
p153
aVGary Neal SAS 05/12/2013 SAS @ GSW L 18 2 1 3 33.3 0 1 0.0 0 0 - 0 4 4 1 1 0 1 5 7
p154
aVTim Duncan SAS 05/12/2013 SAS @ GSW L 43 19 7 22 31.8 0 0 - 5 9 55.6 4 11 15 1 2 2 1 4 -23
p155
aVTiago Splitter SAS 05/10/2013 SAS @ GSW W 19 4 2 3 66.7 0 0 - 0 0 - 1 3 4 0 0 0 2 4 0
p156
aVCory Joseph SAS 05/10/2013 SAS @ GSW W 8 2 1 2 50.0 0 0 - 0 0 - 0 1 1 2 0 0 0 1 11
p157
aVMatt Bonner SAS 05/10/2013 SAS @ GSW W 6 0 0 3 0.0 0 2 0.0 0 0 - 0 0 0 0 0 0 0 1 -1
p158
aVManu Ginobili SAS 05/10/2013 SAS @ GSW W 28 12 4 11 36.4 1 8 12.5 3 3 100.0 0 5 5 4 2 0 2 2 13
p159
aVDanny Green SAS 05/10/2013 SAS @ GSW W 33 3 1 3 33.3 1 3 33.3 0 0 - 1 3 4 3 0 1 1 3 -6
p160
aVBoris Diaw SAS 05/10/2013 SAS @ GSW W 20 9 4 5 80.0 1 2 50.0 0 0 - 1 1 2 1 0 0 1 0 10
p161
aVDeJuan Blair SAS 05/10/2013 SAS @ GSW W 0 0 0 0 - 0 0 - 0 0 - 0 0 0 0 0 0 0 0 0
p162
aVPatty Mills SAS 05/10/2013 SAS @ GSW W 0 0 0 0 - 0 0 - 0 0 - 0 0 0 0 0 0 0 0 0
p163
aVTony Parker SAS 05/10/2013 SAS @ GSW W 35 32 13 23 56.5 2 4 50.0 4 7 57.1 2 3 5 5 0 0 3 0 -6
p164
aVGary Neal SAS 05/10/2013 SAS @ GSW W 10 2 0 1 0.0 0 0 - 2 2 100.0 0 1 1 2 0 0 0 3 11
p165
aVKawhi Leonard SAS 05/10/2013 SAS @ GSW W 41 15 5 7 71.4 1 1 100.0 4 8 50.0 2 7 9 1 1 0 0 2 17
p166
aVTim Duncan SAS 05/10/2013 SAS @ GSW W 38 23 10 21 47.6 0 0 - 3 3 100.0 1 9 10 3 1 2 2 3 1
p167
aVCory Joseph SAS 05/08/2013 SAS vs. GSW L 5 2 1 1 100.0 0 0 - 0 0 - 1 0 1 0 0 0 0 0 -1
p168
aVMatt Bonner SAS 05/08/2013 SAS vs. GSW L 16 2 1 3 33.3 0 1 0.0 0 0 - 2 1 3 1 0 0 0 1 -9
p169
aVTiago Splitter SAS 05/08/2013 SAS vs. GSW L 10 5 1 2 50.0 0 0 - 3 4 75.0 1 3 4 0 0 0 0 2 -11
p170
aVTony Parker SAS 05/08/2013 SAS vs. GSW L 40 20 7 17 41.2 1 1 100.0 5 7 71.4 2 4 6 3 2 0 3 5 -8
p171
aVGary Neal SAS 05/08/2013 SAS vs. GSW L 20 6 2 9 22.2 1 3 33.3 1 1 100.0 0 3 3 0 0 1 1 2 7
p172
aVManu Ginobili SAS 05/08/2013 SAS vs. GSW L 28 12 5 12 41.7 1 6 16.7 1 2 50.0 1 2 3 4 2 0 2 3 -7
p173
aVDanny Green SAS 05/08/2013 SAS vs. GSW L 32 10 4 12 33.3 2 6 33.3 0 0 - 2 4 6 2 1 1 0 4 -9
p174
aVPatty Mills SAS 05/08/2013 SAS vs. GSW L 1 0 0 1 0.0 0 1 0.0 0 0 - 0 0 0 0 0 0 0 0 2
p175
aVTim Duncan SAS 05/08/2013 SAS vs. GSW L 37 23 9 20 45.0 0 0 - 5 5 100.0 1 8 9 2 0 1 2 2 0
p176
aVTracy McGrady SAS 05/08/2013 SAS vs. GSW L 1 0 0 0 - 0 0 - 0 0 - 0 0 0 0 1 0 0 0 2
p177
aVBoris Diaw SAS 05/08/2013 SAS vs. GSW L 8 0 0 1 0.0 0 0 - 0 0 - 0 1 1 0 0 0 0 0 -3
p178
aVKawhi Leonard SAS 05/08/2013 SAS vs. GSW L 43 11 5 11 45.5 0 3 0.0 1 5 20.0 7 5 12 2 1 2 2 0 -8
p179
aVDanny Green SAS 05/06/2013 SAS vs. GSW W 44 22 8 14 57.1 6 9 66.7 0 0 - 0 1 1 1 3 2 2 0 -10
p180
aVDeJuan Blair SAS 05/06/2013 SAS vs. GSW W 6 2 1 2 50.0 0 0 - 0 0 - 0 0 0 1 1 0 0 1 -1
p181
aVManu Ginobili SAS 05/06/2013 SAS vs. GSW W 36 16 5 20 25.0 2 9 22.2 4 5 80.0 2 5 7 11 1 0 4 3 17
p182
aVGary Neal SAS 05/06/2013 SAS vs. GSW W 27 10 3 9 33.3 2 5 40.0 2 2 100.0 0 2 2 0 0 0 0 4 -1
p183
aVTim Duncan SAS 05/06/2013 SAS vs. GSW W 34 19 6 15 40.0 0 0 - 7 8 87.5 3 8 11 0 0 0 2 1 -14
p184
aVCory Joseph SAS 05/06/2013 SAS vs. GSW W 10 2 1 2 50.0 0 0 - 0 0 - 0 0 0 0 0 0 0 1 -9
p185
aVMatt Bonner SAS 05/06/2013 SAS vs. GSW W 19 5 2 2 100.0 1 1 100.0 0 0 - 1 1 2 1 0 0 0 3 -2
p186
aVTony Parker SAS 05/06/2013 SAS vs. GSW W 48 28 11 26 42.3 0 0 - 6 6 100.0 3 5 8 8 0 0 3 0 11
p187
aVBoris Diaw SAS 05/06/2013 SAS vs. GSW W 26 7 2 4 50.0 1 1 100.0 2 2 100.0 0 5 5 1 2 1 2 4 13
p188
aVKawhi Leonard SAS 05/06/2013 SAS vs. GSW W 41 18 7 11 63.6 1 1 100.0 3 5 60.0 4 5 9 3 2 0 1 4 6
p189
aVDeJuan Blair SAS 04/28/2013 SAS @ LAL W 19 13 6 9 66.7 0 0 - 1 2 50.0 2 3 5 0 2 0 0 4 14
p190
aVPatty Mills SAS 04/28/2013 SAS @ LAL W 3 0 0 0 - 0 0 - 0 0 - 0 1 1 0 0 0 1 0 -2
p191
aVKawhi Leonard SAS 04/28/2013 SAS @ LAL W 32 13 5 10 50.0 1 2 50.0 2 2 100.0 1 6 7 1 3 0 0 0 13
p192
aVTracy McGrady SAS 04/28/2013 SAS @ LAL W 5 0 0 1 0.0 0 0 - 0 0 - 0 0 0 1 1 0 1 1 2
p193
aVCory Joseph SAS 04/28/2013 SAS @ LAL W 18 4 2 3 66.7 0 0 - 0 0 - 0 2 2 6 0 0 0 3 12
p194
aVManu Ginobili SAS 04/28/2013 SAS @ LAL W 20 8 2 6 33.3 0 3 0.0 4 6 66.7 0 3 3 6 1 1 2 2 9
p195
aVTony Parker SAS 04/28/2013 SAS @ LAL W 26 23 9 16 56.3 0 1 0.0 5 5 100.0 2 1 3 4 2 0 0 0 11
p196
aVNando De Colo SAS 04/28/2013 SAS @ LAL W 4 0 0 2 0.0 0 2 0.0 0 0 - 1 0 1 0 0 0 0 0 2
p197
aVTim Duncan SAS 04/28/2013 SAS @ LAL W 29 11 4 9 44.4 0 0 - 3 3 100.0 1 5 6 2 1 1 2 1 7
p198
aVDanny Green SAS 04/28/2013 SAS @ LAL W 24 9 4 11 36.4 1 3 33.3 0 0 - 2 3 5 2 0 1 0 1 6
p199
aVGary Neal SAS 04/28/2013 SAS @ LAL W 21 11 3 7 42.9 2 4 50.0 3 3 100.0 0 2 2 2 2 0 1 0 13
p200
aVMatt Bonner SAS 04/28/2013 SAS @ LAL W 22 5 1 4 25.0 1 1 100.0 2 2 100.0 0 3 3 0 1 0 0 1 3
p201
aVAron Baynes SAS 04/28/2013 SAS @ LAL W 16 6 3 6 50.0 0 0 - 0 0 - 1 1 2 0 0 0 1 1 15
p202
aVTim Duncan SAS 04/26/2013 SAS @ LAL W 31 26 12 16 75.0 0 0 - 2 3 66.7 2 7 9 3 1 1 1 4 23
p203
aVPatty Mills SAS 04/26/2013 SAS @ LAL W 4 2 1 1 100.0 0 0 - 0 0 - 0 0 0 1 0 0 0 0 6
p204
aVTony Parker SAS 04/26/2013 SAS @ LAL W 27 20 9 14 64.3 0 1 0.0 2 3 66.7 0 3 3 7 0 0 5 0 15
p205
aVMatt Bonner SAS 04/26/2013 SAS @ LAL W 22 6 2 3 66.7 2 3 66.7 0 0 - 0 2 2 0 0 2 0 3 9
p206
aVCory Joseph SAS 04/26/2013 SAS @ LAL W 17 8 4 8 50.0 0 0 - 0 0 - 1 3 4 4 2 2 2 1 10
p207
aVManu Ginobili SAS 04/26/2013 SAS @ LAL W 20 6 2 4 50.0 1 2 50.0 1 1 100.0 0 2 2 3 3 0 2 0 6
p208
aVDanny Green SAS 04/26/2013 SAS @ LAL W 24 11 5 7 71.4 1 3 33.3 0 0 - 0 4 4 4 1 0 0 1 19
p209
aVGary Neal SAS 04/26/2013 SAS @ LAL W 22 7 3 10 30.0 1 5 20.0 0 0 - 0 4 4 0 0 0 1 3 14
p210
aVTiago Splitter SAS 04/26/2013 SAS @ LAL W 22 5 1 5 20.0 0 1 0.0 3 4 75.0 2 4 6 2 1 2 3 2 11
p211
aVKawhi Leonard SAS 04/26/2013 SAS @ LAL W 27 12 5 8 62.5 0 0 - 2 2 100.0 0 4 4 2 1 0 0 1 15
p212
aVAron Baynes SAS 04/26/2013 SAS @ LAL W 5 2 1 1 100.0 0 0 - 0 0 - 1 2 3 0 0 0 0 1 7
p213
aVNando De Colo SAS 04/26/2013 SAS @ LAL W 4 2 1 2 50.0 0 1 0.0 0 0 - 1 0 1 1 0 0 0 1 6
p214
aVDeJuan Blair SAS 04/26/2013 SAS @ LAL W 14 13 6 6 100.0 0 0 - 1 2 50.0 1 6 7 3 0 0 0 3 14
p215
aVMatt Bonner SAS 04/24/2013 SAS vs. LAL W 29 10 4 5 80.0 2 2 100.0 0 0 - 2 3 5 1 3 1 0 3 29
p216
aVTim Duncan SAS 04/24/2013 SAS vs. LAL W 34 16 8 18 44.4 0 0 - 0 0 - 3 2 5 0 1 2 0 3 -8
p217
aVTiago Splitter SAS 04/24/2013 SAS vs. LAL W 21 8 4 5 80.0 0 0 - 0 0 - 2 0 2 1 1 0 3 4 -4
p218
aVAron Baynes SAS 04/24/2013 SAS vs. LAL W 1 0 0 0 - 0 0 - 0 0 - 0 0 0 0 0 0 0 1 -5
p219
aVManu Ginobili SAS 04/24/2013 SAS vs. LAL W 19 13 4 7 57.1 3 4 75.0 2 4 50.0 0 5 5 7 1 1 1 0 19
p220
aVCory Joseph SAS 04/24/2013 SAS vs. LAL W 11 2 1 2 50.0 0 1 0.0 0 0 - 0 3 3 1 0 0 1 1 1
p221
aVKawhi Leonard SAS 04/24/2013 SAS vs. LAL W 39 16 8 12 66.7 0 2 0.0 0 0 - 1 6 7 0 0 1 1 1 10
p222
aVGary Neal SAS 04/24/2013 SAS vs. LAL W 19 7 3 7 42.9 1 2 50.0 0 0 - 0 2 2 2 0 0 0 0 7
p223
aVTony Parker SAS 04/24/2013 SAS vs. LAL W 37 28 9 20 45.0 1 2 50.0 9 10 90.0 1 3 4 7 0 1 0 0 10
p224
aVDanny Green SAS 04/24/2013 SAS vs. LAL W 20 2 1 5 20.0 0 1 0.0 0 0 - 0 3 3 2 1 1 2 2 -14
p225
aVDeJuan Blair SAS 04/24/2013 SAS vs. LAL W 9 0 0 1 0.0 0 0 - 0 0 - 0 1 1 0 0 0 0 2 10
p226
aVDeJuan Blair SAS 04/21/2013 SAS vs. LAL W 3 0 0 1 0.0 0 0 - 0 0 - 0 0 0 1 0 1 0 0 4
p227
aVMatt Bonner SAS 04/21/2013 SAS vs. LAL W 29 10 3 6 50.0 1 2 50.0 3 5 60.0 2 3 5 0 0 0 0 4 18
p228
aVTony Parker SAS 04/21/2013 SAS vs. LAL W 37 18 8 21 38.1 0 1 0.0 2 4 50.0 0 3 3 8 3 0 2 1 12
p229
aVKawhi Leonard SAS 04/21/2013 SAS vs. LAL W 36 8 3 8 37.5 1 3 33.3 1 1 100.0 2 9 11 2 2 2 1 3 7
p230
aVManu Ginobili SAS 04/21/2013 SAS vs. LAL W 19 18 6 13 46.2 3 5 60.0 3 3 100.0 0 2 2 3 2 0 3 2 19
p231
aVAron Baynes SAS 04/21/2013 SAS vs. LAL W 1 0 0 0 - 0 0 - 0 0 - 0 0 0 0 0 0 0 1 -3
p232
aVTim Duncan SAS 04/21/2013 SAS vs. LAL W 35 17 6 15 40.0 0 1 0.0 5 6 83.3 2 8 10 1 3 0 3 4 11
p233
aVTiago Splitter SAS 04/21/2013 SAS vs. LAL W 29 2 0 4 0.0 0 0 - 2 2 100.0 2 2 4 4 0 0 0 1 -6
p234
aVDanny Green SAS 04/21/2013 SAS vs. LAL W 25 6 2 6 33.3 2 5 40.0 0 0 - 0 4 4 0 1 0 0 1 1
p235
aVGary Neal SAS 04/21/2013 SAS vs. LAL W 15 6 2 7 28.6 0 5 0.0 2 2 100.0 0 1 1 0 0 0 0 2 -2
p236
aVNando De Colo SAS 04/21/2013 SAS vs. LAL W 1 2 0 0 - 0 0 - 2 2 100.0 0 1 1 0 0 0 0 0 -1
p237
aVCory Joseph SAS 04/21/2013 SAS vs. LAL W 11 4 2 4 50.0 0 0 - 0 0 - 0 2 2 1 1 0 0 2 0
p238
a.