(lp0
VPLAYER TEAM DATE MATCHUP W/L MIN PTS FGM FGA FG% 3PM 3PA 3P% FTM FTA FT% OREB DREB REB AST STL BLK TOV PF +/-
p1
aVMarcus Thornton BKN 05/14/2014 BKN @ MIA L 6 2 1 4 25.0 0 1 0.0 0 0 - 1 2 3 0 0 0 0 0 2
p2
aVShaun Livingston BKN 05/14/2014 BKN @ MIA L 29 8 2 6 33.3 0 0 - 4 4 100.0 2 2 4 3 1 1 2 4 1
p3
aVMirza Teletovic BKN 05/14/2014 BKN @ MIA L 14 6 1 3 33.3 0 2 0.0 4 4 100.0 1 0 1 0 1 1 0 0 3
p4
aVDeron Williams BKN 05/14/2014 BKN @ MIA L 37 17 7 16 43.8 3 7 42.9 0 0 - 1 3 4 4 1 1 1 2 -9
p5
aVPaul Pierce BKN 05/14/2014 BKN @ MIA L 35 19 8 18 44.4 2 5 40.0 1 2 50.0 1 1 2 2 0 0 0 5 2
p6
aVAndrei Kirilenko BKN 05/14/2014 BKN @ MIA L 26 4 1 2 50.0 0 0 - 2 4 50.0 2 3 5 1 0 0 2 1 3
p7
aVAndray Blatche BKN 05/14/2014 BKN @ MIA L 4 0 0 0 - 0 0 - 0 0 - 1 0 1 0 0 0 0 2 -7
p8
aVKevin Garnett BKN 05/14/2014 BKN @ MIA L 25 2 1 3 33.3 0 0 - 0 0 - 2 6 8 0 0 0 2 1 4
p9
aVJoe Johnson BKN 05/14/2014 BKN @ MIA L 42 34 15 23 65.2 3 6 50.0 1 1 100.0 1 6 7 3 1 0 3 3 -4
p10
aVAlan Anderson BKN 05/14/2014 BKN @ MIA L 23 2 1 3 33.3 0 1 0.0 0 0 - 0 1 1 1 0 0 2 3 -5
p11
aVAndray Blatche BKN 05/12/2014 BKN vs. MIA L 23 8 4 10 40.0 0 1 0.0 0 0 - 3 5 8 0 0 0 1 3 -5
p12
aVShaun Livingston BKN 05/12/2014 BKN vs. MIA L 34 13 4 9 44.4 0 0 - 5 7 71.4 0 2 2 4 1 1 4 5 -17
p13
aVKevin Garnett BKN 05/12/2014 BKN vs. MIA L 25 8 3 5 60.0 0 0 - 2 2 100.0 4 3 7 2 1 0 1 2 2
p14
aVAndrei Kirilenko BKN 05/12/2014 BKN vs. MIA L 15 6 2 3 66.7 0 0 - 2 3 66.7 1 0 1 2 0 0 0 0 4
p15
aVAlan Anderson BKN 05/12/2014 BKN vs. MIA L 27 10 3 5 60.0 2 4 50.0 2 3 66.7 0 2 2 1 0 0 0 1 4
p16
aVJoe Johnson BKN 05/12/2014 BKN vs. MIA L 36 18 5 15 33.3 2 7 28.6 6 6 100.0 1 2 3 2 0 0 2 1 -18
p17
aVPaul Pierce BKN 05/12/2014 BKN vs. MIA L 32 16 6 11 54.5 0 4 0.0 4 5 80.0 0 7 7 2 2 0 1 5 -13
p18
aVMirza Teletovic BKN 05/12/2014 BKN vs. MIA L 17 4 2 6 33.3 0 3 0.0 0 0 - 3 1 4 2 0 0 0 1 6
p19
aVDeron Williams BKN 05/12/2014 BKN vs. MIA L 32 13 5 14 35.7 1 3 33.3 2 2 100.0 2 4 6 7 0 0 1 4 7
p20
aVKevin Garnett BKN 05/10/2014 BKN vs. MIA W 23 10 5 6 83.3 0 0 - 0 0 - 1 6 7 1 0 0 1 2 -1
p21
aVAndray Blatche BKN 05/10/2014 BKN vs. MIA W 20 15 5 10 50.0 0 0 - 5 6 83.3 4 6 10 0 0 0 1 3 15
p22
aVMason Plumlee BKN 05/10/2014 BKN vs. MIA W 2 0 0 0 - 0 0 - 0 0 - 0 1 1 0 0 0 0 0 -6
p23
aVPaul Pierce BKN 05/10/2014 BKN vs. MIA W 29 14 5 10 50.0 2 3 66.7 2 3 66.7 0 4 4 1 2 0 3 5 8
p24
aVAndrei Kirilenko BKN 05/10/2014 BKN vs. MIA W 19 3 1 1 100.0 0 0 - 1 2 50.0 1 2 3 1 1 0 0 0 10
p25
aVJoe Johnson BKN 05/10/2014 BKN vs. MIA W 34 19 7 10 70.0 5 7 71.4 0 0 - 1 2 3 6 0 0 2 1 17
p26
aVMarcus Thornton BKN 05/10/2014 BKN vs. MIA W 6 2 0 2 0.0 0 1 0.0 2 2 100.0 0 1 1 0 0 1 0 1 -4
p27
aVAlan Anderson BKN 05/10/2014 BKN vs. MIA W 18 8 3 6 50.0 2 4 50.0 0 0 - 0 1 1 1 0 0 2 3 4
p28
aVMirza Teletovic BKN 05/10/2014 BKN vs. MIA W 19 12 4 7 57.1 4 7 57.1 0 0 - 1 5 6 0 1 0 3 4 6
p29
aVJorge Gutierrez BKN 05/10/2014 BKN vs. MIA W 1 0 0 0 - 0 0 - 0 0 - 0 0 0 0 0 0 0 0 -2
p30
aVDeron Williams BKN 05/10/2014 BKN vs. MIA W 40 9 3 11 27.3 1 2 50.0 2 2 100.0 1 2 3 11 1 0 2 2 18
p31
aVShaun Livingston BKN 05/10/2014 BKN vs. MIA W 30 12 5 9 55.6 1 1 100.0 1 2 50.0 0 4 4 5 1 0 0 2 5
p32
aVMirza Teletovic BKN 05/08/2014 BKN @ MIA L 26 20 7 12 58.3 6 9 66.7 0 0 - 0 2 2 0 0 0 2 0 -5
p33
aVJoe Johnson BKN 05/08/2014 BKN @ MIA L 39 13 6 14 42.9 0 4 0.0 1 2 50.0 0 4 4 3 1 1 0 1 -13
p34
aVMason Plumlee BKN 05/08/2014 BKN @ MIA L 11 2 1 2 50.0 0 0 - 0 0 - 1 1 2 1 0 1 1 4 2
p35
aVMarcus Thornton BKN 05/08/2014 BKN @ MIA L 18 10 5 10 50.0 0 2 0.0 0 2 0.0 3 0 3 0 0 0 0 1 -9
p36
aVAndray Blatche BKN 05/08/2014 BKN @ MIA L 5 0 0 0 - 0 0 - 0 0 - 0 0 0 0 0 0 1 0 1
p37
aVShaun Livingston BKN 05/08/2014 BKN @ MIA L 33 15 6 9 66.7 0 0 - 3 4 75.0 1 4 5 3 0 1 3 2 -2
p38
aVPaul Pierce BKN 05/08/2014 BKN @ MIA L 34 13 5 11 45.5 2 4 50.0 1 2 50.0 0 4 4 2 0 0 2 3 -11
p39
aVDeron Williams BKN 05/08/2014 BKN @ MIA L 37 0 0 9 0.0 0 2 0.0 0 0 - 1 6 7 6 0 0 2 1 -18
p40
aVKevin Garnett BKN 05/08/2014 BKN @ MIA L 21 4 2 8 25.0 0 1 0.0 0 0 - 5 7 12 3 3 0 3 1 -11
p41
aVAlan Anderson BKN 05/08/2014 BKN @ MIA L 17 5 1 3 33.3 0 2 0.0 3 4 75.0 2 2 4 1 1 0 0 2 6
p42
aVMarcus Thornton BKN 05/06/2014 BKN @ MIA L 21 11 5 9 55.6 1 3 33.3 0 0 - 0 1 1 0 0 0 2 1 -11
p43
aVMason Plumlee BKN 05/06/2014 BKN @ MIA L 14 2 1 3 33.3 0 0 - 0 0 - 0 3 3 0 1 0 2 3 -8
p44
aVPaul Pierce BKN 05/06/2014 BKN @ MIA L 29 8 3 8 37.5 2 4 50.0 0 0 - 0 6 6 0 0 0 1 2 -11
p45
aVAndrei Kirilenko BKN 05/06/2014 BKN @ MIA L 13 5 1 2 50.0 0 0 - 3 4 75.0 1 1 2 1 1 1 0 3 2
p46
aVDeron Williams BKN 05/06/2014 BKN @ MIA L 30 17 7 10 70.0 3 5 60.0 0 0 - 0 3 3 3 1 0 3 0 -6
p47
aVJoe Johnson BKN 05/06/2014 BKN @ MIA L 32 17 7 11 63.6 3 6 50.0 0 0 - 0 4 4 2 0 0 1 2 -19
p48
aVKevin Garnett BKN 05/06/2014 BKN @ MIA L 16 0 0 2 0.0 0 0 - 0 0 - 0 4 4 0 1 0 1 2 -5
p49
aVShaun Livingston BKN 05/06/2014 BKN @ MIA L 33 9 4 9 44.4 0 0 - 1 2 50.0 0 0 0 3 1 0 0 0 -23
p50
aVMirza Teletovic BKN 05/06/2014 BKN @ MIA L 19 5 2 5 40.0 1 3 33.3 0 2 0.0 0 2 2 0 0 0 0 1 -10
p51
aVJorge Gutierrez BKN 05/06/2014 BKN @ MIA L 2 2 0 0 - 0 0 - 2 4 50.0 1 0 1 0 0 0 0 0 -2
p52
aVAlan Anderson BKN 05/06/2014 BKN @ MIA L 19 6 2 7 28.6 0 3 0.0 2 3 66.7 1 1 2 1 0 0 0 3 -8
p53
aVAndray Blatche BKN 05/06/2014 BKN @ MIA L 12 4 1 4 25.0 0 0 - 2 2 100.0 3 1 4 1 0 0 1 1 -4
p54
aVKevin Garnett BKN 05/04/2014 BKN @ TOR W 25 12 5 8 62.5 0 0 - 2 3 66.7 5 6 11 2 0 1 0 4 7
p55
aVMarcus Thornton BKN 05/04/2014 BKN @ TOR W 20 17 4 8 50.0 4 6 66.7 5 6 83.3 1 5 6 0 0 0 0 0 17
p56
aVJoe Johnson BKN 05/04/2014 BKN @ TOR W 45 26 11 25 44.0 1 5 20.0 3 5 60.0 2 2 4 4 1 0 1 0 -2
p57
aVDeron Williams BKN 05/04/2014 BKN @ TOR W 32 13 3 8 37.5 0 1 0.0 7 10 70.0 1 1 2 4 2 0 2 5 -5
p58
aVMason Plumlee BKN 05/04/2014 BKN @ TOR W 5 2 0 1 0.0 0 0 - 2 2 100.0 0 0 0 0 0 0 0 0 1
p59
aVAndrei Kirilenko BKN 05/04/2014 BKN @ TOR W 3 0 0 0 - 0 0 - 0 0 - 0 0 0 0 0 0 0 0 -2
p60
aVMirza Teletovic BKN 05/04/2014 BKN @ TOR W 23 0 0 3 0.0 0 3 0.0 0 0 - 1 3 4 1 0 1 0 1 4
p61
aVShaun Livingston BKN 05/04/2014 BKN @ TOR W 18 10 4 5 80.0 0 0 - 2 2 100.0 0 2 2 3 0 0 2 3 4
p62
aVPaul Pierce BKN 05/04/2014 BKN @ TOR W 25 10 4 10 40.0 2 4 50.0 0 0 - 1 3 4 1 2 1 2 5 1
p63
aVAlan Anderson BKN 05/04/2014 BKN @ TOR W 26 5 2 6 33.3 1 4 25.0 0 0 - 0 2 2 1 0 0 0 3 -13
p64
aVAndray Blatche BKN 05/04/2014 BKN @ TOR W 18 9 4 7 57.1 0 0 - 1 2 50.0 5 2 7 0 0 0 1 5 -7
p65
aVDeron Williams BKN 05/02/2014 BKN vs. TOR W 38 23 8 16 50.0 4 10 40.0 3 4 75.0 0 5 5 4 1 0 2 1 25
p66
aVMarcus Thornton BKN 05/02/2014 BKN vs. TOR W 11 5 2 6 33.3 0 1 0.0 1 2 50.0 1 0 1 1 1 0 0 1 -6
p67
aVJoe Johnson BKN 05/02/2014 BKN vs. TOR W 40 17 5 12 41.7 0 1 0.0 7 9 77.8 0 0 0 3 0 0 2 0 23
p68
aVShaun Livingston BKN 05/02/2014 BKN vs. TOR W 10 6 3 4 75.0 0 0 - 0 0 - 0 3 3 0 0 0 2 5 -11
p69
aVAndray Blatche BKN 05/02/2014 BKN vs. TOR W 21 8 4 8 50.0 0 0 - 0 0 - 1 6 7 1 1 2 3 0 8
p70
aVAlan Anderson BKN 05/02/2014 BKN vs. TOR W 31 9 4 10 40.0 0 2 0.0 1 2 50.0 3 6 9 3 1 0 1 4 12
p71
aVAndrei Kirilenko BKN 05/02/2014 BKN vs. TOR W 14 2 0 2 0.0 0 0 - 2 2 100.0 3 1 4 2 2 0 0 0 -1
p72
aVKevin Garnett BKN 05/02/2014 BKN vs. TOR W 27 13 5 7 71.4 0 0 - 3 4 75.0 0 5 5 0 0 2 1 0 7
p73
aVPaul Pierce BKN 05/02/2014 BKN vs. TOR W 35 12 4 9 44.4 2 5 40.0 2 2 100.0 0 6 6 3 3 1 1 3 21
p74
aVMason Plumlee BKN 05/02/2014 BKN vs. TOR W 1 0 0 0 - 0 0 - 0 0 - 0 1 1 0 0 0 0 0 -1
p75
aVMirza Teletovic BKN 05/02/2014 BKN vs. TOR W 13 2 1 3 33.3 0 2 0.0 0 0 - 1 3 4 0 1 0 0 0 -7
p76
aVMarcus Thornton BKN 04/30/2014 BKN @ TOR L 17 5 2 3 66.7 0 1 0.0 1 1 100.0 1 2 3 0 1 0 0 0 -7
p77
aVJoe Johnson BKN 04/30/2014 BKN @ TOR L 38 32 14 24 58.3 3 6 50.0 1 1 100.0 1 4 5 3 1 1 0 5 22
p78
aVKevin Garnett BKN 04/30/2014 BKN @ TOR L 12 4 2 4 50.0 0 0 - 0 0 - 0 2 2 1 0 0 0 1 -15
p79
aVPaul Pierce BKN 04/30/2014 BKN @ TOR L 24 10 3 5 60.0 1 3 33.3 3 4 75.0 0 1 1 2 0 0 5 3 -31
p80
aVMirza Teletovic BKN 04/30/2014 BKN @ TOR L 24 17 6 10 60.0 4 8 50.0 1 2 50.0 2 5 7 0 0 0 0 3 31
p81
aVShaun Livingston BKN 04/30/2014 BKN @ TOR L 28 9 4 11 36.4 0 0 - 1 2 50.0 2 4 6 4 0 1 1 3 -6
p82
aVAndray Blatche BKN 04/30/2014 BKN @ TOR L 16 7 1 2 50.0 0 0 - 5 6 83.3 2 2 4 0 2 0 1 3 15
p83
aVDeron Williams BKN 04/30/2014 BKN @ TOR L 36 11 3 7 42.9 0 1 0.0 5 6 83.3 0 0 0 9 4 0 3 3 -8
p84
aVAlan Anderson BKN 04/30/2014 BKN @ TOR L 21 13 4 7 57.1 3 4 75.0 2 2 100.0 1 1 2 3 0 0 2 4 -2
p85
aVAndrei Kirilenko BKN 04/30/2014 BKN @ TOR L 4 0 0 0 - 0 0 - 0 0 - 0 1 1 0 0 0 1 1 -7
p86
aVMason Plumlee BKN 04/30/2014 BKN @ TOR L 21 5 1 2 50.0 0 0 - 3 6 50.0 1 2 3 0 0 2 1 1 -2
p87
aVPaul Pierce BKN 04/27/2014 BKN vs. TOR L 31 22 9 14 64.3 3 7 42.9 1 2 50.0 0 5 5 2 1 0 2 3 0
p88
aVKevin Garnett BKN 04/27/2014 BKN vs. TOR L 22 10 3 6 50.0 0 0 - 4 4 100.0 1 3 4 2 1 0 1 1 2
p89
aVAndrei Kirilenko BKN 04/27/2014 BKN vs. TOR L 15 1 0 1 0.0 0 0 - 1 2 50.0 0 2 2 1 1 2 0 4 -3
p90
aVAlan Anderson BKN 04/27/2014 BKN vs. TOR L 24 3 1 6 16.7 0 2 0.0 1 2 50.0 2 3 5 2 3 0 0 3 0
p91
aVJoe Johnson BKN 04/27/2014 BKN vs. TOR L 42 7 2 7 28.6 1 2 50.0 2 4 50.0 1 4 5 1 0 0 2 2 -9
p92
aVMirza Teletovic BKN 04/27/2014 BKN vs. TOR L 17 12 5 9 55.6 0 3 0.0 2 2 100.0 3 2 5 0 0 0 0 0 -8
p93
aVDeron Williams BKN 04/27/2014 BKN vs. TOR L 37 10 4 12 33.3 0 5 0.0 2 3 66.7 0 4 4 6 0 0 5 5 -3
p94
aVAndray Blatche BKN 04/27/2014 BKN vs. TOR L 13 4 1 5 20.0 0 1 0.0 2 2 100.0 1 6 7 0 0 0 0 1 4
p95
aVShaun Livingston BKN 04/27/2014 BKN vs. TOR L 26 9 3 7 42.9 0 0 - 3 6 50.0 2 2 4 3 0 0 5 3 -9
p96
aVMason Plumlee BKN 04/27/2014 BKN vs. TOR L 14 1 0 1 0.0 0 0 - 1 2 50.0 0 2 2 0 0 1 1 3 -14
p97
aVMirza Teletovic BKN 04/25/2014 BKN vs. TOR W 14 5 2 7 28.6 1 5 20.0 0 0 - 1 1 2 0 1 0 0 1 1
p98
aVAndray Blatche BKN 04/25/2014 BKN vs. TOR W 18 12 2 3 66.7 0 0 - 8 8 100.0 1 3 4 1 1 0 0 3 11
p99
aVJoe Johnson BKN 04/25/2014 BKN vs. TOR W 40 29 11 17 64.7 3 4 75.0 4 4 100.0 0 0 0 2 0 0 2 3 0
p100
aVShaun Livingston BKN 04/25/2014 BKN vs. TOR W 29 3 1 3 33.3 0 0 - 1 2 50.0 0 6 6 4 1 0 2 5 -5
p101
aVMason Plumlee BKN 04/25/2014 BKN vs. TOR W 14 4 2 4 50.0 0 0 - 0 2 0.0 1 1 2 0 0 1 1 4 -9
p102
aVDeron Williams BKN 04/25/2014 BKN vs. TOR W 36 22 7 14 50.0 2 5 40.0 6 9 66.7 0 2 2 8 2 1 2 4 4
p103
aVPaul Pierce BKN 04/25/2014 BKN vs. TOR W 34 18 5 9 55.6 1 3 33.3 7 7 100.0 0 5 5 2 0 0 1 3 3
p104
aVKevin Garnett BKN 04/25/2014 BKN vs. TOR W 16 2 1 3 33.3 0 1 0.0 0 0 - 0 4 4 3 1 0 2 6 2
p105
aVMarcus Thornton BKN 04/25/2014 BKN vs. TOR W 7 6 2 6 33.3 0 2 0.0 2 3 66.7 0 0 0 0 0 0 0 0 4
p106
aVAndrei Kirilenko BKN 04/25/2014 BKN vs. TOR W 17 0 0 1 0.0 0 0 - 0 0 - 0 2 2 1 1 0 0 1 13
p107
aVAlan Anderson BKN 04/25/2014 BKN vs. TOR W 15 1 0 0 - 0 0 - 1 2 50.0 0 2 2 0 0 0 1 2 -4
p108
aVMason Plumlee BKN 04/22/2014 BKN @ TOR L 21 4 1 2 50.0 0 0 - 2 6 33.3 2 4 6 1 2 2 2 4 -12
p109
aVAlan Anderson BKN 04/22/2014 BKN @ TOR L 20 3 1 2 50.0 1 2 50.0 0 0 - 0 0 0 0 3 0 1 4 -11
p110
aVAndray Blatche BKN 04/22/2014 BKN @ TOR L 8 5 2 4 50.0 0 0 - 1 2 50.0 0 2 2 1 2 0 0 0 0
p111
aVAndrei Kirilenko BKN 04/22/2014 BKN @ TOR L 20 4 2 3 66.7 0 0 - 0 0 - 2 1 3 1 4 0 0 1 -4
p112
aVKevin Garnett BKN 04/22/2014 BKN @ TOR L 19 13 5 6 83.3 0 0 - 3 4 75.0 0 4 4 1 0 1 0 3 7
p113
aVPaul Pierce BKN 04/22/2014 BKN @ TOR L 25 7 2 11 18.2 0 6 0.0 3 4 75.0 2 4 6 3 3 1 1 5 7
p114
aVShaun Livingston BKN 04/22/2014 BKN @ TOR L 27 12 4 8 50.0 0 0 - 4 4 100.0 1 2 3 5 0 1 1 5 -5
p115
aVJoe Johnson BKN 04/22/2014 BKN @ TOR L 37 18 7 13 53.8 1 4 25.0 3 3 100.0 2 1 3 2 0 1 2 0 2
p116
aVMarcus Thornton BKN 04/22/2014 BKN @ TOR L 5 0 0 2 0.0 0 0 - 0 0 - 0 1 1 0 0 0 0 0 -4
p117
aVMirza Teletovic BKN 04/22/2014 BKN @ TOR L 23 14 5 11 45.5 3 6 50.0 1 2 50.0 1 0 1 0 0 0 0 2 -10
p118
aVDeron Williams BKN 04/22/2014 BKN @ TOR L 35 15 5 15 33.3 2 6 33.3 3 3 100.0 1 0 1 5 0 0 3 2 5
p119
aVMirza Teletovic BKN 04/19/2014 BKN @ TOR W 12 2 1 6 16.7 0 5 0.0 0 0 - 1 1 2 0 1 0 0 1 -13
p120
aVJoe Johnson BKN 04/19/2014 BKN @ TOR W 45 24 8 13 61.5 0 1 0.0 8 8 100.0 0 8 8 4 2 0 2 2 15
p121
aVShaun Livingston BKN 04/19/2014 BKN @ TOR W 29 10 4 6 66.7 0 0 - 2 2 100.0 0 3 3 3 0 0 0 4 4
p122
aVMason Plumlee BKN 04/19/2014 BKN @ TOR W 12 2 1 1 100.0 0 0 - 0 0 - 0 3 3 0 0 0 1 5 13
p123
aVKevin Garnett BKN 04/19/2014 BKN @ TOR W 20 5 1 5 20.0 0 0 - 3 6 50.0 1 7 8 1 2 1 1 2 10
p124
aVAndray Blatche BKN 04/19/2014 BKN @ TOR W 16 5 2 5 40.0 0 0 - 1 2 50.0 4 2 6 0 0 0 1 1 -16
p125
aVDeron Williams BKN 04/19/2014 BKN @ TOR W 39 24 8 20 40.0 2 6 33.3 6 6 100.0 0 1 1 3 1 0 1 2 20
p126
aVPaul Pierce BKN 04/19/2014 BKN @ TOR W 36 15 6 13 46.2 2 5 40.0 1 1 100.0 0 4 4 4 1 1 1 2 20
p127
aVAlan Anderson BKN 04/19/2014 BKN @ TOR W 19 6 3 7 42.9 0 3 0.0 0 0 - 1 1 2 1 2 0 1 0 -3
p128
aVMarcus Thornton BKN 04/19/2014 BKN @ TOR W 13 1 0 4 0.0 0 4 0.0 1 2 50.0 0 0 0 0 0 0 0 0 -15
p129
a.