(lp0
VPLAYER TEAM DATE MATCHUP W/L MIN PTS FGM FGA FG% 3PM 3PA 3P% FTM FTA FT% OREB DREB REB AST STL BLK TOV PF +/-
p1
aVJordan Crawford GSW 05/03/2014 GSW @ LAC L 12 12 5 9 55.6 1 1 100.0 1 1 100.0 1 0 1 0 0 0 2 1 -1
p2
aVStephen Curry GSW 05/03/2014 GSW @ LAC L 46 33 7 17 41.2 3 7 42.9 16 16 100.0 1 4 5 9 3 0 2 4 2
p3
aVJermaine O'Neal GSW 05/03/2014 GSW @ LAC L 3 0 0 1 0.0 0 0 - 0 0 - 0 0 0 0 0 1 0 0 -6
p4
aVDraymond Green GSW 05/03/2014 GSW @ LAC L 40 24 9 13 69.2 5 8 62.5 1 2 50.0 1 6 7 3 2 2 3 6 -7
p5
aVMarreese Speights GSW 05/03/2014 GSW @ LAC L 10 10 5 9 55.6 0 0 - 0 1 0.0 1 1 2 0 1 0 0 2 2
p6
aVAndre Iguodala GSW 05/03/2014 GSW @ LAC L 39 14 5 9 55.6 3 4 75.0 1 3 33.3 1 6 7 3 2 1 5 2 -12
p7
aVKlay Thompson GSW 05/03/2014 GSW @ LAC L 39 15 4 11 36.4 2 5 40.0 5 6 83.3 0 0 0 7 1 1 2 2 -12
p8
aVSteve Blake GSW 05/03/2014 GSW @ LAC L 0 0 0 0 - 0 0 - 0 0 - 0 0 0 0 0 0 0 0 -2
p9
aVHarrison Barnes GSW 05/03/2014 GSW @ LAC L 13 0 0 1 0.0 0 0 - 0 0 - 0 2 2 0 0 1 1 1 0
p10
aVHilton Armstrong GSW 05/03/2014 GSW @ LAC L 0 0 0 0 - 0 0 - 0 0 - 0 0 0 0 0 0 0 0 4
p11
aVDavid Lee GSW 05/03/2014 GSW @ LAC L 38 13 4 9 44.4 0 0 - 5 6 83.3 4 9 13 3 0 0 3 3 7
p12
aVStephen Curry GSW 05/01/2014 GSW vs. LAC W 45 24 9 24 37.5 2 8 25.0 4 7 57.1 1 3 4 9 0 0 2 1 4
p13
aVMarreese Speights GSW 05/01/2014 GSW vs. LAC W 12 12 4 7 57.1 0 0 - 4 5 80.0 2 4 6 0 0 1 0 4 5
p14
aVAndre Iguodala GSW 05/01/2014 GSW vs. LAC W 35 15 5 9 55.6 1 2 50.0 4 9 44.4 0 3 3 2 0 0 1 2 -1
p15
aVDavid Lee GSW 05/01/2014 GSW vs. LAC W 26 8 4 8 50.0 0 0 - 0 0 - 3 6 9 2 1 0 1 6 -2
p16
aVHilton Armstrong GSW 05/01/2014 GSW vs. LAC W 1 0 0 0 - 0 0 - 0 2 0.0 0 0 0 0 0 0 0 2 0
p17
aVJordan Crawford GSW 05/01/2014 GSW vs. LAC W 15 8 3 9 33.3 1 2 50.0 1 2 50.0 2 1 3 2 1 0 0 1 1
p18
aVKlay Thompson GSW 05/01/2014 GSW vs. LAC W 41 9 3 11 27.3 1 4 25.0 2 2 100.0 1 0 1 1 0 1 0 2 -6
p19
aVHarrison Barnes GSW 05/01/2014 GSW vs. LAC W 22 8 2 8 25.0 1 2 50.0 3 4 75.0 1 6 7 0 0 1 1 1 4
p20
aVDraymond Green GSW 05/01/2014 GSW vs. LAC W 41 14 4 12 33.3 1 6 16.7 5 6 83.3 6 8 14 4 5 1 3 5 -3
p21
aVJermaine O'Neal GSW 05/01/2014 GSW vs. LAC W 2 2 1 1 100.0 0 0 - 0 0 - 2 1 3 0 0 0 0 0 3
p22
aVSteve Blake GSW 04/29/2014 GSW @ LAC L 5 0 0 1 0.0 0 1 0.0 0 0 - 0 0 0 1 0 0 0 1 -3
p23
aVMarreese Speights GSW 04/29/2014 GSW @ LAC L 10 4 1 3 33.3 0 0 - 2 4 50.0 0 0 0 1 0 1 0 1 -8
p24
aVJordan Crawford GSW 04/29/2014 GSW @ LAC L 4 2 1 3 33.3 0 1 0.0 0 0 - 0 0 0 0 0 0 0 1 6
p25
aVAndre Iguodala GSW 04/29/2014 GSW @ LAC L 42 18 7 15 46.7 2 5 40.0 2 2 100.0 2 6 8 8 2 0 2 3 -12
p26
aVDraymond Green GSW 04/29/2014 GSW @ LAC L 27 10 3 8 37.5 0 2 0.0 4 4 100.0 5 6 11 1 0 0 0 5 -5
p27
aVNemanja Nedovic GSW 04/29/2014 GSW @ LAC L 0 0 0 0 - 0 0 - 0 0 - 0 0 0 0 0 0 0 1 -2
p28
aVHarrison Barnes GSW 04/29/2014 GSW @ LAC L 22 5 2 6 33.3 1 2 50.0 0 0 - 0 0 0 1 0 0 0 2 -5
p29
aVDavid Lee GSW 04/29/2014 GSW @ LAC L 28 18 8 13 61.5 0 0 - 2 4 50.0 5 5 10 4 0 0 1 5 1
p30
aVHilton Armstrong GSW 04/29/2014 GSW @ LAC L 0 0 0 1 0.0 0 1 0.0 0 0 - 0 0 0 0 0 0 0 1 -4
p31
aVJermaine O'Neal GSW 04/29/2014 GSW @ LAC L 12 8 4 8 50.0 0 0 - 0 2 0.0 1 4 5 0 0 0 0 1 -1
p32
aVStephen Curry GSW 04/29/2014 GSW @ LAC L 44 17 5 10 50.0 4 7 57.1 3 3 100.0 0 3 3 4 2 0 8 2 -5
p33
aVKlay Thompson GSW 04/29/2014 GSW @ LAC L 45 21 9 17 52.9 3 7 42.9 0 0 - 0 5 5 4 2 0 2 5 -12
p34
aVStephen Curry GSW 04/27/2014 GSW vs. LAC W 42 33 10 20 50.0 7 14 50.0 6 7 85.7 1 6 7 7 1 1 2 3 25
p35
aVDavid Lee GSW 04/27/2014 GSW vs. LAC W 38 15 7 11 63.6 0 0 - 1 1 100.0 0 6 6 2 2 0 2 5 30
p36
aVJermaine O'Neal GSW 04/27/2014 GSW vs. LAC W 10 5 2 4 50.0 0 0 - 1 1 100.0 1 2 3 0 0 0 0 1 -15
p37
aVHarrison Barnes GSW 04/27/2014 GSW vs. LAC W 25 15 6 7 85.7 2 3 66.7 1 2 50.0 1 1 2 4 1 0 1 3 10
p38
aVKlay Thompson GSW 04/27/2014 GSW vs. LAC W 29 15 5 13 38.5 3 8 37.5 2 4 50.0 0 5 5 5 1 0 3 6 12
p39
aVMarreese Speights GSW 04/27/2014 GSW vs. LAC W 3 2 1 2 50.0 0 0 - 0 0 - 0 2 2 0 0 0 1 1 2
p40
aVDraymond Green GSW 04/27/2014 GSW vs. LAC W 41 4 1 4 25.0 0 2 0.0 2 2 100.0 2 3 5 5 2 2 2 3 33
p41
aVHilton Armstrong GSW 04/27/2014 GSW vs. LAC W 2 4 2 2 100.0 0 0 - 0 0 - 0 0 0 0 0 1 0 0 -7
p42
aVSteve Blake GSW 04/27/2014 GSW vs. LAC W 7 3 1 3 33.3 1 3 33.3 0 1 0.0 0 0 0 0 0 0 0 1 -7
p43
aVAndre Iguodala GSW 04/27/2014 GSW vs. LAC W 42 22 6 8 75.0 2 2 100.0 8 10 80.0 1 3 4 9 1 1 4 2 25
p44
aVOgnjen Kuzmic GSW 04/27/2014 GSW vs. LAC W 1 0 0 0 - 0 0 - 0 0 - 0 0 0 0 0 0 0 1 -3
p45
aVMarreese Speights GSW 04/24/2014 GSW vs. LAC L 3 2 1 2 50.0 0 0 - 0 2 0.0 1 0 1 0 0 0 1 0 -3
p46
aVJordan Crawford GSW 04/24/2014 GSW vs. LAC L 4 2 1 4 25.0 0 1 0.0 0 0 - 1 2 3 0 0 0 0 1 -1
p47
aVKlay Thompson GSW 04/24/2014 GSW vs. LAC L 42 26 10 22 45.5 2 11 18.2 4 4 100.0 1 5 6 1 1 1 3 1 6
p48
aVHilton Armstrong GSW 04/24/2014 GSW vs. LAC L 1 0 0 0 - 0 0 - 0 0 - 0 0 0 0 0 0 0 0 1
p49
aVDraymond Green GSW 04/24/2014 GSW vs. LAC L 33 13 5 11 45.5 1 5 20.0 2 3 66.7 1 10 11 2 3 4 4 6 1
p50
aVHarrison Barnes GSW 04/24/2014 GSW vs. LAC L 20 4 2 8 25.0 0 4 0.0 0 0 - 1 2 3 1 0 0 0 0 2
p51
aVStephen Curry GSW 04/24/2014 GSW vs. LAC L 43 16 5 12 41.7 3 8 37.5 3 4 75.0 0 2 2 15 1 0 3 3 -1
p52
aVSteve Blake GSW 04/24/2014 GSW vs. LAC L 4 0 0 1 0.0 0 1 0.0 0 0 - 1 0 1 0 0 0 0 0 -1
p53
aVJermaine O'Neal GSW 04/24/2014 GSW vs. LAC L 16 10 3 5 60.0 0 0 - 4 4 100.0 3 4 7 0 0 1 2 3 -12
p54
aVDavid Lee GSW 04/24/2014 GSW vs. LAC L 32 12 6 15 40.0 0 0 - 0 0 - 8 1 9 4 0 0 0 3 0
p55
aVAndre Iguodala GSW 04/24/2014 GSW vs. LAC L 41 11 4 9 44.4 0 1 0.0 3 7 42.9 1 8 9 3 1 0 4 1 -2
p56
aVMarreese Speights GSW 04/21/2014 GSW @ LAC L 16 8 4 8 50.0 0 0 - 0 0 - 3 3 6 1 1 1 0 1 -8
p57
aVJermaine O'Neal GSW 04/21/2014 GSW @ LAC L 15 4 2 4 50.0 0 0 - 0 0 - 2 1 3 0 0 1 1 3 -11
p58
aVAndre Iguodala GSW 04/21/2014 GSW @ LAC L 29 4 2 6 33.3 0 0 - 0 0 - 0 1 1 3 3 0 4 3 -26
p59
aVHarrison Barnes GSW 04/21/2014 GSW @ LAC L 30 9 3 7 42.9 1 4 25.0 2 4 50.0 1 5 6 1 0 0 2 4 -22
p60
aVDraymond Green GSW 04/21/2014 GSW @ LAC L 24 11 4 7 57.1 0 3 0.0 3 3 100.0 2 1 3 1 0 1 4 5 -16
p61
aVJordan Crawford GSW 04/21/2014 GSW @ LAC L 17 11 2 6 33.3 0 1 0.0 7 9 77.8 0 2 2 0 0 0 3 3 -15
p62
aVKlay Thompson GSW 04/21/2014 GSW @ LAC L 20 7 2 4 50.0 1 2 50.0 2 2 100.0 0 0 0 2 2 1 1 4 -14
p63
aVDavid Lee GSW 04/21/2014 GSW @ LAC L 20 11 4 8 50.0 0 0 - 3 4 75.0 1 3 4 0 0 0 4 2 -29
p64
aVStephen Curry GSW 04/21/2014 GSW @ LAC L 31 24 9 17 52.9 1 7 14.3 5 5 100.0 0 1 1 8 2 0 2 4 -27
p65
aVHilton Armstrong GSW 04/21/2014 GSW @ LAC L 10 4 2 5 40.0 0 0 - 0 0 - 3 0 3 1 0 0 3 3 -13
p66
aVSteve Blake GSW 04/21/2014 GSW @ LAC L 21 5 2 4 50.0 1 2 50.0 0 0 - 0 3 3 1 0 0 2 0 -18
p67
aVOgnjen Kuzmic GSW 04/21/2014 GSW @ LAC L 7 0 0 0 - 0 0 - 0 0 - 1 3 4 0 0 0 0 1 -1
p68
aVJordan Crawford GSW 04/19/2014 GSW @ LAC W 5 2 0 2 0.0 0 1 0.0 2 2 100.0 0 0 0 0 0 0 0 0 2
p69
aVHilton Armstrong GSW 04/19/2014 GSW @ LAC W 2 0 0 0 - 0 0 - 0 0 - 0 1 1 1 0 1 1 0 -1
p70
aVKlay Thompson GSW 04/19/2014 GSW @ LAC W 41 22 7 20 35.0 4 7 57.1 4 6 66.7 2 5 7 5 0 1 4 4 4
p71
aVSteve Blake GSW 04/19/2014 GSW @ LAC W 7 3 1 3 33.3 1 3 33.3 0 0 - 0 0 0 0 0 0 0 0 2
p72
aVAndre Iguodala GSW 04/19/2014 GSW @ LAC W 20 8 3 6 50.0 0 1 0.0 2 2 100.0 0 1 1 3 0 0 1 6 -13
p73
aVHarrison Barnes GSW 04/19/2014 GSW @ LAC W 24 14 4 11 36.4 3 6 50.0 3 6 50.0 3 5 8 1 0 1 0 2 8
p74
aVStephen Curry GSW 04/19/2014 GSW @ LAC W 45 14 6 16 37.5 2 6 33.3 0 0 - 1 2 3 7 3 0 7 1 5
p75
aVJermaine O'Neal GSW 04/19/2014 GSW @ LAC W 25 13 6 9 66.7 0 0 - 1 1 100.0 3 0 3 1 1 0 1 4 -11
p76
aVOgnjen Kuzmic GSW 04/19/2014 GSW @ LAC W 0 0 0 0 - 0 0 - 0 0 - 0 0 0 0 0 0 0 0 0
p77
aVDavid Lee GSW 04/19/2014 GSW @ LAC W 36 20 8 13 61.5 0 0 - 4 4 100.0 3 10 13 3 1 0 6 4 3
p78
aVDraymond Green GSW 04/19/2014 GSW @ LAC W 22 7 2 5 40.0 1 3 33.3 2 4 50.0 1 6 7 4 0 2 1 3 17
p79
aVMarreese Speights GSW 04/19/2014 GSW @ LAC W 14 6 3 5 60.0 0 0 - 0 0 - 2 3 5 1 0 1 0 3 4
p80
a.