(lp0
VPLAYER TEAM DATE MATCHUP W/L MIN PTS FGM FGA FG% 3PM 3PA 3P% FTM FTA FT% OREB DREB REB AST STL BLK TOV PF +/-
p1
aVGarrett Temple WAS 05/15/2014 WAS vs. IND L 1 0 0 0 - 0 0 - 0 0 - 0 0 0 0 0 0 0 1 2
p2
aVDrew Gooden WAS 05/15/2014 WAS vs. IND L 14 4 1 4 25.0 0 0 - 2 2 100.0 2 1 3 0 0 0 0 3 5
p3
aVMartell Webster WAS 05/15/2014 WAS vs. IND L 16 4 1 4 25.0 0 2 0.0 2 4 50.0 2 2 4 0 0 0 0 2 7
p4
aVJohn Wall WAS 05/15/2014 WAS vs. IND L 44 12 5 16 31.3 0 4 0.0 2 2 100.0 1 4 5 8 2 1 5 1 -11
p5
aVAl Harrington WAS 05/15/2014 WAS vs. IND L 8 0 0 2 0.0 0 2 0.0 0 0 - 0 5 5 0 0 0 0 1 -4
p6
aVOtto Porter WAS 05/15/2014 WAS vs. IND L 1 0 0 1 0.0 0 1 0.0 0 0 - 0 0 0 0 0 0 0 0 2
p7
aVMarcin Gortat WAS 05/15/2014 WAS vs. IND L 41 19 7 12 58.3 0 0 - 5 6 83.3 2 4 6 1 0 0 1 2 -7
p8
aVTrevor Ariza WAS 05/15/2014 WAS vs. IND L 36 6 1 5 20.0 0 3 0.0 4 4 100.0 1 6 7 1 0 1 2 4 -24
p9
aVBradley Beal WAS 05/15/2014 WAS vs. IND L 43 16 7 19 36.8 2 6 33.3 0 0 - 0 4 4 5 2 1 2 4 -11
p10
aVNene WAS 05/15/2014 WAS vs. IND L 31 15 7 12 58.3 0 0 - 1 2 50.0 1 5 6 2 0 0 1 3 -22
p11
aVAndre Miller WAS 05/15/2014 WAS vs. IND L 3 4 2 3 66.7 0 0 - 0 0 - 0 0 0 0 0 0 0 2 -4
p12
aVKevin Seraphin WAS 05/15/2014 WAS vs. IND L 1 0 0 1 0.0 0 0 - 0 0 - 0 0 0 0 0 0 0 0 2
p13
aVDrew Gooden WAS 05/13/2014 WAS @ IND W 17 0 0 4 0.0 0 1 0.0 0 0 - 3 6 9 0 1 0 0 4 13
p14
aVOtto Porter WAS 05/13/2014 WAS @ IND W 4 2 1 1 100.0 0 0 - 0 0 - 0 0 0 0 0 0 0 0 -5
p15
aVNene WAS 05/13/2014 WAS @ IND W 24 4 2 6 33.3 0 0 - 0 0 - 0 4 4 4 2 1 1 4 13
p16
aVAndre Miller WAS 05/13/2014 WAS @ IND W 11 2 1 1 100.0 0 0 - 0 0 - 0 2 2 0 0 0 1 1 -1
p17
aVTrevor Booker WAS 05/13/2014 WAS @ IND W 4 0 0 1 0.0 0 1 0.0 0 0 - 0 1 1 0 0 0 0 1 -5
p18
aVMartell Webster WAS 05/13/2014 WAS @ IND W 19 2 0 4 0.0 0 2 0.0 2 2 100.0 0 4 4 1 0 1 2 1 -3
p19
aVTrevor Ariza WAS 05/13/2014 WAS @ IND W 33 10 4 9 44.4 0 2 0.0 2 2 100.0 4 6 10 5 2 0 1 0 31
p20
aVJohn Wall WAS 05/13/2014 WAS @ IND W 34 27 11 20 55.0 3 6 50.0 2 2 100.0 1 4 5 5 1 0 5 2 30
p21
aVKevin Seraphin WAS 05/13/2014 WAS @ IND W 3 0 0 1 0.0 0 0 - 0 0 - 0 1 1 0 0 0 1 1 -5
p22
aVAl Harrington WAS 05/13/2014 WAS @ IND W 13 4 1 2 50.0 0 1 0.0 2 3 66.7 0 2 2 0 1 0 2 6 -5
p23
aVMarcin Gortat WAS 05/13/2014 WAS @ IND W 36 31 13 15 86.7 0 0 - 5 7 71.4 7 9 16 2 1 1 3 1 35
p24
aVBradley Beal WAS 05/13/2014 WAS @ IND W 40 18 7 17 41.2 2 5 40.0 2 3 66.7 3 5 8 4 0 0 2 1 23
p25
aVGarrett Temple WAS 05/13/2014 WAS @ IND W 4 2 1 1 100.0 0 0 - 0 0 - 0 0 0 0 0 0 1 0 -6
p26
aVAndre Miller WAS 05/11/2014 WAS vs. IND L 16 7 2 6 33.3 0 0 - 3 3 100.0 1 2 3 4 1 0 1 2 18
p27
aVMartell Webster WAS 05/11/2014 WAS vs. IND L 21 4 2 3 66.7 0 1 0.0 0 0 - 0 2 2 0 0 1 0 2 7
p28
aVBradley Beal WAS 05/11/2014 WAS vs. IND L 42 20 7 14 50.0 2 4 50.0 4 6 66.7 0 5 5 5 3 0 1 0 9
p29
aVNene WAS 05/11/2014 WAS vs. IND L 25 10 5 14 35.7 0 0 - 0 0 - 0 3 3 3 0 2 0 2 -7
p30
aVJohn Wall WAS 05/11/2014 WAS vs. IND L 32 12 4 11 36.4 1 3 33.3 3 4 75.0 0 1 1 7 1 1 5 2 -21
p31
aVAl Harrington WAS 05/11/2014 WAS vs. IND L 23 11 4 7 57.1 0 2 0.0 3 4 75.0 0 6 6 0 2 0 1 4 8
p32
aVGarrett Temple WAS 05/11/2014 WAS vs. IND L 0 0 0 0 - 0 0 - 0 0 - 0 0 0 0 0 0 0 0 -1
p33
aVDrew Gooden WAS 05/11/2014 WAS vs. IND L 27 10 5 10 50.0 0 1 0.0 0 0 - 2 2 4 2 0 3 2 3 5
p34
aVTrevor Ariza WAS 05/11/2014 WAS vs. IND L 33 16 6 11 54.5 2 4 50.0 2 2 100.0 3 6 9 0 3 0 3 5 -22
p35
aVMarcin Gortat WAS 05/11/2014 WAS vs. IND L 21 2 1 3 33.3 0 0 - 0 0 - 1 2 3 1 1 1 0 3 -11
p36
aVKevin Seraphin WAS 05/09/2014 WAS vs. IND L 2 0 0 1 0.0 0 0 - 0 0 - 1 0 1 0 0 0 0 0 -4
p37
aVDrew Gooden WAS 05/09/2014 WAS vs. IND L 17 1 0 1 0.0 0 0 - 1 2 50.0 2 4 6 0 1 0 0 3 2
p38
aVJohn Wall WAS 05/09/2014 WAS vs. IND L 40 15 6 13 46.2 0 1 0.0 3 6 50.0 0 4 4 6 1 1 7 3 -18
p39
aVAl Harrington WAS 05/09/2014 WAS vs. IND L 9 2 1 2 50.0 0 1 0.0 0 0 - 1 0 1 0 0 0 0 1 -9
p40
aVNene WAS 05/09/2014 WAS vs. IND L 34 8 3 14 21.4 0 0 - 2 6 33.3 1 2 3 0 0 2 3 2 -14
p41
aVMarcin Gortat WAS 05/09/2014 WAS vs. IND L 30 4 2 7 28.6 0 0 - 0 0 - 0 10 10 0 0 0 2 2 -17
p42
aVTrevor Ariza WAS 05/09/2014 WAS vs. IND L 36 12 4 8 50.0 2 6 33.3 2 4 50.0 5 10 15 0 3 0 1 3 -24
p43
aVAndre Miller WAS 05/09/2014 WAS vs. IND L 6 2 1 3 33.3 0 0 - 0 0 - 0 0 0 0 0 0 2 0 0
p44
aVTrevor Booker WAS 05/09/2014 WAS vs. IND L 4 0 0 0 - 0 0 - 0 0 - 0 2 2 1 0 0 0 2 -2
p45
aVMartell Webster WAS 05/09/2014 WAS vs. IND L 17 0 0 3 0.0 0 2 0.0 0 0 - 0 0 0 1 0 0 0 3 0
p46
aVBradley Beal WAS 05/09/2014 WAS vs. IND L 40 16 6 19 31.6 1 5 20.0 3 3 100.0 0 3 3 2 1 2 2 3 -18
p47
aVGarrett Temple WAS 05/09/2014 WAS vs. IND L 2 3 1 1 100.0 1 1 100.0 0 0 - 0 0 0 0 0 0 0 0 -2
p48
aVOtto Porter WAS 05/09/2014 WAS vs. IND L 2 0 0 1 0.0 0 0 - 0 0 - 0 0 0 0 0 0 0 0 -4
p49
aVDrew Gooden WAS 05/07/2014 WAS @ IND L 16 5 2 4 50.0 0 0 - 1 2 50.0 2 2 4 1 0 0 1 4 11
p50
aVAndre Miller WAS 05/07/2014 WAS @ IND L 12 6 3 6 50.0 0 1 0.0 0 0 - 0 2 2 0 0 0 1 2 3
p51
aVGarrett Temple WAS 05/07/2014 WAS @ IND L 0 0 0 0 - 0 0 - 0 0 - 0 0 0 0 0 0 0 0 -2
p52
aVNene WAS 05/07/2014 WAS @ IND L 36 14 7 14 50.0 0 0 - 0 4 0.0 0 5 5 2 0 1 1 2 -14
p53
aVJohn Wall WAS 05/07/2014 WAS @ IND L 36 6 2 13 15.4 0 4 0.0 2 2 100.0 0 1 1 8 1 1 1 4 -7
p54
aVTrevor Ariza WAS 05/07/2014 WAS @ IND L 37 6 2 8 25.0 2 7 28.6 0 0 - 2 6 8 0 2 0 1 0 -8
p55
aVBradley Beal WAS 05/07/2014 WAS @ IND L 44 17 7 15 46.7 2 6 33.3 1 2 50.0 2 3 5 7 2 0 4 4 -8
p56
aVTrevor Booker WAS 05/07/2014 WAS @ IND L 7 2 1 1 100.0 0 0 - 0 0 - 0 3 3 0 0 1 0 1 0
p57
aVMarcin Gortat WAS 05/07/2014 WAS @ IND L 37 21 10 15 66.7 0 0 - 1 2 50.0 3 8 11 1 0 0 0 3 -6
p58
aVMartell Webster WAS 05/07/2014 WAS @ IND L 16 5 2 4 50.0 1 3 33.3 0 0 - 2 2 4 1 0 0 0 1 11
p59
aVAndre Miller WAS 05/05/2014 WAS @ IND W 8 3 1 2 50.0 1 1 100.0 0 0 - 0 0 0 0 0 0 0 0 -13
p60
aVTrevor Booker WAS 05/05/2014 WAS @ IND W 9 0 0 0 - 0 0 - 0 0 - 0 0 0 1 0 0 2 1 -9
p61
aVMarcin Gortat WAS 05/05/2014 WAS @ IND W 36 12 4 12 33.3 0 0 - 4 6 66.7 6 9 15 2 0 2 5 1 5
p62
aVNene WAS 05/05/2014 WAS @ IND W 32 15 6 16 37.5 0 0 - 3 4 75.0 1 5 6 2 0 2 2 4 18
p63
aVMartell Webster WAS 05/05/2014 WAS @ IND W 16 0 0 1 0.0 0 0 - 0 0 - 0 1 1 0 0 0 0 1 -11
p64
aVGarrett Temple WAS 05/05/2014 WAS @ IND W 1 0 0 0 - 0 0 - 0 0 - 0 0 0 0 0 0 0 0 -4
p65
aVJohn Wall WAS 05/05/2014 WAS @ IND W 40 13 4 14 28.6 0 3 0.0 5 6 83.3 0 5 5 10 1 2 1 5 19
p66
aVTrevor Ariza WAS 05/05/2014 WAS @ IND W 37 22 7 10 70.0 6 6 100.0 2 4 50.0 1 5 6 2 1 0 0 3 18
p67
aVDrew Gooden WAS 05/05/2014 WAS @ IND W 18 12 5 11 45.5 0 1 0.0 2 2 100.0 7 6 13 0 0 0 1 5 2
p68
aVBradley Beal WAS 05/05/2014 WAS @ IND W 43 25 8 18 44.4 3 5 60.0 6 9 66.7 2 5 7 6 5 1 4 3 5
p69
aVMarcin Gortat WAS 04/29/2014 WAS @ CHI W 33 2 1 5 20.0 0 0 - 0 0 - 4 9 13 2 0 3 1 2 9
p70
aVTrevor Ariza WAS 04/29/2014 WAS @ CHI W 37 6 3 8 37.5 0 1 0.0 0 0 - 1 8 9 0 2 1 2 3 8
p71
aVJohn Wall WAS 04/29/2014 WAS @ CHI W 39 24 7 19 36.8 1 2 50.0 9 11 81.8 0 7 7 4 0 1 1 3 8
p72
aVTrevor Booker WAS 04/29/2014 WAS @ CHI W 23 6 3 7 42.9 0 1 0.0 0 0 - 4 3 7 2 1 3 1 2 -3
p73
aVAndre Miller WAS 04/29/2014 WAS @ CHI W 9 0 0 3 0.0 0 0 - 0 2 0.0 0 0 0 0 1 0 0 1 -1
p74
aVBradley Beal WAS 04/29/2014 WAS @ CHI W 43 17 6 13 46.2 1 4 25.0 4 5 80.0 2 3 5 4 2 0 5 3 7
p75
aVMartell Webster WAS 04/29/2014 WAS @ CHI W 16 0 0 2 0.0 0 1 0.0 0 0 - 0 1 1 0 1 2 1 1 -3
p76
aVNene WAS 04/29/2014 WAS @ CHI W 39 20 10 17 58.8 0 0 - 0 1 0.0 2 5 7 4 2 1 1 4 3
p77
aVGarrett Temple WAS 04/29/2014 WAS @ CHI W 0 0 0 0 - 0 0 - 0 0 - 0 0 0 0 0 0 0 0 2
p78
aVBradley Beal WAS 04/27/2014 WAS vs. CHI W 40 18 7 13 53.8 2 3 66.7 2 2 100.0 2 3 5 3 1 0 1 1 11
p79
aVTrevor Ariza WAS 04/27/2014 WAS vs. CHI W 38 30 10 17 58.8 6 10 60.0 4 5 80.0 1 7 8 0 2 0 0 1 12
p80
aVMarcin Gortat WAS 04/27/2014 WAS vs. CHI W 35 17 6 18 33.3 0 0 - 5 8 62.5 3 3 6 5 0 1 1 2 24
p81
aVAndre Miller WAS 04/27/2014 WAS vs. CHI W 9 0 0 2 0.0 0 0 - 0 0 - 0 1 1 2 1 0 0 1 1
p82
aVDrew Gooden WAS 04/27/2014 WAS vs. CHI W 26 2 1 4 25.0 0 1 0.0 0 0 - 1 1 2 1 1 1 0 5 -3
p83
aVTrevor Booker WAS 04/27/2014 WAS vs. CHI W 28 8 4 10 40.0 0 0 - 0 0 - 6 3 9 1 0 3 0 6 0
p84
aVMartell Webster WAS 04/27/2014 WAS vs. CHI W 19 8 3 6 50.0 0 3 0.0 2 2 100.0 0 3 3 0 1 0 1 0 -2
p85
aVAl Harrington WAS 04/27/2014 WAS vs. CHI W 5 0 0 1 0.0 0 1 0.0 0 0 - 0 1 1 0 0 0 1 2 -4
p86
aVJohn Wall WAS 04/27/2014 WAS vs. CHI W 39 15 4 15 26.7 0 1 0.0 7 8 87.5 1 2 3 10 2 0 2 0 8
p87
aVKevin Seraphin WAS 04/27/2014 WAS vs. CHI W 1 0 0 0 - 0 0 - 0 0 - 0 0 0 0 0 0 0 0 -2
p88
aVAndre Miller WAS 04/25/2014 WAS vs. CHI L 11 2 1 3 33.3 0 0 - 0 0 - 0 1 1 1 0 0 1 0 -9
p89
aVTrevor Ariza WAS 04/25/2014 WAS vs. CHI L 40 16 7 16 43.8 2 6 33.3 0 0 - 2 9 11 1 2 1 2 3 11
p90
aVAl Harrington WAS 04/25/2014 WAS vs. CHI L 0 0 0 0 - 0 0 - 0 0 - 0 0 0 0 0 0 0 0 0
p91
aVMartell Webster WAS 04/25/2014 WAS vs. CHI L 18 6 2 5 40.0 2 5 40.0 0 0 - 0 4 4 0 0 0 0 0 -10
p92
aVMarcin Gortat WAS 04/25/2014 WAS vs. CHI L 38 13 6 12 50.0 0 0 - 1 2 50.0 4 7 11 2 1 3 2 2 6
p93
aVTrevor Booker WAS 04/25/2014 WAS vs. CHI L 23 2 1 3 33.3 0 0 - 0 0 - 3 0 3 1 0 1 0 5 -6
p94
aVNene WAS 04/25/2014 WAS vs. CHI L 29 10 5 15 33.3 0 0 - 0 0 - 2 2 4 3 2 0 5 3 -10
p95
aVBradley Beal WAS 04/25/2014 WAS vs. CHI L 39 25 8 18 44.4 3 6 50.0 6 7 85.7 1 3 4 5 0 1 0 4 -4
p96
aVGarrett Temple WAS 04/25/2014 WAS vs. CHI L 0 0 0 0 - 0 0 - 0 0 - 0 0 0 0 0 0 0 3 -3
p97
aVJohn Wall WAS 04/25/2014 WAS vs. CHI L 37 23 7 14 50.0 1 2 50.0 8 12 66.7 0 2 2 7 4 0 1 1 6
p98
aVDrew Gooden WAS 04/25/2014 WAS vs. CHI L 5 0 0 0 - 0 0 - 0 0 - 1 0 1 0 0 0 0 1 4
p99
aVTrevor Booker WAS 04/22/2014 WAS @ CHI W 27 9 3 4 75.0 0 0 - 3 4 75.0 3 5 8 1 0 1 0 4 10
p100
aVGarrett Temple WAS 04/22/2014 WAS @ CHI W 0 0 0 0 - 0 0 - 0 0 - 0 0 0 0 0 0 0 1 -4
p101
aVMartell Webster WAS 04/22/2014 WAS @ CHI W 22 10 4 6 66.7 2 4 50.0 0 0 - 0 1 1 1 2 1 0 0 -7
p102
aVBradley Beal WAS 04/22/2014 WAS @ CHI W 42 26 9 20 45.0 4 7 57.1 4 5 80.0 3 4 7 2 2 1 2 5 -1
p103
aVNene WAS 04/22/2014 WAS @ CHI W 40 17 8 13 61.5 0 0 - 1 4 25.0 0 7 7 3 1 1 1 6 -2
p104
aVDrew Gooden WAS 04/22/2014 WAS @ CHI W 2 0 0 0 - 0 0 - 0 0 - 0 0 0 0 0 0 0 1 6
p105
aVMarcin Gortat WAS 04/22/2014 WAS @ CHI W 37 7 2 9 22.2 0 0 - 3 6 50.0 1 4 5 0 2 2 2 1 -6
p106
aVAndre Miller WAS 04/22/2014 WAS @ CHI W 9 8 3 5 60.0 0 1 0.0 2 4 50.0 0 1 1 2 0 0 1 1 -3
p107
aVTrevor Ariza WAS 04/22/2014 WAS @ CHI W 42 8 3 8 37.5 2 6 33.3 0 0 - 1 7 8 7 0 0 1 2 12
p108
aVJohn Wall WAS 04/22/2014 WAS @ CHI W 44 16 6 15 40.0 1 5 20.0 3 5 60.0 0 5 5 7 3 0 5 5 5
p109
aVAndre Miller WAS 04/20/2014 WAS @ CHI W 14 10 5 7 71.4 0 0 - 0 0 - 1 0 1 0 0 0 1 2 2
p110
aVMarcin Gortat WAS 04/20/2014 WAS @ CHI W 37 15 6 10 60.0 0 0 - 3 4 75.0 5 8 13 0 0 1 3 3 10
p111
aVTrevor Ariza WAS 04/20/2014 WAS @ CHI W 38 18 5 8 62.5 3 5 60.0 5 6 83.3 0 7 7 3 0 1 1 2 10
p112
aVBradley Beal WAS 04/20/2014 WAS @ CHI W 42 13 3 11 27.3 0 2 0.0 7 7 100.0 0 2 2 7 0 1 0 3 11
p113
aVMartell Webster WAS 04/20/2014 WAS @ CHI W 17 3 1 3 33.3 1 3 33.3 0 1 0.0 0 1 1 1 0 0 0 3 -3
p114
aVTrevor Booker WAS 04/20/2014 WAS @ CHI W 19 3 1 3 33.3 0 0 - 1 2 50.0 0 6 6 1 1 0 0 3 1
p115
aVAl Harrington WAS 04/20/2014 WAS @ CHI W 2 0 0 1 0.0 0 0 - 0 0 - 0 1 1 0 0 0 0 0 -3
p116
aVJohn Wall WAS 04/20/2014 WAS @ CHI W 35 16 4 14 28.6 0 1 0.0 8 10 80.0 2 4 6 6 2 1 3 3 11
p117
aVGarrett Temple WAS 04/20/2014 WAS @ CHI W 0 0 0 0 - 0 0 - 0 0 - 0 0 0 0 0 0 0 0 0
p118
aVNene WAS 04/20/2014 WAS @ CHI W 35 24 11 17 64.7 0 0 - 2 5 40.0 1 7 8 3 2 1 2 6 7
p119
aVDrew Gooden WAS 04/20/2014 WAS @ CHI W 3 0 0 0 - 0 0 - 0 0 - 0 0 0 0 0 0 0 1 -1
p120
a.