(lp0
VPLAYER TEAM DATE MATCHUP W/L MIN PTS FGM FGA FG% 3PM 3PA 3P% FTM FTA FT% OREB DREB REB AST STL BLK TOV PF +/-
p1
aVTaj Gibson CHI 04/29/2014 CHI vs. WAS L 25 12 3 10 30.0 0 0 - 6 7 85.7 2 2 4 0 0 3 1 1 5
p2
aVCarlos Boozer CHI 04/29/2014 CHI vs. WAS L 28 10 4 12 33.3 0 0 - 2 2 100.0 3 6 9 1 0 0 3 2 -16
p3
aVJimmy Butler CHI 04/29/2014 CHI vs. WAS L 43 16 6 15 40.0 2 4 50.0 2 2 100.0 3 1 4 2 1 0 0 2 0
p4
aVKirk Hinrich CHI 04/29/2014 CHI vs. WAS L 40 16 6 11 54.5 4 5 80.0 0 0 - 0 2 2 4 0 1 2 6 3
p5
aVMike Dunleavy CHI 04/29/2014 CHI vs. WAS L 33 5 2 8 25.0 0 3 0.0 1 2 50.0 1 4 5 2 0 1 1 1 -18
p6
aVJoakim Noah CHI 04/29/2014 CHI vs. WAS L 43 6 3 8 37.5 0 0 - 0 2 0.0 2 16 18 7 2 3 4 1 -1
p7
aVTony Snell CHI 04/29/2014 CHI vs. WAS L 5 0 0 1 0.0 0 0 - 0 0 - 0 1 1 0 1 0 0 0 -6
p8
aVD.J. Augustin CHI 04/29/2014 CHI vs. WAS L 23 4 1 10 10.0 0 4 0.0 2 2 100.0 0 0 0 3 0 0 0 4 3
p9
aVKirk Hinrich CHI 04/27/2014 CHI @ WAS L 36 7 3 12 25.0 1 5 20.0 0 0 - 0 1 1 7 0 0 4 2 -6
p10
aVD.J. Augustin CHI 04/27/2014 CHI @ WAS L 22 8 3 10 30.0 1 4 25.0 1 1 100.0 0 1 1 4 0 0 2 5 9
p11
aVJoakim Noah CHI 04/27/2014 CHI @ WAS L 40 10 4 9 44.4 0 0 - 2 3 66.7 5 10 15 5 1 2 3 4 -8
p12
aVTony Snell CHI 04/27/2014 CHI @ WAS L 13 2 1 2 50.0 0 1 0.0 0 0 - 0 2 2 0 0 1 1 1 -1
p13
aVMike Dunleavy CHI 04/27/2014 CHI @ WAS L 35 6 3 8 37.5 0 2 0.0 0 0 - 1 4 5 2 0 0 1 1 -18
p14
aVCarlos Boozer CHI 04/27/2014 CHI @ WAS L 24 8 3 7 42.9 0 0 - 2 2 100.0 2 6 8 0 0 0 1 5 -15
p15
aVJimmy Butler CHI 04/27/2014 CHI @ WAS L 38 16 5 14 35.7 2 7 28.6 4 4 100.0 1 2 3 3 0 0 1 1 -11
p16
aVTaj Gibson CHI 04/27/2014 CHI @ WAS L 32 32 13 16 81.3 0 0 - 6 7 85.7 4 3 7 1 1 1 3 3 5
p17
aVJoakim Noah CHI 04/25/2014 CHI @ WAS W 41 6 2 4 50.0 0 0 - 2 6 33.3 1 8 9 4 2 0 4 6 0
p18
aVTaj Gibson CHI 04/25/2014 CHI @ WAS W 31 13 5 8 62.5 0 0 - 3 6 50.0 3 1 4 1 1 2 1 4 2
p19
aVJimmy Butler CHI 04/25/2014 CHI @ WAS W 41 15 3 7 42.9 2 5 40.0 7 8 87.5 0 5 5 2 1 0 2 2 5
p20
aVCarlos Boozer CHI 04/25/2014 CHI @ WAS W 24 14 6 12 50.0 0 0 - 2 2 100.0 0 5 5 2 1 0 2 3 7
p21
aVKirk Hinrich CHI 04/25/2014 CHI @ WAS W 31 4 2 4 50.0 0 1 0.0 0 0 - 0 5 5 5 1 0 1 5 -4
p22
aVTony Snell CHI 04/25/2014 CHI @ WAS W 9 0 0 2 0.0 0 2 0.0 0 0 - 0 1 1 0 0 0 0 1 -4
p23
aVMike Dunleavy CHI 04/25/2014 CHI @ WAS W 40 35 12 19 63.2 8 10 80.0 3 4 75.0 2 3 5 3 0 0 3 1 7
p24
aVD.J. Augustin CHI 04/25/2014 CHI @ WAS W 24 13 4 15 26.7 2 6 33.3 3 4 75.0 1 1 2 7 2 0 3 1 2
p25
aVTaj Gibson CHI 04/22/2014 CHI vs. WAS L 36 22 7 17 41.2 0 0 - 8 10 80.0 9 1 10 0 0 3 2 3 -5
p26
aVMike Dunleavy CHI 04/22/2014 CHI vs. WAS L 27 9 4 6 66.7 1 3 33.3 0 0 - 0 1 1 4 2 0 0 2 4
p27
aVJimmy Butler CHI 04/22/2014 CHI vs. WAS L 53 6 2 9 22.2 0 3 0.0 2 2 100.0 1 6 7 2 1 0 0 4 -2
p28
aVKirk Hinrich CHI 04/22/2014 CHI vs. WAS L 32 12 5 13 38.5 0 3 0.0 2 4 50.0 1 6 7 4 2 0 3 4 -13
p29
aVNazr Mohammed CHI 04/22/2014 CHI vs. WAS L 3 0 0 1 0.0 0 0 - 0 0 - 1 0 1 0 0 0 0 0 3
p30
aVCarlos Boozer CHI 04/22/2014 CHI vs. WAS L 21 5 2 6 33.3 0 0 - 1 2 50.0 2 6 8 1 0 0 1 2 -2
p31
aVD.J. Augustin CHI 04/22/2014 CHI vs. WAS L 41 25 10 22 45.5 4 8 50.0 1 2 50.0 1 1 2 7 1 0 1 3 8
p32
aVTony Snell CHI 04/22/2014 CHI vs. WAS L 6 0 0 0 - 0 0 - 0 0 - 0 1 1 2 0 0 0 0 1
p33
aVJoakim Noah CHI 04/22/2014 CHI vs. WAS L 46 20 8 14 57.1 0 0 - 4 4 100.0 2 10 12 3 0 2 5 5 -4
p34
aVD.J. Augustin CHI 04/20/2014 CHI vs. WAS L 32 16 3 15 20.0 0 4 0.0 10 10 100.0 2 1 3 3 0 0 3 3 -3
p35
aVTony Snell CHI 04/20/2014 CHI vs. WAS L 12 2 1 4 25.0 0 2 0.0 0 0 - 0 1 1 0 0 0 0 3 8
p36
aVNazr Mohammed CHI 04/20/2014 CHI vs. WAS L 2 0 0 0 - 0 0 - 0 0 - 0 1 1 0 0 0 0 3 -1
p37
aVMike Dunleavy CHI 04/20/2014 CHI vs. WAS L 27 11 4 12 33.3 3 8 37.5 0 0 - 1 1 2 1 1 0 0 2 -5
p38
aVTaj Gibson CHI 04/20/2014 CHI vs. WAS L 30 12 4 6 66.7 0 0 - 4 6 66.7 3 3 6 0 0 3 1 1 0
p39
aVKirk Hinrich CHI 04/20/2014 CHI vs. WAS L 29 16 7 16 43.8 2 5 40.0 0 0 - 0 0 0 2 1 0 1 5 -12
p40
aVJoakim Noah CHI 04/20/2014 CHI vs. WAS L 40 10 4 6 66.7 0 0 - 2 2 100.0 5 5 10 4 0 0 3 3 -12
p41
aVCarlos Boozer CHI 04/20/2014 CHI vs. WAS L 24 11 5 10 50.0 0 0 - 1 1 100.0 1 8 9 1 0 0 0 1 -5
p42
aVJimmy Butler CHI 04/20/2014 CHI vs. WAS L 44 15 6 12 50.0 0 1 0.0 3 7 42.9 1 6 7 2 3 0 0 4 -15
p43
a.