(lp0
VPLAYER TEAM DATE MATCHUP W/L MIN PTS FGM FGA FG% 3PM 3PA 3P% FTM FTA FT% OREB DREB REB AST STL BLK TOV PF +/-
p1
aVLou Williams ATL 05/03/2014 ATL @ IND L 12 0 0 3 0.0 0 1 0.0 0 0 - 0 2 2 1 0 0 0 0 1
p2
aVShelvin Mack ATL 05/03/2014 ATL @ IND L 23 13 5 12 41.7 3 8 37.5 0 0 - 0 1 1 7 0 0 0 3 0
p3
aVElton Brand ATL 05/03/2014 ATL @ IND L 3 0 0 1 0.0 0 0 - 0 0 - 0 0 0 0 0 0 0 1 -3
p4
aVKyle Korver ATL 05/03/2014 ATL @ IND L 45 19 6 13 46.2 5 10 50.0 2 3 66.7 1 2 3 0 0 0 3 2 -13
p5
aVPero Antic ATL 05/03/2014 ATL @ IND L 21 0 0 5 0.0 0 3 0.0 0 0 - 2 2 4 1 2 0 0 3 2
p6
aVDeMarre Carroll ATL 05/03/2014 ATL @ IND L 29 2 1 7 14.3 0 5 0.0 0 0 - 1 4 5 0 1 2 0 3 -11
p7
aVPaul Millsap ATL 05/03/2014 ATL @ IND L 44 15 6 21 28.6 0 5 0.0 3 5 60.0 10 7 17 4 4 1 2 4 -9
p8
aVMike Scott ATL 05/03/2014 ATL @ IND L 28 15 5 14 35.7 3 10 30.0 2 2 100.0 0 3 3 0 0 0 0 3 -14
p9
aVJeff Teague ATL 05/03/2014 ATL @ IND L 35 16 5 16 31.3 0 2 0.0 6 6 100.0 1 2 3 3 2 1 5 5 -13
p10
aVKyle Korver ATL 05/01/2014 ATL vs. IND L 30 9 3 8 37.5 3 8 37.5 0 0 - 0 4 4 2 0 0 1 4 1
p11
aVPaul Millsap ATL 05/01/2014 ATL vs. IND L 42 16 4 13 30.8 1 4 25.0 7 8 87.5 5 13 18 5 3 2 2 6 3
p12
aVPero Antic ATL 05/01/2014 ATL vs. IND L 27 5 1 7 14.3 0 4 0.0 3 4 75.0 1 5 6 1 1 2 3 4 11
p13
aVElton Brand ATL 05/01/2014 ATL vs. IND L 6 0 0 1 0.0 0 0 - 0 0 - 0 3 3 1 0 0 0 1 -11
p14
aVMike Scott ATL 05/01/2014 ATL vs. IND L 20 4 2 9 22.2 0 6 0.0 0 1 0.0 0 3 3 0 0 0 0 2 -15
p15
aVJeff Teague ATL 05/01/2014 ATL vs. IND L 40 29 9 21 42.9 2 6 33.3 9 9 100.0 2 1 3 2 1 1 1 0 1
p16
aVDeMarre Carroll ATL 05/01/2014 ATL vs. IND L 39 7 3 7 42.9 1 2 50.0 0 0 - 3 1 4 2 1 0 2 2 -9
p17
aVShelvin Mack ATL 05/01/2014 ATL vs. IND L 10 2 1 3 33.3 0 0 - 0 0 - 0 2 2 1 0 0 1 1 -5
p18
aVLou Williams ATL 05/01/2014 ATL vs. IND L 25 16 6 12 50.0 2 5 40.0 2 2 100.0 0 1 1 0 1 0 3 3 -11
p19
aVKyle Korver ATL 04/28/2014 ATL @ IND W 42 16 5 10 50.0 5 10 50.0 1 1 100.0 0 9 9 1 1 0 1 4 21
p20
aVMike Scott ATL 04/28/2014 ATL @ IND W 23 17 6 9 66.7 5 6 83.3 0 0 - 2 1 3 1 0 0 1 2 17
p21
aVElton Brand ATL 04/28/2014 ATL @ IND W 11 0 0 0 - 0 0 - 0 0 - 1 2 3 1 0 2 0 0 8
p22
aVPero Antic ATL 04/28/2014 ATL @ IND W 20 1 0 3 0.0 0 1 0.0 1 2 50.0 0 2 2 1 0 0 2 4 8
p23
aVLou Williams ATL 04/28/2014 ATL @ IND W 20 8 3 7 42.9 0 1 0.0 2 2 100.0 0 4 4 2 2 0 3 0 10
p24
aVDeMarre Carroll ATL 04/28/2014 ATL @ IND W 28 15 6 9 66.7 2 2 100.0 1 1 100.0 0 2 2 1 0 0 3 3 -10
p25
aVJeff Teague ATL 04/28/2014 ATL @ IND W 32 12 3 8 37.5 1 3 33.3 5 5 100.0 0 4 4 4 0 0 3 2 -10
p26
aVPaul Millsap ATL 04/28/2014 ATL @ IND W 39 18 5 11 45.5 0 0 - 8 12 66.7 3 5 8 3 0 4 2 2 -9
p27
aVShelvin Mack ATL 04/28/2014 ATL @ IND W 25 20 5 9 55.6 2 4 50.0 8 10 80.0 0 3 3 5 2 0 1 2 15
p28
aVLou Williams ATL 04/26/2014 ATL vs. IND L 17 6 2 7 28.6 0 1 0.0 2 2 100.0 0 3 3 1 4 0 2 0 2
p29
aVPero Antic ATL 04/26/2014 ATL vs. IND L 25 2 1 6 16.7 0 3 0.0 0 0 - 2 0 2 2 1 1 2 4 2
p30
aVMike Scott ATL 04/26/2014 ATL vs. IND L 26 12 4 15 26.7 1 4 25.0 3 3 100.0 1 2 3 1 0 0 0 2 4
p31
aVJeff Teague ATL 04/26/2014 ATL vs. IND L 35 14 5 15 33.3 2 5 40.0 2 2 100.0 2 4 6 7 0 0 4 2 -7
p32
aVShelvin Mack ATL 04/26/2014 ATL vs. IND L 14 7 3 6 50.0 1 2 50.0 0 0 - 1 2 3 4 0 0 0 1 2
p33
aVCartier Martin ATL 04/26/2014 ATL vs. IND L 0 0 0 1 0.0 0 0 - 0 0 - 0 0 0 0 0 0 0 0 -2
p34
aVDeMarre Carroll ATL 04/26/2014 ATL vs. IND L 40 3 1 6 16.7 1 2 50.0 0 0 - 1 6 7 4 1 0 0 5 -8
p35
aVElton Brand ATL 04/26/2014 ATL vs. IND L 8 0 0 1 0.0 0 0 - 0 0 - 0 1 1 1 0 0 0 0 -12
p36
aVKyle Korver ATL 04/26/2014 ATL vs. IND L 37 15 4 9 44.4 3 8 37.5 4 4 100.0 0 9 9 0 1 0 1 0 4
p37
aVPaul Millsap ATL 04/26/2014 ATL vs. IND L 37 29 10 18 55.6 3 6 50.0 6 6 100.0 2 5 7 2 1 3 3 4 0
p38
aVElton Brand ATL 04/24/2014 ATL vs. IND W 15 4 1 4 25.0 0 0 - 2 3 66.7 2 2 4 1 0 1 0 1 -4
p39
aVJeff Teague ATL 04/24/2014 ATL vs. IND W 37 22 7 20 35.0 2 6 33.3 6 6 100.0 0 2 2 10 1 1 3 2 9
p40
aVLou Williams ATL 04/24/2014 ATL vs. IND W 20 11 3 6 50.0 2 3 66.7 3 4 75.0 0 3 3 1 0 1 2 1 -2
p41
aVKyle Korver ATL 04/24/2014 ATL vs. IND W 35 20 6 9 66.7 4 7 57.1 4 4 100.0 0 6 6 0 1 0 2 2 12
p42
aVDeMarre Carroll ATL 04/24/2014 ATL vs. IND W 41 18 6 8 75.0 2 4 50.0 4 6 66.7 1 3 4 2 1 0 0 3 16
p43
aVDennis Schroder ATL 04/24/2014 ATL vs. IND W 0 0 0 0 - 0 0 - 0 0 - 0 0 0 0 0 0 0 0 0
p44
aVMike Muscala ATL 04/24/2014 ATL vs. IND W 0 0 0 0 - 0 0 - 0 0 - 0 0 0 0 0 0 0 0 0
p45
aVShelvin Mack ATL 04/24/2014 ATL vs. IND W 11 3 1 5 20.0 1 4 25.0 0 0 - 0 2 2 2 0 0 1 1 4
p46
aVMike Scott ATL 04/24/2014 ATL vs. IND W 20 5 1 5 20.0 0 2 0.0 3 4 75.0 0 3 3 1 1 0 0 1 -1
p47
aVPero Antic ATL 04/24/2014 ATL vs. IND W 23 1 0 5 0.0 0 4 0.0 1 2 50.0 1 2 3 0 0 0 0 5 11
p48
aVPaul Millsap ATL 04/24/2014 ATL vs. IND W 38 14 3 11 27.3 1 4 25.0 7 8 87.5 0 14 14 4 0 1 6 3 20
p49
aVPero Antic ATL 04/22/2014 ATL @ IND L 25 5 2 9 22.2 1 5 20.0 0 0 - 3 0 3 0 1 0 0 2 -13
p50
aVMike Muscala ATL 04/22/2014 ATL @ IND L 5 0 0 2 0.0 0 0 - 0 0 - 0 0 0 0 0 0 0 0 7
p51
aVPaul Millsap ATL 04/22/2014 ATL @ IND L 31 19 6 12 50.0 2 4 50.0 5 6 83.3 1 3 4 1 1 1 4 5 -26
p52
aVElton Brand ATL 04/22/2014 ATL @ IND L 18 4 1 3 33.3 0 0 - 2 2 100.0 3 4 7 2 1 0 0 3 -10
p53
aVShelvin Mack ATL 04/22/2014 ATL @ IND L 20 4 1 5 20.0 1 4 25.0 1 2 50.0 1 0 1 3 1 0 1 1 -3
p54
aVCartier Martin ATL 04/22/2014 ATL @ IND L 10 4 2 2 100.0 0 0 - 0 0 - 1 2 3 0 1 0 1 1 10
p55
aVDeMarre Carroll ATL 04/22/2014 ATL @ IND L 29 5 2 5 40.0 1 3 33.3 0 0 - 1 1 2 1 0 0 0 2 -13
p56
aVLou Williams ATL 04/22/2014 ATL @ IND L 22 11 4 12 33.3 1 4 25.0 2 2 100.0 0 1 1 1 0 0 1 3 -16
p57
aVJeff Teague ATL 04/22/2014 ATL @ IND L 28 14 6 13 46.2 1 2 50.0 1 2 50.0 0 5 5 4 2 1 3 2 -13
p58
aVMike Scott ATL 04/22/2014 ATL @ IND L 17 11 4 9 44.4 1 2 50.0 2 4 50.0 0 2 2 0 0 0 1 1 10
p59
aVKyle Korver ATL 04/22/2014 ATL @ IND L 27 3 1 5 20.0 1 4 25.0 0 0 - 0 1 1 1 0 0 2 2 -22
p60
aVDennis Schroder ATL 04/22/2014 ATL @ IND L 7 5 2 2 100.0 1 1 100.0 0 0 - 0 2 2 0 0 0 0 1 9
p61
aVDeMarre Carroll ATL 04/19/2014 ATL @ IND W 39 12 4 7 57.1 2 4 50.0 2 4 50.0 5 5 10 1 1 1 3 3 15
p62
aVPaul Millsap ATL 04/19/2014 ATL @ IND W 36 25 7 17 41.2 2 4 50.0 9 11 81.8 0 8 8 1 1 1 1 1 6
p63
aVLou Williams ATL 04/19/2014 ATL @ IND W 18 6 1 3 33.3 0 1 0.0 4 4 100.0 0 2 2 2 0 0 2 3 -5
p64
aVElton Brand ATL 04/19/2014 ATL @ IND W 20 0 0 2 0.0 0 0 - 0 0 - 1 4 5 0 0 3 0 4 0
p65
aVShelvin Mack ATL 04/19/2014 ATL @ IND W 14 8 3 7 42.9 2 5 40.0 0 0 - 1 0 1 3 1 0 2 1 1
p66
aVKyle Korver ATL 04/19/2014 ATL @ IND W 34 12 5 12 41.7 2 7 28.6 0 0 - 1 4 5 1 1 2 1 1 12
p67
aVJeff Teague ATL 04/19/2014 ATL @ IND W 35 28 9 19 47.4 1 3 33.3 9 10 90.0 0 3 3 5 1 0 2 2 8
p68
aVPero Antic ATL 04/19/2014 ATL @ IND W 28 8 3 7 42.9 2 5 40.0 0 0 - 1 6 7 0 0 0 1 4 8
p69
aVMike Scott ATL 04/19/2014 ATL @ IND W 12 2 1 2 50.0 0 1 0.0 0 0 - 0 1 1 0 0 0 0 0 2
p70
aVCartier Martin ATL 04/19/2014 ATL @ IND W 4 0 0 0 - 0 0 - 0 0 - 0 0 0 0 1 0 0 1 -7
p71
a.