(lp0
VPLAYER TEAM DATE MATCHUP W/L MIN PTS FGM FGA FG% 3PM 3PA 3P% FTM FTA FT% OREB DREB REB AST STL BLK TOV PF +/-
p1
aVLandry Fields TOR 05/04/2014 TOR vs. BKN L 0 0 0 0 - 0 0 - 0 0 - 0 0 0 0 0 0 0 1 -2
p2
aVJonas Valanciunas TOR 05/04/2014 TOR vs. BKN L 27 3 1 5 20.0 0 0 - 1 1 100.0 1 4 5 0 0 1 0 1 -23
p3
aVTerrence Ross TOR 05/04/2014 TOR vs. BKN L 30 11 5 12 41.7 0 3 0.0 1 3 33.3 0 2 2 0 2 1 1 5 0
p4
aVDeMar DeRozan TOR 05/04/2014 TOR vs. BKN L 45 18 5 12 41.7 1 2 50.0 7 7 100.0 0 2 2 6 1 0 2 2 2
p5
aVPatrick Patterson TOR 05/04/2014 TOR vs. BKN L 34 16 5 5 100.0 0 0 - 6 6 100.0 0 8 8 1 0 0 1 1 14
p6
aVAmir Johnson TOR 05/04/2014 TOR vs. BKN L 22 20 9 12 75.0 0 0 - 2 2 100.0 5 5 10 1 0 1 1 6 -5
p7
aVGreivis Vasquez TOR 05/04/2014 TOR vs. BKN L 25 2 1 3 33.3 0 1 0.0 0 0 - 1 1 2 1 0 0 1 5 8
p8
aVJohn Salmons TOR 05/04/2014 TOR vs. BKN L 6 3 1 3 33.3 1 3 33.3 0 0 - 0 0 0 0 0 0 0 1 -10
p9
aVCharles Hayes TOR 05/04/2014 TOR vs. BKN L 9 2 1 2 50.0 0 0 - 0 0 - 1 1 2 1 1 0 0 0 4
p10
aVKyle Lowry TOR 05/04/2014 TOR vs. BKN L 41 28 7 19 36.8 2 4 50.0 12 14 85.7 2 5 7 3 0 0 3 5 7
p11
aVCharles Hayes TOR 05/02/2014 TOR @ BKN L 3 0 0 0 - 0 0 - 0 0 - 0 0 0 0 0 0 0 1 -1
p12
aVAmir Johnson TOR 05/02/2014 TOR @ BKN L 21 4 2 6 33.3 0 0 - 0 0 - 2 3 5 2 1 0 3 2 -19
p13
aVKyle Lowry TOR 05/02/2014 TOR @ BKN L 38 11 4 16 25.0 2 7 28.6 1 2 50.0 1 3 4 4 3 0 4 5 -24
p14
aVJohn Salmons TOR 05/02/2014 TOR @ BKN L 14 6 2 3 66.7 1 2 50.0 1 1 100.0 0 2 2 1 1 0 1 1 0
p15
aVDeMar DeRozan TOR 05/02/2014 TOR @ BKN L 40 28 8 18 44.4 2 3 66.7 10 11 90.9 0 6 6 4 2 0 1 3 -4
p16
aVGreivis Vasquez TOR 05/02/2014 TOR @ BKN L 24 9 4 10 40.0 1 3 33.3 0 0 - 0 3 3 2 1 0 1 3 -3
p17
aVTerrence Ross TOR 05/02/2014 TOR @ BKN L 23 6 3 9 33.3 0 4 0.0 0 0 - 0 3 3 1 1 1 0 2 -14
p18
aVTyler Hansbrough TOR 05/02/2014 TOR @ BKN L 13 2 0 0 - 0 0 - 2 2 100.0 1 2 3 0 0 0 0 4 4
p19
aVPatrick Patterson TOR 05/02/2014 TOR @ BKN L 26 8 3 9 33.3 1 3 33.3 1 2 50.0 1 2 3 1 0 2 1 0 -6
p20
aVJonas Valanciunas TOR 05/02/2014 TOR @ BKN L 26 9 4 5 80.0 0 0 - 1 2 50.0 3 6 9 0 0 0 3 4 -13
p21
aVSteve Novak TOR 05/02/2014 TOR @ BKN L 11 0 0 2 0.0 0 2 0.0 0 0 - 0 4 4 1 0 0 0 0 10
p22
aVCharles Hayes TOR 04/30/2014 TOR vs. BKN W 11 4 1 4 25.0 0 0 - 2 2 100.0 2 0 2 1 1 0 1 1 6
p23
aVPatrick Patterson TOR 04/30/2014 TOR vs. BKN W 28 2 0 3 0.0 0 3 0.0 2 2 100.0 3 5 8 4 1 0 0 3 1
p24
aVJohn Salmons TOR 04/30/2014 TOR vs. BKN W 13 0 0 3 0.0 0 2 0.0 0 0 - 0 1 1 2 0 0 0 2 -15
p25
aVGreivis Vasquez TOR 04/30/2014 TOR vs. BKN W 26 15 6 12 50.0 3 5 60.0 0 0 - 0 6 6 2 0 0 1 3 7
p26
aVJonas Valanciunas TOR 04/30/2014 TOR vs. BKN W 25 16 7 10 70.0 0 0 - 2 4 50.0 2 4 6 0 0 0 1 2 10
p27
aVTerrence Ross TOR 04/30/2014 TOR vs. BKN W 28 8 3 9 33.3 2 5 40.0 0 0 - 1 1 2 0 1 1 1 3 13
p28
aVDeMar DeRozan TOR 04/30/2014 TOR vs. BKN W 39 23 5 12 41.7 1 2 50.0 12 13 92.3 0 6 6 5 3 1 2 4 -13
p29
aVAmir Johnson TOR 04/30/2014 TOR vs. BKN W 32 11 4 5 80.0 0 0 - 3 5 60.0 1 5 6 1 0 0 4 6 -14
p30
aVKyle Lowry TOR 04/30/2014 TOR vs. BKN W 38 36 11 19 57.9 6 9 66.7 8 10 80.0 0 0 0 6 0 0 1 1 15
p31
aVTerrence Ross TOR 04/27/2014 TOR @ BKN W 14 0 0 1 0.0 0 1 0.0 0 0 - 0 1 1 0 1 0 0 1 3
p32
aVPatrick Patterson TOR 04/27/2014 TOR @ BKN W 32 9 3 7 42.9 1 3 33.3 2 2 100.0 2 7 9 0 2 0 3 3 7
p33
aVDeMar DeRozan TOR 04/27/2014 TOR @ BKN W 43 24 7 19 36.8 1 1 100.0 9 11 81.8 1 4 5 2 0 0 1 4 0
p34
aVAmir Johnson TOR 04/27/2014 TOR @ BKN W 30 17 7 11 63.6 0 0 - 3 3 100.0 2 3 5 1 2 1 2 5 11
p35
aVJohn Salmons TOR 04/27/2014 TOR @ BKN W 19 0 0 3 0.0 0 3 0.0 0 0 - 0 2 2 1 1 0 0 2 -3
p36
aVGreivis Vasquez TOR 04/27/2014 TOR @ BKN W 35 9 4 12 33.3 1 6 16.7 0 2 0.0 0 6 6 9 1 0 1 2 10
p37
aVSteve Novak TOR 04/27/2014 TOR @ BKN W 4 0 0 1 0.0 0 1 0.0 0 0 - 0 1 1 0 0 0 0 0 -2
p38
aVJonas Valanciunas TOR 04/27/2014 TOR @ BKN W 23 6 3 3 100.0 0 0 - 0 0 - 1 5 6 0 0 2 2 4 0
p39
aVCharles Hayes TOR 04/27/2014 TOR @ BKN W 8 0 0 1 0.0 0 0 - 0 0 - 1 3 4 0 1 0 0 3 0
p40
aVKyle Lowry TOR 04/27/2014 TOR @ BKN W 34 22 7 17 41.2 3 8 37.5 5 5 100.0 2 2 4 2 1 0 1 5 14
p41
aVJohn Salmons TOR 04/25/2014 TOR @ BKN L 12 4 2 4 50.0 0 1 0.0 0 0 - 0 0 0 1 0 0 0 2 -7
p42
aVJonas Valanciunas TOR 04/25/2014 TOR @ BKN L 30 10 4 4 100.0 0 0 - 2 4 50.0 2 8 10 0 0 2 2 5 0
p43
aVDeMar DeRozan TOR 04/25/2014 TOR @ BKN L 39 30 8 22 36.4 1 4 25.0 13 15 86.7 1 4 5 5 2 0 3 3 1
p44
aVKyle Lowry TOR 04/25/2014 TOR @ BKN L 38 15 4 9 44.4 1 6 16.7 6 6 100.0 0 2 2 4 0 0 3 6 3
p45
aVAmir Johnson TOR 04/25/2014 TOR @ BKN L 29 7 3 6 50.0 0 2 0.0 1 2 50.0 2 2 4 1 0 0 0 4 -15
p46
aVTyler Hansbrough TOR 04/25/2014 TOR @ BKN L 9 3 1 3 33.3 0 0 - 1 2 50.0 1 1 2 0 0 0 2 3 0
p47
aVLandry Fields TOR 04/25/2014 TOR @ BKN L 8 0 0 2 0.0 0 0 - 0 0 - 1 2 3 0 2 0 0 0 -4
p48
aVGreivis Vasquez TOR 04/25/2014 TOR @ BKN L 26 7 2 6 33.3 1 3 33.3 2 2 100.0 0 2 2 6 1 1 3 3 10
p49
aVPatrick Patterson TOR 04/25/2014 TOR @ BKN L 29 17 6 7 85.7 3 4 75.0 2 4 50.0 1 4 5 1 0 0 1 3 7
p50
aVTerrence Ross TOR 04/25/2014 TOR @ BKN L 22 5 1 4 25.0 1 2 50.0 2 2 100.0 0 2 2 0 0 0 3 2 -15
p51
aVSteve Novak TOR 04/25/2014 TOR @ BKN L 0 0 0 0 - 0 0 - 0 0 - 0 0 0 0 0 0 0 0 0
p52
aVAmir Johnson TOR 04/22/2014 TOR vs. BKN W 37 16 8 10 80.0 0 0 - 0 0 - 3 6 9 1 0 2 1 4 12
p53
aVDeMar DeRozan TOR 04/22/2014 TOR vs. BKN W 38 30 9 21 42.9 0 2 0.0 12 14 85.7 1 2 3 2 0 0 6 5 7
p54
aVPatrick Patterson TOR 04/22/2014 TOR vs. BKN W 24 12 5 9 55.6 1 3 33.3 1 2 50.0 4 5 9 0 0 0 0 2 1
p55
aVJonas Valanciunas TOR 04/22/2014 TOR vs. BKN W 35 15 5 9 55.6 0 0 - 5 7 71.4 5 9 14 0 0 0 5 3 -5
p56
aVLandry Fields TOR 04/22/2014 TOR vs. BKN W 18 0 0 0 - 0 0 - 0 0 - 1 3 4 1 2 1 1 1 8
p57
aVTerrence Ross TOR 04/22/2014 TOR vs. BKN W 25 2 1 8 12.5 0 5 0.0 0 0 - 0 1 1 1 0 0 2 2 -8
p58
aVKyle Lowry TOR 04/22/2014 TOR vs. BKN W 38 14 4 11 36.4 0 2 0.0 6 6 100.0 3 6 9 6 0 0 3 2 -2
p59
aVGreivis Vasquez TOR 04/22/2014 TOR vs. BKN W 25 11 5 10 50.0 1 4 25.0 0 0 - 2 1 3 8 1 0 2 2 12
p60
aVTyler Hansbrough TOR 04/19/2014 TOR vs. BKN L 7 2 0 0 - 0 0 - 2 2 100.0 0 1 1 1 0 0 0 1 7
p61
aVSteve Novak TOR 04/19/2014 TOR vs. BKN L 1 0 0 0 - 0 0 - 0 0 - 0 0 0 0 0 0 0 0 0
p62
aVTerrence Ross TOR 04/19/2014 TOR vs. BKN L 16 3 1 4 25.0 1 4 25.0 0 0 - 0 3 3 0 1 0 1 4 -1
p63
aVKyle Lowry TOR 04/19/2014 TOR vs. BKN L 44 22 7 18 38.9 3 7 42.9 5 6 83.3 1 6 7 8 2 0 5 3 -12
p64
aVJonas Valanciunas TOR 04/19/2014 TOR vs. BKN L 35 17 7 13 53.8 0 0 - 3 4 75.0 5 13 18 2 0 2 6 3 -17
p65
aVPatrick Patterson TOR 04/19/2014 TOR vs. BKN L 26 9 4 8 50.0 1 2 50.0 0 0 - 1 4 5 2 0 1 0 1 5
p66
aVNando De Colo TOR 04/19/2014 TOR vs. BKN L 4 0 0 0 - 0 0 - 0 0 - 0 1 1 0 0 0 0 2 3
p67
aVDeMar DeRozan TOR 04/19/2014 TOR vs. BKN L 37 14 3 13 23.1 0 4 0.0 8 8 100.0 0 2 2 1 0 1 3 2 -10
p68
aVGreivis Vasquez TOR 04/19/2014 TOR vs. BKN L 29 18 5 11 45.5 3 5 60.0 5 5 100.0 0 4 4 8 0 0 1 4 8
p69
aVJohn Salmons TOR 04/19/2014 TOR vs. BKN L 13 0 0 1 0.0 0 1 0.0 0 0 - 0 1 1 0 0 0 0 1 -9
p70
aVCharles Hayes TOR 04/19/2014 TOR vs. BKN L 6 0 0 1 0.0 0 0 - 0 0 - 0 0 0 0 0 0 0 0 3
p71
aVAmir Johnson TOR 04/19/2014 TOR vs. BKN L 21 2 1 2 50.0 0 0 - 0 0 - 1 2 3 0 0 0 1 2 -12
p72
a.