(lp0
VPLAYER TEAM DATE MATCHUP W/L MIN PTS FGM FGA FG% 3PM 3PA 3P% FTM FTA FT% OREB DREB REB AST STL BLK TOV PF +/-
p1
aVBrook Lopez BKN 05/01/2015 BKN vs. ATL L 35 19 7 15 46.7 0 0 - 5 5 100.0 4 3 7 0 0 1 1 2 -16
p2
aVDarius Morris BKN 05/01/2015 BKN vs. ATL L 5 0 0 1 0.0 0 0 - 0 0 - 0 0 0 0 0 0 0 0 -4
p3
aVMirza Teletovic BKN 05/01/2015 BKN vs. ATL L 9 0 0 0 - 0 0 - 0 0 - 0 1 1 0 1 0 0 0 -1
p4
aVMason Plumlee BKN 05/01/2015 BKN vs. ATL L 9 6 2 3 66.7 0 0 - 2 3 66.7 0 0 0 0 1 0 0 5 -9
p5
aVMarkel Brown BKN 05/01/2015 BKN vs. ATL L 5 2 0 2 0.0 0 1 0.0 2 2 100.0 1 0 1 1 0 0 0 0 -4
p6
aVEarl Clark BKN 05/01/2015 BKN vs. ATL L 5 3 1 4 25.0 1 1 100.0 0 0 - 0 1 1 0 0 0 0 0 -4
p7
aVJarrett Jack BKN 05/01/2015 BKN vs. ATL L 27 11 4 10 40.0 0 2 0.0 3 3 100.0 0 7 7 5 0 0 3 0 7
p8
aVJoe Johnson BKN 05/01/2015 BKN vs. ATL L 36 12 5 13 38.5 2 6 33.3 0 0 - 1 5 6 6 2 0 0 3 -26
p9
aVDeron Williams BKN 05/01/2015 BKN vs. ATL L 27 13 5 10 50.0 1 3 33.3 2 3 66.7 0 5 5 4 0 0 4 2 -20
p10
aVBojan Bogdanovic BKN 05/01/2015 BKN vs. ATL L 33 8 2 9 22.2 1 5 20.0 3 5 60.0 1 4 5 1 0 0 3 1 -29
p11
aVThaddeus Young BKN 05/01/2015 BKN vs. ATL L 23 7 3 6 50.0 0 0 - 1 3 33.3 1 5 6 0 0 1 3 2 -16
p12
aVJerome Jordan BKN 05/01/2015 BKN vs. ATL L 5 0 0 2 0.0 0 0 - 0 0 - 1 1 2 0 0 0 1 0 -4
p13
aVAlan Anderson BKN 05/01/2015 BKN vs. ATL L 22 6 2 10 20.0 2 5 40.0 0 0 - 0 3 3 3 1 1 0 2 6
p14
aVDeron Williams BKN 04/29/2015 BKN @ ATL L 32 5 2 8 25.0 0 2 0.0 1 1 100.0 2 4 6 6 1 0 2 4 -10
p15
aVBrook Lopez BKN 04/29/2015 BKN @ ATL L 39 15 4 13 30.8 0 0 - 7 7 100.0 0 3 3 2 0 3 2 2 -7
p16
aVJoe Johnson BKN 04/29/2015 BKN @ ATL L 44 18 7 15 46.7 3 8 37.5 1 2 50.0 1 8 9 4 0 0 1 3 -4
p17
aVMason Plumlee BKN 04/29/2015 BKN @ ATL L 7 0 0 0 - 0 0 - 0 0 - 0 0 0 0 1 1 1 1 -1
p18
aVAlan Anderson BKN 04/29/2015 BKN @ ATL L 32 23 9 11 81.8 4 4 100.0 1 1 100.0 1 6 7 0 0 0 2 3 -3
p19
aVJarrett Jack BKN 04/29/2015 BKN @ ATL L 32 18 7 13 53.8 2 3 66.7 2 2 100.0 0 4 4 6 2 0 3 4 4
p20
aVBojan Bogdanovic BKN 04/29/2015 BKN @ ATL L 29 7 3 8 37.5 1 4 25.0 0 0 - 0 2 2 1 1 1 1 1 -4
p21
aVThaddeus Young BKN 04/29/2015 BKN @ ATL L 25 11 5 10 50.0 0 1 0.0 1 2 50.0 1 3 4 1 0 0 0 3 -25
p22
aVThaddeus Young BKN 04/27/2015 BKN vs. ATL W 39 10 5 11 45.5 0 1 0.0 0 1 0.0 4 3 7 3 2 0 0 3 1
p23
aVJarrett Jack BKN 04/27/2015 BKN vs. ATL W 22 4 2 7 28.6 0 4 0.0 0 0 - 2 0 2 3 3 1 3 3 19
p24
aVBrook Lopez BKN 04/27/2015 BKN vs. ATL W 43 26 11 19 57.9 0 0 - 4 6 66.7 3 7 10 3 2 4 1 5 -3
p25
aVDeron Williams BKN 04/27/2015 BKN vs. ATL W 46 35 13 25 52.0 7 11 63.6 2 2 100.0 0 5 5 7 3 0 2 5 3
p26
aVMason Plumlee BKN 04/27/2015 BKN vs. ATL W 4 2 0 0 - 0 0 - 2 4 50.0 0 0 0 0 1 0 0 0 1
p27
aVJoe Johnson BKN 04/27/2015 BKN vs. ATL W 46 17 5 16 31.3 2 6 33.3 5 5 100.0 1 5 6 5 0 0 1 0 -12
p28
aVBojan Bogdanovic BKN 04/27/2015 BKN vs. ATL W 44 15 6 12 50.0 3 6 50.0 0 0 - 1 5 6 3 0 0 1 2 1
p29
aVAlan Anderson BKN 04/27/2015 BKN vs. ATL W 22 11 4 6 66.7 2 3 66.7 1 3 33.3 0 4 4 1 2 0 1 1 15
p30
aVJoe Johnson BKN 04/25/2015 BKN vs. ATL W 42 16 5 17 29.4 2 7 28.6 4 5 80.0 2 8 10 5 2 0 2 4 -1
p31
aVBojan Bogdanovic BKN 04/25/2015 BKN vs. ATL W 34 19 7 13 53.8 3 7 42.9 2 2 100.0 1 2 3 1 3 0 0 3 6
p32
aVJarrett Jack BKN 04/25/2015 BKN vs. ATL W 27 5 1 3 33.3 1 1 100.0 2 2 100.0 0 5 5 8 0 0 2 2 17
p33
aVBrook Lopez BKN 04/25/2015 BKN vs. ATL W 42 22 7 18 38.9 0 0 - 8 12 66.7 4 9 13 0 0 2 2 2 18
p34
aVThaddeus Young BKN 04/25/2015 BKN vs. ATL W 41 18 8 16 50.0 0 0 - 2 2 100.0 4 7 11 3 1 0 4 1 17
p35
aVDeron Williams BKN 04/25/2015 BKN vs. ATL W 26 3 1 8 12.5 1 4 25.0 0 0 - 0 7 7 6 2 0 3 2 3
p36
aVMason Plumlee BKN 04/25/2015 BKN vs. ATL W 4 0 0 1 0.0 0 0 - 0 0 - 1 0 1 0 0 0 0 1 -8
p37
aVMirza Teletovic BKN 04/25/2015 BKN vs. ATL W 4 0 0 3 0.0 0 2 0.0 0 0 - 0 1 1 0 0 0 0 1 -7
p38
aVAlan Anderson BKN 04/25/2015 BKN vs. ATL W 20 8 3 4 75.0 0 1 0.0 2 2 100.0 0 1 1 1 0 0 2 1 -5
p39
aVJoe Johnson BKN 04/22/2015 BKN @ ATL L 39 19 6 16 37.5 3 8 37.5 4 4 100.0 0 9 9 3 1 0 1 3 -18
p40
aVThaddeus Young BKN 04/22/2015 BKN @ ATL L 24 2 1 7 14.3 0 1 0.0 0 2 0.0 2 3 5 6 1 0 3 4 2
p41
aVDeron Williams BKN 04/22/2015 BKN @ ATL L 28 2 1 7 14.3 0 2 0.0 0 0 - 1 9 10 8 2 0 3 1 -11
p42
aVBojan Bogdanovic BKN 04/22/2015 BKN @ ATL L 34 8 3 9 33.3 2 6 33.3 0 0 - 0 3 3 2 0 1 1 3 -5
p43
aVBrook Lopez BKN 04/22/2015 BKN @ ATL L 39 20 8 15 53.3 0 0 - 4 4 100.0 3 4 7 0 0 3 0 4 -5
p44
aVJarrett Jack BKN 04/22/2015 BKN @ ATL L 29 23 9 13 69.2 2 5 40.0 3 3 100.0 0 5 5 3 1 0 4 2 9
p45
aVMirza Teletovic BKN 04/22/2015 BKN @ ATL L 4 0 0 2 0.0 0 2 0.0 0 0 - 0 2 2 0 0 0 1 0 -2
p46
aVAlan Anderson BKN 04/22/2015 BKN @ ATL L 30 13 5 7 71.4 1 2 50.0 2 3 66.7 1 4 5 1 0 0 2 1 2
p47
aVMason Plumlee BKN 04/22/2015 BKN @ ATL L 13 4 2 2 100.0 0 0 - 0 2 0.0 1 2 3 0 1 1 1 3 3
p48
aVDeron Williams BKN 04/19/2015 BKN @ ATL L 33 13 5 11 45.5 2 4 50.0 1 1 100.0 0 4 4 2 0 0 2 4 -7
p49
aVMason Plumlee BKN 04/19/2015 BKN @ ATL L 12 0 0 0 - 0 0 - 0 2 0.0 0 4 4 2 0 0 1 0 0
p50
aVEarl Clark BKN 04/19/2015 BKN @ ATL L 8 3 1 6 16.7 1 2 50.0 0 0 - 0 1 1 0 1 0 0 1 -11
p51
aVJoe Johnson BKN 04/19/2015 BKN @ ATL L 42 17 6 17 35.3 0 6 0.0 5 8 62.5 0 6 6 6 2 0 0 3 -4
p52
aVBrook Lopez BKN 04/19/2015 BKN @ ATL L 36 17 6 7 85.7 0 0 - 5 6 83.3 6 8 14 0 2 0 0 3 -5
p53
aVJarrett Jack BKN 04/19/2015 BKN @ ATL L 16 13 5 8 62.5 0 0 - 3 3 100.0 0 2 2 2 1 0 5 3 2
p54
aVThaddeus Young BKN 04/19/2015 BKN @ ATL L 40 15 7 16 43.8 0 1 0.0 1 2 50.0 5 5 10 3 1 0 4 2 4
p55
aVBojan Bogdanovic BKN 04/19/2015 BKN @ ATL L 32 5 2 8 25.0 1 5 20.0 0 0 - 0 4 4 2 0 0 2 2 -7
p56
aVAlan Anderson BKN 04/19/2015 BKN @ ATL L 16 5 2 3 66.7 1 1 100.0 0 0 - 0 1 1 1 1 0 1 1 -1
p57
aVMarkel Brown BKN 04/19/2015 BKN @ ATL L 6 4 2 3 66.7 0 1 0.0 0 0 - 1 0 1 0 0 0 2 0 -6
p58
a.