(lp0
VPLAYER TEAM DATE MATCHUP W/L MIN PTS FGM FGA FG% 3PM 3PA 3P% FTM FTA FT% OREB DREB REB AST STL BLK TOV PF +/-
p1
aVJames Jones CLE 06/16/2015 CLE vs. GSW L 27 5 1 5 20.0 0 4 0.0 3 3 100.0 0 1 1 0 0 0 1 3 4
p2
aVLeBron James CLE 06/16/2015 CLE vs. GSW L 47 32 13 33 39.4 2 10 20.0 4 8 50.0 3 15 18 9 2 0 6 3 -3
p3
aVMike Miller CLE 06/16/2015 CLE vs. GSW L 0 0 0 0 - 0 0 - 0 0 - 0 0 0 0 0 0 0 0 0
p4
aVMatthew Dellavedova CLE 06/16/2015 CLE vs. GSW L 25 1 0 3 0.0 0 0 - 1 2 50.0 1 3 4 2 0 0 2 6 -5
p5
aVTristan Thompson CLE 06/16/2015 CLE vs. GSW L 37 15 7 12 58.3 0 0 - 1 2 50.0 4 9 13 0 0 1 1 2 -15
p6
aVIman Shumpert CLE 06/16/2015 CLE vs. GSW L 36 8 1 6 16.7 0 3 0.0 6 8 75.0 1 2 3 0 0 1 2 6 -8
p7
aVJoe Harris CLE 06/16/2015 CLE vs. GSW L 0 0 0 0 - 0 0 - 0 0 - 0 0 0 0 0 0 0 0 0
p8
aVJR Smith CLE 06/16/2015 CLE vs. GSW L 34 19 5 15 33.3 4 9 44.4 5 8 62.5 0 5 5 1 1 1 1 3 -7
p9
aVTimofey Mozgov CLE 06/16/2015 CLE vs. GSW L 33 17 5 8 62.5 0 0 - 7 8 87.5 7 5 12 2 0 4 3 3 -6
p10
aVLeBron James CLE 06/14/2015 CLE @ GSW L 45 40 15 34 44.1 3 8 37.5 7 9 77.8 1 13 14 11 1 0 2 5 -11
p11
aVTristan Thompson CLE 06/14/2015 CLE @ GSW L 40 19 6 11 54.5 0 0 - 7 10 70.0 5 5 10 0 2 2 1 4 -22
p12
aVTimofey Mozgov CLE 06/14/2015 CLE @ GSW L 9 0 0 1 0.0 0 0 - 0 0 - 0 0 0 0 1 0 2 2 -4
p13
aVMike Miller CLE 06/14/2015 CLE @ GSW L 14 3 1 1 100.0 1 1 100.0 0 0 - 0 0 0 0 0 0 1 2 6
p14
aVIman Shumpert CLE 06/14/2015 CLE @ GSW L 37 10 3 9 33.3 3 6 50.0 1 2 50.0 3 2 5 2 1 0 1 4 -10
p15
aVMatthew Dellavedova CLE 06/14/2015 CLE @ GSW L 42 5 2 9 22.2 1 5 20.0 0 0 - 0 0 0 2 3 0 2 4 -19
p16
aVJR Smith CLE 06/14/2015 CLE @ GSW L 36 14 5 15 33.3 4 14 28.6 0 0 - 1 6 7 2 1 2 1 3 -6
p17
aVJames Jones CLE 06/14/2015 CLE @ GSW L 18 0 0 1 0.0 0 1 0.0 0 0 - 0 1 1 0 1 0 0 4 1
p18
aVMatthew Dellavedova CLE 06/11/2015 CLE vs. GSW L 33 10 3 14 21.4 2 9 22.2 2 2 100.0 0 1 1 4 1 0 3 2 -12
p19
aVMike Miller CLE 06/11/2015 CLE vs. GSW L 3 0 0 0 - 0 0 - 0 0 - 0 0 0 0 0 0 0 0 -2
p20
aVJames Jones CLE 06/11/2015 CLE vs. GSW L 18 0 0 3 0.0 0 1 0.0 0 0 - 0 3 3 0 0 1 1 1 -15
p21
aVTimofey Mozgov CLE 06/11/2015 CLE vs. GSW L 33 28 9 16 56.3 0 0 - 10 12 83.3 6 4 10 1 1 0 3 3 -5
p22
aVTristan Thompson CLE 06/11/2015 CLE vs. GSW L 38 12 6 10 60.0 0 0 - 0 0 - 6 7 13 0 0 1 0 1 -13
p23
aVJR Smith CLE 06/11/2015 CLE vs. GSW L 28 4 2 12 16.7 0 8 0.0 0 0 - 1 1 2 2 0 0 0 4 -27
p24
aVKendrick Perkins CLE 06/11/2015 CLE vs. GSW L 3 2 0 2 0.0 0 0 - 2 2 100.0 0 1 1 0 0 0 0 1 -2
p25
aVIman Shumpert CLE 06/11/2015 CLE vs. GSW L 39 5 2 9 22.2 1 5 20.0 0 0 - 1 6 7 1 0 1 0 2 -12
p26
aVJoe Harris CLE 06/11/2015 CLE vs. GSW L 3 1 0 0 - 0 0 - 1 2 50.0 0 0 0 0 0 0 0 0 -2
p27
aVLeBron James CLE 06/11/2015 CLE vs. GSW L 41 20 7 22 31.8 1 4 25.0 5 10 50.0 2 10 12 8 0 0 2 5 -15
p28
aVMatthew Dellavedova CLE 06/09/2015 CLE vs. GSW W 39 20 7 17 41.2 2 6 33.3 4 5 80.0 1 4 5 4 0 0 2 3 13
p29
aVTimofey Mozgov CLE 06/09/2015 CLE vs. GSW W 32 6 3 6 50.0 0 0 - 0 0 - 0 5 5 1 1 4 4 3 1
p30
aVLeBron James CLE 06/09/2015 CLE vs. GSW W 46 40 14 34 41.2 2 6 33.3 10 12 83.3 1 11 12 8 4 2 4 1 7
p31
aVJR Smith CLE 06/09/2015 CLE vs. GSW W 32 10 4 9 44.4 2 5 40.0 0 0 - 0 4 4 1 0 2 0 1 0
p32
aVTristan Thompson CLE 06/09/2015 CLE vs. GSW W 44 10 4 6 66.7 0 0 - 2 4 50.0 4 9 13 1 0 0 1 1 10
p33
aVJames Jones CLE 06/09/2015 CLE vs. GSW W 10 7 2 2 100.0 2 2 100.0 1 1 100.0 0 1 1 0 0 0 1 3 -5
p34
aVMike Miller CLE 06/09/2015 CLE vs. GSW W 5 0 0 0 - 0 0 - 0 0 - 0 0 0 0 1 0 0 0 3
p35
aVIman Shumpert CLE 06/09/2015 CLE vs. GSW W 32 3 1 2 50.0 1 2 50.0 0 2 0.0 0 3 3 0 3 0 2 4 -4
p36
aVMatthew Dellavedova CLE 06/07/2015 CLE @ GSW W 42 9 3 10 30.0 1 6 16.7 2 2 100.0 1 4 5 1 3 0 6 3 15
p37
aVJR Smith CLE 06/07/2015 CLE @ GSW W 38 13 5 13 38.5 2 5 40.0 1 2 50.0 0 4 4 0 1 0 2 6 -13
p38
aVJames Jones CLE 06/07/2015 CLE @ GSW W 22 8 3 7 42.9 2 4 50.0 0 0 - 0 1 1 1 2 0 0 4 22
p39
aVMike Miller CLE 06/07/2015 CLE @ GSW W 6 0 0 1 0.0 0 1 0.0 0 0 - 0 1 1 0 0 0 0 1 -2
p40
aVTimofey Mozgov CLE 06/07/2015 CLE @ GSW W 29 17 5 8 62.5 0 0 - 7 12 58.3 2 9 11 0 0 0 2 1 11
p41
aVLeBron James CLE 06/07/2015 CLE @ GSW W 50 39 11 35 31.4 3 6 50.0 14 18 77.8 4 12 16 11 1 1 3 3 0
p42
aVIman Shumpert CLE 06/07/2015 CLE @ GSW W 36 7 2 11 18.2 1 5 20.0 2 2 100.0 0 3 3 1 3 1 0 1 -2
p43
aVTristan Thompson CLE 06/07/2015 CLE @ GSW W 39 2 0 5 0.0 0 0 - 2 4 50.0 7 7 14 0 1 1 0 5 -21
p44
aVMatthew Dellavedova CLE 06/04/2015 CLE @ GSW L 9 0 0 0 - 0 0 - 0 0 - 1 0 1 3 0 0 0 1 -13
p45
aVJames Jones CLE 06/04/2015 CLE @ GSW L 17 0 0 1 0.0 0 1 0.0 0 0 - 0 1 1 1 1 0 1 4 -11
p46
aVLeBron James CLE 06/04/2015 CLE @ GSW L 46 44 18 38 47.4 2 8 25.0 6 10 60.0 0 8 8 6 0 0 4 2 -3
p47
aVTimofey Mozgov CLE 06/04/2015 CLE @ GSW L 33 16 5 10 50.0 0 0 - 6 8 75.0 3 4 7 2 0 1 1 1 3
p48
aVKyrie Irving CLE 06/04/2015 CLE @ GSW L 44 23 10 22 45.5 2 8 25.0 1 1 100.0 2 5 7 6 4 2 1 5 5
p49
aVIman Shumpert CLE 06/04/2015 CLE @ GSW L 34 6 2 6 33.3 2 4 50.0 0 0 - 1 1 2 0 4 1 2 2 -7
p50
aVTristan Thompson CLE 06/04/2015 CLE @ GSW L 47 2 1 4 25.0 0 0 - 0 0 - 6 9 15 1 1 1 2 3 -6
p51
aVJR Smith CLE 06/04/2015 CLE @ GSW L 34 9 3 13 23.1 3 10 30.0 0 0 - 0 4 4 0 0 0 0 2 -8
p52
aVShawn Marion CLE 05/26/2015 CLE vs. ATL W 3 0 0 0 - 0 0 - 0 0 - 0 0 0 0 0 0 0 0 4
p53
aVTristan Thompson CLE 05/26/2015 CLE vs. ATL W 31 16 6 8 75.0 0 0 - 4 8 50.0 5 6 11 0 0 1 2 1 22
p54
aVKendrick Perkins CLE 05/26/2015 CLE vs. ATL W 5 3 1 2 50.0 0 0 - 1 2 50.0 0 2 2 0 0 0 1 1 4
p55
aVJR Smith CLE 05/26/2015 CLE vs. ATL W 29 18 7 14 50.0 4 10 40.0 0 0 - 0 10 10 3 0 0 2 2 18
p56
aVTimofey Mozgov CLE 05/26/2015 CLE vs. ATL W 35 14 5 9 55.6 0 0 - 4 5 80.0 3 4 7 1 1 3 2 5 23
p57
aVMike Miller CLE 05/26/2015 CLE vs. ATL W 5 3 1 1 100.0 1 1 100.0 0 0 - 0 0 0 0 0 0 0 1 4
p58
aVMatthew Dellavedova CLE 05/26/2015 CLE vs. ATL W 17 10 3 6 50.0 1 2 50.0 3 3 100.0 2 0 2 1 0 0 0 1 3
p59
aVLeBron James CLE 05/26/2015 CLE vs. ATL W 29 23 10 20 50.0 2 6 33.3 1 4 25.0 0 9 9 7 2 1 1 2 20
p60
aVBrendan Haywood CLE 05/26/2015 CLE vs. ATL W 2 0 0 1 0.0 0 0 - 0 0 - 0 0 0 0 0 0 0 0 0
p61
aVJames Jones CLE 05/26/2015 CLE vs. ATL W 20 5 1 5 20.0 1 4 25.0 2 3 66.7 0 2 2 1 1 0 0 2 10
p62
aVJoe Harris CLE 05/26/2015 CLE vs. ATL W 6 7 2 2 100.0 1 1 100.0 2 2 100.0 0 1 1 1 0 0 0 1 1
p63
aVIman Shumpert CLE 05/26/2015 CLE vs. ATL W 36 3 1 8 12.5 1 4 25.0 0 0 - 2 6 8 4 0 1 1 1 27
p64
aVKyrie Irving CLE 05/26/2015 CLE vs. ATL W 22 16 6 11 54.5 2 3 66.7 2 3 66.7 1 3 4 5 1 1 1 1 14
p65
aVIman Shumpert CLE 05/24/2015 CLE vs. ATL W 43 15 5 11 45.5 4 8 50.0 1 2 50.0 0 7 7 1 0 0 0 5 -2
p66
aVTristan Thompson CLE 05/24/2015 CLE vs. ATL W 43 10 5 7 71.4 0 0 - 0 3 0.0 2 5 7 2 0 2 1 5 -5
p67
aVJames Jones CLE 05/24/2015 CLE vs. ATL W 23 9 2 5 40.0 2 4 50.0 3 3 100.0 1 2 3 5 0 0 0 2 9
p68
aVMatthew Dellavedova CLE 05/24/2015 CLE vs. ATL W 45 17 5 15 33.3 4 9 44.4 3 4 75.0 2 1 3 2 0 0 4 3 -2
p69
aVTimofey Mozgov CLE 05/24/2015 CLE vs. ATL W 22 9 3 6 50.0 0 0 - 3 4 75.0 4 1 5 0 0 2 1 1 7
p70
aVJR Smith CLE 05/24/2015 CLE vs. ATL W 38 17 6 14 42.9 3 9 33.3 2 3 66.7 2 8 10 1 0 2 1 4 6
p71
aVLeBron James CLE 05/24/2015 CLE vs. ATL W 47 37 14 37 37.8 1 6 16.7 8 10 80.0 8 10 18 13 3 0 6 4 -3
p72
aVShawn Marion CLE 05/24/2015 CLE vs. ATL W 4 0 0 2 0.0 0 0 - 0 0 - 0 3 3 0 0 0 0 0 5
p73
aVJames Jones CLE 05/22/2015 CLE @ ATL W 23 9 3 5 60.0 3 5 60.0 0 0 - 0 2 2 0 2 1 0 1 -6
p74
aVTimofey Mozgov CLE 05/22/2015 CLE @ ATL W 25 10 4 6 66.7 0 0 - 2 2 100.0 2 5 7 0 0 0 2 2 2
p75
aVMatthew Dellavedova CLE 05/22/2015 CLE @ ATL W 37 11 4 13 30.8 2 7 28.6 1 2 50.0 1 5 6 4 1 0 3 3 9
p76
aVJoe Harris CLE 05/22/2015 CLE @ ATL W 2 0 0 3 0.0 0 2 0.0 0 0 - 0 0 0 0 0 0 0 0 -4
p77
aVLeBron James CLE 05/22/2015 CLE @ ATL W 39 30 10 22 45.5 2 7 28.6 8 11 72.7 1 8 9 11 0 1 4 1 20
p78
aVShawn Marion CLE 05/22/2015 CLE @ ATL W 6 2 1 2 50.0 0 0 - 0 0 - 1 0 1 1 0 0 0 0 -6
p79
aVTristan Thompson CLE 05/22/2015 CLE @ ATL W 41 7 2 6 33.3 0 0 - 3 9 33.3 5 11 16 0 0 2 2 2 21
p80
aVIman Shumpert CLE 05/22/2015 CLE @ ATL W 34 16 6 11 54.5 4 6 66.7 0 0 - 1 3 4 0 1 0 1 2 27
p81
aVJR Smith CLE 05/22/2015 CLE @ ATL W 32 9 3 8 37.5 1 3 33.3 2 2 100.0 0 2 2 1 2 0 0 3 -3
p82
aVTimofey Mozgov CLE 05/20/2015 CLE @ ATL W 24 10 5 9 55.6 0 0 - 0 0 - 4 7 11 0 0 0 1 3 -3
p83
aVJR Smith CLE 05/20/2015 CLE @ ATL W 36 28 10 16 62.5 8 12 66.7 0 0 - 0 8 8 3 1 1 2 2 8
p84
aVMatthew Dellavedova CLE 05/20/2015 CLE @ ATL W 25 0 0 6 0.0 0 4 0.0 0 0 - 0 2 2 3 1 0 1 3 10
p85
aVLeBron James CLE 05/20/2015 CLE @ ATL W 38 31 12 26 46.2 0 1 0.0 7 8 87.5 1 7 8 6 1 0 4 3 3
p86
aVKyrie Irving CLE 05/20/2015 CLE @ ATL W 27 10 4 10 40.0 2 3 66.7 0 1 0.0 1 2 3 6 0 0 2 1 2
p87
aVTristan Thompson CLE 05/20/2015 CLE @ ATL W 42 14 5 7 71.4 0 0 - 4 7 57.1 5 5 10 0 0 2 0 3 7
p88
aVJames Jones CLE 05/20/2015 CLE @ ATL W 14 0 0 3 0.0 0 3 0.0 0 0 - 0 0 0 0 0 0 0 1 11
p89
aVIman Shumpert CLE 05/20/2015 CLE @ ATL W 34 4 1 7 14.3 0 3 0.0 2 4 50.0 1 6 7 2 1 1 2 3 2
p90
aVKendrick Perkins CLE 05/14/2015 CLE @ CHI W 2 0 0 0 - 0 0 - 0 0 - 0 2 2 0 0 0 0 0 -2
p91
aVJames Jones CLE 05/14/2015 CLE @ CHI W 10 9 3 6 50.0 3 6 50.0 0 0 - 0 2 2 1 0 0 1 1 1
p92
aVIman Shumpert CLE 05/14/2015 CLE @ CHI W 36 13 5 14 35.7 2 4 50.0 1 2 50.0 2 5 7 4 2 1 0 0 26
p93
aVTimofey Mozgov CLE 05/14/2015 CLE @ CHI W 26 7 2 6 33.3 0 0 - 3 4 75.0 4 1 5 1 0 1 0 2 1
p94
aVMatthew Dellavedova CLE 05/14/2015 CLE @ CHI W 34 19 7 11 63.6 3 6 50.0 2 2 100.0 1 1 2 1 0 0 3 3 21
p95
aVKyrie Irving CLE 05/14/2015 CLE @ CHI W 12 6 2 2 100.0 1 1 100.0 1 2 50.0 0 1 1 0 0 1 0 0 -1
p96
aVJoe Harris CLE 05/14/2015 CLE @ CHI W 2 0 0 0 - 0 0 - 0 0 - 0 0 0 0 0 0 1 0 -2
p97
aVLeBron James CLE 05/14/2015 CLE @ CHI W 41 15 7 23 30.4 0 4 0.0 1 2 50.0 1 8 9 11 0 2 4 4 20
p98
aVJR Smith CLE 05/14/2015 CLE @ CHI W 34 12 3 6 50.0 3 6 50.0 3 3 100.0 2 6 8 2 1 1 2 4 24
p99
aVMike Miller CLE 05/14/2015 CLE @ CHI W 2 0 0 0 - 0 0 - 0 0 - 0 0 0 0 0 0 0 0 -2
p100
aVTristan Thompson CLE 05/14/2015 CLE @ CHI W 40 13 4 11 36.4 0 0 - 5 5 100.0 6 11 17 0 0 2 0 2 19
p101
aVKendrick Perkins CLE 05/12/2015 CLE vs. CHI W 2 0 0 3 0.0 0 0 - 0 0 - 0 0 0 0 0 1 0 1 0
p102
aVLeBron James CLE 05/12/2015 CLE vs. CHI W 41 38 14 24 58.3 1 5 20.0 9 12 75.0 2 10 12 6 3 3 0 3 -4
p103
aVIman Shumpert CLE 05/12/2015 CLE vs. CHI W 42 13 6 10 60.0 1 5 20.0 0 0 - 4 3 7 3 0 3 0 0 0
p104
aVTristan Thompson CLE 05/12/2015 CLE vs. CHI W 39 12 5 7 71.4 0 0 - 2 4 50.0 4 6 10 0 0 2 2 2 -2
p105
aVMatthew Dellavedova CLE 05/12/2015 CLE vs. CHI W 18 5 1 1 100.0 1 1 100.0 2 2 100.0 0 0 0 4 0 0 2 3 11
p106
aVJames Jones CLE 05/12/2015 CLE vs. CHI W 7 0 0 0 - 0 0 - 0 0 - 0 1 1 0 0 0 0 4 8
p107
aVJR Smith CLE 05/12/2015 CLE vs. CHI W 29 12 5 11 45.5 2 7 28.6 0 0 - 0 3 3 1 1 1 1 3 18
p108
aVKyrie Irving CLE 05/12/2015 CLE vs. CHI W 39 25 9 16 56.3 3 6 50.0 4 5 80.0 0 2 2 5 1 1 3 3 -4
p109
aVTimofey Mozgov CLE 05/12/2015 CLE vs. CHI W 23 1 0 7 0.0 0 0 - 1 2 50.0 1 5 6 0 0 1 3 3 -2
p110
aVJames Jones CLE 05/10/2015 CLE @ CHI W 10 0 0 2 0.0 0 2 0.0 0 0 - 0 0 0 0 0 0 0 0 -4
p111
aVIman Shumpert CLE 05/10/2015 CLE @ CHI W 32 5 1 8 12.5 1 6 16.7 2 2 100.0 1 3 4 0 1 1 0 1 7
p112
aVTimofey Mozgov CLE 05/10/2015 CLE @ CHI W 39 15 4 5 80.0 0 0 - 7 8 87.5 1 8 9 3 0 3 3 5 7
p113
aVKyrie Irving CLE 05/10/2015 CLE @ CHI W 41 12 2 10 20.0 0 2 0.0 8 8 100.0 0 4 4 2 2 0 1 0 7
p114
aVLeBron James CLE 05/10/2015 CLE @ CHI W 43 25 10 30 33.3 1 7 14.3 4 4 100.0 2 12 14 8 1 2 8 4 5
p115
aVJR Smith CLE 05/10/2015 CLE @ CHI W 27 13 5 10 50.0 3 6 50.0 0 0 - 0 3 3 0 0 0 1 0 -3
p116
aVMatthew Dellavedova CLE 05/10/2015 CLE @ CHI W 17 2 1 3 33.3 0 2 0.0 0 0 - 0 2 2 3 0 0 1 2 -5
p117
aVTristan Thompson CLE 05/10/2015 CLE @ CHI W 30 12 5 6 83.3 0 0 - 2 2 100.0 1 6 7 0 0 0 0 4 0
p118
aVKendrick Perkins CLE 05/10/2015 CLE @ CHI W 2 2 1 1 100.0 0 0 - 0 0 - 1 0 1 0 0 0 1 0 -4
p119
aVMatthew Dellavedova CLE 05/08/2015 CLE @ CHI L 16 10 3 4 75.0 2 3 66.7 2 2 100.0 0 2 2 4 0 0 1 2 1
p120
aVJames Jones CLE 05/08/2015 CLE @ CHI L 15 8 2 5 40.0 2 5 40.0 2 2 100.0 0 2 2 0 1 0 0 2 -7
p121
aVTimofey Mozgov CLE 05/08/2015 CLE @ CHI L 22 8 4 9 44.4 0 0 - 0 0 - 2 5 7 2 1 3 0 4 2
p122
aVLeBron James CLE 05/08/2015 CLE @ CHI L 44 27 8 25 32.0 1 7 14.3 10 11 90.9 2 6 8 14 1 1 7 4 1
p123
aVTristan Thompson CLE 05/08/2015 CLE @ CHI L 41 10 4 8 50.0 0 0 - 2 2 100.0 4 9 13 1 0 3 0 1 1
p124
aVJR Smith CLE 05/08/2015 CLE @ CHI L 27 14 5 9 55.6 4 8 50.0 0 0 - 0 2 2 1 0 0 0 4 -4
p125
aVIman Shumpert CLE 05/08/2015 CLE @ CHI L 37 8 3 9 33.3 2 7 28.6 0 0 - 0 1 1 1 1 1 1 4 -1
p126
aVKyrie Irving CLE 05/08/2015 CLE @ CHI L 38 11 3 13 23.1 3 4 75.0 2 2 100.0 1 3 4 0 2 1 2 3 -8
p127
aVTimofey Mozgov CLE 05/06/2015 CLE vs. CHI W 18 6 3 8 37.5 0 0 - 0 0 - 2 5 7 0 1 1 1 3 6
p128
aVLeBron James CLE 05/06/2015 CLE vs. CHI W 34 33 13 29 44.8 0 2 0.0 7 9 77.8 3 5 8 5 2 1 2 2 31
p129
aVMatthew Dellavedova CLE 05/06/2015 CLE vs. CHI W 36 9 3 8 37.5 2 5 40.0 1 2 50.0 0 1 1 9 0 0 2 3 -9
p130
aVMike Miller CLE 05/06/2015 CLE vs. CHI W 13 0 0 0 - 0 0 - 0 0 - 0 4 4 0 0 0 0 2 0
p131
aVIman Shumpert CLE 05/06/2015 CLE vs. CHI W 29 15 5 11 45.5 4 7 57.1 1 2 50.0 2 5 7 1 3 0 0 3 19
p132
aVKyrie Irving CLE 05/06/2015 CLE vs. CHI W 34 21 5 9 55.6 1 3 33.3 10 12 83.3 0 0 0 3 2 0 3 1 23
p133
aVJoe Harris CLE 05/06/2015 CLE vs. CHI W 2 0 0 1 0.0 0 0 - 0 0 - 0 0 0 0 0 0 0 0 -1
p134
aVJames Jones CLE 05/06/2015 CLE vs. CHI W 22 17 6 10 60.0 5 9 55.6 0 0 - 0 2 2 0 0 0 0 3 -1
p135
aVShawn Marion CLE 05/06/2015 CLE vs. CHI W 5 0 0 2 0.0 0 0 - 0 0 - 1 1 2 0 0 0 0 0 -7
p136
aVTristan Thompson CLE 05/06/2015 CLE vs. CHI W 35 5 2 5 40.0 0 0 - 1 2 50.0 6 6 12 1 0 0 0 4 20
p137
aVKendrick Perkins CLE 05/06/2015 CLE vs. CHI W 12 0 0 0 - 0 0 - 0 2 0.0 0 2 2 0 0 2 0 2 -6
p138
aVIman Shumpert CLE 05/04/2015 CLE vs. CHI L 41 22 8 17 47.1 4 10 40.0 2 2 100.0 0 1 1 1 1 0 0 2 -9
p139
aVLeBron James CLE 05/04/2015 CLE vs. CHI L 42 19 9 22 40.9 0 3 0.0 1 2 50.0 4 11 15 9 3 1 6 4 -11
p140
aVKyrie Irving CLE 05/04/2015 CLE vs. CHI L 44 30 10 23 43.5 1 5 20.0 9 9 100.0 0 2 2 6 1 1 2 2 -14
p141
aVTimofey Mozgov CLE 05/04/2015 CLE vs. CHI L 26 9 3 8 37.5 0 0 - 3 4 75.0 4 1 5 0 1 1 0 1 3
p142
aVMatthew Dellavedova CLE 05/04/2015 CLE vs. CHI L 19 5 2 5 40.0 1 4 25.0 0 0 - 0 1 1 1 0 0 0 3 8
p143
aVShawn Marion CLE 05/04/2015 CLE vs. CHI L 6 0 0 0 - 0 0 - 0 0 - 0 0 0 0 0 0 0 1 0
p144
aVMike Miller CLE 05/04/2015 CLE vs. CHI L 16 3 1 2 50.0 1 2 50.0 0 0 - 0 5 5 0 0 1 0 0 -20
p145
aVJames Jones CLE 05/04/2015 CLE vs. CHI L 8 0 0 2 0.0 0 2 0.0 0 0 - 0 2 2 0 0 0 0 2 4
p146
aVTristan Thompson CLE 05/04/2015 CLE vs. CHI L 37 4 1 2 50.0 0 0 - 2 2 100.0 3 5 8 0 0 2 1 1 4
p147
aVKevin Love CLE 04/26/2015 CLE @ BOS W 7 2 1 3 33.3 0 2 0.0 0 0 - 0 1 1 1 0 0 0 0 9
p148
aVMatthew Dellavedova CLE 04/26/2015 CLE @ BOS W 15 3 1 6 16.7 1 4 25.0 0 2 0.0 0 1 1 1 0 0 0 2 4
p149
aVJames Jones CLE 04/26/2015 CLE @ BOS W 23 2 0 6 0.0 0 6 0.0 2 2 100.0 0 2 2 0 0 1 0 4 -3
p150
aVTimofey Mozgov CLE 04/26/2015 CLE @ BOS W 27 12 4 7 57.1 0 0 - 4 5 80.0 4 7 11 0 1 3 0 5 14
p151
aVKendrick Perkins CLE 04/26/2015 CLE @ BOS W 4 3 0 0 - 0 0 - 3 4 75.0 1 0 1 0 0 0 2 1 -2
p152
aVJR Smith CLE 04/26/2015 CLE @ BOS W 16 8 3 8 37.5 2 7 28.6 0 0 - 0 0 0 0 2 0 0 3 5
p153
aVTristan Thompson CLE 04/26/2015 CLE @ BOS W 22 5 1 1 100.0 0 0 - 3 4 75.0 1 2 3 0 0 0 0 4 -5
p154
aVLeBron James CLE 04/26/2015 CLE @ BOS W 46 27 10 24 41.7 1 7 14.3 6 10 60.0 0 10 10 8 3 1 6 2 7
p155
aVIman Shumpert CLE 04/26/2015 CLE @ BOS W 38 15 3 4 75.0 1 2 50.0 8 8 100.0 1 9 10 0 2 3 0 4 3
p156
aVKyrie Irving CLE 04/26/2015 CLE @ BOS W 43 24 8 19 42.1 2 5 40.0 6 8 75.0 3 8 11 3 1 1 0 5 8
p157
aVTristan Thompson CLE 04/23/2015 CLE @ BOS W 28 12 4 7 57.1 0 0 - 4 8 50.0 5 2 7 0 0 2 1 5 13
p158
aVMatthew Dellavedova CLE 04/23/2015 CLE @ BOS W 10 0 0 3 0.0 0 2 0.0 0 0 - 0 3 3 1 0 0 1 1 0
p159
aVJames Jones CLE 04/23/2015 CLE @ BOS W 4 0 0 1 0.0 0 0 - 0 0 - 0 2 2 0 0 0 0 1 1
p160
aVJR Smith CLE 04/23/2015 CLE @ BOS W 38 15 6 12 50.0 3 8 37.5 0 0 - 2 3 5 2 2 0 0 3 12
p161
aVIman Shumpert CLE 04/23/2015 CLE @ BOS W 21 4 2 4 50.0 0 1 0.0 0 0 - 0 1 1 1 1 1 0 1 14
p162
aVLeBron James CLE 04/23/2015 CLE @ BOS W 42 31 13 26 50.0 1 5 20.0 4 5 80.0 1 10 11 4 4 2 2 1 2
p163
aVTimofey Mozgov CLE 04/23/2015 CLE @ BOS W 19 5 2 4 50.0 0 0 - 1 1 100.0 1 5 6 0 0 1 4 1 -9
p164
aVKyrie Irving CLE 04/23/2015 CLE @ BOS W 40 13 3 11 27.3 2 3 66.7 5 6 83.3 0 1 1 6 2 1 2 2 -3
p165
aVKevin Love CLE 04/23/2015 CLE @ BOS W 37 23 8 16 50.0 6 10 60.0 1 4 25.0 2 7 9 3 0 0 1 3 10
p166
aVIman Shumpert CLE 04/21/2015 CLE vs. BOS W 26 2 1 3 33.3 0 1 0.0 0 0 - 1 4 5 0 1 0 0 1 -2
p167
aVJR Smith CLE 04/21/2015 CLE vs. BOS W 34 7 3 12 25.0 1 8 12.5 0 0 - 0 4 4 1 5 0 1 3 10
p168
aVKendrick Perkins CLE 04/21/2015 CLE vs. BOS W 2 0 0 0 - 0 0 - 0 0 - 0 0 0 0 0 0 0 0 -1
p169
aVTristan Thompson CLE 04/21/2015 CLE vs. BOS W 26 0 0 0 - 0 0 - 0 0 - 5 6 11 2 1 0 1 0 -3
p170
aVKyrie Irving CLE 04/21/2015 CLE vs. BOS W 39 26 8 18 44.4 3 8 37.5 7 7 100.0 0 5 5 6 0 1 2 3 15
p171
aVJames Jones CLE 04/21/2015 CLE vs. BOS W 4 0 0 1 0.0 0 1 0.0 0 0 - 0 0 0 0 0 0 0 0 -2
p172
aVTimofey Mozgov CLE 04/21/2015 CLE vs. BOS W 29 16 7 11 63.6 0 0 - 2 2 100.0 4 3 7 0 0 5 4 6 17
p173
aVKevin Love CLE 04/21/2015 CLE vs. BOS W 30 13 3 8 37.5 1 5 20.0 6 7 85.7 1 5 6 2 0 2 4 5 2
p174
aVMatthew Dellavedova CLE 04/21/2015 CLE vs. BOS W 9 5 1 1 100.0 1 1 100.0 2 2 100.0 0 0 0 0 0 0 0 1 -7
p175
aVLeBron James CLE 04/21/2015 CLE vs. BOS W 42 30 11 22 50.0 1 5 20.0 7 8 87.5 1 8 9 7 0 2 6 3 11
p176
aVMatthew Dellavedova CLE 04/19/2015 CLE vs. BOS W 9 2 1 1 100.0 0 0 - 0 0 - 0 0 0 3 0 0 2 3 10
p177
aVTristan Thompson CLE 04/19/2015 CLE vs. BOS W 26 12 4 6 66.7 0 0 - 4 6 66.7 4 2 6 1 0 0 0 0 2
p178
aVJames Jones CLE 04/19/2015 CLE vs. BOS W 15 8 3 5 60.0 2 4 50.0 0 0 - 0 1 1 0 0 0 0 0 -2
p179
aVIman Shumpert CLE 04/19/2015 CLE vs. BOS W 32 7 1 4 25.0 1 4 25.0 4 4 100.0 2 4 6 1 0 0 1 4 1
p180
aVTimofey Mozgov CLE 04/19/2015 CLE vs. BOS W 23 6 1 4 25.0 0 0 - 4 4 100.0 3 5 8 0 0 3 1 3 13
p181
aVLeBron James CLE 04/19/2015 CLE vs. BOS W 42 20 8 18 44.4 1 3 33.3 3 4 75.0 0 6 6 7 2 1 5 2 3
p182
aVKyrie Irving CLE 04/19/2015 CLE vs. BOS W 41 30 11 21 52.4 5 9 55.6 3 5 60.0 2 1 3 2 1 1 1 3 10
p183
aVJR Smith CLE 04/19/2015 CLE vs. BOS W 19 9 3 9 33.3 2 7 28.6 1 2 50.0 1 3 4 1 0 0 1 4 10
p184
aVShawn Marion CLE 04/19/2015 CLE vs. BOS W 1 0 0 0 - 0 0 - 0 0 - 0 0 0 0 2 0 0 0 3
p185
aVKevin Love CLE 04/19/2015 CLE vs. BOS W 33 19 5 14 35.7 2 4 50.0 7 8 87.5 3 9 12 4 1 0 1 4 15
p186
a.