(lp0
VPLAYER TEAM DATE MATCHUP W/L MIN PTS FGM FGA FG% 3PM 3PA 3P% FTM FTA FT% OREB DREB REB AST STL BLK TOV PF +/-
p1
aVJohn Wall WAS 05/15/2015 WAS vs. ATL L 44 20 7 21 33.3 0 1 0.0 6 7 85.7 1 5 6 13 2 1 6 1 -5
p2
aVBradley Beal WAS 05/15/2015 WAS vs. ATL L 43 29 11 24 45.8 3 8 37.5 4 4 100.0 2 4 6 3 1 0 0 2 -3
p3
aVMarcin Gortat WAS 05/15/2015 WAS vs. ATL L 12 2 1 4 25.0 0 0 - 0 0 - 2 1 3 0 0 0 1 1 -16
p4
aVDrew Gooden WAS 05/15/2015 WAS vs. ATL L 19 7 2 5 40.0 1 3 33.3 2 2 100.0 0 6 6 1 0 0 1 1 5
p5
aVPaul Pierce WAS 05/15/2015 WAS vs. ATL L 24 4 1 7 14.3 0 2 0.0 2 2 100.0 0 5 5 0 1 1 1 4 -7
p6
aVNene WAS 05/15/2015 WAS vs. ATL L 26 5 2 7 28.6 0 0 - 1 4 25.0 3 8 11 1 0 1 0 3 -8
p7
aVGarrett Temple WAS 05/15/2015 WAS vs. ATL L 0 2 0 0 - 0 0 - 2 2 100.0 1 0 1 0 0 0 0 0 1
p8
aVOtto Porter WAS 05/15/2015 WAS vs. ATL L 34 7 3 9 33.3 0 2 0.0 1 2 50.0 6 2 8 1 2 0 0 3 8
p9
aVKevin Seraphin WAS 05/15/2015 WAS vs. ATL L 28 13 6 11 54.5 0 0 - 1 2 50.0 3 5 8 0 1 1 1 2 8
p10
aVRamon Sessions WAS 05/15/2015 WAS vs. ATL L 9 2 1 5 20.0 0 2 0.0 0 0 - 0 1 1 0 0 0 1 1 2
p11
aVMarcin Gortat WAS 05/13/2015 WAS @ ATL L 35 14 7 10 70.0 0 0 - 0 1 0.0 3 5 8 4 2 0 2 2 -8
p12
aVRamon Sessions WAS 05/13/2015 WAS @ ATL L 17 0 0 4 0.0 0 1 0.0 0 0 - 1 1 2 1 1 0 0 0 7
p13
aVNene WAS 05/13/2015 WAS @ ATL L 29 9 4 11 36.4 0 0 - 1 1 100.0 3 3 6 1 3 0 1 3 -2
p14
aVBradley Beal WAS 05/13/2015 WAS @ ATL L 42 23 9 21 42.9 1 5 20.0 4 5 80.0 0 7 7 4 1 3 5 3 -1
p15
aVDrew Gooden WAS 05/13/2015 WAS @ ATL L 12 0 0 4 0.0 0 0 - 0 0 - 1 4 5 1 1 0 1 2 -4
p16
aVPaul Pierce WAS 05/13/2015 WAS @ ATL L 35 11 3 9 33.3 3 6 50.0 2 2 100.0 0 4 4 2 2 0 1 4 5
p17
aVJohn Wall WAS 05/13/2015 WAS @ ATL L 37 15 7 16 43.8 0 3 0.0 1 2 50.0 0 4 4 7 4 2 6 3 -8
p18
aVOtto Porter WAS 05/13/2015 WAS @ ATL L 33 9 3 13 23.1 0 2 0.0 3 5 60.0 5 5 10 0 1 0 3 0 6
p19
aVPaul Pierce WAS 05/11/2015 WAS vs. ATL L 33 22 8 13 61.5 5 7 71.4 1 2 50.0 0 5 5 1 0 3 0 2 0
p20
aVRamon Sessions WAS 05/11/2015 WAS vs. ATL L 34 13 5 14 35.7 1 3 33.3 2 2 100.0 1 3 4 5 1 0 1 1 -1
p21
aVNene WAS 05/11/2015 WAS vs. ATL L 31 12 6 8 75.0 0 0 - 0 0 - 2 5 7 4 0 1 2 4 0
p22
aVWill Bynum WAS 05/11/2015 WAS vs. ATL L 14 10 5 7 71.4 0 0 - 0 0 - 2 1 3 0 1 1 4 3 -6
p23
aVOtto Porter WAS 05/11/2015 WAS vs. ATL L 30 4 1 4 25.0 1 4 25.0 1 2 50.0 1 4 5 3 0 0 1 1 -3
p24
aVMarcin Gortat WAS 05/11/2015 WAS vs. ATL L 31 3 1 7 14.3 0 0 - 1 2 50.0 3 5 8 0 0 0 1 4 -3
p25
aVGarrett Temple WAS 05/11/2015 WAS vs. ATL L 4 0 0 1 0.0 0 1 0.0 0 0 - 0 0 0 0 0 0 1 2 -7
p26
aVBradley Beal WAS 05/11/2015 WAS vs. ATL L 44 34 11 25 44.0 4 8 50.0 8 9 88.9 1 5 6 7 3 1 3 0 0
p27
aVDrew Gooden WAS 05/11/2015 WAS vs. ATL L 19 3 1 6 16.7 1 3 33.3 0 0 - 0 3 3 1 0 2 3 2 -5
p28
aVOtto Porter WAS 05/09/2015 WAS vs. ATL W 40 17 7 15 46.7 2 6 33.3 1 2 50.0 2 7 9 4 1 0 0 2 2
p29
aVPaul Pierce WAS 05/09/2015 WAS vs. ATL W 26 13 5 12 41.7 3 7 42.9 0 0 - 0 7 7 1 0 0 1 4 -6
p30
aVDrew Gooden WAS 05/09/2015 WAS vs. ATL W 14 5 2 3 66.7 1 2 50.0 0 0 - 0 5 5 0 0 1 2 3 9
p31
aVBradley Beal WAS 05/09/2015 WAS vs. ATL W 39 17 6 15 40.0 2 7 28.6 3 3 100.0 2 1 3 8 1 0 5 3 -4
p32
aVNene WAS 05/09/2015 WAS vs. ATL W 30 17 7 9 77.8 0 0 - 3 7 42.9 4 3 7 4 1 1 0 3 -12
p33
aVGarrett Temple WAS 05/09/2015 WAS vs. ATL W 9 3 0 1 0.0 0 0 - 3 6 50.0 0 1 1 0 1 0 1 1 6
p34
aVRamon Sessions WAS 05/09/2015 WAS vs. ATL W 35 8 2 10 20.0 1 4 25.0 3 4 75.0 0 3 3 6 0 0 3 1 3
p35
aVWill Bynum WAS 05/09/2015 WAS vs. ATL W 13 9 2 6 33.3 1 2 50.0 4 5 80.0 0 0 0 1 0 0 1 3 0
p36
aVMarcin Gortat WAS 05/09/2015 WAS vs. ATL W 34 14 6 7 85.7 0 0 - 2 2 100.0 1 7 8 3 1 3 0 4 12
p37
aVOtto Porter WAS 05/05/2015 WAS @ ATL L 31 15 6 12 50.0 2 3 66.7 1 2 50.0 1 7 8 5 3 0 0 2 -10
p38
aVDrew Gooden WAS 05/05/2015 WAS @ ATL L 17 5 2 4 50.0 0 1 0.0 1 2 50.0 1 3 4 1 1 1 1 2 -9
p39
aVNene WAS 05/05/2015 WAS @ ATL L 27 2 0 5 0.0 0 0 - 2 2 100.0 1 3 4 1 0 0 4 2 -14
p40
aVGarrett Temple WAS 05/05/2015 WAS @ ATL L 13 2 1 4 25.0 0 2 0.0 0 0 - 0 1 1 1 1 0 1 1 -9
p41
aVPaul Pierce WAS 05/05/2015 WAS @ ATL L 35 15 5 10 50.0 5 8 62.5 0 0 - 0 5 5 1 0 0 1 3 -12
p42
aVRamon Sessions WAS 05/05/2015 WAS @ ATL L 40 21 8 14 57.1 3 5 60.0 2 5 40.0 0 3 3 4 1 0 2 3 -10
p43
aVBradley Beal WAS 05/05/2015 WAS @ ATL L 43 20 8 22 36.4 2 3 66.7 2 3 66.7 2 3 5 7 3 0 3 2 -13
p44
aVKevin Seraphin WAS 05/05/2015 WAS @ ATL L 1 0 0 1 0.0 0 0 - 0 0 - 0 1 1 0 0 0 1 0 -2
p45
aVMarcin Gortat WAS 05/05/2015 WAS @ ATL L 32 10 5 10 50.0 0 0 - 0 0 - 2 7 9 1 0 0 3 6 -1
p46
aVMarcin Gortat WAS 05/03/2015 WAS @ ATL W 38 12 5 9 55.6 0 0 - 2 2 100.0 4 8 12 2 0 0 0 0 0
p47
aVBradley Beal WAS 05/03/2015 WAS @ ATL W 40 28 9 22 40.9 2 5 40.0 8 10 80.0 2 5 7 1 1 0 1 1 8
p48
aVNene WAS 05/03/2015 WAS @ ATL W 17 0 0 4 0.0 0 0 - 0 0 - 2 1 3 0 1 0 2 3 -3
p49
aVRamon Sessions WAS 05/03/2015 WAS @ ATL W 17 5 2 5 40.0 0 1 0.0 1 2 50.0 0 3 3 1 1 0 0 1 10
p50
aVJohn Wall WAS 05/03/2015 WAS @ ATL W 39 18 8 19 42.1 0 2 0.0 2 2 100.0 4 3 7 13 1 3 2 1 -6
p51
aVKevin Seraphin WAS 05/03/2015 WAS @ ATL W 9 0 0 3 0.0 0 0 - 0 0 - 0 3 3 0 0 0 0 2 4
p52
aVOtto Porter WAS 05/03/2015 WAS @ ATL W 34 10 4 8 50.0 2 5 40.0 0 0 - 1 10 11 1 0 0 0 3 11
p53
aVPaul Pierce WAS 05/03/2015 WAS @ ATL W 31 19 7 15 46.7 3 9 33.3 2 2 100.0 0 3 3 0 0 0 0 4 -4
p54
aVDrew Gooden WAS 05/03/2015 WAS @ ATL W 14 12 3 6 50.0 2 3 66.7 4 4 100.0 2 3 5 0 0 1 1 4 10
p55
aVBradley Beal WAS 04/26/2015 WAS vs. TOR W 36 23 5 15 33.3 3 6 50.0 10 11 90.9 1 0 1 5 4 0 1 2 29
p56
aVWill Bynum WAS 04/26/2015 WAS vs. TOR W 4 0 0 1 0.0 0 0 - 0 0 - 0 0 0 2 1 0 0 0 -1
p57
aVMartell Webster WAS 04/26/2015 WAS vs. TOR W 4 2 1 2 50.0 0 1 0.0 0 0 - 0 0 0 0 0 0 0 0 -1
p58
aVKevin Seraphin WAS 04/26/2015 WAS vs. TOR W 7 4 2 3 66.7 0 0 - 0 0 - 0 1 1 0 0 0 1 0 -3
p59
aVKris Humphries WAS 04/26/2015 WAS vs. TOR W 5 2 1 1 100.0 0 0 - 0 0 - 0 3 3 0 0 0 0 1 -4
p60
aVRamon Sessions WAS 04/26/2015 WAS vs. TOR W 24 15 5 7 71.4 3 4 75.0 2 2 100.0 0 2 2 3 0 0 1 2 17
p61
aVDrew Gooden WAS 04/26/2015 WAS vs. TOR W 23 13 5 8 62.5 3 4 75.0 0 0 - 1 3 4 0 0 0 1 0 17
p62
aVOtto Porter WAS 04/26/2015 WAS vs. TOR W 26 7 3 8 37.5 1 2 50.0 0 0 - 0 7 7 0 0 1 0 0 12
p63
aVJohn Wall WAS 04/26/2015 WAS vs. TOR W 25 14 3 5 60.0 1 2 50.0 7 7 100.0 0 4 4 10 1 1 2 3 20
p64
aVRasual Butler WAS 04/26/2015 WAS vs. TOR W 7 0 0 1 0.0 0 1 0.0 0 0 - 0 1 1 1 0 0 0 2 -3
p65
aVNene WAS 04/26/2015 WAS vs. TOR W 28 10 3 7 42.9 0 0 - 4 7 57.1 1 3 4 2 1 0 2 6 20
p66
aVMarcin Gortat WAS 04/26/2015 WAS vs. TOR W 29 21 8 9 88.9 0 0 - 5 7 71.4 5 6 11 5 2 1 3 2 32
p67
aVPaul Pierce WAS 04/26/2015 WAS vs. TOR W 22 14 5 7 71.4 4 6 66.7 0 0 - 0 4 4 2 1 1 1 0 20
p68
aVOtto Porter WAS 04/24/2015 WAS vs. TOR W 33 11 4 6 66.7 2 3 66.7 1 2 50.0 2 6 8 2 2 1 2 1 17
p69
aVNene WAS 04/24/2015 WAS vs. TOR W 23 6 3 7 42.9 0 0 - 0 0 - 1 1 2 1 1 0 2 5 -3
p70
aVMarcin Gortat WAS 04/24/2015 WAS vs. TOR W 42 24 11 15 73.3 0 0 - 2 5 40.0 2 11 13 5 0 4 3 3 4
p71
aVDrew Gooden WAS 04/24/2015 WAS vs. TOR W 18 12 4 9 44.4 3 6 50.0 1 3 33.3 1 6 7 0 0 3 1 3 2
p72
aVJohn Wall WAS 04/24/2015 WAS vs. TOR W 43 19 5 15 33.3 0 3 0.0 9 10 90.0 0 5 5 15 1 1 5 4 8
p73
aVPaul Pierce WAS 04/24/2015 WAS vs. TOR W 27 18 5 9 55.6 4 7 57.1 4 4 100.0 0 3 3 0 0 0 1 5 1
p74
aVBradley Beal WAS 04/24/2015 WAS vs. TOR W 42 16 4 12 33.3 3 9 33.3 5 7 71.4 1 5 6 3 0 3 1 1 1
p75
aVRamon Sessions WAS 04/24/2015 WAS vs. TOR W 11 0 0 3 0.0 0 1 0.0 0 0 - 0 1 1 1 0 1 2 0 5
p76
aVDrew Gooden WAS 04/21/2015 WAS @ TOR W 18 5 1 6 16.7 1 3 33.3 2 2 100.0 3 3 6 2 0 1 1 3 1
p77
aVMarcin Gortat WAS 04/21/2015 WAS @ TOR W 28 16 7 9 77.8 0 0 - 2 3 66.7 2 6 8 1 1 3 1 4 -1
p78
aVKevin Seraphin WAS 04/21/2015 WAS @ TOR W 10 6 2 3 66.7 0 0 - 2 4 50.0 0 2 2 0 0 0 1 4 7
p79
aVNene WAS 04/21/2015 WAS @ TOR W 25 6 3 5 60.0 0 0 - 0 0 - 1 8 9 0 1 0 1 2 4
p80
aVPaul Pierce WAS 04/21/2015 WAS @ TOR W 27 10 2 7 28.6 2 4 50.0 4 6 66.7 0 2 2 2 1 1 3 3 7
p81
aVRamon Sessions WAS 04/21/2015 WAS @ TOR W 15 5 1 4 25.0 1 2 50.0 2 2 100.0 0 3 3 1 0 0 0 1 2
p82
aVOtto Porter WAS 04/21/2015 WAS @ TOR W 35 15 6 8 75.0 2 3 66.7 1 4 25.0 4 5 9 1 1 0 0 3 17
p83
aVBradley Beal WAS 04/21/2015 WAS @ TOR W 42 28 12 21 57.1 2 5 40.0 2 2 100.0 0 5 5 2 1 0 3 3 4
p84
aVJohn Wall WAS 04/21/2015 WAS @ TOR W 40 26 8 16 50.0 2 4 50.0 8 11 72.7 0 1 1 17 1 1 5 1 14
p85
aVJohn Wall WAS 04/18/2015 WAS @ TOR W 44 10 5 18 27.8 0 2 0.0 0 0 - 0 6 6 8 0 1 1 0 6
p86
aVDrew Gooden WAS 04/18/2015 WAS @ TOR W 23 6 3 10 30.0 0 1 0.0 0 0 - 4 6 10 2 0 1 2 1 4
p87
aVNene WAS 04/18/2015 WAS @ TOR W 21 12 6 13 46.2 0 0 - 0 2 0.0 7 6 13 1 1 0 0 1 10
p88
aVBradley Beal WAS 04/18/2015 WAS @ TOR W 48 16 6 23 26.1 1 7 14.3 3 5 60.0 3 6 9 6 1 0 4 2 8
p89
aVPaul Pierce WAS 04/18/2015 WAS @ TOR W 37 20 7 10 70.0 4 7 57.1 2 2 100.0 0 4 4 0 1 1 1 4 6
p90
aVRamon Sessions WAS 04/18/2015 WAS @ TOR W 17 6 2 4 50.0 1 2 50.0 1 2 50.0 0 2 2 1 0 0 0 4 3
p91
aVRasual Butler WAS 04/18/2015 WAS @ TOR W 0 0 0 0 - 0 0 - 0 0 - 0 0 0 0 0 0 0 0 0
p92
aVOtto Porter WAS 04/18/2015 WAS @ TOR W 34 5 2 5 40.0 0 2 0.0 1 2 50.0 2 3 5 1 2 0 0 1 2
p93
aVKevin Seraphin WAS 04/18/2015 WAS @ TOR W 17 10 5 10 50.0 0 0 - 0 0 - 0 4 4 2 1 0 0 2 -6
p94
aVMarcin Gortat WAS 04/18/2015 WAS @ TOR W 26 8 3 6 50.0 0 0 - 2 2 100.0 3 5 8 1 0 0 2 3 2
p95
a.