(lp0
VPLAYER TEAM DATE MATCHUP W/L MIN PTS FGM FGA FG% 3PM 3PA 3P% FTM FTA FT% OREB DREB REB AST STL BLK TOV PF +/-
p1
aVPau Gasol CHI 05/14/2015 CHI vs. CLE L 24 8 3 8 37.5 0 0 - 2 2 100.0 1 4 5 1 0 0 2 1 -5
p2
aVDerrick Rose CHI 05/14/2015 CHI vs. CLE L 36 14 7 16 43.8 0 3 0.0 0 0 - 1 1 2 6 0 0 2 1 -20
p3
aVJimmy Butler CHI 05/14/2015 CHI vs. CLE L 44 20 8 22 36.4 2 6 33.3 2 2 100.0 3 2 5 1 1 0 2 4 -25
p4
aVDoug McDermott CHI 05/14/2015 CHI vs. CLE L 2 0 0 0 - 0 0 - 0 0 - 0 1 1 1 0 0 0 0 2
p5
aVKirk Hinrich CHI 05/14/2015 CHI vs. CLE L 20 0 0 1 0.0 0 1 0.0 0 0 - 0 0 0 0 0 1 0 1 -29
p6
aVE'Twaun Moore CHI 05/14/2015 CHI vs. CLE L 2 2 1 2 50.0 0 0 - 0 0 - 0 0 0 0 2 0 0 0 2
p7
aVMike Dunleavy CHI 05/14/2015 CHI vs. CLE L 31 7 3 9 33.3 1 5 20.0 0 0 - 0 1 1 4 0 3 0 2 -6
p8
aVNazr Mohammed CHI 05/14/2015 CHI vs. CLE L 2 0 0 2 0.0 0 1 0.0 0 0 - 0 1 1 0 0 0 0 0 2
p9
aVTaj Gibson CHI 05/14/2015 CHI vs. CLE L 15 2 1 3 33.3 0 0 - 0 0 - 0 2 2 1 1 1 0 4 -11
p10
aVJoakim Noah CHI 05/14/2015 CHI vs. CLE L 35 4 1 2 50.0 0 0 - 2 2 100.0 3 8 11 2 0 1 1 2 -17
p11
aVNikola Mirotic CHI 05/14/2015 CHI vs. CLE L 13 7 3 8 37.5 0 3 0.0 1 2 50.0 1 0 1 0 1 0 0 2 0
p12
aVTony Snell CHI 05/14/2015 CHI vs. CLE L 5 5 1 3 33.3 1 1 100.0 2 2 100.0 0 1 1 0 0 0 0 1 5
p13
aVAaron Brooks CHI 05/14/2015 CHI vs. CLE L 10 4 2 4 50.0 0 0 - 0 0 - 0 2 2 1 0 0 0 0 -3
p14
aVTony Snell CHI 05/12/2015 CHI @ CLE L 5 0 0 1 0.0 0 1 0.0 0 0 - 0 0 0 0 0 0 0 0 -9
p15
aVDerrick Rose CHI 05/12/2015 CHI @ CLE L 43 16 7 24 29.2 0 4 0.0 2 3 66.7 2 7 9 7 3 1 1 1 5
p16
aVAaron Brooks CHI 05/12/2015 CHI @ CLE L 7 4 2 6 33.3 0 3 0.0 0 0 - 0 2 2 0 0 0 1 0 -12
p17
aVNikola Mirotic CHI 05/12/2015 CHI @ CLE L 18 10 2 7 28.6 1 3 33.3 5 6 83.3 2 0 2 1 0 1 0 3 -23
p18
aVKirk Hinrich CHI 05/12/2015 CHI @ CLE L 22 3 1 4 25.0 1 2 50.0 0 0 - 0 0 0 3 1 0 0 5 -7
p19
aVTaj Gibson CHI 05/12/2015 CHI @ CLE L 26 10 4 12 33.3 0 0 - 2 2 100.0 2 3 5 0 0 1 1 5 -1
p20
aVJimmy Butler CHI 05/12/2015 CHI @ CLE L 41 29 9 18 50.0 3 8 37.5 8 8 100.0 3 6 9 3 0 1 1 4 9
p21
aVJoakim Noah CHI 05/12/2015 CHI @ CLE L 41 10 4 6 66.7 0 0 - 2 2 100.0 3 6 9 2 1 1 4 4 4
p22
aVMike Dunleavy CHI 05/12/2015 CHI @ CLE L 37 19 5 8 62.5 2 4 50.0 7 7 100.0 0 4 4 4 0 0 0 1 9
p23
aVJimmy Butler CHI 05/10/2015 CHI vs. CLE L 45 19 8 21 38.1 3 5 60.0 0 0 - 1 4 5 2 3 1 1 4 -6
p24
aVDerrick Rose CHI 05/10/2015 CHI vs. CLE L 41 31 11 23 47.8 2 5 40.0 7 7 100.0 0 2 2 4 0 0 2 0 -1
p25
aVMike Dunleavy CHI 05/10/2015 CHI vs. CLE L 33 4 1 7 14.3 1 4 25.0 1 1 100.0 1 1 2 1 2 0 2 5 -7
p26
aVKirk Hinrich CHI 05/10/2015 CHI vs. CLE L 7 4 1 1 100.0 1 1 100.0 1 2 50.0 0 0 0 1 0 0 0 1 2
p27
aVAaron Brooks CHI 05/10/2015 CHI vs. CLE L 7 2 1 2 50.0 0 0 - 0 0 - 0 1 1 1 0 0 0 0 -1
p28
aVTony Snell CHI 05/10/2015 CHI vs. CLE L 17 7 3 7 42.9 1 3 33.3 0 0 - 0 4 4 1 0 0 0 0 -7
p29
aVTaj Gibson CHI 05/10/2015 CHI vs. CLE L 34 6 2 7 28.6 0 0 - 2 2 100.0 3 5 8 2 0 1 1 3 -1
p30
aVNikola Mirotic CHI 05/10/2015 CHI vs. CLE L 18 3 1 9 11.1 1 3 33.3 0 0 - 0 3 3 0 0 3 2 4 8
p31
aVJoakim Noah CHI 05/10/2015 CHI vs. CLE L 37 8 4 12 33.3 0 0 - 0 0 - 6 9 15 0 2 1 0 2 3
p32
aVMike Dunleavy CHI 05/08/2015 CHI vs. CLE W 39 16 6 12 50.0 3 7 42.9 1 1 100.0 2 4 6 2 1 1 0 1 3
p33
aVDerrick Rose CHI 05/08/2015 CHI vs. CLE W 39 30 10 26 38.5 1 3 33.3 9 10 90.0 1 6 7 7 1 1 3 2 9
p34
aVTony Snell CHI 05/08/2015 CHI vs. CLE W 0 0 0 1 0.0 0 0 - 0 0 - 0 0 0 0 0 0 0 0 0
p35
aVJoakim Noah CHI 05/08/2015 CHI vs. CLE W 22 4 1 8 12.5 0 0 - 2 2 100.0 6 5 11 0 0 3 2 3 -2
p36
aVTaj Gibson CHI 05/08/2015 CHI vs. CLE W 23 9 3 4 75.0 0 0 - 3 4 75.0 4 5 9 0 0 1 0 1 -1
p37
aVKirk Hinrich CHI 05/08/2015 CHI vs. CLE W 20 0 0 0 - 0 0 - 0 0 - 0 1 1 2 0 0 0 0 -2
p38
aVJimmy Butler CHI 05/08/2015 CHI vs. CLE W 44 20 7 17 41.2 1 3 33.3 5 6 83.3 1 7 8 2 5 1 0 5 -2
p39
aVPau Gasol CHI 05/08/2015 CHI vs. CLE W 22 6 3 7 42.9 0 0 - 0 0 - 2 2 4 4 0 3 0 0 -3
p40
aVNikola Mirotic CHI 05/08/2015 CHI vs. CLE W 22 12 3 8 37.5 1 4 25.0 5 6 83.3 2 6 8 0 2 0 1 5 19
p41
aVAaron Brooks CHI 05/08/2015 CHI vs. CLE W 9 2 1 7 14.3 0 4 0.0 0 0 - 0 0 0 0 0 0 1 1 -6
p42
aVAaron Brooks CHI 05/06/2015 CHI @ CLE L 20 4 1 8 12.5 0 4 0.0 2 2 100.0 0 3 3 3 1 0 1 1 -4
p43
aVE'Twaun Moore CHI 05/06/2015 CHI @ CLE L 2 0 0 2 0.0 0 0 - 0 0 - 0 0 0 0 0 0 0 0 1
p44
aVJimmy Butler CHI 05/06/2015 CHI @ CLE L 35 18 5 14 35.7 2 7 28.6 6 7 85.7 1 1 2 1 2 1 2 1 -26
p45
aVTony Snell CHI 05/06/2015 CHI @ CLE L 14 3 1 3 33.3 1 2 50.0 0 0 - 0 1 1 1 0 1 0 1 5
p46
aVDerrick Rose CHI 05/06/2015 CHI @ CLE L 37 14 6 20 30.0 2 5 40.0 0 0 - 3 4 7 10 0 1 2 4 -13
p47
aVJoakim Noah CHI 05/06/2015 CHI @ CLE L 30 4 2 4 50.0 0 0 - 0 2 0.0 4 3 7 4 0 0 0 4 -11
p48
aVKirk Hinrich CHI 05/06/2015 CHI @ CLE L 12 8 3 3 100.0 2 2 100.0 0 0 - 0 3 3 1 0 0 0 2 1
p49
aVTaj Gibson CHI 05/06/2015 CHI @ CLE L 21 11 5 5 100.0 0 0 - 1 2 50.0 0 2 2 0 0 1 0 1 -14
p50
aVNikola Mirotic CHI 05/06/2015 CHI @ CLE L 7 8 2 4 50.0 0 1 0.0 4 4 100.0 0 1 1 0 0 0 1 0 7
p51
aVDoug McDermott CHI 05/06/2015 CHI @ CLE L 1 0 0 0 - 0 0 - 0 0 - 0 0 0 0 0 0 0 0 -1
p52
aVNazr Mohammed CHI 05/06/2015 CHI @ CLE L 5 2 1 2 50.0 0 0 - 0 0 - 2 1 3 0 0 0 0 0 7
p53
aVMike Dunleavy CHI 05/06/2015 CHI @ CLE L 29 8 3 6 50.0 0 1 0.0 2 2 100.0 0 4 4 0 2 0 3 3 -8
p54
aVPau Gasol CHI 05/06/2015 CHI @ CLE L 29 11 3 8 37.5 0 0 - 5 6 83.3 1 3 4 0 2 0 3 3 -19
p55
aVPau Gasol CHI 05/04/2015 CHI @ CLE W 35 21 10 16 62.5 0 0 - 1 1 100.0 2 8 10 4 0 4 0 1 17
p56
aVDerrick Rose CHI 05/04/2015 CHI @ CLE W 39 25 11 26 42.3 3 6 50.0 0 0 - 1 4 5 5 1 0 2 3 10
p57
aVJoakim Noah CHI 05/04/2015 CHI @ CLE W 29 0 0 4 0.0 0 0 - 0 2 0.0 3 6 9 4 0 2 4 3 13
p58
aVAaron Brooks CHI 05/04/2015 CHI @ CLE W 9 5 2 4 50.0 1 1 100.0 0 0 - 1 0 1 0 1 0 0 1 -3
p59
aVJimmy Butler CHI 05/04/2015 CHI @ CLE W 44 20 7 16 43.8 2 6 33.3 4 6 66.7 1 4 5 6 3 0 1 0 10
p60
aVKirk Hinrich CHI 05/04/2015 CHI @ CLE W 15 6 2 3 66.7 1 1 100.0 1 1 100.0 0 0 0 1 1 0 1 3 -6
p61
aVTaj Gibson CHI 05/04/2015 CHI @ CLE W 28 8 3 5 60.0 0 0 - 2 4 50.0 2 3 5 1 0 0 0 1 -13
p62
aVMike Dunleavy CHI 05/04/2015 CHI @ CLE W 39 14 5 6 83.3 3 4 75.0 1 2 50.0 1 6 7 2 1 0 2 2 10
p63
aVNikola Mirotic CHI 05/04/2015 CHI @ CLE W 2 0 0 0 - 0 0 - 0 0 - 0 0 0 0 0 0 0 1 -3
p64
aVKirk Hinrich CHI 04/30/2015 CHI @ MIL W 20 5 2 5 40.0 1 2 50.0 0 0 - 0 1 1 3 0 0 0 1 2
p65
aVNazr Mohammed CHI 04/30/2015 CHI @ MIL W 7 2 1 3 33.3 0 0 - 0 0 - 1 0 1 0 0 1 0 0 14
p66
aVDerrick Rose CHI 04/30/2015 CHI @ MIL W 25 15 6 14 42.9 3 7 42.9 0 0 - 0 5 5 7 1 0 2 1 41
p67
aVPau Gasol CHI 04/30/2015 CHI @ MIL W 30 19 8 12 66.7 0 0 - 3 5 60.0 2 6 8 2 0 1 1 1 30
p68
aVMike Dunleavy CHI 04/30/2015 CHI @ MIL W 28 20 5 7 71.4 4 6 66.7 6 6 100.0 0 4 4 5 1 0 3 3 29
p69
aVJoakim Noah CHI 04/30/2015 CHI @ MIL W 25 11 5 7 71.4 0 0 - 1 2 50.0 3 7 10 2 1 0 0 3 38
p70
aVTaj Gibson CHI 04/30/2015 CHI @ MIL W 26 9 4 8 50.0 0 0 - 1 1 100.0 1 5 6 3 0 0 2 4 13
p71
aVJimmy Butler CHI 04/30/2015 CHI @ MIL W 32 16 7 14 50.0 2 5 40.0 0 0 - 1 1 2 5 4 0 3 0 46
p72
aVTony Snell CHI 04/30/2015 CHI @ MIL W 12 5 2 5 40.0 1 2 50.0 0 0 - 0 2 2 1 0 0 0 0 15
p73
aVAaron Brooks CHI 04/30/2015 CHI @ MIL W 17 8 3 7 42.9 2 3 66.7 0 0 - 0 3 3 2 0 0 0 0 7
p74
aVDoug McDermott CHI 04/30/2015 CHI @ MIL W 6 5 1 3 33.3 1 2 50.0 2 2 100.0 1 0 1 0 0 0 1 0 14
p75
aVNikola Mirotic CHI 04/30/2015 CHI @ MIL W 8 2 1 3 33.3 0 2 0.0 0 0 - 1 3 4 1 0 0 0 0 13
p76
aVE'Twaun Moore CHI 04/30/2015 CHI @ MIL W 4 3 1 2 50.0 1 1 100.0 0 0 - 0 3 3 0 0 0 0 1 8
p77
aVJimmy Butler CHI 04/27/2015 CHI vs. MIL L 46 20 5 21 23.8 2 4 50.0 8 9 88.9 5 5 10 6 4 1 2 3 3
p78
aVJoakim Noah CHI 04/27/2015 CHI vs. MIL L 32 10 5 9 55.6 0 0 - 0 2 0.0 9 4 13 6 1 3 0 1 -3
p79
aVPau Gasol CHI 04/27/2015 CHI vs. MIL L 33 25 9 15 60.0 0 0 - 7 9 77.8 2 8 10 4 1 2 3 2 -8
p80
aVNikola Mirotic CHI 04/27/2015 CHI vs. MIL L 19 3 1 6 16.7 1 4 25.0 0 0 - 0 1 1 3 0 2 0 2 -10
p81
aVTaj Gibson CHI 04/27/2015 CHI vs. MIL L 15 12 4 8 50.0 0 0 - 4 5 80.0 1 2 3 0 1 2 0 0 0
p82
aVKirk Hinrich CHI 04/27/2015 CHI vs. MIL L 2 0 0 1 0.0 0 0 - 0 0 - 0 0 0 0 0 0 0 0 -9
p83
aVMike Dunleavy CHI 04/27/2015 CHI vs. MIL L 21 0 0 3 0.0 0 2 0.0 0 0 - 0 0 0 0 0 0 1 4 5
p84
aVTony Snell CHI 04/27/2015 CHI vs. MIL L 24 0 0 3 0.0 0 3 0.0 0 0 - 0 3 3 1 0 0 0 3 -2
p85
aVDerrick Rose CHI 04/27/2015 CHI vs. MIL L 42 13 5 20 25.0 0 7 0.0 3 4 75.0 0 4 4 2 1 0 6 1 -7
p86
aVAaron Brooks CHI 04/27/2015 CHI vs. MIL L 6 5 2 4 50.0 1 2 50.0 0 0 - 0 1 1 0 0 0 0 3 1
p87
aVMike Dunleavy CHI 04/25/2015 CHI @ MIL L 34 10 4 5 80.0 2 3 66.7 0 0 - 1 4 5 3 1 1 2 3 15
p88
aVDerrick Rose CHI 04/25/2015 CHI @ MIL L 39 14 5 13 38.5 2 4 50.0 2 2 100.0 0 5 5 6 1 1 8 1 14
p89
aVTony Snell CHI 04/25/2015 CHI @ MIL L 7 0 0 2 0.0 0 0 - 0 0 - 1 1 2 0 0 0 1 2 -16
p90
aVAaron Brooks CHI 04/25/2015 CHI @ MIL L 9 0 0 2 0.0 0 0 - 0 1 0.0 0 0 0 0 1 1 1 3 -16
p91
aVTaj Gibson CHI 04/25/2015 CHI @ MIL L 25 8 3 7 42.9 0 0 - 2 4 50.0 1 3 4 2 1 1 1 0 -16
p92
aVJoakim Noah CHI 04/25/2015 CHI @ MIL L 30 4 2 5 40.0 0 0 - 0 2 0.0 0 5 5 4 0 0 1 3 -23
p93
aVPau Gasol CHI 04/25/2015 CHI @ MIL L 34 16 5 10 50.0 0 0 - 6 7 85.7 2 8 10 4 1 2 5 4 18
p94
aVNikola Mirotic CHI 04/25/2015 CHI @ MIL L 20 5 2 7 28.6 1 4 25.0 0 0 - 0 1 1 2 2 0 3 2 2
p95
aVKirk Hinrich CHI 04/25/2015 CHI @ MIL L 1 0 0 0 - 0 0 - 0 0 - 0 0 0 0 0 0 0 0 -2
p96
aVJimmy Butler CHI 04/25/2015 CHI @ MIL L 41 33 12 17 70.6 5 7 71.4 4 4 100.0 0 7 7 2 3 1 4 2 14
p97
aVAaron Brooks CHI 04/23/2015 CHI @ MIL W 10 2 1 5 20.0 0 2 0.0 0 0 - 1 1 2 0 0 0 2 3 -8
p98
aVTony Snell CHI 04/23/2015 CHI @ MIL W 27 16 5 9 55.6 4 8 50.0 2 2 100.0 0 0 0 0 0 0 2 4 3
p99
aVTaj Gibson CHI 04/23/2015 CHI @ MIL W 29 6 3 8 37.5 0 0 - 0 0 - 3 7 10 2 0 1 1 0 -8
p100
aVJimmy Butler CHI 04/23/2015 CHI @ MIL W 53 24 8 20 40.0 1 7 14.3 7 8 87.5 0 3 3 2 3 2 3 2 8
p101
aVMike Dunleavy CHI 04/23/2015 CHI @ MIL W 30 12 4 8 50.0 4 6 66.7 0 0 - 1 3 4 3 1 0 0 3 8
p102
aVDerrick Rose CHI 04/23/2015 CHI @ MIL W 48 34 12 23 52.2 5 9 55.6 5 6 83.3 2 3 5 8 3 0 3 2 15
p103
aVPau Gasol CHI 04/23/2015 CHI @ MIL W 41 17 6 10 60.0 0 0 - 5 6 83.3 2 12 14 5 1 2 2 1 18
p104
aVJoakim Noah CHI 04/23/2015 CHI @ MIL W 46 2 1 5 20.0 0 0 - 0 2 0.0 3 9 12 5 2 1 3 4 4
p105
aVKirk Hinrich CHI 04/23/2015 CHI @ MIL W 6 0 0 1 0.0 0 1 0.0 0 0 - 0 0 0 0 1 0 0 1 -5
p106
aVTony Snell CHI 04/20/2015 CHI vs. MIL W 13 3 1 3 33.3 1 3 33.3 0 0 - 0 2 2 1 0 0 1 2 9
p107
aVPau Gasol CHI 04/20/2015 CHI vs. MIL W 34 11 4 12 33.3 0 1 0.0 3 6 50.0 2 14 16 3 0 4 3 1 4
p108
aVAaron Brooks CHI 04/20/2015 CHI vs. MIL W 10 5 2 3 66.7 1 2 50.0 0 0 - 0 0 0 2 0 0 0 1 1
p109
aVJimmy Butler CHI 04/20/2015 CHI vs. MIL W 46 31 10 19 52.6 3 9 33.3 8 14 57.1 2 7 9 2 0 1 0 2 12
p110
aVMike Dunleavy CHI 04/20/2015 CHI vs. MIL W 33 12 4 12 33.3 4 9 44.4 0 0 - 1 5 6 3 0 0 0 1 4
p111
aVJoakim Noah CHI 04/20/2015 CHI vs. MIL W 32 6 3 9 33.3 0 0 - 0 0 - 4 15 19 5 0 1 3 3 0
p112
aVDerrick Rose CHI 04/20/2015 CHI vs. MIL W 38 15 4 14 28.6 2 6 33.3 5 5 100.0 3 4 7 9 1 1 3 3 8
p113
aVTaj Gibson CHI 04/20/2015 CHI vs. MIL W 11 0 0 0 - 0 0 - 0 0 - 1 0 1 0 0 3 3 4 -4
p114
aVNikola Mirotic CHI 04/20/2015 CHI vs. MIL W 22 8 3 9 33.3 1 3 33.3 1 2 50.0 1 3 4 1 1 0 0 2 11
p115
aVDerrick Rose CHI 04/18/2015 CHI vs. MIL W 27 23 9 16 56.3 3 7 42.9 2 2 100.0 0 0 0 7 2 1 4 3 13
p116
aVJoakim Noah CHI 04/18/2015 CHI vs. MIL W 35 6 3 5 60.0 0 0 - 0 2 0.0 1 10 11 4 3 1 2 5 6
p117
aVJimmy Butler CHI 04/18/2015 CHI vs. MIL W 35 25 8 14 57.1 2 5 40.0 7 8 87.5 0 2 2 6 1 0 2 0 11
p118
aVTony Snell CHI 04/18/2015 CHI vs. MIL W 15 4 2 7 28.6 0 4 0.0 0 0 - 0 2 2 1 0 2 1 0 -6
p119
aVTaj Gibson CHI 04/18/2015 CHI vs. MIL W 25 8 2 5 40.0 0 0 - 4 6 66.7 7 4 11 1 1 0 2 2 5
p120
aVNikola Mirotic CHI 04/18/2015 CHI vs. MIL W 13 5 2 5 40.0 1 3 33.3 0 0 - 0 5 5 1 0 0 1 1 2
p121
aVPau Gasol CHI 04/18/2015 CHI vs. MIL W 36 10 5 17 29.4 0 3 0.0 0 0 - 1 12 13 4 0 3 2 4 13
p122
aVMike Dunleavy CHI 04/18/2015 CHI vs. MIL W 35 9 3 5 60.0 3 5 60.0 0 0 - 0 5 5 4 1 0 2 3 10
p123
aVAaron Brooks CHI 04/18/2015 CHI vs. MIL W 19 13 4 9 44.4 3 5 60.0 2 4 50.0 1 2 3 2 0 0 3 3 6
p124
a.