(lp0
VPLAYER TEAM DATE MATCHUP W/L MIN PTS FGM FGA FG% 3PM 3PA 3P% FTM FTA FT% OREB DREB REB AST STL BLK TOV PF +/-
p1
aVPero Antic ATL 04/15/2015 ATL @ CHI L 16 3 1 5 20.0 1 4 25.0 0 0 - 1 4 5 0 0 1 1 3 -5
p2
aVPaul Millsap ATL 04/15/2015 ATL @ CHI L 27 5 2 9 22.2 0 1 0.0 1 2 50.0 1 5 6 4 4 2 1 3 -1
p3
aVDeMarre Carroll ATL 04/15/2015 ATL @ CHI L 27 10 4 14 28.6 2 6 33.3 0 0 - 0 2 2 0 1 0 1 1 -1
p4
aVAl Horford ATL 04/15/2015 ATL @ CHI L 22 14 7 10 70.0 0 0 - 0 0 - 4 3 7 4 1 2 1 1 7
p5
aVMike Muscala ATL 04/15/2015 ATL @ CHI L 19 7 3 6 50.0 1 2 50.0 0 0 - 1 0 1 0 2 1 2 3 -5
p6
aVDennis Schroder ATL 04/15/2015 ATL @ CHI L 17 21 9 13 69.2 2 3 66.7 1 1 100.0 0 2 2 0 0 0 2 1 -3
p7
aVJeff Teague ATL 04/15/2015 ATL @ CHI L 23 10 5 11 45.5 0 1 0.0 0 0 - 0 2 2 4 1 1 3 1 5
p8
aVKent Bazemore ATL 04/15/2015 ATL @ CHI L 15 3 1 4 25.0 0 2 0.0 1 1 100.0 0 2 2 0 0 1 1 1 -8
p9
aVShelvin Mack ATL 04/15/2015 ATL @ CHI L 17 2 1 6 16.7 0 2 0.0 0 0 - 0 4 4 1 1 0 0 0 -5
p10
aVAustin Daye ATL 04/15/2015 ATL @ CHI L 12 1 0 4 0.0 0 2 0.0 1 2 50.0 2 2 4 0 0 2 2 1 -8
p11
aVJohn Jenkins ATL 04/15/2015 ATL @ CHI L 12 0 0 2 0.0 0 1 0.0 0 0 - 1 1 2 0 0 0 0 1 -8
p12
aVElton Brand ATL 04/15/2015 ATL @ CHI L 12 0 0 2 0.0 0 0 - 0 0 - 0 1 1 1 0 0 0 1 -8
p13
aVKyle Korver ATL 04/15/2015 ATL @ CHI L 21 9 3 6 50.0 2 5 40.0 1 1 100.0 0 4 4 1 0 0 1 2 10
p14
aVJeff Teague ATL 04/13/2015 ATL vs. NYK L 34 19 7 17 41.2 1 2 50.0 4 4 100.0 1 4 5 9 2 0 2 1 6
p15
aVMike Scott ATL 04/13/2015 ATL vs. NYK L 22 5 2 6 33.3 1 4 25.0 0 0 - 1 5 6 2 3 0 0 1 -11
p16
aVJohn Jenkins ATL 04/13/2015 ATL vs. NYK L 10 3 1 4 25.0 0 3 0.0 1 2 50.0 0 0 0 1 0 0 0 0 -11
p17
aVElton Brand ATL 04/13/2015 ATL vs. NYK L 17 4 2 3 66.7 0 0 - 0 0 - 1 1 2 1 0 0 1 0 2
p18
aVDeMarre Carroll ATL 04/13/2015 ATL vs. NYK L 33 16 5 11 45.5 2 6 33.3 4 6 66.7 2 2 4 3 1 0 1 2 -4
p19
aVAl Horford ATL 04/13/2015 ATL vs. NYK L 33 18 9 17 52.9 0 0 - 0 0 - 3 3 6 1 2 1 2 3 -2
p20
aVKent Bazemore ATL 04/13/2015 ATL vs. NYK L 16 10 3 8 37.5 1 4 25.0 3 4 75.0 1 5 6 1 0 0 0 3 -4
p21
aVShelvin Mack ATL 04/13/2015 ATL vs. NYK L 16 12 5 10 50.0 2 4 50.0 0 0 - 0 0 0 3 1 0 1 0 -5
p22
aVMike Muscala ATL 04/13/2015 ATL vs. NYK L 25 2 1 2 50.0 0 0 - 0 0 - 2 1 3 3 1 2 0 5 3
p23
aVKyle Korver ATL 04/13/2015 ATL vs. NYK L 34 19 4 10 40.0 4 9 44.4 7 7 100.0 1 4 5 3 0 0 1 2 6
p24
aVMike Muscala ATL 04/12/2015 ATL @ WAS L 27 5 2 6 33.3 1 2 50.0 0 0 - 0 4 4 4 0 0 0 3 -3
p25
aVShelvin Mack ATL 04/12/2015 ATL @ WAS L 26 14 5 12 41.7 0 1 0.0 4 4 100.0 1 3 4 6 2 0 1 1 -2
p26
aVPero Antic ATL 04/12/2015 ATL @ WAS L 18 8 3 5 60.0 2 3 66.7 0 0 - 1 6 7 1 0 0 1 3 -9
p27
aVJohn Jenkins ATL 04/12/2015 ATL @ WAS L 35 17 6 12 50.0 2 6 33.3 3 4 75.0 0 3 3 2 3 0 0 2 -5
p28
aVMike Scott ATL 04/12/2015 ATL @ WAS L 30 19 6 15 40.0 3 7 42.9 4 5 80.0 0 3 3 1 0 0 2 3 0
p29
aVAustin Daye ATL 04/12/2015 ATL @ WAS L 26 7 3 9 33.3 1 5 20.0 0 0 - 1 1 2 4 1 0 1 1 -10
p30
aVElton Brand ATL 04/12/2015 ATL @ WAS L 21 8 3 4 75.0 0 0 - 2 4 50.0 1 2 3 1 1 1 2 3 -6
p31
aVKent Bazemore ATL 04/12/2015 ATL @ WAS L 28 7 2 8 25.0 0 2 0.0 3 4 75.0 2 4 6 2 3 1 1 3 -3
p32
aVDennis Schroder ATL 04/12/2015 ATL @ WAS L 29 14 6 16 37.5 0 3 0.0 2 3 66.7 1 5 6 3 0 0 3 3 -7
p33
aVJeff Teague ATL 04/10/2015 ATL vs. CHA W 23 6 3 8 37.5 0 2 0.0 0 0 - 0 3 3 8 1 0 2 1 6
p34
aVDeMarre Carroll ATL 04/10/2015 ATL vs. CHA W 28 7 3 8 37.5 0 1 0.0 1 2 50.0 1 5 6 2 3 0 0 2 13
p35
aVDennis Schroder ATL 04/10/2015 ATL vs. CHA W 19 14 6 10 60.0 2 2 100.0 0 0 - 0 2 2 5 0 0 3 1 8
p36
aVJohn Jenkins ATL 04/10/2015 ATL vs. CHA W 5 6 2 4 50.0 2 4 50.0 0 0 - 1 1 2 0 0 0 0 0 5
p37
aVMike Scott ATL 04/10/2015 ATL vs. CHA W 24 8 4 8 50.0 0 2 0.0 0 0 - 1 4 5 3 2 0 0 3 5
p38
aVShelvin Mack ATL 04/10/2015 ATL vs. CHA W 18 5 2 5 40.0 1 3 33.3 0 0 - 0 3 3 4 1 0 1 2 12
p39
aVKyle Korver ATL 04/10/2015 ATL vs. CHA W 30 16 4 10 40.0 3 7 42.9 5 6 83.3 0 5 5 3 1 0 1 1 17
p40
aVElton Brand ATL 04/10/2015 ATL vs. CHA W 5 0 0 0 - 0 0 - 0 0 - 0 0 0 1 0 0 0 0 5
p41
aVAl Horford ATL 04/10/2015 ATL vs. CHA W 29 15 6 11 54.5 0 0 - 3 4 75.0 2 6 8 1 1 4 1 1 21
p42
aVAustin Daye ATL 04/10/2015 ATL vs. CHA W 5 3 1 1 100.0 1 1 100.0 0 0 - 0 1 1 0 1 0 1 1 5
p43
aVMike Muscala ATL 04/10/2015 ATL vs. CHA W 25 17 8 9 88.9 1 1 100.0 0 0 - 4 2 6 0 0 0 3 4 15
p44
aVPero Antic ATL 04/10/2015 ATL vs. CHA W 13 5 1 3 33.3 0 2 0.0 3 4 75.0 0 2 2 1 0 0 1 1 2
p45
aVKent Bazemore ATL 04/10/2015 ATL vs. CHA W 16 2 1 5 20.0 0 3 0.0 0 0 - 0 1 1 3 0 0 0 1 6
p46
aVShelvin Mack ATL 04/08/2015 ATL @ BKN W 8 3 1 1 100.0 1 1 100.0 0 0 - 0 0 0 0 0 0 0 1 -15
p47
aVElton Brand ATL 04/08/2015 ATL @ BKN W 8 2 1 2 50.0 0 0 - 0 0 - 0 1 1 1 0 0 0 0 -4
p48
aVDennis Schroder ATL 04/08/2015 ATL @ BKN W 16 9 4 9 44.4 1 4 25.0 0 0 - 0 1 1 3 0 0 1 3 -9
p49
aVMike Scott ATL 04/08/2015 ATL @ BKN W 31 20 7 14 50.0 2 6 33.3 4 6 66.7 3 5 8 2 0 0 0 2 -8
p50
aVKent Bazemore ATL 04/08/2015 ATL @ BKN W 17 4 1 4 25.0 0 1 0.0 2 3 66.7 1 2 3 0 0 0 0 1 0
p51
aVDeMarre Carroll ATL 04/08/2015 ATL @ BKN W 37 19 7 13 53.8 3 7 42.9 2 2 100.0 1 8 9 5 1 0 2 3 4
p52
aVJeff Teague ATL 04/08/2015 ATL @ BKN W 33 15 4 11 36.4 0 2 0.0 7 11 63.6 2 4 6 12 4 1 4 0 6
p53
aVKyle Korver ATL 04/08/2015 ATL @ BKN W 33 9 3 6 50.0 3 4 75.0 0 0 - 0 4 4 6 2 1 0 5 25
p54
aVMike Muscala ATL 04/08/2015 ATL @ BKN W 24 9 4 6 66.7 0 2 0.0 1 2 50.0 1 0 1 2 2 1 2 2 4
p55
aVAl Horford ATL 04/08/2015 ATL @ BKN W 33 24 11 20 55.0 1 1 100.0 1 1 100.0 2 5 7 4 2 1 2 1 12
p56
aVJeff Teague ATL 04/07/2015 ATL vs. PHX W 25 16 6 13 46.2 1 4 25.0 3 4 75.0 1 3 4 2 1 0 1 1 13
p57
aVMike Scott ATL 04/07/2015 ATL vs. PHX W 26 7 3 10 30.0 1 5 20.0 0 0 - 0 6 6 1 1 0 2 2 10
p58
aVKyle Korver ATL 04/07/2015 ATL vs. PHX W 27 5 2 9 22.2 1 6 16.7 0 0 - 0 3 3 3 0 2 0 2 20
p59
aVShelvin Mack ATL 04/07/2015 ATL vs. PHX W 14 4 2 5 40.0 0 1 0.0 0 0 - 0 1 1 4 0 0 0 0 13
p60
aVAl Horford ATL 04/07/2015 ATL vs. PHX W 26 14 7 10 70.0 0 0 - 0 2 0.0 0 5 5 3 1 0 2 1 16
p61
aVThabo Sefolosha ATL 04/07/2015 ATL vs. PHX W 20 2 1 4 25.0 0 0 - 0 0 - 1 4 5 1 0 0 0 1 24
p62
aVElton Brand ATL 04/07/2015 ATL vs. PHX W 6 2 1 2 50.0 0 1 0.0 0 0 - 0 1 1 0 0 0 0 1 0
p63
aVMike Muscala ATL 04/07/2015 ATL vs. PHX W 26 16 7 8 87.5 0 0 - 2 2 100.0 1 6 7 0 4 1 0 4 28
p64
aVKent Bazemore ATL 04/07/2015 ATL vs. PHX W 19 1 0 3 0.0 0 3 0.0 1 2 50.0 1 8 9 0 1 0 3 1 -3
p65
aVDennis Schroder ATL 04/07/2015 ATL vs. PHX W 15 6 2 6 33.3 0 2 0.0 2 2 100.0 1 1 2 4 0 0 3 1 0
p66
aVDeMarre Carroll ATL 04/07/2015 ATL vs. PHX W 24 16 8 9 88.9 0 1 0.0 0 0 - 1 5 6 2 1 1 2 0 14
p67
aVPero Antic ATL 04/07/2015 ATL vs. PHX W 12 7 2 4 50.0 1 2 50.0 2 2 100.0 2 3 5 1 0 0 2 3 0
p68
aVPaul Millsap ATL 04/04/2015 ATL vs. BKN W 17 8 1 5 20.0 0 1 0.0 6 6 100.0 1 2 3 5 1 1 0 1 10
p69
aVShelvin Mack ATL 04/04/2015 ATL vs. BKN W 21 10 4 7 57.1 0 2 0.0 2 2 100.0 1 4 5 3 1 0 1 2 32
p70
aVKent Bazemore ATL 04/04/2015 ATL vs. BKN W 20 11 4 4 100.0 3 3 100.0 0 0 - 0 1 1 5 0 1 1 3 6
p71
aVDeMarre Carroll ATL 04/04/2015 ATL vs. BKN W 27 20 7 9 77.8 4 5 80.0 2 4 50.0 2 6 8 5 1 0 1 0 22
p72
aVPero Antic ATL 04/04/2015 ATL vs. BKN W 15 9 3 5 60.0 2 3 66.7 1 1 100.0 1 0 1 0 0 0 0 1 23
p73
aVKyle Korver ATL 04/04/2015 ATL vs. BKN W 22 10 3 6 50.0 3 5 60.0 1 1 100.0 0 2 2 3 1 0 0 0 29
p74
aVThabo Sefolosha ATL 04/04/2015 ATL vs. BKN W 23 12 4 9 44.4 2 4 50.0 2 2 100.0 1 3 4 3 2 0 2 1 6
p75
aVJohn Jenkins ATL 04/04/2015 ATL vs. BKN W 11 5 2 6 33.3 1 5 20.0 0 0 - 0 2 2 0 2 0 1 0 -9
p76
aVMike Scott ATL 04/04/2015 ATL vs. BKN W 10 2 1 3 33.3 0 1 0.0 0 0 - 0 2 2 2 1 0 1 1 6
p77
aVMike Muscala ATL 04/04/2015 ATL vs. BKN W 19 7 2 2 100.0 1 1 100.0 2 2 100.0 0 0 0 2 0 0 0 2 7
p78
aVAl Horford ATL 04/04/2015 ATL vs. BKN W 21 20 10 13 76.9 0 1 0.0 0 1 0.0 0 2 2 3 3 1 0 1 20
p79
aVElton Brand ATL 04/04/2015 ATL vs. BKN W 11 0 0 1 0.0 0 0 - 0 0 - 0 1 1 1 1 1 2 1 -7
p80
aVJeff Teague ATL 04/04/2015 ATL vs. BKN W 24 17 8 12 66.7 1 2 50.0 0 0 - 1 2 3 8 2 0 3 3 15
p81
aVPaul Millsap ATL 03/31/2015 ATL @ DET L 24 4 1 7 14.3 0 2 0.0 2 3 66.7 0 4 4 4 2 0 0 2 -11
p82
aVThabo Sefolosha ATL 03/31/2015 ATL @ DET L 24 19 7 14 50.0 2 3 66.7 3 3 100.0 1 4 5 2 1 0 1 1 1
p83
aVJeff Teague ATL 03/31/2015 ATL @ DET L 24 9 4 7 57.1 1 2 50.0 0 0 - 1 0 1 4 1 0 2 1 -11
p84
aVKent Bazemore ATL 03/31/2015 ATL @ DET L 24 5 2 6 33.3 1 4 25.0 0 0 - 0 3 3 3 0 0 1 2 1
p85
aVShelvin Mack ATL 03/31/2015 ATL @ DET L 24 12 6 9 66.7 0 2 0.0 0 0 - 0 3 3 5 1 0 2 0 1
p86
aVAl Horford ATL 03/31/2015 ATL @ DET L 24 16 8 10 80.0 0 0 - 0 0 - 2 3 5 2 0 0 2 2 -11
p87
aVPero Antic ATL 03/31/2015 ATL @ DET L 17 0 0 7 0.0 0 5 0.0 0 0 - 0 1 1 0 1 0 0 1 -3
p88
aVKyle Korver ATL 03/31/2015 ATL @ DET L 24 11 4 7 57.1 3 4 75.0 0 1 0.0 0 3 3 2 0 0 3 0 -11
p89
aVDeMarre Carroll ATL 03/31/2015 ATL @ DET L 24 10 5 7 71.4 0 1 0.0 0 1 0.0 2 2 4 0 0 0 2 1 -11
p90
aVAustin Daye ATL 03/31/2015 ATL @ DET L 7 3 1 1 100.0 1 1 100.0 0 0 - 0 1 1 2 2 0 1 1 4
p91
aVMike Muscala ATL 03/31/2015 ATL @ DET L 24 6 2 9 22.2 0 1 0.0 2 2 100.0 6 7 13 1 0 0 3 3 1
p92
aVMike Muscala ATL 03/30/2015 ATL vs. MIL W 12 3 1 4 25.0 1 2 50.0 0 0 - 1 2 3 0 0 0 0 2 -2
p93
aVKent Bazemore ATL 03/30/2015 ATL vs. MIL W 15 0 0 1 0.0 0 1 0.0 0 0 - 0 2 2 0 0 0 2 0 7
p94
aVDennis Schroder ATL 03/30/2015 ATL vs. MIL W 6 4 0 2 0.0 0 1 0.0 4 4 100.0 0 1 1 1 0 0 0 0 12
p95
aVThabo Sefolosha ATL 03/30/2015 ATL vs. MIL W 13 11 4 6 66.7 1 1 100.0 2 2 100.0 2 2 4 0 1 0 0 2 -3
p96
aVJeff Teague ATL 03/30/2015 ATL vs. MIL W 29 8 2 8 25.0 2 2 100.0 2 2 100.0 1 3 4 9 0 0 5 4 8
p97
aVShelvin Mack ATL 03/30/2015 ATL vs. MIL W 13 0 0 3 0.0 0 2 0.0 0 0 - 0 1 1 4 1 0 0 0 -7
p98
aVAl Horford ATL 03/30/2015 ATL vs. MIL W 34 18 8 18 44.4 0 2 0.0 2 2 100.0 2 5 7 2 0 2 0 2 16
p99
aVDeMarre Carroll ATL 03/30/2015 ATL vs. MIL W 34 23 9 13 69.2 2 6 33.3 3 5 60.0 3 5 8 5 0 2 1 1 17
p100
aVPaul Millsap ATL 03/30/2015 ATL vs. MIL W 35 15 6 10 60.0 0 2 0.0 3 4 75.0 2 7 9 2 2 0 1 4 5
p101
aVKyle Korver ATL 03/30/2015 ATL vs. MIL W 34 11 4 10 40.0 3 9 33.3 0 0 - 0 1 1 5 0 0 1 4 5
p102
aVPero Antic ATL 03/30/2015 ATL vs. MIL W 15 8 2 4 50.0 0 1 0.0 4 5 80.0 1 1 2 1 1 0 1 1 7
p103
aVJohn Jenkins ATL 03/28/2015 ATL @ CHA L 34 16 6 12 50.0 3 6 50.0 1 2 50.0 0 1 1 3 2 0 0 2 -19
p104
aVDennis Schroder ATL 03/28/2015 ATL @ CHA L 25 17 5 12 41.7 3 3 100.0 4 4 100.0 2 2 4 11 0 0 2 2 -13
p105
aVMike Muscala ATL 03/28/2015 ATL @ CHA L 34 18 7 13 53.8 2 2 100.0 2 2 100.0 3 7 10 4 1 2 2 0 10
p106
aVKent Bazemore ATL 03/28/2015 ATL @ CHA L 33 20 7 14 50.0 3 7 42.9 3 4 75.0 0 5 5 2 1 0 2 3 -7
p107
aVShelvin Mack ATL 03/28/2015 ATL @ CHA L 26 5 2 10 20.0 1 4 25.0 0 0 - 0 1 1 8 0 0 1 0 -12
p108
aVThabo Sefolosha ATL 03/28/2015 ATL @ CHA L 23 3 1 7 14.3 1 3 33.3 0 0 - 1 4 5 2 0 0 2 2 1
p109
aVElton Brand ATL 03/28/2015 ATL @ CHA L 28 9 4 8 50.0 0 0 - 1 2 50.0 1 5 6 1 0 2 1 2 -25
p110
aVPero Antic ATL 03/28/2015 ATL @ CHA L 21 3 1 3 33.3 1 2 50.0 0 0 - 0 2 2 0 2 0 0 2 -8
p111
aVAustin Daye ATL 03/28/2015 ATL @ CHA L 16 9 4 7 57.1 1 3 33.3 0 0 - 0 2 2 1 0 0 0 4 -2
p112
aVPaul Millsap ATL 03/27/2015 ATL vs. MIA W 33 21 8 12 66.7 0 2 0.0 5 5 100.0 0 9 9 4 1 2 2 3 16
p113
aVDennis Schroder ATL 03/27/2015 ATL vs. MIA W 33 12 3 10 30.0 0 2 0.0 6 6 100.0 0 3 3 11 1 0 2 3 11
p114
aVShelvin Mack ATL 03/27/2015 ATL vs. MIA W 25 4 2 9 22.2 0 2 0.0 0 0 - 0 2 2 5 3 0 2 1 5
p115
aVAustin Daye ATL 03/27/2015 ATL vs. MIA W 1 0 0 0 - 0 0 - 0 0 - 0 1 1 0 0 0 0 0 0
p116
aVThabo Sefolosha ATL 03/27/2015 ATL vs. MIA W 13 2 1 5 20.0 0 1 0.0 0 0 - 1 5 6 1 1 0 0 0 -4
p117
aVAl Horford ATL 03/27/2015 ATL vs. MIA W 31 15 7 9 77.8 0 0 - 1 2 50.0 0 3 3 4 0 1 3 0 8
p118
aVKent Bazemore ATL 03/27/2015 ATL vs. MIA W 18 5 2 2 100.0 0 0 - 1 2 50.0 0 3 3 1 1 0 1 1 6
p119
aVMike Muscala ATL 03/27/2015 ATL vs. MIA W 22 8 3 7 42.9 1 1 100.0 1 2 50.0 2 3 5 0 1 0 0 1 3
p120
aVDeMarre Carroll ATL 03/27/2015 ATL vs. MIA W 33 24 8 12 66.7 3 5 60.0 5 7 71.4 2 2 4 2 2 0 4 3 14
p121
aVKyle Korver ATL 03/27/2015 ATL vs. MIA W 33 8 3 6 50.0 2 5 40.0 0 0 - 0 2 2 3 2 1 2 1 6
p122
aVPero Antic ATL 03/25/2015 ATL @ ORL W 22 5 2 4 50.0 1 3 33.3 0 0 - 0 4 4 0 0 0 0 4 14
p123
aVThabo Sefolosha ATL 03/25/2015 ATL @ ORL W 7 0 0 1 0.0 0 1 0.0 0 0 - 0 0 0 0 1 0 1 1 -8
p124
aVDennis Schroder ATL 03/25/2015 ATL @ ORL W 20 11 4 13 30.8 2 6 33.3 1 2 50.0 2 1 3 3 0 0 3 2 -4
p125
aVElton Brand ATL 03/25/2015 ATL @ ORL W 7 0 0 1 0.0 0 0 - 0 0 - 0 0 0 0 0 0 0 1 -2
p126
aVMike Muscala ATL 03/25/2015 ATL @ ORL W 1 0 0 0 - 0 0 - 0 0 - 0 0 0 0 0 0 0 0 -2
p127
aVJeff Teague ATL 03/25/2015 ATL @ ORL W 33 16 7 12 58.3 2 3 66.7 0 0 - 1 2 3 9 1 0 2 2 20
p128
aVKyle Korver ATL 03/25/2015 ATL @ ORL W 37 13 5 12 41.7 3 9 33.3 0 0 - 0 8 8 2 2 2 0 2 9
p129
aVDeMarre Carroll ATL 03/25/2015 ATL @ ORL W 35 11 5 12 41.7 0 4 0.0 1 3 33.3 1 6 7 2 4 0 4 1 19
p130
aVPaul Millsap ATL 03/25/2015 ATL @ ORL W 36 25 9 20 45.0 2 5 40.0 5 5 100.0 5 6 11 3 1 4 1 1 19
p131
aVAl Horford ATL 03/25/2015 ATL @ ORL W 31 10 5 12 41.7 0 0 - 0 0 - 2 4 6 2 0 1 2 2 -7
p132
aVKent Bazemore ATL 03/25/2015 ATL @ ORL W 11 4 2 3 66.7 0 0 - 0 0 - 1 2 3 0 0 1 0 1 2
p133
aVDeMarre Carroll ATL 03/22/2015 ATL vs. SAS L 32 12 4 12 33.3 2 6 33.3 2 2 100.0 0 3 3 1 2 0 1 2 -21
p134
aVPaul Millsap ATL 03/22/2015 ATL vs. SAS L 33 22 8 17 47.1 4 6 66.7 2 2 100.0 3 4 7 3 2 0 3 3 -19
p135
aVKent Bazemore ATL 03/22/2015 ATL vs. SAS L 17 0 0 1 0.0 0 0 - 0 0 - 0 0 0 0 0 0 0 1 0
p136
aVJeff Teague ATL 03/22/2015 ATL vs. SAS L 28 8 4 8 50.0 0 0 - 0 0 - 0 1 1 6 3 0 5 0 -24
p137
aVPero Antic ATL 03/22/2015 ATL vs. SAS L 18 11 4 6 66.7 1 3 33.3 2 2 100.0 0 3 3 0 2 0 0 2 3
p138
aVShelvin Mack ATL 03/22/2015 ATL vs. SAS L 7 0 0 0 - 0 0 - 0 0 - 0 1 1 2 0 0 1 1 3
p139
aVAustin Daye ATL 03/22/2015 ATL vs. SAS L 3 0 0 2 0.0 0 1 0.0 0 0 - 0 1 1 0 0 0 0 0 2
p140
aVAl Horford ATL 03/22/2015 ATL vs. SAS L 28 8 4 11 36.4 0 0 - 0 0 - 1 2 3 5 1 0 0 2 -23
p141
aVMike Muscala ATL 03/22/2015 ATL vs. SAS L 3 4 2 2 100.0 0 0 - 0 0 - 1 2 3 0 0 0 0 0 2
p142
aVDennis Schroder ATL 03/22/2015 ATL vs. SAS L 24 18 8 13 61.5 2 4 50.0 0 0 - 1 2 3 5 1 1 2 1 2
p143
aVJohn Jenkins ATL 03/22/2015 ATL vs. SAS L 3 4 1 1 100.0 1 1 100.0 1 1 100.0 0 0 0 1 0 0 0 0 2
p144
aVKyle Korver ATL 03/22/2015 ATL vs. SAS L 29 6 2 4 50.0 2 3 66.7 0 0 - 0 3 3 2 1 1 5 2 -21
p145
aVElton Brand ATL 03/22/2015 ATL vs. SAS L 13 2 1 3 33.3 0 0 - 0 0 - 0 1 1 0 1 0 1 1 -1
p146
aVKent Bazemore ATL 03/20/2015 ATL @ OKC L 28 10 4 9 44.4 2 3 66.7 0 0 - 0 4 4 0 1 1 1 3 -17
p147
aVPero Antic ATL 03/20/2015 ATL @ OKC L 20 22 6 9 66.7 4 6 66.7 6 7 85.7 1 2 3 1 0 0 1 2 8
p148
aVAl Horford ATL 03/20/2015 ATL @ OKC L 33 10 5 7 71.4 0 0 - 0 0 - 3 8 11 4 0 1 2 3 -22
p149
aVShelvin Mack ATL 03/20/2015 ATL @ OKC L 21 5 2 6 33.3 1 4 25.0 0 0 - 0 1 1 4 0 0 1 0 3
p150
aVPaul Millsap ATL 03/20/2015 ATL @ OKC L 37 19 8 16 50.0 1 3 33.3 2 4 50.0 0 3 3 3 4 2 2 4 -3
p151
aVJeff Teague ATL 03/20/2015 ATL @ OKC L 32 11 3 11 27.3 1 3 33.3 4 4 100.0 2 2 4 3 3 0 1 1 -15
p152
aVDeMarre Carroll ATL 03/20/2015 ATL @ OKC L 33 15 5 9 55.6 1 5 20.0 4 6 66.7 1 4 5 1 1 0 1 2 -9
p153
aVMike Muscala ATL 03/20/2015 ATL @ OKC L 5 2 1 1 100.0 0 0 - 0 0 - 0 0 0 0 0 0 0 0 6
p154
aVDennis Schroder ATL 03/20/2015 ATL @ OKC L 32 21 7 14 50.0 3 5 60.0 4 4 100.0 0 3 3 4 0 0 2 1 9
p155
aVDennis Schroder ATL 03/18/2015 ATL @ GSW L 22 8 1 12 8.3 1 5 20.0 5 6 83.3 1 0 1 2 0 0 1 3 -21
p156
aVKent Bazemore ATL 03/18/2015 ATL @ GSW L 31 5 1 6 16.7 0 2 0.0 3 4 75.0 0 5 5 2 2 0 3 2 -21
p157
aVDeMarre Carroll ATL 03/18/2015 ATL @ GSW L 33 16 5 12 41.7 3 4 75.0 3 4 75.0 6 6 12 3 0 2 0 3 -9
p158
aVJeff Teague ATL 03/18/2015 ATL @ GSW L 23 12 4 8 50.0 0 1 0.0 4 6 66.7 0 0 0 2 3 0 6 3 -18
p159
aVPaul Millsap ATL 03/18/2015 ATL @ GSW L 27 16 6 14 42.9 2 4 50.0 2 2 100.0 5 4 9 3 2 0 3 3 -5
p160
aVAustin Daye ATL 03/18/2015 ATL @ GSW L 6 3 1 2 50.0 1 1 100.0 0 0 - 1 1 2 1 0 0 0 1 8
p161
aVElton Brand ATL 03/18/2015 ATL @ GSW L 6 0 0 0 - 0 0 - 0 0 - 0 0 0 0 0 0 0 0 -10
p162
aVShelvin Mack ATL 03/18/2015 ATL @ GSW L 19 10 4 8 50.0 0 3 0.0 2 2 100.0 0 0 0 5 3 0 1 1 1
p163
aVJohn Jenkins ATL 03/18/2015 ATL @ GSW L 16 9 3 3 100.0 1 1 100.0 2 2 100.0 0 2 2 1 1 0 0 0 -3
p164
aVAl Horford ATL 03/18/2015 ATL @ GSW L 32 8 4 18 22.2 0 1 0.0 0 0 - 2 4 6 3 2 1 1 0 -20
p165
aVMike Muscala ATL 03/18/2015 ATL @ GSW L 6 5 2 3 66.7 0 0 - 1 1 100.0 0 2 2 1 0 0 0 0 8
p166
aVPero Antic ATL 03/18/2015 ATL @ GSW L 20 3 0 1 0.0 0 0 - 3 3 100.0 0 5 5 1 1 1 0 4 -5
p167
aVMike Muscala ATL 03/16/2015 ATL @ SAC W 18 6 3 3 100.0 0 0 - 0 0 - 2 3 5 1 0 1 1 4 -5
p168
aVPero Antic ATL 03/16/2015 ATL @ SAC W 17 5 1 3 33.3 1 2 50.0 2 4 50.0 0 0 0 0 1 0 0 2 4
p169
aVJeff Teague ATL 03/16/2015 ATL @ SAC W 36 23 6 16 37.5 2 4 50.0 9 11 81.8 0 4 4 6 1 1 2 3 9
p170
aVDeMarre Carroll ATL 03/16/2015 ATL @ SAC W 35 16 6 10 60.0 3 6 50.0 1 2 50.0 1 7 8 2 3 0 3 2 6
p171
aVDennis Schroder ATL 03/16/2015 ATL @ SAC W 23 10 3 12 25.0 0 2 0.0 4 5 80.0 0 3 3 6 0 0 1 1 0
p172
aVKent Bazemore ATL 03/16/2015 ATL @ SAC W 29 11 4 12 33.3 2 8 25.0 1 2 50.0 0 2 2 4 3 1 0 2 11
p173
aVPaul Millsap ATL 03/16/2015 ATL @ SAC W 35 19 8 13 61.5 1 2 50.0 2 2 100.0 5 5 10 4 0 1 4 5 11
p174
aVShelvin Mack ATL 03/16/2015 ATL @ SAC W 21 14 5 10 50.0 3 7 42.9 1 2 50.0 0 1 1 2 1 0 0 0 -5
p175
aVElton Brand ATL 03/16/2015 ATL @ SAC W 26 6 2 5 40.0 0 0 - 2 2 100.0 1 5 6 0 2 1 1 5 4
p176
aVKent Bazemore ATL 03/15/2015 ATL @ LAL W 38 13 4 7 57.1 1 3 33.3 4 5 80.0 0 9 9 3 0 2 3 2 13
p177
aVPero Antic ATL 03/15/2015 ATL @ LAL W 24 3 1 3 33.3 0 1 0.0 1 4 25.0 4 2 6 2 1 0 1 2 -10
p178
aVElton Brand ATL 03/15/2015 ATL @ LAL W 24 2 1 2 50.0 0 0 - 0 0 - 0 5 5 1 2 3 0 1 11
p179
aVJohn Jenkins ATL 03/15/2015 ATL @ LAL W 24 8 3 8 37.5 0 3 0.0 2 2 100.0 0 2 2 2 0 0 1 2 0
p180
aVDennis Schroder ATL 03/15/2015 ATL @ LAL W 38 24 7 16 43.8 1 5 20.0 9 11 81.8 1 2 3 10 1 0 3 2 5
p181
aVMike Muscala ATL 03/15/2015 ATL @ LAL W 13 2 1 3 33.3 0 1 0.0 0 0 - 1 2 3 0 0 0 0 2 -10
p182
aVShelvin Mack ATL 03/15/2015 ATL @ LAL W 35 18 7 13 53.8 3 7 42.9 1 2 50.0 0 0 0 3 0 0 1 2 1
p183
aVAl Horford ATL 03/15/2015 ATL @ LAL W 35 21 10 21 47.6 0 1 0.0 1 3 33.3 1 4 5 3 5 1 1 1 15
p184
aVKyle Korver ATL 03/15/2015 ATL @ LAL W 10 0 0 3 0.0 0 2 0.0 0 0 - 0 1 1 1 0 0 0 0 0
p185
aVElton Brand ATL 03/13/2015 ATL @ PHX W 9 0 0 2 0.0 0 0 - 0 0 - 1 1 2 0 0 1 1 3 2
p186
aVPaul Millsap ATL 03/13/2015 ATL @ PHX W 37 23 10 18 55.6 3 6 50.0 0 0 - 2 7 9 3 3 3 4 4 0
p187
aVPero Antic ATL 03/13/2015 ATL @ PHX W 17 6 2 6 33.3 1 3 33.3 1 2 50.0 1 3 4 0 0 0 0 0 8
p188
aVKent Bazemore ATL 03/13/2015 ATL @ PHX W 23 11 5 6 83.3 1 1 100.0 0 0 - 1 2 3 1 2 0 0 1 20
p189
aVAl Horford ATL 03/13/2015 ATL @ PHX W 34 12 5 11 45.5 0 0 - 2 2 100.0 0 7 7 1 2 0 0 4 8
p190
aVDennis Schroder ATL 03/13/2015 ATL @ PHX W 23 11 4 10 40.0 0 2 0.0 3 4 75.0 0 4 4 6 2 0 3 1 4
p191
aVJeff Teague ATL 03/13/2015 ATL @ PHX W 29 8 4 13 30.8 0 1 0.0 0 0 - 0 0 0 9 1 0 1 2 -3
p192
aVKyle Korver ATL 03/13/2015 ATL @ PHX W 38 14 5 8 62.5 3 4 75.0 1 1 100.0 0 4 4 1 0 2 1 2 18
p193
aVDeMarre Carroll ATL 03/13/2015 ATL @ PHX W 31 11 4 9 44.4 0 1 0.0 3 3 100.0 2 3 5 1 1 0 1 3 -12
p194
aVAl Horford ATL 03/11/2015 ATL @ DEN L 23 6 3 10 30.0 0 0 - 0 0 - 0 3 3 2 1 0 0 0 -12
p195
aVMike Muscala ATL 03/11/2015 ATL @ DEN L 10 4 2 4 50.0 0 1 0.0 0 0 - 0 3 3 1 1 0 1 0 18
p196
aVDennis Schroder ATL 03/11/2015 ATL @ DEN L 19 13 4 10 40.0 0 1 0.0 5 6 83.3 0 1 1 1 0 1 2 2 -17
p197
aVPero Antic ATL 03/11/2015 ATL @ DEN L 20 6 0 5 0.0 0 3 0.0 6 6 100.0 2 1 3 0 0 0 1 1 3
p198
aVShelvin Mack ATL 03/11/2015 ATL @ DEN L 21 5 2 7 28.6 1 3 33.3 0 0 - 0 2 2 5 1 0 1 2 12
p199
aVJeff Teague ATL 03/11/2015 ATL @ DEN L 23 8 3 6 50.0 0 0 - 2 2 100.0 0 3 3 3 2 0 4 3 -21
p200
aVDeMarre Carroll ATL 03/11/2015 ATL @ DEN L 22 9 3 6 50.0 1 3 33.3 2 2 100.0 2 1 3 2 1 0 2 4 -15
p201
aVPaul Millsap ATL 03/11/2015 ATL @ DEN L 25 12 5 12 41.7 0 2 0.0 2 2 100.0 3 2 5 0 2 1 2 3 -13
p202
aVJohn Jenkins ATL 03/11/2015 ATL @ DEN L 10 10 3 4 75.0 2 3 66.7 2 2 100.0 0 2 2 1 0 0 1 0 18
p203
aVKyle Korver ATL 03/11/2015 ATL @ DEN L 26 18 6 8 75.0 5 7 71.4 1 1 100.0 0 3 3 0 1 1 2 0 -10
p204
aVKent Bazemore ATL 03/11/2015 ATL @ DEN L 23 7 1 4 25.0 0 1 0.0 5 6 83.3 0 3 3 2 2 0 1 3 -6
p205
aVMike Scott ATL 03/11/2015 ATL @ DEN L 18 4 2 5 40.0 0 3 0.0 0 0 - 1 0 1 1 0 0 0 0 -22
p206
aVMike Scott ATL 03/09/2015 ATL vs. SAC W 20 6 3 7 42.9 0 3 0.0 0 0 - 0 4 4 5 1 1 1 1 4
p207
aVPaul Millsap ATL 03/09/2015 ATL vs. SAC W 28 13 5 7 71.4 3 4 75.0 0 0 - 2 1 3 5 2 0 3 3 21
p208
aVElton Brand ATL 03/09/2015 ATL vs. SAC W 17 2 1 1 100.0 0 0 - 0 0 - 1 3 4 3 0 2 1 3 11
p209
aVAl Horford ATL 03/09/2015 ATL vs. SAC W 31 18 9 13 69.2 0 0 - 0 0 - 1 3 4 2 0 3 1 0 14
p210
aVKent Bazemore ATL 03/09/2015 ATL vs. SAC W 18 9 4 9 44.4 1 3 33.3 0 0 - 1 1 2 1 0 0 1 4 11
p211
aVDennis Schroder ATL 03/09/2015 ATL vs. SAC W 19 12 4 9 44.4 2 3 66.7 2 2 100.0 2 0 2 8 2 0 2 2 7
p212
aVShelvin Mack ATL 03/09/2015 ATL vs. SAC W 9 8 3 3 100.0 2 2 100.0 0 0 - 0 0 0 1 0 0 0 0 4
p213
aVJeff Teague ATL 03/09/2015 ATL vs. SAC W 29 18 7 11 63.6 2 3 66.7 2 3 66.7 1 4 5 13 2 0 3 1 15
p214
aVKyle Korver ATL 03/09/2015 ATL vs. SAC W 31 20 7 9 77.8 6 8 75.0 0 1 0.0 0 2 2 1 0 0 1 3 16
p215
aVMike Muscala ATL 03/09/2015 ATL vs. SAC W 4 2 1 1 100.0 0 0 - 0 0 - 0 1 1 0 0 0 0 0 0
p216
aVDeMarre Carroll ATL 03/09/2015 ATL vs. SAC W 29 20 8 16 50.0 4 9 44.4 0 1 0.0 2 3 5 3 1 0 0 1 20
p217
aVJohn Jenkins ATL 03/09/2015 ATL vs. SAC W 5 2 1 2 50.0 0 1 0.0 0 0 - 0 1 1 0 0 0 0 0 2
p218
aVDennis Schroder ATL 03/07/2015 ATL @ PHI L 31 16 6 13 46.2 1 3 33.3 3 4 75.0 1 1 2 6 0 1 5 4 -4
p219
aVShelvin Mack ATL 03/07/2015 ATL @ PHI L 21 9 3 6 50.0 3 5 60.0 0 0 - 0 1 1 1 1 0 2 0 0
p220
aVKent Bazemore ATL 03/07/2015 ATL @ PHI L 36 9 2 8 25.0 1 3 33.3 4 6 66.7 0 9 9 2 1 2 3 0 -17
p221
aVAl Horford ATL 03/07/2015 ATL @ PHI L 34 12 6 16 37.5 0 0 - 0 0 - 0 5 5 4 2 3 2 1 -11
p222
aVElton Brand ATL 03/07/2015 ATL @ PHI L 16 0 0 2 0.0 0 0 - 0 0 - 1 4 5 0 1 1 1 2 2
p223
aVMike Scott ATL 03/07/2015 ATL @ PHI L 29 11 4 9 44.4 3 6 50.0 0 0 - 1 6 7 2 1 0 0 1 -2
p224
aVJohn Jenkins ATL 03/07/2015 ATL @ PHI L 23 8 3 7 42.9 2 5 40.0 0 0 - 0 4 4 1 0 0 1 0 1
p225
aVJeff Teague ATL 03/07/2015 ATL @ PHI L 33 17 5 13 38.5 1 3 33.3 6 6 100.0 0 2 2 4 2 1 5 3 -4
p226
aVMike Muscala ATL 03/07/2015 ATL @ PHI L 17 2 1 3 33.3 0 0 - 0 0 - 2 5 7 0 0 1 0 3 -5
p227
aVKyle Korver ATL 03/06/2015 ATL vs. CLE W 33 8 2 8 25.0 2 7 28.6 2 2 100.0 1 4 5 4 0 0 3 1 9
p228
aVAl Horford ATL 03/06/2015 ATL vs. CLE W 34 19 7 12 58.3 1 1 100.0 4 4 100.0 2 7 9 6 2 1 2 1 8
p229
aVElton Brand ATL 03/06/2015 ATL vs. CLE W 6 2 1 1 100.0 0 0 - 0 0 - 0 0 0 0 0 1 0 0 2
p230
aVDennis Schroder ATL 03/06/2015 ATL vs. CLE W 24 15 5 12 41.7 1 1 100.0 4 4 100.0 1 1 2 8 0 0 1 4 10
p231
aVShelvin Mack ATL 03/06/2015 ATL vs. CLE W 5 0 0 0 - 0 0 - 0 0 - 0 0 0 0 0 0 1 1 -5
p232
aVJeff Teague ATL 03/06/2015 ATL vs. CLE W 31 16 7 15 46.7 0 2 0.0 2 2 100.0 0 0 0 3 1 1 2 4 -2
p233
aVDeMarre Carroll ATL 03/06/2015 ATL vs. CLE W 32 11 5 8 62.5 1 4 25.0 0 0 - 2 5 7 1 2 0 1 3 0
p234
aVKent Bazemore ATL 03/06/2015 ATL vs. CLE W 20 5 2 3 66.7 1 2 50.0 0 0 - 1 2 3 1 2 0 1 3 15
p235
aVPaul Millsap ATL 03/06/2015 ATL vs. CLE W 32 16 7 15 46.7 0 2 0.0 2 5 40.0 3 5 8 3 3 0 1 3 0
p236
aVPero Antic ATL 03/06/2015 ATL vs. CLE W 7 0 0 1 0.0 0 1 0.0 0 0 - 0 0 0 0 0 0 0 0 1
p237
aVMike Scott ATL 03/06/2015 ATL vs. CLE W 17 14 7 9 77.8 0 1 0.0 0 0 - 1 3 4 1 0 1 0 2 7
p238
aVAl Horford ATL 03/03/2015 ATL vs. HOU W 36 18 9 14 64.3 0 0 - 0 0 - 2 6 8 1 0 3 3 1 17
p239
aVPaul Millsap ATL 03/03/2015 ATL vs. HOU W 33 16 6 16 37.5 0 3 0.0 4 4 100.0 2 12 14 4 2 1 2 4 8
p240
aVMike Scott ATL 03/03/2015 ATL vs. HOU W 14 9 4 10 40.0 1 5 20.0 0 0 - 2 2 4 0 0 0 0 0 -2
p241
aVKent Bazemore ATL 03/03/2015 ATL vs. HOU W 20 1 0 5 0.0 0 3 0.0 1 2 50.0 0 9 9 0 0 0 2 1 -19
p242
aVDeMarre Carroll ATL 03/03/2015 ATL vs. HOU W 35 11 4 6 66.7 1 2 50.0 2 2 100.0 2 3 5 0 0 1 2 2 4
p243
aVDennis Schroder ATL 03/03/2015 ATL vs. HOU W 27 16 6 14 42.9 2 4 50.0 2 2 100.0 0 4 4 8 0 0 1 2 6
p244
aVKyle Korver ATL 03/03/2015 ATL vs. HOU W 31 5 2 6 33.3 1 5 20.0 0 0 - 0 1 1 2 0 1 0 1 10
p245
aVPero Antic ATL 03/03/2015 ATL vs. HOU W 13 3 1 3 33.3 1 3 33.3 0 0 - 0 2 2 2 0 0 0 1 -7
p246
aVJeff Teague ATL 03/03/2015 ATL vs. HOU W 31 25 7 12 58.3 2 4 50.0 9 11 81.8 1 1 2 6 1 0 5 1 23
p247
aVShelvin Mack ATL 02/28/2015 ATL @ MIA W 13 0 0 7 0.0 0 3 0.0 0 0 - 0 1 1 1 0 0 2 0 7
p248
aVDennis Schroder ATL 02/28/2015 ATL @ MIA W 35 16 5 14 35.7 1 1 100.0 5 6 83.3 2 2 4 10 2 0 5 0 -5
p249
aVJohn Jenkins ATL 02/28/2015 ATL @ MIA W 22 12 4 6 66.7 3 4 75.0 1 1 100.0 0 7 7 0 1 0 2 2 8
p250
aVKyle Korver ATL 02/28/2015 ATL @ MIA W 36 7 2 9 22.2 2 7 28.6 1 1 100.0 0 6 6 3 4 1 2 4 1
p251
aVPaul Millsap ATL 02/28/2015 ATL @ MIA W 39 22 8 15 53.3 2 4 50.0 4 5 80.0 0 5 5 4 2 0 4 4 -2
p252
aVKent Bazemore ATL 02/28/2015 ATL @ MIA W 35 15 6 10 60.0 2 3 66.7 1 2 50.0 0 2 2 1 3 0 3 5 -7
p253
aVElton Brand ATL 02/28/2015 ATL @ MIA W 29 7 3 7 42.9 0 0 - 1 2 50.0 4 4 8 2 0 0 0 3 12
p254
aVMike Muscala ATL 02/28/2015 ATL @ MIA W 16 5 2 6 33.3 0 2 0.0 1 1 100.0 1 0 1 1 0 4 0 0 -6
p255
aVMike Scott ATL 02/28/2015 ATL @ MIA W 16 9 4 5 80.0 0 1 0.0 1 2 50.0 1 2 3 1 0 0 0 1 2
p256
aVKyle Korver ATL 02/27/2015 ATL vs. ORL W 34 8 2 5 40.0 2 5 40.0 2 2 100.0 0 3 3 2 1 2 1 1 4
p257
aVJeff Teague ATL 02/27/2015 ATL vs. ORL W 33 17 6 15 40.0 1 4 25.0 4 4 100.0 0 0 0 7 2 0 3 1 4
p258
aVDeMarre Carroll ATL 02/27/2015 ATL vs. ORL W 31 15 6 12 50.0 3 6 50.0 0 0 - 2 6 8 2 3 0 2 0 12
p259
aVPaul Millsap ATL 02/27/2015 ATL vs. ORL W 35 20 8 17 47.1 4 7 57.1 0 2 0.0 1 3 4 3 1 1 2 4 8
p260
aVDennis Schroder ATL 02/27/2015 ATL vs. ORL W 14 3 1 8 12.5 1 2 50.0 0 0 - 0 2 2 3 0 0 4 2 6
p261
aVPero Antic ATL 02/27/2015 ATL vs. ORL W 14 3 1 3 33.3 1 1 100.0 0 0 - 2 3 5 2 0 0 0 1 -3
p262
aVAl Horford ATL 02/27/2015 ATL vs. ORL W 31 17 7 9 77.8 0 0 - 3 4 75.0 5 8 13 4 2 0 1 1 12
p263
aVKent Bazemore ATL 02/27/2015 ATL vs. ORL W 24 7 3 5 60.0 1 2 50.0 0 0 - 0 1 1 2 2 2 3 2 -4
p264
aVMike Scott ATL 02/27/2015 ATL vs. ORL W 17 2 1 5 20.0 0 2 0.0 0 0 - 1 5 6 1 0 0 2 0 -3
p265
aVShelvin Mack ATL 02/27/2015 ATL vs. ORL W 7 3 1 2 50.0 1 2 50.0 0 0 - 0 0 0 1 0 0 0 0 -1
p266
aVJeff Teague ATL 02/25/2015 ATL vs. DAL W 26 11 3 9 33.3 1 3 33.3 4 4 100.0 0 3 3 4 1 0 2 2 11
p267
aVKyle Korver ATL 02/25/2015 ATL vs. DAL W 34 16 6 12 50.0 4 10 40.0 0 0 - 1 5 6 3 0 2 0 0 28
p268
aVJohn Jenkins ATL 02/25/2015 ATL vs. DAL W 4 2 0 0 - 0 0 - 2 2 100.0 0 1 1 0 0 0 0 1 -2
p269
aVShelvin Mack ATL 02/25/2015 ATL vs. DAL W 7 7 3 5 60.0 1 2 50.0 0 0 - 0 2 2 0 0 0 0 1 -1
p270
aVMike Muscala ATL 02/25/2015 ATL vs. DAL W 3 0 0 1 0.0 0 0 - 0 0 - 1 0 1 0 0 0 0 0 0
p271
aVMike Scott ATL 02/25/2015 ATL vs. DAL W 17 5 2 4 50.0 1 3 33.3 0 0 - 0 2 2 3 0 0 0 1 0
p272
aVDennis Schroder ATL 02/25/2015 ATL vs. DAL W 21 17 7 15 46.7 3 5 60.0 0 0 - 0 0 0 4 0 0 1 3 10
p273
aVKent Bazemore ATL 02/25/2015 ATL vs. DAL W 23 7 2 5 40.0 0 2 0.0 3 4 75.0 0 4 4 2 3 0 1 1 6
p274
aVPaul Millsap ATL 02/25/2015 ATL vs. DAL W 33 15 7 12 58.3 1 2 50.0 0 0 - 3 5 8 2 1 0 4 3 11
p275
aVPero Antic ATL 02/25/2015 ATL vs. DAL W 17 0 0 3 0.0 0 3 0.0 0 0 - 1 1 2 1 0 0 1 4 4
p276
aVDeMarre Carroll ATL 02/25/2015 ATL vs. DAL W 27 13 5 9 55.6 2 5 40.0 1 2 50.0 2 2 4 3 0 0 1 0 1
p277
aVAl Horford ATL 02/25/2015 ATL vs. DAL W 27 11 4 10 40.0 0 0 - 3 4 75.0 2 6 8 6 2 0 1 2 17
p278
aVAl Horford ATL 02/22/2015 ATL @ MIL W 33 15 5 12 41.7 0 1 0.0 5 6 83.3 4 4 8 1 0 2 2 1 15
p279
aVKent Bazemore ATL 02/22/2015 ATL @ MIL W 22 4 2 4 50.0 0 1 0.0 0 0 - 1 5 6 3 2 2 0 2 9
p280
aVDennis Schroder ATL 02/22/2015 ATL @ MIL W 26 12 3 10 30.0 1 4 25.0 5 5 100.0 0 2 2 9 0 0 6 1 5
p281
aVKyle Korver ATL 02/22/2015 ATL @ MIL W 35 12 4 11 36.4 4 9 44.4 0 0 - 0 2 2 3 1 0 2 4 8
p282
aVPaul Millsap ATL 02/22/2015 ATL @ MIL W 32 23 10 21 47.6 1 3 33.3 2 2 100.0 8 8 16 3 1 2 3 1 3
p283
aVDeMarre Carroll ATL 02/22/2015 ATL @ MIL W 33 10 4 10 40.0 2 6 33.3 0 0 - 1 1 2 1 1 0 2 4 9
p284
aVPero Antic ATL 02/22/2015 ATL @ MIL W 12 3 0 4 0.0 0 2 0.0 3 4 75.0 1 2 3 1 0 0 1 1 -3
p285
aVMike Scott ATL 02/22/2015 ATL @ MIL W 18 8 3 7 42.9 1 4 25.0 1 2 50.0 1 2 3 0 1 0 0 1 7
p286
aVJeff Teague ATL 02/22/2015 ATL @ MIL W 28 10 4 8 50.0 0 0 - 2 2 100.0 0 1 1 2 4 1 4 2 2
p287
aVDennis Schroder ATL 02/20/2015 ATL vs. TOR L 22 8 3 6 50.0 2 3 66.7 0 0 - 1 2 3 4 0 0 3 1 -12
p288
aVKent Bazemore ATL 02/20/2015 ATL vs. TOR L 19 10 3 7 42.9 2 5 40.0 2 3 66.7 0 3 3 0 0 1 2 1 -11
p289
aVJohn Jenkins ATL 02/20/2015 ATL vs. TOR L 8 0 0 3 0.0 0 1 0.0 0 0 - 0 1 1 0 0 0 1 0 2
p290
aVJeff Teague ATL 02/20/2015 ATL vs. TOR L 26 11 3 9 33.3 0 3 0.0 5 6 83.3 0 2 2 5 1 2 3 1 -13
p291
aVKyle Korver ATL 02/20/2015 ATL vs. TOR L 27 11 3 13 23.1 2 11 18.2 3 4 75.0 0 4 4 0 0 1 2 2 -24
p292
aVDeMarre Carroll ATL 02/20/2015 ATL vs. TOR L 28 4 2 4 50.0 0 1 0.0 0 0 - 2 3 5 2 3 3 2 1 -15
p293
aVMike Scott ATL 02/20/2015 ATL vs. TOR L 22 4 2 11 18.2 0 6 0.0 0 0 - 2 3 5 2 0 0 0 0 -9
p294
aVShelvin Mack ATL 02/20/2015 ATL vs. TOR L 13 9 4 6 66.7 1 3 33.3 0 0 - 0 1 1 1 0 0 1 0 -2
p295
aVMike Muscala ATL 02/20/2015 ATL vs. TOR L 8 0 0 1 0.0 0 0 - 0 0 - 3 2 5 1 0 0 0 0 2
p296
aVPaul Millsap ATL 02/20/2015 ATL vs. TOR L 29 11 5 15 33.3 0 2 0.0 1 4 25.0 5 4 9 0 1 1 4 2 -20
p297
aVAl Horford ATL 02/20/2015 ATL vs. TOR L 27 7 3 9 33.3 1 1 100.0 0 0 - 4 8 12 4 1 0 2 0 -22
p298
aVPero Antic ATL 02/20/2015 ATL vs. TOR L 9 5 1 4 25.0 0 2 0.0 3 4 75.0 0 2 2 0 0 0 2 2 -1
p299
aVPaul Millsap ATL 02/11/2015 ATL @ BOS L 34 11 3 11 27.3 0 3 0.0 5 8 62.5 1 6 7 3 2 0 1 4 0
p300
aVDeMarre Carroll ATL 02/11/2015 ATL @ BOS L 34 14 4 15 26.7 2 7 28.6 4 5 80.0 0 7 7 3 3 0 0 0 -7
p301
aVPero Antic ATL 02/11/2015 ATL @ BOS L 11 1 0 2 0.0 0 1 0.0 1 2 50.0 2 2 4 0 0 0 1 3 -5
p302
aVDennis Schroder ATL 02/11/2015 ATL @ BOS L 17 8 3 6 50.0 0 1 0.0 2 2 100.0 0 2 2 2 0 0 3 1 -7
p303
aVKyle Korver ATL 02/11/2015 ATL @ BOS L 36 4 1 5 20.0 1 5 20.0 1 2 50.0 0 5 5 2 0 1 2 3 8
p304
aVKent Bazemore ATL 02/11/2015 ATL @ BOS L 24 9 3 6 50.0 3 5 60.0 0 2 0.0 0 4 4 2 0 1 2 2 5
p305
aVAl Horford ATL 02/11/2015 ATL @ BOS L 36 22 11 15 73.3 0 2 0.0 0 0 - 1 11 12 3 0 1 1 1 1
p306
aVMike Scott ATL 02/11/2015 ATL @ BOS L 16 9 4 6 66.7 1 1 100.0 0 0 - 1 2 3 0 0 0 0 1 2
p307
aVJeff Teague ATL 02/11/2015 ATL @ BOS L 33 10 4 12 33.3 0 4 0.0 2 2 100.0 0 0 0 8 1 2 2 2 -2
p308
aVJeff Teague ATL 02/09/2015 ATL @ MIN W 32 12 4 7 57.1 1 1 100.0 3 3 100.0 0 1 1 7 3 0 3 3 29
p309
aVMike Scott ATL 02/09/2015 ATL @ MIN W 23 8 3 10 30.0 2 4 50.0 0 0 - 2 1 3 3 1 0 0 1 -5
p310
aVAl Horford ATL 02/09/2015 ATL @ MIN W 28 28 11 18 61.1 0 0 - 6 7 85.7 4 4 8 3 1 2 3 2 14
p311
aVElton Brand ATL 02/09/2015 ATL @ MIN W 14 0 0 1 0.0 0 0 - 0 0 - 0 1 1 1 1 3 0 1 -3
p312
aVDennis Schroder ATL 02/09/2015 ATL @ MIN W 20 8 3 8 37.5 0 1 0.0 2 2 100.0 0 1 1 2 1 0 1 3 -13
p313
aVKent Bazemore ATL 02/09/2015 ATL @ MIN W 25 4 2 6 33.3 0 1 0.0 0 0 - 0 4 4 2 2 0 1 5 -6
p314
aVPaul Millsap ATL 02/09/2015 ATL @ MIN W 31 19 8 13 61.5 1 2 50.0 2 2 100.0 3 6 9 7 1 0 2 3 18
p315
aVDeMarre Carroll ATL 02/09/2015 ATL @ MIN W 34 26 9 13 69.2 2 3 66.7 6 6 100.0 1 3 4 0 3 0 0 2 18
p316
aVKyle Korver ATL 02/09/2015 ATL @ MIN W 31 12 4 10 40.0 4 9 44.4 0 0 - 0 5 5 1 1 1 0 1 14
p317
aVJohn Jenkins ATL 02/09/2015 ATL @ MIN W 2 0 0 0 - 0 0 - 0 0 - 0 0 0 0 0 0 0 0 -6
p318
aVDeMarre Carroll ATL 02/08/2015 ATL @ MEM L 30 10 3 9 33.3 2 6 33.3 2 2 100.0 1 4 5 2 1 0 1 3 -5
p319
aVJeff Teague ATL 02/08/2015 ATL @ MEM L 32 22 9 13 69.2 1 2 50.0 3 4 75.0 0 1 1 6 0 0 4 1 1
p320
aVMike Scott ATL 02/08/2015 ATL @ MEM L 20 11 4 7 57.1 3 4 75.0 0 0 - 1 0 1 1 0 0 0 1 11
p321
aVAl Horford ATL 02/08/2015 ATL @ MEM L 32 6 2 11 18.2 0 0 - 2 2 100.0 1 11 12 2 0 0 4 3 -11
p322
aVKyle Korver ATL 02/08/2015 ATL @ MEM L 37 8 3 6 50.0 2 5 40.0 0 0 - 0 4 4 0 1 1 2 2 -5
p323
aVDennis Schroder ATL 02/08/2015 ATL @ MEM L 15 11 4 9 44.4 2 3 66.7 1 1 100.0 0 1 1 3 0 0 1 1 -6
p324
aVKent Bazemore ATL 02/08/2015 ATL @ MEM L 30 14 5 11 45.5 2 4 50.0 2 2 100.0 0 5 5 2 2 0 0 3 -3
p325
aVPaul Millsap ATL 02/08/2015 ATL @ MEM L 29 4 2 10 20.0 0 3 0.0 0 0 - 0 6 6 1 1 3 2 2 -9
p326
aVPero Antic ATL 02/08/2015 ATL @ MEM L 16 2 1 4 25.0 0 3 0.0 0 0 - 0 2 2 0 1 1 0 0 -3
p327
aVPero Antic ATL 02/06/2015 ATL vs. GSW W 17 2 0 4 0.0 0 1 0.0 2 2 100.0 0 0 0 0 0 0 3 2 -11
p328
aVDeMarre Carroll ATL 02/06/2015 ATL vs. GSW W 33 12 4 6 66.7 1 3 33.3 3 4 75.0 0 3 3 2 2 0 0 2 2
p329
aVKent Bazemore ATL 02/06/2015 ATL vs. GSW W 27 11 4 6 66.7 3 3 100.0 0 0 - 0 5 5 1 1 0 0 3 0
p330
aVKyle Korver ATL 02/06/2015 ATL vs. GSW W 34 17 6 10 60.0 5 9 55.6 0 0 - 0 7 7 2 2 1 1 2 16
p331
aVPaul Millsap ATL 02/06/2015 ATL vs. GSW W 34 21 6 10 60.0 0 2 0.0 9 12 75.0 2 2 4 3 3 1 2 3 2
p332
aVAl Horford ATL 02/06/2015 ATL vs. GSW W 28 12 4 10 40.0 0 1 0.0 4 4 100.0 1 13 14 6 1 0 3 5 17
p333
aVDennis Schroder ATL 02/06/2015 ATL vs. GSW W 18 9 4 9 44.4 1 1 100.0 0 0 - 0 0 0 7 1 0 1 2 7
p334
aVMike Scott ATL 02/06/2015 ATL vs. GSW W 17 17 5 7 71.4 3 3 100.0 4 4 100.0 0 2 2 0 0 0 1 0 8
p335
aVJeff Teague ATL 02/06/2015 ATL vs. GSW W 32 23 5 15 33.3 2 4 50.0 11 11 100.0 1 2 3 7 3 2 2 0 -1
p336
aVMike Scott ATL 02/04/2015 ATL vs. WAS W 14 5 2 4 50.0 1 2 50.0 0 0 - 0 3 3 1 0 0 0 2 -1
p337
aVAl Horford ATL 02/04/2015 ATL vs. WAS W 34 21 10 24 41.7 0 0 - 1 1 100.0 6 7 13 2 1 1 1 0 2
p338
aVJeff Teague ATL 02/04/2015 ATL vs. WAS W 31 26 9 13 69.2 2 4 50.0 6 8 75.0 0 2 2 8 2 0 4 5 0
p339
aVJohn Jenkins ATL 02/04/2015 ATL vs. WAS W 1 0 0 0 - 0 0 - 0 0 - 0 0 0 0 0 0 0 0 -4
p340
aVPero Antic ATL 02/04/2015 ATL vs. WAS W 14 9 3 5 60.0 1 2 50.0 2 4 50.0 1 5 6 1 0 0 1 2 5
p341
aVDennis Schroder ATL 02/04/2015 ATL vs. WAS W 18 10 4 8 50.0 0 0 - 2 3 66.7 0 3 3 4 0 0 1 3 12
p342
aVDeMarre Carroll ATL 02/04/2015 ATL vs. WAS W 33 14 4 10 40.0 3 7 42.9 3 4 75.0 0 2 2 0 1 0 1 2 6
p343
aVPaul Millsap ATL 02/04/2015 ATL vs. WAS W 33 11 4 7 57.1 2 3 66.7 1 2 50.0 0 7 7 1 3 1 1 4 12
p344
aVKyle Korver ATL 02/04/2015 ATL vs. WAS W 37 6 1 7 14.3 1 6 16.7 3 3 100.0 0 5 5 6 0 0 1 2 6
p345
aVKent Bazemore ATL 02/04/2015 ATL vs. WAS W 24 3 1 2 50.0 1 1 100.0 0 2 0.0 2 3 5 1 0 0 4 2 7
p346
aVMike Scott ATL 02/02/2015 ATL @ NOP L 23 8 3 8 37.5 1 5 20.0 1 1 100.0 0 3 3 0 2 0 0 1 1
p347
aVMike Muscala ATL 02/02/2015 ATL @ NOP L 5 4 2 2 100.0 0 0 - 0 0 - 1 0 1 0 0 0 0 1 4
p348
aVJohn Jenkins ATL 02/02/2015 ATL @ NOP L 16 7 3 5 60.0 1 1 100.0 0 0 - 0 1 1 1 0 0 0 1 0
p349
aVKent Bazemore ATL 02/02/2015 ATL @ NOP L 27 9 4 9 44.4 0 2 0.0 1 3 33.3 0 3 3 0 0 0 0 2 -5
p350
aVJeff Teague ATL 02/02/2015 ATL @ NOP L 29 21 8 17 47.1 1 2 50.0 4 5 80.0 0 2 2 7 1 0 1 3 -10
p351
aVDeMarre Carroll ATL 02/02/2015 ATL @ NOP L 23 6 2 4 50.0 2 4 50.0 0 0 - 0 2 2 0 0 0 0 1 -6
p352
aVPaul Millsap ATL 02/02/2015 ATL @ NOP L 32 15 5 14 35.7 0 3 0.0 5 6 83.3 2 4 6 1 0 2 2 2 -16
p353
aVDennis Schroder ATL 02/02/2015 ATL @ NOP L 19 10 4 13 30.8 0 2 0.0 2 2 100.0 1 1 2 5 0 0 0 0 -5
p354
aVPero Antic ATL 02/02/2015 ATL @ NOP L 6 0 0 1 0.0 0 0 - 0 0 - 0 0 0 0 0 1 1 1 -9
p355
aVAl Horford ATL 02/02/2015 ATL @ NOP L 30 8 4 9 44.4 0 1 0.0 0 0 - 5 4 9 4 3 0 1 1 -10
p356
aVKyle Korver ATL 02/02/2015 ATL @ NOP L 30 12 5 7 71.4 2 2 100.0 0 0 - 0 3 3 1 0 0 1 2 -19
p357
aVMike Muscala ATL 01/31/2015 ATL vs. PHI W 3 0 0 0 - 0 0 - 0 0 - 0 0 0 0 0 0 0 0 -4
p358
aVDennis Schroder ATL 01/31/2015 ATL vs. PHI W 28 15 6 11 54.5 2 3 66.7 1 2 50.0 1 4 5 6 1 0 3 3 7
p359
aVMike Scott ATL 01/31/2015 ATL vs. PHI W 15 2 1 5 20.0 0 4 0.0 0 0 - 0 4 4 0 1 0 0 1 6
p360
aVJeff Teague ATL 01/31/2015 ATL vs. PHI W 32 10 3 12 25.0 2 7 28.6 2 2 100.0 0 0 0 7 2 0 4 2 3
p361
aVKyle Korver ATL 01/31/2015 ATL vs. PHI W 33 14 4 9 44.4 4 6 66.7 2 2 100.0 0 5 5 0 0 0 0 3 11
p362
aVPaul Millsap ATL 01/31/2015 ATL vs. PHI W 35 15 5 13 38.5 1 3 33.3 4 4 100.0 4 4 8 1 2 1 2 1 0
p363
aVAl Horford ATL 01/31/2015 ATL vs. PHI W 33 23 10 16 62.5 0 1 0.0 3 4 75.0 2 9 11 4 0 3 1 0 4
p364
aVKent Bazemore ATL 01/31/2015 ATL vs. PHI W 30 3 1 6 16.7 0 3 0.0 1 4 25.0 1 2 3 2 0 1 1 4 -2
p365
aVElton Brand ATL 01/31/2015 ATL vs. PHI W 11 0 0 1 0.0 0 0 - 0 0 - 0 5 5 0 0 0 1 2 6
p366
aVJohn Jenkins ATL 01/31/2015 ATL vs. PHI W 21 9 4 5 80.0 1 1 100.0 0 0 - 0 3 3 0 0 0 0 0 -1
p367
aVDennis Schroder ATL 01/30/2015 ATL vs. POR W 24 6 3 8 37.5 0 0 - 0 0 - 0 0 0 7 2 0 3 3 -2
p368
aVMike Scott ATL 01/30/2015 ATL vs. POR W 14 11 4 5 80.0 3 3 100.0 0 2 0.0 0 2 2 1 0 0 1 2 17
p369
aVKent Bazemore ATL 01/30/2015 ATL vs. POR W 40 12 5 6 83.3 1 2 50.0 1 3 33.3 0 5 5 3 2 1 2 2 -2
p370
aVPero Antic ATL 01/30/2015 ATL vs. POR W 12 7 2 8 25.0 1 4 25.0 2 3 66.7 3 0 3 0 0 0 0 1 -9
p371
aVJeff Teague ATL 01/30/2015 ATL vs. POR W 34 13 6 17 35.3 1 2 50.0 0 0 - 1 6 7 8 1 1 4 2 5
p372
aVKyle Korver ATL 01/30/2015 ATL vs. POR W 39 16 5 7 71.4 2 4 50.0 4 5 80.0 0 6 6 1 1 0 1 1 11
p373
aVPaul Millsap ATL 01/30/2015 ATL vs. POR W 35 21 6 14 42.9 2 5 40.0 7 9 77.8 0 8 8 2 3 0 1 2 -2
p374
aVAl Horford ATL 01/30/2015 ATL vs. POR W 34 17 8 15 53.3 1 1 100.0 0 0 - 2 6 8 4 3 2 1 2 6
p375
aVThabo Sefolosha ATL 01/30/2015 ATL vs. POR W 2 0 0 2 0.0 0 1 0.0 0 0 - 1 0 1 0 0 0 0 1 1
p376
aVJohn Jenkins ATL 01/30/2015 ATL vs. POR W 5 2 1 2 50.0 0 1 0.0 0 0 - 0 2 2 0 0 0 0 1 5
p377
aVThabo Sefolosha ATL 01/28/2015 ATL vs. BKN W 17 2 1 4 25.0 0 3 0.0 0 0 - 1 1 2 1 2 0 0 0 9
p378
aVJeff Teague ATL 01/28/2015 ATL vs. BKN W 30 13 6 16 37.5 1 4 25.0 0 0 - 0 1 1 11 0 0 3 1 3
p379
aVPaul Millsap ATL 01/28/2015 ATL vs. BKN W 35 28 5 9 55.6 3 5 60.0 15 16 93.8 5 10 15 1 1 2 3 3 7
p380
aVKent Bazemore ATL 01/28/2015 ATL vs. BKN W 14 0 0 2 0.0 0 1 0.0 0 0 - 1 1 2 1 0 0 0 1 9
p381
aVDeMarre Carroll ATL 01/28/2015 ATL vs. BKN W 29 12 3 6 50.0 2 4 50.0 4 4 100.0 0 3 3 1 0 0 1 5 6
p382
aVAl Horford ATL 01/28/2015 ATL vs. BKN W 33 20 10 13 76.9 0 0 - 0 0 - 2 8 10 5 0 0 2 3 -9
p383
aVDennis Schroder ATL 01/28/2015 ATL vs. BKN W 18 13 5 8 62.5 1 1 100.0 2 2 100.0 0 2 2 2 0 0 2 1 8
p384
aVMike Scott ATL 01/28/2015 ATL vs. BKN W 13 6 2 6 33.3 0 2 0.0 2 2 100.0 1 0 1 3 0 0 0 0 9
p385
aVKyle Korver ATL 01/28/2015 ATL vs. BKN W 36 17 6 10 60.0 5 8 62.5 0 0 - 0 2 2 3 1 2 0 2 -2
p386
aVPero Antic ATL 01/28/2015 ATL vs. BKN W 15 2 0 8 0.0 0 5 0.0 2 2 100.0 2 5 7 1 0 0 0 2 15
p387
aVThabo Sefolosha ATL 01/25/2015 ATL vs. MIN W 22 8 3 5 60.0 2 2 100.0 0 2 0.0 2 0 2 1 0 1 0 0 10
p388
aVMike Scott ATL 01/25/2015 ATL vs. MIN W 12 3 1 4 25.0 0 1 0.0 1 1 100.0 1 1 2 0 0 0 1 1 4
p389
aVPaul Millsap ATL 01/25/2015 ATL vs. MIN W 33 20 8 12 66.7 2 4 50.0 2 2 100.0 1 4 5 6 4 0 1 3 9
p390
aVJeff Teague ATL 01/25/2015 ATL vs. MIN W 32 15 6 14 42.9 0 3 0.0 3 4 75.0 0 1 1 7 1 0 3 3 2
p391
aVAl Horford ATL 01/25/2015 ATL vs. MIN W 31 19 8 9 88.9 0 0 - 3 3 100.0 1 5 6 4 1 2 1 2 11
p392
aVKent Bazemore ATL 01/25/2015 ATL vs. MIN W 11 2 1 2 50.0 0 1 0.0 0 0 - 0 1 1 0 1 2 0 1 2
p393
aVDennis Schroder ATL 01/25/2015 ATL vs. MIN W 16 11 5 9 55.6 0 1 0.0 1 1 100.0 0 0 0 4 0 0 0 1 10
p394
aVKyle Korver ATL 01/25/2015 ATL vs. MIN W 30 13 4 8 50.0 4 8 50.0 1 1 100.0 0 3 3 4 1 0 3 4 13
p395
aVPero Antic ATL 01/25/2015 ATL vs. MIN W 21 7 3 7 42.9 0 3 0.0 1 4 25.0 0 3 3 2 0 0 0 2 0
p396
aVDeMarre Carroll ATL 01/25/2015 ATL vs. MIN W 32 14 6 10 60.0 2 5 40.0 0 0 - 3 3 6 2 0 0 1 3 -1
p397
aVThabo Sefolosha ATL 01/23/2015 ATL vs. OKC W 16 4 2 2 100.0 0 0 - 0 0 - 0 4 4 0 0 0 2 1 -1
p398
aVJeff Teague ATL 01/23/2015 ATL vs. OKC W 30 17 7 13 53.8 1 2 50.0 2 2 100.0 0 2 2 9 1 0 2 2 5
p399
aVDennis Schroder ATL 01/23/2015 ATL vs. OKC W 18 13 4 11 36.4 1 5 20.0 4 4 100.0 0 4 4 5 0 0 1 1 5
p400
aVMike Scott ATL 01/23/2015 ATL vs. OKC W 12 2 1 5 20.0 0 0 - 0 0 - 1 0 1 0 1 0 1 0 0
p401
aVPero Antic ATL 01/23/2015 ATL vs. OKC W 19 8 2 6 33.3 1 4 25.0 3 3 100.0 1 3 4 2 0 0 0 3 3
p402
aVAl Horford ATL 01/23/2015 ATL vs. OKC W 32 14 6 12 50.0 1 2 50.0 1 1 100.0 3 9 12 3 1 3 1 1 12
p403
aVKyle Korver ATL 01/23/2015 ATL vs. OKC W 33 5 2 5 40.0 1 3 33.3 0 0 - 1 3 4 2 0 0 4 1 8
p404
aVKent Bazemore ATL 01/23/2015 ATL vs. OKC W 16 5 2 5 40.0 0 1 0.0 1 1 100.0 1 1 2 0 1 0 1 1 2
p405
aVPaul Millsap ATL 01/23/2015 ATL vs. OKC W 33 22 9 17 52.9 2 3 66.7 2 2 100.0 2 8 10 3 2 2 4 0 11
p406
aVDeMarre Carroll ATL 01/23/2015 ATL vs. OKC W 32 13 5 7 71.4 3 5 60.0 0 0 - 1 3 4 3 0 0 0 3 5
p407
aVAl Horford ATL 01/21/2015 ATL vs. IND W 27 14 6 10 60.0 0 1 0.0 2 3 66.7 3 4 7 5 1 1 1 0 24
p408
aVKent Bazemore ATL 01/21/2015 ATL vs. IND W 16 3 1 5 20.0 0 0 - 1 2 50.0 1 1 2 0 2 0 2 4 -5
p409
aVKyle Korver ATL 01/21/2015 ATL vs. IND W 31 10 4 6 66.7 2 4 50.0 0 0 - 0 4 4 2 1 0 2 3 26
p410
aVDeMarre Carroll ATL 01/21/2015 ATL vs. IND W 30 17 7 11 63.6 3 5 60.0 0 1 0.0 0 2 2 4 4 0 1 4 18
p411
aVThabo Sefolosha ATL 01/21/2015 ATL vs. IND W 19 8 3 7 42.9 1 3 33.3 1 2 50.0 1 4 5 0 2 1 1 1 -1
p412
aVJeff Teague ATL 01/21/2015 ATL vs. IND W 30 17 6 13 46.2 1 3 33.3 4 5 80.0 0 3 3 11 2 0 3 1 19
p413
aVPero Antic ATL 01/21/2015 ATL vs. IND W 18 12 4 7 57.1 3 5 60.0 1 2 50.0 2 2 4 2 0 0 1 3 -6
p414
aVJohn Jenkins ATL 01/21/2015 ATL vs. IND W 3 3 1 2 50.0 1 2 50.0 0 0 - 0 1 1 0 0 0 0 1 1
p415
aVMike Muscala ATL 01/21/2015 ATL vs. IND W 3 4 0 0 - 0 0 - 4 4 100.0 1 1 2 0 0 0 0 0 1
p416
aVMike Scott ATL 01/21/2015 ATL vs. IND W 19 5 1 6 16.7 0 2 0.0 3 4 75.0 0 1 1 1 0 0 0 1 -3
p417
aVDennis Schroder ATL 01/21/2015 ATL vs. IND W 16 5 2 4 50.0 1 1 100.0 0 0 - 0 3 3 4 0 1 1 2 -1
p418
aVPaul Millsap ATL 01/21/2015 ATL vs. IND W 30 12 4 7 57.1 1 3 33.3 3 3 100.0 1 8 9 1 0 0 4 3 22
p419
aVPero Antic ATL 01/19/2015 ATL vs. DET W 11 0 0 5 0.0 0 2 0.0 0 0 - 2 3 5 1 0 0 1 4 -9
p420
aVPaul Millsap ATL 01/19/2015 ATL vs. DET W 30 20 8 15 53.3 3 6 50.0 1 2 50.0 0 7 7 2 0 0 1 2 5
p421
aVThabo Sefolosha ATL 01/19/2015 ATL vs. DET W 17 2 1 2 50.0 0 0 - 0 0 - 1 5 6 1 1 0 0 2 -4
p422
aVMike Scott ATL 01/19/2015 ATL vs. DET W 21 20 9 15 60.0 2 6 33.3 0 0 - 2 3 5 0 2 0 0 1 7
p423
aVDeMarre Carroll ATL 01/19/2015 ATL vs. DET W 32 5 2 7 28.6 0 3 0.0 1 2 50.0 0 2 2 1 2 0 0 2 4
p424
aVKyle Korver ATL 01/19/2015 ATL vs. DET W 32 13 4 8 50.0 3 6 50.0 2 2 100.0 0 6 6 5 0 0 2 2 14
p425
aVAl Horford ATL 01/19/2015 ATL vs. DET W 34 14 6 9 66.7 0 0 - 2 2 100.0 0 6 6 7 1 1 1 0 19
p426
aVJeff Teague ATL 01/19/2015 ATL vs. DET W 30 10 4 15 26.7 0 5 0.0 2 2 100.0 0 2 2 7 0 0 3 4 13
p427
aVKent Bazemore ATL 01/19/2015 ATL vs. DET W 15 5 2 3 66.7 1 2 50.0 0 2 0.0 0 0 0 1 2 0 2 1 8
p428
aVDennis Schroder ATL 01/19/2015 ATL vs. DET W 18 4 1 5 20.0 0 0 - 2 2 100.0 0 3 3 6 0 0 0 1 -2
p429
aVKyle Korver ATL 01/17/2015 ATL @ CHI W 37 24 7 10 70.0 7 9 77.8 3 3 100.0 0 6 6 2 1 2 0 0 14
p430
aVKent Bazemore ATL 01/17/2015 ATL @ CHI W 13 6 2 5 40.0 1 2 50.0 1 1 100.0 0 2 2 0 0 0 2 2 -3
p431
aVMike Scott ATL 01/17/2015 ATL @ CHI W 13 6 2 7 28.6 1 2 50.0 1 1 100.0 1 2 3 3 1 0 2 2 8
p432
aVThabo Sefolosha ATL 01/17/2015 ATL @ CHI W 20 4 2 6 33.3 0 0 - 0 0 - 2 3 5 2 4 1 0 2 -3
p433
aVDeMarre Carroll ATL 01/17/2015 ATL @ CHI W 31 4 1 5 20.0 1 4 25.0 1 2 50.0 0 4 4 1 0 0 1 3 3
p434
aVElton Brand ATL 01/17/2015 ATL @ CHI W 13 6 3 5 60.0 0 0 - 0 0 - 2 3 5 0 0 0 0 4 -8
p435
aVAl Horford ATL 01/17/2015 ATL @ CHI W 35 22 11 14 78.6 0 1 0.0 0 0 - 2 7 9 4 1 0 1 1 16
p436
aVJeff Teague ATL 01/17/2015 ATL @ CHI W 36 17 5 16 31.3 1 4 25.0 6 8 75.0 0 1 1 11 3 3 2 1 5
p437
aVPaul Millsap ATL 01/17/2015 ATL @ CHI W 35 16 6 14 42.9 0 4 0.0 4 6 66.7 2 3 5 6 0 1 0 3 0
p438
aVShelvin Mack ATL 01/17/2015 ATL @ CHI W 7 2 1 2 50.0 0 0 - 0 0 - 0 0 0 2 0 0 1 1 8
p439
aVThabo Sefolosha ATL 01/16/2015 ATL @ TOR W 17 5 2 3 66.7 1 2 50.0 0 0 - 1 4 5 1 0 0 0 1 6
p440
aVShelvin Mack ATL 01/16/2015 ATL @ TOR W 5 0 0 2 0.0 0 0 - 0 0 - 1 0 1 0 0 0 0 0 -3
p441
aVKent Bazemore ATL 01/16/2015 ATL @ TOR W 15 10 3 3 100.0 1 1 100.0 3 4 75.0 0 2 2 0 0 1 2 3 -9
p442
aVJeff Teague ATL 01/16/2015 ATL @ TOR W 25 13 6 12 50.0 1 2 50.0 0 0 - 0 5 5 9 2 1 1 3 23
p443
aVKyle Korver ATL 01/16/2015 ATL @ TOR W 29 11 4 6 66.7 3 5 60.0 0 0 - 0 1 1 2 1 0 5 1 28
p444
aVElton Brand ATL 01/16/2015 ATL @ TOR W 4 0 0 1 0.0 0 0 - 0 0 - 0 0 0 1 0 0 0 1 -1
p445
aVDennis Schroder ATL 01/16/2015 ATL @ TOR W 18 9 4 6 66.7 0 0 - 1 1 100.0 0 0 0 4 0 0 1 0 -1
p446
aVMike Muscala ATL 01/16/2015 ATL @ TOR W 6 4 2 3 66.7 0 1 0.0 0 0 - 1 0 1 0 0 0 1 0 -5
p447
aVPero Antic ATL 01/16/2015 ATL @ TOR W 16 3 1 3 33.3 1 2 50.0 0 0 - 0 0 0 0 0 0 2 3 0
p448
aVPaul Millsap ATL 01/16/2015 ATL @ TOR W 33 16 6 9 66.7 2 2 100.0 2 2 100.0 1 7 8 4 3 2 3 3 29
p449
aVMike Scott ATL 01/16/2015 ATL @ TOR W 13 4 1 3 33.3 0 2 0.0 2 2 100.0 0 1 1 1 0 0 1 0 -5
p450
aVDeMarre Carroll ATL 01/16/2015 ATL @ TOR W 30 13 5 10 50.0 3 6 50.0 0 0 - 0 3 3 3 1 1 1 2 20
p451
aVAl Horford ATL 01/16/2015 ATL @ TOR W 28 22 8 8 100.0 0 0 - 6 7 85.7 0 5 5 5 0 1 0 0 23
p452
aVShelvin Mack ATL 01/14/2015 ATL @ BOS W 14 9 3 6 50.0 2 3 66.7 1 2 50.0 0 0 0 0 0 0 2 1 -5
p453
aVElton Brand ATL 01/14/2015 ATL @ BOS W 6 4 2 2 100.0 0 0 - 0 0 - 0 0 0 0 1 0 0 0 4
p454
aVAdreian Payne ATL 01/14/2015 ATL @ BOS W 2 0 0 1 0.0 0 0 - 0 0 - 0 0 0 0 0 0 0 0 -5
p455
aVPaul Millsap ATL 01/14/2015 ATL @ BOS W 35 18 5 10 50.0 1 3 33.3 7 7 100.0 1 9 10 3 2 2 3 2 18
p456
aVDennis Schroder ATL 01/14/2015 ATL @ BOS W 16 4 2 6 33.3 0 2 0.0 0 0 - 0 1 1 2 0 0 1 0 -12
p457
aVThabo Sefolosha ATL 01/14/2015 ATL @ BOS W 27 4 1 4 25.0 0 2 0.0 2 2 100.0 0 5 5 3 3 2 0 0 28
p458
aVMike Scott ATL 01/14/2015 ATL @ BOS W 22 11 4 8 50.0 1 2 50.0 2 2 100.0 0 4 4 3 0 0 1 1 10
p459
aVKent Bazemore ATL 01/14/2015 ATL @ BOS W 21 3 1 2 50.0 1 1 100.0 0 0 - 1 2 3 2 0 2 2 0 -14
p460
aVPero Antic ATL 01/14/2015 ATL @ BOS W 24 6 2 7 28.6 0 5 0.0 2 3 66.7 2 3 5 1 4 0 1 5 10
p461
aVDeMarre Carroll ATL 01/14/2015 ATL @ BOS W 33 22 8 13 61.5 3 6 50.0 3 5 60.0 1 4 5 3 1 0 1 1 19
p462
aVJeff Teague ATL 01/14/2015 ATL @ BOS W 32 22 7 12 58.3 2 5 40.0 6 6 100.0 0 1 1 6 2 1 1 2 26
p463
aVMike Muscala ATL 01/14/2015 ATL @ BOS W 7 2 1 2 50.0 0 0 - 0 0 - 1 0 1 0 0 0 0 0 -9
p464
aVKyle Korver ATL 01/13/2015 ATL @ PHI W 29 15 5 8 62.5 4 7 57.1 1 2 50.0 0 4 4 4 0 0 2 0 22
p465
aVElton Brand ATL 01/13/2015 ATL @ PHI W 20 6 3 9 33.3 0 0 - 0 1 0.0 5 2 7 1 1 1 0 4 1
p466
aVDennis Schroder ATL 01/13/2015 ATL @ PHI W 25 13 5 10 50.0 2 3 66.7 1 2 50.0 0 1 1 6 1 0 4 2 19
p467
aVMike Scott ATL 01/13/2015 ATL @ PHI W 26 8 3 7 42.9 1 2 50.0 1 2 50.0 2 3 5 0 0 0 1 2 11
p468
aVAdreian Payne ATL 01/13/2015 ATL @ PHI W 5 3 1 2 50.0 0 0 - 1 2 50.0 0 1 1 0 1 0 0 2 -4
p469
aVMike Muscala ATL 01/13/2015 ATL @ PHI W 26 6 3 10 30.0 0 0 - 0 0 - 5 4 9 0 1 0 1 3 -3
p470
aVThabo Sefolosha ATL 01/13/2015 ATL @ PHI W 31 4 2 5 40.0 0 1 0.0 0 1 0.0 0 4 4 2 0 1 2 0 18
p471
aVShelvin Mack ATL 01/13/2015 ATL @ PHI W 23 12 5 12 41.7 2 4 50.0 0 0 - 0 1 1 10 2 0 2 0 -1
p472
aVAl Horford ATL 01/13/2015 ATL @ PHI W 29 21 8 10 80.0 0 0 - 5 6 83.3 3 7 10 10 0 1 2 2 22
p473
aVKent Bazemore ATL 01/13/2015 ATL @ PHI W 28 17 7 14 50.0 3 6 50.0 0 0 - 0 5 5 1 0 0 2 2 5
p474
aVAl Horford ATL 01/11/2015 ATL vs. WAS W 30 15 6 12 50.0 1 1 100.0 2 3 66.7 2 4 6 3 1 2 0 3 28
p475
aVMike Scott ATL 01/11/2015 ATL vs. WAS W 18 11 5 10 50.0 1 3 33.3 0 0 - 1 5 6 2 1 0 0 2 27
p476
aVMike Muscala ATL 01/11/2015 ATL vs. WAS W 4 4 1 2 50.0 0 0 - 2 2 100.0 0 1 1 0 0 0 0 0 5
p477
aVJeff Teague ATL 01/11/2015 ATL vs. WAS W 28 11 4 12 33.3 1 5 20.0 2 2 100.0 1 1 2 10 4 1 0 0 13
p478
aVDennis Schroder ATL 01/11/2015 ATL vs. WAS W 20 10 4 14 28.6 2 3 66.7 0 0 - 0 3 3 4 1 0 2 2 18
p479
aVThabo Sefolosha ATL 01/11/2015 ATL vs. WAS W 20 9 3 5 60.0 1 1 100.0 2 2 100.0 5 3 8 2 1 0 1 1 28
p480
aVKyle Korver ATL 01/11/2015 ATL vs. WAS W 32 19 6 8 75.0 5 7 71.4 2 3 66.7 0 3 3 4 1 0 2 2 29
p481
aVKent Bazemore ATL 01/11/2015 ATL vs. WAS W 12 2 1 2 50.0 0 0 - 0 0 - 0 2 2 1 1 0 0 1 -5
p482
aVDeMarre Carroll ATL 01/11/2015 ATL vs. WAS W 29 16 5 9 55.6 2 5 40.0 4 5 80.0 1 3 4 1 4 0 1 0 5
p483
aVPaul Millsap ATL 01/11/2015 ATL vs. WAS W 25 11 4 8 50.0 0 1 0.0 3 3 100.0 1 1 2 3 0 0 2 2 6
p484
aVShelvin Mack ATL 01/11/2015 ATL vs. WAS W 4 0 0 1 0.0 0 0 - 0 0 - 0 0 0 2 0 0 0 0 5
p485
aVPero Antic ATL 01/11/2015 ATL vs. WAS W 19 12 3 6 50.0 3 5 60.0 3 4 75.0 2 3 5 2 0 0 0 2 -4
p486
aVElton Brand ATL 01/09/2015 ATL @ DET W 10 0 0 3 0.0 0 0 - 0 0 - 0 2 2 1 0 1 0 0 1
p487
aVKyle Korver ATL 01/09/2015 ATL @ DET W 33 11 4 8 50.0 3 3 100.0 0 0 - 0 4 4 0 0 0 1 2 8
p488
aVKent Bazemore ATL 01/09/2015 ATL @ DET W 16 7 3 4 75.0 1 2 50.0 0 0 - 0 3 3 1 1 1 1 1 -3
p489
aVJeff Teague ATL 01/09/2015 ATL @ DET W 35 14 4 9 44.4 0 2 0.0 6 8 75.0 0 3 3 11 0 0 3 1 1
p490
aVMike Scott ATL 01/09/2015 ATL @ DET W 20 5 2 7 28.6 1 5 20.0 0 0 - 2 5 7 4 0 0 0 0 2
p491
aVThabo Sefolosha ATL 01/09/2015 ATL @ DET W 15 12 5 5 100.0 2 2 100.0 0 0 - 0 2 2 1 0 0 0 2 5
p492
aVPaul Millsap ATL 01/09/2015 ATL @ DET W 31 17 5 12 41.7 1 3 33.3 6 8 75.0 1 6 7 3 1 0 6 2 -1
p493
aVAl Horford ATL 01/09/2015 ATL @ DET W 36 19 9 21 42.9 0 1 0.0 1 3 33.3 2 14 16 4 0 1 2 2 4
p494
aVDeMarre Carroll ATL 01/09/2015 ATL @ DET W 32 13 5 8 62.5 2 4 50.0 1 3 33.3 1 3 4 0 1 0 0 0 -6
p495
aVDennis Schroder ATL 01/09/2015 ATL @ DET W 13 8 3 5 60.0 0 1 0.0 2 2 100.0 0 1 1 2 0 0 1 3 4
p496
aVDeMarre Carroll ATL 01/07/2015 ATL vs. MEM W 32 5 2 7 28.6 1 4 25.0 0 0 - 1 2 3 0 3 1 1 2 2
p497
aVKent Bazemore ATL 01/07/2015 ATL vs. MEM W 11 0 0 0 - 0 0 - 0 0 - 0 3 3 1 1 1 1 2 -7
p498
aVDennis Schroder ATL 01/07/2015 ATL vs. MEM W 14 4 1 4 25.0 0 1 0.0 2 4 50.0 1 0 1 2 3 0 3 1 1
p499
aVPaul Millsap ATL 01/07/2015 ATL vs. MEM W 33 11 2 9 22.2 0 1 0.0 7 8 87.5 2 7 9 4 1 0 4 4 15
p500
aVThabo Sefolosha ATL 01/07/2015 ATL vs. MEM W 19 4 1 3 33.3 0 0 - 2 3 66.7 0 3 3 2 2 0 0 0 12
p501
aVMike Scott ATL 01/07/2015 ATL vs. MEM W 15 8 3 5 60.0 2 2 100.0 0 0 - 2 4 6 1 0 0 0 0 -5
p502
aVKyle Korver ATL 01/07/2015 ATL vs. MEM W 34 14 5 10 50.0 4 9 44.4 0 0 - 0 3 3 1 2 0 3 0 13
p503
aVPero Antic ATL 01/07/2015 ATL vs. MEM W 17 13 4 5 80.0 3 4 75.0 2 2 100.0 0 3 3 0 1 0 2 2 17
p504
aVJeff Teague ATL 01/07/2015 ATL vs. MEM W 34 25 9 14 64.3 3 4 75.0 4 4 100.0 0 3 3 6 2 1 3 3 9
p505
aVAl Horford ATL 01/07/2015 ATL vs. MEM W 31 12 5 15 33.3 0 0 - 2 2 100.0 2 1 3 4 2 1 0 1 -7
p506
aVDennis Schroder ATL 01/05/2015 ATL @ LAC W 16 7 3 9 33.3 1 3 33.3 0 0 - 1 1 2 2 2 0 1 3 -4
p507
aVJeff Teague ATL 01/05/2015 ATL @ LAC W 32 20 6 13 46.2 3 6 50.0 5 6 83.3 1 3 4 9 4 0 4 4 13
p508
aVKent Bazemore ATL 01/05/2015 ATL @ LAC W 8 0 0 1 0.0 0 0 - 0 2 0.0 0 0 0 0 0 0 0 0 -3
p509
aVDeMarre Carroll ATL 01/05/2015 ATL @ LAC W 33 17 6 8 75.0 3 4 75.0 2 6 33.3 1 7 8 4 1 0 1 2 7
p510
aVPero Antic ATL 01/05/2015 ATL @ LAC W 18 13 3 5 60.0 2 4 50.0 5 8 62.5 0 2 2 1 0 0 2 1 3
p511
aVPaul Millsap ATL 01/05/2015 ATL @ LAC W 34 23 8 16 50.0 1 2 50.0 6 7 85.7 0 8 8 2 2 1 1 4 16
p512
aVMike Scott ATL 01/05/2015 ATL @ LAC W 9 2 0 5 0.0 0 2 0.0 2 2 100.0 2 3 5 1 0 0 2 3 -5
p513
aVAl Horford ATL 01/05/2015 ATL @ LAC W 33 16 7 15 46.7 0 0 - 2 2 100.0 2 3 5 2 1 1 0 3 10
p514
aVKyle Korver ATL 01/05/2015 ATL @ LAC W 33 9 3 7 42.9 3 6 50.0 0 0 - 0 3 3 4 1 0 1 2 11
p515
aVMike Muscala ATL 01/05/2015 ATL @ LAC W 2 0 0 1 0.0 0 0 - 0 0 - 0 0 0 0 0 0 0 0 -6
p516
aVThabo Sefolosha ATL 01/05/2015 ATL @ LAC W 21 0 0 1 0.0 0 0 - 0 0 - 0 4 4 0 2 0 0 1 3
p517
aVAl Horford ATL 01/03/2015 ATL @ POR W 33 13 6 12 50.0 0 0 - 1 4 25.0 0 5 5 4 0 1 3 5 -14
p518
aVThabo Sefolosha ATL 01/03/2015 ATL @ POR W 28 13 3 4 75.0 1 1 100.0 6 6 100.0 2 10 12 3 2 0 2 2 10
p519
aVPero Antic ATL 01/03/2015 ATL @ POR W 22 10 4 8 50.0 1 3 33.3 1 1 100.0 1 2 3 0 0 1 1 3 14
p520
aVMike Scott ATL 01/03/2015 ATL @ POR W 4 0 0 3 0.0 0 0 - 0 0 - 0 0 0 0 0 0 0 0 -3
p521
aVDennis Schroder ATL 01/03/2015 ATL @ POR W 13 5 2 5 40.0 0 0 - 1 1 100.0 0 0 0 2 1 0 2 0 -2
p522
aVJeff Teague ATL 01/03/2015 ATL @ POR W 35 22 8 16 50.0 0 2 0.0 6 6 100.0 1 2 3 6 2 0 1 0 10
p523
aVPaul Millsap ATL 01/03/2015 ATL @ POR W 37 27 11 17 64.7 0 1 0.0 5 7 71.4 3 3 6 0 1 1 4 3 17
p524
aVKyle Korver ATL 01/03/2015 ATL @ POR W 36 14 5 11 45.5 4 9 44.4 0 0 - 0 8 8 1 1 1 0 1 17
p525
aVDeMarre Carroll ATL 01/03/2015 ATL @ POR W 33 11 4 8 50.0 0 1 0.0 3 6 50.0 3 6 9 1 2 1 1 1 -9
p526
aVPaul Millsap ATL 01/02/2015 ATL @ UTA W 34 15 2 11 18.2 1 3 33.3 10 10 100.0 3 8 11 4 0 0 2 4 22
p527
aVKyle Korver ATL 01/02/2015 ATL @ UTA W 32 9 3 5 60.0 1 3 33.3 2 2 100.0 2 6 8 2 1 0 1 6 28
p528
aVDennis Schroder ATL 01/02/2015 ATL @ UTA W 12 0 0 2 0.0 0 0 - 0 0 - 1 1 2 2 0 0 1 2 -18
p529
aVJeff Teague ATL 01/02/2015 ATL @ UTA W 36 26 9 17 52.9 2 4 50.0 6 7 85.7 0 4 4 8 3 0 0 0 24
p530
aVDeMarre Carroll ATL 01/02/2015 ATL @ UTA W 34 10 3 9 33.3 0 4 0.0 4 5 80.0 1 6 7 3 1 0 2 2 1
p531
aVAl Horford ATL 01/02/2015 ATL @ UTA W 29 13 6 13 46.2 0 0 - 1 2 50.0 1 4 5 0 1 2 2 0 0
p532
aVThabo Sefolosha ATL 01/02/2015 ATL @ UTA W 18 6 2 5 40.0 0 2 0.0 2 2 100.0 1 0 1 4 3 0 1 1 -9
p533
aVMike Scott ATL 01/02/2015 ATL @ UTA W 14 8 3 8 37.5 1 4 25.0 1 2 50.0 1 0 1 1 0 0 1 0 -16
p534
aVKent Bazemore ATL 01/02/2015 ATL @ UTA W 12 5 2 6 33.3 1 3 33.3 0 0 - 0 3 3 0 0 0 0 2 -8
p535
aVElton Brand ATL 01/02/2015 ATL @ UTA W 19 6 3 5 60.0 0 0 - 0 0 - 1 4 5 0 0 1 0 0 6
p536
aVDennis Schroder ATL 12/30/2014 ATL vs. CLE W 15 11 5 7 71.4 0 0 - 1 1 100.0 0 2 2 3 1 0 4 1 2
p537
aVElton Brand ATL 12/30/2014 ATL vs. CLE W 9 0 0 1 0.0 0 0 - 0 0 - 0 0 0 0 1 1 0 3 -2
p538
aVKent Bazemore ATL 12/30/2014 ATL vs. CLE W 5 0 0 0 - 0 0 - 0 0 - 0 0 0 0 1 0 0 1 -1
p539
aVThabo Sefolosha ATL 12/30/2014 ATL vs. CLE W 25 6 2 6 33.3 1 3 33.3 1 2 50.0 1 4 5 1 3 0 2 2 8
p540
aVDeMarre Carroll ATL 12/30/2014 ATL vs. CLE W 28 7 2 8 25.0 0 4 0.0 3 3 100.0 2 7 9 1 1 0 0 4 7
p541
aVKyle Korver ATL 12/30/2014 ATL vs. CLE W 40 19 7 11 63.6 5 8 62.5 0 0 - 1 7 8 1 0 1 2 2 3
p542
aVJeff Teague ATL 12/30/2014 ATL vs. CLE W 35 23 8 13 61.5 1 4 25.0 6 10 60.0 2 3 5 11 3 0 5 2 9
p543
aVMike Scott ATL 12/30/2014 ATL vs. CLE W 21 12 4 9 44.4 2 4 50.0 2 2 100.0 1 4 5 1 1 0 1 0 7
p544
aVPaul Millsap ATL 12/30/2014 ATL vs. CLE W 37 26 10 17 58.8 0 2 0.0 6 6 100.0 0 9 9 3 2 3 0 2 6
p545
aVPero Antic ATL 12/30/2014 ATL vs. CLE W 24 5 2 7 28.6 1 4 25.0 0 2 0.0 0 1 1 2 0 0 1 2 1
p546
aVPaul Millsap ATL 12/27/2014 ATL @ MIL W 36 17 8 19 42.1 1 5 20.0 0 0 - 3 5 8 3 0 0 0 2 20
p547
aVDennis Schroder ATL 12/27/2014 ATL @ MIL W 6 0 0 3 0.0 0 1 0.0 0 0 - 1 0 1 0 0 0 1 0 -4
p548
aVThabo Sefolosha ATL 12/27/2014 ATL @ MIL W 24 8 3 6 50.0 2 4 50.0 0 0 - 1 5 6 1 3 0 1 2 -25
p549
aVMike Scott ATL 12/27/2014 ATL @ MIL W 10 2 1 5 20.0 0 1 0.0 0 0 - 0 1 1 0 0 0 0 1 -16
p550
aVKyle Korver ATL 12/27/2014 ATL @ MIL W 34 6 2 9 22.2 2 7 28.6 0 1 0.0 0 4 4 4 1 0 3 3 18
p551
aVAl Horford ATL 12/27/2014 ATL @ MIL W 33 20 8 20 40.0 0 0 - 4 6 66.7 2 7 9 4 2 2 0 2 13
p552
aVJeff Teague ATL 12/27/2014 ATL @ MIL W 37 25 7 14 50.0 1 4 25.0 10 10 100.0 1 7 8 7 1 0 2 3 15
p553
aVPero Antic ATL 12/27/2014 ATL @ MIL W 16 3 1 5 20.0 1 3 33.3 0 0 - 3 2 5 1 0 1 2 3 -5
p554
aVDeMarre Carroll ATL 12/27/2014 ATL @ MIL W 36 9 3 8 37.5 2 4 50.0 1 2 50.0 6 2 8 3 2 0 1 1 16
p555
aVShelvin Mack ATL 12/27/2014 ATL @ MIL W 6 0 0 1 0.0 0 0 - 0 0 - 0 1 1 2 0 1 1 0 -7
p556
aVShelvin Mack ATL 12/26/2014 ATL vs. MIL L 17 2 1 3 33.3 0 1 0.0 0 0 - 0 2 2 4 1 0 3 0 -3
p557
aVJeff Teague ATL 12/26/2014 ATL vs. MIL L 24 12 5 10 50.0 0 3 0.0 2 2 100.0 0 0 0 4 3 1 3 4 -9
p558
aVAdreian Payne ATL 12/26/2014 ATL vs. MIL L 13 2 1 4 25.0 0 1 0.0 0 0 - 1 2 3 0 0 0 0 2 -10
p559
aVElton Brand ATL 12/26/2014 ATL vs. MIL L 8 0 0 1 0.0 0 0 - 0 0 - 1 0 1 0 1 0 0 1 -8
p560
aVMike Scott ATL 12/26/2014 ATL vs. MIL L 14 5 2 4 50.0 1 1 100.0 0 0 - 1 2 3 0 0 0 1 0 -12
p561
aVKent Bazemore ATL 12/26/2014 ATL vs. MIL L 15 3 1 4 25.0 1 2 50.0 0 0 - 0 1 1 1 0 0 0 0 -16
p562
aVKyle Korver ATL 12/26/2014 ATL vs. MIL L 28 3 1 8 12.5 1 6 16.7 0 0 - 0 3 3 4 0 0 2 2 -15
p563
aVAl Horford ATL 12/26/2014 ATL vs. MIL L 25 13 5 9 55.6 0 0 - 3 4 75.0 0 5 5 2 0 2 3 1 -16
p564
aVMike Muscala ATL 12/26/2014 ATL vs. MIL L 5 4 2 2 100.0 0 0 - 0 0 - 0 1 1 1 0 0 0 0 -2
p565
aVThabo Sefolosha ATL 12/26/2014 ATL vs. MIL L 18 8 4 6 66.7 0 0 - 0 0 - 1 2 3 0 0 0 0 2 -12
p566
aVPaul Millsap ATL 12/26/2014 ATL vs. MIL L 30 22 8 10 80.0 1 1 100.0 5 6 83.3 3 8 11 2 2 1 4 0 -12
p567
aVDeMarre Carroll ATL 12/26/2014 ATL vs. MIL L 24 0 0 6 0.0 0 5 0.0 0 0 - 1 3 4 0 1 0 3 3 -14
p568
aVDennis Schroder ATL 12/26/2014 ATL vs. MIL L 19 3 1 9 11.1 0 3 0.0 1 2 50.0 0 1 1 2 0 0 3 4 -21
p569
aVDeMarre Carroll ATL 12/23/2014 ATL vs. LAC W 37 25 9 12 75.0 5 6 83.3 2 3 66.7 3 7 10 0 1 0 0 3 -15
p570
aVJeff Teague ATL 12/23/2014 ATL vs. LAC W 24 9 3 8 37.5 1 3 33.3 2 3 66.7 0 2 2 6 0 0 1 0 23
p571
aVDennis Schroder ATL 12/23/2014 ATL vs. LAC W 24 5 2 8 25.0 0 0 - 1 2 50.0 0 2 2 4 1 0 4 3 -18
p572
aVKent Bazemore ATL 12/23/2014 ATL vs. LAC W 3 0 0 1 0.0 0 0 - 0 0 - 0 1 1 0 0 0 0 1 -8
p573
aVKyle Korver ATL 12/23/2014 ATL vs. LAC W 37 14 4 9 44.4 4 7 57.1 2 2 100.0 1 2 3 4 0 0 1 3 5
p574
aVPaul Millsap ATL 12/23/2014 ATL vs. LAC W 34 17 4 12 33.3 1 4 25.0 8 9 88.9 1 8 9 7 1 1 2 3 7
p575
aVMike Scott ATL 12/23/2014 ATL vs. LAC W 10 5 1 1 100.0 0 0 - 3 4 75.0 0 2 2 0 0 0 0 0 0
p576
aVThabo Sefolosha ATL 12/23/2014 ATL vs. LAC W 19 9 3 5 60.0 1 2 50.0 2 2 100.0 0 3 3 3 1 0 2 2 22
p577
aVElton Brand ATL 12/23/2014 ATL vs. LAC W 17 3 1 2 50.0 0 0 - 1 2 50.0 2 4 6 0 2 2 2 3 6
p578
aVAl Horford ATL 12/23/2014 ATL vs. LAC W 35 20 7 18 38.9 0 1 0.0 6 8 75.0 2 3 5 4 0 0 2 3 -7
p579
aVPaul Millsap ATL 12/22/2014 ATL @ DAL W 38 13 5 12 41.7 1 2 50.0 2 4 50.0 1 11 12 7 0 2 4 3 9
p580
aVKent Bazemore ATL 12/22/2014 ATL @ DAL W 11 2 0 1 0.0 0 0 - 2 2 100.0 0 1 1 0 0 1 1 1 -7
p581
aVKyle Korver ATL 12/22/2014 ATL @ DAL W 31 18 4 8 50.0 3 6 50.0 7 8 87.5 0 4 4 3 2 0 2 3 -3
p582
aVMike Scott ATL 12/22/2014 ATL @ DAL W 9 4 2 4 50.0 0 0 - 0 0 - 0 3 3 1 0 0 0 3 -4
p583
aVThabo Sefolosha ATL 12/22/2014 ATL @ DAL W 17 7 3 3 100.0 1 1 100.0 0 0 - 1 1 2 2 2 1 0 0 3
p584
aVDeMarre Carroll ATL 12/22/2014 ATL @ DAL W 37 15 6 15 40.0 1 5 20.0 2 3 66.7 1 6 7 0 1 0 1 3 16
p585
aVShelvin Mack ATL 12/22/2014 ATL @ DAL W 17 2 1 6 16.7 0 2 0.0 0 0 - 0 1 1 4 0 0 1 0 -7
p586
aVDennis Schroder ATL 12/22/2014 ATL @ DAL W 31 22 9 15 60.0 0 1 0.0 4 8 50.0 1 2 3 6 1 0 5 4 10
p587
aVPero Antic ATL 12/22/2014 ATL @ DAL W 16 5 2 4 50.0 1 1 100.0 0 0 - 1 2 3 1 0 1 3 2 -2
p588
aVAl Horford ATL 12/22/2014 ATL @ DAL W 33 17 8 13 61.5 0 1 0.0 1 2 50.0 1 6 7 2 0 1 0 2 0
p589
aVKent Bazemore ATL 12/20/2014 ATL @ HOU W 12 4 1 3 33.3 0 0 - 2 4 50.0 0 2 2 1 1 0 1 0 -3
p590
aVShelvin Mack ATL 12/20/2014 ATL @ HOU W 18 9 4 8 50.0 0 2 0.0 1 1 100.0 0 3 3 4 0 0 0 1 6
p591
aVPaul Millsap ATL 12/20/2014 ATL @ HOU W 30 14 6 11 54.5 0 2 0.0 2 3 66.7 1 5 6 3 2 3 4 2 6
p592
aVThabo Sefolosha ATL 12/20/2014 ATL @ HOU W 12 7 3 4 75.0 1 2 50.0 0 0 - 0 5 5 3 2 1 2 0 6
p593
aVMike Scott ATL 12/20/2014 ATL @ HOU W 18 6 3 6 50.0 0 2 0.0 0 0 - 0 0 0 1 0 0 0 1 1
p594
aVAl Horford ATL 12/20/2014 ATL @ HOU W 32 14 6 10 60.0 0 1 0.0 2 2 100.0 3 5 8 5 1 3 1 2 14
p595
aVKyle Korver ATL 12/20/2014 ATL @ HOU W 38 22 7 12 58.3 4 8 50.0 4 4 100.0 0 3 3 2 1 0 2 2 8
p596
aVDennis Schroder ATL 12/20/2014 ATL @ HOU W 30 8 3 9 33.3 0 1 0.0 2 2 100.0 0 6 6 6 0 0 4 4 1
p597
aVDeMarre Carroll ATL 12/20/2014 ATL @ HOU W 34 13 3 8 37.5 3 5 60.0 4 6 66.7 0 2 2 1 0 2 0 1 1
p598
aVPero Antic ATL 12/20/2014 ATL @ HOU W 16 7 2 3 66.7 2 3 66.7 1 2 50.0 0 2 2 0 0 0 1 2 -5
p599
aVKyle Korver ATL 12/17/2014 ATL @ CLE W 33 4 1 3 33.3 1 3 33.3 1 1 100.0 0 5 5 1 1 1 2 1 21
p600
aVMike Muscala ATL 12/17/2014 ATL @ CLE W 5 4 2 2 100.0 0 0 - 0 0 - 0 1 1 0 0 0 0 1 5
p601
aVPaul Millsap ATL 12/17/2014 ATL @ CLE W 23 14 7 11 63.6 0 1 0.0 0 0 - 2 6 8 4 1 0 0 2 27
p602
aVAl Horford ATL 12/17/2014 ATL @ CLE W 31 20 10 14 71.4 0 2 0.0 0 0 - 0 2 2 4 0 2 1 1 14
p603
aVKent Bazemore ATL 12/17/2014 ATL @ CLE W 20 9 3 7 42.9 2 3 66.7 1 2 50.0 0 4 4 4 0 2 1 2 23
p604
aVDennis Schroder ATL 12/17/2014 ATL @ CLE W 22 10 4 6 66.7 0 1 0.0 2 2 100.0 0 2 2 10 0 0 1 1 4
p605
aVJohn Jenkins ATL 12/17/2014 ATL @ CLE W 3 0 0 0 - 0 0 - 0 0 - 0 1 1 0 0 0 0 0 2
p606
aVPero Antic ATL 12/17/2014 ATL @ CLE W 13 11 4 6 66.7 1 2 50.0 2 3 66.7 2 2 4 2 0 0 0 4 10
p607
aVShelvin Mack ATL 12/17/2014 ATL @ CLE W 23 24 7 8 87.5 6 6 100.0 4 4 100.0 0 2 2 3 0 0 1 0 23
p608
aVDeMarre Carroll ATL 12/17/2014 ATL @ CLE W 26 13 5 9 55.6 3 6 50.0 0 0 - 0 4 4 0 0 0 1 3 7
p609
aVThabo Sefolosha ATL 12/17/2014 ATL @ CLE W 17 3 1 3 33.3 1 1 100.0 0 0 - 2 5 7 4 0 0 1 1 4
p610
aVMike Scott ATL 12/17/2014 ATL @ CLE W 25 15 5 7 71.4 2 3 66.7 3 4 75.0 0 0 0 4 1 0 1 1 5
p611
aVMike Scott ATL 12/15/2014 ATL vs. CHI W 13 5 2 5 40.0 1 3 33.3 0 0 - 0 2 2 1 0 0 0 0 -7
p612
aVKent Bazemore ATL 12/15/2014 ATL vs. CHI W 18 5 1 5 20.0 0 2 0.0 3 3 100.0 0 4 4 1 0 2 0 3 4
p613
aVDennis Schroder ATL 12/15/2014 ATL vs. CHI W 13 4 2 6 33.3 0 1 0.0 0 0 - 0 1 1 2 0 0 0 1 -7
p614
aVDeMarre Carroll ATL 12/15/2014 ATL vs. CHI W 28 7 3 5 60.0 1 2 50.0 0 0 - 0 3 3 1 2 1 1 4 -8
p615
aVKyle Korver ATL 12/15/2014 ATL vs. CHI W 35 12 4 9 44.4 4 8 50.0 0 0 - 1 3 4 4 0 2 0 1 12
p616
aVPaul Millsap ATL 12/15/2014 ATL vs. CHI W 36 17 6 16 37.5 1 2 50.0 4 6 66.7 2 6 8 2 4 0 1 2 14
p617
aVJeff Teague ATL 12/15/2014 ATL vs. CHI W 35 12 5 12 41.7 0 2 0.0 2 2 100.0 0 3 3 7 1 1 2 1 14
p618
aVElton Brand ATL 12/15/2014 ATL vs. CHI W 14 8 3 5 60.0 0 0 - 2 2 100.0 1 1 2 0 0 1 0 2 3
p619
aVThabo Sefolosha ATL 12/15/2014 ATL vs. CHI W 15 2 0 1 0.0 0 0 - 2 2 100.0 0 3 3 2 1 0 0 2 6
p620
aVAl Horford ATL 12/15/2014 ATL vs. CHI W 33 21 10 19 52.6 0 1 0.0 1 2 50.0 1 9 10 6 2 0 5 1 4
p621
aVElton Brand ATL 12/13/2014 ATL @ ORL L 13 0 0 1 0.0 0 0 - 0 0 - 2 3 5 0 0 0 0 1 4
p622
aVAl Horford ATL 12/13/2014 ATL @ ORL L 35 18 9 15 60.0 0 0 - 0 0 - 1 7 8 2 1 2 0 1 -5
p623
aVKent Bazemore ATL 12/13/2014 ATL @ ORL L 17 10 4 5 80.0 2 3 66.7 0 0 - 0 2 2 1 0 0 0 3 -3
p624
aVDeMarre Carroll ATL 12/13/2014 ATL @ ORL L 34 7 2 8 25.0 1 5 20.0 2 2 100.0 0 6 6 1 0 0 1 3 -11
p625
aVPaul Millsap ATL 12/13/2014 ATL @ ORL L 31 9 3 12 25.0 0 3 0.0 3 4 75.0 4 6 10 2 0 0 2 3 -1
p626
aVMike Scott ATL 12/13/2014 ATL @ ORL L 17 10 3 7 42.9 2 5 40.0 2 2 100.0 0 1 1 2 0 0 0 1 3
p627
aVDennis Schroder ATL 12/13/2014 ATL @ ORL L 18 10 4 13 30.8 0 3 0.0 2 2 100.0 1 3 4 3 0 0 3 2 0
p628
aVJeff Teague ATL 12/13/2014 ATL @ ORL L 33 24 8 18 44.4 2 4 50.0 6 8 75.0 1 2 3 8 3 1 3 3 4
p629
aVThabo Sefolosha ATL 12/13/2014 ATL @ ORL L 11 0 0 0 - 0 0 - 0 0 - 0 1 1 1 0 1 1 1 -3
p630
aVKyle Korver ATL 12/13/2014 ATL @ ORL L 31 11 2 5 40.0 1 4 25.0 6 6 100.0 0 1 1 4 0 0 0 1 7
p631
aVAl Horford ATL 12/12/2014 ATL vs. ORL W 34 17 8 16 50.0 1 1 100.0 0 0 - 1 6 7 2 1 2 2 2 -7
p632
aVPaul Millsap ATL 12/12/2014 ATL vs. ORL W 33 23 7 15 46.7 3 5 60.0 6 10 60.0 1 7 8 2 1 0 2 2 0
p633
aVThabo Sefolosha ATL 12/12/2014 ATL vs. ORL W 22 2 1 4 25.0 0 2 0.0 0 0 - 1 2 3 1 0 1 0 1 9
p634
aVDeMarre Carroll ATL 12/12/2014 ATL vs. ORL W 32 12 3 11 27.3 1 6 16.7 5 5 100.0 0 2 2 3 0 0 1 4 -2
p635
aVKyle Korver ATL 12/12/2014 ATL vs. ORL W 31 6 2 5 40.0 2 4 50.0 0 0 - 1 4 5 3 3 0 1 0 0
p636
aVElton Brand ATL 12/12/2014 ATL vs. ORL W 12 1 0 0 - 0 0 - 1 2 50.0 0 2 2 0 1 0 1 1 11
p637
aVMike Scott ATL 12/12/2014 ATL vs. ORL W 17 8 2 5 40.0 1 2 50.0 3 4 75.0 0 3 3 1 1 0 0 0 11
p638
aVJeff Teague ATL 12/12/2014 ATL vs. ORL W 33 13 5 13 38.5 1 7 14.3 2 2 100.0 1 4 5 5 2 0 3 1 -1
p639
aVDennis Schroder ATL 12/12/2014 ATL vs. ORL W 19 5 1 7 14.3 0 1 0.0 3 4 75.0 0 4 4 5 2 0 2 1 12
p640
aVKent Bazemore ATL 12/12/2014 ATL vs. ORL W 1 0 0 0 - 0 0 - 0 0 - 0 0 0 0 0 0 0 0 -3
p641
aVShelvin Mack ATL 12/12/2014 ATL vs. ORL W 7 0 0 2 0.0 0 1 0.0 0 0 - 0 3 3 2 1 0 0 0 0
p642
aVDennis Schroder ATL 12/10/2014 ATL vs. PHI W 21 5 2 9 22.2 0 2 0.0 1 2 50.0 0 4 4 3 4 0 0 1 11
p643
aVDeMarre Carroll ATL 12/10/2014 ATL vs. PHI W 26 14 5 12 41.7 2 5 40.0 2 3 66.7 6 5 11 3 3 0 0 0 7
p644
aVPaul Millsap ATL 12/10/2014 ATL vs. PHI W 34 17 7 13 53.8 1 3 33.3 2 2 100.0 1 7 8 3 1 0 3 4 16
p645
aVShelvin Mack ATL 12/10/2014 ATL vs. PHI W 20 6 2 7 28.6 1 5 20.0 1 2 50.0 1 1 2 1 0 0 3 1 0
p646
aVKyle Korver ATL 12/10/2014 ATL vs. PHI W 28 17 6 11 54.5 5 7 71.4 0 0 - 0 2 2 2 3 1 2 1 17
p647
aVAl Horford ATL 12/10/2014 ATL vs. PHI W 27 11 5 12 41.7 0 0 - 1 2 50.0 1 6 7 1 1 0 0 1 14
p648
aVJeff Teague ATL 12/10/2014 ATL vs. PHI W 25 4 1 5 20.0 0 2 0.0 2 2 100.0 1 0 1 6 2 0 2 2 9
p649
aVThabo Sefolosha ATL 12/10/2014 ATL vs. PHI W 20 0 0 4 0.0 0 2 0.0 0 0 - 1 8 9 4 0 0 1 1 8
p650
aVKent Bazemore ATL 12/10/2014 ATL vs. PHI W 5 4 2 3 66.7 0 0 - 0 0 - 0 1 1 0 0 0 0 1 -6
p651
aVJohn Jenkins ATL 12/10/2014 ATL vs. PHI W 3 0 0 1 0.0 0 0 - 0 0 - 0 0 0 0 0 0 0 2 -4
p652
aVPero Antic ATL 12/10/2014 ATL vs. PHI W 13 5 2 6 33.3 1 4 25.0 0 0 - 0 0 0 0 0 0 2 1 1
p653
aVMike Muscala ATL 12/10/2014 ATL vs. PHI W 19 12 6 8 75.0 0 0 - 0 0 - 5 2 7 3 1 0 1 1 7
p654
aVMike Muscala ATL 12/08/2014 ATL @ IND W 3 0 0 0 - 0 0 - 0 0 - 0 0 0 0 0 1 0 1 -4
p655
aVShelvin Mack ATL 12/08/2014 ATL @ IND W 18 3 1 5 20.0 0 1 0.0 1 1 100.0 0 2 2 4 0 0 1 0 -1
p656
aVMike Scott ATL 12/08/2014 ATL @ IND W 15 6 3 5 60.0 0 1 0.0 0 0 - 0 1 1 2 0 0 2 2 -2
p657
aVKent Bazemore ATL 12/08/2014 ATL @ IND W 3 0 0 1 0.0 0 0 - 0 0 - 0 3 3 0 0 0 0 1 -4
p658
aVAl Horford ATL 12/08/2014 ATL @ IND W 30 25 9 18 50.0 1 1 100.0 6 6 100.0 2 6 8 3 1 3 2 2 10
p659
aVPero Antic ATL 12/08/2014 ATL @ IND W 15 7 2 5 40.0 1 3 33.3 2 2 100.0 1 2 3 1 1 1 0 5 20
p660
aVDennis Schroder ATL 12/08/2014 ATL @ IND W 14 6 3 4 75.0 0 0 - 0 0 - 1 2 3 1 0 0 4 3 0
p661
aVThabo Sefolosha ATL 12/08/2014 ATL @ IND W 16 8 4 7 57.1 0 0 - 0 0 - 1 5 6 0 1 0 2 0 1
p662
aVKyle Korver ATL 12/08/2014 ATL @ IND W 30 13 4 7 57.1 3 6 50.0 2 2 100.0 0 3 3 4 1 0 1 2 15
p663
aVJeff Teague ATL 12/08/2014 ATL @ IND W 32 21 8 11 72.7 1 1 100.0 4 5 80.0 0 3 3 7 3 0 1 0 20
p664
aVPaul Millsap ATL 12/08/2014 ATL @ IND W 33 7 2 6 33.3 0 2 0.0 3 9 33.3 0 8 8 2 2 2 2 3 8
p665
aVDeMarre Carroll ATL 12/08/2014 ATL @ IND W 32 12 4 8 50.0 3 6 50.0 1 2 50.0 1 6 7 3 2 0 1 1 17
p666
aVDeMarre Carroll ATL 12/07/2014 ATL vs. DEN W 34 11 5 13 38.5 0 3 0.0 1 2 50.0 4 5 9 1 2 0 1 3 1
p667
aVMike Scott ATL 12/07/2014 ATL vs. DEN W 17 7 2 6 33.3 1 1 100.0 2 2 100.0 0 2 2 2 1 0 1 1 11
p668
aVKyle Korver ATL 12/07/2014 ATL vs. DEN W 34 15 6 12 50.0 3 7 42.9 0 0 - 0 5 5 3 0 0 1 3 0
p669
aVDennis Schroder ATL 12/07/2014 ATL vs. DEN W 18 7 2 7 28.6 1 1 100.0 2 2 100.0 1 2 3 3 1 0 2 1 7
p670
aVPaul Millsap ATL 12/07/2014 ATL vs. DEN W 31 23 6 13 46.2 4 5 80.0 7 10 70.0 0 2 2 2 4 0 2 1 1
p671
aVPero Antic ATL 12/07/2014 ATL vs. DEN W 15 7 3 7 42.9 0 3 0.0 1 2 50.0 2 4 6 1 0 0 0 0 8
p672
aVJeff Teague ATL 12/07/2014 ATL vs. DEN W 30 9 4 13 30.8 1 4 25.0 0 0 - 1 1 2 7 1 0 3 0 3
p673
aVKent Bazemore ATL 12/07/2014 ATL vs. DEN W 2 0 0 0 - 0 0 - 0 0 - 0 1 1 0 0 0 1 0 8
p674
aVAl Horford ATL 12/07/2014 ATL vs. DEN W 33 11 5 9 55.6 0 1 0.0 1 1 100.0 1 7 8 3 0 3 0 3 4
p675
aVShelvin Mack ATL 12/07/2014 ATL vs. DEN W 13 4 2 3 66.7 0 0 - 0 0 - 0 2 2 4 0 0 0 1 10
p676
aVThabo Sefolosha ATL 12/07/2014 ATL vs. DEN W 13 2 1 4 25.0 0 2 0.0 0 0 - 2 1 3 0 0 1 1 2 7
p677
aVDeMarre Carroll ATL 12/05/2014 ATL @ BKN W 25 18 7 10 70.0 4 5 80.0 0 0 - 1 5 6 1 0 1 1 1 12
p678
aVPero Antic ATL 12/05/2014 ATL @ BKN W 17 4 0 4 0.0 0 3 0.0 4 7 57.1 0 0 0 1 0 0 1 2 14
p679
aVMike Muscala ATL 12/05/2014 ATL @ BKN W 8 2 1 2 50.0 0 0 - 0 0 - 1 2 3 0 0 0 1 2 -4
p680
aVJeff Teague ATL 12/05/2014 ATL @ BKN W 25 14 5 9 55.6 2 4 50.0 2 2 100.0 0 4 4 5 3 0 1 3 12
p681
aVDennis Schroder ATL 12/05/2014 ATL @ BKN W 18 13 5 9 55.6 1 2 50.0 2 3 66.7 0 1 1 5 4 0 0 2 20
p682
aVShelvin Mack ATL 12/05/2014 ATL @ BKN W 21 2 1 7 14.3 0 3 0.0 0 1 0.0 1 2 3 1 1 0 0 2 9
p683
aVKyle Korver ATL 12/05/2014 ATL @ BKN W 25 7 2 5 40.0 2 4 50.0 1 1 100.0 0 4 4 4 0 0 0 0 12
p684
aVMike Scott ATL 12/05/2014 ATL @ BKN W 13 7 3 6 50.0 1 4 25.0 0 0 - 1 1 2 1 0 0 1 4 14
p685
aVElton Brand ATL 12/05/2014 ATL @ BKN W 7 0 0 1 0.0 0 0 - 0 0 - 0 1 1 0 0 0 0 1 -7
p686
aVKent Bazemore ATL 12/05/2014 ATL @ BKN W 9 2 1 2 50.0 0 1 0.0 0 0 - 0 2 2 0 0 0 2 2 -3
p687
aVPaul Millsap ATL 12/05/2014 ATL @ BKN W 27 17 6 10 60.0 2 4 50.0 3 4 75.0 2 7 9 2 1 1 1 1 16
p688
aVAl Horford ATL 12/05/2014 ATL @ BKN W 23 7 3 10 30.0 0 0 - 1 2 50.0 0 5 5 2 2 1 1 1 13
p689
aVThabo Sefolosha ATL 12/05/2014 ATL @ BKN W 21 5 1 6 16.7 1 4 25.0 2 4 50.0 0 6 6 0 1 1 1 1 7
p690
aVMike Scott ATL 12/03/2014 ATL @ MIA W 13 9 4 5 80.0 1 1 100.0 0 0 - 0 0 0 0 0 0 0 2 1
p691
aVDeMarre Carroll ATL 12/03/2014 ATL @ MIA W 22 6 2 9 22.2 0 2 0.0 2 3 66.7 2 3 5 1 1 0 1 3 -3
p692
aVDennis Schroder ATL 12/03/2014 ATL @ MIA W 22 16 6 9 66.7 2 3 66.7 2 2 100.0 0 1 1 3 1 0 1 1 9
p693
aVKyle Korver ATL 12/03/2014 ATL @ MIA W 35 18 6 12 50.0 3 7 42.9 3 3 100.0 0 6 6 2 1 0 2 4 7
p694
aVShelvin Mack ATL 12/03/2014 ATL @ MIA W 14 5 2 5 40.0 1 3 33.3 0 0 - 1 1 2 3 1 0 1 1 2
p695
aVAl Horford ATL 12/03/2014 ATL @ MIA W 29 6 2 3 66.7 0 0 - 2 2 100.0 0 2 2 3 0 1 2 2 6
p696
aVJeff Teague ATL 12/03/2014 ATL @ MIA W 33 27 8 11 72.7 3 5 60.0 8 8 100.0 0 5 5 6 3 0 2 1 1
p697
aVPaul Millsap ATL 12/03/2014 ATL @ MIA W 34 14 6 12 50.0 1 1 100.0 1 3 33.3 2 4 6 5 2 0 4 4 7
p698
aVThabo Sefolosha ATL 12/03/2014 ATL @ MIA W 17 7 3 4 75.0 1 1 100.0 0 0 - 0 2 2 2 0 0 0 2 14
p699
aVKent Bazemore ATL 12/03/2014 ATL @ MIA W 0 0 0 0 - 0 0 - 0 0 - 0 0 0 0 0 0 0 0 0
p700
aVPero Antic ATL 12/03/2014 ATL @ MIA W 20 4 1 4 25.0 0 2 0.0 2 2 100.0 0 1 1 0 0 0 3 4 6
p701
aVKyle Korver ATL 12/02/2014 ATL vs. BOS W 37 24 8 9 88.9 6 7 85.7 2 2 100.0 1 5 6 4 1 1 2 0 3
p702
aVMike Scott ATL 12/02/2014 ATL vs. BOS W 6 4 2 2 100.0 0 0 - 0 0 - 0 1 1 0 0 0 0 0 -12
p703
aVDennis Schroder ATL 12/02/2014 ATL vs. BOS W 23 15 6 12 50.0 0 2 0.0 3 5 60.0 0 3 3 4 0 0 3 1 4
p704
aVKent Bazemore ATL 12/02/2014 ATL vs. BOS W 10 7 3 3 100.0 1 1 100.0 0 0 - 1 1 2 1 0 0 0 1 7
p705
aVAl Horford ATL 12/02/2014 ATL vs. BOS W 32 16 8 13 61.5 0 0 - 0 0 - 0 6 6 2 0 1 1 1 -6
p706
aVDeMarre Carroll ATL 12/02/2014 ATL vs. BOS W 35 5 2 8 25.0 1 4 25.0 0 0 - 0 3 3 3 3 0 3 3 15
p707
aVPaul Millsap ATL 12/02/2014 ATL vs. BOS W 38 19 7 15 46.7 0 2 0.0 5 5 100.0 0 6 6 7 3 3 2 4 9
p708
aVThabo Sefolosha ATL 12/02/2014 ATL vs. BOS W 7 0 0 3 0.0 0 0 - 0 0 - 0 0 0 1 0 0 0 0 -11
p709
aVShelvin Mack ATL 12/02/2014 ATL vs. BOS W 6 0 0 2 0.0 0 2 0.0 0 0 - 0 1 1 2 0 1 0 0 -6
p710
aVPero Antic ATL 12/02/2014 ATL vs. BOS W 20 10 3 6 50.0 2 4 50.0 2 2 100.0 2 1 3 3 0 2 1 2 17
p711
aVJeff Teague ATL 12/02/2014 ATL vs. BOS W 25 9 4 9 44.4 1 2 50.0 0 0 - 0 0 0 9 1 0 4 2 0
p712
aVPaul Millsap ATL 11/29/2014 ATL vs. CHA W 24 18 7 10 70.0 0 1 0.0 4 5 80.0 1 5 6 1 3 0 1 2 28
p713
aVJeff Teague ATL 11/29/2014 ATL vs. CHA W 21 6 2 7 28.6 2 3 66.7 0 0 - 0 2 2 10 0 1 4 2 24
p714
aVElton Brand ATL 11/29/2014 ATL vs. CHA W 28 9 4 7 57.1 0 0 - 1 2 50.0 3 6 9 3 0 1 1 2 0
p715
aVMike Muscala ATL 11/29/2014 ATL vs. CHA W 12 4 2 6 33.3 0 2 0.0 0 0 - 1 1 2 0 2 0 2 2 -3
p716
aVDennis Schroder ATL 11/29/2014 ATL vs. CHA W 17 12 4 8 50.0 2 2 100.0 2 2 100.0 0 1 1 1 0 0 0 1 10
p717
aVThabo Sefolosha ATL 11/29/2014 ATL vs. CHA W 6 0 0 2 0.0 0 1 0.0 0 0 - 0 1 1 1 0 0 0 0 -4
p718
aVAl Horford ATL 11/29/2014 ATL vs. CHA W 19 11 5 6 83.3 1 1 100.0 0 0 - 0 4 4 2 0 2 0 1 31
p719
aVMike Scott ATL 11/29/2014 ATL vs. CHA W 22 14 5 7 71.4 2 3 66.7 2 2 100.0 0 3 3 1 0 0 3 4 2
p720
aVKent Bazemore ATL 11/29/2014 ATL vs. CHA W 22 0 0 3 0.0 0 1 0.0 0 0 - 0 8 8 2 2 0 1 2 5
p721
aVShelvin Mack ATL 11/29/2014 ATL vs. CHA W 24 9 3 8 37.5 2 5 40.0 1 1 100.0 0 2 2 6 0 0 0 1 8
p722
aVKyle Korver ATL 11/29/2014 ATL vs. CHA W 22 12 4 5 80.0 2 3 66.7 2 2 100.0 0 4 4 2 0 1 0 0 21
p723
aVDeMarre Carroll ATL 11/29/2014 ATL vs. CHA W 24 10 4 6 66.7 1 1 100.0 1 2 50.0 0 2 2 2 1 0 0 0 28
p724
aVDeMarre Carroll ATL 11/28/2014 ATL vs. NOP W 33 19 6 9 66.7 1 2 50.0 6 6 100.0 0 3 3 0 1 0 2 4 9
p725
aVPaul Millsap ATL 11/28/2014 ATL vs. NOP W 37 13 5 9 55.6 0 1 0.0 3 3 100.0 2 7 9 4 4 2 4 3 5
p726
aVShelvin Mack ATL 11/28/2014 ATL vs. NOP W 10 2 1 3 33.3 0 1 0.0 0 0 - 1 0 1 3 0 0 2 0 7
p727
aVKent Bazemore ATL 11/28/2014 ATL vs. NOP W 15 3 1 3 33.3 0 1 0.0 1 3 33.3 1 4 5 0 0 2 0 1 -2
p728
aVMike Scott ATL 11/28/2014 ATL vs. NOP W 4 0 0 3 0.0 0 1 0.0 0 0 - 1 1 2 0 0 0 0 0 -3
p729
aVDennis Schroder ATL 11/28/2014 ATL vs. NOP W 17 11 5 9 55.6 0 1 0.0 1 2 50.0 0 2 2 2 0 0 3 3 -3
p730
aVAl Horford ATL 11/28/2014 ATL vs. NOP W 34 10 5 15 33.3 0 0 - 0 0 - 4 6 10 4 0 3 2 1 6
p731
aVJeff Teague ATL 11/28/2014 ATL vs. NOP W 36 26 10 16 62.5 1 3 33.3 5 5 100.0 2 2 4 7 1 0 4 1 13
p732
aVKyle Korver ATL 11/28/2014 ATL vs. NOP W 33 11 3 6 50.0 2 5 40.0 3 3 100.0 0 4 4 5 0 0 1 0 3
p733
aVPero Antic ATL 11/28/2014 ATL vs. NOP W 22 5 2 3 66.7 1 2 50.0 0 0 - 0 2 2 1 0 0 0 1 10
p734
aVAl Horford ATL 11/26/2014 ATL vs. TOR L 32 23 11 16 68.8 0 1 0.0 1 2 50.0 2 7 9 4 0 2 1 1 -2
p735
aVShelvin Mack ATL 11/26/2014 ATL vs. TOR L 15 3 1 7 14.3 0 3 0.0 1 1 100.0 0 1 1 0 0 0 1 2 -10
p736
aVDennis Schroder ATL 11/26/2014 ATL vs. TOR L 16 13 5 6 83.3 1 1 100.0 2 2 100.0 0 1 1 6 0 0 0 5 -12
p737
aVKent Bazemore ATL 11/26/2014 ATL vs. TOR L 4 2 1 2 50.0 0 0 - 0 0 - 1 1 2 0 0 0 0 1 -3
p738
aVKyle Korver ATL 11/26/2014 ATL vs. TOR L 37 19 6 9 66.7 4 6 66.7 3 3 100.0 1 3 4 3 0 1 3 2 1
p739
aVJeff Teague ATL 11/26/2014 ATL vs. TOR L 34 24 7 14 50.0 2 3 66.7 8 8 100.0 0 3 3 12 1 0 5 5 -3
p740
aVPero Antic ATL 11/26/2014 ATL vs. TOR L 17 5 1 3 33.3 1 2 50.0 2 2 100.0 0 3 3 1 0 0 1 1 -4
p741
aVPaul Millsap ATL 11/26/2014 ATL vs. TOR L 36 8 3 9 33.3 0 3 0.0 2 4 50.0 3 2 5 4 1 0 1 2 -7
p742
aVMike Scott ATL 11/26/2014 ATL vs. TOR L 11 4 2 5 40.0 0 1 0.0 0 0 - 0 1 1 0 0 0 1 1 -9
p743
aVDeMarre Carroll ATL 11/26/2014 ATL vs. TOR L 39 14 5 11 45.5 2 4 50.0 2 2 100.0 2 1 3 1 0 1 0 4 -6
p744
aVThabo Sefolosha ATL 11/25/2014 ATL @ WAS W 14 2 1 4 25.0 0 1 0.0 0 0 - 1 1 2 0 1 1 0 0 -6
p745
aVJeff Teague ATL 11/25/2014 ATL @ WAS W 32 28 8 19 42.1 0 2 0.0 12 14 85.7 1 2 3 3 3 1 2 2 0
p746
aVAl Horford ATL 11/25/2014 ATL @ WAS W 23 7 3 4 75.0 0 0 - 1 2 50.0 1 3 4 2 0 1 0 3 5
p747
aVShelvin Mack ATL 11/25/2014 ATL @ WAS W 20 13 5 9 55.6 2 4 50.0 1 2 50.0 0 3 3 5 2 0 2 3 -7
p748
aVKyle Korver ATL 11/25/2014 ATL @ WAS W 25 2 0 4 0.0 0 2 0.0 2 2 100.0 0 5 5 1 0 0 2 2 9
p749
aVPero Antic ATL 11/25/2014 ATL @ WAS W 18 5 2 5 40.0 1 2 50.0 0 0 - 0 0 0 1 0 1 0 2 3
p750
aVMike Scott ATL 11/25/2014 ATL @ WAS W 22 17 5 10 50.0 2 5 40.0 5 6 83.3 4 4 8 1 0 1 1 3 -2
p751
aVDennis Schroder ATL 11/25/2014 ATL @ WAS W 17 4 2 6 33.3 0 3 0.0 0 0 - 1 0 1 3 2 0 1 0 8
p752
aVPaul Millsap ATL 11/25/2014 ATL @ WAS W 33 17 7 14 50.0 1 2 50.0 2 3 66.7 1 10 11 1 4 1 2 5 5
p753
aVDeMarre Carroll ATL 11/25/2014 ATL @ WAS W 35 11 3 10 30.0 1 4 25.0 4 5 80.0 3 3 6 0 4 0 0 3 5
p754
aVDeMarre Carroll ATL 11/21/2014 ATL vs. DET W 31 10 4 10 40.0 1 6 16.7 1 4 25.0 1 6 7 2 0 0 0 4 1
p755
aVPaul Millsap ATL 11/21/2014 ATL vs. DET W 37 15 5 12 41.7 0 2 0.0 5 10 50.0 3 9 12 4 2 0 2 3 19
p756
aVAl Horford ATL 11/21/2014 ATL vs. DET W 32 14 7 12 58.3 0 0 - 0 0 - 0 2 2 1 0 2 0 2 1
p757
aVKyle Korver ATL 11/21/2014 ATL vs. DET W 36 12 5 6 83.3 2 3 66.7 0 0 - 0 4 4 4 0 0 2 1 16
p758
aVShelvin Mack ATL 11/21/2014 ATL vs. DET W 12 0 0 3 0.0 0 2 0.0 0 0 - 0 1 1 0 1 0 0 0 -2
p759
aVMike Scott ATL 11/21/2014 ATL vs. DET W 11 4 2 4 50.0 0 1 0.0 0 0 - 0 2 2 0 1 0 0 1 -9
p760
aVJeff Teague ATL 11/21/2014 ATL vs. DET W 34 28 9 15 60.0 2 3 66.7 8 8 100.0 0 4 4 6 2 2 3 3 26
p761
aVPero Antic ATL 11/21/2014 ATL vs. DET W 16 6 2 5 40.0 0 3 0.0 2 2 100.0 2 4 6 1 1 1 0 1 9
p762
aVThabo Sefolosha ATL 11/21/2014 ATL vs. DET W 17 4 1 4 25.0 0 2 0.0 2 2 100.0 2 5 7 0 0 0 0 3 5
p763
aVDennis Schroder ATL 11/21/2014 ATL vs. DET W 14 6 3 9 33.3 0 2 0.0 0 0 - 0 1 1 2 0 0 2 0 -16
p764
aVAl Horford ATL 11/18/2014 ATL vs. LAL L 30 15 7 8 87.5 1 1 100.0 0 0 - 1 7 8 2 0 0 2 0 8
p765
aVPaul Millsap ATL 11/18/2014 ATL vs. LAL L 33 29 11 16 68.8 2 4 50.0 5 8 62.5 0 4 4 3 4 2 1 2 -2
p766
aVDennis Schroder ATL 11/18/2014 ATL vs. LAL L 17 5 2 3 66.7 0 0 - 1 2 50.0 0 3 3 4 0 0 3 0 -1
p767
aVKent Bazemore ATL 11/18/2014 ATL vs. LAL L 5 2 0 1 0.0 0 1 0.0 2 2 100.0 0 1 1 0 0 0 0 1 -11
p768
aVShelvin Mack ATL 11/18/2014 ATL vs. LAL L 20 5 2 6 33.3 1 3 33.3 0 0 - 0 1 1 5 2 0 0 1 1
p769
aVKyle Korver ATL 11/18/2014 ATL vs. LAL L 39 8 2 6 33.3 2 5 40.0 2 2 100.0 1 1 2 3 0 1 2 4 0
p770
aVJeff Teague ATL 11/18/2014 ATL vs. LAL L 31 23 8 14 57.1 1 1 100.0 6 6 100.0 0 0 0 3 0 0 1 1 -4
p771
aVPero Antic ATL 11/18/2014 ATL vs. LAL L 18 4 2 9 22.2 0 4 0.0 0 0 - 5 3 8 0 0 0 0 4 -15
p772
aVMike Scott ATL 11/18/2014 ATL vs. LAL L 15 8 3 11 27.3 1 4 25.0 1 1 100.0 0 2 2 0 0 0 0 1 -3
p773
aVThabo Sefolosha ATL 11/18/2014 ATL vs. LAL L 31 10 4 11 36.4 1 4 25.0 1 2 50.0 6 3 9 2 1 0 1 3 2
p774
aVMike Scott ATL 11/15/2014 ATL @ CLE L 13 5 2 8 25.0 0 3 0.0 1 1 100.0 0 0 0 0 0 0 1 2 -34
p775
aVAl Horford ATL 11/15/2014 ATL @ CLE L 19 12 6 10 60.0 0 1 0.0 0 0 - 3 1 4 2 0 0 0 1 -21
p776
aVKyle Korver ATL 11/15/2014 ATL @ CLE L 14 0 0 1 0.0 0 0 - 0 0 - 0 0 0 1 0 0 0 0 -28
p777
aVPaul Millsap ATL 11/15/2014 ATL @ CLE L 28 16 7 13 53.8 0 2 0.0 2 2 100.0 2 5 7 4 1 1 1 2 -9
p778
aVKent Bazemore ATL 11/15/2014 ATL @ CLE L 26 4 2 8 25.0 0 2 0.0 0 0 - 0 3 3 2 0 0 2 2 -10
p779
aVMike Muscala ATL 11/15/2014 ATL @ CLE L 22 13 5 8 62.5 1 1 100.0 2 3 66.7 3 1 4 0 0 4 1 1 5
p780
aVThabo Sefolosha ATL 11/15/2014 ATL @ CLE L 21 10 4 10 40.0 0 3 0.0 2 2 100.0 1 4 5 2 2 1 1 0 -3
p781
aVPero Antic ATL 11/15/2014 ATL @ CLE L 5 0 0 0 - 0 0 - 0 0 - 1 0 1 0 0 1 0 0 -9
p782
aVJeff Teague ATL 11/15/2014 ATL @ CLE L 26 5 2 8 25.0 1 2 50.0 0 0 - 0 2 2 3 1 0 4 3 -12
p783
aVJohn Jenkins ATL 11/15/2014 ATL @ CLE L 21 12 5 10 50.0 1 3 33.3 1 1 100.0 0 1 1 0 1 0 1 0 1
p784
aVShelvin Mack ATL 11/15/2014 ATL @ CLE L 22 6 3 6 50.0 0 3 0.0 0 0 - 1 4 5 6 0 0 4 0 -24
p785
aVDennis Schroder ATL 11/15/2014 ATL @ CLE L 15 6 2 5 40.0 0 2 0.0 2 2 100.0 0 3 3 4 0 0 2 1 -23
p786
aVElton Brand ATL 11/15/2014 ATL @ CLE L 9 5 2 3 66.7 0 0 - 1 2 50.0 0 2 2 2 1 1 1 0 2
p787
aVAl Horford ATL 11/14/2014 ATL vs. MIA W 28 19 8 10 80.0 1 1 100.0 2 2 100.0 0 6 6 4 1 1 1 3 14
p788
aVMike Muscala ATL 11/14/2014 ATL vs. MIA W 4 0 0 0 - 0 0 - 0 0 - 0 0 0 0 0 0 0 0 2
p789
aVPero Antic ATL 11/14/2014 ATL vs. MIA W 13 3 1 2 50.0 0 1 0.0 1 1 100.0 1 2 3 1 0 0 0 4 -8
p790
aVThabo Sefolosha ATL 11/14/2014 ATL vs. MIA W 33 12 4 7 57.1 1 2 50.0 3 4 75.0 1 5 6 1 1 3 3 3 2
p791
aVDennis Schroder ATL 11/14/2014 ATL vs. MIA W 25 10 4 10 40.0 0 3 0.0 2 2 100.0 0 2 2 6 2 0 0 0 4
p792
aVMike Scott ATL 11/14/2014 ATL vs. MIA W 17 11 4 8 50.0 0 3 0.0 3 3 100.0 0 2 2 1 0 0 0 2 12
p793
aVJeff Teague ATL 11/14/2014 ATL vs. MIA W 32 16 5 11 45.5 1 6 16.7 5 5 100.0 0 1 1 9 1 0 3 2 1
p794
aVShelvin Mack ATL 11/14/2014 ATL vs. MIA W 17 12 5 5 100.0 2 2 100.0 0 0 - 0 1 1 2 1 0 1 1 9
p795
aVKyle Korver ATL 11/14/2014 ATL vs. MIA W 37 12 4 7 57.1 4 5 80.0 0 0 - 0 6 6 7 2 0 3 4 17
p796
aVPaul Millsap ATL 11/14/2014 ATL vs. MIA W 34 19 7 15 46.7 2 5 40.0 3 6 50.0 1 8 9 2 2 1 2 1 2
p797
aVAl Horford ATL 11/12/2014 ATL vs. UTA W 29 8 4 10 40.0 0 0 - 0 0 - 3 1 4 1 0 1 2 1 -14
p798
aVShelvin Mack ATL 11/12/2014 ATL vs. UTA W 10 0 0 1 0.0 0 0 - 0 0 - 0 1 1 1 0 0 1 0 -7
p799
aVDennis Schroder ATL 11/12/2014 ATL vs. UTA W 18 5 2 4 50.0 0 0 - 1 2 50.0 0 0 0 3 0 0 3 0 -10
p800
aVJeff Teague ATL 11/12/2014 ATL vs. UTA W 34 20 7 12 58.3 0 1 0.0 6 8 75.0 0 2 2 8 3 0 4 2 10
p801
aVPero Antic ATL 11/12/2014 ATL vs. UTA W 19 6 2 5 40.0 1 3 33.3 1 2 50.0 1 4 5 0 0 0 2 0 17
p802
aVThabo Sefolosha ATL 11/12/2014 ATL vs. UTA W 35 10 5 8 62.5 0 1 0.0 0 1 0.0 1 4 5 1 1 0 1 1 4
p803
aVKent Bazemore ATL 11/12/2014 ATL vs. UTA W 9 0 0 0 - 0 0 - 0 0 - 0 0 0 0 2 0 1 3 -4
p804
aVKyle Korver ATL 11/12/2014 ATL vs. UTA W 38 17 5 10 50.0 4 7 57.1 3 3 100.0 1 9 10 6 0 0 2 1 16
p805
aVMike Muscala ATL 11/12/2014 ATL vs. UTA W 8 4 1 3 33.3 0 0 - 2 2 100.0 1 1 2 0 0 1 0 2 -4
p806
aVPaul Millsap ATL 11/12/2014 ATL vs. UTA W 40 30 13 23 56.5 4 8 50.0 0 0 - 6 11 17 3 2 2 2 2 7
p807
aVDennis Schroder ATL 11/10/2014 ATL @ NYK W 28 14 4 8 50.0 0 1 0.0 6 6 100.0 1 3 4 4 1 0 4 0 12
p808
aVJeff Teague ATL 11/10/2014 ATL @ NYK W 25 3 0 4 0.0 0 3 0.0 3 4 75.0 0 0 0 6 0 1 3 1 -2
p809
aVMike Scott ATL 11/10/2014 ATL @ NYK W 14 8 2 7 28.6 2 3 66.7 2 2 100.0 0 2 2 0 0 0 1 2 -1
p810
aVThabo Sefolosha ATL 11/10/2014 ATL @ NYK W 21 4 2 5 40.0 0 1 0.0 0 0 - 1 1 2 3 1 0 0 3 -6
p811
aVDeMarre Carroll ATL 11/10/2014 ATL @ NYK W 36 9 2 7 28.6 1 3 33.3 4 4 100.0 4 6 10 2 1 0 2 1 7
p812
aVPaul Millsap ATL 11/10/2014 ATL @ NYK W 34 19 6 14 42.9 3 4 75.0 4 4 100.0 1 3 4 2 3 0 4 3 7
p813
aVPero Antic ATL 11/10/2014 ATL @ NYK W 17 5 2 4 50.0 1 3 33.3 0 0 - 0 2 2 0 0 0 0 2 10
p814
aVKyle Korver ATL 11/10/2014 ATL @ NYK W 33 17 4 13 30.8 3 9 33.3 6 6 100.0 1 7 8 2 0 0 0 2 5
p815
aVAl Horford ATL 11/10/2014 ATL @ NYK W 31 12 5 9 55.6 0 0 - 2 2 100.0 1 5 6 1 1 2 1 2 -2
p816
aVMike Scott ATL 11/08/2014 ATL vs. NYK W 12 7 3 7 42.9 1 2 50.0 0 0 - 1 0 1 0 0 0 0 1 -2
p817
aVAl Horford ATL 11/08/2014 ATL vs. NYK W 30 6 3 13 23.1 0 0 - 0 0 - 1 5 6 3 0 0 0 1 -14
p818
aVThabo Sefolosha ATL 11/08/2014 ATL vs. NYK W 16 8 3 9 33.3 0 2 0.0 2 2 100.0 4 1 5 2 1 0 1 2 5
p819
aVPero Antic ATL 11/08/2014 ATL vs. NYK W 18 2 0 3 0.0 0 2 0.0 2 3 66.7 1 1 2 0 0 1 2 2 21
p820
aVShelvin Mack ATL 11/08/2014 ATL vs. NYK W 5 0 0 0 - 0 0 - 0 0 - 0 0 0 0 0 0 0 0 5
p821
aVKyle Korver ATL 11/08/2014 ATL vs. NYK W 38 27 7 12 58.3 6 9 66.7 7 7 100.0 0 4 4 1 1 3 1 1 8
p822
aVDeMarre Carroll ATL 11/08/2014 ATL vs. NYK W 30 12 4 8 50.0 2 5 40.0 2 2 100.0 2 5 7 2 2 0 0 4 -2
p823
aVJeff Teague ATL 11/08/2014 ATL vs. NYK W 35 19 6 13 46.2 0 0 - 7 10 70.0 1 1 2 5 1 0 0 2 1
p824
aVDennis Schroder ATL 11/08/2014 ATL vs. NYK W 20 11 4 5 80.0 0 0 - 3 4 75.0 0 1 1 2 5 0 1 1 4
p825
aVPaul Millsap ATL 11/08/2014 ATL vs. NYK W 36 11 3 11 27.3 0 2 0.0 5 8 62.5 2 11 13 3 0 1 3 3 9
p826
aVPaul Millsap ATL 11/07/2014 ATL @ CHA L 43 13 4 11 36.4 1 3 33.3 4 4 100.0 1 5 6 3 1 0 6 5 7
p827
aVKyle Korver ATL 11/07/2014 ATL @ CHA L 45 20 6 12 50.0 4 7 57.1 4 5 80.0 0 2 2 1 0 1 2 4 5
p828
aVDeMarre Carroll ATL 11/07/2014 ATL @ CHA L 40 13 4 7 57.1 3 6 50.0 2 4 50.0 2 2 4 2 1 0 2 6 -10
p829
aVKent Bazemore ATL 11/07/2014 ATL @ CHA L 0 0 0 0 - 0 0 - 0 0 - 0 0 0 0 0 0 0 0 -5
p830
aVAl Horford ATL 11/07/2014 ATL @ CHA L 37 24 11 16 68.8 0 0 - 2 3 66.7 2 8 10 2 3 1 1 3 -15
p831
aVJeff Teague ATL 11/07/2014 ATL @ CHA L 44 22 9 23 39.1 1 4 25.0 3 4 75.0 2 2 4 15 0 1 5 4 10
p832
aVMike Scott ATL 11/07/2014 ATL @ CHA L 13 6 2 8 25.0 2 7 28.6 0 0 - 0 1 1 0 0 0 2 2 -8
p833
aVPero Antic ATL 11/07/2014 ATL @ CHA L 23 8 3 7 42.9 2 5 40.0 0 0 - 0 2 2 3 1 0 0 3 19
p834
aVDennis Schroder ATL 11/07/2014 ATL @ CHA L 14 10 3 4 75.0 0 0 - 4 4 100.0 0 1 1 1 2 0 0 1 -11
p835
aVShelvin Mack ATL 11/07/2014 ATL @ CHA L 2 0 0 0 - 0 0 - 0 0 - 0 0 0 0 0 0 0 0 0
p836
aVThabo Sefolosha ATL 11/07/2014 ATL @ CHA L 28 3 1 5 20.0 0 1 0.0 1 2 50.0 0 8 8 1 0 0 1 5 -7
p837
aVKyle Korver ATL 11/05/2014 ATL @ SAS L 36 7 3 10 30.0 1 5 20.0 0 0 - 0 4 4 3 2 0 1 5 6
p838
aVShelvin Mack ATL 11/05/2014 ATL @ SAS L 6 2 0 3 0.0 0 1 0.0 2 2 100.0 0 0 0 1 1 0 1 0 -4
p839
aVKent Bazemore ATL 11/05/2014 ATL @ SAS L 11 2 1 5 20.0 0 1 0.0 0 2 0.0 0 1 1 1 0 0 0 2 -6
p840
aVPero Antic ATL 11/05/2014 ATL @ SAS L 16 7 3 7 42.9 1 3 33.3 0 0 - 0 3 3 0 0 0 0 2 3
p841
aVThabo Sefolosha ATL 11/05/2014 ATL @ SAS L 17 4 0 1 0.0 0 1 0.0 4 4 100.0 1 3 4 2 2 2 0 1 5
p842
aVAl Horford ATL 11/05/2014 ATL @ SAS L 31 10 5 14 35.7 0 0 - 0 0 - 4 3 7 6 2 1 2 5 -4
p843
aVMike Scott ATL 11/05/2014 ATL @ SAS L 14 12 5 7 71.4 2 4 50.0 0 0 - 0 4 4 1 0 0 1 1 2
p844
aVPaul Millsap ATL 11/05/2014 ATL @ SAS L 35 17 8 18 44.4 0 2 0.0 1 1 100.0 2 5 7 3 5 2 1 4 -5
p845
aVDennis Schroder ATL 11/05/2014 ATL @ SAS L 8 9 4 6 66.7 1 3 33.3 0 0 - 1 1 2 1 0 0 0 1 4
p846
aVJeff Teague ATL 11/05/2014 ATL @ SAS L 34 5 2 8 25.0 0 0 - 1 2 50.0 0 0 0 7 1 0 5 2 -1
p847
aVDeMarre Carroll ATL 11/05/2014 ATL @ SAS L 31 17 7 13 53.8 3 5 60.0 0 0 - 2 3 5 1 1 0 2 2 -10
p848
aVAl Horford ATL 11/01/2014 ATL vs. IND W 28 20 9 14 64.3 0 1 0.0 2 2 100.0 1 3 4 2 0 2 3 2 12
p849
aVMike Scott ATL 11/01/2014 ATL vs. IND W 14 5 1 1 100.0 1 1 100.0 2 4 50.0 1 2 3 1 1 0 1 1 6
p850
aVThabo Sefolosha ATL 11/01/2014 ATL vs. IND W 14 3 1 5 20.0 0 1 0.0 1 2 50.0 0 5 5 1 1 1 0 3 8
p851
aVKent Bazemore ATL 11/01/2014 ATL vs. IND W 16 3 1 3 33.3 1 1 100.0 0 0 - 1 3 4 2 0 0 2 1 9
p852
aVKyle Korver ATL 11/01/2014 ATL vs. IND W 32 9 3 5 60.0 2 3 66.7 1 2 50.0 0 3 3 4 1 0 1 4 1
p853
aVPaul Millsap ATL 11/01/2014 ATL vs. IND W 34 13 5 9 55.6 1 3 33.3 2 4 50.0 0 3 3 2 2 1 2 4 4
p854
aVPero Antic ATL 11/01/2014 ATL vs. IND W 20 7 2 4 50.0 1 3 33.3 2 3 66.7 0 1 1 2 0 0 1 3 -2
p855
aVDeMarre Carroll ATL 11/01/2014 ATL vs. IND W 34 11 4 9 44.4 0 2 0.0 3 4 75.0 0 9 9 2 2 0 1 1 2
p856
aVShelvin Mack ATL 11/01/2014 ATL vs. IND W 15 6 2 5 40.0 0 3 0.0 2 2 100.0 0 1 1 4 0 0 0 0 10
p857
aVJeff Teague ATL 11/01/2014 ATL vs. IND W 33 25 7 14 50.0 1 2 50.0 10 10 100.0 0 4 4 6 3 2 1 1 0
p858
aVShelvin Mack ATL 10/29/2014 ATL @ TOR L 15 2 1 6 16.7 0 2 0.0 0 0 - 0 2 2 5 0 0 1 1 -6
p859
aVDeMarre Carroll ATL 10/29/2014 ATL @ TOR L 32 10 4 7 57.1 2 3 66.7 0 0 - 1 2 3 0 0 0 0 4 -4
p860
aVThabo Sefolosha ATL 10/29/2014 ATL @ TOR L 17 0 0 3 0.0 0 1 0.0 0 0 - 0 2 2 2 0 1 1 1 -5
p861
aVAl Horford ATL 10/29/2014 ATL @ TOR L 31 12 6 15 40.0 0 0 - 0 0 - 4 9 13 3 1 3 1 2 -7
p862
aVDennis Schroder ATL 10/29/2014 ATL @ TOR L 4 1 0 0 - 0 0 - 1 2 50.0 0 1 1 0 0 0 0 3 -6
p863
aVElton Brand ATL 10/29/2014 ATL @ TOR L 12 2 1 1 100.0 0 0 - 0 2 0.0 0 1 1 0 0 0 1 1 0
p864
aVJeff Teague ATL 10/29/2014 ATL @ TOR L 32 20 8 12 66.7 1 1 100.0 3 4 75.0 0 3 3 8 3 0 6 2 0
p865
aVPaul Millsap ATL 10/29/2014 ATL @ TOR L 32 13 4 13 30.8 0 2 0.0 5 9 55.6 5 5 10 5 1 0 4 3 -14
p866
aVKent Bazemore ATL 10/29/2014 ATL @ TOR L 11 2 1 2 50.0 0 0 - 0 0 - 0 1 1 0 1 1 0 1 -6
p867
aVKyle Korver ATL 10/29/2014 ATL @ TOR L 33 20 7 10 70.0 6 7 85.7 0 0 - 0 2 2 2 0 3 2 1 6
p868
aVMike Scott ATL 10/29/2014 ATL @ TOR L 21 20 8 11 72.7 4 6 66.7 0 0 - 0 4 4 1 0 0 1 5 7
p869
a.