(lp0
VPLAYER TEAM DATE MATCHUP W/L MIN PTS FGM FGA FG% 3PM 3PA 3P% FTM FTA FT% OREB DREB REB AST STL BLK TOV PF +/-
p1
aVDavid Lee GSW 06/16/2015 GSW @ CLE W 1 0 0 1 0.0 0 0 - 0 0 - 0 0 0 0 0 0 0 0 2
p2
aVStephen Curry GSW 06/16/2015 GSW @ CLE W 43 25 8 19 42.1 3 11 27.3 6 8 75.0 0 6 6 8 3 0 3 3 14
p3
aVLeandro Barbosa GSW 06/16/2015 GSW @ CLE W 15 5 2 5 40.0 1 3 33.3 0 0 - 1 2 3 1 2 0 0 1 -9
p4
aVFestus Ezeli GSW 06/16/2015 GSW @ CLE W 11 10 3 6 50.0 0 0 - 4 5 80.0 3 1 4 0 0 1 1 2 5
p5
aVDraymond Green GSW 06/16/2015 GSW @ CLE W 41 16 6 13 46.2 2 5 40.0 2 4 50.0 1 10 11 10 3 1 3 5 11
p6
aVShaun Livingston GSW 06/16/2015 GSW @ CLE W 32 10 4 6 66.7 0 0 - 2 2 100.0 1 2 3 0 0 1 0 3 3
p7
aVAndre Iguodala GSW 06/16/2015 GSW @ CLE W 36 25 9 20 45.0 3 8 37.5 4 10 40.0 1 4 5 5 2 0 0 4 14
p8
aVKlay Thompson GSW 06/16/2015 GSW @ CLE W 25 5 2 7 28.6 1 3 33.3 0 0 - 0 5 5 2 0 1 2 6 2
p9
aVHarrison Barnes GSW 06/16/2015 GSW @ CLE W 35 9 3 8 37.5 3 4 75.0 0 0 - 0 2 2 2 1 0 0 3 -2
p10
aVDavid Lee GSW 06/14/2015 GSW vs. CLE W 9 2 1 3 33.3 0 0 - 0 0 - 0 1 1 1 0 0 1 2 -7
p11
aVDraymond Green GSW 06/14/2015 GSW vs. CLE W 36 16 4 9 44.4 1 3 33.3 7 10 70.0 0 9 9 6 0 1 4 4 23
p12
aVStephen Curry GSW 06/14/2015 GSW vs. CLE W 42 37 13 23 56.5 7 13 53.8 4 4 100.0 3 4 7 4 2 0 5 2 24
p13
aVLeandro Barbosa GSW 06/14/2015 GSW vs. CLE W 17 13 4 5 80.0 1 1 100.0 4 4 100.0 0 2 2 0 0 0 2 3 1
p14
aVHarrison Barnes GSW 06/14/2015 GSW vs. CLE W 29 8 3 7 42.9 0 0 - 2 4 50.0 6 4 10 2 2 1 1 3 8
p15
aVShaun Livingston GSW 06/14/2015 GSW vs. CLE W 21 2 1 3 33.3 0 0 - 0 0 - 0 2 2 3 0 0 2 2 -5
p16
aVAndre Iguodala GSW 06/14/2015 GSW vs. CLE W 42 14 5 11 45.5 2 5 40.0 2 11 18.2 1 7 8 7 3 0 0 2 16
p17
aVFestus Ezeli GSW 06/14/2015 GSW vs. CLE W 3 0 0 0 - 0 0 - 0 0 - 1 0 1 0 0 0 0 2 -6
p18
aVKlay Thompson GSW 06/14/2015 GSW vs. CLE W 40 12 5 14 35.7 1 4 25.0 1 1 100.0 0 3 3 2 0 0 1 5 11
p19
aVHarrison Barnes GSW 06/11/2015 GSW @ CLE W 33 14 4 9 44.4 2 5 40.0 4 4 100.0 3 5 8 0 0 2 0 2 9
p20
aVStephen Curry GSW 06/11/2015 GSW @ CLE W 41 22 8 17 47.1 4 7 57.1 2 2 100.0 0 2 2 7 1 0 4 1 18
p21
aVDavid Lee GSW 06/11/2015 GSW @ CLE W 15 9 3 7 42.9 0 0 - 3 6 50.0 0 5 5 3 0 0 0 1 4
p22
aVJustin Holiday GSW 06/11/2015 GSW @ CLE W 2 0 0 0 - 0 0 - 0 0 - 0 0 0 0 0 0 0 0 0
p23
aVAndre Iguodala GSW 06/11/2015 GSW @ CLE W 39 22 8 15 53.3 4 9 44.4 2 2 100.0 1 7 8 0 1 0 1 4 16
p24
aVShaun Livingston GSW 06/11/2015 GSW @ CLE W 25 7 2 4 50.0 0 0 - 3 4 75.0 1 7 8 4 1 1 1 3 25
p25
aVLeandro Barbosa GSW 06/11/2015 GSW @ CLE W 7 2 1 3 33.3 0 1 0.0 0 0 - 0 0 0 1 0 0 0 1 3
p26
aVAndrew Bogut GSW 06/11/2015 GSW @ CLE W 3 0 0 0 - 0 0 - 0 0 - 0 1 1 1 0 0 1 3 0
p27
aVJames Michael McAdoo GSW 06/11/2015 GSW @ CLE W 1 0 0 0 - 0 0 - 0 0 - 0 1 1 0 0 0 0 0 -1
p28
aVMarreese Speights GSW 06/11/2015 GSW @ CLE W 2 1 0 2 0.0 0 0 - 1 2 50.0 1 1 2 0 0 0 0 1 0
p29
aVDraymond Green GSW 06/11/2015 GSW @ CLE W 32 17 6 11 54.5 1 3 33.3 4 7 57.1 0 7 7 6 2 1 0 5 16
p30
aVKlay Thompson GSW 06/11/2015 GSW @ CLE W 39 9 4 9 44.4 1 5 20.0 0 0 - 0 2 2 2 0 1 0 0 15
p31
aVAndrew Bogut GSW 06/09/2015 GSW @ CLE L 17 4 2 3 66.7 0 0 - 0 0 - 1 5 6 1 0 1 0 2 -9
p32
aVShaun Livingston GSW 06/09/2015 GSW @ CLE L 13 4 2 4 50.0 0 1 0.0 0 0 - 2 0 2 2 0 0 1 3 -6
p33
aVKlay Thompson GSW 06/09/2015 GSW @ CLE L 39 14 6 16 37.5 2 7 28.6 0 0 - 1 4 5 1 0 1 1 4 -1
p34
aVStephen Curry GSW 06/09/2015 GSW @ CLE L 44 27 10 20 50.0 7 13 53.8 0 0 - 2 4 6 6 3 1 6 2 -6
p35
aVAndre Iguodala GSW 06/09/2015 GSW @ CLE L 36 15 6 12 50.0 2 8 25.0 1 2 50.0 1 4 5 5 0 1 0 1 6
p36
aVDavid Lee GSW 06/09/2015 GSW @ CLE L 13 11 4 4 100.0 0 0 - 3 5 60.0 2 2 4 2 1 0 0 5 17
p37
aVHarrison Barnes GSW 06/09/2015 GSW @ CLE L 19 0 0 8 0.0 0 1 0.0 0 0 - 3 0 3 0 0 0 3 2 -14
p38
aVLeandro Barbosa GSW 06/09/2015 GSW @ CLE L 11 4 2 7 28.6 0 0 - 0 0 - 0 1 1 0 1 1 0 1 11
p39
aVFestus Ezeli GSW 06/09/2015 GSW @ CLE L 18 5 2 6 33.3 0 0 - 1 2 50.0 3 4 7 1 0 2 2 1 -9
p40
aVDraymond Green GSW 06/09/2015 GSW @ CLE L 30 7 2 10 20.0 1 4 25.0 2 3 66.7 3 4 7 3 1 0 1 4 -14
p41
aVFestus Ezeli GSW 06/07/2015 GSW vs. CLE L 6 2 1 2 50.0 0 0 - 0 0 - 0 0 0 0 0 0 0 3 -8
p42
aVHarrison Barnes GSW 06/07/2015 GSW vs. CLE L 41 11 5 10 50.0 0 4 0.0 1 1 100.0 4 2 6 0 1 0 0 5 5
p43
aVMarreese Speights GSW 06/07/2015 GSW vs. CLE L 5 0 0 3 0.0 0 0 - 0 0 - 0 0 0 0 1 0 0 0 4
p44
aVDraymond Green GSW 06/07/2015 GSW vs. CLE L 43 10 2 7 28.6 0 1 0.0 6 6 100.0 2 8 10 2 5 4 4 5 -4
p45
aVShaun Livingston GSW 06/07/2015 GSW vs. CLE L 14 3 1 2 50.0 0 0 - 1 2 50.0 0 1 1 1 1 0 2 0 -3
p46
aVKlay Thompson GSW 06/07/2015 GSW vs. CLE L 46 34 14 28 50.0 4 12 33.3 2 3 66.7 0 5 5 2 2 1 0 4 -1
p47
aVLeandro Barbosa GSW 06/07/2015 GSW vs. CLE L 6 5 2 2 100.0 1 1 100.0 0 0 - 1 0 1 0 0 0 0 1 1
p48
aVStephen Curry GSW 06/07/2015 GSW vs. CLE L 42 19 5 23 21.7 2 15 13.3 7 8 87.5 0 6 6 5 0 0 6 4 -2
p49
aVAndrew Bogut GSW 06/07/2015 GSW vs. CLE L 25 2 0 1 0.0 0 0 - 2 4 50.0 1 9 10 1 0 2 2 4 -4
p50
aVAndre Iguodala GSW 06/07/2015 GSW vs. CLE L 36 7 3 5 60.0 1 2 50.0 0 1 0.0 2 4 6 5 1 0 4 5 2
p51
aVLeandro Barbosa GSW 06/04/2015 GSW vs. CLE W 9 2 1 4 25.0 0 1 0.0 0 0 - 0 3 3 1 0 0 2 0 5
p52
aVFestus Ezeli GSW 06/04/2015 GSW vs. CLE W 12 5 1 1 100.0 0 0 - 3 4 75.0 0 5 5 1 0 0 1 1 3
p53
aVKlay Thompson GSW 06/04/2015 GSW vs. CLE W 39 21 5 14 35.7 3 9 33.3 8 8 100.0 1 5 6 1 1 2 1 1 5
p54
aVStephen Curry GSW 06/04/2015 GSW vs. CLE W 43 26 10 20 50.0 2 6 33.3 4 4 100.0 0 4 4 8 2 0 4 1 4
p55
aVMarreese Speights GSW 06/04/2015 GSW vs. CLE W 9 8 4 8 50.0 0 0 - 0 0 - 2 1 3 1 0 0 1 2 5
p56
aVHarrison Barnes GSW 06/04/2015 GSW vs. CLE W 39 11 4 9 44.4 3 5 60.0 0 0 - 2 4 6 1 1 0 0 2 11
p57
aVShaun Livingston GSW 06/04/2015 GSW vs. CLE W 16 4 2 6 33.3 0 0 - 0 0 - 1 4 5 3 0 0 0 0 2
p58
aVAndrew Bogut GSW 06/04/2015 GSW vs. CLE W 28 4 2 5 40.0 0 0 - 0 0 - 3 4 7 3 1 2 1 2 -6
p59
aVAndre Iguodala GSW 06/04/2015 GSW vs. CLE W 32 15 6 8 75.0 2 3 66.7 1 2 50.0 0 3 3 2 1 1 1 2 8
p60
aVDraymond Green GSW 06/04/2015 GSW vs. CLE W 39 12 4 13 30.8 0 3 0.0 4 4 100.0 2 4 6 3 2 0 1 5 3
p61
aVKlay Thompson GSW 05/27/2015 GSW vs. HOU W 22 20 8 14 57.1 4 6 66.7 0 0 - 0 1 1 4 1 0 0 5 9
p62
aVDraymond Green GSW 05/27/2015 GSW vs. HOU W 34 9 3 15 20.0 0 5 0.0 3 3 100.0 4 9 13 4 0 1 3 4 4
p63
aVDavid Lee GSW 05/27/2015 GSW vs. HOU W 0 0 0 0 - 0 0 - 0 0 - 0 0 0 0 0 0 0 0 2
p64
aVLeandro Barbosa GSW 05/27/2015 GSW vs. HOU W 11 7 1 2 50.0 0 1 0.0 5 6 83.3 0 2 2 1 0 0 0 4 3
p65
aVHarrison Barnes GSW 05/27/2015 GSW vs. HOU W 35 24 10 20 50.0 2 5 40.0 2 2 100.0 3 4 7 0 1 0 2 4 13
p66
aVAndrew Bogut GSW 05/27/2015 GSW vs. HOU W 19 0 0 1 0.0 0 0 - 0 0 - 5 9 14 1 0 2 1 2 2
p67
aVFestus Ezeli GSW 05/27/2015 GSW vs. HOU W 28 12 5 7 71.4 0 0 - 2 4 50.0 5 4 9 1 0 1 3 3 10
p68
aVStephen Curry GSW 05/27/2015 GSW vs. HOU W 42 26 7 21 33.3 3 11 27.3 9 12 75.0 1 7 8 6 5 0 3 3 1
p69
aVShaun Livingston GSW 05/27/2015 GSW vs. HOU W 18 0 0 3 0.0 0 0 - 0 0 - 0 1 1 2 0 0 2 2 15
p70
aVAndre Iguodala GSW 05/27/2015 GSW vs. HOU W 30 6 3 8 37.5 0 1 0.0 0 4 0.0 1 3 4 6 3 0 2 3 11
p71
aVAndre Iguodala GSW 05/25/2015 GSW @ HOU L 26 13 4 9 44.4 2 6 33.3 3 5 60.0 1 6 7 2 3 3 2 1 -21
p72
aVFestus Ezeli GSW 05/25/2015 GSW @ HOU L 10 4 2 5 40.0 0 0 - 0 2 0.0 2 3 5 2 1 0 0 2 -6
p73
aVDavid Lee GSW 05/25/2015 GSW @ HOU L 3 0 0 0 - 0 0 - 0 0 - 0 1 1 0 1 0 1 1 4
p74
aVHarrison Barnes GSW 05/25/2015 GSW @ HOU L 30 14 6 13 46.2 2 4 50.0 0 0 - 2 3 5 3 1 0 0 3 -19
p75
aVShaun Livingston GSW 05/25/2015 GSW @ HOU L 16 4 2 6 33.3 0 0 - 0 0 - 0 0 0 3 1 0 2 2 10
p76
aVAndrew Bogut GSW 05/25/2015 GSW @ HOU L 21 0 0 1 0.0 0 0 - 0 2 0.0 0 8 8 4 0 1 3 4 -10
p77
aVStephen Curry GSW 05/25/2015 GSW @ HOU L 31 23 7 18 38.9 6 13 46.2 3 3 100.0 1 0 1 4 0 0 0 3 -20
p78
aVLeandro Barbosa GSW 05/25/2015 GSW @ HOU L 24 12 5 10 50.0 2 5 40.0 0 0 - 0 2 2 2 0 0 0 2 16
p79
aVDraymond Green GSW 05/25/2015 GSW @ HOU L 40 21 9 14 64.3 2 5 40.0 1 1 100.0 3 12 15 4 0 5 3 6 -10
p80
aVKlay Thompson GSW 05/25/2015 GSW @ HOU L 38 24 9 21 42.9 6 13 46.2 0 0 - 1 2 3 2 2 0 4 5 -9
p81
aVLeandro Barbosa GSW 05/23/2015 GSW @ HOU W 10 2 1 4 25.0 0 1 0.0 0 0 - 0 1 1 1 1 0 0 0 -2
p82
aVAndre Iguodala GSW 05/23/2015 GSW @ HOU W 25 6 3 7 42.9 0 1 0.0 0 2 0.0 2 4 6 3 3 0 1 3 22
p83
aVDraymond Green GSW 05/23/2015 GSW @ HOU W 36 17 8 16 50.0 1 4 25.0 0 0 - 4 9 13 5 1 1 2 4 36
p84
aVShaun Livingston GSW 05/23/2015 GSW @ HOU W 19 6 2 5 40.0 0 0 - 2 2 100.0 0 1 1 2 1 0 1 2 4
p85
aVAndrew Bogut GSW 05/23/2015 GSW @ HOU W 20 12 5 8 62.5 0 0 - 2 2 100.0 4 8 12 1 0 1 0 6 0
p86
aVJustin Holiday GSW 05/23/2015 GSW @ HOU W 4 0 0 0 - 0 0 - 0 0 - 0 1 1 1 0 0 2 0 2
p87
aVBrandon Rush GSW 05/23/2015 GSW @ HOU W 4 3 1 5 20.0 1 2 50.0 0 0 - 1 1 2 0 0 0 0 1 2
p88
aVStephen Curry GSW 05/23/2015 GSW @ HOU W 35 40 12 19 63.2 7 9 77.8 9 10 90.0 3 2 5 7 2 1 4 2 33
p89
aVDavid Lee GSW 05/23/2015 GSW @ HOU W 5 2 1 2 50.0 0 0 - 0 0 - 1 2 3 0 0 0 0 0 4
p90
aVJames Michael McAdoo GSW 05/23/2015 GSW @ HOU W 4 0 0 0 - 0 0 - 0 0 - 1 0 1 0 0 0 0 0 2
p91
aVKlay Thompson GSW 05/23/2015 GSW @ HOU W 32 17 6 16 37.5 2 8 25.0 3 4 75.0 0 3 3 5 1 2 1 2 32
p92
aVFestus Ezeli GSW 05/23/2015 GSW @ HOU W 18 10 5 6 83.3 0 0 - 0 0 - 1 5 6 0 0 1 1 5 26
p93
aVHarrison Barnes GSW 05/23/2015 GSW @ HOU W 29 0 0 9 0.0 0 3 0.0 0 0 - 0 6 6 1 0 0 1 2 14
p94
aVLeandro Barbosa GSW 05/21/2015 GSW vs. HOU W 15 4 2 6 33.3 0 1 0.0 0 0 - 0 0 0 3 1 0 0 0 14
p95
aVDraymond Green GSW 05/21/2015 GSW vs. HOU W 39 12 3 9 33.3 1 3 33.3 5 7 71.4 0 8 8 7 1 1 4 4 -10
p96
aVStephen Curry GSW 05/21/2015 GSW vs. HOU W 37 33 13 21 61.9 5 11 45.5 2 3 66.7 0 3 3 6 1 0 6 2 -7
p97
aVAndrew Bogut GSW 05/21/2015 GSW vs. HOU W 31 14 7 9 77.8 0 0 - 0 1 0.0 2 6 8 4 0 5 4 4 8
p98
aVAndre Iguodala GSW 05/21/2015 GSW vs. HOU W 32 6 2 2 100.0 0 0 - 2 2 100.0 0 2 2 6 2 0 0 0 2
p99
aVFestus Ezeli GSW 05/21/2015 GSW vs. HOU W 12 2 1 3 33.3 0 0 - 0 0 - 2 4 6 0 0 1 0 2 7
p100
aVShaun Livingston GSW 05/21/2015 GSW vs. HOU W 14 8 4 4 100.0 0 0 - 0 0 - 1 3 4 0 0 0 0 1 3
p101
aVKlay Thompson GSW 05/21/2015 GSW vs. HOU W 33 13 6 15 40.0 1 7 14.3 0 0 - 0 4 4 1 0 1 2 4 -13
p102
aVHarrison Barnes GSW 05/21/2015 GSW vs. HOU W 28 7 3 8 37.5 1 2 50.0 0 0 - 2 2 4 4 2 0 0 0 1
p103
aVDraymond Green GSW 05/19/2015 GSW vs. HOU W 43 13 6 13 46.2 0 3 0.0 1 2 50.0 4 8 12 8 2 1 3 2 10
p104
aVAndrew Bogut GSW 05/19/2015 GSW vs. HOU W 16 0 0 3 0.0 0 0 - 0 0 - 2 2 4 0 1 0 0 3 -3
p105
aVLeandro Barbosa GSW 05/19/2015 GSW vs. HOU W 8 4 1 5 20.0 1 2 50.0 1 2 50.0 2 1 3 1 0 0 0 1 -2
p106
aVAndre Iguodala GSW 05/19/2015 GSW vs. HOU W 23 4 2 4 50.0 0 0 - 0 3 0.0 0 1 1 4 0 0 0 3 -13
p107
aVShaun Livingston GSW 05/19/2015 GSW vs. HOU W 29 18 6 8 75.0 0 0 - 6 6 100.0 2 5 7 3 1 0 2 2 16
p108
aVKlay Thompson GSW 05/19/2015 GSW vs. HOU W 33 15 6 18 33.3 1 7 14.3 2 2 100.0 0 2 2 4 1 1 2 5 -2
p109
aVFestus Ezeli GSW 05/19/2015 GSW vs. HOU W 11 6 2 4 50.0 0 0 - 2 4 50.0 2 2 4 1 0 1 2 1 -4
p110
aVDavid Lee GSW 05/19/2015 GSW vs. HOU W 4 2 1 3 33.3 0 0 - 0 0 - 1 2 3 0 0 0 0 0 -7
p111
aVHarrison Barnes GSW 05/19/2015 GSW vs. HOU W 33 14 6 12 50.0 2 6 33.3 0 0 - 1 0 1 1 2 0 2 3 14
p112
aVStephen Curry GSW 05/19/2015 GSW vs. HOU W 39 34 13 22 59.1 6 11 54.5 2 3 66.7 0 6 6 5 2 0 1 3 11
p113
aVHarrison Barnes GSW 05/15/2015 GSW @ MEM W 36 13 6 13 46.2 0 3 0.0 1 2 50.0 1 4 5 3 0 1 1 2 18
p114
aVKlay Thompson GSW 05/15/2015 GSW @ MEM W 37 20 7 13 53.8 3 5 60.0 3 3 100.0 2 6 8 3 0 0 3 2 3
p115
aVStephen Curry GSW 05/15/2015 GSW @ MEM W 39 32 11 25 44.0 8 13 61.5 2 2 100.0 0 6 6 10 0 0 4 3 11
p116
aVAndre Iguodala GSW 05/15/2015 GSW @ MEM W 30 9 3 6 50.0 3 6 50.0 0 1 0.0 0 6 6 7 0 1 0 1 10
p117
aVShaun Livingston GSW 05/15/2015 GSW @ MEM W 20 10 4 6 66.7 0 0 - 2 2 100.0 0 1 1 0 0 1 2 2 6
p118
aVAndrew Bogut GSW 05/15/2015 GSW @ MEM W 24 4 2 3 66.7 0 0 - 0 0 - 0 3 3 2 0 3 1 6 8
p119
aVDraymond Green GSW 05/15/2015 GSW @ MEM W 33 16 6 11 54.5 1 5 20.0 3 4 75.0 2 10 12 2 1 1 1 5 8
p120
aVDavid Lee GSW 05/15/2015 GSW @ MEM W 14 2 1 3 33.3 0 0 - 0 0 - 2 3 5 0 0 1 0 2 -8
p121
aVFestus Ezeli GSW 05/15/2015 GSW @ MEM W 2 2 1 1 100.0 0 0 - 0 0 - 0 0 0 0 0 0 0 0 3
p122
aVLeandro Barbosa GSW 05/15/2015 GSW @ MEM W 4 0 0 0 - 0 0 - 0 0 - 0 1 1 0 0 0 0 1 6
p123
aVBrandon Rush GSW 05/13/2015 GSW vs. MEM W 2 0 0 0 - 0 0 - 0 0 - 0 1 1 0 0 0 0 0 -2
p124
aVStephen Curry GSW 05/13/2015 GSW vs. MEM W 33 18 6 16 37.5 6 13 46.2 0 0 - 2 5 7 5 6 0 5 0 16
p125
aVJames Michael McAdoo GSW 05/13/2015 GSW vs. MEM W 3 4 2 2 100.0 0 0 - 0 0 - 0 1 1 0 0 0 0 0 0
p126
aVShaun Livingston GSW 05/13/2015 GSW vs. MEM W 22 6 3 4 75.0 0 0 - 0 0 - 1 2 3 3 1 0 1 1 21
p127
aVKlay Thompson GSW 05/13/2015 GSW vs. MEM W 39 21 7 16 43.8 3 4 75.0 4 4 100.0 0 4 4 5 0 0 2 1 8
p128
aVDavid Lee GSW 05/13/2015 GSW vs. MEM W 17 6 3 7 42.9 0 0 - 0 0 - 2 5 7 1 1 0 0 3 18
p129
aVFestus Ezeli GSW 05/13/2015 GSW vs. MEM W 6 0 0 0 - 0 0 - 0 0 - 0 1 1 0 0 1 0 1 0
p130
aVAndre Iguodala GSW 05/13/2015 GSW vs. MEM W 25 16 7 10 70.0 2 3 66.7 0 0 - 2 1 3 3 0 0 1 1 23
p131
aVJustin Holiday GSW 05/13/2015 GSW vs. MEM W 3 0 0 1 0.0 0 0 - 0 0 - 0 0 0 0 0 0 0 0 0
p132
aVLeandro Barbosa GSW 05/13/2015 GSW vs. MEM W 3 0 0 1 0.0 0 0 - 0 0 - 0 0 0 1 0 0 0 0 0
p133
aVDraymond Green GSW 05/13/2015 GSW vs. MEM W 31 7 3 9 33.3 0 5 0.0 1 1 100.0 2 3 5 9 1 0 1 4 5
p134
aVAndrew Bogut GSW 05/13/2015 GSW vs. MEM W 24 6 3 7 42.9 0 0 - 0 0 - 3 6 9 0 0 4 1 2 4
p135
aVHarrison Barnes GSW 05/13/2015 GSW vs. MEM W 33 14 4 8 50.0 3 5 60.0 3 5 60.0 2 1 3 1 0 1 5 0 7
p136
aVJustin Holiday GSW 05/11/2015 GSW @ MEM W 2 3 1 1 100.0 1 1 100.0 0 0 - 0 0 0 0 0 0 0 1 -2
p137
aVDavid Lee GSW 05/11/2015 GSW @ MEM W 15 5 2 5 40.0 0 0 - 1 2 50.0 1 0 1 1 0 1 0 3 4
p138
aVFestus Ezeli GSW 05/11/2015 GSW @ MEM W 2 0 0 0 - 0 0 - 0 0 - 0 2 2 0 0 0 0 0 0
p139
aVShaun Livingston GSW 05/11/2015 GSW @ MEM W 16 2 0 1 0.0 0 0 - 2 2 100.0 0 2 2 2 0 1 1 1 -1
p140
aVKlay Thompson GSW 05/11/2015 GSW @ MEM W 40 15 6 15 40.0 3 6 50.0 0 0 - 0 2 2 2 2 1 3 2 18
p141
aVBrandon Rush GSW 05/11/2015 GSW @ MEM W 2 0 0 1 0.0 0 0 - 0 0 - 0 0 0 0 0 0 0 1 0
p142
aVLeandro Barbosa GSW 05/11/2015 GSW @ MEM W 2 0 0 0 - 0 0 - 0 0 - 0 1 1 0 0 0 0 0 -2
p143
aVHarrison Barnes GSW 05/11/2015 GSW @ MEM W 33 12 6 14 42.9 0 4 0.0 0 1 0.0 1 5 6 1 1 1 1 1 7
p144
aVJames Michael McAdoo GSW 05/11/2015 GSW @ MEM W 2 0 0 0 - 0 0 - 0 0 - 0 0 0 0 0 1 1 0 -2
p145
aVDraymond Green GSW 05/11/2015 GSW @ MEM W 35 16 6 12 50.0 3 8 37.5 1 2 50.0 3 7 10 4 2 2 7 3 19
p146
aVStephen Curry GSW 05/11/2015 GSW @ MEM W 39 33 11 22 50.0 4 9 44.4 7 9 77.8 2 6 8 5 2 0 4 4 19
p147
aVAndre Iguodala GSW 05/11/2015 GSW @ MEM W 24 11 4 6 66.7 3 5 60.0 0 0 - 1 3 4 3 1 0 0 2 4
p148
aVAndrew Bogut GSW 05/11/2015 GSW @ MEM W 30 4 2 3 66.7 0 0 - 0 0 - 2 7 9 4 3 3 4 5 21
p149
aVHarrison Barnes GSW 05/09/2015 GSW @ MEM L 41 16 7 10 70.0 0 1 0.0 2 2 100.0 3 3 6 1 0 0 2 4 -5
p150
aVKlay Thompson GSW 05/09/2015 GSW @ MEM L 37 20 8 13 61.5 3 6 50.0 1 4 25.0 2 6 8 2 1 2 3 5 5
p151
aVMarreese Speights GSW 05/09/2015 GSW @ MEM L 6 9 3 7 42.9 0 0 - 3 4 75.0 0 1 1 0 1 0 0 1 -1
p152
aVAndrew Bogut GSW 05/09/2015 GSW @ MEM L 22 2 1 4 25.0 0 0 - 0 0 - 4 4 8 2 0 1 0 4 -4
p153
aVDraymond Green GSW 05/09/2015 GSW @ MEM L 39 6 1 8 12.5 1 6 16.7 3 4 75.0 0 6 6 7 3 1 5 4 -2
p154
aVFestus Ezeli GSW 05/09/2015 GSW @ MEM L 9 2 1 3 33.3 0 0 - 0 0 - 0 2 2 0 0 1 0 0 -9
p155
aVShaun Livingston GSW 05/09/2015 GSW @ MEM L 9 2 1 1 100.0 0 0 - 0 0 - 0 1 1 0 0 0 0 0 -4
p156
aVLeandro Barbosa GSW 05/09/2015 GSW @ MEM L 11 0 0 0 - 0 0 - 0 0 - 0 0 0 1 1 0 3 3 -15
p157
aVStephen Curry GSW 05/09/2015 GSW @ MEM L 40 23 8 21 38.1 2 10 20.0 5 7 71.4 1 1 2 6 1 1 4 1 -6
p158
aVAndre Iguodala GSW 05/09/2015 GSW @ MEM L 28 9 2 7 28.6 0 3 0.0 5 7 71.4 0 5 5 1 0 1 0 1 -9
p159
aVStephen Curry GSW 05/05/2015 GSW vs. MEM L 41 19 7 19 36.8 2 11 18.2 3 4 75.0 0 5 5 6 0 0 3 0 -8
p160
aVAndre Iguodala GSW 05/05/2015 GSW vs. MEM L 27 7 2 3 66.7 2 2 100.0 1 2 50.0 0 3 3 3 0 0 1 2 -2
p161
aVMarreese Speights GSW 05/05/2015 GSW vs. MEM L 5 2 0 1 0.0 0 0 - 2 2 100.0 0 1 1 0 0 0 1 1 0
p162
aVKlay Thompson GSW 05/05/2015 GSW vs. MEM L 34 13 6 15 40.0 1 6 16.7 0 0 - 0 4 4 2 1 1 5 3 -16
p163
aVFestus Ezeli GSW 05/05/2015 GSW vs. MEM L 5 1 0 0 - 0 0 - 1 2 50.0 0 0 0 0 0 0 0 0 -1
p164
aVShaun Livingston GSW 05/05/2015 GSW vs. MEM L 13 0 0 1 0.0 0 0 - 0 0 - 0 0 0 1 1 0 2 1 4
p165
aVAndrew Bogut GSW 05/05/2015 GSW vs. MEM L 24 8 4 5 80.0 0 0 - 0 0 - 4 8 12 2 1 1 2 2 -16
p166
aVLeandro Barbosa GSW 05/05/2015 GSW vs. MEM L 14 14 5 9 55.6 1 2 50.0 3 3 100.0 1 1 2 1 0 0 1 2 9
p167
aVDraymond Green GSW 05/05/2015 GSW vs. MEM L 38 14 3 11 27.3 0 3 0.0 8 10 80.0 4 8 12 1 2 0 3 5 2
p168
aVHarrison Barnes GSW 05/05/2015 GSW vs. MEM L 35 11 4 8 50.0 0 2 0.0 3 3 100.0 0 4 4 0 1 1 2 2 -6
p169
aVDavid Lee GSW 05/05/2015 GSW vs. MEM L 5 1 0 2 0.0 0 0 - 1 2 50.0 0 2 2 0 0 0 0 0 -1
p170
aVJustin Holiday GSW 05/03/2015 GSW vs. MEM W 1 0 0 0 - 0 0 - 0 0 - 0 0 0 0 0 0 0 0 -3
p171
aVJames Michael McAdoo GSW 05/03/2015 GSW vs. MEM W 1 0 0 1 0.0 0 0 - 0 0 - 0 1 1 0 0 0 0 0 -3
p172
aVAndre Iguodala GSW 05/03/2015 GSW vs. MEM W 30 8 3 9 33.3 1 4 25.0 1 2 50.0 0 5 5 2 3 0 1 0 3
p173
aVDraymond Green GSW 05/03/2015 GSW vs. MEM W 27 16 5 11 45.5 4 8 50.0 2 2 100.0 0 5 5 3 2 0 3 4 16
p174
aVMarreese Speights GSW 05/03/2015 GSW vs. MEM W 13 10 4 6 66.7 0 0 - 2 5 40.0 0 5 5 0 1 0 1 4 3
p175
aVDavid Lee GSW 05/03/2015 GSW vs. MEM W 4 0 0 3 0.0 0 0 - 0 0 - 2 0 2 0 0 0 0 0 2
p176
aVShaun Livingston GSW 05/03/2015 GSW vs. MEM W 16 2 1 1 100.0 0 0 - 0 0 - 1 3 4 2 0 0 1 1 -1
p177
aVFestus Ezeli GSW 05/03/2015 GSW vs. MEM W 11 4 2 2 100.0 0 0 - 0 0 - 1 2 3 0 0 1 0 0 3
p178
aVHarrison Barnes GSW 05/03/2015 GSW vs. MEM W 25 11 4 4 100.0 1 1 100.0 2 2 100.0 2 1 3 3 0 1 0 2 18
p179
aVLeandro Barbosa GSW 05/03/2015 GSW vs. MEM W 14 6 2 3 66.7 1 1 100.0 1 2 50.0 0 0 0 2 0 0 1 1 -2
p180
aVStephen Curry GSW 05/03/2015 GSW vs. MEM W 38 22 8 18 44.4 4 8 50.0 2 2 100.0 1 1 2 7 4 0 4 1 14
p181
aVKlay Thompson GSW 05/03/2015 GSW vs. MEM W 38 18 8 16 50.0 2 5 40.0 0 0 - 0 3 3 6 1 0 4 1 16
p182
aVAndrew Bogut GSW 05/03/2015 GSW vs. MEM W 24 4 2 3 66.7 0 1 0.0 0 0 - 0 6 6 1 2 0 0 6 9
p183
aVAndre Iguodala GSW 04/25/2015 GSW @ NOP W 24 8 3 8 37.5 0 3 0.0 2 2 100.0 1 1 2 2 1 0 0 2 0
p184
aVShaun Livingston GSW 04/25/2015 GSW @ NOP W 17 0 0 2 0.0 0 0 - 0 0 - 0 1 1 3 1 1 0 1 -1
p185
aVAndrew Bogut GSW 04/25/2015 GSW @ NOP W 22 2 1 1 100.0 0 0 - 0 0 - 0 3 3 1 0 3 1 5 -1
p186
aVLeandro Barbosa GSW 04/25/2015 GSW @ NOP W 11 6 3 5 60.0 0 0 - 0 0 - 0 0 0 1 0 0 1 1 5
p187
aVHarrison Barnes GSW 04/25/2015 GSW @ NOP W 35 6 3 7 42.9 0 0 - 0 2 0.0 2 6 8 3 1 1 0 0 5
p188
aVDraymond Green GSW 04/25/2015 GSW @ NOP W 42 22 9 14 64.3 3 6 50.0 1 2 50.0 3 7 10 8 1 1 2 4 18
p189
aVStephen Curry GSW 04/25/2015 GSW @ NOP W 38 39 11 20 55.0 6 8 75.0 11 12 91.7 3 5 8 9 1 0 5 4 14
p190
aVFestus Ezeli GSW 04/25/2015 GSW @ NOP W 9 1 0 2 0.0 0 0 - 1 4 25.0 1 2 3 0 0 0 1 1 10
p191
aVMarreese Speights GSW 04/25/2015 GSW @ NOP W 4 0 0 1 0.0 0 0 - 0 0 - 0 1 1 1 0 0 0 0 -6
p192
aVKlay Thompson GSW 04/25/2015 GSW @ NOP W 36 25 10 19 52.6 4 7 57.1 1 1 100.0 0 3 3 0 1 1 0 0 11
p193
aVKlay Thompson GSW 04/23/2015 GSW @ NOP W 46 28 9 21 42.9 6 12 50.0 4 5 80.0 1 5 6 2 0 2 2 3 18
p194
aVDraymond Green GSW 04/23/2015 GSW @ NOP W 40 12 5 11 45.5 0 2 0.0 2 3 66.7 7 10 17 5 3 1 1 6 12
p195
aVStephen Curry GSW 04/23/2015 GSW @ NOP W 44 40 10 29 34.5 7 18 38.9 13 14 92.9 1 4 5 9 0 0 3 3 13
p196
aVLeandro Barbosa GSW 04/23/2015 GSW @ NOP W 11 6 2 6 33.3 0 2 0.0 2 2 100.0 0 0 0 0 0 0 1 0 -12
p197
aVFestus Ezeli GSW 04/23/2015 GSW @ NOP W 4 2 1 1 100.0 0 0 - 0 0 - 1 1 2 0 0 0 0 0 -7
p198
aVAndre Iguodala GSW 04/23/2015 GSW @ NOP W 26 4 2 8 25.0 0 5 0.0 0 1 0.0 0 1 1 4 0 0 0 1 -12
p199
aVMarreese Speights GSW 04/23/2015 GSW @ NOP W 11 2 1 7 14.3 0 0 - 0 0 - 3 1 4 1 0 1 1 4 -4
p200
aVShaun Livingston GSW 04/23/2015 GSW @ NOP W 20 12 5 7 71.4 0 0 - 2 3 66.7 3 1 4 0 0 0 0 2 -2
p201
aVAndrew Bogut GSW 04/23/2015 GSW @ NOP W 26 6 3 5 60.0 0 0 - 0 0 - 2 3 5 1 0 0 2 2 -2
p202
aVHarrison Barnes GSW 04/23/2015 GSW @ NOP W 37 11 4 9 44.4 1 2 50.0 2 2 100.0 4 3 7 2 1 2 0 1 16
p203
aVAndre Iguodala GSW 04/20/2015 GSW vs. NOP W 30 5 2 7 28.6 1 4 25.0 0 0 - 2 4 6 2 0 0 0 2 0
p204
aVKlay Thompson GSW 04/20/2015 GSW vs. NOP W 33 26 11 17 64.7 3 8 37.5 1 1 100.0 1 2 3 3 1 0 0 3 15
p205
aVHarrison Barnes GSW 04/20/2015 GSW vs. NOP W 22 5 2 6 33.3 0 2 0.0 1 2 50.0 1 1 2 3 1 0 1 2 -4
p206
aVStephen Curry GSW 04/20/2015 GSW vs. NOP W 37 22 9 21 42.9 3 9 33.3 1 1 100.0 0 4 4 6 1 0 5 1 3
p207
aVAndrew Bogut GSW 04/20/2015 GSW vs. NOP W 33 5 2 5 40.0 0 0 - 1 2 50.0 4 10 14 2 1 3 2 4 4
p208
aVDraymond Green GSW 04/20/2015 GSW vs. NOP W 42 14 4 12 33.3 2 6 33.3 4 6 66.7 1 11 12 5 3 1 4 2 24
p209
aVShaun Livingston GSW 04/20/2015 GSW vs. NOP W 13 3 1 2 50.0 0 0 - 1 2 50.0 0 1 1 4 0 0 0 1 7
p210
aVMarreese Speights GSW 04/20/2015 GSW vs. NOP W 13 5 2 7 28.6 0 0 - 1 2 50.0 2 2 4 1 1 2 0 1 7
p211
aVFestus Ezeli GSW 04/20/2015 GSW vs. NOP W 3 0 0 1 0.0 0 0 - 0 0 - 2 0 2 0 0 0 0 1 -1
p212
aVLeandro Barbosa GSW 04/20/2015 GSW vs. NOP W 15 12 5 8 62.5 0 1 0.0 2 3 66.7 1 0 1 1 0 0 1 1 -5
p213
aVFestus Ezeli GSW 04/18/2015 GSW vs. NOP W 3 2 0 0 - 0 0 - 2 2 100.0 0 0 0 0 0 0 1 0 -4
p214
aVKlay Thompson GSW 04/18/2015 GSW vs. NOP W 37 21 6 17 35.3 3 6 50.0 6 9 66.7 0 1 1 3 1 2 5 3 -6
p215
aVAndrew Bogut GSW 04/18/2015 GSW vs. NOP W 30 12 6 8 75.0 0 0 - 0 2 0.0 4 10 14 5 2 2 1 3 8
p216
aVDraymond Green GSW 04/18/2015 GSW vs. NOP W 42 15 5 11 45.5 1 3 33.3 4 6 66.7 1 11 12 7 3 2 3 4 23
p217
aVMarreese Speights GSW 04/18/2015 GSW vs. NOP W 1 0 0 0 - 0 0 - 0 0 - 0 0 0 0 0 0 0 0 -5
p218
aVHarrison Barnes GSW 04/18/2015 GSW vs. NOP W 31 12 4 8 50.0 2 3 66.7 2 2 100.0 3 5 8 1 1 0 1 2 18
p219
aVLeandro Barbosa GSW 04/18/2015 GSW vs. NOP W 11 0 0 3 0.0 0 0 - 0 0 - 2 2 4 0 0 0 0 1 13
p220
aVAndre Iguodala GSW 04/18/2015 GSW vs. NOP W 31 8 2 6 33.3 1 4 25.0 3 6 50.0 0 4 4 3 1 0 0 2 -11
p221
aVStephen Curry GSW 04/18/2015 GSW vs. NOP W 40 34 13 25 52.0 4 13 30.8 4 7 57.1 0 4 4 5 3 0 3 4 20
p222
aVShaun Livingston GSW 04/18/2015 GSW vs. NOP W 13 2 1 3 33.3 0 0 - 0 0 - 0 0 0 0 0 0 1 2 -21
p223
a.