(lp0
VPLAYER TEAM DATE MATCHUP W/L MIN PTS FGM FGA FG% 3PM 3PA 3P% FTM FTA FT% OREB DREB REB AST STL BLK TOV PF +/-
p1
aVRay McCallum SAC 04/15/2015 SAC @ LAL W 32 19 7 14 50.0 0 1 0.0 5 9 55.6 1 3 4 6 3 0 1 3 14
p2
aVCarl Landry SAC 04/15/2015 SAC @ LAL W 33 14 4 9 44.4 0 0 - 6 8 75.0 2 7 9 0 1 0 1 3 23
p3
aVAndre Miller SAC 04/15/2015 SAC @ LAL W 2 0 0 0 - 0 0 - 0 0 - 0 0 0 0 0 0 0 0 -3
p4
aVDerrick Williams SAC 04/15/2015 SAC @ LAL W 34 22 9 16 56.3 2 4 50.0 2 4 50.0 0 6 6 3 0 0 2 2 12
p5
aVJason Thompson SAC 04/15/2015 SAC @ LAL W 25 12 5 8 62.5 0 0 - 2 4 50.0 0 7 7 2 0 0 1 2 13
p6
aVRyan Hollins SAC 04/15/2015 SAC @ LAL W 23 12 5 7 71.4 0 0 - 2 7 28.6 3 3 6 0 0 4 1 1 10
p7
aVNik Stauskas SAC 04/15/2015 SAC @ LAL W 32 14 5 9 55.6 3 4 75.0 1 2 50.0 0 5 5 5 2 0 1 3 10
p8
aVDavid Stockton SAC 04/15/2015 SAC @ LAL W 19 5 2 3 66.7 1 1 100.0 0 1 0.0 0 0 0 7 2 0 2 1 15
p9
aVBen McLemore SAC 04/15/2015 SAC @ LAL W 40 24 9 18 50.0 2 7 28.6 4 6 66.7 0 5 5 7 2 0 1 1 21
p10
aVDerrick Williams SAC 04/13/2015 SAC vs. LAL W 29 20 6 12 50.0 1 4 25.0 7 9 77.8 0 1 1 2 1 0 1 1 12
p11
aVJason Thompson SAC 04/13/2015 SAC vs. LAL W 32 10 4 8 50.0 0 0 - 2 4 50.0 2 8 10 2 0 3 2 2 6
p12
aVRyan Hollins SAC 04/13/2015 SAC vs. LAL W 16 2 1 2 50.0 0 0 - 0 0 - 1 4 5 0 1 0 1 1 4
p13
aVRay McCallum SAC 04/13/2015 SAC vs. LAL W 28 12 5 11 45.5 0 1 0.0 2 2 100.0 1 4 5 3 1 0 2 2 5
p14
aVBen McLemore SAC 04/13/2015 SAC vs. LAL W 31 8 2 7 28.6 1 4 25.0 3 4 75.0 1 4 5 2 1 0 2 0 -4
p15
aVCarl Landry SAC 04/13/2015 SAC vs. LAL W 19 14 5 7 71.4 0 0 - 4 4 100.0 0 3 3 0 0 0 0 2 -2
p16
aVAndre Miller SAC 04/13/2015 SAC vs. LAL W 27 10 5 7 71.4 0 0 - 0 0 - 0 2 2 6 0 2 0 2 14
p17
aVOmri Casspi SAC 04/13/2015 SAC vs. LAL W 37 26 7 14 50.0 2 5 40.0 10 13 76.9 0 9 9 6 0 0 2 2 5
p18
aVNik Stauskas SAC 04/13/2015 SAC vs. LAL W 21 0 0 4 0.0 0 2 0.0 0 0 - 0 1 1 1 0 1 0 2 10
p19
aVRyan Hollins SAC 04/12/2015 SAC @ DEN L 19 10 4 6 66.7 0 0 - 2 4 50.0 2 3 5 0 0 0 0 3 4
p20
aVBen McLemore SAC 04/12/2015 SAC @ DEN L 38 20 6 12 50.0 2 5 40.0 6 8 75.0 1 4 5 7 4 0 4 3 -4
p21
aVCarl Landry SAC 04/12/2015 SAC @ DEN L 17 7 1 1 100.0 0 0 - 5 5 100.0 0 2 2 0 1 0 1 0 -20
p22
aVJason Thompson SAC 04/12/2015 SAC @ DEN L 25 9 4 8 50.0 0 0 - 1 2 50.0 1 4 5 3 3 0 3 5 6
p23
aVNik Stauskas SAC 04/12/2015 SAC @ DEN L 21 5 2 8 25.0 1 5 20.0 0 0 - 0 2 2 2 0 0 2 2 -4
p24
aVOmri Casspi SAC 04/12/2015 SAC @ DEN L 35 22 8 13 61.5 1 3 33.3 5 8 62.5 0 7 7 7 1 0 4 4 -14
p25
aVDavid Stockton SAC 04/12/2015 SAC @ DEN L 7 2 0 1 0.0 0 0 - 2 4 50.0 0 0 0 1 0 0 0 0 2
p26
aVDerrick Williams SAC 04/12/2015 SAC @ DEN L 29 13 4 11 36.4 0 3 0.0 5 5 100.0 1 2 3 2 3 0 1 1 -14
p27
aVAndre Miller SAC 04/12/2015 SAC @ DEN L 20 9 3 4 75.0 0 0 - 3 4 75.0 0 0 0 3 0 0 1 2 -4
p28
aVRay McCallum SAC 04/12/2015 SAC @ DEN L 29 14 6 10 60.0 1 2 50.0 1 2 50.0 1 2 3 3 1 0 4 1 -7
p29
aVDerrick Williams SAC 04/10/2015 SAC @ OKC L 26 17 5 15 33.3 0 4 0.0 7 9 77.8 3 3 6 1 0 0 2 2 -19
p30
aVRay McCallum SAC 04/10/2015 SAC @ OKC L 38 17 8 11 72.7 1 2 50.0 0 0 - 1 5 6 4 1 0 1 3 -2
p31
aVCarl Landry SAC 04/10/2015 SAC @ OKC L 15 6 2 5 40.0 0 0 - 2 2 100.0 1 5 6 0 0 1 3 2 -2
p32
aVBen McLemore SAC 04/10/2015 SAC @ OKC L 35 20 8 17 47.1 4 10 40.0 0 0 - 1 3 4 1 0 1 5 2 -1
p33
aVJason Thompson SAC 04/10/2015 SAC @ OKC L 36 5 2 7 28.6 0 0 - 1 2 50.0 3 11 14 3 1 3 2 5 -2
p34
aVRyan Hollins SAC 04/10/2015 SAC @ OKC L 14 6 3 5 60.0 0 0 - 0 0 - 0 2 2 0 0 0 0 5 0
p35
aVNik Stauskas SAC 04/10/2015 SAC @ OKC L 16 9 3 5 60.0 2 3 66.7 1 1 100.0 0 1 1 1 0 0 0 2 -10
p36
aVReggie Evans SAC 04/10/2015 SAC @ OKC L 6 0 0 3 0.0 0 0 - 0 0 - 1 0 1 0 1 0 0 0 -6
p37
aVAndre Miller SAC 04/10/2015 SAC @ OKC L 24 8 2 4 50.0 0 1 0.0 4 6 66.7 2 2 4 8 0 0 3 1 -5
p38
aVOmri Casspi SAC 04/10/2015 SAC @ OKC L 28 15 4 9 44.4 2 4 50.0 5 8 62.5 2 4 6 0 1 0 0 1 -21
p39
aVSim Bhullar SAC 04/10/2015 SAC @ OKC L 1 0 0 0 - 0 0 - 0 0 - 0 0 0 1 0 1 0 0 3
p40
aVAndre Miller SAC 04/08/2015 SAC @ UTA L 25 4 2 6 33.3 0 1 0.0 0 0 - 0 1 1 4 3 0 2 2 2
p41
aVOmri Casspi SAC 04/08/2015 SAC @ UTA L 31 16 5 9 55.6 3 3 100.0 3 4 75.0 1 3 4 5 0 0 5 1 -8
p42
aVDerrick Williams SAC 04/08/2015 SAC @ UTA L 29 14 5 11 45.5 3 7 42.9 1 4 25.0 1 4 5 1 3 0 0 0 -2
p43
aVRay McCallum SAC 04/08/2015 SAC @ UTA L 33 3 1 7 14.3 1 2 50.0 0 0 - 0 2 2 2 2 0 1 1 -21
p44
aVSim Bhullar SAC 04/08/2015 SAC @ UTA L 1 2 1 2 50.0 0 0 - 0 0 - 0 1 1 0 0 0 0 0 0
p45
aVJason Thompson SAC 04/08/2015 SAC @ UTA L 32 12 5 13 38.5 0 0 - 2 2 100.0 5 6 11 3 0 1 0 4 -17
p46
aVBen McLemore SAC 04/08/2015 SAC @ UTA L 38 16 5 12 41.7 0 3 0.0 6 8 75.0 0 0 0 1 1 0 0 4 -5
p47
aVCarl Landry SAC 04/08/2015 SAC @ UTA L 35 16 6 11 54.5 0 0 - 4 6 66.7 0 2 2 1 0 0 1 3 -16
p48
aVReggie Evans SAC 04/08/2015 SAC @ UTA L 15 8 3 4 75.0 0 0 - 2 4 50.0 0 5 5 2 0 0 0 2 5
p49
aVRyan Hollins SAC 04/08/2015 SAC @ UTA L 1 0 0 0 - 0 0 - 0 0 - 0 0 0 0 0 0 0 0 2
p50
aVRudy Gay SAC 04/07/2015 SAC vs. MIN W 38 33 9 17 52.9 2 3 66.7 13 15 86.7 3 4 7 5 1 2 5 0 10
p51
aVSim Bhullar SAC 04/07/2015 SAC vs. MIN W 0 0 0 0 - 0 0 - 0 0 - 0 0 0 0 0 0 0 0 -2
p52
aVDerrick Williams SAC 04/07/2015 SAC vs. MIN W 31 18 8 12 66.7 0 2 0.0 2 4 50.0 3 5 8 1 0 1 1 1 8
p53
aVBen McLemore SAC 04/07/2015 SAC vs. MIN W 17 7 3 7 42.9 1 4 25.0 0 0 - 0 1 1 2 1 0 2 6 -17
p54
aVNik Stauskas SAC 04/07/2015 SAC vs. MIN W 13 0 0 2 0.0 0 2 0.0 0 0 - 0 1 1 1 0 1 2 2 4
p55
aVAndre Miller SAC 04/07/2015 SAC vs. MIN W 21 4 1 2 50.0 0 1 0.0 2 2 100.0 0 2 2 8 0 0 0 2 6
p56
aVOmri Casspi SAC 04/07/2015 SAC vs. MIN W 35 31 12 20 60.0 4 6 66.7 3 5 60.0 0 5 5 1 1 0 0 1 7
p57
aVJason Thompson SAC 04/07/2015 SAC vs. MIN W 31 6 2 3 66.7 0 0 - 2 6 33.3 2 6 8 1 0 2 0 1 -5
p58
aVReggie Evans SAC 04/07/2015 SAC vs. MIN W 17 4 2 4 50.0 0 0 - 0 0 - 3 5 8 2 0 1 2 3 12
p59
aVRay McCallum SAC 04/07/2015 SAC vs. MIN W 36 13 5 13 38.5 2 6 33.3 1 2 50.0 2 7 9 4 2 0 2 1 2
p60
aVAndre Miller SAC 04/05/2015 SAC vs. UTA L 15 2 1 2 50.0 0 1 0.0 0 2 0.0 0 4 4 1 0 1 3 1 -10
p61
aVCarl Landry SAC 04/05/2015 SAC vs. UTA L 14 6 3 6 50.0 0 0 - 0 0 - 2 0 2 1 1 0 0 1 -2
p62
aVRay McCallum SAC 04/05/2015 SAC vs. UTA L 33 8 3 13 23.1 1 3 33.3 1 2 50.0 1 4 5 7 4 0 1 2 4
p63
aVJason Thompson SAC 04/05/2015 SAC vs. UTA L 32 6 2 4 50.0 0 0 - 2 2 100.0 2 7 9 2 0 1 2 4 -3
p64
aVNik Stauskas SAC 04/05/2015 SAC vs. UTA L 16 4 1 3 33.3 0 2 0.0 2 2 100.0 1 0 1 1 0 0 0 0 -5
p65
aVDeMarcus Cousins SAC 04/05/2015 SAC vs. UTA L 35 26 11 22 50.0 0 0 - 4 9 44.4 4 8 12 4 1 1 8 2 -1
p66
aVBen McLemore SAC 04/05/2015 SAC vs. UTA L 38 20 8 12 66.7 2 3 66.7 2 2 100.0 1 4 5 4 4 0 3 5 0
p67
aVDerrick Williams SAC 04/05/2015 SAC vs. UTA L 26 9 4 7 57.1 1 3 33.3 0 1 0.0 0 0 0 0 2 0 1 1 -9
p68
aVOmri Casspi SAC 04/05/2015 SAC vs. UTA L 30 14 5 10 50.0 1 3 33.3 3 4 75.0 0 5 5 0 1 0 2 4 -4
p69
aVAndre Miller SAC 04/03/2015 SAC vs. NOP L 13 2 1 2 50.0 0 0 - 0 0 - 0 0 0 1 1 0 1 1 -1
p70
aVBen McLemore SAC 04/03/2015 SAC vs. NOP L 34 17 7 15 46.7 3 9 33.3 0 0 - 1 2 3 2 2 0 1 6 -5
p71
aVDerrick Williams SAC 04/03/2015 SAC vs. NOP L 26 10 3 7 42.9 0 2 0.0 4 5 80.0 0 1 1 0 0 0 0 2 -9
p72
aVJason Thompson SAC 04/03/2015 SAC vs. NOP L 14 0 0 4 0.0 0 0 - 0 0 - 2 3 5 0 0 1 0 2 2
p73
aVCarl Landry SAC 04/03/2015 SAC vs. NOP L 16 6 2 3 66.7 0 0 - 2 4 50.0 1 0 1 0 0 0 0 2 -11
p74
aVDeMarcus Cousins SAC 04/03/2015 SAC vs. NOP L 42 24 9 22 40.9 0 1 0.0 6 10 60.0 0 20 20 13 1 3 5 5 7
p75
aVOmri Casspi SAC 04/03/2015 SAC vs. NOP L 37 17 7 9 77.8 0 0 - 3 6 50.0 1 2 3 0 0 1 1 2 -4
p76
aVRay McCallum SAC 04/03/2015 SAC vs. NOP L 35 14 6 12 50.0 2 3 66.7 0 0 - 1 3 4 3 0 1 1 4 -5
p77
aVNik Stauskas SAC 04/03/2015 SAC vs. NOP L 22 5 2 4 50.0 1 2 50.0 0 0 - 0 1 1 2 0 0 0 2 -4
p78
aVNik Stauskas SAC 04/01/2015 SAC @ HOU L 17 5 2 6 33.3 1 3 33.3 0 0 - 0 2 2 1 0 0 2 3 -5
p79
aVDeMarcus Cousins SAC 04/01/2015 SAC @ HOU L 39 24 11 25 44.0 0 0 - 2 6 33.3 6 15 21 10 3 6 5 4 1
p80
aVDavid Wear SAC 04/01/2015 SAC @ HOU L 5 0 0 2 0.0 0 1 0.0 0 0 - 1 0 1 0 0 0 0 1 -8
p81
aVAndre Miller SAC 04/01/2015 SAC @ HOU L 13 0 0 0 - 0 0 - 0 0 - 0 0 0 3 0 0 1 1 0
p82
aVJason Thompson SAC 04/01/2015 SAC @ HOU L 21 16 7 9 77.8 0 0 - 2 2 100.0 7 3 10 2 1 0 1 4 -8
p83
aVRay McCallum SAC 04/01/2015 SAC @ HOU L 35 14 5 6 83.3 2 3 66.7 2 4 50.0 0 3 3 6 1 0 4 2 -4
p84
aVBen McLemore SAC 04/01/2015 SAC @ HOU L 31 14 6 10 60.0 2 3 66.7 0 0 - 0 4 4 2 1 1 2 2 1
p85
aVOmri Casspi SAC 04/01/2015 SAC @ HOU L 38 18 8 17 47.1 0 2 0.0 2 2 100.0 2 5 7 4 3 0 5 4 13
p86
aVCarl Landry SAC 04/01/2015 SAC @ HOU L 21 10 5 10 50.0 0 0 - 0 0 - 2 2 4 0 0 2 0 1 2
p87
aVDerrick Williams SAC 04/01/2015 SAC @ HOU L 21 10 4 11 36.4 2 2 100.0 0 2 0.0 2 3 5 2 0 0 1 0 -12
p88
aVBen McLemore SAC 03/30/2015 SAC @ MEM L 30 8 3 9 33.3 1 4 25.0 1 1 100.0 0 3 3 0 0 0 1 2 -20
p89
aVAndre Miller SAC 03/30/2015 SAC @ MEM L 19 0 0 4 0.0 0 0 - 0 0 - 0 2 2 2 0 0 2 2 -4
p90
aVCarl Landry SAC 03/30/2015 SAC @ MEM L 14 7 3 6 50.0 0 0 - 1 2 50.0 2 2 4 0 0 0 2 0 2
p91
aVDavid Wear SAC 03/30/2015 SAC @ MEM L 2 0 0 0 - 0 0 - 0 0 - 1 0 1 1 0 0 0 0 -1
p92
aVDerrick Williams SAC 03/30/2015 SAC @ MEM L 24 10 4 14 28.6 0 3 0.0 2 4 50.0 2 3 5 0 0 0 1 1 -9
p93
aVRyan Hollins SAC 03/30/2015 SAC @ MEM L 5 0 0 0 - 0 0 - 0 0 - 0 0 0 0 0 0 0 3 -1
p94
aVOmri Casspi SAC 03/30/2015 SAC @ MEM L 18 7 3 6 50.0 1 2 50.0 0 0 - 0 0 0 2 1 0 0 1 -2
p95
aVJason Thompson SAC 03/30/2015 SAC @ MEM L 29 4 2 8 25.0 0 0 - 0 0 - 1 5 6 2 0 1 2 4 -16
p96
aVNik Stauskas SAC 03/30/2015 SAC @ MEM L 24 4 1 3 33.3 1 2 50.0 1 2 50.0 1 4 5 3 1 1 0 1 5
p97
aVReggie Evans SAC 03/30/2015 SAC @ MEM L 18 7 3 4 75.0 0 0 - 1 2 50.0 3 4 7 1 1 0 1 3 -6
p98
aVRay McCallum SAC 03/30/2015 SAC @ MEM L 29 12 4 9 44.4 0 2 0.0 4 7 57.1 1 3 4 3 0 0 2 1 -10
p99
aVRudy Gay SAC 03/30/2015 SAC @ MEM L 29 24 10 18 55.6 2 3 66.7 2 2 100.0 1 3 4 2 1 1 1 1 -8
p100
aVRudy Gay SAC 03/27/2015 SAC @ NOP L 37 18 7 18 38.9 1 5 20.0 3 4 75.0 2 2 4 2 1 1 3 3 -3
p101
aVDeMarcus Cousins SAC 03/27/2015 SAC @ NOP L 41 39 16 28 57.1 0 0 - 7 12 58.3 8 12 20 2 1 3 3 3 -1
p102
aVJason Thompson SAC 03/27/2015 SAC @ NOP L 20 0 0 0 - 0 0 - 0 0 - 0 5 5 0 0 0 0 1 -11
p103
aVRay McCallum SAC 03/27/2015 SAC @ NOP L 34 2 1 4 25.0 0 1 0.0 0 0 - 0 2 2 5 1 0 1 1 4
p104
aVReggie Evans SAC 03/27/2015 SAC @ NOP L 5 0 0 0 - 0 0 - 0 0 - 0 0 0 0 0 0 0 0 -6
p105
aVOmri Casspi SAC 03/27/2015 SAC @ NOP L 24 10 4 8 50.0 2 2 100.0 0 0 - 0 1 1 2 0 0 0 2 1
p106
aVAndre Miller SAC 03/27/2015 SAC @ NOP L 14 4 2 4 50.0 0 1 0.0 0 0 - 0 0 0 0 0 0 3 2 -18
p107
aVBen McLemore SAC 03/27/2015 SAC @ NOP L 31 7 2 9 22.2 2 4 50.0 1 2 50.0 0 4 4 1 1 0 0 1 6
p108
aVDerrick Williams SAC 03/27/2015 SAC @ NOP L 16 3 1 4 25.0 1 1 100.0 0 0 - 0 0 0 1 0 0 0 0 -19
p109
aVNik Stauskas SAC 03/27/2015 SAC @ NOP L 19 5 2 4 50.0 1 1 100.0 0 0 - 0 1 1 1 1 0 1 1 -23
p110
aVJason Thompson SAC 03/25/2015 SAC @ PHX W 14 2 1 5 20.0 0 0 - 0 0 - 1 4 5 1 0 0 1 2 1
p111
aVRudy Gay SAC 03/25/2015 SAC @ PHX W 29 14 3 7 42.9 0 3 0.0 8 9 88.9 0 4 4 5 1 0 3 4 5
p112
aVReggie Evans SAC 03/25/2015 SAC @ PHX W 7 0 0 0 - 0 0 - 0 0 - 2 2 4 0 0 0 1 0 8
p113
aVNik Stauskas SAC 03/25/2015 SAC @ PHX W 18 13 5 7 71.4 2 3 66.7 1 1 100.0 0 4 4 1 1 0 1 1 12
p114
aVOmri Casspi SAC 03/25/2015 SAC @ PHX W 28 10 4 10 40.0 2 4 50.0 0 0 - 1 1 2 1 1 0 1 2 -4
p115
aVDeMarcus Cousins SAC 03/25/2015 SAC @ PHX W 37 24 11 19 57.9 0 0 - 2 3 66.7 1 10 11 3 2 1 5 2 8
p116
aVAndre Miller SAC 03/25/2015 SAC @ PHX W 18 7 1 5 20.0 1 2 50.0 4 4 100.0 1 1 2 7 0 1 2 3 12
p117
aVRay McCallum SAC 03/25/2015 SAC @ PHX W 31 14 6 11 54.5 0 1 0.0 2 2 100.0 2 3 5 5 1 1 2 1 0
p118
aVBen McLemore SAC 03/25/2015 SAC @ PHX W 29 12 5 9 55.6 2 5 40.0 0 0 - 0 2 2 3 2 0 1 5 -6
p119
aVDerrick Williams SAC 03/25/2015 SAC @ PHX W 29 12 4 8 50.0 1 3 33.3 3 4 75.0 0 4 4 1 0 0 2 4 9
p120
aVDerrick Williams SAC 03/24/2015 SAC vs. PHI W 14 8 2 5 40.0 1 2 50.0 3 4 75.0 2 2 4 0 0 0 0 0 8
p121
aVDeMarcus Cousins SAC 03/24/2015 SAC vs. PHI W 36 33 8 27 29.6 0 1 0.0 17 19 89.5 10 7 17 3 4 4 3 5 -2
p122
aVNik Stauskas SAC 03/24/2015 SAC vs. PHI W 20 6 2 6 33.3 2 3 66.7 0 0 - 0 2 2 3 0 2 0 2 -6
p123
aVOmri Casspi SAC 03/24/2015 SAC vs. PHI W 25 5 2 6 33.3 1 3 33.3 0 0 - 1 4 5 1 1 0 1 2 -11
p124
aVBen McLemore SAC 03/24/2015 SAC vs. PHI W 34 9 4 8 50.0 1 1 100.0 0 0 - 0 2 2 1 1 0 1 2 6
p125
aVJason Thompson SAC 03/24/2015 SAC vs. PHI W 19 8 4 6 66.7 0 0 - 0 2 0.0 3 1 4 2 0 0 0 1 2
p126
aVAndre Miller SAC 03/24/2015 SAC vs. PHI W 16 4 1 1 100.0 0 0 - 2 2 100.0 0 0 0 6 1 0 2 3 -7
p127
aVRay McCallum SAC 03/24/2015 SAC vs. PHI W 32 11 5 17 29.4 1 6 16.7 0 2 0.0 3 3 6 2 2 1 0 2 8
p128
aVRudy Gay SAC 03/24/2015 SAC vs. PHI W 41 21 6 19 31.6 1 4 25.0 8 9 88.9 1 7 8 3 1 2 3 2 3
p129
aVReggie Evans SAC 03/24/2015 SAC vs. PHI W 4 2 1 2 50.0 0 0 - 0 0 - 0 2 2 0 0 0 0 1 4
p130
aVNik Stauskas SAC 03/22/2015 SAC vs. WAS W 22 2 1 6 16.7 0 2 0.0 0 0 - 0 0 0 0 0 0 1 0 16
p131
aVDerrick Williams SAC 03/22/2015 SAC vs. WAS W 18 8 3 6 50.0 0 0 - 2 3 66.7 0 3 3 3 0 1 2 0 7
p132
aVDeMarcus Cousins SAC 03/22/2015 SAC vs. WAS W 23 20 6 11 54.5 0 0 - 8 8 100.0 0 7 7 5 3 0 5 5 5
p133
aVRudy Gay SAC 03/22/2015 SAC vs. WAS W 32 26 10 19 52.6 2 5 40.0 4 4 100.0 1 4 5 2 0 1 1 2 14
p134
aVRay McCallum SAC 03/22/2015 SAC vs. WAS W 30 13 5 9 55.6 1 2 50.0 2 2 100.0 1 1 2 6 0 0 0 1 23
p135
aVRyan Hollins SAC 03/22/2015 SAC vs. WAS W 5 0 0 0 - 0 0 - 0 0 - 0 0 0 0 0 0 0 0 5
p136
aVCarl Landry SAC 03/22/2015 SAC vs. WAS W 2 0 0 0 - 0 0 - 0 0 - 0 1 1 0 0 0 0 0 4
p137
aVJason Thompson SAC 03/22/2015 SAC vs. WAS W 13 3 1 2 50.0 0 0 - 1 2 50.0 0 4 4 0 0 0 0 2 4
p138
aVOmri Casspi SAC 03/22/2015 SAC vs. WAS W 32 14 4 6 66.7 2 2 100.0 4 4 100.0 0 2 2 5 3 0 3 4 14
p139
aVReggie Evans SAC 03/22/2015 SAC vs. WAS W 15 0 0 2 0.0 0 0 - 0 0 - 1 4 5 1 2 0 1 1 7
p140
aVAndre Miller SAC 03/22/2015 SAC vs. WAS W 18 6 3 7 42.9 0 1 0.0 0 0 - 0 2 2 1 0 0 1 0 0
p141
aVBen McLemore SAC 03/22/2015 SAC vs. WAS W 31 17 7 11 63.6 3 5 60.0 0 0 - 1 2 3 1 4 0 2 2 16
p142
aVNik Stauskas SAC 03/20/2015 SAC vs. CHA W 16 8 2 6 33.3 2 4 50.0 2 2 100.0 0 1 1 0 1 0 1 1 4
p143
aVAndre Miller SAC 03/20/2015 SAC vs. CHA W 25 7 3 6 50.0 1 1 100.0 0 0 - 1 2 3 7 0 0 2 0 3
p144
aVDerrick Williams SAC 03/20/2015 SAC vs. CHA W 25 13 4 8 50.0 1 4 25.0 4 6 66.7 0 2 2 2 0 0 0 1 4
p145
aVBen McLemore SAC 03/20/2015 SAC vs. CHA W 27 9 3 7 42.9 2 4 50.0 1 1 100.0 0 0 0 2 1 0 2 3 4
p146
aVJason Thompson SAC 03/20/2015 SAC vs. CHA W 27 8 4 8 50.0 0 0 - 0 1 0.0 0 8 8 1 0 2 2 2 1
p147
aVRudy Gay SAC 03/20/2015 SAC vs. CHA W 37 33 11 20 55.0 2 5 40.0 9 10 90.0 3 6 9 4 2 0 3 3 9
p148
aVOmri Casspi SAC 03/20/2015 SAC vs. CHA W 33 10 4 6 66.7 1 2 50.0 1 3 33.3 0 5 5 2 0 0 3 2 8
p149
aVReggie Evans SAC 03/20/2015 SAC vs. CHA W 21 4 2 5 40.0 0 0 - 0 0 - 5 11 16 2 0 0 4 2 5
p150
aVCarl Landry SAC 03/20/2015 SAC vs. CHA W 7 1 0 3 0.0 0 0 - 1 2 50.0 0 0 0 0 0 0 0 1 1
p151
aVRay McCallum SAC 03/20/2015 SAC vs. CHA W 23 8 4 9 44.4 0 1 0.0 0 0 - 2 2 4 1 0 1 4 2 11
p152
aVAndre Miller SAC 03/18/2015 SAC vs. LAC L 25 16 8 11 72.7 0 1 0.0 0 0 - 1 2 3 4 0 0 2 3 1
p153
aVRay McCallum SAC 03/18/2015 SAC vs. LAC L 23 8 4 8 50.0 0 1 0.0 0 0 - 0 2 2 2 1 0 1 0 -12
p154
aVNik Stauskas SAC 03/18/2015 SAC vs. LAC L 23 13 4 6 66.7 1 3 33.3 4 4 100.0 1 2 3 1 0 0 2 0 1
p155
aVOmri Casspi SAC 03/18/2015 SAC vs. LAC L 18 5 2 5 40.0 1 3 33.3 0 0 - 0 6 6 3 0 0 0 0 4
p156
aVJason Thompson SAC 03/18/2015 SAC vs. LAC L 34 12 5 10 50.0 0 0 - 2 4 50.0 2 6 8 0 1 0 1 3 -12
p157
aVRyan Hollins SAC 03/18/2015 SAC vs. LAC L 14 9 4 4 100.0 0 0 - 1 2 50.0 2 1 3 1 0 0 0 3 -10
p158
aVReggie Evans SAC 03/18/2015 SAC vs. LAC L 23 8 2 5 40.0 0 0 - 4 6 66.7 3 8 11 0 1 0 0 2 1
p159
aVDerrick Williams SAC 03/18/2015 SAC vs. LAC L 24 11 3 6 50.0 1 3 33.3 4 5 80.0 0 1 1 1 0 0 2 1 1
p160
aVRudy Gay SAC 03/18/2015 SAC vs. LAC L 37 23 6 19 31.6 0 5 0.0 11 11 100.0 0 6 6 4 3 0 2 4 -18
p161
aVBen McLemore SAC 03/18/2015 SAC vs. LAC L 19 0 0 5 0.0 0 1 0.0 0 0 - 0 1 1 2 1 0 0 2 -11
p162
aVReggie Evans SAC 03/16/2015 SAC vs. ATL L 8 1 0 0 - 0 0 - 1 2 50.0 0 2 2 0 2 0 0 1 6
p163
aVRay McCallum SAC 03/16/2015 SAC vs. ATL L 22 10 4 8 50.0 2 4 50.0 0 0 - 2 3 5 3 0 0 1 4 -17
p164
aVAndre Miller SAC 03/16/2015 SAC vs. ATL L 28 16 6 7 85.7 2 2 100.0 2 2 100.0 0 2 2 7 1 0 5 3 12
p165
aVOmri Casspi SAC 03/16/2015 SAC vs. ATL L 36 16 6 13 46.2 2 5 40.0 2 2 100.0 2 3 5 1 2 0 3 4 -12
p166
aVDeMarcus Cousins SAC 03/16/2015 SAC vs. ATL L 34 20 7 19 36.8 0 1 0.0 6 8 75.0 2 11 13 5 2 3 5 5 -4
p167
aVNik Stauskas SAC 03/16/2015 SAC vs. ATL L 27 7 2 8 25.0 1 4 25.0 2 3 66.7 0 2 2 1 0 1 1 1 -6
p168
aVDerrick Williams SAC 03/16/2015 SAC vs. ATL L 15 0 0 5 0.0 0 2 0.0 0 0 - 0 4 4 1 0 0 1 1 -5
p169
aVJason Thompson SAC 03/16/2015 SAC vs. ATL L 24 18 7 7 100.0 0 0 - 4 4 100.0 1 2 3 2 0 1 1 2 1
p170
aVBen McLemore SAC 03/16/2015 SAC vs. ATL L 29 11 5 11 45.5 0 2 0.0 1 2 50.0 1 5 6 3 0 0 2 6 2
p171
aVCarl Landry SAC 03/16/2015 SAC vs. ATL L 17 4 1 3 33.3 0 0 - 2 2 100.0 1 2 3 0 0 0 1 2 -12
p172
aVOmri Casspi SAC 03/14/2015 SAC @ WAS L 15 2 1 2 50.0 0 0 - 0 0 - 0 1 1 1 0 0 3 1 -11
p173
aVAndre Miller SAC 03/14/2015 SAC @ WAS L 22 4 1 6 16.7 0 2 0.0 2 3 66.7 2 2 4 7 0 0 2 0 -12
p174
aVJason Thompson SAC 03/14/2015 SAC @ WAS L 23 4 2 5 40.0 0 0 - 0 0 - 2 3 5 1 0 1 0 0 -13
p175
aVRay McCallum SAC 03/14/2015 SAC @ WAS L 29 15 5 8 62.5 2 2 100.0 3 4 75.0 3 3 6 6 1 0 2 2 -10
p176
aVBen McLemore SAC 03/14/2015 SAC @ WAS L 28 7 2 10 20.0 1 7 14.3 2 2 100.0 0 4 4 1 1 0 2 2 -14
p177
aVReggie Evans SAC 03/14/2015 SAC @ WAS L 18 6 2 3 66.7 0 0 - 2 3 66.7 0 6 6 0 1 0 2 2 7
p178
aVNik Stauskas SAC 03/14/2015 SAC @ WAS L 23 6 3 9 33.3 0 2 0.0 0 0 - 1 1 2 2 1 1 0 2 -1
p179
aVCarl Landry SAC 03/14/2015 SAC @ WAS L 19 8 4 6 66.7 0 0 - 0 0 - 1 0 1 0 0 0 0 2 -9
p180
aVDeMarcus Cousins SAC 03/14/2015 SAC @ WAS L 30 30 9 17 52.9 0 0 - 12 16 75.0 2 4 6 5 0 1 3 6 -7
p181
aVDerrick Williams SAC 03/14/2015 SAC @ WAS L 34 15 6 11 54.5 3 6 50.0 0 0 - 0 1 1 1 0 0 2 0 -10
p182
aVCarl Landry SAC 03/13/2015 SAC @ PHI L 12 6 3 4 75.0 0 0 - 0 0 - 0 3 3 0 0 0 1 3 -6
p183
aVRay McCallum SAC 03/13/2015 SAC @ PHI L 31 9 4 12 33.3 1 3 33.3 0 0 - 1 0 1 8 0 0 3 4 0
p184
aVBen McLemore SAC 03/13/2015 SAC @ PHI L 31 4 2 7 28.6 0 1 0.0 0 0 - 0 2 2 2 1 1 3 2 -10
p185
aVDerrick Williams SAC 03/13/2015 SAC @ PHI L 31 15 5 9 55.6 2 5 40.0 3 4 75.0 2 1 3 0 1 0 0 0 -3
p186
aVJason Thompson SAC 03/13/2015 SAC @ PHI L 20 4 1 3 33.3 0 0 - 2 2 100.0 1 4 5 1 1 1 0 4 -7
p187
aVDeMarcus Cousins SAC 03/13/2015 SAC @ PHI L 40 39 12 24 50.0 0 0 - 15 20 75.0 9 15 24 1 2 1 3 2 3
p188
aVOmri Casspi SAC 03/13/2015 SAC @ PHI L 13 2 0 1 0.0 0 0 - 2 2 100.0 0 1 1 1 0 0 2 1 -15
p189
aVAndre Miller SAC 03/13/2015 SAC @ PHI L 24 4 1 10 10.0 0 0 - 2 2 100.0 2 5 7 6 3 0 1 4 -1
p190
aVRudy Gay SAC 03/13/2015 SAC @ PHI L 40 24 7 17 41.2 1 5 20.0 9 10 90.0 1 3 4 3 1 1 4 0 4
p191
aVDeMarcus Cousins SAC 03/11/2015 SAC @ CHA W 34 20 8 17 47.1 0 2 0.0 4 5 80.0 0 14 14 1 2 0 4 4 -3
p192
aVRudy Gay SAC 03/11/2015 SAC @ CHA W 39 26 9 17 52.9 2 3 66.7 6 8 75.0 0 3 3 1 0 1 2 3 0
p193
aVDerrick Williams SAC 03/11/2015 SAC @ CHA W 23 3 1 5 20.0 1 5 20.0 0 0 - 0 1 1 1 1 0 1 2 20
p194
aVJason Thompson SAC 03/11/2015 SAC @ CHA W 14 7 3 4 75.0 0 0 - 1 2 50.0 3 4 7 1 0 1 0 3 10
p195
aVRay McCallum SAC 03/11/2015 SAC @ CHA W 25 6 1 7 14.3 0 2 0.0 4 5 80.0 0 4 4 9 0 0 0 1 -8
p196
aVAndre Miller SAC 03/11/2015 SAC @ CHA W 26 7 3 9 33.3 1 3 33.3 0 0 - 1 1 2 7 0 0 4 2 11
p197
aVBen McLemore SAC 03/11/2015 SAC @ CHA W 41 27 10 16 62.5 3 4 75.0 4 4 100.0 0 2 2 2 1 0 1 3 7
p198
aVOmri Casspi SAC 03/11/2015 SAC @ CHA W 19 7 2 6 33.3 1 1 100.0 2 2 100.0 1 6 7 2 0 1 0 2 -2
p199
aVCarl Landry SAC 03/11/2015 SAC @ CHA W 19 10 3 4 75.0 0 0 - 4 4 100.0 2 1 3 1 0 0 0 1 0
p200
aVRay McCallum SAC 03/09/2015 SAC @ ATL L 29 15 6 10 60.0 1 2 50.0 2 2 100.0 2 1 3 5 2 0 3 2 -19
p201
aVDeMarcus Cousins SAC 03/09/2015 SAC @ ATL L 32 12 3 9 33.3 0 0 - 6 6 100.0 4 10 14 6 1 0 1 2 -22
p202
aVCarl Landry SAC 03/09/2015 SAC @ ATL L 16 6 2 4 50.0 0 0 - 2 2 100.0 2 1 3 0 1 0 0 2 -5
p203
aVJason Thompson SAC 03/09/2015 SAC @ ATL L 16 9 3 9 33.3 0 0 - 3 4 75.0 4 2 6 0 2 1 1 2 -3
p204
aVBen McLemore SAC 03/09/2015 SAC @ ATL L 28 12 4 16 25.0 2 8 25.0 2 2 100.0 1 0 1 3 0 0 2 2 -11
p205
aVAndre Miller SAC 03/09/2015 SAC @ ATL L 22 6 2 3 66.7 0 1 0.0 2 2 100.0 1 1 2 3 2 0 2 0 -8
p206
aVNik Stauskas SAC 03/09/2015 SAC @ ATL L 21 10 4 5 80.0 2 2 100.0 0 0 - 0 2 2 1 1 0 1 1 -8
p207
aVOmri Casspi SAC 03/09/2015 SAC @ ATL L 22 6 3 6 50.0 0 1 0.0 0 0 - 0 3 3 2 0 0 2 1 -17
p208
aVDerrick Williams SAC 03/09/2015 SAC @ ATL L 19 6 2 4 50.0 0 2 0.0 2 2 100.0 0 2 2 0 1 0 0 0 -10
p209
aVRudy Gay SAC 03/09/2015 SAC @ ATL L 35 23 10 15 66.7 3 4 75.0 0 0 - 2 2 4 1 0 1 4 0 -22
p210
aVRudy Gay SAC 03/07/2015 SAC @ MIA L 46 27 12 24 50.0 3 8 37.5 0 2 0.0 3 5 8 5 1 2 3 4 -9
p211
aVDeMarcus Cousins SAC 03/07/2015 SAC @ MIA L 35 27 10 17 58.8 0 0 - 7 8 87.5 6 11 17 3 2 1 5 6 -6
p212
aVRay McCallum SAC 03/07/2015 SAC @ MIA L 39 9 3 10 30.0 1 2 50.0 2 2 100.0 0 1 1 7 0 0 2 5 1
p213
aVAndre Miller SAC 03/07/2015 SAC @ MIA L 30 7 3 8 37.5 0 2 0.0 1 2 50.0 1 3 4 8 0 0 1 2 -10
p214
aVNik Stauskas SAC 03/07/2015 SAC @ MIA L 3 0 0 0 - 0 0 - 0 0 - 0 0 0 0 0 0 2 1 0
p215
aVOmri Casspi SAC 03/07/2015 SAC @ MIA L 18 3 1 3 33.3 1 2 50.0 0 0 - 0 7 7 2 0 0 2 2 -2
p216
aVDerrick Williams SAC 03/07/2015 SAC @ MIA L 18 10 3 7 42.9 2 3 66.7 2 2 100.0 0 2 2 0 1 0 2 0 -8
p217
aVReggie Evans SAC 03/07/2015 SAC @ MIA L 7 2 0 1 0.0 0 0 - 2 2 100.0 0 0 0 0 0 0 0 1 3
p218
aVBen McLemore SAC 03/07/2015 SAC @ MIA L 45 20 7 16 43.8 3 8 37.5 3 4 75.0 0 4 4 0 2 1 2 5 4
p219
aVJason Thompson SAC 03/07/2015 SAC @ MIA L 23 4 1 2 50.0 0 0 - 2 2 100.0 2 1 3 1 1 0 1 3 2
p220
aVRay McCallum SAC 03/06/2015 SAC @ ORL L 32 13 4 10 40.0 1 5 20.0 4 6 66.7 2 0 2 2 0 0 2 2 -13
p221
aVReggie Evans SAC 03/06/2015 SAC @ ORL L 5 0 0 0 - 0 0 - 0 0 - 0 1 1 0 0 0 0 0 3
p222
aVJason Thompson SAC 03/06/2015 SAC @ ORL L 24 5 2 3 66.7 0 0 - 1 2 50.0 2 3 5 0 0 0 1 1 -1
p223
aVDerrick Williams SAC 03/06/2015 SAC @ ORL L 13 6 2 4 50.0 2 4 50.0 0 0 - 1 1 2 0 0 0 1 0 -5
p224
aVOmri Casspi SAC 03/06/2015 SAC @ ORL L 26 12 2 8 25.0 1 2 50.0 7 9 77.8 2 2 4 1 1 1 0 3 6
p225
aVDeMarcus Cousins SAC 03/06/2015 SAC @ ORL L 39 29 9 18 50.0 0 0 - 11 14 78.6 4 8 12 2 0 3 1 2 -8
p226
aVAndre Miller SAC 03/06/2015 SAC @ ORL L 23 3 1 8 12.5 1 4 25.0 0 0 - 2 3 5 8 2 0 3 5 6
p227
aVNik Stauskas SAC 03/06/2015 SAC @ ORL L 14 7 2 3 66.7 2 3 66.7 1 2 50.0 0 0 0 0 0 0 0 0 3
p228
aVBen McLemore SAC 03/06/2015 SAC @ ORL L 21 0 0 5 0.0 0 3 0.0 0 0 - 1 3 4 2 0 0 1 1 -11
p229
aVRudy Gay SAC 03/06/2015 SAC @ ORL L 42 39 16 26 61.5 3 6 50.0 4 5 80.0 5 3 8 3 3 2 5 2 -5
p230
aVAndre Miller SAC 03/04/2015 SAC @ SAS L 18 4 1 3 33.3 0 1 0.0 2 2 100.0 0 3 3 4 1 0 2 0 -17
p231
aVRay McCallum SAC 03/04/2015 SAC @ SAS L 30 12 6 12 50.0 0 0 - 0 1 0.0 2 5 7 4 3 1 1 1 -10
p232
aVJason Thompson SAC 03/04/2015 SAC @ SAS L 26 6 3 8 37.5 0 0 - 0 0 - 1 6 7 0 2 0 2 2 -21
p233
aVDerrick Williams SAC 03/04/2015 SAC @ SAS L 19 11 1 4 25.0 1 1 100.0 8 8 100.0 0 1 1 0 0 0 1 2 -15
p234
aVNik Stauskas SAC 03/04/2015 SAC @ SAS L 19 7 3 6 50.0 1 3 33.3 0 0 - 0 0 0 1 0 0 0 1 -10
p235
aVRudy Gay SAC 03/04/2015 SAC @ SAS L 27 10 4 16 25.0 0 1 0.0 2 4 50.0 1 4 5 3 1 0 1 1 -24
p236
aVCarl Landry SAC 03/04/2015 SAC @ SAS L 7 2 0 0 - 0 0 - 2 2 100.0 0 0 0 0 0 0 0 0 8
p237
aVBen McLemore SAC 03/04/2015 SAC @ SAS L 39 9 3 8 37.5 1 3 33.3 2 4 50.0 2 0 2 2 3 1 3 1 -12
p238
aVDeMarcus Cousins SAC 03/04/2015 SAC @ SAS L 22 14 5 12 41.7 0 0 - 4 7 57.1 1 2 3 0 3 2 5 4 -7
p239
aVRyan Hollins SAC 03/04/2015 SAC @ SAS L 13 5 1 3 33.3 0 0 - 3 4 75.0 1 4 5 1 1 0 1 1 -5
p240
aVOmri Casspi SAC 03/04/2015 SAC @ SAS L 21 5 2 6 33.3 0 0 - 1 2 50.0 0 2 2 0 0 0 1 0 -22
p241
aVJason Thompson SAC 03/03/2015 SAC @ NYK W 28 4 2 6 33.3 0 0 - 0 0 - 0 9 9 1 1 0 2 5 36
p242
aVCarl Landry SAC 03/03/2015 SAC @ NYK W 5 1 0 1 0.0 0 0 - 1 2 50.0 2 0 2 0 0 0 0 0 2
p243
aVDerrick Williams SAC 03/03/2015 SAC @ NYK W 28 17 7 12 58.3 3 5 60.0 0 2 0.0 1 2 3 2 1 0 1 2 17
p244
aVNik Stauskas SAC 03/03/2015 SAC @ NYK W 26 15 4 8 50.0 1 2 50.0 6 6 100.0 0 0 0 2 0 0 1 3 10
p245
aVOmri Casspi SAC 03/03/2015 SAC @ NYK W 20 14 6 10 60.0 0 2 0.0 2 2 100.0 1 2 3 2 1 0 1 2 25
p246
aVRyan Hollins SAC 03/03/2015 SAC @ NYK W 5 0 0 1 0.0 0 0 - 0 0 - 0 3 3 1 1 0 1 1 2
p247
aVDeMarcus Cousins SAC 03/03/2015 SAC @ NYK W 29 22 5 10 50.0 1 1 100.0 11 11 100.0 0 10 10 3 2 2 3 3 19
p248
aVRay McCallum SAC 03/03/2015 SAC @ NYK W 28 6 2 7 28.6 0 0 - 2 2 100.0 0 3 3 4 0 0 2 0 18
p249
aVAndre Miller SAC 03/03/2015 SAC @ NYK W 20 0 0 1 0.0 0 0 - 0 0 - 0 4 4 3 2 0 1 0 20
p250
aVBen McLemore SAC 03/03/2015 SAC @ NYK W 23 20 6 12 50.0 2 4 50.0 6 7 85.7 0 2 2 4 0 0 0 1 25
p251
aVRudy Gay SAC 03/03/2015 SAC @ NYK W 27 25 9 15 60.0 3 4 75.0 4 5 80.0 4 3 7 4 1 0 2 3 16
p252
aVAndre Miller SAC 03/01/2015 SAC vs. POR L 26 12 6 7 85.7 0 0 - 0 0 - 0 2 2 10 2 0 3 1 3
p253
aVOmri Casspi SAC 03/01/2015 SAC vs. POR L 27 7 2 7 28.6 0 2 0.0 3 4 75.0 0 1 1 1 1 0 2 1 -5
p254
aVCarl Landry SAC 03/01/2015 SAC vs. POR L 16 5 2 6 33.3 0 0 - 1 2 50.0 1 3 4 0 1 1 0 3 -12
p255
aVJason Thompson SAC 03/01/2015 SAC vs. POR L 18 2 1 3 33.3 0 0 - 0 0 - 0 4 4 3 1 0 1 6 -17
p256
aVBen McLemore SAC 03/01/2015 SAC vs. POR L 24 12 4 12 33.3 2 5 40.0 2 2 100.0 0 2 2 1 2 0 2 1 1
p257
aVRyan Hollins SAC 03/01/2015 SAC vs. POR L 28 4 2 3 66.7 0 0 - 0 0 - 1 2 3 1 1 1 0 3 8
p258
aVDerrick Williams SAC 03/01/2015 SAC vs. POR L 23 18 7 12 58.3 0 2 0.0 4 5 80.0 0 1 1 0 0 0 1 0 -13
p259
aVRay McCallum SAC 03/01/2015 SAC vs. POR L 25 12 5 13 38.5 0 2 0.0 2 2 100.0 0 2 2 5 0 0 0 1 -20
p260
aVReggie Evans SAC 03/01/2015 SAC vs. POR L 15 3 0 1 0.0 0 0 - 3 4 75.0 3 3 6 2 0 0 1 1 11
p261
aVRudy Gay SAC 03/01/2015 SAC vs. POR L 38 24 10 22 45.5 1 1 100.0 3 4 75.0 2 6 8 1 0 0 2 1 -11
p262
aVJason Thompson SAC 02/27/2015 SAC vs. SAS L 33 12 6 10 60.0 0 0 - 0 0 - 3 8 11 2 0 1 1 3 -10
p263
aVReggie Evans SAC 02/27/2015 SAC vs. SAS L 21 3 0 3 0.0 0 0 - 3 4 75.0 1 10 11 1 0 0 3 2 -14
p264
aVCarl Landry SAC 02/27/2015 SAC vs. SAS L 18 8 4 8 50.0 0 0 - 0 0 - 0 5 5 0 0 0 0 4 7
p265
aVBen McLemore SAC 02/27/2015 SAC vs. SAS L 35 21 5 8 62.5 1 2 50.0 10 12 83.3 0 4 4 2 0 0 0 2 -9
p266
aVAndre Miller SAC 02/27/2015 SAC vs. SAS L 17 10 4 7 57.1 0 1 0.0 2 3 66.7 0 5 5 3 0 0 2 3 0
p267
aVRudy Gay SAC 02/27/2015 SAC vs. SAS L 36 16 6 15 40.0 0 0 - 4 4 100.0 2 4 6 4 1 0 8 3 -4
p268
aVRay McCallum SAC 02/27/2015 SAC vs. SAS L 36 20 10 17 58.8 0 1 0.0 0 0 - 0 0 0 3 1 0 1 5 -12
p269
aVOmri Casspi SAC 02/27/2015 SAC vs. SAS L 24 6 3 9 33.3 0 0 - 0 0 - 1 3 4 0 1 0 0 3 -13
p270
aVDerrick Williams SAC 02/27/2015 SAC vs. SAS L 8 0 0 2 0.0 0 0 - 0 0 - 0 1 1 0 0 0 1 2 -4
p271
aVRyan Hollins SAC 02/27/2015 SAC vs. SAS L 12 0 0 0 - 0 0 - 0 0 - 0 0 0 0 0 1 1 1 4
p272
aVOmri Casspi SAC 02/25/2015 SAC vs. MEM W 22 6 2 6 33.3 0 1 0.0 2 2 100.0 1 2 3 0 0 0 2 0 20
p273
aVJason Thompson SAC 02/25/2015 SAC vs. MEM W 33 10 3 9 33.3 0 0 - 4 6 66.7 5 6 11 1 1 4 2 3 6
p274
aVRay McCallum SAC 02/25/2015 SAC vs. MEM W 23 10 3 7 42.9 1 2 50.0 3 4 75.0 1 0 1 3 3 0 2 0 5
p275
aVRudy Gay SAC 02/25/2015 SAC vs. MEM W 35 28 12 20 60.0 1 5 20.0 3 5 60.0 2 3 5 6 1 0 2 3 1
p276
aVDeMarcus Cousins SAC 02/25/2015 SAC vs. MEM W 24 16 6 13 46.2 0 0 - 4 6 66.7 2 7 9 6 1 1 2 6 9
p277
aVCarl Landry SAC 02/25/2015 SAC vs. MEM W 3 2 0 0 - 0 0 - 2 2 100.0 0 0 0 0 0 0 0 1 0
p278
aVAndre Miller SAC 02/25/2015 SAC vs. MEM W 26 4 2 4 50.0 0 0 - 0 0 - 0 6 6 7 0 0 2 0 8
p279
aVBen McLemore SAC 02/25/2015 SAC vs. MEM W 32 16 7 15 46.7 2 5 40.0 0 0 - 0 0 0 0 2 1 4 1 1
p280
aVDerrick Williams SAC 02/25/2015 SAC vs. MEM W 15 8 3 5 60.0 2 3 66.7 0 0 - 0 1 1 0 0 0 2 1 7
p281
aVReggie Evans SAC 02/25/2015 SAC vs. MEM W 27 2 1 1 100.0 0 0 - 0 0 - 2 9 11 1 2 0 2 3 3
p282
aVCarl Landry SAC 02/21/2015 SAC @ LAC L 13 9 2 7 28.6 0 0 - 5 6 83.3 3 3 6 1 0 0 1 1 -11
p283
aVOmri Casspi SAC 02/21/2015 SAC @ LAC L 28 11 4 8 50.0 1 2 50.0 2 3 66.7 3 14 17 1 0 0 1 1 -12
p284
aVRudy Gay SAC 02/21/2015 SAC @ LAC L 32 15 4 13 30.8 2 4 50.0 5 7 71.4 2 4 6 2 0 1 1 2 -33
p285
aVRyan Hollins SAC 02/21/2015 SAC @ LAC L 7 6 2 2 100.0 0 0 - 2 4 50.0 1 1 2 0 0 1 0 1 6
p286
aVDavid Stockton SAC 02/21/2015 SAC @ LAC L 7 1 0 2 0.0 0 1 0.0 1 1 100.0 0 2 2 1 0 0 2 0 6
p287
aVNik Stauskas SAC 02/21/2015 SAC @ LAC L 14 6 1 4 25.0 0 0 - 4 4 100.0 0 0 0 1 0 0 2 0 0
p288
aVJason Thompson SAC 02/21/2015 SAC @ LAC L 21 0 0 4 0.0 0 0 - 0 0 - 0 4 4 0 0 1 1 2 -4
p289
aVAndre Miller SAC 02/21/2015 SAC @ LAC L 22 4 2 5 40.0 0 0 - 0 0 - 1 0 1 3 0 0 3 2 -27
p290
aVBen McLemore SAC 02/21/2015 SAC @ LAC L 29 9 4 12 33.3 1 6 16.7 0 0 - 0 2 2 2 0 0 0 3 -15
p291
aVRay McCallum SAC 02/21/2015 SAC @ LAC L 23 10 4 7 57.1 0 1 0.0 2 2 100.0 2 5 7 5 1 2 1 0 -7
p292
aVDeMarcus Cousins SAC 02/21/2015 SAC @ LAC L 25 21 6 19 31.6 0 0 - 9 13 69.2 2 2 4 2 2 2 5 4 -12
p293
aVDerrick Williams SAC 02/21/2015 SAC @ LAC L 19 7 1 5 20.0 0 2 0.0 5 6 83.3 0 4 4 0 1 0 0 1 -26
p294
aVAndre Miller SAC 02/20/2015 SAC vs. BOS W 23 8 3 5 60.0 0 0 - 2 2 100.0 1 3 4 4 0 0 2 0 7
p295
aVRay McCallum SAC 02/20/2015 SAC vs. BOS W 25 8 3 7 42.9 2 4 50.0 0 0 - 1 4 5 4 0 0 5 1 1
p296
aVBen McLemore SAC 02/20/2015 SAC vs. BOS W 41 10 3 13 23.1 2 7 28.6 2 3 66.7 0 1 1 2 0 0 4 4 6
p297
aVDerrick Williams SAC 02/20/2015 SAC vs. BOS W 17 11 5 9 55.6 1 3 33.3 0 0 - 1 4 5 1 1 0 0 2 10
p298
aVDeMarcus Cousins SAC 02/20/2015 SAC vs. BOS W 36 31 12 18 66.7 0 0 - 7 9 77.8 3 12 15 3 2 1 9 3 -10
p299
aVJason Thompson SAC 02/20/2015 SAC vs. BOS W 25 6 3 4 75.0 0 0 - 0 0 - 3 6 9 2 1 1 0 4 16
p300
aVOmri Casspi SAC 02/20/2015 SAC vs. BOS W 31 7 2 9 22.2 1 3 33.3 2 4 50.0 5 7 12 6 1 0 0 4 22
p301
aVRudy Gay SAC 02/20/2015 SAC vs. BOS W 38 28 9 18 50.0 2 5 40.0 8 8 100.0 2 3 5 4 1 3 3 1 2
p302
aVCarl Landry SAC 02/20/2015 SAC vs. BOS W 5 0 0 0 - 0 0 - 0 0 - 1 0 1 0 0 0 1 0 -14
p303
aVRamon Sessions SAC 02/11/2015 SAC @ MIL L 30 2 0 6 0.0 0 1 0.0 2 2 100.0 0 2 2 6 0 0 2 4 5
p304
aVBen McLemore SAC 02/11/2015 SAC @ MIL L 30 16 5 12 41.7 4 8 50.0 2 2 100.0 0 2 2 0 3 0 0 5 6
p305
aVNik Stauskas SAC 02/11/2015 SAC @ MIL L 9 2 0 1 0.0 0 1 0.0 2 2 100.0 0 0 0 1 1 0 0 1 -2
p306
aVRay McCallum SAC 02/11/2015 SAC @ MIL L 21 10 4 8 50.0 2 3 66.7 0 0 - 0 1 1 4 1 0 2 1 -13
p307
aVDerrick Williams SAC 02/11/2015 SAC @ MIL L 31 11 3 7 42.9 1 4 25.0 4 6 66.7 0 4 4 3 1 0 1 4 -2
p308
aVCarl Landry SAC 02/11/2015 SAC @ MIL L 13 4 2 6 33.3 0 0 - 0 0 - 1 1 2 0 0 0 0 0 -17
p309
aVJason Thompson SAC 02/11/2015 SAC @ MIL L 17 7 3 4 75.0 0 0 - 1 3 33.3 5 2 7 2 1 1 3 0 -7
p310
aVOmri Casspi SAC 02/11/2015 SAC @ MIL L 15 6 3 8 37.5 0 1 0.0 0 0 - 2 1 3 0 0 0 0 0 -6
p311
aVDeMarcus Cousins SAC 02/11/2015 SAC @ MIL L 37 28 9 20 45.0 0 0 - 10 12 83.3 6 13 19 5 0 4 6 4 0
p312
aVRudy Gay SAC 02/11/2015 SAC @ MIL L 38 17 7 12 58.3 1 4 25.0 2 3 66.7 2 6 8 3 0 0 4 4 -4
p313
aVRay McCallum SAC 02/10/2015 SAC @ CHI L 26 11 5 9 55.6 0 1 0.0 1 2 50.0 3 0 3 4 0 0 2 0 1
p314
aVOmri Casspi SAC 02/10/2015 SAC @ CHI L 18 6 2 5 40.0 0 0 - 2 4 50.0 1 2 3 0 1 0 2 0 -5
p315
aVReggie Evans SAC 02/10/2015 SAC @ CHI L 15 3 1 2 50.0 0 0 - 1 2 50.0 2 4 6 2 0 0 0 1 -4
p316
aVDeMarcus Cousins SAC 02/10/2015 SAC @ CHI L 35 15 5 15 33.3 0 0 - 5 10 50.0 1 7 8 8 0 1 2 4 -16
p317
aVRudy Gay SAC 02/10/2015 SAC @ CHI L 40 24 10 18 55.6 1 4 25.0 3 5 60.0 1 6 7 5 1 0 3 3 -17
p318
aVNik Stauskas SAC 02/10/2015 SAC @ CHI L 3 0 0 1 0.0 0 0 - 0 0 - 0 0 0 0 0 0 0 1 -1
p319
aVRyan Hollins SAC 02/10/2015 SAC @ CHI L 3 0 0 0 - 0 0 - 0 0 - 0 1 1 1 0 0 1 0 -1
p320
aVBen McLemore SAC 02/10/2015 SAC @ CHI L 36 11 5 10 50.0 1 4 25.0 0 0 - 1 1 2 0 1 1 1 1 -13
p321
aVJason Thompson SAC 02/10/2015 SAC @ CHI L 19 7 3 5 60.0 0 0 - 1 2 50.0 2 5 7 0 0 0 0 3 -13
p322
aVRamon Sessions SAC 02/10/2015 SAC @ CHI L 22 3 1 6 16.7 0 3 0.0 1 2 50.0 0 1 1 2 0 0 2 1 -19
p323
aVCarl Landry SAC 02/10/2015 SAC @ CHI L 24 6 3 4 75.0 0 0 - 0 0 - 2 5 7 1 0 1 0 1 -2
p324
aVOmri Casspi SAC 02/08/2015 SAC vs. PHX W 20 3 1 4 25.0 1 2 50.0 0 2 0.0 1 4 5 2 0 0 2 1 8
p325
aVDerrick Williams SAC 02/08/2015 SAC vs. PHX W 29 4 2 7 28.6 0 1 0.0 0 0 - 0 6 6 1 1 0 0 1 -6
p326
aVBen McLemore SAC 02/08/2015 SAC vs. PHX W 38 13 4 12 33.3 3 8 37.5 2 2 100.0 0 1 1 2 0 2 1 3 10
p327
aVDeMarcus Cousins SAC 02/08/2015 SAC vs. PHX W 37 28 13 25 52.0 0 0 - 2 4 50.0 2 10 12 2 0 2 6 3 2
p328
aVRamon Sessions SAC 02/08/2015 SAC vs. PHX W 32 10 4 5 80.0 0 0 - 2 5 40.0 0 7 7 6 0 0 2 4 8
p329
aVJason Thompson SAC 02/08/2015 SAC vs. PHX W 29 9 4 10 40.0 0 0 - 1 2 50.0 1 4 5 2 0 0 2 1 -2
p330
aVReggie Evans SAC 02/08/2015 SAC vs. PHX W 13 4 1 1 100.0 0 0 - 2 2 100.0 0 2 2 3 0 0 0 2 2
p331
aVRay McCallum SAC 02/08/2015 SAC vs. PHX W 17 8 3 5 60.0 0 1 0.0 2 2 100.0 0 1 1 0 0 0 2 1 -6
p332
aVNik Stauskas SAC 02/08/2015 SAC vs. PHX W 10 0 0 1 0.0 0 0 - 0 0 - 0 1 1 1 0 1 0 1 -6
p333
aVCarl Landry SAC 02/08/2015 SAC vs. PHX W 16 6 2 5 40.0 0 0 - 2 2 100.0 0 3 3 1 0 0 0 0 0
p334
aVOmri Casspi SAC 02/07/2015 SAC @ UTA L 25 11 3 9 33.3 0 1 0.0 5 6 83.3 1 2 3 2 0 0 1 1 8
p335
aVRay McCallum SAC 02/07/2015 SAC @ UTA L 17 4 2 3 66.7 0 1 0.0 0 0 - 0 1 1 3 0 0 1 0 3
p336
aVJason Thompson SAC 02/07/2015 SAC @ UTA L 28 7 3 5 60.0 0 0 - 1 2 50.0 3 2 5 0 0 1 0 3 -31
p337
aVDeMarcus Cousins SAC 02/07/2015 SAC @ UTA L 37 27 10 24 41.7 0 0 - 7 11 63.6 2 8 10 2 0 2 4 6 -11
p338
aVRudy Gay SAC 02/07/2015 SAC @ UTA L 29 4 1 8 12.5 0 2 0.0 2 2 100.0 0 1 1 1 0 1 2 2 -22
p339
aVReggie Evans SAC 02/07/2015 SAC @ UTA L 23 7 2 7 28.6 0 0 - 3 6 50.0 5 6 11 0 1 0 1 3 9
p340
aVQuincy Miller SAC 02/07/2015 SAC @ UTA L 2 2 1 2 50.0 0 0 - 0 0 - 0 1 1 0 1 0 0 0 5
p341
aVNik Stauskas SAC 02/07/2015 SAC @ UTA L 11 0 0 1 0.0 0 1 0.0 0 0 - 0 1 1 2 0 0 0 0 9
p342
aVRamon Sessions SAC 02/07/2015 SAC @ UTA L 31 11 3 6 50.0 0 1 0.0 5 6 83.3 2 2 4 5 0 0 2 2 -15
p343
aVCarl Landry SAC 02/07/2015 SAC @ UTA L 6 2 1 2 50.0 0 0 - 0 0 - 1 0 1 0 0 0 0 1 2
p344
aVBen McLemore SAC 02/07/2015 SAC @ UTA L 32 15 6 15 40.0 3 7 42.9 0 0 - 0 2 2 0 1 1 1 1 -17
p345
aVQuincy Miller SAC 02/05/2015 SAC vs. DAL L 6 0 0 1 0.0 0 1 0.0 0 0 - 0 1 1 0 1 1 0 1 2
p346
aVBen McLemore SAC 02/05/2015 SAC vs. DAL L 24 5 2 9 22.2 1 7 14.3 0 0 - 0 3 3 2 0 0 1 2 -25
p347
aVRay McCallum SAC 02/05/2015 SAC vs. DAL L 15 4 2 10 20.0 0 2 0.0 0 0 - 1 3 4 0 0 0 0 0 -3
p348
aVJason Thompson SAC 02/05/2015 SAC vs. DAL L 18 0 0 1 0.0 0 0 - 0 0 - 0 3 3 0 1 1 0 1 -20
p349
aVDeMarcus Cousins SAC 02/05/2015 SAC vs. DAL L 38 23 8 16 50.0 0 0 - 7 8 87.5 1 10 11 3 1 2 6 3 -22
p350
aVRudy Gay SAC 02/05/2015 SAC vs. DAL L 33 11 2 13 15.4 0 4 0.0 7 8 87.5 1 8 9 4 1 1 2 2 -21
p351
aVCarl Landry SAC 02/05/2015 SAC vs. DAL L 10 3 1 3 33.3 0 0 - 1 3 33.3 2 1 3 0 0 1 2 3 1
p352
aVOmri Casspi SAC 02/05/2015 SAC vs. DAL L 14 5 2 3 66.7 0 0 - 1 1 100.0 1 4 5 0 0 0 1 2 -4
p353
aVRamon Sessions SAC 02/05/2015 SAC vs. DAL L 19 7 3 4 75.0 0 0 - 1 2 50.0 0 0 0 2 0 0 0 2 -13
p354
aVDarren Collison SAC 02/05/2015 SAC vs. DAL L 14 6 3 3 100.0 0 0 - 0 0 - 0 1 1 0 0 0 3 2 -10
p355
aVNik Stauskas SAC 02/05/2015 SAC vs. DAL L 23 3 1 10 10.0 1 6 16.7 0 0 - 1 3 4 1 1 0 2 0 5
p356
aVDerrick Williams SAC 02/05/2015 SAC vs. DAL L 19 7 3 4 75.0 1 1 100.0 0 0 - 0 1 1 1 0 0 0 0 -7
p357
aVRyan Hollins SAC 02/05/2015 SAC vs. DAL L 6 4 2 2 100.0 0 0 - 0 0 - 0 4 4 0 0 2 0 0 2
p358
aVRamon Sessions SAC 02/03/2015 SAC vs. GSW L 5 1 0 2 0.0 0 1 0.0 1 2 50.0 0 0 0 1 0 0 0 1 -14
p359
aVOmri Casspi SAC 02/03/2015 SAC vs. GSW L 15 2 1 3 33.3 0 0 - 0 1 0.0 1 2 3 0 0 0 3 0 -11
p360
aVRay McCallum SAC 02/03/2015 SAC vs. GSW L 7 0 0 2 0.0 0 1 0.0 0 0 - 0 0 0 0 0 0 1 2 -14
p361
aVBen McLemore SAC 02/03/2015 SAC vs. GSW L 40 18 6 9 66.7 4 5 80.0 2 2 100.0 0 2 2 2 3 0 1 3 -6
p362
aVJason Thompson SAC 02/03/2015 SAC vs. GSW L 19 8 2 6 33.3 0 0 - 4 4 100.0 2 6 8 0 0 0 3 3 -21
p363
aVDerrick Williams SAC 02/03/2015 SAC vs. GSW L 21 2 1 3 33.3 0 0 - 0 0 - 0 3 3 0 0 0 1 1 -2
p364
aVRudy Gay SAC 02/03/2015 SAC vs. GSW L 37 20 7 15 46.7 2 5 40.0 4 5 80.0 0 3 3 2 0 0 4 3 -11
p365
aVDeMarcus Cousins SAC 02/03/2015 SAC vs. GSW L 42 26 10 21 47.6 0 0 - 6 7 85.7 3 8 11 4 3 4 3 3 -14
p366
aVRyan Hollins SAC 02/03/2015 SAC vs. GSW L 3 1 0 1 0.0 0 0 - 1 2 50.0 0 0 0 0 0 0 0 0 -3
p367
aVNik Stauskas SAC 02/03/2015 SAC vs. GSW L 3 0 0 0 - 0 0 - 0 0 - 0 0 0 0 0 0 0 0 -3
p368
aVQuincy Miller SAC 02/03/2015 SAC vs. GSW L 6 0 0 1 0.0 0 0 - 0 0 - 0 1 1 1 0 0 0 1 -13
p369
aVDarren Collison SAC 02/03/2015 SAC vs. GSW L 37 18 8 15 53.3 1 4 25.0 1 1 100.0 0 2 2 7 1 0 1 4 -5
p370
aVCarl Landry SAC 02/03/2015 SAC vs. GSW L 3 0 0 1 0.0 0 0 - 0 0 - 0 1 1 0 0 0 1 0 -8
p371
aVDeMarcus Cousins SAC 01/31/2015 SAC @ IND W 39 20 6 24 25.0 0 0 - 8 8 100.0 5 14 19 3 3 0 4 6 7
p372
aVDarren Collison SAC 01/31/2015 SAC @ IND W 40 23 9 15 60.0 3 6 50.0 2 4 50.0 0 5 5 5 1 0 1 2 5
p373
aVRudy Gay SAC 01/31/2015 SAC @ IND W 44 31 10 22 45.5 0 2 0.0 11 11 100.0 0 5 5 3 0 1 1 5 8
p374
aVRamon Sessions SAC 01/31/2015 SAC @ IND W 9 4 2 4 50.0 0 1 0.0 0 0 - 0 1 1 1 1 0 2 1 -7
p375
aVRyan Hollins SAC 01/31/2015 SAC @ IND W 4 0 0 0 - 0 0 - 0 0 - 1 0 1 0 0 0 2 1 -7
p376
aVBen McLemore SAC 01/31/2015 SAC @ IND W 36 8 3 9 33.3 1 5 20.0 1 2 50.0 0 4 4 2 0 0 0 1 12
p377
aVOmri Casspi SAC 01/31/2015 SAC @ IND W 8 3 1 1 100.0 1 1 100.0 0 0 - 0 0 0 0 0 0 0 0 -18
p378
aVCarl Landry SAC 01/31/2015 SAC @ IND W 26 2 1 3 33.3 0 0 - 0 0 - 1 4 5 0 1 0 1 4 -5
p379
aVJason Thompson SAC 01/31/2015 SAC @ IND W 26 6 2 2 100.0 0 0 - 2 2 100.0 2 4 6 1 1 0 0 6 23
p380
aVNik Stauskas SAC 01/31/2015 SAC @ IND W 7 2 0 0 - 0 0 - 2 2 100.0 0 0 0 1 1 0 1 1 7
p381
aVBen McLemore SAC 01/30/2015 SAC @ CLE L 27 6 2 8 25.0 2 6 33.3 0 0 - 1 3 4 0 0 0 0 3 -21
p382
aVNik Stauskas SAC 01/30/2015 SAC @ CLE L 15 0 0 3 0.0 0 1 0.0 0 0 - 0 2 2 1 0 0 0 1 8
p383
aVDeMarcus Cousins SAC 01/30/2015 SAC @ CLE L 36 21 5 17 29.4 0 0 - 11 12 91.7 4 9 13 4 5 1 3 2 -15
p384
aVQuincy Miller SAC 01/30/2015 SAC @ CLE L 8 1 0 3 0.0 0 2 0.0 1 2 50.0 0 1 1 0 2 0 0 0 6
p385
aVDerrick Williams SAC 01/30/2015 SAC @ CLE L 6 2 1 3 33.3 0 1 0.0 0 0 - 0 0 0 0 0 0 0 0 -1
p386
aVDarren Collison SAC 01/30/2015 SAC @ CLE L 26 11 5 12 41.7 1 3 33.3 0 0 - 0 2 2 4 0 1 3 1 -14
p387
aVRay McCallum SAC 01/30/2015 SAC @ CLE L 8 2 1 2 50.0 0 1 0.0 0 0 - 0 1 1 3 0 0 1 0 6
p388
aVOmri Casspi SAC 01/30/2015 SAC @ CLE L 23 15 5 7 71.4 0 0 - 5 6 83.3 1 2 3 0 2 0 4 5 2
p389
aVJason Thompson SAC 01/30/2015 SAC @ CLE L 21 2 1 4 25.0 0 0 - 0 2 0.0 4 4 8 0 0 0 1 2 -15
p390
aVRudy Gay SAC 01/30/2015 SAC @ CLE L 33 20 6 16 37.5 0 4 0.0 8 8 100.0 2 7 9 1 1 0 1 3 -13
p391
aVRamon Sessions SAC 01/30/2015 SAC @ CLE L 15 0 0 3 0.0 0 0 - 0 0 - 0 0 0 1 0 0 1 0 -3
p392
aVRyan Hollins SAC 01/30/2015 SAC @ CLE L 8 4 2 2 100.0 0 0 - 0 0 - 0 1 1 1 0 1 1 0 6
p393
aVCarl Landry SAC 01/30/2015 SAC @ CLE L 18 6 2 4 50.0 0 0 - 2 2 100.0 2 4 6 0 0 0 1 2 -1
p394
aVRyan Hollins SAC 01/28/2015 SAC @ TOR L 5 0 0 0 - 0 0 - 0 0 - 0 0 0 0 0 1 0 0 3
p395
aVDeMarcus Cousins SAC 01/28/2015 SAC @ TOR L 30 13 5 10 50.0 0 0 - 3 4 75.0 1 3 4 4 2 2 9 4 -4
p396
aVCarl Landry SAC 01/28/2015 SAC @ TOR L 23 14 4 9 44.4 0 0 - 6 8 75.0 1 6 7 2 1 0 0 1 -17
p397
aVBen McLemore SAC 01/28/2015 SAC @ TOR L 36 17 6 11 54.5 3 6 50.0 2 2 100.0 2 3 5 1 0 0 3 3 -4
p398
aVRay McCallum SAC 01/28/2015 SAC @ TOR L 5 2 1 2 50.0 0 0 - 0 0 - 0 2 2 1 0 0 0 1 3
p399
aVRamon Sessions SAC 01/28/2015 SAC @ TOR L 17 4 0 1 0.0 0 0 - 4 4 100.0 1 2 3 2 1 0 0 1 -6
p400
aVJason Thompson SAC 01/28/2015 SAC @ TOR L 30 6 2 5 40.0 0 0 - 2 2 100.0 0 3 3 2 0 1 1 3 -14
p401
aVDerrick Williams SAC 01/28/2015 SAC @ TOR L 12 4 1 3 33.3 0 1 0.0 2 2 100.0 0 1 1 0 0 0 0 0 -5
p402
aVRudy Gay SAC 01/28/2015 SAC @ TOR L 32 22 8 17 47.1 2 5 40.0 4 5 80.0 1 2 3 3 0 0 2 2 -17
p403
aVNik Stauskas SAC 01/28/2015 SAC @ TOR L 17 8 3 5 60.0 0 1 0.0 2 2 100.0 0 0 0 0 1 0 0 2 -10
p404
aVDarren Collison SAC 01/28/2015 SAC @ TOR L 30 12 5 10 50.0 2 4 50.0 0 0 - 0 3 3 2 1 0 2 1 -14
p405
aVOmri Casspi SAC 01/23/2015 SAC @ GSW L 7 4 1 2 50.0 0 0 - 2 2 100.0 1 1 2 0 0 0 2 0 2
p406
aVDarren Collison SAC 01/23/2015 SAC @ GSW L 34 15 6 13 46.2 1 4 25.0 2 2 100.0 2 4 6 4 3 0 3 0 -26
p407
aVNik Stauskas SAC 01/23/2015 SAC @ GSW L 23 11 4 5 80.0 1 1 100.0 2 2 100.0 0 3 3 2 1 0 2 1 -10
p408
aVRudy Gay SAC 01/23/2015 SAC @ GSW L 13 0 0 5 0.0 0 1 0.0 0 0 - 0 3 3 4 0 0 0 2 -16
p409
aVDeMarcus Cousins SAC 01/23/2015 SAC @ GSW L 35 28 9 19 47.4 0 0 - 10 11 90.9 2 9 11 2 3 0 5 4 -9
p410
aVRamon Sessions SAC 01/23/2015 SAC @ GSW L 14 0 0 3 0.0 0 0 - 0 0 - 1 1 2 3 0 0 2 1 1
p411
aVRyan Hollins SAC 01/23/2015 SAC @ GSW L 8 5 2 3 66.7 0 0 - 1 2 50.0 0 0 0 0 0 0 1 1 2
p412
aVBen McLemore SAC 01/23/2015 SAC @ GSW L 25 7 3 9 33.3 1 5 20.0 0 0 - 0 1 1 1 2 0 0 3 -15
p413
aVQuincy Miller SAC 01/23/2015 SAC @ GSW L 34 13 3 8 37.5 1 3 33.3 6 7 85.7 1 5 6 0 2 2 3 2 4
p414
aVRay McCallum SAC 01/23/2015 SAC @ GSW L 13 7 3 7 42.9 0 1 0.0 1 2 50.0 2 1 3 0 1 0 0 1 -16
p415
aVDerrick Williams SAC 01/23/2015 SAC @ GSW L 22 9 2 5 40.0 0 2 0.0 5 6 83.3 1 4 5 2 0 0 1 1 -18
p416
aVJason Thompson SAC 01/23/2015 SAC @ GSW L 11 2 1 3 33.3 0 0 - 0 0 - 1 0 1 1 0 1 0 1 -24
p417
aVDarren Collison SAC 01/21/2015 SAC vs. BKN L 37 16 6 13 46.2 2 7 28.6 2 2 100.0 1 1 2 5 2 0 3 4 12
p418
aVDeMarcus Cousins SAC 01/21/2015 SAC vs. BKN L 41 28 10 24 41.7 0 0 - 8 11 72.7 6 8 14 3 2 0 2 3 11
p419
aVRay McCallum SAC 01/21/2015 SAC vs. BKN L 0 0 0 0 - 0 0 - 0 0 - 0 0 0 0 0 0 0 0 -1
p420
aVRamon Sessions SAC 01/21/2015 SAC vs. BKN L 22 2 1 4 25.0 0 0 - 0 0 - 0 4 4 4 0 0 2 2 0
p421
aVRudy Gay SAC 01/21/2015 SAC vs. BKN L 42 25 10 19 52.6 1 4 25.0 4 4 100.0 1 7 8 6 1 1 1 3 -2
p422
aVOmri Casspi SAC 01/21/2015 SAC vs. BKN L 19 10 5 8 62.5 0 0 - 0 2 0.0 1 4 5 1 0 0 2 1 0
p423
aVBen McLemore SAC 01/21/2015 SAC vs. BKN L 37 9 3 10 30.0 2 7 28.6 1 2 50.0 0 5 5 3 0 0 1 2 4
p424
aVJason Thompson SAC 01/21/2015 SAC vs. BKN L 22 4 2 2 100.0 0 0 - 0 0 - 1 1 2 0 0 1 2 3 -16
p425
aVReggie Evans SAC 01/21/2015 SAC vs. BKN L 3 0 0 0 - 0 0 - 0 0 - 0 1 1 0 0 0 1 0 0
p426
aVDerrick Williams SAC 01/21/2015 SAC vs. BKN L 11 6 2 4 50.0 0 0 - 2 3 66.7 0 1 1 0 0 0 0 0 -15
p427
aVNik Stauskas SAC 01/21/2015 SAC vs. BKN L 7 0 0 0 - 0 0 - 0 0 - 0 0 0 0 0 0 0 1 -8
p428
aVJason Thompson SAC 01/19/2015 SAC @ POR L 28 4 2 4 50.0 0 0 - 0 0 - 0 7 7 0 0 0 2 2 5
p429
aVDeMarcus Cousins SAC 01/19/2015 SAC @ POR L 38 22 7 17 41.2 0 0 - 8 12 66.7 4 15 19 1 0 4 5 6 8
p430
aVReggie Evans SAC 01/19/2015 SAC @ POR L 14 3 0 2 0.0 0 0 - 3 4 75.0 2 4 6 0 0 0 0 1 -15
p431
aVRay McCallum SAC 01/19/2015 SAC @ POR L 17 4 2 5 40.0 0 1 0.0 0 0 - 0 1 1 1 2 0 0 1 -15
p432
aVDarren Collison SAC 01/19/2015 SAC @ POR L 36 13 6 11 54.5 1 3 33.3 0 1 0.0 2 5 7 8 1 0 5 3 6
p433
aVDerrick Williams SAC 01/19/2015 SAC @ POR L 24 6 2 5 40.0 0 1 0.0 2 2 100.0 0 1 1 0 0 0 0 2 -12
p434
aVBen McLemore SAC 01/19/2015 SAC @ POR L 35 11 3 10 30.0 2 5 40.0 3 3 100.0 0 5 5 1 2 1 3 2 7
p435
aVRudy Gay SAC 01/19/2015 SAC @ POR L 39 26 10 19 52.6 1 2 50.0 5 6 83.3 2 3 5 2 2 0 6 4 -3
p436
aVOmri Casspi SAC 01/19/2015 SAC @ POR L 8 5 2 3 66.7 0 0 - 1 2 50.0 1 1 2 0 1 0 0 1 -1
p437
aVOmri Casspi SAC 01/17/2015 SAC vs. LAC L 1 0 0 1 0.0 0 0 - 0 0 - 0 0 0 0 0 0 0 0 -2
p438
aVRay McCallum SAC 01/17/2015 SAC vs. LAC L 21 8 4 7 57.1 0 1 0.0 0 0 - 2 1 3 3 1 0 1 1 1
p439
aVJason Thompson SAC 01/17/2015 SAC vs. LAC L 36 23 9 15 60.0 0 0 - 5 6 83.3 7 15 22 2 0 1 1 5 -10
p440
aVDarren Collison SAC 01/17/2015 SAC vs. LAC L 39 17 7 15 46.7 3 6 50.0 0 0 - 2 1 3 4 0 1 5 3 -10
p441
aVBen McLemore SAC 01/17/2015 SAC vs. LAC L 33 14 6 12 50.0 0 4 0.0 2 2 100.0 1 0 1 2 2 0 2 3 -4
p442
aVDerrick Williams SAC 01/17/2015 SAC vs. LAC L 28 13 5 10 50.0 0 3 0.0 3 4 75.0 2 3 5 2 0 0 1 3 1
p443
aVQuincy Miller SAC 01/17/2015 SAC vs. LAC L 6 1 0 3 0.0 0 1 0.0 1 2 50.0 1 1 2 2 0 0 0 0 4
p444
aVReggie Evans SAC 01/17/2015 SAC vs. LAC L 19 8 3 5 60.0 0 0 - 2 2 100.0 2 6 8 0 0 0 1 4 -11
p445
aVRudy Gay SAC 01/17/2015 SAC vs. LAC L 34 22 6 16 37.5 2 3 66.7 8 8 100.0 2 3 5 3 0 0 4 2 -10
p446
aVRyan Hollins SAC 01/17/2015 SAC vs. LAC L 23 2 1 5 20.0 0 0 - 0 2 0.0 3 2 5 0 0 0 2 4 -4
p447
aVBen McLemore SAC 01/16/2015 SAC vs. MIA L 37 15 6 14 42.9 3 7 42.9 0 1 0.0 0 2 2 0 0 0 2 1 -10
p448
aVDarren Collison SAC 01/16/2015 SAC vs. MIA L 38 13 5 12 41.7 1 4 25.0 2 2 100.0 0 1 1 6 0 1 2 3 -16
p449
aVRyan Hollins SAC 01/16/2015 SAC vs. MIA L 2 2 1 1 100.0 0 0 - 0 0 - 0 1 1 0 0 0 0 0 5
p450
aVReggie Evans SAC 01/16/2015 SAC vs. MIA L 24 4 2 5 40.0 0 0 - 0 0 - 2 5 7 1 0 0 0 2 -8
p451
aVRay McCallum SAC 01/16/2015 SAC vs. MIA L 15 11 4 5 80.0 3 3 100.0 0 0 - 0 3 3 2 0 0 2 2 1
p452
aVDeMarcus Cousins SAC 01/16/2015 SAC vs. MIA L 39 17 4 12 33.3 0 0 - 9 9 100.0 0 11 11 5 1 0 8 3 -8
p453
aVNik Stauskas SAC 01/16/2015 SAC vs. MIA L 15 4 2 5 40.0 0 0 - 0 0 - 1 0 1 2 0 0 0 3 -5
p454
aVDerrick Williams SAC 01/16/2015 SAC vs. MIA L 33 10 5 11 45.5 0 1 0.0 0 0 - 3 3 6 1 1 0 0 0 -15
p455
aVOmri Casspi SAC 01/16/2015 SAC vs. MIA L 17 2 1 5 20.0 0 1 0.0 0 0 - 0 0 0 2 0 0 0 2 3
p456
aVJason Thompson SAC 01/16/2015 SAC vs. MIA L 20 5 2 5 40.0 0 0 - 1 2 50.0 0 3 3 1 1 0 1 4 -7
p457
aVBen McLemore SAC 01/13/2015 SAC vs. DAL L 39 8 2 8 25.0 0 5 0.0 4 4 100.0 0 1 1 4 0 0 3 3 -10
p458
aVCarl Landry SAC 01/13/2015 SAC vs. DAL L 31 14 7 10 70.0 0 0 - 0 0 - 2 8 10 0 0 0 0 3 -10
p459
aVDerrick Williams SAC 01/13/2015 SAC vs. DAL L 36 12 5 12 41.7 0 2 0.0 2 4 50.0 1 9 10 2 2 0 1 2 -6
p460
aVDeMarcus Cousins SAC 01/13/2015 SAC vs. DAL L 40 32 11 21 52.4 0 0 - 10 10 100.0 3 13 16 9 2 1 9 6 4
p461
aVRay McCallum SAC 01/13/2015 SAC vs. DAL L 25 6 3 8 37.5 0 2 0.0 0 0 - 2 3 5 1 0 0 2 3 8
p462
aVRudy Gay SAC 01/13/2015 SAC vs. DAL L 10 4 1 1 100.0 0 0 - 2 2 100.0 0 2 2 2 0 0 0 0 1
p463
aVJason Thompson SAC 01/13/2015 SAC vs. DAL L 20 6 2 3 66.7 0 0 - 2 4 50.0 2 5 7 1 0 1 1 4 -7
p464
aVNik Stauskas SAC 01/13/2015 SAC vs. DAL L 19 4 1 3 33.3 1 3 33.3 1 2 50.0 0 1 1 0 0 0 1 3 7
p465
aVDarren Collison SAC 01/13/2015 SAC vs. DAL L 45 18 6 20 30.0 0 6 0.0 6 8 75.0 2 5 7 3 3 0 3 2 -7
p466
aVCarl Landry SAC 01/11/2015 SAC vs. CLE W 23 11 5 7 71.4 0 0 - 1 1 100.0 1 3 4 0 0 0 0 2 -8
p467
aVBen McLemore SAC 01/11/2015 SAC vs. CLE W 27 7 3 8 37.5 1 5 20.0 0 0 - 1 3 4 3 1 0 0 1 27
p468
aVDarren Collison SAC 01/11/2015 SAC vs. CLE W 33 16 6 10 60.0 2 3 66.7 2 2 100.0 0 2 2 7 0 0 0 2 25
p469
aVRay McCallum SAC 01/11/2015 SAC vs. CLE W 20 5 2 6 33.3 1 1 100.0 0 0 - 0 2 2 3 0 0 2 1 -6
p470
aVNik Stauskas SAC 01/11/2015 SAC vs. CLE W 17 0 0 2 0.0 0 1 0.0 0 0 - 0 1 1 0 0 0 1 1 -8
p471
aVDerrick Williams SAC 01/11/2015 SAC vs. CLE W 16 5 2 6 33.3 1 3 33.3 0 0 - 0 3 3 0 0 0 0 0 -4
p472
aVRyan Hollins SAC 01/11/2015 SAC vs. CLE W 5 3 1 2 50.0 0 0 - 1 2 50.0 1 1 2 0 0 0 0 0 -8
p473
aVRudy Gay SAC 01/11/2015 SAC vs. CLE W 33 23 9 14 64.3 1 4 25.0 4 4 100.0 1 3 4 2 2 1 0 0 23
p474
aVJason Thompson SAC 01/11/2015 SAC vs. CLE W 32 7 3 8 37.5 0 0 - 1 2 50.0 1 9 10 0 1 0 0 1 23
p475
aVDeMarcus Cousins SAC 01/11/2015 SAC vs. CLE W 35 26 11 23 47.8 0 0 - 4 6 66.7 2 11 13 5 4 3 1 3 31
p476
aVRudy Gay SAC 01/09/2015 SAC vs. DEN L 38 22 9 15 60.0 2 5 40.0 2 4 50.0 0 2 2 0 1 1 2 1 -17
p477
aVNik Stauskas SAC 01/09/2015 SAC vs. DEN L 20 13 4 6 66.7 2 4 50.0 3 3 100.0 0 1 1 0 0 0 0 2 12
p478
aVDerrick Williams SAC 01/09/2015 SAC vs. DEN L 13 0 0 0 - 0 0 - 0 2 0.0 0 4 4 0 0 0 0 0 7
p479
aVRyan Hollins SAC 01/09/2015 SAC vs. DEN L 3 6 2 3 66.7 0 0 - 2 2 100.0 4 1 5 0 0 0 0 0 11
p480
aVDeMarcus Cousins SAC 01/09/2015 SAC vs. DEN L 39 32 12 25 48.0 0 0 - 8 9 88.9 6 7 13 4 3 4 7 4 -22
p481
aVCarl Landry SAC 01/09/2015 SAC vs. DEN L 18 6 3 7 42.9 0 0 - 0 0 - 1 4 5 1 0 0 1 1 -7
p482
aVBen McLemore SAC 01/09/2015 SAC vs. DEN L 30 7 2 8 25.0 1 6 16.7 2 2 100.0 0 2 2 3 0 0 2 3 -4
p483
aVDarren Collison SAC 01/09/2015 SAC vs. DEN L 36 15 7 13 53.8 1 4 25.0 0 0 - 0 2 2 7 1 0 1 4 -19
p484
aVJason Thompson SAC 01/09/2015 SAC vs. DEN L 28 6 3 5 60.0 0 0 - 0 0 - 1 3 4 1 0 0 0 2 -15
p485
aVRay McCallum SAC 01/09/2015 SAC vs. DEN L 17 1 0 4 0.0 0 0 - 1 2 50.0 0 0 0 3 0 1 1 0 4
p486
aVDeMarcus Cousins SAC 01/07/2015 SAC vs. OKC W 38 23 6 23 26.1 0 0 - 11 13 84.6 4 11 15 4 1 3 6 2 18
p487
aVRay McCallum SAC 01/07/2015 SAC vs. OKC W 15 2 1 5 20.0 0 1 0.0 0 0 - 1 4 5 2 3 0 1 1 -1
p488
aVJason Thompson SAC 01/07/2015 SAC vs. OKC W 17 2 0 3 0.0 0 0 - 2 4 50.0 2 6 8 1 0 1 1 3 20
p489
aVRyan Hollins SAC 01/07/2015 SAC vs. OKC W 7 0 0 0 - 0 0 - 0 0 - 0 0 0 1 0 0 0 1 -1
p490
aVDerrick Williams SAC 01/07/2015 SAC vs. OKC W 27 4 1 4 25.0 1 2 50.0 1 2 50.0 1 5 6 1 1 0 1 0 -7
p491
aVCarl Landry SAC 01/07/2015 SAC vs. OKC W 19 10 5 6 83.3 0 0 - 0 0 - 0 4 4 0 0 0 0 1 4
p492
aVDarren Collison SAC 01/07/2015 SAC vs. OKC W 38 24 9 19 47.4 5 10 50.0 1 1 100.0 0 1 1 7 2 0 3 1 25
p493
aVBen McLemore SAC 01/07/2015 SAC vs. OKC W 34 11 5 9 55.6 1 2 50.0 0 0 - 1 1 2 1 4 0 2 4 28
p494
aVRudy Gay SAC 01/07/2015 SAC vs. OKC W 35 28 9 19 47.4 3 3 100.0 7 8 87.5 4 5 9 1 1 0 2 3 27
p495
aVNik Stauskas SAC 01/07/2015 SAC vs. OKC W 10 0 0 4 0.0 0 1 0.0 0 0 - 0 2 2 0 0 0 0 1 -8
p496
aVDerrick Williams SAC 01/04/2015 SAC @ DET L 23 12 5 9 55.6 0 2 0.0 2 4 50.0 0 2 2 1 0 0 0 0 -8
p497
aVBen McLemore SAC 01/04/2015 SAC @ DET L 40 11 2 11 18.2 0 6 0.0 7 7 100.0 0 0 0 4 1 0 1 2 -13
p498
aVNik Stauskas SAC 01/04/2015 SAC @ DET L 16 3 1 2 50.0 1 1 100.0 0 0 - 0 2 2 2 1 0 1 3 -10
p499
aVDeMarcus Cousins SAC 01/04/2015 SAC @ DET L 40 18 5 17 29.4 0 1 0.0 8 11 72.7 3 12 15 4 2 1 6 3 -22
p500
aVDarren Collison SAC 01/04/2015 SAC @ DET L 28 17 5 7 71.4 2 2 100.0 5 7 71.4 0 6 6 3 3 0 3 3 -10
p501
aVJason Thompson SAC 01/04/2015 SAC @ DET L 23 9 4 6 66.7 0 0 - 1 1 100.0 0 7 7 0 0 3 0 1 2
p502
aVRay McCallum SAC 01/04/2015 SAC @ DET L 20 10 5 6 83.3 0 0 - 0 0 - 0 1 1 1 1 0 0 2 -9
p503
aVRudy Gay SAC 01/04/2015 SAC @ DET L 36 12 5 16 31.3 0 3 0.0 2 2 100.0 0 5 5 3 1 0 3 1 -18
p504
aVCarl Landry SAC 01/04/2015 SAC @ DET L 14 3 0 1 0.0 0 0 - 3 4 75.0 2 1 3 0 0 0 1 0 -7
p505
aVRudy Gay SAC 01/01/2015 SAC @ MIN W 33 21 7 12 58.3 0 0 - 7 8 87.5 2 4 6 5 4 1 8 6 14
p506
aVNik Stauskas SAC 01/01/2015 SAC @ MIN W 12 0 0 4 0.0 0 2 0.0 0 0 - 0 0 0 1 0 0 1 0 -10
p507
aVCarl Landry SAC 01/01/2015 SAC @ MIN W 27 8 1 4 25.0 0 0 - 6 8 75.0 3 6 9 1 0 1 0 4 -9
p508
aVDeMarcus Cousins SAC 01/01/2015 SAC @ MIN W 27 19 8 14 57.1 0 0 - 3 3 100.0 2 5 7 4 1 2 3 6 9
p509
aVJason Thompson SAC 01/01/2015 SAC @ MIN W 24 8 3 3 100.0 0 0 - 2 2 100.0 0 6 6 0 0 2 2 5 -11
p510
aVDarren Collison SAC 01/01/2015 SAC @ MIN W 39 21 8 15 53.3 1 2 50.0 4 4 100.0 0 4 4 6 0 0 2 0 15
p511
aVRay McCallum SAC 01/01/2015 SAC @ MIN W 10 2 1 3 33.3 0 0 - 0 0 - 1 0 1 1 0 0 0 1 -17
p512
aVBen McLemore SAC 01/01/2015 SAC @ MIN W 38 14 6 9 66.7 1 2 50.0 1 2 50.0 1 3 4 2 0 0 2 3 11
p513
aVDerrick Williams SAC 01/01/2015 SAC @ MIN W 31 17 6 10 60.0 3 6 50.0 2 2 100.0 1 4 5 3 2 1 2 1 13
p514
aVOmri Casspi SAC 12/31/2014 SAC @ BOS L 12 2 1 3 33.3 0 0 - 0 2 0.0 1 2 3 2 0 1 1 0 -9
p515
aVDerrick Williams SAC 12/31/2014 SAC @ BOS L 16 2 1 5 20.0 0 2 0.0 0 0 - 0 2 2 0 0 0 1 0 -8
p516
aVRudy Gay SAC 12/31/2014 SAC @ BOS L 34 9 4 19 21.1 0 2 0.0 1 2 50.0 1 6 7 2 1 0 0 1 -14
p517
aVBen McLemore SAC 12/31/2014 SAC @ BOS L 19 12 3 5 60.0 2 3 66.7 4 4 100.0 0 5 5 0 1 0 3 4 -9
p518
aVRay McCallum SAC 12/31/2014 SAC @ BOS L 22 11 4 8 50.0 0 2 0.0 3 6 50.0 2 2 4 1 2 0 1 2 -14
p519
aVNik Stauskas SAC 12/31/2014 SAC @ BOS L 23 4 1 6 16.7 0 2 0.0 2 4 50.0 0 3 3 1 1 0 0 0 -7
p520
aVCarl Landry SAC 12/31/2014 SAC @ BOS L 29 14 7 11 63.6 0 0 - 0 0 - 3 2 5 0 1 2 1 4 3
p521
aVDeMarcus Cousins SAC 12/31/2014 SAC @ BOS L 29 11 5 17 29.4 0 0 - 1 2 50.0 3 8 11 0 1 1 4 2 -16
p522
aVReggie Evans SAC 12/31/2014 SAC @ BOS L 11 1 0 0 - 0 0 - 1 2 50.0 1 2 3 1 1 0 1 1 -5
p523
aVRyan Hollins SAC 12/31/2014 SAC @ BOS L 11 4 2 3 66.7 0 0 - 0 0 - 0 3 3 0 0 0 1 2 -17
p524
aVDarren Collison SAC 12/31/2014 SAC @ BOS L 32 14 4 10 40.0 0 4 0.0 6 6 100.0 0 0 0 5 1 1 3 1 -14
p525
aVJason Thompson SAC 12/29/2014 SAC @ BKN L 13 4 2 4 50.0 0 0 - 0 0 - 1 0 1 0 0 0 1 4 0
p526
aVCarl Landry SAC 12/29/2014 SAC @ BKN L 12 6 3 3 100.0 0 0 - 0 0 - 0 1 1 0 0 0 0 1 -4
p527
aVDeMarcus Cousins SAC 12/29/2014 SAC @ BKN L 37 24 9 12 75.0 0 0 - 6 9 66.7 3 10 13 4 1 2 5 4 4
p528
aVOmri Casspi SAC 12/29/2014 SAC @ BKN L 20 3 1 5 20.0 1 2 50.0 0 0 - 1 4 5 1 0 0 0 1 -4
p529
aVDarren Collison SAC 12/29/2014 SAC @ BKN L 31 16 5 7 71.4 2 2 100.0 4 5 80.0 0 3 3 8 0 0 4 5 5
p530
aVNik Stauskas SAC 12/29/2014 SAC @ BKN L 17 8 3 5 60.0 2 2 100.0 0 0 - 0 0 0 1 0 0 1 3 0
p531
aVDerrick Williams SAC 12/29/2014 SAC @ BKN L 8 2 1 3 33.3 0 1 0.0 0 0 - 0 0 0 0 1 0 1 0 -5
p532
aVRay McCallum SAC 12/29/2014 SAC @ BKN L 17 0 0 5 0.0 0 3 0.0 0 0 - 0 4 4 1 0 0 3 0 -13
p533
aVRyan Hollins SAC 12/29/2014 SAC @ BKN L 7 0 0 0 - 0 0 - 0 0 - 0 1 1 0 0 1 1 1 -4
p534
aVRudy Gay SAC 12/29/2014 SAC @ BKN L 38 25 9 21 42.9 1 3 33.3 6 6 100.0 4 5 9 5 2 0 1 2 -2
p535
aVBen McLemore SAC 12/29/2014 SAC @ BKN L 32 11 4 9 44.4 3 7 42.9 0 0 - 0 2 2 2 1 0 2 4 -7
p536
aVReggie Evans SAC 12/29/2014 SAC @ BKN L 8 0 0 2 0.0 0 0 - 0 0 - 2 3 5 0 0 0 2 1 -10
p537
aVCarl Landry SAC 12/27/2014 SAC vs. NYK W 11 2 1 6 16.7 0 0 - 0 0 - 3 2 5 1 0 0 1 1 3
p538
aVJason Thompson SAC 12/27/2014 SAC vs. NYK W 17 3 1 3 33.3 0 0 - 1 2 50.0 0 4 4 0 1 0 0 2 10
p539
aVBen McLemore SAC 12/27/2014 SAC vs. NYK W 36 5 2 4 50.0 1 2 50.0 0 0 - 0 5 5 3 1 1 3 5 4
p540
aVDerrick Williams SAC 12/27/2014 SAC vs. NYK W 15 4 1 3 33.3 0 1 0.0 2 2 100.0 0 1 1 0 1 0 0 3 -6
p541
aVDeMarcus Cousins SAC 12/27/2014 SAC vs. NYK W 32 39 14 27 51.9 1 1 100.0 10 11 90.9 3 8 11 4 0 2 5 5 5
p542
aVNik Stauskas SAC 12/27/2014 SAC vs. NYK W 18 11 3 4 75.0 1 2 50.0 4 4 100.0 0 2 2 0 1 1 0 2 2
p543
aVReggie Evans SAC 12/27/2014 SAC vs. NYK W 16 4 1 2 50.0 0 0 - 2 2 100.0 2 1 3 0 1 0 0 2 3
p544
aVRudy Gay SAC 12/27/2014 SAC vs. NYK W 43 29 12 21 57.1 2 7 28.6 3 3 100.0 0 2 2 3 2 2 4 4 5
p545
aVRay McCallum SAC 12/27/2014 SAC vs. NYK W 30 10 5 8 62.5 0 0 - 0 0 - 2 2 4 2 0 1 2 0 0
p546
aVOmri Casspi SAC 12/27/2014 SAC vs. NYK W 4 1 0 1 0.0 0 0 - 1 3 33.3 0 1 1 0 0 0 0 1 -1
p547
aVDarren Collison SAC 12/27/2014 SAC vs. NYK W 43 27 9 10 90.0 3 3 100.0 6 6 100.0 0 1 1 10 2 0 2 2 5
p548
aVCarl Landry SAC 12/26/2014 SAC vs. PHX L 15 12 6 14 42.9 0 0 - 0 0 - 3 5 8 0 0 0 1 2 -4
p549
aVOmri Casspi SAC 12/26/2014 SAC vs. PHX L 18 11 3 5 60.0 0 0 - 5 6 83.3 2 3 5 2 1 1 0 1 2
p550
aVJason Thompson SAC 12/26/2014 SAC vs. PHX L 12 2 1 1 100.0 0 0 - 0 0 - 0 1 1 1 0 0 1 2 -6
p551
aVDerrick Williams SAC 12/26/2014 SAC vs. PHX L 22 16 7 9 77.8 1 2 50.0 1 3 33.3 1 4 5 0 1 0 1 0 -7
p552
aVNik Stauskas SAC 12/26/2014 SAC vs. PHX L 9 2 0 2 0.0 0 2 0.0 2 2 100.0 1 0 1 1 0 0 0 0 10
p553
aVRudy Gay SAC 12/26/2014 SAC vs. PHX L 34 16 7 15 46.7 0 1 0.0 2 2 100.0 0 4 4 5 2 0 2 1 -8
p554
aVRay McCallum SAC 12/26/2014 SAC vs. PHX L 26 4 2 8 25.0 0 0 - 0 0 - 2 3 5 5 0 1 0 2 -9
p555
aVBen McLemore SAC 12/26/2014 SAC vs. PHX L 35 13 5 14 35.7 2 7 28.6 1 3 33.3 0 2 2 1 0 0 1 1 -5
p556
aVReggie Evans SAC 12/26/2014 SAC vs. PHX L 32 11 5 13 38.5 0 1 0.0 1 2 50.0 9 7 16 1 1 0 3 4 -7
p557
aVDarren Collison SAC 12/26/2014 SAC vs. PHX L 36 19 5 12 41.7 4 7 57.1 5 6 83.3 0 1 1 2 3 0 3 2 -11
p558
aVJason Thompson SAC 12/22/2014 SAC @ GSW L 20 6 3 3 100.0 0 0 - 0 0 - 1 3 4 0 0 2 1 2 -32
p559
aVDeMarcus Cousins SAC 12/22/2014 SAC @ GSW L 30 22 9 19 47.4 0 0 - 4 6 66.7 2 6 8 6 1 1 2 5 -2
p560
aVCarl Landry SAC 12/22/2014 SAC @ GSW L 7 12 5 6 83.3 0 0 - 2 2 100.0 1 2 3 1 0 0 0 0 -1
p561
aVRudy Gay SAC 12/22/2014 SAC @ GSW L 37 13 4 14 28.6 1 2 50.0 4 5 80.0 4 5 9 3 1 1 2 2 -9
p562
aVBen McLemore SAC 12/22/2014 SAC @ GSW L 33 11 4 8 50.0 3 6 50.0 0 0 - 0 2 2 3 1 0 1 3 -21
p563
aVNik Stauskas SAC 12/22/2014 SAC @ GSW L 10 3 1 3 33.3 1 2 50.0 0 0 - 0 1 1 2 0 0 0 1 9
p564
aVDerrick Williams SAC 12/22/2014 SAC @ GSW L 17 3 1 6 16.7 0 1 0.0 1 2 50.0 0 0 0 0 0 0 0 0 -18
p565
aVRay McCallum SAC 12/22/2014 SAC @ GSW L 20 5 2 6 33.3 1 2 50.0 0 0 - 0 1 1 7 0 0 0 1 -3
p566
aVRamon Sessions SAC 12/22/2014 SAC @ GSW L 6 0 0 1 0.0 0 0 - 0 0 - 0 1 1 1 0 0 2 0 -2
p567
aVDarren Collison SAC 12/22/2014 SAC @ GSW L 32 17 7 14 50.0 2 4 50.0 1 2 50.0 0 2 2 5 2 0 4 2 -15
p568
aVOmri Casspi SAC 12/22/2014 SAC @ GSW L 29 16 7 10 70.0 0 0 - 2 4 50.0 1 7 8 3 0 1 1 1 -6
p569
aVRyan Hollins SAC 12/21/2014 SAC vs. LAL W 6 0 0 0 - 0 0 - 0 0 - 0 0 0 0 0 0 0 2 -12
p570
aVNik Stauskas SAC 12/21/2014 SAC vs. LAL W 5 0 0 1 0.0 0 1 0.0 0 0 - 0 1 1 0 0 0 0 1 -8
p571
aVDeMarcus Cousins SAC 12/21/2014 SAC vs. LAL W 37 29 9 19 47.4 0 0 - 11 15 73.3 6 8 14 2 2 3 2 3 16
p572
aVDerrick Williams SAC 12/21/2014 SAC vs. LAL W 16 5 2 5 40.0 0 1 0.0 1 1 100.0 0 2 2 1 1 0 0 0 -7
p573
aVDarren Collison SAC 12/21/2014 SAC vs. LAL W 40 19 7 13 53.8 2 4 50.0 3 5 60.0 0 0 0 3 2 0 3 3 9
p574
aVRudy Gay SAC 12/21/2014 SAC vs. LAL W 38 24 8 15 53.3 3 4 75.0 5 9 55.6 0 3 3 6 1 2 3 5 10
p575
aVRay McCallum SAC 12/21/2014 SAC vs. LAL W 11 0 0 3 0.0 0 3 0.0 0 0 - 0 2 2 2 1 0 0 1 -4
p576
aVReggie Evans SAC 12/21/2014 SAC vs. LAL W 7 2 0 1 0.0 0 1 0.0 2 2 100.0 3 1 4 0 0 0 0 1 -7
p577
aVJason Thompson SAC 12/21/2014 SAC vs. LAL W 25 2 1 1 100.0 0 0 - 0 0 - 0 5 5 0 0 1 0 3 16
p578
aVCarl Landry SAC 12/21/2014 SAC vs. LAL W 17 4 1 3 33.3 0 0 - 2 2 100.0 0 5 5 0 0 1 1 2 3
p579
aVBen McLemore SAC 12/21/2014 SAC vs. LAL W 38 23 10 18 55.6 2 9 22.2 1 2 50.0 1 7 8 1 1 0 5 4 19
p580
aVRyan Hollins SAC 12/18/2014 SAC vs. MIL L 3 0 0 0 - 0 0 - 0 0 - 0 1 1 0 0 0 0 2 1
p581
aVCarl Landry SAC 12/18/2014 SAC vs. MIL L 10 2 1 1 100.0 0 0 - 0 0 - 0 0 0 0 0 0 2 2 -18
p582
aVRamon Sessions SAC 12/18/2014 SAC vs. MIL L 22 9 3 9 33.3 0 1 0.0 3 4 75.0 3 0 3 5 0 0 2 0 -20
p583
aVDeMarcus Cousins SAC 12/18/2014 SAC vs. MIL L 33 27 8 12 66.7 0 0 - 11 13 84.6 1 10 11 5 1 0 6 4 8
p584
aVDarren Collison SAC 12/18/2014 SAC vs. MIL L 40 15 6 11 54.5 2 4 50.0 1 1 100.0 0 1 1 5 3 0 2 3 6
p585
aVRudy Gay SAC 12/18/2014 SAC vs. MIL L 39 20 9 15 60.0 1 2 50.0 1 2 50.0 0 9 9 6 1 0 1 2 7
p586
aVDerrick Williams SAC 12/18/2014 SAC vs. MIL L 24 9 2 5 40.0 2 4 50.0 3 4 75.0 0 3 3 0 0 0 2 0 2
p587
aVJason Thompson SAC 12/18/2014 SAC vs. MIL L 19 3 1 3 33.3 0 0 - 1 4 25.0 0 3 3 0 0 0 2 4 8
p588
aVBen McLemore SAC 12/18/2014 SAC vs. MIL L 41 22 8 10 80.0 1 2 50.0 5 5 100.0 0 4 4 3 0 0 3 5 12
p589
aVNik Stauskas SAC 12/18/2014 SAC vs. MIL L 9 0 0 1 0.0 0 1 0.0 0 0 - 0 0 0 0 0 0 1 1 -11
p590
aVRamon Sessions SAC 12/16/2014 SAC vs. OKC L 22 11 5 10 50.0 1 3 33.3 0 0 - 0 4 4 4 0 0 1 2 0
p591
aVCarl Landry SAC 12/16/2014 SAC vs. OKC L 22 14 6 8 75.0 0 0 - 2 3 66.7 2 2 4 1 1 0 3 1 4
p592
aVNik Stauskas SAC 12/16/2014 SAC vs. OKC L 16 5 2 5 40.0 1 3 33.3 0 0 - 0 1 1 0 1 0 0 1 3
p593
aVBen McLemore SAC 12/16/2014 SAC vs. OKC L 32 10 4 11 36.4 2 6 33.3 0 0 - 1 2 3 3 0 0 3 2 -15
p594
aVRyan Hollins SAC 12/16/2014 SAC vs. OKC L 17 6 3 3 100.0 0 0 - 0 0 - 3 6 9 3 0 0 2 5 5
p595
aVJason Thompson SAC 12/16/2014 SAC vs. OKC L 34 6 3 8 37.5 0 0 - 0 0 - 2 7 9 3 1 0 1 3 -24
p596
aVDarren Collison SAC 12/16/2014 SAC vs. OKC L 26 6 2 8 25.0 0 2 0.0 2 2 100.0 1 4 5 3 2 1 3 2 -12
p597
aVReggie Evans SAC 12/16/2014 SAC vs. OKC L 19 4 2 6 33.3 0 0 - 0 0 - 3 3 6 1 0 1 1 2 -9
p598
aVRudy Gay SAC 12/16/2014 SAC vs. OKC L 35 22 8 20 40.0 1 2 50.0 5 6 83.3 1 5 6 3 1 1 3 3 -22
p599
aVDerrick Williams SAC 12/16/2014 SAC vs. OKC L 17 8 1 5 20.0 0 2 0.0 6 6 100.0 0 1 1 0 1 0 0 0 10
p600
aVRay McCallum SAC 12/13/2014 SAC vs. DET L 17 7 3 8 37.5 1 1 100.0 0 0 - 1 0 1 2 0 0 2 0 2
p601
aVRyan Hollins SAC 12/13/2014 SAC vs. DET L 26 6 2 3 66.7 0 0 - 2 4 50.0 5 3 8 1 0 2 1 3 -2
p602
aVReggie Evans SAC 12/13/2014 SAC vs. DET L 15 0 0 1 0.0 0 0 - 0 0 - 1 3 4 0 0 0 3 2 -4
p603
aVEric Moreland SAC 12/13/2014 SAC vs. DET L 0 2 1 1 100.0 0 0 - 0 0 - 0 0 0 0 0 0 0 0 3
p604
aVCarl Landry SAC 12/13/2014 SAC vs. DET L 24 15 5 8 62.5 0 0 - 5 7 71.4 7 4 11 0 0 1 1 2 0
p605
aVJason Thompson SAC 12/13/2014 SAC vs. DET L 19 8 4 6 66.7 0 0 - 0 0 - 1 6 7 0 0 0 2 5 -6
p606
aVBen McLemore SAC 12/13/2014 SAC vs. DET L 31 14 5 14 35.7 4 8 50.0 0 0 - 2 4 6 1 0 1 2 3 -2
p607
aVDarren Collison SAC 12/13/2014 SAC vs. DET L 32 3 1 10 10.0 1 6 16.7 0 0 - 0 3 3 7 1 2 2 3 -9
p608
aVRudy Gay SAC 12/13/2014 SAC vs. DET L 36 20 6 22 27.3 4 7 57.1 4 4 100.0 3 5 8 8 1 0 3 0 0
p609
aVDerrick Williams SAC 12/13/2014 SAC vs. DET L 24 8 3 11 27.3 0 2 0.0 2 4 50.0 2 4 6 1 2 0 0 0 -9
p610
aVNik Stauskas SAC 12/13/2014 SAC vs. DET L 16 7 3 9 33.3 1 5 20.0 0 0 - 0 1 1 1 0 1 0 0 2
p611
aVDerrick Williams SAC 12/11/2014 SAC vs. HOU L 34 17 5 12 41.7 2 4 50.0 5 6 83.3 2 3 5 1 0 0 1 3 -9
p612
aVNik Stauskas SAC 12/11/2014 SAC vs. HOU L 14 3 1 2 50.0 1 2 50.0 0 0 - 0 0 0 2 0 0 3 3 -6
p613
aVDarren Collison SAC 12/11/2014 SAC vs. HOU L 42 24 10 20 50.0 2 4 50.0 2 2 100.0 1 2 3 7 3 0 6 1 5
p614
aVRyan Hollins SAC 12/11/2014 SAC vs. HOU L 7 2 1 2 50.0 0 0 - 0 0 - 1 3 4 0 0 2 0 0 -4
p615
aVJason Thompson SAC 12/11/2014 SAC vs. HOU L 35 13 2 4 50.0 0 0 - 9 11 81.8 3 12 15 1 1 0 0 5 2
p616
aVCarl Landry SAC 12/11/2014 SAC vs. HOU L 18 7 3 5 60.0 0 0 - 1 2 50.0 0 1 1 0 0 2 2 2 -10
p617
aVBen McLemore SAC 12/11/2014 SAC vs. HOU L 46 21 9 15 60.0 2 4 50.0 1 3 33.3 0 2 2 2 0 0 3 4 -2
p618
aVRamon Sessions SAC 12/11/2014 SAC vs. HOU L 11 4 2 4 50.0 0 0 - 0 0 - 0 2 2 1 0 0 0 0 -9
p619
aVReggie Evans SAC 12/11/2014 SAC vs. HOU L 18 5 2 2 100.0 0 0 - 1 6 16.7 2 2 4 0 1 0 2 3 7
p620
aVRudy Gay SAC 12/11/2014 SAC vs. HOU L 40 13 4 18 22.2 1 4 25.0 4 4 100.0 2 6 8 8 3 0 4 2 6
p621
aVReggie Evans SAC 12/09/2014 SAC @ LAL L 30 8 3 3 100.0 0 0 - 2 2 100.0 5 9 14 1 1 0 2 3 6
p622
aVRamon Sessions SAC 12/09/2014 SAC @ LAL L 10 2 1 4 25.0 0 0 - 0 0 - 0 3 3 1 0 0 0 1 -12
p623
aVCarl Landry SAC 12/09/2014 SAC @ LAL L 23 4 2 3 66.7 0 0 - 0 0 - 0 3 3 1 0 0 1 3 -3
p624
aVRudy Gay SAC 12/09/2014 SAC @ LAL L 34 23 7 18 38.9 2 4 50.0 7 8 87.5 0 5 5 5 0 1 4 3 2
p625
aVDerrick Williams SAC 12/09/2014 SAC @ LAL L 21 6 2 4 50.0 0 1 0.0 2 6 33.3 0 3 3 0 1 0 3 1 -11
p626
aVRyan Hollins SAC 12/09/2014 SAC @ LAL L 14 2 0 1 0.0 0 0 - 2 2 100.0 0 6 6 0 0 0 1 3 -8
p627
aVNik Stauskas SAC 12/09/2014 SAC @ LAL L 16 4 2 7 28.6 0 2 0.0 0 0 - 0 1 1 0 0 1 1 1 -8
p628
aVJason Thompson SAC 12/09/2014 SAC @ LAL L 28 5 1 5 20.0 0 0 - 3 4 75.0 3 5 8 4 0 0 2 3 -1
p629
aVDarren Collison SAC 12/09/2014 SAC @ LAL L 38 26 11 18 61.1 2 3 66.7 2 8 25.0 1 3 4 6 0 0 0 2 9
p630
aVBen McLemore SAC 12/09/2014 SAC @ LAL L 25 15 3 7 42.9 3 5 60.0 6 7 85.7 0 1 1 2 1 1 2 5 11
p631
aVNik Stauskas SAC 12/08/2014 SAC vs. UTA W 30 15 6 12 50.0 2 4 50.0 1 1 100.0 2 6 8 1 1 0 2 0 7
p632
aVDerrick Williams SAC 12/08/2014 SAC vs. UTA W 15 7 3 7 42.9 1 1 100.0 0 0 - 1 0 1 0 0 0 1 0 4
p633
aVRamon Sessions SAC 12/08/2014 SAC vs. UTA W 16 6 2 5 40.0 0 0 - 2 5 40.0 1 2 3 4 1 0 2 1 12
p634
aVCarl Landry SAC 12/08/2014 SAC vs. UTA W 15 6 1 2 50.0 0 0 - 4 4 100.0 1 0 1 1 0 0 2 4 -2
p635
aVBen McLemore SAC 12/08/2014 SAC vs. UTA W 18 6 2 5 40.0 0 0 - 2 2 100.0 0 0 0 1 0 1 0 3 2
p636
aVDarren Collison SAC 12/08/2014 SAC vs. UTA W 32 16 6 12 50.0 0 2 0.0 4 4 100.0 0 2 2 6 1 0 2 3 -3
p637
aVJason Thompson SAC 12/08/2014 SAC vs. UTA W 36 10 3 8 37.5 0 0 - 4 6 66.7 2 7 9 3 0 0 2 2 11
p638
aVRudy Gay SAC 12/08/2014 SAC vs. UTA W 33 29 10 19 52.6 0 1 0.0 9 10 90.0 3 3 6 1 3 1 4 5 5
p639
aVReggie Evans SAC 12/08/2014 SAC vs. UTA W 34 6 2 4 50.0 0 0 - 2 4 50.0 0 13 13 1 1 0 0 4 13
p640
aVRyan Hollins SAC 12/08/2014 SAC vs. UTA W 11 0 0 0 - 0 0 - 0 0 - 0 2 2 0 1 0 1 2 -4
p641
aVRyan Hollins SAC 12/06/2014 SAC vs. ORL L 18 5 2 3 66.7 0 0 - 1 2 50.0 0 0 0 0 0 0 0 2 -8
p642
aVDerrick Williams SAC 12/06/2014 SAC vs. ORL L 17 14 6 8 75.0 1 1 100.0 1 1 100.0 0 1 1 0 0 0 1 1 6
p643
aVJason Thompson SAC 12/06/2014 SAC vs. ORL L 32 18 9 12 75.0 0 0 - 0 0 - 2 7 9 4 0 0 1 3 -3
p644
aVCarl Landry SAC 12/06/2014 SAC vs. ORL L 19 2 0 5 0.0 0 0 - 2 2 100.0 1 3 4 0 0 0 1 1 -3
p645
aVRay McCallum SAC 12/06/2014 SAC vs. ORL L 8 0 0 1 0.0 0 1 0.0 0 0 - 0 1 1 0 0 1 1 0 -6
p646
aVReggie Evans SAC 12/06/2014 SAC vs. ORL L 11 3 0 2 0.0 0 0 - 3 4 75.0 3 1 4 0 0 0 0 1 -8
p647
aVNik Stauskas SAC 12/06/2014 SAC vs. ORL L 7 0 0 2 0.0 0 1 0.0 0 0 - 0 1 1 0 0 0 0 1 -8
p648
aVRudy Gay SAC 12/06/2014 SAC vs. ORL L 36 16 7 15 46.7 0 2 0.0 2 3 66.7 1 4 5 6 2 1 2 2 -6
p649
aVBen McLemore SAC 12/06/2014 SAC vs. ORL L 24 2 1 3 33.3 0 2 0.0 0 0 - 1 1 2 1 1 0 1 2 -6
p650
aVDarren Collison SAC 12/06/2014 SAC vs. ORL L 34 22 6 14 42.9 3 6 50.0 7 9 77.8 0 3 3 4 0 0 2 2 6
p651
aVRamon Sessions SAC 12/06/2014 SAC vs. ORL L 23 10 3 11 27.3 0 2 0.0 4 4 100.0 1 1 2 7 1 0 1 0 -6
p652
aVOmri Casspi SAC 12/06/2014 SAC vs. ORL L 12 4 1 3 33.3 0 0 - 2 3 66.7 0 3 3 0 1 0 1 1 -3
p653
aVOmri Casspi SAC 12/05/2014 SAC vs. IND W 17 6 2 4 50.0 0 1 0.0 2 2 100.0 0 3 3 0 0 0 3 1 -6
p654
aVDarren Collison SAC 12/05/2014 SAC vs. IND W 39 20 8 19 42.1 0 3 0.0 4 6 66.7 0 6 6 6 4 0 4 4 8
p655
aVBen McLemore SAC 12/05/2014 SAC vs. IND W 47 12 4 9 44.4 1 3 33.3 3 4 75.0 1 4 5 0 1 0 2 1 5
p656
aVRyan Hollins SAC 12/05/2014 SAC vs. IND W 21 8 2 4 50.0 0 0 - 4 6 66.7 2 2 4 2 0 1 1 3 11
p657
aVReggie Evans SAC 12/05/2014 SAC vs. IND W 25 0 0 2 0.0 0 0 - 0 2 0.0 1 6 7 1 0 0 1 2 -16
p658
aVRamon Sessions SAC 12/05/2014 SAC vs. IND W 14 6 2 5 40.0 0 0 - 2 5 40.0 0 2 2 2 0 0 1 1 -7
p659
aVDerrick Williams SAC 12/05/2014 SAC vs. IND W 0 0 0 0 - 0 0 - 0 0 - 0 0 0 0 0 0 0 0 0
p660
aVJason Thompson SAC 12/05/2014 SAC vs. IND W 38 9 3 8 37.5 0 0 - 3 5 60.0 2 8 10 0 1 1 0 6 10
p661
aVRudy Gay SAC 12/05/2014 SAC vs. IND W 36 27 10 20 50.0 1 1 100.0 6 6 100.0 1 4 5 5 0 0 1 0 7
p662
aVNik Stauskas SAC 12/05/2014 SAC vs. IND W 6 0 0 3 0.0 0 2 0.0 0 0 - 0 0 0 0 0 0 0 1 -4
p663
aVCarl Landry SAC 12/05/2014 SAC vs. IND W 22 14 5 9 55.6 0 0 - 4 4 100.0 4 3 7 0 0 0 1 5 -3
p664
aVCarl Landry SAC 12/02/2014 SAC vs. TOR L 2 0 0 0 - 0 0 - 0 0 - 0 0 0 1 1 0 2 3 0
p665
aVNik Stauskas SAC 12/02/2014 SAC vs. TOR L 17 6 1 2 50.0 0 1 0.0 4 6 66.7 0 0 0 0 0 0 0 1 13
p666
aVJason Thompson SAC 12/02/2014 SAC vs. TOR L 19 4 2 3 66.7 0 0 - 0 0 - 2 1 3 1 0 1 1 5 -9
p667
aVOmri Casspi SAC 12/02/2014 SAC vs. TOR L 23 9 3 4 75.0 0 0 - 3 5 60.0 0 4 4 5 1 1 3 2 -2
p668
aVReggie Evans SAC 12/02/2014 SAC vs. TOR L 32 10 3 3 100.0 0 0 - 4 6 66.7 3 4 7 1 0 0 1 4 2
p669
aVRudy Gay SAC 12/02/2014 SAC vs. TOR L 39 20 8 16 50.0 1 1 100.0 3 3 100.0 4 2 6 10 0 1 4 3 -14
p670
aVRyan Hollins SAC 12/02/2014 SAC vs. TOR L 7 2 1 2 50.0 0 0 - 0 0 - 0 1 1 0 0 0 0 1 -13
p671
aVDarren Collison SAC 12/02/2014 SAC vs. TOR L 19 4 0 5 0.0 0 0 - 4 4 100.0 0 3 3 4 2 0 1 0 -22
p672
aVRamon Sessions SAC 12/02/2014 SAC vs. TOR L 29 15 5 11 45.5 0 0 - 5 6 83.3 1 5 6 4 0 0 2 0 14
p673
aVDerrick Williams SAC 12/02/2014 SAC vs. TOR L 14 18 8 12 66.7 1 3 33.3 1 3 33.3 3 1 4 0 0 0 0 2 6
p674
aVBen McLemore SAC 12/02/2014 SAC vs. TOR L 39 21 8 17 47.1 1 5 20.0 4 4 100.0 0 0 0 2 1 0 1 2 -15
p675
aVDarren Collison SAC 11/30/2014 SAC vs. MEM L 38 16 6 14 42.9 0 3 0.0 4 7 57.1 0 7 7 7 4 1 5 0 -12
p676
aVBen McLemore SAC 11/30/2014 SAC vs. MEM L 41 18 7 13 53.8 1 3 33.3 3 4 75.0 0 2 2 2 1 0 3 3 -2
p677
aVEric Moreland SAC 11/30/2014 SAC vs. MEM L 1 0 0 0 - 0 0 - 0 0 - 0 1 1 0 0 0 0 1 0
p678
aVCarl Landry SAC 11/30/2014 SAC vs. MEM L 23 6 3 6 50.0 0 0 - 0 0 - 1 3 4 1 0 0 4 5 -10
p679
aVRyan Hollins SAC 11/30/2014 SAC vs. MEM L 17 0 0 0 - 0 0 - 0 1 0.0 0 1 1 0 0 1 1 1 -2
p680
aVRay McCallum SAC 11/30/2014 SAC vs. MEM L 1 0 0 0 - 0 0 - 0 0 - 0 0 0 0 0 0 0 0 0
p681
aVOmri Casspi SAC 11/30/2014 SAC vs. MEM L 15 6 2 4 50.0 0 1 0.0 2 2 100.0 0 1 1 0 0 0 0 0 -10
p682
aVNik Stauskas SAC 11/30/2014 SAC vs. MEM L 7 0 0 4 0.0 0 3 0.0 0 0 - 0 0 0 0 0 0 0 0 -8
p683
aVRudy Gay SAC 11/30/2014 SAC vs. MEM L 33 20 7 14 50.0 0 1 0.0 6 7 85.7 1 3 4 3 1 0 4 2 -4
p684
aVRamon Sessions SAC 11/30/2014 SAC vs. MEM L 10 0 0 3 0.0 0 0 - 0 0 - 0 0 0 1 0 0 2 3 0
p685
aVReggie Evans SAC 11/30/2014 SAC vs. MEM L 35 17 7 10 70.0 0 0 - 3 6 50.0 9 11 20 1 1 1 2 4 -7
p686
aVJason Thompson SAC 11/30/2014 SAC vs. MEM L 20 2 1 2 50.0 0 0 - 0 0 - 0 2 2 1 0 1 2 6 -5
p687
aVOmri Casspi SAC 11/28/2014 SAC @ SAS L 13 8 2 4 50.0 0 0 - 4 4 100.0 1 1 2 2 0 0 2 1 -11
p688
aVRudy Gay SAC 11/28/2014 SAC @ SAS L 35 23 9 17 52.9 1 2 50.0 4 6 66.7 0 8 8 8 1 0 1 2 3
p689
aVRyan Hollins SAC 11/28/2014 SAC @ SAS L 26 15 5 7 71.4 0 0 - 5 6 83.3 4 2 6 0 0 1 2 2 -13
p690
aVRamon Sessions SAC 11/28/2014 SAC @ SAS L 13 4 2 6 33.3 0 1 0.0 0 0 - 0 0 0 4 2 0 0 2 -6
p691
aVBen McLemore SAC 11/28/2014 SAC @ SAS L 41 14 6 9 66.7 2 2 100.0 0 0 - 0 3 3 2 1 0 3 3 -6
p692
aVCarl Landry SAC 11/28/2014 SAC @ SAS L 23 12 4 10 40.0 0 0 - 4 4 100.0 2 8 10 2 0 0 1 1 1
p693
aVNik Stauskas SAC 11/28/2014 SAC @ SAS L 7 0 0 0 - 0 0 - 0 0 - 0 1 1 1 0 0 0 1 -2
p694
aVJason Thompson SAC 11/28/2014 SAC @ SAS L 30 4 2 4 50.0 0 0 - 0 0 - 0 9 9 1 0 2 2 3 -2
p695
aVDerrick Williams SAC 11/28/2014 SAC @ SAS L 17 9 3 6 50.0 1 2 50.0 2 2 100.0 1 3 4 0 0 0 0 2 -2
p696
aVDarren Collison SAC 11/28/2014 SAC @ SAS L 35 15 5 12 41.7 2 3 66.7 3 4 75.0 0 3 3 2 0 1 3 3 -2
p697
aVNik Stauskas SAC 11/26/2014 SAC @ HOU L 14 7 1 4 25.0 1 3 33.3 4 4 100.0 0 1 1 1 0 1 0 3 -1
p698
aVBen McLemore SAC 11/26/2014 SAC @ HOU L 38 14 6 17 35.3 2 9 22.2 0 0 - 0 3 3 1 0 1 1 2 -7
p699
aVDerrick Williams SAC 11/26/2014 SAC @ HOU L 10 7 2 2 100.0 1 1 100.0 2 5 40.0 0 0 0 0 0 0 2 0 -10
p700
aVRay McCallum SAC 11/26/2014 SAC @ HOU L 13 0 0 1 0.0 0 0 - 0 0 - 0 1 1 2 0 0 1 1 -11
p701
aVEric Moreland SAC 11/26/2014 SAC @ HOU L 1 0 0 0 - 0 0 - 0 0 - 0 0 0 0 0 0 0 0 -2
p702
aVCarl Landry SAC 11/26/2014 SAC @ HOU L 16 4 2 3 66.7 0 0 - 0 0 - 0 5 5 0 0 0 1 1 -7
p703
aVDeMarcus Cousins SAC 11/26/2014 SAC @ HOU L 37 29 9 18 50.0 0 0 - 11 13 84.6 3 14 17 6 0 3 7 5 -7
p704
aVOmri Casspi SAC 11/26/2014 SAC @ HOU L 41 14 5 9 55.6 0 1 0.0 4 4 100.0 2 5 7 2 0 0 2 3 -5
p705
aVRamon Sessions SAC 11/26/2014 SAC @ HOU L 35 8 3 8 37.5 1 2 50.0 1 2 50.0 0 3 3 3 0 0 5 0 -2
p706
aVJason Thompson SAC 11/26/2014 SAC @ HOU L 35 6 3 9 33.3 0 0 - 0 0 - 5 6 11 1 2 3 1 4 -13
p707
aVRay McCallum SAC 11/25/2014 SAC @ NOP W 19 12 4 7 57.1 0 3 0.0 4 4 100.0 0 3 3 1 1 0 2 4 -5
p708
aVDeMarcus Cousins SAC 11/25/2014 SAC @ NOP W 35 22 8 18 44.4 0 0 - 6 6 100.0 3 9 12 5 3 1 5 4 21
p709
aVBen McLemore SAC 11/25/2014 SAC @ NOP W 29 10 4 6 66.7 2 3 66.7 0 0 - 0 2 2 1 1 0 0 3 18
p710
aVNik Stauskas SAC 11/25/2014 SAC @ NOP W 24 9 4 6 66.7 1 3 33.3 0 0 - 1 2 3 1 1 2 0 2 -9
p711
aVDerrick Williams SAC 11/25/2014 SAC @ NOP W 17 0 0 5 0.0 0 1 0.0 0 0 - 0 2 2 0 0 0 0 1 -3
p712
aVCarl Landry SAC 11/25/2014 SAC @ NOP W 16 9 4 5 80.0 0 0 - 1 2 50.0 1 1 2 0 0 0 0 3 -8
p713
aVJason Thompson SAC 11/25/2014 SAC @ NOP W 33 0 0 3 0.0 0 0 - 0 0 - 1 6 7 1 0 1 0 2 14
p714
aVRamon Sessions SAC 11/25/2014 SAC @ NOP W 32 15 4 13 30.8 1 2 50.0 6 8 75.0 1 2 3 6 2 0 2 1 15
p715
aVOmri Casspi SAC 11/25/2014 SAC @ NOP W 36 22 9 14 64.3 1 2 50.0 3 4 75.0 0 4 4 1 1 0 0 2 7
p716
aVDerrick Williams SAC 11/22/2014 SAC @ MIN W 30 12 4 7 57.1 1 2 50.0 3 4 75.0 1 5 6 0 0 0 3 1 -2
p717
aVCarl Landry SAC 11/22/2014 SAC @ MIN W 9 6 2 5 40.0 0 0 - 2 2 100.0 2 0 2 0 0 0 0 1 -5
p718
aVBen McLemore SAC 11/22/2014 SAC @ MIN W 41 22 9 17 52.9 4 9 44.4 0 0 - 2 7 9 3 1 0 3 5 17
p719
aVRamon Sessions SAC 11/22/2014 SAC @ MIN W 15 2 1 3 33.3 0 2 0.0 0 2 0.0 0 1 1 2 0 0 1 0 -4
p720
aVOmri Casspi SAC 11/22/2014 SAC @ MIN W 12 3 1 6 16.7 0 1 0.0 1 1 100.0 1 1 2 2 0 0 0 1 -4
p721
aVNik Stauskas SAC 11/22/2014 SAC @ MIN W 7 0 0 3 0.0 0 3 0.0 0 0 - 0 1 1 1 0 0 0 0 -5
p722
aVDeMarcus Cousins SAC 11/22/2014 SAC @ MIN W 39 31 11 15 73.3 0 0 - 9 10 90.0 6 12 18 2 1 2 3 4 17
p723
aVJason Thompson SAC 11/22/2014 SAC @ MIN W 18 4 1 3 33.3 0 0 - 2 2 100.0 2 1 3 1 0 0 0 1 14
p724
aVRudy Gay SAC 11/22/2014 SAC @ MIN W 36 14 5 12 41.7 1 5 20.0 3 3 100.0 0 6 6 6 1 0 4 3 16
p725
aVDarren Collison SAC 11/22/2014 SAC @ MIN W 33 19 6 10 60.0 2 4 50.0 5 6 83.3 0 2 2 7 1 0 4 3 16
p726
aVJason Thompson SAC 11/20/2014 SAC vs. CHI W 29 3 1 5 20.0 0 0 - 1 2 50.0 0 4 4 1 0 1 0 1 6
p727
aVDarren Collison SAC 11/20/2014 SAC vs. CHI W 40 17 5 10 50.0 0 1 0.0 7 7 100.0 2 4 6 12 1 1 1 2 17
p728
aVRamon Sessions SAC 11/20/2014 SAC vs. CHI W 13 4 2 2 100.0 0 0 - 0 0 - 0 0 0 2 1 0 2 4 -6
p729
aVRudy Gay SAC 11/20/2014 SAC vs. CHI W 35 20 7 11 63.6 1 1 100.0 5 5 100.0 1 6 7 3 0 0 2 4 18
p730
aVCarl Landry SAC 11/20/2014 SAC vs. CHI W 17 2 1 7 14.3 0 0 - 0 0 - 2 2 4 1 0 1 1 2 16
p731
aVNik Stauskas SAC 11/20/2014 SAC vs. CHI W 0 0 0 0 - 0 0 - 0 0 - 0 0 0 0 0 0 0 0 2
p732
aVRyan Hollins SAC 11/20/2014 SAC vs. CHI W 1 0 0 0 - 0 0 - 0 0 - 0 1 1 1 0 0 0 1 0
p733
aVBen McLemore SAC 11/20/2014 SAC vs. CHI W 30 11 4 6 66.7 3 4 75.0 0 0 - 0 1 1 0 1 0 2 2 3
p734
aVRay McCallum SAC 11/20/2014 SAC vs. CHI W 0 0 0 0 - 0 0 - 0 0 - 0 0 0 0 0 0 0 0 2
p735
aVDeMarcus Cousins SAC 11/20/2014 SAC vs. CHI W 34 22 9 19 47.4 0 0 - 4 5 80.0 2 12 14 4 1 1 5 5 9
p736
aVOmri Casspi SAC 11/20/2014 SAC vs. CHI W 17 14 5 5 100.0 0 0 - 4 4 100.0 0 1 1 0 1 0 0 0 -3
p737
aVDerrick Williams SAC 11/20/2014 SAC vs. CHI W 22 10 4 9 44.4 0 0 - 2 4 50.0 0 2 2 2 0 0 0 0 11
p738
aVDeMarcus Cousins SAC 11/18/2014 SAC vs. NOP L 34 24 10 18 55.6 0 0 - 4 7 57.1 3 14 17 3 0 2 3 3 -3
p739
aVRudy Gay SAC 11/18/2014 SAC vs. NOP L 37 15 6 17 35.3 0 2 0.0 3 5 60.0 2 2 4 5 1 0 4 4 0
p740
aVCarl Landry SAC 11/18/2014 SAC vs. NOP L 16 8 3 6 50.0 0 0 - 2 2 100.0 4 5 9 0 1 0 0 1 -6
p741
aVDarren Collison SAC 11/18/2014 SAC vs. NOP L 31 13 3 10 30.0 2 3 66.7 5 6 83.3 0 2 2 11 0 0 0 0 7
p742
aVOmri Casspi SAC 11/18/2014 SAC vs. NOP L 28 13 5 11 45.5 0 0 - 3 5 60.0 2 3 5 2 0 0 2 1 0
p743
aVJason Thompson SAC 11/18/2014 SAC vs. NOP L 25 15 6 10 60.0 0 0 - 3 4 75.0 6 3 9 0 0 0 2 2 -4
p744
aVBen McLemore SAC 11/18/2014 SAC vs. NOP L 29 2 1 6 16.7 0 3 0.0 0 0 - 0 3 3 1 1 0 2 1 9
p745
aVRyan Hollins SAC 11/18/2014 SAC vs. NOP L 0 0 0 0 - 0 0 - 0 0 - 0 0 0 0 0 0 0 0 -2
p746
aVRay McCallum SAC 11/18/2014 SAC vs. NOP L 21 5 2 4 50.0 1 2 50.0 0 0 - 0 2 2 0 0 0 2 2 -16
p747
aVNik Stauskas SAC 11/18/2014 SAC vs. NOP L 19 5 2 4 50.0 1 1 100.0 0 0 - 0 1 1 1 0 0 0 1 -15
p748
aVRudy Gay SAC 11/15/2014 SAC vs. SAS W 38 18 7 20 35.0 0 3 0.0 4 4 100.0 0 3 3 6 1 1 2 1 11
p749
aVDerrick Williams SAC 11/15/2014 SAC vs. SAS W 5 3 1 2 50.0 0 1 0.0 1 2 50.0 0 0 0 0 0 0 0 0 -8
p750
aVJason Thompson SAC 11/15/2014 SAC vs. SAS W 32 4 2 5 40.0 0 0 - 0 0 - 0 9 9 4 0 1 1 2 10
p751
aVDeMarcus Cousins SAC 11/15/2014 SAC vs. SAS W 27 25 10 19 52.6 0 0 - 5 6 83.3 4 6 10 0 0 1 1 5 -6
p752
aVBen McLemore SAC 11/15/2014 SAC vs. SAS W 40 8 3 8 37.5 0 3 0.0 2 2 100.0 2 2 4 1 0 0 2 2 8
p753
aVCarl Landry SAC 11/15/2014 SAC vs. SAS W 20 8 4 9 44.4 0 0 - 0 0 - 1 5 6 2 1 2 0 2 11
p754
aVDarren Collison SAC 11/15/2014 SAC vs. SAS W 39 19 7 13 53.8 0 2 0.0 5 6 83.3 0 2 2 5 2 0 3 2 8
p755
aVRamon Sessions SAC 11/15/2014 SAC vs. SAS W 9 0 0 2 0.0 0 0 - 0 0 - 0 3 3 1 0 0 0 1 -5
p756
aVNik Stauskas SAC 11/15/2014 SAC vs. SAS W 8 0 0 2 0.0 0 2 0.0 0 0 - 0 0 0 0 0 0 0 0 -5
p757
aVOmri Casspi SAC 11/15/2014 SAC vs. SAS W 22 9 3 6 50.0 0 1 0.0 3 4 75.0 1 4 5 0 1 1 0 3 -9
p758
aVRudy Gay SAC 11/13/2014 SAC @ MEM L 40 25 8 17 47.1 1 2 50.0 8 8 100.0 3 4 7 2 1 1 0 3 10
p759
aVDarren Collison SAC 11/13/2014 SAC @ MEM L 37 20 6 11 54.5 2 3 66.7 6 7 85.7 0 2 2 5 1 1 3 2 8
p760
aVNik Stauskas SAC 11/13/2014 SAC @ MEM L 11 3 1 2 50.0 1 1 100.0 0 0 - 0 1 1 1 0 0 0 0 -7
p761
aVDeMarcus Cousins SAC 11/13/2014 SAC @ MEM L 31 22 8 17 47.1 0 0 - 6 7 85.7 2 10 12 1 2 3 6 5 19
p762
aVRyan Hollins SAC 11/13/2014 SAC @ MEM L 0 0 0 0 - 0 0 - 0 0 - 0 0 0 0 0 0 0 0 -2
p763
aVReggie Evans SAC 11/13/2014 SAC @ MEM L 13 2 1 2 50.0 0 0 - 0 0 - 2 2 4 0 1 0 1 3 -7
p764
aVRamon Sessions SAC 11/13/2014 SAC @ MEM L 11 5 1 3 33.3 0 1 0.0 3 4 75.0 1 0 1 2 0 0 1 0 -9
p765
aVCarl Landry SAC 11/13/2014 SAC @ MEM L 25 10 3 7 42.9 0 0 - 4 4 100.0 2 2 4 0 0 0 0 6 -23
p766
aVOmri Casspi SAC 11/13/2014 SAC @ MEM L 8 0 0 1 0.0 0 0 - 0 0 - 0 2 2 0 0 0 1 1 -11
p767
aVBen McLemore SAC 11/13/2014 SAC @ MEM L 37 17 6 12 50.0 3 6 50.0 2 4 50.0 0 4 4 0 0 0 1 1 10
p768
aVJason Thompson SAC 11/13/2014 SAC @ MEM L 27 6 3 5 60.0 0 0 - 0 0 - 3 4 7 1 1 0 1 5 7
p769
aVDeMarcus Cousins SAC 11/11/2014 SAC @ DAL L 30 16 7 13 53.8 0 0 - 2 2 100.0 4 7 11 5 0 0 5 5 8
p770
aVReggie Evans SAC 11/11/2014 SAC @ DAL L 14 1 0 1 0.0 0 0 - 1 2 50.0 2 4 6 0 0 0 0 2 -6
p771
aVRudy Gay SAC 11/11/2014 SAC @ DAL L 39 26 7 14 50.0 1 3 33.3 11 13 84.6 2 6 8 8 2 0 7 2 -8
p772
aVOmri Casspi SAC 11/11/2014 SAC @ DAL L 14 6 2 3 66.7 1 1 100.0 1 1 100.0 0 3 3 1 0 0 2 3 2
p773
aVRay McCallum SAC 11/11/2014 SAC @ DAL L 12 3 1 5 20.0 1 2 50.0 0 0 - 0 1 1 1 0 0 1 4 -8
p774
aVRamon Sessions SAC 11/11/2014 SAC @ DAL L 36 18 6 9 66.7 2 3 66.7 4 5 80.0 1 2 3 0 0 0 1 3 0
p775
aVNik Stauskas SAC 11/11/2014 SAC @ DAL L 9 0 0 1 0.0 0 1 0.0 0 0 - 0 0 0 1 0 0 0 0 0
p776
aVRyan Hollins SAC 11/11/2014 SAC @ DAL L 6 0 0 0 - 0 0 - 0 0 - 0 0 0 0 1 0 1 3 -9
p777
aVBen McLemore SAC 11/11/2014 SAC @ DAL L 39 17 6 12 50.0 4 8 50.0 1 1 100.0 0 4 4 0 1 1 1 1 -8
p778
aVCarl Landry SAC 11/11/2014 SAC @ DAL L 28 11 3 10 30.0 0 0 - 5 6 83.3 2 1 3 0 1 0 1 4 7
p779
aVJason Thompson SAC 11/11/2014 SAC @ DAL L 13 0 0 3 0.0 0 1 0.0 0 2 0.0 1 3 4 1 0 0 1 2 -14
p780
aVDerrick Williams SAC 11/11/2014 SAC @ DAL L 1 0 0 1 0.0 0 0 - 0 0 - 0 0 0 0 0 0 0 3 -4
p781
aVBen McLemore SAC 11/09/2014 SAC @ OKC L 28 16 6 9 66.7 4 6 66.7 0 0 - 0 2 2 2 0 0 1 3 15
p782
aVDarren Collison SAC 11/09/2014 SAC @ OKC L 35 12 5 15 33.3 1 6 16.7 1 1 100.0 1 4 5 7 2 0 2 2 2
p783
aVRudy Gay SAC 11/09/2014 SAC @ OKC L 38 23 9 19 47.4 1 6 16.7 4 4 100.0 2 8 10 6 2 0 1 2 2
p784
aVDeMarcus Cousins SAC 11/09/2014 SAC @ OKC L 34 16 7 15 46.7 0 0 - 2 5 40.0 1 6 7 1 4 2 2 5 -4
p785
aVCarl Landry SAC 11/09/2014 SAC @ OKC L 19 9 3 4 75.0 0 0 - 3 6 50.0 1 0 1 0 0 0 1 2 -10
p786
aVNik Stauskas SAC 11/09/2014 SAC @ OKC L 16 0 0 2 0.0 0 2 0.0 0 0 - 0 0 0 1 0 0 1 2 -19
p787
aVJason Thompson SAC 11/09/2014 SAC @ OKC L 28 2 1 2 50.0 0 0 - 0 0 - 1 3 4 0 1 0 0 5 2
p788
aVReggie Evans SAC 11/09/2014 SAC @ OKC L 14 5 2 4 50.0 0 0 - 1 1 100.0 2 3 5 1 1 0 1 0 -4
p789
aVRay McCallum SAC 11/09/2014 SAC @ OKC L 5 0 0 1 0.0 0 1 0.0 0 0 - 0 1 1 1 0 0 0 1 -3
p790
aVOmri Casspi SAC 11/09/2014 SAC @ OKC L 11 6 2 5 40.0 0 2 0.0 2 3 66.7 1 1 2 1 0 0 0 0 -11
p791
aVRamon Sessions SAC 11/09/2014 SAC @ OKC L 13 4 1 4 25.0 0 1 0.0 2 2 100.0 0 0 0 3 1 0 1 2 -10
p792
aVJason Thompson SAC 11/07/2014 SAC @ PHX W 33 8 3 6 50.0 0 0 - 2 4 50.0 2 3 5 1 0 0 1 2 -19
p793
aVCarl Landry SAC 11/07/2014 SAC @ PHX W 37 12 6 8 75.0 0 0 - 0 0 - 4 4 8 1 1 1 1 3 19
p794
aVDeMarcus Cousins SAC 11/07/2014 SAC @ PHX W 35 25 6 14 42.9 0 0 - 13 14 92.9 2 16 18 0 0 2 2 6 2
p795
aVDarren Collison SAC 11/07/2014 SAC @ PHX W 33 16 6 13 46.2 0 2 0.0 4 6 66.7 0 2 2 3 2 0 2 2 3
p796
aVOmri Casspi SAC 11/07/2014 SAC @ PHX W 11 4 0 0 - 0 0 - 4 4 100.0 1 3 4 2 0 0 1 1 6
p797
aVRudy Gay SAC 11/07/2014 SAC @ PHX W 48 11 5 22 22.7 1 6 16.7 0 0 - 1 8 9 1 1 0 4 2 -4
p798
aVReggie Evans SAC 11/07/2014 SAC @ PHX W 11 5 0 3 0.0 0 0 - 5 6 83.3 2 3 5 2 0 1 2 3 2
p799
aVDerrick Williams SAC 11/07/2014 SAC @ PHX W 0 0 0 0 - 0 0 - 0 0 - 0 0 0 0 0 0 0 0 0
p800
aVRamon Sessions SAC 11/07/2014 SAC @ PHX W 25 9 4 9 44.4 0 0 - 1 1 100.0 0 3 3 4 1 0 1 0 -1
p801
aVRay McCallum SAC 11/07/2014 SAC @ PHX W 0 0 0 0 - 0 0 - 0 0 - 0 0 0 0 0 0 0 0 0
p802
aVNik Stauskas SAC 11/07/2014 SAC @ PHX W 29 9 4 7 57.1 1 4 25.0 0 0 - 0 3 3 2 0 0 0 3 14
p803
aVBen McLemore SAC 11/07/2014 SAC @ PHX W 29 15 5 9 55.6 1 4 25.0 4 4 100.0 1 2 3 0 1 0 1 5 -12
p804
aVRyan Hollins SAC 11/05/2014 SAC vs. DEN W 2 2 1 1 100.0 0 0 - 0 0 - 1 0 1 0 0 0 1 2 0
p805
aVNik Stauskas SAC 11/05/2014 SAC vs. DEN W 16 5 2 5 40.0 1 3 33.3 0 0 - 0 0 0 2 0 0 0 3 -17
p806
aVRamon Sessions SAC 11/05/2014 SAC vs. DEN W 11 2 0 2 0.0 0 1 0.0 2 2 100.0 0 0 0 1 2 0 1 1 -13
p807
aVDeMarcus Cousins SAC 11/05/2014 SAC vs. DEN W 22 30 10 14 71.4 0 0 - 10 11 90.9 3 8 11 1 2 0 3 6 24
p808
aVBen McLemore SAC 11/05/2014 SAC vs. DEN W 36 10 3 7 42.9 2 5 40.0 2 2 100.0 0 7 7 3 0 1 1 2 37
p809
aVDarren Collison SAC 11/05/2014 SAC vs. DEN W 32 10 4 9 44.4 1 4 25.0 1 3 33.3 0 0 0 8 1 1 0 1 39
p810
aVReggie Evans SAC 11/05/2014 SAC vs. DEN W 19 6 2 4 50.0 0 0 - 2 5 40.0 1 4 5 1 0 0 0 2 15
p811
aVRay McCallum SAC 11/05/2014 SAC vs. DEN W 6 8 3 4 75.0 1 2 50.0 1 2 50.0 0 0 0 0 1 0 0 0 0
p812
aVOmri Casspi SAC 11/05/2014 SAC vs. DEN W 22 11 4 7 57.1 0 2 0.0 3 3 100.0 2 4 6 1 1 0 2 3 -15
p813
aVJason Thompson SAC 11/05/2014 SAC vs. DEN W 17 0 0 5 0.0 0 0 - 0 2 0.0 1 2 3 0 0 0 1 4 20
p814
aVCarl Landry SAC 11/05/2014 SAC vs. DEN W 16 18 4 6 66.7 0 0 - 10 10 100.0 1 3 4 1 0 0 0 2 -5
p815
aVDerrick Williams SAC 11/05/2014 SAC vs. DEN W 6 0 0 0 - 0 0 - 0 0 - 0 0 0 1 0 0 1 2 -6
p816
aVRudy Gay SAC 11/05/2014 SAC vs. DEN W 35 29 9 12 75.0 3 3 100.0 8 10 80.0 0 3 3 2 1 1 3 2 31
p817
aVRudy Gay SAC 11/03/2014 SAC @ DEN W 23 14 4 13 30.8 0 1 0.0 6 7 85.7 2 2 4 3 1 1 3 1 6
p818
aVOmri Casspi SAC 11/03/2014 SAC @ DEN W 27 9 3 7 42.9 0 1 0.0 3 4 75.0 1 0 1 4 0 1 1 2 4
p819
aVReggie Evans SAC 11/03/2014 SAC @ DEN W 23 2 1 2 50.0 0 0 - 0 0 - 3 11 14 0 2 1 0 4 -1
p820
aVNik Stauskas SAC 11/03/2014 SAC @ DEN W 2 0 0 0 - 0 0 - 0 0 - 0 0 0 0 0 0 0 3 1
p821
aVDarren Collison SAC 11/03/2014 SAC @ DEN W 30 21 5 9 55.6 0 0 - 11 13 84.6 1 3 4 6 1 0 1 1 4
p822
aVJason Thompson SAC 11/03/2014 SAC @ DEN W 23 4 2 5 40.0 0 0 - 0 0 - 4 6 10 1 0 0 1 4 4
p823
aVDeMarcus Cousins SAC 11/03/2014 SAC @ DEN W 25 19 6 13 46.2 0 0 - 7 9 77.8 1 4 5 1 2 1 1 3 6
p824
aVRamon Sessions SAC 11/03/2014 SAC @ DEN W 21 13 1 6 16.7 1 1 100.0 10 10 100.0 0 2 2 3 0 0 3 1 -1
p825
aVCarl Landry SAC 11/03/2014 SAC @ DEN W 23 14 7 12 58.3 0 0 - 0 0 - 1 0 1 1 1 0 2 4 -2
p826
aVDerrick Williams SAC 11/03/2014 SAC @ DEN W 10 5 1 4 25.0 0 1 0.0 3 4 75.0 1 3 4 1 1 0 1 1 1
p827
aVRay McCallum SAC 11/03/2014 SAC @ DEN W 14 4 2 5 40.0 0 2 0.0 0 0 - 0 0 0 1 0 0 0 1 5
p828
aVBen McLemore SAC 11/03/2014 SAC @ DEN W 19 5 2 5 40.0 1 3 33.3 0 0 - 0 5 5 0 0 1 2 3 -2
p829
aVReggie Evans SAC 11/02/2014 SAC @ LAC W 6 1 0 0 - 0 0 - 1 2 50.0 0 2 2 0 0 0 0 2 -7
p830
aVCarl Landry SAC 11/02/2014 SAC @ LAC W 14 7 2 3 66.7 0 0 - 3 3 100.0 1 0 1 1 0 0 2 2 -5
p831
aVDeMarcus Cousins SAC 11/02/2014 SAC @ LAC W 34 34 15 23 65.2 0 0 - 4 5 80.0 6 11 17 5 0 3 4 4 18
p832
aVNik Stauskas SAC 11/02/2014 SAC @ LAC W 21 3 1 3 33.3 1 3 33.3 0 0 - 0 0 0 1 0 3 1 1 2
p833
aVDarren Collison SAC 11/02/2014 SAC @ LAC W 39 14 4 12 33.3 0 1 0.0 6 6 100.0 1 4 5 4 0 1 3 1 11
p834
aVRudy Gay SAC 11/02/2014 SAC @ LAC W 39 25 7 14 50.0 1 2 50.0 10 11 90.9 0 7 7 6 1 1 4 1 11
p835
aVRamon Sessions SAC 11/02/2014 SAC @ LAC W 9 0 0 2 0.0 0 1 0.0 0 2 0.0 0 0 0 0 0 0 1 1 -5
p836
aVBen McLemore SAC 11/02/2014 SAC @ LAC W 20 3 1 4 25.0 1 3 33.3 0 0 - 0 1 1 0 1 0 0 3 1
p837
aVJason Thompson SAC 11/02/2014 SAC @ LAC W 37 4 2 5 40.0 0 0 - 0 0 - 0 7 7 1 2 2 3 4 10
p838
aVOmri Casspi SAC 11/02/2014 SAC @ LAC W 16 6 2 2 100.0 0 0 - 2 2 100.0 1 5 6 3 0 0 0 3 0
p839
aVDerrick Williams SAC 11/02/2014 SAC @ LAC W 4 1 0 0 - 0 0 - 1 2 50.0 0 0 0 0 0 1 1 0 -6
p840
aVBen McLemore SAC 10/31/2014 SAC vs. POR W 32 7 2 5 40.0 1 2 50.0 2 2 100.0 1 3 4 1 0 0 2 0 3
p841
aVRudy Gay SAC 10/31/2014 SAC vs. POR W 36 40 13 19 68.4 3 4 75.0 11 13 84.6 2 6 8 1 1 0 0 2 14
p842
aVOmri Casspi SAC 10/31/2014 SAC vs. POR W 13 10 3 4 75.0 0 0 - 4 4 100.0 1 3 4 1 0 0 1 3 -4
p843
aVRyan Hollins SAC 10/31/2014 SAC vs. POR W 1 2 0 0 - 0 0 - 2 2 100.0 0 0 0 0 0 0 0 0 -3
p844
aVDarren Collison SAC 10/31/2014 SAC vs. POR W 38 17 6 14 42.9 0 3 0.0 5 6 83.3 2 6 8 8 3 0 3 4 14
p845
aVCarl Landry SAC 10/31/2014 SAC vs. POR W 16 2 1 3 33.3 0 0 - 0 0 - 2 2 4 0 0 0 0 2 2
p846
aVNik Stauskas SAC 10/31/2014 SAC vs. POR W 16 0 0 4 0.0 0 1 0.0 0 0 - 1 1 2 0 1 0 0 1 6
p847
aVDeMarcus Cousins SAC 10/31/2014 SAC vs. POR W 31 17 6 16 37.5 0 0 - 5 6 83.3 3 6 9 1 1 2 2 5 28
p848
aVRamon Sessions SAC 10/31/2014 SAC vs. POR W 10 2 0 4 0.0 0 0 - 2 2 100.0 0 0 0 1 0 0 0 0 -5
p849
aVJason Thompson SAC 10/31/2014 SAC vs. POR W 23 2 1 5 20.0 0 0 - 0 0 - 0 4 4 0 0 0 0 3 4
p850
aVReggie Evans SAC 10/31/2014 SAC vs. POR W 24 4 2 7 28.6 0 0 - 0 0 - 2 4 6 1 0 0 2 4 -14
p851
aVDarren Collison SAC 10/29/2014 SAC vs. GSW L 36 13 4 12 33.3 1 4 25.0 4 6 66.7 0 4 4 8 5 1 1 2 -5
p852
aVCarl Landry SAC 10/29/2014 SAC vs. GSW L 17 8 3 5 60.0 0 0 - 2 2 100.0 5 2 7 0 0 0 2 1 -3
p853
aVNik Stauskas SAC 10/29/2014 SAC vs. GSW L 26 9 3 10 30.0 2 7 28.6 1 1 100.0 0 0 0 0 0 0 1 3 -19
p854
aVReggie Evans SAC 10/29/2014 SAC vs. GSW L 7 0 0 3 0.0 0 0 - 0 0 - 2 3 5 1 0 0 1 0 3
p855
aVDerrick Williams SAC 10/29/2014 SAC vs. GSW L 13 2 1 4 25.0 0 2 0.0 0 0 - 1 1 2 0 1 0 0 2 -16
p856
aVRyan Hollins SAC 10/29/2014 SAC vs. GSW L 2 2 1 1 100.0 0 0 - 0 0 - 0 1 1 0 0 0 0 0 -1
p857
aVDeMarcus Cousins SAC 10/29/2014 SAC vs. GSW L 31 20 4 14 28.6 0 0 - 12 18 66.7 3 8 11 1 1 0 6 5 -7
p858
aVOmri Casspi SAC 10/29/2014 SAC vs. GSW L 15 4 1 3 33.3 0 1 0.0 2 2 100.0 0 2 2 1 0 0 2 2 -12
p859
aVRudy Gay SAC 10/29/2014 SAC vs. GSW L 34 14 5 15 33.3 0 2 0.0 4 5 80.0 2 7 9 0 1 1 3 3 -10
p860
aVRamon Sessions SAC 10/29/2014 SAC vs. GSW L 10 3 1 3 33.3 0 0 - 1 1 100.0 0 0 0 1 0 0 4 2 -12
p861
aVJason Thompson SAC 10/29/2014 SAC vs. GSW L 21 2 1 3 33.3 0 0 - 0 0 - 2 5 7 0 2 1 4 3 -9
p862
aVRay McCallum SAC 10/29/2014 SAC vs. GSW L 2 0 0 0 - 0 0 - 0 0 - 0 0 0 0 0 0 0 0 -1
p863
aVBen McLemore SAC 10/29/2014 SAC vs. GSW L 26 0 0 5 0.0 0 2 0.0 0 0 - 0 2 2 1 1 0 2 3 2
p864
a.