(lp0
VPLAYER TEAM DATE MATCHUP W/L MIN PTS FGM FGA FG% 3PM 3PA 3P% FTM FTA FT% OREB DREB REB AST STL BLK TOV PF +/-
p1
aVDennis Schroder ATL 05/26/2015 ATL @ CLE L 19 4 2 7 28.6 0 1 0.0 0 0 - 0 1 1 4 0 0 1 5 -14
p2
aVMike Scott ATL 05/26/2015 ATL @ CLE L 24 2 1 5 20.0 0 4 0.0 0 0 - 1 3 4 2 0 0 1 3 -25
p3
aVMike Muscala ATL 05/26/2015 ATL @ CLE L 12 8 4 5 80.0 0 1 0.0 0 0 - 0 1 1 0 0 0 0 0 -5
p4
aVPaul Millsap ATL 05/26/2015 ATL @ CLE L 31 16 5 13 38.5 0 4 0.0 6 8 75.0 2 8 10 5 0 0 0 2 -20
p5
aVShelvin Mack ATL 05/26/2015 ATL @ CLE L 24 10 4 11 36.4 1 5 20.0 1 2 50.0 0 2 2 1 2 0 0 2 -25
p6
aVKent Bazemore ATL 05/26/2015 ATL @ CLE L 35 12 4 11 36.4 0 4 0.0 4 6 66.7 0 8 8 3 0 0 0 1 -19
p7
aVJeff Teague ATL 05/26/2015 ATL @ CLE L 28 17 8 13 61.5 1 5 20.0 0 0 - 0 1 1 1 1 1 3 2 -16
p8
aVDeMarre Carroll ATL 05/26/2015 ATL @ CLE L 27 7 3 9 33.3 1 5 20.0 0 2 0.0 2 6 8 1 1 1 2 3 -14
p9
aVAl Horford ATL 05/26/2015 ATL @ CLE L 29 2 1 6 16.7 0 0 - 0 0 - 1 1 2 5 0 1 0 1 -7
p10
aVJohn Jenkins ATL 05/26/2015 ATL @ CLE L 12 10 4 5 80.0 2 3 66.7 0 0 - 1 1 2 0 0 0 0 1 -5
p11
aVPaul Millsap ATL 05/24/2015 ATL @ CLE L 46 22 5 11 45.5 1 2 50.0 11 11 100.0 3 6 9 0 1 0 3 4 1
p12
aVJeff Teague ATL 05/24/2015 ATL @ CLE L 43 30 9 23 39.1 3 8 37.5 9 9 100.0 0 6 6 7 1 1 0 3 8
p13
aVMike Scott ATL 05/24/2015 ATL @ CLE L 32 8 3 9 33.3 0 5 0.0 2 2 100.0 2 7 9 2 1 0 1 5 -1
p14
aVMike Muscala ATL 05/24/2015 ATL @ CLE L 9 0 0 2 0.0 0 0 - 0 0 - 0 0 0 1 0 0 0 1 -10
p15
aVAl Horford ATL 05/24/2015 ATL @ CLE L 19 14 7 10 70.0 0 0 - 0 0 - 1 3 4 1 0 0 0 3 4
p16
aVPero Antic ATL 05/24/2015 ATL @ CLE L 0 0 0 0 - 0 0 - 0 0 - 0 0 0 0 0 0 0 0 0
p17
aVShelvin Mack ATL 05/24/2015 ATL @ CLE L 28 13 5 10 50.0 3 7 42.9 0 2 0.0 0 4 4 3 1 0 1 1 -13
p18
aVDeMarre Carroll ATL 05/24/2015 ATL @ CLE L 41 10 4 12 33.3 2 4 50.0 0 0 - 0 3 3 2 2 1 0 4 11
p19
aVDennis Schroder ATL 05/24/2015 ATL @ CLE L 3 0 0 2 0.0 0 1 0.0 0 0 - 0 0 0 1 0 0 0 0 -3
p20
aVKent Bazemore ATL 05/24/2015 ATL @ CLE L 43 14 3 9 33.3 2 3 66.7 6 8 75.0 0 7 7 3 3 1 2 4 -12
p21
aVKyle Korver ATL 05/22/2015 ATL vs. CLE L 32 12 4 11 36.4 2 6 33.3 2 2 100.0 0 1 1 1 1 0 0 2 -12
p22
aVPaul Millsap ATL 05/22/2015 ATL vs. CLE L 27 4 2 8 25.0 0 0 - 0 0 - 0 5 5 2 2 0 1 3 -4
p23
aVAl Horford ATL 05/22/2015 ATL vs. CLE L 30 12 5 8 62.5 0 0 - 2 3 66.7 2 4 6 2 1 1 1 1 -27
p24
aVKent Bazemore ATL 05/22/2015 ATL vs. CLE L 12 7 3 4 75.0 0 1 0.0 1 2 50.0 0 2 2 0 1 0 2 2 -12
p25
aVShelvin Mack ATL 05/22/2015 ATL vs. CLE L 13 7 2 7 28.6 1 4 25.0 2 2 100.0 1 2 3 1 0 0 0 1 3
p26
aVPero Antic ATL 05/22/2015 ATL vs. CLE L 13 1 0 1 0.0 0 1 0.0 1 2 50.0 0 5 5 1 0 0 2 4 15
p27
aVDennis Schroder ATL 05/22/2015 ATL vs. CLE L 12 13 6 11 54.5 1 3 33.3 0 0 - 0 3 3 1 0 0 1 0 -12
p28
aVMike Muscala ATL 05/22/2015 ATL vs. CLE L 5 2 1 1 100.0 0 0 - 0 0 - 0 0 0 0 0 0 0 0 7
p29
aVJohn Jenkins ATL 05/22/2015 ATL vs. CLE L 5 0 0 0 - 0 0 - 0 0 - 0 1 1 0 0 0 0 1 7
p30
aVJeff Teague ATL 05/22/2015 ATL vs. CLE L 31 12 5 16 31.3 2 6 33.3 0 0 - 0 3 3 6 1 2 1 2 -9
p31
aVDeMarre Carroll ATL 05/22/2015 ATL vs. CLE L 34 6 2 6 33.3 0 2 0.0 2 2 100.0 1 2 3 0 0 0 0 2 -8
p32
aVMike Scott ATL 05/22/2015 ATL vs. CLE L 26 6 3 6 50.0 0 3 0.0 0 0 - 3 4 7 1 1 0 3 1 -8
p33
aVKyle Korver ATL 05/20/2015 ATL vs. CLE L 36 9 3 5 60.0 2 4 50.0 1 1 100.0 0 7 7 3 0 0 3 3 -7
p34
aVDeMarre Carroll ATL 05/20/2015 ATL vs. CLE L 35 5 2 7 28.6 1 4 25.0 0 0 - 1 0 1 3 2 0 0 2 -6
p35
aVKent Bazemore ATL 05/20/2015 ATL vs. CLE L 16 10 4 5 80.0 0 1 0.0 2 3 66.7 0 4 4 0 0 1 0 0 0
p36
aVDennis Schroder ATL 05/20/2015 ATL vs. CLE L 19 6 2 10 20.0 0 3 0.0 2 2 100.0 1 2 3 4 1 0 1 2 -13
p37
aVJeff Teague ATL 05/20/2015 ATL vs. CLE L 39 27 11 24 45.8 1 6 16.7 4 4 100.0 0 3 3 4 2 0 3 2 2
p38
aVPero Antic ATL 05/20/2015 ATL vs. CLE L 10 0 0 1 0.0 0 1 0.0 0 0 - 0 3 3 0 1 0 0 2 -10
p39
aVPaul Millsap ATL 05/20/2015 ATL vs. CLE L 38 13 3 11 27.3 0 3 0.0 7 10 70.0 3 4 7 3 0 1 3 6 4
p40
aVAl Horford ATL 05/20/2015 ATL vs. CLE L 38 16 8 12 66.7 0 1 0.0 0 1 0.0 1 6 7 2 0 0 1 2 2
p41
aVMike Muscala ATL 05/20/2015 ATL vs. CLE L 11 2 1 2 50.0 0 0 - 0 0 - 1 1 2 0 0 1 1 1 -12
p42
aVElton Brand ATL 05/20/2015 ATL vs. CLE L 0 1 0 0 - 0 0 - 1 2 50.0 0 0 0 0 0 0 0 1 0
p43
aVMike Muscala ATL 05/15/2015 ATL @ WAS W 12 5 2 4 50.0 1 2 50.0 0 0 - 3 0 3 0 0 0 0 4 -5
p44
aVPero Antic ATL 05/15/2015 ATL @ WAS W 5 0 0 3 0.0 0 1 0.0 0 0 - 3 0 3 0 0 0 0 2 -8
p45
aVAl Horford ATL 05/15/2015 ATL @ WAS W 39 13 6 9 66.7 0 0 - 1 2 50.0 0 7 7 4 0 2 3 0 14
p46
aVDennis Schroder ATL 05/15/2015 ATL @ WAS W 22 9 3 12 25.0 1 3 33.3 2 2 100.0 0 0 0 4 3 0 1 4 -11
p47
aVPaul Millsap ATL 05/15/2015 ATL @ WAS W 40 20 7 20 35.0 1 5 20.0 5 7 71.4 3 10 13 2 0 2 3 5 5
p48
aVKyle Korver ATL 05/15/2015 ATL @ WAS W 40 2 1 8 12.5 0 7 0.0 0 1 0.0 0 4 4 2 1 1 3 2 16
p49
aVJeff Teague ATL 05/15/2015 ATL @ WAS W 36 20 8 13 61.5 2 4 50.0 2 2 100.0 1 4 5 7 1 1 3 2 16
p50
aVDeMarre Carroll ATL 05/15/2015 ATL @ WAS W 37 25 9 14 64.3 3 5 60.0 4 5 80.0 2 8 10 1 2 0 2 2 0
p51
aVKent Bazemore ATL 05/15/2015 ATL @ WAS W 9 0 0 1 0.0 0 0 - 0 0 - 0 2 2 0 1 0 0 1 -12
p52
aVJeff Teague ATL 05/13/2015 ATL vs. WAS W 31 14 6 13 46.2 2 3 66.7 0 0 - 0 1 1 5 0 0 7 4 -9
p53
aVDeMarre Carroll ATL 05/13/2015 ATL vs. WAS W 36 10 4 11 36.4 1 5 20.0 1 2 50.0 2 8 10 4 2 2 0 1 -5
p54
aVPero Antic ATL 05/13/2015 ATL vs. WAS W 7 4 0 2 0.0 0 1 0.0 4 4 100.0 1 2 3 0 0 0 0 1 7
p55
aVKent Bazemore ATL 05/13/2015 ATL vs. WAS W 14 0 0 3 0.0 0 1 0.0 0 0 - 0 5 5 0 2 2 2 1 9
p56
aVKyle Korver ATL 05/13/2015 ATL vs. WAS W 38 3 1 5 20.0 1 5 20.0 0 0 - 0 5 5 1 6 2 3 4 3
p57
aVAl Horford ATL 05/13/2015 ATL vs. WAS W 37 23 10 18 55.6 1 1 100.0 2 2 100.0 6 5 11 2 0 5 0 1 1
p58
aVDennis Schroder ATL 05/13/2015 ATL vs. WAS W 25 6 3 12 25.0 0 3 0.0 0 0 - 1 4 5 7 1 0 4 2 5
p59
aVMike Muscala ATL 05/13/2015 ATL vs. WAS W 15 8 4 5 80.0 0 0 - 0 0 - 2 1 3 0 0 1 1 1 -9
p60
aVPaul Millsap ATL 05/13/2015 ATL vs. WAS W 37 14 6 14 42.9 0 3 0.0 2 3 66.7 1 6 7 2 0 1 6 2 3
p61
aVPaul Millsap ATL 05/11/2015 ATL @ WAS W 27 19 7 13 53.8 0 1 0.0 5 5 100.0 1 4 5 6 2 0 2 5 0
p62
aVAl Horford ATL 05/11/2015 ATL @ WAS W 40 18 9 18 50.0 0 0 - 0 0 - 2 8 10 3 2 2 3 3 10
p63
aVJeff Teague ATL 05/11/2015 ATL @ WAS W 32 26 9 20 45.0 2 4 50.0 6 7 85.7 3 1 4 8 2 1 1 1 6
p64
aVDennis Schroder ATL 05/11/2015 ATL @ WAS W 29 14 5 13 38.5 2 3 66.7 2 4 50.0 2 2 4 8 0 0 2 1 4
p65
aVKyle Korver ATL 05/11/2015 ATL @ WAS W 36 6 2 4 50.0 2 4 50.0 0 0 - 0 2 2 4 0 2 3 2 7
p66
aVKent Bazemore ATL 05/11/2015 ATL @ WAS W 16 5 1 2 50.0 1 1 100.0 2 2 100.0 0 2 2 0 1 0 0 2 3
p67
aVPero Antic ATL 05/11/2015 ATL @ WAS W 15 7 3 4 75.0 1 2 50.0 0 1 0.0 0 2 2 1 0 0 1 2 7
p68
aVDeMarre Carroll ATL 05/11/2015 ATL @ WAS W 32 5 2 8 25.0 1 3 33.3 0 0 - 1 5 6 0 1 0 1 2 -9
p69
aVMike Muscala ATL 05/11/2015 ATL @ WAS W 14 6 3 5 60.0 0 1 0.0 0 0 - 1 1 2 0 0 0 0 2 -3
p70
aVDeMarre Carroll ATL 05/09/2015 ATL @ WAS L 30 14 5 11 45.5 0 1 0.0 4 4 100.0 2 2 4 0 2 0 1 0 -11
p71
aVKyle Korver ATL 05/09/2015 ATL @ WAS L 37 6 2 5 40.0 2 4 50.0 0 0 - 0 4 4 2 1 0 3 3 0
p72
aVDennis Schroder ATL 05/09/2015 ATL @ WAS L 19 18 6 12 50.0 1 3 33.3 5 5 100.0 0 2 2 5 1 0 0 4 3
p73
aVJohn Jenkins ATL 05/09/2015 ATL @ WAS L 1 0 0 0 - 0 0 - 0 0 - 0 0 0 0 0 0 0 0 5
p74
aVAl Horford ATL 05/09/2015 ATL @ WAS L 28 12 6 13 46.2 0 0 - 0 0 - 2 8 10 4 0 2 1 1 -7
p75
aVJeff Teague ATL 05/09/2015 ATL @ WAS L 33 18 5 15 33.3 0 2 0.0 8 9 88.9 2 2 4 7 3 0 2 4 -9
p76
aVShelvin Mack ATL 05/09/2015 ATL @ WAS L 7 2 1 2 50.0 0 1 0.0 0 0 - 0 0 0 1 1 0 0 1 16
p77
aVPero Antic ATL 05/09/2015 ATL @ WAS L 15 1 0 4 0.0 0 3 0.0 1 2 50.0 0 1 1 0 0 0 0 4 -12
p78
aVMike Muscala ATL 05/09/2015 ATL @ WAS L 13 7 3 4 75.0 1 2 50.0 0 0 - 0 3 3 0 0 0 0 2 10
p79
aVKent Bazemore ATL 05/09/2015 ATL @ WAS L 17 7 3 4 75.0 0 0 - 1 4 25.0 0 4 4 2 0 0 0 1 -16
p80
aVPaul Millsap ATL 05/09/2015 ATL @ WAS L 23 8 2 6 33.3 1 3 33.3 3 5 60.0 1 1 2 2 1 1 3 4 -4
p81
aVMike Scott ATL 05/09/2015 ATL @ WAS L 16 8 3 5 60.0 2 4 50.0 0 0 - 1 3 4 0 1 0 0 2 15
p82
aVDennis Schroder ATL 05/05/2015 ATL vs. WAS W 15 9 2 4 50.0 0 0 - 5 6 83.3 0 5 5 4 0 0 0 2 3
p83
aVJeff Teague ATL 05/05/2015 ATL vs. WAS W 33 9 3 12 25.0 0 3 0.0 3 4 75.0 2 5 7 8 1 0 3 2 13
p84
aVPaul Millsap ATL 05/05/2015 ATL vs. WAS W 38 18 6 16 37.5 1 3 33.3 5 6 83.3 5 6 11 5 4 0 2 1 13
p85
aVMike Muscala ATL 05/05/2015 ATL vs. WAS W 4 0 0 2 0.0 0 1 0.0 0 0 - 0 2 2 0 0 0 0 1 0
p86
aVPero Antic ATL 05/05/2015 ATL vs. WAS W 20 8 2 6 33.3 2 5 40.0 2 2 100.0 0 3 3 0 0 0 0 4 4
p87
aVKent Bazemore ATL 05/05/2015 ATL vs. WAS W 17 10 3 3 100.0 2 2 100.0 2 2 100.0 0 0 0 1 0 1 2 0 2
p88
aVDeMarre Carroll ATL 05/05/2015 ATL vs. WAS W 38 22 9 16 56.3 1 4 25.0 3 3 100.0 2 4 6 4 1 0 1 1 10
p89
aVAl Horford ATL 05/05/2015 ATL vs. WAS W 34 18 8 15 53.3 0 0 - 2 2 100.0 2 2 4 6 3 2 1 2 15
p90
aVKyle Korver ATL 05/05/2015 ATL vs. WAS W 40 12 4 11 36.4 4 11 36.4 0 0 - 0 6 6 2 1 3 1 3 20
p91
aVShelvin Mack ATL 05/03/2015 ATL vs. WAS L 2 0 0 0 - 0 0 - 0 0 - 0 0 0 0 0 0 1 0 -2
p92
aVDeMarre Carroll ATL 05/03/2015 ATL vs. WAS L 38 24 8 13 61.5 5 9 55.6 3 5 60.0 1 2 3 0 0 0 1 1 2
p93
aVDennis Schroder ATL 05/03/2015 ATL vs. WAS L 14 9 4 7 57.1 1 2 50.0 0 0 - 1 2 3 4 0 0 1 1 1
p94
aVPero Antic ATL 05/03/2015 ATL vs. WAS L 19 5 1 5 20.0 1 3 33.3 2 2 100.0 0 5 5 0 0 1 0 3 -15
p95
aVPaul Millsap ATL 05/03/2015 ATL vs. WAS L 39 15 6 17 35.3 1 4 25.0 2 3 66.7 4 8 12 8 2 2 4 3 -3
p96
aVKent Bazemore ATL 05/03/2015 ATL vs. WAS L 18 2 1 3 33.3 0 2 0.0 0 0 - 0 0 0 1 0 1 0 3 -10
p97
aVMike Scott ATL 05/03/2015 ATL vs. WAS L 7 2 1 5 20.0 0 1 0.0 0 0 - 1 3 4 0 0 0 0 0 -1
p98
aVKyle Korver ATL 05/03/2015 ATL vs. WAS L 38 13 5 15 33.3 3 11 27.3 0 0 - 1 4 5 0 0 1 0 2 -2
p99
aVAl Horford ATL 05/03/2015 ATL vs. WAS L 30 17 7 19 36.8 1 3 33.3 2 2 100.0 8 9 17 7 1 1 3 5 7
p100
aVJeff Teague ATL 05/03/2015 ATL vs. WAS L 34 11 4 14 28.6 1 3 33.3 2 2 100.0 0 3 3 7 0 0 1 0 -7
p101
aVDeMarre Carroll ATL 05/01/2015 ATL @ BKN W 24 20 7 8 87.5 3 4 75.0 3 3 100.0 1 4 5 1 0 0 1 5 16
p102
aVAl Horford ATL 05/01/2015 ATL @ BKN W 31 18 8 14 57.1 0 1 0.0 2 2 100.0 0 7 7 3 1 0 1 0 24
p103
aVMike Scott ATL 05/01/2015 ATL @ BKN W 17 2 1 3 33.3 0 1 0.0 0 0 - 2 5 7 0 0 0 0 3 -3
p104
aVShelvin Mack ATL 05/01/2015 ATL @ BKN W 13 3 1 5 20.0 1 3 33.3 0 0 - 1 0 1 2 1 0 0 0 -13
p105
aVJeff Teague ATL 05/01/2015 ATL @ BKN W 24 0 0 5 0.0 0 1 0.0 0 0 - 0 1 1 13 2 1 1 2 27
p106
aVPero Antic ATL 05/01/2015 ATL @ BKN W 10 0 0 0 - 0 0 - 0 0 - 0 1 1 0 0 0 0 5 3
p107
aVJohn Jenkins ATL 05/01/2015 ATL @ BKN W 4 0 0 1 0.0 0 1 0.0 0 0 - 0 0 0 0 0 0 0 0 2
p108
aVKent Bazemore ATL 05/01/2015 ATL @ BKN W 24 7 3 7 42.9 1 3 33.3 0 0 - 1 1 2 1 1 0 1 3 18
p109
aVDennis Schroder ATL 05/01/2015 ATL @ BKN W 21 12 6 13 46.2 0 3 0.0 0 0 - 0 1 1 4 0 0 2 0 -6
p110
aVMike Muscala ATL 05/01/2015 ATL @ BKN W 6 4 2 3 66.7 0 1 0.0 0 0 - 1 1 2 0 1 1 2 1 -3
p111
aVPaul Millsap ATL 05/01/2015 ATL @ BKN W 31 25 9 15 60.0 2 4 50.0 5 8 62.5 0 9 9 6 2 0 2 1 29
p112
aVKyle Korver ATL 05/01/2015 ATL @ BKN W 32 20 6 10 60.0 6 10 60.0 2 2 100.0 0 8 8 4 3 1 1 0 24
p113
aVElton Brand ATL 05/01/2015 ATL @ BKN W 4 0 0 1 0.0 0 0 - 0 0 - 0 1 1 0 0 0 0 1 2
p114
aVDeMarre Carroll ATL 04/29/2015 ATL vs. BKN W 42 24 8 15 53.3 2 5 40.0 6 8 75.0 0 7 7 3 2 0 0 0 13
p115
aVJeff Teague ATL 04/29/2015 ATL vs. BKN W 37 20 7 14 50.0 3 6 50.0 3 4 75.0 0 3 3 8 3 0 2 1 12
p116
aVAl Horford ATL 04/29/2015 ATL vs. BKN W 35 20 10 17 58.8 0 0 - 0 0 - 5 10 15 5 2 2 3 4 10
p117
aVMike Scott ATL 04/29/2015 ATL vs. BKN W 2 0 0 0 - 0 0 - 0 0 - 0 0 0 0 0 0 0 0 -9
p118
aVPero Antic ATL 04/29/2015 ATL vs. BKN W 18 8 2 3 66.7 2 3 66.7 2 2 100.0 0 4 4 1 0 1 0 1 7
p119
aVShelvin Mack ATL 04/29/2015 ATL vs. BKN W 0 0 0 0 - 0 0 - 0 0 - 0 0 0 0 0 0 0 0 -3
p120
aVDennis Schroder ATL 04/29/2015 ATL vs. BKN W 11 6 2 4 50.0 0 1 0.0 2 2 100.0 0 1 1 3 0 0 3 2 -2
p121
aVKyle Korver ATL 04/29/2015 ATL vs. BKN W 40 17 6 14 42.9 5 12 41.7 0 0 - 0 5 5 2 1 1 1 1 13
p122
aVKent Bazemore ATL 04/29/2015 ATL vs. BKN W 13 2 1 5 20.0 0 2 0.0 0 0 - 1 1 2 0 0 0 0 0 -5
p123
aVPaul Millsap ATL 04/29/2015 ATL vs. BKN W 41 10 4 11 36.4 1 4 25.0 1 4 25.0 2 4 6 3 1 0 2 2 14
p124
aVMike Scott ATL 04/27/2015 ATL @ BKN L 11 8 3 6 50.0 1 2 50.0 1 1 100.0 3 1 4 0 0 0 0 1 5
p125
aVJeff Teague ATL 04/27/2015 ATL @ BKN L 39 20 7 16 43.8 1 4 25.0 5 8 62.5 0 4 4 11 2 0 5 1 10
p126
aVKent Bazemore ATL 04/27/2015 ATL @ BKN L 17 2 1 2 50.0 0 1 0.0 0 0 - 1 3 4 0 0 2 0 1 -12
p127
aVDeMarre Carroll ATL 04/27/2015 ATL @ BKN L 44 20 8 15 53.3 4 5 80.0 0 0 - 7 2 9 5 1 0 1 3 2
p128
aVPero Antic ATL 04/27/2015 ATL @ BKN L 17 6 2 4 50.0 2 3 66.7 0 0 - 1 3 4 0 0 1 2 1 -12
p129
aVAl Horford ATL 04/27/2015 ATL @ BKN L 31 17 8 13 61.5 0 0 - 1 2 50.0 3 4 7 1 1 0 2 5 -5
p130
aVDennis Schroder ATL 04/27/2015 ATL @ BKN L 14 10 4 9 44.4 0 1 0.0 2 2 100.0 0 0 0 3 0 0 4 1 -15
p131
aVPaul Millsap ATL 04/27/2015 ATL @ BKN L 47 16 7 14 50.0 1 4 25.0 1 2 50.0 3 9 12 4 3 3 1 5 2
p132
aVKyle Korver ATL 04/27/2015 ATL @ BKN L 45 16 6 16 37.5 4 13 30.8 0 0 - 0 11 11 3 0 0 1 1 0
p133
aVKent Bazemore ATL 04/25/2015 ATL @ BKN L 19 6 2 5 40.0 0 3 0.0 2 2 100.0 0 5 5 1 0 0 2 1 -6
p134
aVShelvin Mack ATL 04/25/2015 ATL @ BKN L 0 0 0 0 - 0 0 - 0 0 - 0 0 0 0 0 0 0 0 -2
p135
aVAl Horford ATL 04/25/2015 ATL @ BKN L 31 7 3 12 25.0 0 1 0.0 1 2 50.0 2 6 8 5 1 2 2 3 -14
p136
aVMike Scott ATL 04/25/2015 ATL @ BKN L 12 6 3 6 50.0 0 3 0.0 0 0 - 1 4 5 0 0 0 0 0 -1
p137
aVJeff Teague ATL 04/25/2015 ATL @ BKN L 30 12 4 13 30.8 0 3 0.0 4 5 80.0 2 1 3 6 3 0 4 3 5
p138
aVKyle Korver ATL 04/25/2015 ATL @ BKN L 38 2 1 8 12.5 0 5 0.0 0 0 - 0 2 2 5 0 2 0 4 -17
p139
aVPaul Millsap ATL 04/25/2015 ATL @ BKN L 35 18 7 18 38.9 2 4 50.0 2 2 100.0 6 11 17 3 5 1 1 3 -1
p140
aVDennis Schroder ATL 04/25/2015 ATL @ BKN L 23 3 1 9 11.1 0 2 0.0 1 2 50.0 0 1 1 2 0 0 2 0 -13
p141
aVPero Antic ATL 04/25/2015 ATL @ BKN L 19 7 2 7 28.6 1 4 25.0 2 2 100.0 1 3 4 0 1 0 0 2 0
p142
aVDeMarre Carroll ATL 04/25/2015 ATL @ BKN L 33 22 9 12 75.0 3 5 60.0 1 2 50.0 2 4 6 0 1 0 4 5 9
p143
aVAl Horford ATL 04/22/2015 ATL vs. BKN W 36 14 6 15 40.0 0 0 - 2 2 100.0 3 10 13 7 1 2 2 2 1
p144
aVShelvin Mack ATL 04/22/2015 ATL vs. BKN W 7 2 1 2 50.0 0 0 - 0 0 - 0 1 1 0 1 0 0 2 -10
p145
aVPero Antic ATL 04/22/2015 ATL vs. BKN W 13 8 2 6 33.3 1 2 50.0 3 5 60.0 2 0 2 0 0 0 0 3 4
p146
aVDennis Schroder ATL 04/22/2015 ATL vs. BKN W 19 12 5 11 45.5 1 2 50.0 1 1 100.0 0 0 0 6 2 0 1 2 0
p147
aVDeMarre Carroll ATL 04/22/2015 ATL vs. BKN W 34 2 1 8 12.5 0 5 0.0 0 0 - 0 8 8 5 1 1 1 2 15
p148
aVPaul Millsap ATL 04/22/2015 ATL vs. BKN W 34 19 7 11 63.6 4 4 100.0 1 2 50.0 2 5 7 2 0 2 1 2 17
p149
aVJeff Teague ATL 04/22/2015 ATL vs. BKN W 31 16 6 16 37.5 2 5 40.0 2 2 100.0 0 3 3 6 1 0 3 1 -2
p150
aVMike Scott ATL 04/22/2015 ATL vs. BKN W 12 3 1 7 14.3 1 3 33.3 0 0 - 1 0 1 0 0 0 0 0 -10
p151
aVKyle Korver ATL 04/22/2015 ATL vs. BKN W 36 17 5 9 55.6 3 7 42.9 4 5 80.0 0 3 3 1 4 1 0 0 2
p152
aVKent Bazemore ATL 04/22/2015 ATL vs. BKN W 17 3 1 5 20.0 0 3 0.0 1 2 50.0 0 3 3 0 1 1 0 3 10
p153
aVElton Brand ATL 04/22/2015 ATL vs. BKN W 0 0 0 0 - 0 0 - 0 0 - 0 0 0 0 0 0 0 1 -2
p154
aVPero Antic ATL 04/19/2015 ATL vs. BKN W 19 8 2 4 50.0 1 3 33.3 3 3 100.0 1 2 3 1 0 0 0 4 10
p155
aVDennis Schroder ATL 04/19/2015 ATL vs. BKN W 24 13 5 9 55.6 1 3 33.3 2 2 100.0 0 0 0 2 1 0 4 2 -6
p156
aVJeff Teague ATL 04/19/2015 ATL vs. BKN W 29 17 6 12 50.0 1 2 50.0 4 4 100.0 0 0 0 3 1 0 4 4 2
p157
aVShelvin Mack ATL 04/19/2015 ATL vs. BKN W 4 2 1 2 50.0 0 1 0.0 0 0 - 0 0 0 2 2 0 0 0 8
p158
aVKent Bazemore ATL 04/19/2015 ATL vs. BKN W 16 0 0 2 0.0 0 1 0.0 0 0 - 0 3 3 1 1 0 0 2 -3
p159
aVMike Scott ATL 04/19/2015 ATL vs. BKN W 11 5 2 3 66.7 0 0 - 1 1 100.0 1 0 1 0 2 0 2 1 -7
p160
aVPaul Millsap ATL 04/19/2015 ATL vs. BKN W 33 6 2 11 18.2 0 1 0.0 2 2 100.0 0 7 7 2 2 1 0 4 -2
p161
aVAl Horford ATL 04/19/2015 ATL vs. BKN W 34 10 5 12 41.7 0 2 0.0 0 0 - 2 8 10 2 0 1 2 1 13
p162
aVKyle Korver ATL 04/19/2015 ATL vs. BKN W 37 21 6 12 50.0 5 11 45.5 4 5 80.0 0 7 7 3 2 1 2 0 13
p163
aVDeMarre Carroll ATL 04/19/2015 ATL vs. BKN W 33 17 5 12 41.7 2 6 33.3 5 5 100.0 2 6 8 3 0 0 0 3 7
p164
a.