(lp0
VPLAYER TEAM DATE MATCHUP W/L MIN PTS FGM FGA FG% 3PM 3PA 3P% FTM FTA FT% OREB DREB REB AST STL BLK TOV PF +/-
p1
aVPJ Hairston MEM 04/13/2016 MEM @ GSW L 17 5 2 8 25.0 1 5 20.0 0 0 - 0 3 3 0 1 0 0 0 -7
p2
aVJordan Farmar MEM 04/13/2016 MEM @ GSW L 21 9 4 9 44.4 1 4 25.0 0 0 - 0 2 2 4 2 0 1 3 -4
p3
aVVince Carter MEM 04/13/2016 MEM @ GSW L 23 9 3 8 37.5 3 3 100.0 0 0 - 0 2 2 1 0 0 0 1 -10
p4
aVXavier Munford MEM 04/13/2016 MEM @ GSW L 26 4 2 10 20.0 0 2 0.0 0 1 0.0 0 2 2 4 2 1 0 3 -16
p5
aVChris Andersen MEM 04/13/2016 MEM @ GSW L 8 0 0 0 - 0 0 - 0 0 - 0 1 1 0 0 0 0 0 -2
p6
aVBryce Cotton MEM 04/13/2016 MEM @ GSW L 2 2 1 1 100.0 0 0 - 0 0 - 0 0 0 0 0 0 0 0 -1
p7
aVZach Randolph MEM 04/13/2016 MEM @ GSW L 26 24 11 21 52.4 0 2 0.0 2 2 100.0 5 1 6 4 2 0 4 1 -13
p8
aVJaMychal Green MEM 04/13/2016 MEM @ GSW L 26 12 5 8 62.5 0 0 - 2 3 66.7 4 4 8 2 0 0 2 2 -13
p9
aVJarell Martin MEM 04/13/2016 MEM @ GSW L 24 11 4 8 50.0 0 0 - 3 4 75.0 2 3 5 0 1 0 3 4 -6
p10
aVLance Stephenson MEM 04/13/2016 MEM @ GSW L 35 22 8 14 57.1 3 3 100.0 3 3 100.0 0 2 2 4 2 0 1 2 -18
p11
aVMatt Barnes MEM 04/13/2016 MEM @ GSW L 32 6 2 11 18.2 0 5 0.0 2 3 66.7 2 7 9 6 2 0 2 2 -15
p12
aVJordan Farmar MEM 04/12/2016 MEM @ LAC L 26 4 2 7 28.6 0 2 0.0 0 0 - 2 3 5 2 1 0 2 1 -15
p13
aVJaMychal Green MEM 04/12/2016 MEM @ LAC L 26 8 4 9 44.4 0 0 - 0 0 - 6 4 10 2 0 1 1 1 -7
p14
aVLance Stephenson MEM 04/12/2016 MEM @ LAC L 22 11 4 11 36.4 2 2 100.0 1 2 50.0 1 2 3 3 0 0 1 2 -11
p15
aVZach Randolph MEM 04/12/2016 MEM @ LAC L 25 14 7 15 46.7 0 1 0.0 0 1 0.0 1 3 4 2 1 0 1 2 -20
p16
aVBryce Cotton MEM 04/12/2016 MEM @ LAC L 3 0 0 0 - 0 0 - 0 0 - 0 0 0 0 0 0 0 0 -7
p17
aVMatt Barnes MEM 04/12/2016 MEM @ LAC L 26 7 3 8 37.5 0 4 0.0 1 3 33.3 0 1 1 0 0 0 3 2 -12
p18
aVPJ Hairston MEM 04/12/2016 MEM @ LAC L 24 6 2 7 28.6 2 5 40.0 0 0 - 0 3 3 0 0 0 2 0 -14
p19
aVVince Carter MEM 04/12/2016 MEM @ LAC L 15 3 1 7 14.3 1 1 100.0 0 0 - 0 1 1 1 1 0 1 1 -9
p20
aVXavier Munford MEM 04/12/2016 MEM @ LAC L 32 11 5 11 45.5 0 3 0.0 1 1 100.0 0 3 3 4 0 0 4 4 -17
p21
aVJarell Martin MEM 04/12/2016 MEM @ LAC L 20 12 3 4 75.0 0 0 - 6 7 85.7 1 2 3 2 0 0 0 5 -7
p22
aVChris Andersen MEM 04/12/2016 MEM @ LAC L 21 8 4 7 57.1 0 2 0.0 0 0 - 2 3 5 0 2 0 1 0 -11
p23
aVLance Stephenson MEM 04/09/2016 MEM vs. GSW L 38 13 6 13 46.2 1 2 50.0 0 0 - 1 1 2 0 1 0 2 1 0
p24
aVJarell Martin MEM 04/09/2016 MEM vs. GSW L 13 4 2 4 50.0 0 0 - 0 0 - 1 0 1 0 0 1 0 3 -2
p25
aVXavier Munford MEM 04/09/2016 MEM vs. GSW L 30 8 3 10 30.0 1 3 33.3 1 2 50.0 1 6 7 4 3 1 0 2 2
p26
aVPJ Hairston MEM 04/09/2016 MEM vs. GSW L 16 7 2 5 40.0 0 2 0.0 3 3 100.0 0 4 4 1 0 0 0 1 15
p27
aVJaMychal Green MEM 04/09/2016 MEM vs. GSW L 14 7 1 8 12.5 0 0 - 5 6 83.3 2 2 4 2 1 0 2 1 14
p28
aVMatt Barnes MEM 04/09/2016 MEM vs. GSW L 40 24 8 17 47.1 3 8 37.5 5 5 100.0 3 12 15 4 0 0 1 3 -3
p29
aVZach Randolph MEM 04/09/2016 MEM vs. GSW L 27 12 6 19 31.6 0 1 0.0 0 0 - 3 4 7 1 0 1 1 2 -20
p30
aVJordan Farmar MEM 04/09/2016 MEM vs. GSW L 19 3 1 4 25.0 1 3 33.3 0 0 - 1 2 3 2 1 1 0 1 -4
p31
aVVince Carter MEM 04/09/2016 MEM vs. GSW L 31 15 6 12 50.0 1 2 50.0 2 2 100.0 3 4 7 4 0 0 0 2 -15
p32
aVChris Andersen MEM 04/09/2016 MEM vs. GSW L 14 6 2 4 50.0 0 0 - 2 2 100.0 2 2 4 1 2 0 0 0 8
p33
aVMatt Barnes MEM 04/08/2016 MEM @ DAL L 38 11 3 11 27.3 3 8 37.5 2 2 100.0 0 7 7 5 2 0 2 4 -8
p34
aVZach Randolph MEM 04/08/2016 MEM @ DAL L 32 13 6 20 30.0 0 1 0.0 1 1 100.0 3 3 6 2 0 0 3 4 -7
p35
aVJarell Martin MEM 04/08/2016 MEM @ DAL L 11 4 2 3 66.7 0 0 - 0 2 0.0 2 1 3 0 0 0 1 3 -6
p36
aVChris Andersen MEM 04/08/2016 MEM @ DAL L 21 3 1 3 33.3 0 1 0.0 1 2 50.0 3 4 7 1 1 0 0 2 9
p37
aVTony Allen MEM 04/08/2016 MEM @ DAL L 37 25 8 14 57.1 0 0 - 9 9 100.0 5 2 7 1 3 1 2 4 5
p38
aVJaMychal Green MEM 04/08/2016 MEM @ DAL L 14 7 3 8 37.5 0 1 0.0 1 2 50.0 1 2 3 0 1 0 0 4 -7
p39
aVVince Carter MEM 04/08/2016 MEM @ DAL L 17 6 2 4 50.0 1 2 50.0 1 2 50.0 0 1 1 0 0 0 0 1 -22
p40
aVXavier Munford MEM 04/08/2016 MEM @ DAL L 15 1 0 2 0.0 0 2 0.0 1 2 50.0 0 0 0 1 1 0 1 3 -3
p41
aVLance Stephenson MEM 04/08/2016 MEM @ DAL L 25 10 5 10 50.0 0 1 0.0 0 0 - 1 5 6 5 0 0 2 4 -4
p42
aVPJ Hairston MEM 04/08/2016 MEM @ DAL L 6 2 1 3 33.3 0 2 0.0 0 0 - 0 0 0 0 1 0 0 1 5
p43
aVBryce Cotton MEM 04/08/2016 MEM @ DAL L 0 0 0 0 - 0 0 - 0 0 - 0 0 0 0 0 0 0 0 0
p44
aVJordan Farmar MEM 04/08/2016 MEM @ DAL L 26 11 4 9 44.4 3 4 75.0 0 0 - 0 2 2 2 0 0 4 3 -12
p45
aVChris Andersen MEM 04/05/2016 MEM vs. CHI W 22 4 1 1 100.0 0 0 - 2 2 100.0 0 1 1 1 1 0 0 2 12
p46
aVRyan Hollins MEM 04/05/2016 MEM vs. CHI W 0 0 0 0 - 0 0 - 0 0 - 0 0 0 0 0 0 0 0 -2
p47
aVJaMychal Green MEM 04/05/2016 MEM vs. CHI W 24 8 2 10 20.0 0 1 0.0 4 4 100.0 3 2 5 1 3 0 1 3 7
p48
aVJarell Martin MEM 04/05/2016 MEM vs. CHI W 14 7 3 3 100.0 0 0 - 1 1 100.0 0 0 0 1 0 0 0 2 6
p49
aVVince Carter MEM 04/05/2016 MEM vs. CHI W 25 17 7 15 46.7 2 4 50.0 1 1 100.0 2 3 5 4 2 1 1 1 23
p50
aVMatt Barnes MEM 04/05/2016 MEM vs. CHI W 41 16 4 10 40.0 2 7 28.6 6 6 100.0 0 7 7 2 0 0 1 2 8
p51
aVTony Allen MEM 04/05/2016 MEM vs. CHI W 30 6 3 10 30.0 0 0 - 0 2 0.0 1 8 9 1 4 0 2 2 7
p52
aVXavier Munford MEM 04/05/2016 MEM vs. CHI W 18 8 3 7 42.9 2 2 100.0 0 0 - 0 3 3 0 0 0 2 1 4
p53
aVJordan Farmar MEM 04/05/2016 MEM vs. CHI W 31 15 6 12 50.0 1 4 25.0 2 2 100.0 1 1 2 4 1 0 2 0 10
p54
aVZach Randolph MEM 04/05/2016 MEM vs. CHI W 35 27 10 19 52.6 0 1 0.0 7 8 87.5 5 5 10 4 2 0 2 2 7
p55
aVBryce Cotton MEM 04/05/2016 MEM vs. CHI W 0 0 0 0 - 0 0 - 0 0 - 0 0 0 0 0 0 0 0 -2
p56
aVBryce Cotton MEM 04/03/2016 MEM @ ORL L 1 2 1 1 100.0 0 0 - 0 0 - 0 0 0 0 0 0 0 0 0
p57
aVJarell Martin MEM 04/03/2016 MEM @ ORL L 16 7 1 3 33.3 0 0 - 5 6 83.3 2 4 6 1 0 0 1 2 11
p58
aVVince Carter MEM 04/03/2016 MEM @ ORL L 24 13 6 9 66.7 1 2 50.0 0 1 0.0 0 3 3 2 1 0 1 1 -6
p59
aVJordan Farmar MEM 04/03/2016 MEM @ ORL L 14 2 1 5 20.0 0 3 0.0 0 0 - 0 0 0 3 1 0 2 1 -7
p60
aVZach Randolph MEM 04/03/2016 MEM @ ORL L 32 15 5 15 33.3 1 2 50.0 4 6 66.7 2 5 7 7 0 0 1 3 -1
p61
aVXavier Munford MEM 04/03/2016 MEM @ ORL L 34 10 4 8 50.0 1 1 100.0 1 2 50.0 0 2 2 1 2 0 3 3 -5
p62
aVMatt Barnes MEM 04/03/2016 MEM @ ORL L 36 24 8 17 47.1 5 10 50.0 3 3 100.0 0 6 6 1 0 1 4 4 -13
p63
aVTony Allen MEM 04/03/2016 MEM @ ORL L 14 10 5 8 62.5 0 2 0.0 0 0 - 3 2 5 1 0 0 1 0 -8
p64
aVRyan Hollins MEM 04/03/2016 MEM @ ORL L 1 0 0 0 - 0 0 - 0 0 - 0 0 0 0 0 1 0 0 0
p65
aVLance Stephenson MEM 04/03/2016 MEM @ ORL L 23 11 4 11 36.4 0 0 - 3 4 75.0 0 4 4 3 0 1 1 1 -4
p66
aVJaMychal Green MEM 04/03/2016 MEM @ ORL L 30 11 5 9 55.6 0 0 - 1 4 25.0 3 7 10 3 0 1 0 4 -2
p67
aVChris Andersen MEM 04/03/2016 MEM @ ORL L 16 2 1 3 33.3 0 1 0.0 0 0 - 2 1 3 0 0 0 0 2 -25
p68
aVJarell Martin MEM 04/01/2016 MEM vs. TOR L 18 8 1 1 100.0 0 0 - 6 8 75.0 1 3 4 0 2 1 0 3 17
p69
aVMatt Barnes MEM 04/01/2016 MEM vs. TOR L 27 2 1 7 14.3 0 2 0.0 0 0 - 1 3 4 1 0 0 1 4 -18
p70
aVChris Andersen MEM 04/01/2016 MEM vs. TOR L 20 3 1 4 25.0 1 1 100.0 0 0 - 3 2 5 0 1 1 1 3 -11
p71
aVVince Carter MEM 04/01/2016 MEM vs. TOR L 19 10 4 10 40.0 2 6 33.3 0 1 0.0 4 2 6 1 1 0 0 4 14
p72
aVXavier Munford MEM 04/01/2016 MEM vs. TOR L 22 12 5 7 71.4 2 3 66.7 0 0 - 0 2 2 3 1 0 2 0 7
p73
aVZach Randolph MEM 04/01/2016 MEM vs. TOR L 29 16 6 18 33.3 0 1 0.0 4 4 100.0 2 2 4 3 1 0 2 4 -19
p74
aVLance Stephenson MEM 04/01/2016 MEM vs. TOR L 29 12 5 15 33.3 0 1 0.0 2 2 100.0 0 3 3 4 0 1 2 1 10
p75
aVJaMychal Green MEM 04/01/2016 MEM vs. TOR L 28 10 5 9 55.6 0 0 - 0 0 - 3 4 7 0 2 2 2 0 7
p76
aVTony Allen MEM 04/01/2016 MEM vs. TOR L 22 10 5 10 50.0 0 0 - 0 0 - 4 1 5 2 3 1 3 4 -16
p77
aVJordan Farmar MEM 04/01/2016 MEM vs. TOR L 26 12 4 10 40.0 2 5 40.0 2 2 100.0 0 2 2 2 2 1 1 2 -11
p78
aVRay McCallum MEM 03/30/2016 MEM vs. DEN L 7 1 0 2 0.0 0 1 0.0 1 2 50.0 0 1 1 2 0 0 0 0 -1
p79
aVJaMychal Green MEM 03/30/2016 MEM vs. DEN L 26 13 6 16 37.5 0 0 - 1 2 50.0 9 3 12 3 0 1 2 2 7
p80
aVJarell Martin MEM 03/30/2016 MEM vs. DEN L 3 2 1 1 100.0 0 0 - 0 0 - 0 0 0 0 0 0 0 0 -4
p81
aVRyan Hollins MEM 03/30/2016 MEM vs. DEN L 5 2 1 1 100.0 0 0 - 0 0 - 0 2 2 0 0 0 0 0 3
p82
aVXavier Munford MEM 03/30/2016 MEM vs. DEN L 12 9 4 8 50.0 1 2 50.0 0 1 0.0 0 3 3 1 0 0 1 2 -1
p83
aVChris Andersen MEM 03/30/2016 MEM vs. DEN L 17 4 2 4 50.0 0 0 - 0 0 - 1 5 6 0 0 2 0 1 -15
p84
aVMatt Barnes MEM 03/30/2016 MEM vs. DEN L 40 6 2 12 16.7 1 8 12.5 1 2 50.0 4 7 11 3 2 0 1 2 -5
p85
aVVince Carter MEM 03/30/2016 MEM vs. DEN L 23 9 2 4 50.0 1 2 50.0 4 5 80.0 0 1 1 0 0 0 0 5 4
p86
aVTony Allen MEM 03/30/2016 MEM vs. DEN L 22 7 3 7 42.9 0 0 - 1 2 50.0 1 0 1 1 1 0 1 3 -19
p87
aVLance Stephenson MEM 03/30/2016 MEM vs. DEN L 26 12 4 10 40.0 0 1 0.0 4 7 57.1 2 1 3 1 0 1 1 2 12
p88
aVJordan Farmar MEM 03/30/2016 MEM vs. DEN L 25 14 6 10 60.0 2 4 50.0 0 0 - 0 0 0 5 1 0 1 2 -5
p89
aVZach Randolph MEM 03/30/2016 MEM vs. DEN L 34 26 10 20 50.0 1 1 100.0 5 6 83.3 3 3 6 2 1 0 3 0 4
p90
aVVince Carter MEM 03/28/2016 MEM vs. SAS L 21 14 3 9 33.3 2 3 66.7 6 7 85.7 0 3 3 1 0 0 0 1 3
p91
aVJarell Martin MEM 03/28/2016 MEM vs. SAS L 20 7 3 6 50.0 0 0 - 1 2 50.0 1 4 5 0 0 1 1 3 4
p92
aVJaMychal Green MEM 03/28/2016 MEM vs. SAS L 27 12 5 9 55.6 1 2 50.0 1 2 50.0 0 5 5 3 1 0 0 5 -19
p93
aVLance Stephenson MEM 03/28/2016 MEM vs. SAS L 21 4 2 8 25.0 0 1 0.0 0 0 - 3 1 4 3 0 0 6 1 -17
p94
aVMatt Barnes MEM 03/28/2016 MEM vs. SAS L 30 11 4 9 44.4 1 3 33.3 2 2 100.0 4 5 9 3 2 0 4 3 -16
p95
aVRyan Hollins MEM 03/28/2016 MEM vs. SAS L 20 6 2 2 100.0 0 0 - 2 6 33.3 2 1 3 1 1 1 1 2 -10
p96
aVXavier Munford MEM 03/28/2016 MEM vs. SAS L 6 5 2 4 50.0 1 1 100.0 0 1 0.0 0 1 1 0 0 1 0 1 3
p97
aVJordan Farmar MEM 03/28/2016 MEM vs. SAS L 26 9 4 10 40.0 1 4 25.0 0 0 - 0 3 3 2 0 0 0 3 -14
p98
aVTony Allen MEM 03/28/2016 MEM vs. SAS L 17 4 2 8 25.0 0 2 0.0 0 0 - 0 0 0 1 2 0 2 0 -7
p99
aVChris Andersen MEM 03/28/2016 MEM vs. SAS L 24 5 1 5 20.0 0 1 0.0 3 4 75.0 3 2 5 1 2 1 0 2 -4
p100
aVRay McCallum MEM 03/28/2016 MEM vs. SAS L 27 10 5 13 38.5 0 2 0.0 0 0 - 0 1 1 4 0 0 0 1 7
p101
aVRyan Hollins MEM 03/25/2016 MEM @ SAS L 12 0 0 0 - 0 0 - 0 0 - 1 0 1 0 1 0 0 4 -1
p102
aVJarell Martin MEM 03/25/2016 MEM @ SAS L 16 3 1 1 100.0 0 0 - 1 2 50.0 1 1 2 2 0 0 0 1 -3
p103
aVJaMychal Green MEM 03/25/2016 MEM @ SAS L 25 20 10 18 55.6 0 1 0.0 0 0 - 0 2 2 3 0 2 1 2 -2
p104
aVVince Carter MEM 03/25/2016 MEM @ SAS L 13 10 4 6 66.7 0 2 0.0 2 2 100.0 0 1 1 1 0 0 2 1 -10
p105
aVRay McCallum MEM 03/25/2016 MEM @ SAS L 21 7 3 10 30.0 1 3 33.3 0 0 - 0 4 4 1 1 0 1 0 0
p106
aVMatt Barnes MEM 03/25/2016 MEM @ SAS L 35 14 5 10 50.0 2 5 40.0 2 2 100.0 2 4 6 3 1 1 4 4 3
p107
aVChris Andersen MEM 03/25/2016 MEM @ SAS L 37 13 6 10 60.0 1 2 50.0 0 0 - 3 4 7 2 1 0 0 1 -4
p108
aVTony Allen MEM 03/25/2016 MEM @ SAS L 24 9 3 6 50.0 1 1 100.0 2 4 50.0 1 1 2 1 1 1 0 0 -5
p109
aVXavier Munford MEM 03/25/2016 MEM @ SAS L 7 0 0 0 - 0 0 - 0 0 - 0 3 3 2 0 0 0 0 -2
p110
aVJordan Farmar MEM 03/25/2016 MEM @ SAS L 23 11 4 7 57.1 1 2 50.0 2 2 100.0 0 2 2 5 3 0 2 2 -6
p111
aVLance Stephenson MEM 03/25/2016 MEM @ SAS L 28 17 8 15 53.3 1 2 50.0 0 1 0.0 0 1 1 3 3 0 0 4 0
p112
aVZach Randolph MEM 03/22/2016 MEM @ LAL L 38 16 7 17 41.2 0 0 - 2 4 50.0 3 3 6 5 3 1 2 4 -4
p113
aVXavier Munford MEM 03/22/2016 MEM @ LAL L 3 0 0 0 - 0 0 - 0 0 - 0 0 0 0 1 0 1 1 4
p114
aVJarell Martin MEM 03/22/2016 MEM @ LAL L 12 6 2 3 66.7 0 0 - 2 3 66.7 1 1 2 0 2 0 2 3 5
p115
aVVince Carter MEM 03/22/2016 MEM @ LAL L 14 4 1 5 20.0 1 2 50.0 1 2 50.0 4 3 7 0 1 0 1 1 2
p116
aVTony Allen MEM 03/22/2016 MEM @ LAL L 31 27 12 12 100.0 0 0 - 3 5 60.0 0 4 4 5 1 0 5 4 -7
p117
aVRay McCallum MEM 03/22/2016 MEM @ LAL L 17 0 0 2 0.0 0 2 0.0 0 0 - 0 0 0 3 0 0 1 2 -5
p118
aVRyan Hollins MEM 03/22/2016 MEM @ LAL L 4 0 0 0 - 0 0 - 0 0 - 0 2 2 0 0 0 1 1 -2
p119
aVJaMychal Green MEM 03/22/2016 MEM @ LAL L 20 6 3 5 60.0 0 1 0.0 0 0 - 2 0 2 2 1 0 0 5 -2
p120
aVChris Andersen MEM 03/22/2016 MEM @ LAL L 16 8 4 5 80.0 0 0 - 0 0 - 1 2 3 0 0 0 0 0 -4
p121
aVJordan Farmar MEM 03/22/2016 MEM @ LAL L 31 8 2 9 22.2 2 6 33.3 2 2 100.0 0 1 1 5 2 0 3 2 -2
p122
aVLance Stephenson MEM 03/22/2016 MEM @ LAL L 21 16 5 12 41.7 1 1 100.0 5 5 100.0 2 4 6 0 2 0 2 1 -7
p123
aVMatt Barnes MEM 03/22/2016 MEM @ LAL L 32 9 4 10 40.0 0 3 0.0 1 2 50.0 0 0 0 3 0 1 2 2 -13
p124
aVLance Stephenson MEM 03/21/2016 MEM @ PHX W 22 16 6 8 75.0 0 1 0.0 4 4 100.0 1 1 2 0 0 0 4 2 5
p125
aVJarell Martin MEM 03/21/2016 MEM @ PHX W 5 2 0 1 0.0 0 0 - 2 2 100.0 0 0 0 0 0 0 0 1 -10
p126
aVJordan Farmar MEM 03/21/2016 MEM @ PHX W 23 12 4 8 50.0 2 4 50.0 2 2 100.0 0 3 3 1 1 0 0 2 6
p127
aVRay McCallum MEM 03/21/2016 MEM @ PHX W 25 9 3 10 30.0 1 3 33.3 2 3 66.7 0 1 1 7 2 0 1 4 0
p128
aVVince Carter MEM 03/21/2016 MEM @ PHX W 22 8 3 8 37.5 2 6 33.3 0 0 - 0 2 2 1 1 0 0 5 -6
p129
aVRyan Hollins MEM 03/21/2016 MEM @ PHX W 19 9 4 4 100.0 0 0 - 1 1 100.0 2 1 3 0 0 0 0 3 -2
p130
aVMatt Barnes MEM 03/21/2016 MEM @ PHX W 35 12 4 11 36.4 2 3 66.7 2 3 66.7 1 8 9 3 1 2 4 4 6
p131
aVZach Randolph MEM 03/21/2016 MEM @ PHX W 30 14 7 15 46.7 0 0 - 0 0 - 0 13 13 2 1 1 2 2 10
p132
aVXavier Munford MEM 03/21/2016 MEM @ PHX W 10 3 1 2 50.0 1 2 50.0 0 0 - 0 1 1 1 1 0 0 1 3
p133
aVJaMychal Green MEM 03/21/2016 MEM @ PHX W 22 6 3 12 25.0 0 1 0.0 0 0 - 3 4 7 1 1 0 0 1 2
p134
aVTony Allen MEM 03/21/2016 MEM @ PHX W 28 12 4 11 36.4 0 0 - 4 4 100.0 3 1 4 2 2 1 2 2 16
p135
aVVince Carter MEM 03/19/2016 MEM vs. LAC W 26 9 2 7 28.6 1 4 25.0 4 5 80.0 0 3 3 2 0 0 1 0 -17
p136
aVJaMychal Green MEM 03/19/2016 MEM vs. LAC W 27 11 4 10 40.0 0 1 0.0 3 3 100.0 2 5 7 4 4 1 3 4 -1
p137
aVTony Allen MEM 03/19/2016 MEM vs. LAC W 32 22 7 10 70.0 1 2 50.0 7 9 77.8 2 2 4 0 1 0 2 4 20
p138
aVRyan Hollins MEM 03/19/2016 MEM vs. LAC W 14 4 1 1 100.0 0 0 - 2 4 50.0 2 1 3 0 1 1 0 1 14
p139
aVRay McCallum MEM 03/19/2016 MEM vs. LAC W 35 14 6 12 50.0 2 5 40.0 0 0 - 0 2 2 3 0 2 2 3 15
p140
aVJarell Martin MEM 03/19/2016 MEM vs. LAC W 12 6 3 7 42.9 0 0 - 0 0 - 6 1 7 1 0 0 2 5 -14
p141
aVZach Randolph MEM 03/19/2016 MEM vs. LAC W 36 28 10 19 52.6 0 1 0.0 8 8 100.0 3 8 11 10 0 0 2 4 25
p142
aVBriante Weber MEM 03/19/2016 MEM vs. LAC W 11 0 0 2 0.0 0 1 0.0 0 0 - 0 1 1 1 1 0 0 3 -6
p143
aVXavier Munford MEM 03/19/2016 MEM vs. LAC W 20 7 3 5 60.0 0 1 0.0 1 2 50.0 2 1 3 1 0 0 0 2 -8
p144
aVLance Stephenson MEM 03/19/2016 MEM vs. LAC W 28 12 4 9 44.4 0 0 - 4 5 80.0 1 2 3 1 2 1 1 2 27
p145
aVJarell Martin MEM 03/17/2016 MEM @ MIL L 18 5 2 7 28.6 0 0 - 1 2 50.0 2 1 3 1 0 0 2 2 -14
p146
aVXavier Munford MEM 03/17/2016 MEM @ MIL L 11 2 0 3 0.0 0 1 0.0 2 2 100.0 0 1 1 0 2 0 1 2 4
p147
aVAlex Stepheson MEM 03/17/2016 MEM @ MIL L 11 4 2 4 50.0 0 0 - 0 0 - 3 1 4 0 0 1 0 1 -2
p148
aVTony Allen MEM 03/17/2016 MEM @ MIL L 34 13 5 11 45.5 0 0 - 3 3 100.0 2 2 4 2 2 0 0 4 -9
p149
aVLance Stephenson MEM 03/17/2016 MEM @ MIL L 38 19 8 21 38.1 0 1 0.0 3 3 100.0 1 6 7 6 1 0 3 4 -7
p150
aVRay McCallum MEM 03/17/2016 MEM @ MIL L 15 4 2 5 40.0 0 1 0.0 0 0 - 0 1 1 0 0 0 2 0 -6
p151
aVJaMychal Green MEM 03/17/2016 MEM @ MIL L 37 11 5 14 35.7 0 0 - 1 1 100.0 5 1 6 2 1 1 0 2 -9
p152
aVRyan Hollins MEM 03/17/2016 MEM @ MIL L 25 6 2 5 40.0 0 0 - 2 2 100.0 3 7 10 0 0 0 2 1 4
p153
aVBriante Weber MEM 03/17/2016 MEM @ MIL L 15 2 1 4 25.0 0 1 0.0 0 0 - 1 3 4 2 1 0 0 1 -4
p154
aVMatt Barnes MEM 03/17/2016 MEM @ MIL L 35 20 7 18 38.9 3 9 33.3 3 4 75.0 1 6 7 3 1 1 5 2 -7
p155
aVAlex Stepheson MEM 03/16/2016 MEM vs. MIN L 5 0 0 0 - 0 0 - 0 0 - 0 1 1 0 0 0 0 1 0
p156
aVRay McCallum MEM 03/16/2016 MEM vs. MIN L 16 6 2 5 40.0 2 4 50.0 0 0 - 0 0 0 1 0 0 1 1 -8
p157
aVTony Allen MEM 03/16/2016 MEM vs. MIN L 33 10 4 9 44.4 0 3 0.0 2 2 100.0 0 3 3 2 0 1 0 2 -7
p158
aVLance Stephenson MEM 03/16/2016 MEM vs. MIN L 36 24 8 18 44.4 0 2 0.0 8 9 88.9 4 7 11 7 0 0 1 4 11
p159
aVJaMychal Green MEM 03/16/2016 MEM vs. MIN L 31 18 7 17 41.2 1 2 50.0 3 4 75.0 8 2 10 3 0 0 2 2 -6
p160
aVJarell Martin MEM 03/16/2016 MEM vs. MIN L 24 12 5 9 55.6 0 1 0.0 2 3 66.7 3 5 8 1 0 1 0 1 -2
p161
aVRyan Hollins MEM 03/16/2016 MEM vs. MIN L 24 12 6 8 75.0 0 0 - 0 0 - 5 0 5 1 1 2 1 2 -10
p162
aVBriante Weber MEM 03/16/2016 MEM vs. MIN L 34 12 6 13 46.2 0 1 0.0 0 0 - 1 2 3 4 1 1 2 3 0
p163
aVMatt Barnes MEM 03/16/2016 MEM vs. MIN L 37 14 6 21 28.6 1 7 14.3 1 3 33.3 6 4 10 3 1 3 3 5 -8
p164
aVJaMychal Green MEM 03/14/2016 MEM @ HOU L 28 9 4 17 23.5 1 5 20.0 0 0 - 3 1 4 2 0 0 4 4 -38
p165
aVBriante Weber MEM 03/14/2016 MEM @ HOU L 35 3 1 8 12.5 0 0 - 1 2 50.0 2 5 7 3 2 0 5 1 -43
p166
aVPJ Hairston MEM 03/14/2016 MEM @ HOU L 18 6 3 8 37.5 0 3 0.0 0 0 - 0 2 2 2 0 0 2 2 -11
p167
aVRyan Hollins MEM 03/14/2016 MEM @ HOU L 26 10 4 7 57.1 0 0 - 2 4 50.0 4 4 8 0 0 0 1 3 -35
p168
aVTony Allen MEM 03/14/2016 MEM @ HOU L 26 5 2 10 20.0 0 2 0.0 1 2 50.0 0 5 5 0 3 0 2 4 -37
p169
aVMatt Barnes MEM 03/14/2016 MEM @ HOU L 25 14 5 12 41.7 2 5 40.0 2 2 100.0 3 4 7 2 0 0 2 0 -32
p170
aVAlex Stepheson MEM 03/14/2016 MEM @ HOU L 25 12 5 17 29.4 0 0 - 2 8 25.0 13 2 15 0 0 0 0 6 -15
p171
aVJarell Martin MEM 03/14/2016 MEM @ HOU L 29 17 4 12 33.3 0 1 0.0 9 10 90.0 2 6 8 1 0 0 0 3 -18
p172
aVRay McCallum MEM 03/14/2016 MEM @ HOU L 28 5 2 10 20.0 1 1 100.0 0 0 - 1 1 2 4 2 0 3 2 -16
p173
aVBriante Weber MEM 03/12/2016 MEM @ ATL L 32 2 1 5 20.0 0 2 0.0 0 0 - 3 1 4 3 3 1 0 1 -15
p174
aVMatt Barnes MEM 03/12/2016 MEM @ ATL L 26 6 2 13 15.4 2 7 28.6 0 0 - 0 6 6 0 1 1 4 2 -25
p175
aVRyan Hollins MEM 03/12/2016 MEM @ ATL L 20 2 1 2 50.0 0 0 - 0 0 - 1 3 4 1 0 0 2 1 0
p176
aVPJ Hairston MEM 03/12/2016 MEM @ ATL L 20 9 4 11 36.4 0 6 0.0 1 2 50.0 1 4 5 1 0 0 0 0 1
p177
aVRay McCallum MEM 03/12/2016 MEM @ ATL L 27 13 5 10 50.0 3 4 75.0 0 0 - 1 3 4 2 2 1 2 2 6
p178
aVAlex Stepheson MEM 03/12/2016 MEM @ ATL L 19 4 1 5 20.0 0 0 - 2 2 100.0 2 4 6 2 1 2 0 0 11
p179
aVLance Stephenson MEM 03/12/2016 MEM @ ATL L 30 18 7 12 58.3 0 2 0.0 4 4 100.0 0 8 8 6 0 0 1 1 -5
p180
aVJaMychal Green MEM 03/12/2016 MEM @ ATL L 24 4 2 13 15.4 0 1 0.0 0 0 - 4 4 8 0 0 0 3 3 -23
p181
aVJarell Martin MEM 03/12/2016 MEM @ ATL L 20 10 3 10 30.0 0 0 - 4 5 80.0 3 1 4 0 1 0 2 2 4
p182
aVTony Allen MEM 03/12/2016 MEM @ ATL L 23 15 7 14 50.0 1 1 100.0 0 1 0.0 5 4 9 0 2 0 2 2 -14
p183
aVJarell Martin MEM 03/11/2016 MEM vs. NOP W 21 6 3 9 33.3 0 0 - 0 2 0.0 0 2 2 2 2 1 0 1 -2
p184
aVBriante Weber MEM 03/11/2016 MEM vs. NOP W 40 10 4 6 66.7 0 0 - 2 2 100.0 1 4 5 7 1 1 2 2 -4
p185
aVTony Allen MEM 03/11/2016 MEM vs. NOP W 37 8 4 10 40.0 0 1 0.0 0 1 0.0 1 3 4 1 4 0 3 2 10
p186
aVPJ Hairston MEM 03/11/2016 MEM vs. NOP W 24 8 4 10 40.0 0 1 0.0 0 1 0.0 1 3 4 1 1 0 1 5 -8
p187
aVMatt Barnes MEM 03/11/2016 MEM vs. NOP W 44 26 8 19 42.1 4 8 50.0 6 6 100.0 2 9 11 10 2 0 0 5 3
p188
aVJaMychal Green MEM 03/11/2016 MEM vs. NOP W 38 21 9 15 60.0 0 0 - 3 4 75.0 4 6 10 1 1 1 1 5 19
p189
aVLance Stephenson MEM 03/11/2016 MEM vs. NOP W 38 33 12 20 60.0 1 2 50.0 8 12 66.7 0 7 7 4 2 1 1 3 17
p190
aVVince Carter MEM 03/11/2016 MEM vs. NOP W 11 5 1 4 25.0 1 2 50.0 2 2 100.0 0 5 5 1 1 0 0 1 9
p191
aVRyan Hollins MEM 03/11/2016 MEM vs. NOP W 13 4 2 3 66.7 0 0 - 0 2 0.0 1 1 2 0 0 3 2 2 -9
p192
aVRyan Hollins MEM 03/09/2016 MEM @ BOS L 25 7 3 5 60.0 0 0 - 1 2 50.0 2 4 6 0 0 0 1 0 -14
p193
aVLance Stephenson MEM 03/09/2016 MEM @ BOS L 21 2 1 8 12.5 0 1 0.0 0 0 - 0 2 2 3 0 0 2 2 -18
p194
aVPJ Hairston MEM 03/09/2016 MEM @ BOS L 25 2 1 8 12.5 0 4 0.0 0 0 - 2 1 3 0 1 0 0 0 -23
p195
aVJaMychal Green MEM 03/09/2016 MEM @ BOS L 37 17 6 12 50.0 0 1 0.0 5 6 83.3 4 9 13 2 0 2 4 4 -6
p196
aVMatt Barnes MEM 03/09/2016 MEM @ BOS L 34 12 4 16 25.0 2 11 18.2 2 2 100.0 1 1 2 4 1 2 3 4 -17
p197
aVJarell Martin MEM 03/09/2016 MEM @ BOS L 23 16 7 10 70.0 0 0 - 2 3 66.7 4 2 6 1 0 1 1 5 6
p198
aVTony Allen MEM 03/09/2016 MEM @ BOS L 27 12 4 9 44.4 0 0 - 4 6 66.7 2 3 5 2 2 0 4 2 -11
p199
aVMario Chalmers MEM 03/09/2016 MEM @ BOS L 22 11 1 7 14.3 1 3 33.3 8 8 100.0 1 4 5 5 1 1 2 2 2
p200
aVVince Carter MEM 03/09/2016 MEM @ BOS L 27 17 5 9 55.6 4 6 66.7 3 4 75.0 0 6 6 3 3 1 2 3 -19
p201
aVJarell Martin MEM 03/07/2016 MEM @ CLE W 19 2 1 4 25.0 0 0 - 0 0 - 2 1 3 2 0 0 2 4 -8
p202
aVMario Chalmers MEM 03/07/2016 MEM @ CLE W 41 17 7 17 41.2 1 6 16.7 2 3 66.7 0 4 4 7 4 0 3 4 5
p203
aVLance Stephenson MEM 03/07/2016 MEM @ CLE W 28 17 8 15 53.3 1 1 100.0 0 1 0.0 0 7 7 3 1 1 3 2 -13
p204
aVVince Carter MEM 03/07/2016 MEM @ CLE W 26 15 4 9 44.4 2 4 50.0 5 6 83.3 1 3 4 1 2 2 3 3 13
p205
aVJaMychal Green MEM 03/07/2016 MEM @ CLE W 37 16 6 13 46.2 0 2 0.0 4 4 100.0 4 6 10 6 4 2 1 1 15
p206
aVTony Allen MEM 03/07/2016 MEM @ CLE W 34 26 11 17 64.7 1 1 100.0 3 3 100.0 1 1 2 4 5 1 2 4 8
p207
aVPJ Hairston MEM 03/07/2016 MEM @ CLE W 35 9 2 9 22.2 1 6 16.7 4 5 80.0 1 2 3 0 0 1 1 3 7
p208
aVRyan Hollins MEM 03/07/2016 MEM @ CLE W 22 4 2 2 100.0 0 0 - 0 0 - 0 2 2 0 0 1 1 5 -12
p209
aVMario Chalmers MEM 03/06/2016 MEM vs. PHX L 29 14 4 13 30.8 1 4 25.0 5 5 100.0 1 0 1 3 2 0 1 3 1
p210
aVMatt Barnes MEM 03/06/2016 MEM vs. PHX L 33 17 6 11 54.5 4 6 66.7 1 2 50.0 0 5 5 3 0 2 1 4 1
p211
aVJarell Martin MEM 03/06/2016 MEM vs. PHX L 7 0 0 2 0.0 0 0 - 0 0 - 0 2 2 0 0 0 1 2 -1
p212
aVVince Carter MEM 03/06/2016 MEM vs. PHX L 23 5 1 5 20.0 1 2 50.0 2 2 100.0 0 4 4 0 1 0 1 4 -2
p213
aVChris Andersen MEM 03/06/2016 MEM vs. PHX L 9 2 1 1 100.0 0 0 - 0 0 - 4 1 5 0 0 0 1 0 2
p214
aVLance Stephenson MEM 03/06/2016 MEM vs. PHX L 24 13 4 11 36.4 1 3 33.3 4 4 100.0 1 4 5 2 1 0 1 0 -7
p215
aVJaMychal Green MEM 03/06/2016 MEM vs. PHX L 24 17 5 7 71.4 0 1 0.0 7 10 70.0 3 2 5 2 0 0 1 6 3
p216
aVPJ Hairston MEM 03/06/2016 MEM vs. PHX L 19 2 1 4 25.0 0 1 0.0 0 0 - 0 0 0 0 0 0 2 2 -8
p217
aVMike Conley MEM 03/06/2016 MEM vs. PHX L 30 22 7 13 53.8 3 5 60.0 5 6 83.3 0 1 1 4 2 0 1 2 -6
p218
aVRyan Hollins MEM 03/06/2016 MEM vs. PHX L 12 2 0 3 0.0 0 0 - 2 4 50.0 2 0 2 0 0 1 0 3 -19
p219
aVZach Randolph MEM 03/06/2016 MEM vs. PHX L 31 6 3 10 30.0 0 0 - 0 0 - 1 7 8 3 0 0 0 1 -9
p220
aVJarell Martin MEM 03/04/2016 MEM vs. UTA W 3 0 0 0 - 0 0 - 0 0 - 0 0 0 0 0 0 0 0 3
p221
aVRyan Hollins MEM 03/04/2016 MEM vs. UTA W 11 2 0 0 - 0 0 - 2 2 100.0 1 0 1 0 0 1 1 1 14
p222
aVZach Randolph MEM 03/04/2016 MEM vs. UTA W 35 25 9 18 50.0 1 1 100.0 6 6 100.0 2 6 8 1 0 0 2 2 -12
p223
aVJaMychal Green MEM 03/04/2016 MEM vs. UTA W 20 6 3 5 60.0 0 2 0.0 0 0 - 0 3 3 1 0 0 0 0 7
p224
aVVince Carter MEM 03/04/2016 MEM vs. UTA W 21 9 4 10 40.0 1 5 20.0 0 0 - 1 3 4 2 1 0 0 0 26
p225
aVMario Chalmers MEM 03/04/2016 MEM vs. UTA W 30 11 4 8 50.0 1 2 50.0 2 3 66.7 2 4 6 5 5 2 3 3 32
p226
aVMatt Barnes MEM 03/04/2016 MEM vs. UTA W 24 5 2 8 25.0 1 4 25.0 0 0 - 0 0 0 0 0 1 1 3 -19
p227
aVMike Conley MEM 03/04/2016 MEM vs. UTA W 28 12 4 13 30.8 0 2 0.0 4 6 66.7 0 2 2 4 0 0 1 3 -7
p228
aVLance Stephenson MEM 03/04/2016 MEM vs. UTA W 25 16 8 11 72.7 0 0 - 0 0 - 0 5 5 1 0 0 2 5 15
p229
aVChris Andersen MEM 03/04/2016 MEM vs. UTA W 27 6 2 2 100.0 0 0 - 2 2 100.0 2 8 10 0 1 1 0 2 -4
p230
aVPJ Hairston MEM 03/04/2016 MEM vs. UTA W 17 2 1 6 16.7 0 2 0.0 0 0 - 1 2 3 0 1 0 1 3 -25
p231
aVMario Chalmers MEM 03/02/2016 MEM vs. SAC W 27 15 4 9 44.4 1 2 50.0 6 6 100.0 0 0 0 4 3 0 1 3 6
p232
aVRyan Hollins MEM 03/02/2016 MEM vs. SAC W 2 0 0 0 - 0 0 - 0 0 - 0 0 0 0 0 0 1 1 1
p233
aVMike Conley MEM 03/02/2016 MEM vs. SAC W 34 24 9 12 75.0 3 3 100.0 3 4 75.0 0 2 2 5 3 1 1 1 11
p234
aVZach Randolph MEM 03/02/2016 MEM vs. SAC W 35 19 6 13 46.2 0 0 - 7 7 100.0 4 4 8 2 0 0 2 4 0
p235
aVJaMychal Green MEM 03/02/2016 MEM vs. SAC W 21 15 5 7 71.4 1 1 100.0 4 5 80.0 1 1 2 0 3 0 1 3 0
p236
aVVince Carter MEM 03/02/2016 MEM vs. SAC W 19 4 2 12 16.7 0 5 0.0 0 0 - 1 2 3 1 1 0 1 1 -2
p237
aVChris Andersen MEM 03/02/2016 MEM vs. SAC W 27 10 2 4 50.0 0 0 - 6 8 75.0 2 4 6 0 2 1 3 2 2
p238
aVMatt Barnes MEM 03/02/2016 MEM vs. SAC W 27 2 1 6 16.7 0 3 0.0 0 0 - 0 2 2 3 0 0 2 3 6
p239
aVPJ Hairston MEM 03/02/2016 MEM vs. SAC W 23 6 2 8 25.0 0 3 0.0 2 2 100.0 1 2 3 2 0 1 2 3 -8
p240
aVJarell Martin MEM 03/02/2016 MEM vs. SAC W 10 2 1 1 100.0 0 0 - 0 0 - 4 4 8 0 0 1 1 0 7
p241
aVLance Stephenson MEM 03/02/2016 MEM vs. SAC W 16 7 3 7 42.9 0 1 0.0 1 1 100.0 1 2 3 3 1 0 4 2 7
p242
aVPJ Hairston MEM 02/29/2016 MEM @ DEN W 32 14 5 10 50.0 2 6 33.3 2 3 66.7 0 4 4 0 1 1 0 1 11
p243
aVChris Andersen MEM 02/29/2016 MEM @ DEN W 22 7 2 3 66.7 0 0 - 3 6 50.0 0 4 4 1 0 0 0 2 6
p244
aVMario Chalmers MEM 02/29/2016 MEM @ DEN W 23 15 3 6 50.0 1 2 50.0 8 8 100.0 0 2 2 3 2 0 0 4 7
p245
aVZach Randolph MEM 02/29/2016 MEM @ DEN W 33 22 9 17 52.9 0 0 - 4 4 100.0 1 3 4 6 0 1 1 3 0
p246
aVMike Conley MEM 02/29/2016 MEM @ DEN W 29 7 2 9 22.2 0 4 0.0 3 5 60.0 1 0 1 9 0 1 2 0 3
p247
aVJarell Martin MEM 02/29/2016 MEM @ DEN W 12 2 1 2 50.0 0 0 - 0 0 - 1 3 4 0 0 0 0 1 3
p248
aVMatt Barnes MEM 02/29/2016 MEM @ DEN W 38 16 6 10 60.0 0 4 0.0 4 6 66.7 1 4 5 5 2 0 1 2 7
p249
aVLance Stephenson MEM 02/29/2016 MEM @ DEN W 21 14 6 9 66.7 0 1 0.0 2 2 100.0 0 3 3 2 1 0 1 0 -1
p250
aVJaMychal Green MEM 02/29/2016 MEM @ DEN W 12 2 1 2 50.0 0 0 - 0 0 - 0 0 0 0 0 0 1 2 -1
p251
aVVince Carter MEM 02/29/2016 MEM @ DEN W 19 4 1 7 14.3 0 3 0.0 2 2 100.0 0 0 0 1 1 1 2 1 0
p252
aVPJ Hairston MEM 02/27/2016 MEM @ PHX L 24 4 1 5 20.0 1 3 33.3 1 2 50.0 0 2 2 0 0 1 0 1 -9
p253
aVBrandan Wright MEM 02/27/2016 MEM @ PHX L 15 6 3 3 100.0 0 0 - 0 0 - 0 4 4 0 3 0 1 3 -1
p254
aVZach Randolph MEM 02/27/2016 MEM @ PHX L 28 19 6 15 40.0 0 0 - 7 7 100.0 1 3 4 1 0 0 1 1 -5
p255
aVLance Stephenson MEM 02/27/2016 MEM @ PHX L 27 12 4 8 50.0 0 0 - 4 4 100.0 0 4 4 3 0 0 1 3 -2
p256
aVMatt Barnes MEM 02/27/2016 MEM @ PHX L 37 16 5 12 41.7 3 6 50.0 3 4 75.0 2 4 6 1 1 0 1 3 2
p257
aVJaMychal Green MEM 02/27/2016 MEM @ PHX L 16 6 3 7 42.9 0 1 0.0 0 0 - 1 1 2 1 1 1 0 3 2
p258
aVChris Andersen MEM 02/27/2016 MEM @ PHX L 20 4 1 1 100.0 0 0 - 2 4 50.0 2 6 8 0 0 0 0 3 -9
p259
aVMike Conley MEM 02/27/2016 MEM @ PHX L 30 19 6 16 37.5 1 3 33.3 6 7 85.7 1 0 1 8 1 0 2 3 0
p260
aVMario Chalmers MEM 02/27/2016 MEM @ PHX L 21 15 2 7 28.6 0 2 0.0 11 12 91.7 0 1 1 1 3 1 2 1 -4
p261
aVVince Carter MEM 02/27/2016 MEM @ PHX L 23 5 1 6 16.7 1 5 20.0 2 2 100.0 0 2 2 0 2 1 0 5 1
p262
aVVince Carter MEM 02/26/2016 MEM @ LAL W 20 19 7 10 70.0 5 7 71.4 0 0 - 1 2 3 2 0 0 1 1 11
p263
aVChris Andersen MEM 02/26/2016 MEM @ LAL W 19 2 1 2 50.0 0 0 - 0 0 - 2 1 3 0 1 3 0 3 3
p264
aVJaMychal Green MEM 02/26/2016 MEM @ LAL W 23 10 4 8 50.0 0 0 - 2 2 100.0 1 2 3 0 1 1 3 3 -6
p265
aVBrandan Wright MEM 02/26/2016 MEM @ LAL W 18 8 3 3 100.0 0 0 - 2 2 100.0 2 3 5 0 0 2 0 3 12
p266
aVZach Randolph MEM 02/26/2016 MEM @ LAL W 25 15 6 12 50.0 1 2 50.0 2 2 100.0 0 10 10 5 0 0 1 1 14
p267
aVMatt Barnes MEM 02/26/2016 MEM @ LAL W 29 0 0 5 0.0 0 4 0.0 0 0 - 0 7 7 3 1 1 1 1 22
p268
aVMike Conley MEM 02/26/2016 MEM @ LAL W 29 17 6 10 60.0 2 5 40.0 3 3 100.0 0 1 1 7 1 0 1 2 29
p269
aVLance Stephenson MEM 02/26/2016 MEM @ LAL W 26 14 7 15 46.7 0 2 0.0 0 0 - 2 5 7 3 1 0 1 3 5
p270
aVPJ Hairston MEM 02/26/2016 MEM @ LAL W 30 21 8 13 61.5 5 9 55.6 0 0 - 0 4 4 0 1 0 3 4 6
p271
aVMario Chalmers MEM 02/26/2016 MEM @ LAL W 15 4 0 3 0.0 0 1 0.0 4 6 66.7 0 2 2 4 0 0 2 5 -3
p272
aVJames Ennis III MEM 02/26/2016 MEM @ LAL W 6 2 1 4 25.0 0 2 0.0 0 0 - 2 0 2 0 0 0 0 0 -8
p273
aVMike Conley MEM 02/24/2016 MEM vs. LAL W 29 24 10 14 71.4 2 4 50.0 2 2 100.0 1 5 6 8 1 0 2 1 14
p274
aVBrandan Wright MEM 02/24/2016 MEM vs. LAL W 22 15 7 10 70.0 0 0 - 1 4 25.0 4 2 6 1 0 2 2 3 -3
p275
aVChris Andersen MEM 02/24/2016 MEM vs. LAL W 8 0 0 1 0.0 0 1 0.0 0 0 - 0 0 0 1 0 0 0 0 -7
p276
aVJaMychal Green MEM 02/24/2016 MEM vs. LAL W 25 12 5 8 62.5 1 1 100.0 1 2 50.0 1 8 9 0 1 0 0 2 15
p277
aVMatt Barnes MEM 02/24/2016 MEM vs. LAL W 37 25 9 14 64.3 5 9 55.6 2 3 66.7 1 7 8 2 1 1 2 3 7
p278
aVJarell Martin MEM 02/24/2016 MEM vs. LAL W 3 0 0 0 - 0 0 - 0 0 - 0 0 0 0 0 0 0 0 -8
p279
aVJames Ennis III MEM 02/24/2016 MEM vs. LAL W 1 0 0 1 0.0 0 1 0.0 0 0 - 0 0 0 0 0 0 0 0 -5
p280
aVZach Randolph MEM 02/24/2016 MEM vs. LAL W 29 14 5 12 41.7 0 1 0.0 4 6 66.7 2 7 9 3 1 0 1 3 25
p281
aVMario Chalmers MEM 02/24/2016 MEM vs. LAL W 18 4 1 3 33.3 0 1 0.0 2 2 100.0 0 1 1 6 0 0 1 2 -7
p282
aVPJ Hairston MEM 02/24/2016 MEM vs. LAL W 23 17 5 9 55.6 4 7 57.1 3 4 75.0 0 2 2 2 1 0 0 1 18
p283
aVLance Stephenson MEM 02/24/2016 MEM vs. LAL W 23 8 3 7 42.9 0 0 - 2 4 50.0 0 4 4 1 0 0 1 3 -11
p284
aVVince Carter MEM 02/24/2016 MEM vs. LAL W 21 9 3 6 50.0 1 2 50.0 2 2 100.0 0 1 1 2 1 1 0 2 7
p285
aVMario Chalmers MEM 02/21/2016 MEM @ TOR L 19 17 5 15 33.3 1 4 25.0 6 7 85.7 2 2 4 0 2 0 1 4 -3
p286
aVZach Randolph MEM 02/21/2016 MEM @ TOR L 36 18 7 13 53.8 0 0 - 4 4 100.0 1 5 6 2 0 0 1 2 -12
p287
aVPJ Hairston MEM 02/21/2016 MEM @ TOR L 16 2 1 5 20.0 0 2 0.0 0 0 - 0 1 1 0 0 0 2 3 -8
p288
aVMatt Barnes MEM 02/21/2016 MEM @ TOR L 31 1 0 6 0.0 0 5 0.0 1 2 50.0 1 6 7 2 0 2 3 5 -7
p289
aVBrandan Wright MEM 02/21/2016 MEM @ TOR L 21 2 1 2 50.0 0 0 - 0 0 - 1 1 2 1 0 1 3 2 -4
p290
aVMike Conley MEM 02/21/2016 MEM @ TOR L 35 8 2 12 16.7 0 4 0.0 4 5 80.0 1 4 5 4 0 0 1 0 -17
p291
aVChris Andersen MEM 02/21/2016 MEM @ TOR L 9 1 0 0 - 0 0 - 1 2 50.0 0 3 3 1 0 0 0 0 -5
p292
aVLance Stephenson MEM 02/21/2016 MEM @ TOR L 22 16 6 10 60.0 0 0 - 4 4 100.0 0 3 3 2 1 0 1 1 -12
p293
aVVince Carter MEM 02/21/2016 MEM @ TOR L 31 16 4 8 50.0 2 4 50.0 6 7 85.7 2 5 7 1 2 0 1 3 -5
p294
aVJaMychal Green MEM 02/21/2016 MEM @ TOR L 20 4 2 5 40.0 0 1 0.0 0 1 0.0 2 4 6 0 1 0 0 5 8
p295
aVMario Chalmers MEM 02/19/2016 MEM vs. MIN W 27 10 2 6 33.3 1 1 100.0 5 6 83.3 1 2 3 3 1 0 2 5 -1
p296
aVJames Ennis III MEM 02/19/2016 MEM vs. MIN W 4 1 0 0 - 0 0 - 1 2 50.0 0 0 0 0 1 0 0 0 -3
p297
aVTony Allen MEM 02/19/2016 MEM vs. MIN W 13 9 3 5 60.0 0 0 - 3 4 75.0 0 2 2 2 1 0 2 2 4
p298
aVMatt Barnes MEM 02/19/2016 MEM vs. MIN W 33 11 2 10 20.0 1 4 25.0 6 6 100.0 0 5 5 2 2 1 1 3 9
p299
aVPJ Hairston MEM 02/19/2016 MEM vs. MIN W 7 2 1 3 33.3 0 2 0.0 0 0 - 0 0 0 0 0 0 1 1 -6
p300
aVMike Conley MEM 02/19/2016 MEM vs. MIN W 38 25 10 19 52.6 2 4 50.0 3 4 75.0 1 3 4 7 2 0 3 3 6
p301
aVJaMychal Green MEM 02/19/2016 MEM vs. MIN W 30 9 4 9 44.4 0 1 0.0 1 2 50.0 4 7 11 2 3 3 1 2 11
p302
aVChris Andersen MEM 02/19/2016 MEM vs. MIN W 11 4 2 2 100.0 0 0 - 0 0 - 1 2 3 0 0 1 1 0 4
p303
aVBrandan Wright MEM 02/19/2016 MEM vs. MIN W 17 6 3 4 75.0 0 0 - 0 0 - 1 1 2 0 1 0 0 1 -8
p304
aVVince Carter MEM 02/19/2016 MEM vs. MIN W 26 15 5 10 50.0 3 8 37.5 2 2 100.0 1 3 4 0 2 0 1 4 9
p305
aVZach Randolph MEM 02/19/2016 MEM vs. MIN W 34 17 8 14 57.1 0 1 0.0 1 2 50.0 2 6 8 1 0 0 2 3 0
p306
aVVince Carter MEM 02/10/2016 MEM @ BKN W 21 11 4 9 44.4 1 4 25.0 2 2 100.0 1 2 3 2 1 0 2 0 0
p307
aVJaMychal Green MEM 02/10/2016 MEM @ BKN W 21 13 5 6 83.3 1 1 100.0 2 2 100.0 0 4 4 1 1 0 0 5 11
p308
aVJeff Green MEM 02/10/2016 MEM @ BKN W 29 18 7 14 50.0 3 7 42.9 1 1 100.0 2 2 4 2 2 0 0 1 10
p309
aVTony Allen MEM 02/10/2016 MEM @ BKN W 20 6 3 6 50.0 0 0 - 0 0 - 2 4 6 2 2 0 1 1 12
p310
aVMario Chalmers MEM 02/10/2016 MEM @ BKN W 25 10 5 7 71.4 0 0 - 0 0 - 0 6 6 3 1 1 2 1 6
p311
aVCourtney Lee MEM 02/10/2016 MEM @ BKN W 29 10 5 10 50.0 0 2 0.0 0 2 0.0 0 0 0 4 3 0 1 3 19
p312
aVMatt Barnes MEM 02/10/2016 MEM @ BKN W 14 0 0 3 0.0 0 1 0.0 0 0 - 0 1 1 0 1 0 0 1 3
p313
aVZach Randolph MEM 02/10/2016 MEM @ BKN W 27 15 6 12 50.0 1 1 100.0 2 2 100.0 1 2 3 6 3 1 1 2 18
p314
aVRyan Hollins MEM 02/10/2016 MEM @ BKN W 25 6 3 6 50.0 0 0 - 0 0 - 3 1 4 1 0 0 2 4 -1
p315
aVMike Conley MEM 02/10/2016 MEM @ BKN W 29 20 7 13 53.8 3 4 75.0 3 3 100.0 1 3 4 5 1 0 1 0 17
p316
aVTony Allen MEM 02/08/2016 MEM vs. POR L 39 8 3 4 75.0 1 1 100.0 1 4 25.0 1 6 7 0 1 0 0 3 -5
p317
aVCourtney Lee MEM 02/08/2016 MEM vs. POR L 25 3 1 4 25.0 1 2 50.0 0 0 - 0 2 2 1 0 0 4 1 -3
p318
aVRyan Hollins MEM 02/08/2016 MEM vs. POR L 6 0 0 1 0.0 0 0 - 0 0 - 0 2 2 1 0 0 0 1 2
p319
aVZach Randolph MEM 02/08/2016 MEM vs. POR L 40 26 12 19 63.2 0 0 - 2 2 100.0 1 8 9 4 0 0 1 2 -4
p320
aVMario Chalmers MEM 02/08/2016 MEM vs. POR L 23 12 5 12 41.7 1 3 33.3 1 2 50.0 1 1 2 3 1 0 2 3 -2
p321
aVJeff Green MEM 02/08/2016 MEM vs. POR L 39 12 5 14 35.7 1 4 25.0 1 2 50.0 2 4 6 1 0 2 2 1 -6
p322
aVMike Conley MEM 02/08/2016 MEM vs. POR L 33 27 10 17 58.8 2 3 66.7 5 6 83.3 0 3 3 3 1 0 4 5 -8
p323
aVMarc Gasol MEM 02/08/2016 MEM vs. POR L 11 11 4 6 66.7 0 0 - 3 3 100.0 0 3 3 2 0 0 0 0 2
p324
aVVince Carter MEM 02/08/2016 MEM vs. POR L 9 0 0 2 0.0 0 1 0.0 0 0 - 0 1 1 1 0 0 0 0 -2
p325
aVMatt Barnes MEM 02/08/2016 MEM vs. POR L 28 5 2 6 33.3 1 5 20.0 0 0 - 0 2 2 2 1 1 2 6 -6
p326
aVJaMychal Green MEM 02/08/2016 MEM vs. POR L 13 2 1 1 100.0 0 0 - 0 0 - 0 2 2 0 1 0 0 2 2
p327
aVZach Randolph MEM 02/06/2016 MEM vs. DAL L 36 20 9 21 42.9 0 1 0.0 2 4 50.0 5 9 14 2 1 0 3 5 7
p328
aVMike Conley MEM 02/06/2016 MEM vs. DAL L 34 16 6 12 50.0 2 5 40.0 2 4 50.0 0 4 4 7 0 0 2 3 2
p329
aVMarc Gasol MEM 02/06/2016 MEM vs. DAL L 37 22 9 15 60.0 0 0 - 4 6 66.7 0 6 6 2 0 1 2 3 -10
p330
aVTony Allen MEM 02/06/2016 MEM vs. DAL L 17 0 0 0 - 0 0 - 0 0 - 1 3 4 0 1 0 1 1 -12
p331
aVMatt Barnes MEM 02/06/2016 MEM vs. DAL L 36 17 6 10 60.0 5 7 71.4 0 0 - 0 11 11 5 0 1 2 4 3
p332
aVJeff Green MEM 02/06/2016 MEM vs. DAL L 35 9 4 14 28.6 0 4 0.0 1 2 50.0 1 4 5 3 0 1 0 1 4
p333
aVRyan Hollins MEM 02/06/2016 MEM vs. DAL L 9 4 1 1 100.0 0 0 - 2 2 100.0 0 2 2 0 0 0 0 2 -5
p334
aVCourtney Lee MEM 02/06/2016 MEM vs. DAL L 28 10 4 6 66.7 2 3 66.7 0 1 0.0 0 1 1 4 1 1 0 3 7
p335
aVMario Chalmers MEM 02/06/2016 MEM vs. DAL L 19 12 5 7 71.4 0 1 0.0 2 4 50.0 0 2 2 4 0 0 1 2 -6
p336
aVVince Carter MEM 02/06/2016 MEM vs. DAL L 14 0 0 2 0.0 0 2 0.0 0 0 - 0 2 2 0 0 0 0 0 -10
p337
aVMike Conley MEM 02/05/2016 MEM @ NYK W 31 8 2 9 22.2 0 3 0.0 4 4 100.0 0 2 2 9 1 0 1 1 7
p338
aVZach Randolph MEM 02/05/2016 MEM @ NYK W 29 10 5 10 50.0 0 1 0.0 0 0 - 1 3 4 1 1 0 1 3 0
p339
aVVince Carter MEM 02/05/2016 MEM @ NYK W 23 9 4 8 50.0 0 3 0.0 1 2 50.0 1 3 4 0 1 0 1 2 6
p340
aVRyan Hollins MEM 02/05/2016 MEM @ NYK W 17 8 2 2 100.0 0 0 - 4 4 100.0 1 1 2 1 0 1 1 1 2
p341
aVMarc Gasol MEM 02/05/2016 MEM @ NYK W 31 10 5 11 45.5 0 0 - 0 0 - 0 7 7 1 1 1 3 2 4
p342
aVTony Allen MEM 02/05/2016 MEM @ NYK W 19 7 2 4 50.0 1 1 100.0 2 4 50.0 0 3 3 0 0 1 0 0 1
p343
aVMatt Barnes MEM 02/05/2016 MEM @ NYK W 21 12 4 9 44.4 2 5 40.0 2 2 100.0 0 7 7 1 1 1 2 3 7
p344
aVJeff Green MEM 02/05/2016 MEM @ NYK W 29 16 5 11 45.5 0 1 0.0 6 6 100.0 1 4 5 2 1 0 0 2 7
p345
aVMario Chalmers MEM 02/05/2016 MEM @ NYK W 17 8 3 6 50.0 0 1 0.0 2 2 100.0 0 3 3 0 2 1 0 3 -1
p346
aVCourtney Lee MEM 02/05/2016 MEM @ NYK W 22 3 1 6 16.7 1 3 33.3 0 0 - 0 0 0 2 0 0 0 1 -3
p347
aVMarc Gasol MEM 02/01/2016 MEM @ NOP W 32 14 7 12 58.3 0 0 - 0 2 0.0 0 3 3 7 0 2 2 3 21
p348
aVMike Conley MEM 02/01/2016 MEM @ NOP W 28 17 5 7 71.4 1 2 50.0 6 6 100.0 0 4 4 10 1 1 1 1 23
p349
aVMario Chalmers MEM 02/01/2016 MEM @ NOP W 21 9 3 5 60.0 1 2 50.0 2 2 100.0 0 3 3 4 2 0 4 2 -9
p350
aVJaMychal Green MEM 02/01/2016 MEM @ NOP W 9 2 1 2 50.0 0 0 - 0 0 - 0 1 1 2 0 0 2 2 3
p351
aVJeff Green MEM 02/01/2016 MEM @ NOP W 34 24 8 13 61.5 3 4 75.0 5 5 100.0 0 7 7 1 1 0 0 2 16
p352
aVTony Allen MEM 02/01/2016 MEM @ NOP W 32 2 1 5 20.0 0 0 - 0 0 - 0 7 7 1 0 0 0 6 2
p353
aVRyan Hollins MEM 02/01/2016 MEM @ NOP W 5 0 0 0 - 0 0 - 0 0 - 0 0 0 0 0 0 0 2 -9
p354
aVCourtney Lee MEM 02/01/2016 MEM @ NOP W 28 7 3 6 50.0 1 3 33.3 0 0 - 1 0 1 0 0 2 1 1 4
p355
aVVince Carter MEM 02/01/2016 MEM @ NOP W 19 13 5 6 83.3 3 4 75.0 0 0 - 0 2 2 1 0 0 1 1 6
p356
aVZach Randolph MEM 02/01/2016 MEM @ NOP W 33 22 10 15 66.7 0 1 0.0 2 3 66.7 2 10 12 1 0 0 3 1 18
p357
aVMike Conley MEM 01/30/2016 MEM vs. SAC W 30 8 3 6 50.0 0 0 - 2 4 50.0 0 4 4 7 1 0 2 3 1
p358
aVMarc Gasol MEM 01/30/2016 MEM vs. SAC W 34 22 7 14 50.0 0 0 - 8 8 100.0 0 6 6 5 2 5 3 3 8
p359
aVMario Chalmers MEM 01/30/2016 MEM vs. SAC W 18 6 2 7 28.6 0 2 0.0 2 4 50.0 1 1 2 5 2 0 1 2 3
p360
aVZach Randolph MEM 01/30/2016 MEM vs. SAC W 25 10 5 8 62.5 0 0 - 0 0 - 1 4 5 2 1 0 3 3 9
p361
aVVince Carter MEM 01/30/2016 MEM vs. SAC W 14 13 5 8 62.5 2 4 50.0 1 1 100.0 0 1 1 0 0 0 0 1 -6
p362
aVRyan Hollins MEM 01/30/2016 MEM vs. SAC W 10 3 0 0 - 0 0 - 3 4 75.0 0 3 3 0 0 2 1 3 -6
p363
aVCourtney Lee MEM 01/30/2016 MEM vs. SAC W 34 18 5 5 100.0 3 3 100.0 5 6 83.3 0 1 1 1 2 0 2 1 12
p364
aVJeff Green MEM 01/30/2016 MEM vs. SAC W 27 29 11 16 68.8 3 5 60.0 4 4 100.0 0 2 2 1 3 0 1 2 -3
p365
aVMatt Barnes MEM 01/30/2016 MEM vs. SAC W 22 0 0 7 0.0 0 4 0.0 0 0 - 0 3 3 2 2 2 0 5 -1
p366
aVTony Allen MEM 01/30/2016 MEM vs. SAC W 27 12 3 8 37.5 0 0 - 6 6 100.0 0 5 5 0 2 0 0 3 3
p367
aVVince Carter MEM 01/28/2016 MEM vs. MIL W 9 3 1 2 50.0 0 1 0.0 1 1 100.0 1 0 1 0 0 0 0 0 3
p368
aVJaMychal Green MEM 01/28/2016 MEM vs. MIL W 5 0 0 1 0.0 0 0 - 0 0 - 0 0 0 0 0 0 1 0 -5
p369
aVCourtney Lee MEM 01/28/2016 MEM vs. MIL W 24 13 5 10 50.0 2 5 40.0 1 1 100.0 0 0 0 1 0 1 0 2 11
p370
aVMatt Barnes MEM 01/28/2016 MEM vs. MIL W 25 13 4 8 50.0 4 8 50.0 1 2 50.0 0 4 4 2 1 2 3 3 11
p371
aVMarc Gasol MEM 01/28/2016 MEM vs. MIL W 28 15 7 11 63.6 0 0 - 1 2 50.0 1 7 8 4 4 0 1 2 17
p372
aVZach Randolph MEM 01/28/2016 MEM vs. MIL W 20 8 3 8 37.5 0 0 - 2 2 100.0 1 2 3 0 1 0 1 1 7
p373
aVMario Chalmers MEM 01/28/2016 MEM vs. MIL W 27 7 1 4 25.0 1 2 50.0 4 4 100.0 1 3 4 10 0 0 2 4 10
p374
aVMike Conley MEM 01/28/2016 MEM vs. MIL W 24 5 1 8 12.5 0 5 0.0 3 3 100.0 0 1 1 9 1 0 1 1 17
p375
aVJeff Green MEM 01/28/2016 MEM vs. MIL W 32 21 9 15 60.0 3 6 50.0 0 0 - 1 4 5 1 0 0 2 3 11
p376
aVRyan Hollins MEM 01/28/2016 MEM vs. MIL W 18 5 2 4 50.0 0 0 - 1 2 50.0 2 2 4 1 0 1 0 4 2
p377
aVTony Allen MEM 01/28/2016 MEM vs. MIL W 28 13 5 9 55.6 0 1 0.0 3 3 100.0 2 5 7 0 0 1 0 3 16
p378
aVRyan Hollins MEM 01/25/2016 MEM vs. ORL W 7 4 2 3 66.7 0 0 - 0 0 - 1 2 3 0 0 0 0 0 4
p379
aVMatt Barnes MEM 01/25/2016 MEM vs. ORL W 18 2 1 5 20.0 0 3 0.0 0 0 - 3 2 5 2 0 0 0 2 -10
p380
aVMarc Gasol MEM 01/25/2016 MEM vs. ORL W 42 17 7 20 35.0 0 0 - 3 4 75.0 2 3 5 5 4 2 1 2 4
p381
aVMario Chalmers MEM 01/25/2016 MEM vs. ORL W 14 0 0 3 0.0 0 0 - 0 0 - 1 0 1 4 0 0 2 2 -5
p382
aVZach Randolph MEM 01/25/2016 MEM vs. ORL W 34 18 8 16 50.0 0 0 - 2 4 50.0 4 9 13 1 0 0 2 2 6
p383
aVCourtney Lee MEM 01/25/2016 MEM vs. ORL W 34 16 6 12 50.0 3 6 50.0 1 2 50.0 0 0 0 2 0 1 1 1 16
p384
aVVince Carter MEM 01/25/2016 MEM vs. ORL W 5 0 0 1 0.0 0 0 - 0 0 - 0 1 1 0 0 0 0 1 -9
p385
aVMike Conley MEM 01/25/2016 MEM vs. ORL W 39 12 4 13 30.8 1 3 33.3 3 4 75.0 1 5 6 9 2 1 1 1 11
p386
aVJeff Green MEM 01/25/2016 MEM vs. ORL W 31 30 11 18 61.1 2 6 33.3 6 8 75.0 2 6 8 1 2 1 2 1 4
p387
aVTony Allen MEM 01/25/2016 MEM vs. ORL W 40 9 4 9 44.4 0 0 - 1 3 33.3 4 8 12 1 4 0 1 4 9
p388
aVMarc Gasol MEM 01/23/2016 MEM @ MIN L 32 17 7 12 58.3 0 0 - 3 4 75.0 0 2 2 1 0 1 2 1 -9
p389
aVMario Chalmers MEM 01/23/2016 MEM @ MIN L 27 19 6 8 75.0 2 3 66.7 5 6 83.3 0 3 3 5 2 1 2 5 -8
p390
aVMatt Barnes MEM 01/23/2016 MEM @ MIN L 37 13 5 11 45.5 3 6 50.0 0 0 - 1 2 3 5 1 0 2 3 -4
p391
aVRyan Hollins MEM 01/23/2016 MEM @ MIN L 20 5 2 4 50.0 0 0 - 1 2 50.0 2 0 2 1 1 0 2 3 -2
p392
aVJeff Green MEM 01/23/2016 MEM @ MIN L 27 11 5 13 38.5 0 2 0.0 1 1 100.0 2 0 2 3 2 0 4 0 3
p393
aVZach Randolph MEM 01/23/2016 MEM @ MIN L 22 7 3 9 33.3 0 1 0.0 1 2 50.0 2 4 6 1 0 0 0 2 -7
p394
aVMike Conley MEM 01/23/2016 MEM @ MIN L 24 9 2 9 22.2 0 2 0.0 5 5 100.0 1 6 7 6 1 0 1 4 1
p395
aVJaMychal Green MEM 01/23/2016 MEM @ MIN L 11 4 2 3 66.7 0 0 - 0 0 - 1 4 5 0 0 0 0 3 3
p396
aVCourtney Lee MEM 01/23/2016 MEM @ MIN L 24 8 3 5 60.0 2 2 100.0 0 0 - 1 2 3 0 1 0 0 1 -4
p397
aVVince Carter MEM 01/23/2016 MEM @ MIN L 17 8 2 5 40.0 2 3 66.7 2 2 100.0 0 1 1 0 1 1 0 1 2
p398
aVZach Randolph MEM 01/21/2016 MEM @ DEN W 29 13 5 7 71.4 0 0 - 3 4 75.0 2 4 6 0 0 1 3 3 0
p399
aVJeff Green MEM 01/21/2016 MEM @ DEN W 21 9 3 9 33.3 1 2 50.0 2 3 66.7 0 4 4 1 0 0 3 3 7
p400
aVMatt Barnes MEM 01/21/2016 MEM @ DEN W 36 7 3 10 30.0 1 7 14.3 0 0 - 1 6 7 5 3 1 1 2 -4
p401
aVRyan Hollins MEM 01/21/2016 MEM @ DEN W 13 4 2 3 66.7 0 0 - 0 0 - 0 4 4 0 0 1 0 3 -12
p402
aVCourtney Lee MEM 01/21/2016 MEM @ DEN W 35 10 4 6 66.7 0 2 0.0 2 2 100.0 0 4 4 0 1 0 1 2 11
p403
aVMike Conley MEM 01/21/2016 MEM @ DEN W 27 20 5 9 55.6 2 3 66.7 8 10 80.0 1 2 3 2 1 0 0 3 -12
p404
aVMario Chalmers MEM 01/21/2016 MEM @ DEN W 21 5 2 7 28.6 1 4 25.0 0 0 - 0 3 3 6 1 0 1 2 13
p405
aVMarc Gasol MEM 01/21/2016 MEM @ DEN W 35 27 9 14 64.3 0 0 - 9 10 90.0 0 4 4 6 1 3 3 3 13
p406
aVVince Carter MEM 01/21/2016 MEM @ DEN W 8 0 0 3 0.0 0 2 0.0 0 0 - 0 0 0 1 0 0 0 0 -11
p407
aVJaMychal Green MEM 01/21/2016 MEM @ DEN W 14 7 3 4 75.0 1 1 100.0 0 0 - 0 2 2 0 0 0 0 2 0
p408
aVTony Allen MEM 01/18/2016 MEM vs. NOP W 24 6 2 5 40.0 0 0 - 2 2 100.0 2 3 5 1 2 0 1 4 -9
p409
aVMario Chalmers MEM 01/18/2016 MEM vs. NOP W 21 3 0 1 0.0 0 0 - 3 4 75.0 0 1 1 5 0 0 3 3 -17
p410
aVMarc Gasol MEM 01/18/2016 MEM vs. NOP W 39 16 6 13 46.2 0 0 - 4 8 50.0 4 6 10 6 2 1 4 4 4
p411
aVJaMychal Green MEM 01/18/2016 MEM vs. NOP W 4 5 2 2 100.0 0 0 - 1 1 100.0 0 0 0 0 0 1 0 0 5
p412
aVVince Carter MEM 01/18/2016 MEM vs. NOP W 13 0 0 1 0.0 0 1 0.0 0 0 - 0 2 2 0 0 0 0 0 4
p413
aVMike Conley MEM 01/18/2016 MEM vs. NOP W 27 15 6 12 50.0 3 5 60.0 0 0 - 0 1 1 10 0 0 0 4 19
p414
aVMatt Barnes MEM 01/18/2016 MEM vs. NOP W 28 16 5 9 55.6 2 6 33.3 4 4 100.0 0 3 3 1 0 0 1 4 1
p415
aVJeff Green MEM 01/18/2016 MEM vs. NOP W 27 16 5 12 41.7 1 3 33.3 5 6 83.3 2 4 6 2 2 1 1 1 2
p416
aVCourtney Lee MEM 01/18/2016 MEM vs. NOP W 33 16 6 11 54.5 2 4 50.0 2 3 66.7 0 4 4 1 1 0 0 2 7
p417
aVZach Randolph MEM 01/18/2016 MEM vs. NOP W 24 8 3 9 33.3 0 0 - 2 2 100.0 3 5 8 1 2 0 0 3 -6
p418
aVTony Allen MEM 01/16/2016 MEM vs. NYK W 34 7 3 7 42.9 0 0 - 1 2 50.0 3 6 9 1 1 0 2 3 3
p419
aVVince Carter MEM 01/16/2016 MEM vs. NYK W 6 2 1 3 33.3 0 0 - 0 0 - 0 0 0 0 0 0 1 0 8
p420
aVElliot Williams MEM 01/16/2016 MEM vs. NYK W 20 4 1 3 33.3 1 1 100.0 1 2 50.0 1 3 4 2 0 0 0 1 12
p421
aVMarc Gasol MEM 01/16/2016 MEM vs. NYK W 41 37 15 29 51.7 0 0 - 7 8 87.5 1 7 8 3 0 3 1 4 11
p422
aVMario Chalmers MEM 01/16/2016 MEM vs. NYK W 29 12 4 7 57.1 2 2 100.0 2 2 100.0 1 1 2 8 0 0 2 3 -8
p423
aVJaMychal Green MEM 01/16/2016 MEM vs. NYK W 7 1 0 1 0.0 0 0 - 1 2 50.0 1 3 4 0 0 1 1 2 -3
p424
aVZach Randolph MEM 01/16/2016 MEM vs. NYK W 22 14 6 12 50.0 0 0 - 2 3 66.7 4 2 6 0 0 0 0 0 -5
p425
aVMatt Barnes MEM 01/16/2016 MEM vs. NYK W 26 2 0 3 0.0 0 1 0.0 2 2 100.0 2 7 9 5 0 0 0 4 13
p426
aVJeff Green MEM 01/16/2016 MEM vs. NYK W 30 18 7 14 50.0 1 4 25.0 3 4 75.0 0 2 2 3 0 0 0 1 6
p427
aVCourtney Lee MEM 01/16/2016 MEM vs. NYK W 26 6 2 3 66.7 1 2 50.0 1 1 100.0 0 0 0 2 1 1 1 1 3
p428
aVCourtney Lee MEM 01/14/2016 MEM vs. DET W 29 8 1 7 14.3 0 2 0.0 6 7 85.7 0 2 2 2 0 0 2 2 0
p429
aVTony Allen MEM 01/14/2016 MEM vs. DET W 32 2 1 4 25.0 0 0 - 0 0 - 2 5 7 1 4 0 2 1 6
p430
aVMatt Barnes MEM 01/14/2016 MEM vs. DET W 28 18 6 7 85.7 6 6 100.0 0 0 - 0 3 3 0 2 0 0 1 -3
p431
aVElliot Williams MEM 01/14/2016 MEM vs. DET W 6 0 0 1 0.0 0 0 - 0 0 - 0 0 0 1 0 0 0 0 -5
p432
aVVince Carter MEM 01/14/2016 MEM vs. DET W 5 0 0 1 0.0 0 0 - 0 0 - 0 2 2 0 0 0 1 1 2
p433
aVZach Randolph MEM 01/14/2016 MEM vs. DET W 30 13 6 10 60.0 0 0 - 1 3 33.3 1 2 3 3 1 0 1 3 9
p434
aVJaMychal Green MEM 01/14/2016 MEM vs. DET W 5 2 0 1 0.0 0 0 - 2 2 100.0 0 0 0 1 0 0 1 2 2
p435
aVJeff Green MEM 01/14/2016 MEM vs. DET W 27 16 6 10 60.0 1 2 50.0 3 3 100.0 2 2 4 1 0 0 2 1 3
p436
aVMario Chalmers MEM 01/14/2016 MEM vs. DET W 42 25 9 15 60.0 2 6 33.3 5 6 83.3 0 3 3 8 4 0 3 3 7
p437
aVMarc Gasol MEM 01/14/2016 MEM vs. DET W 37 19 8 20 40.0 0 0 - 3 4 75.0 0 5 5 4 2 3 3 5 -11
p438
aVElliot Williams MEM 01/12/2016 MEM vs. HOU L 5 0 0 2 0.0 0 1 0.0 0 0 - 0 0 0 1 0 0 1 0 -7
p439
aVJaMychal Green MEM 01/12/2016 MEM vs. HOU L 14 3 1 2 50.0 1 1 100.0 0 0 - 0 1 1 0 1 0 0 4 -9
p440
aVVince Carter MEM 01/12/2016 MEM vs. HOU L 20 10 3 7 42.9 0 1 0.0 4 4 100.0 2 1 3 2 0 0 1 1 -13
p441
aVMarc Gasol MEM 01/12/2016 MEM vs. HOU L 40 20 8 15 53.3 0 0 - 4 5 80.0 1 4 5 3 2 3 2 3 -11
p442
aVJeff Green MEM 01/12/2016 MEM vs. HOU L 15 3 0 2 0.0 0 0 - 3 4 75.0 0 0 0 2 0 0 1 2 -10
p443
aVTony Allen MEM 01/12/2016 MEM vs. HOU L 32 17 6 12 50.0 2 4 50.0 3 4 75.0 4 3 7 4 2 0 4 5 -9
p444
aVZach Randolph MEM 01/12/2016 MEM vs. HOU L 33 10 5 10 50.0 0 1 0.0 0 0 - 4 5 9 0 0 0 2 4 -9
p445
aVCourtney Lee MEM 01/12/2016 MEM vs. HOU L 37 16 6 12 50.0 3 5 60.0 1 3 33.3 2 1 3 1 1 0 3 2 1
p446
aVMario Chalmers MEM 01/12/2016 MEM vs. HOU L 41 10 3 8 37.5 1 4 25.0 3 4 75.0 0 3 3 9 3 0 3 3 -10
p447
aVJames Ennis III MEM 01/12/2016 MEM vs. HOU L 2 2 1 2 50.0 0 1 0.0 0 0 - 0 0 0 0 0 0 0 0 -3
p448
aVElliot Williams MEM 01/10/2016 MEM vs. BOS W 4 2 0 1 0.0 0 1 0.0 2 2 100.0 0 0 0 0 0 0 0 0 -8
p449
aVMario Chalmers MEM 01/10/2016 MEM vs. BOS W 33 18 3 8 37.5 1 4 25.0 11 13 84.6 0 5 5 4 2 0 5 4 -1
p450
aVVince Carter MEM 01/10/2016 MEM vs. BOS W 20 8 2 7 28.6 1 5 20.0 3 4 75.0 0 2 2 0 1 3 1 3 7
p451
aVJaMychal Green MEM 01/10/2016 MEM vs. BOS W 15 6 2 2 100.0 0 0 - 2 2 100.0 1 3 4 0 0 1 2 1 12
p452
aVJeff Green MEM 01/10/2016 MEM vs. BOS W 31 4 2 11 18.2 0 1 0.0 0 0 - 2 2 4 3 2 0 3 1 -4
p453
aVMatt Barnes MEM 01/10/2016 MEM vs. BOS W 30 12 4 12 33.3 0 3 0.0 4 4 100.0 4 5 9 2 0 2 4 4 -4
p454
aVZach Randolph MEM 01/10/2016 MEM vs. BOS W 38 25 8 17 47.1 1 1 100.0 8 8 100.0 8 5 13 2 1 2 2 2 18
p455
aVTony Allen MEM 01/10/2016 MEM vs. BOS W 32 15 5 9 55.6 1 1 100.0 4 6 66.7 4 6 10 0 2 1 2 4 0
p456
aVMarc Gasol MEM 01/10/2016 MEM vs. BOS W 36 11 5 17 29.4 0 0 - 1 1 100.0 2 9 11 1 0 0 2 4 -5
p457
aVJaMychal Green MEM 01/08/2016 MEM vs. DEN W 9 0 0 3 0.0 0 0 - 0 0 - 1 1 2 0 0 0 1 0 0
p458
aVJames Ennis III MEM 01/08/2016 MEM vs. DEN W 0 0 0 0 - 0 0 - 0 0 - 0 0 0 0 0 0 0 0 0
p459
aVMarc Gasol MEM 01/08/2016 MEM vs. DEN W 37 12 5 17 29.4 0 0 - 2 3 66.7 2 2 4 3 5 1 0 4 9
p460
aVMatt Barnes MEM 01/08/2016 MEM vs. DEN W 33 15 4 7 57.1 3 4 75.0 4 4 100.0 1 6 7 3 0 1 1 2 5
p461
aVZach Randolph MEM 01/08/2016 MEM vs. DEN W 28 24 9 19 47.4 0 0 - 6 8 75.0 3 3 6 1 0 3 0 2 2
p462
aVMario Chalmers MEM 01/08/2016 MEM vs. DEN W 40 12 3 13 23.1 2 6 33.3 4 4 100.0 0 6 6 4 0 0 4 1 -5
p463
aVJeff Green MEM 01/08/2016 MEM vs. DEN W 35 16 4 13 30.8 3 6 50.0 5 8 62.5 2 7 9 2 1 0 1 5 4
p464
aVTony Allen MEM 01/08/2016 MEM vs. DEN W 38 10 4 5 80.0 0 0 - 2 3 66.7 2 7 9 1 3 1 0 4 10
p465
aVElliot Williams MEM 01/08/2016 MEM vs. DEN W 10 2 1 3 33.3 0 1 0.0 0 0 - 0 0 0 0 0 0 0 1 5
p466
aVVince Carter MEM 01/08/2016 MEM vs. DEN W 9 0 0 2 0.0 0 1 0.0 0 0 - 0 0 0 0 1 0 0 0 5
p467
aVMario Chalmers MEM 01/06/2016 MEM @ OKC L 39 23 8 19 42.1 4 8 50.0 3 6 50.0 1 7 8 9 2 0 1 4 -14
p468
aVZach Randolph MEM 01/06/2016 MEM @ OKC L 25 12 5 13 38.5 0 0 - 2 2 100.0 3 3 6 0 2 0 1 1 -6
p469
aVMarc Gasol MEM 01/06/2016 MEM @ OKC L 24 8 2 11 18.2 0 0 - 4 4 100.0 1 3 4 2 0 0 0 1 -13
p470
aVVince Carter MEM 01/06/2016 MEM @ OKC L 12 4 1 3 33.3 0 1 0.0 2 2 100.0 0 0 0 3 0 1 0 4 0
p471
aVJaMychal Green MEM 01/06/2016 MEM @ OKC L 18 9 4 7 57.1 0 0 - 1 2 50.0 1 3 4 0 0 0 1 3 3
p472
aVCourtney Lee MEM 01/06/2016 MEM @ OKC L 21 0 0 6 0.0 0 3 0.0 0 0 - 0 2 2 0 0 1 1 1 -15
p473
aVJeff Green MEM 01/06/2016 MEM @ OKC L 25 10 3 12 25.0 2 3 66.7 2 2 100.0 0 5 5 4 1 0 1 1 -6
p474
aVMatt Barnes MEM 01/06/2016 MEM @ OKC L 35 13 6 11 54.5 1 6 16.7 0 2 0.0 1 1 2 0 1 0 2 4 -18
p475
aVRyan Hollins MEM 01/06/2016 MEM @ OKC L 12 7 3 3 100.0 0 0 - 1 1 100.0 1 2 3 1 0 2 0 1 -9
p476
aVTony Allen MEM 01/06/2016 MEM @ OKC L 29 8 3 5 60.0 0 0 - 2 3 66.7 1 4 5 2 3 0 1 4 -12
p477
aVMarc Gasol MEM 01/04/2016 MEM @ POR W 30 7 3 12 25.0 0 0 - 1 2 50.0 1 5 6 2 1 1 4 3 -13
p478
aVCourtney Lee MEM 01/04/2016 MEM @ POR W 37 16 6 9 66.7 0 1 0.0 4 4 100.0 1 2 3 3 2 0 0 1 20
p479
aVMatt Barnes MEM 01/04/2016 MEM @ POR W 26 3 0 5 0.0 0 2 0.0 3 4 75.0 2 4 6 1 3 0 0 4 6
p480
aVMario Chalmers MEM 01/04/2016 MEM @ POR W 22 10 3 9 33.3 1 5 20.0 3 5 60.0 0 1 1 6 2 0 1 5 13
p481
aVJaMychal Green MEM 01/04/2016 MEM @ POR W 11 6 3 4 75.0 0 0 - 0 0 - 2 3 5 0 0 0 1 1 -1
p482
aVRyan Hollins MEM 01/04/2016 MEM @ POR W 1 0 0 1 0.0 0 0 - 0 0 - 1 0 1 0 0 0 0 0 0
p483
aVTony Allen MEM 01/04/2016 MEM @ POR W 27 8 3 8 37.5 1 1 100.0 1 2 50.0 3 1 4 1 1 0 1 2 8
p484
aVMike Conley MEM 01/04/2016 MEM @ POR W 26 9 3 13 23.1 1 4 25.0 2 3 66.7 0 2 2 4 0 0 0 0 0
p485
aVZach Randolph MEM 01/04/2016 MEM @ POR W 31 26 11 18 61.1 0 0 - 4 4 100.0 6 12 18 3 1 0 3 0 25
p486
aVJeff Green MEM 01/04/2016 MEM @ POR W 29 6 3 12 25.0 0 2 0.0 0 2 0.0 1 5 6 1 0 2 1 3 7
p487
aVJaMychal Green MEM 01/02/2016 MEM @ UTA L 6 0 0 0 - 0 0 - 0 0 - 0 1 1 0 0 0 0 1 -3
p488
aVVince Carter MEM 01/02/2016 MEM @ UTA L 9 0 0 1 0.0 0 1 0.0 0 0 - 0 1 1 1 0 0 0 1 -8
p489
aVZach Randolph MEM 01/02/2016 MEM @ UTA L 24 8 4 10 40.0 0 0 - 0 4 0.0 1 4 5 3 1 0 1 2 -9
p490
aVRyan Hollins MEM 01/02/2016 MEM @ UTA L 6 0 0 1 0.0 0 0 - 0 0 - 2 0 2 0 0 1 0 0 -10
p491
aVJeff Green MEM 01/02/2016 MEM @ UTA L 44 6 3 10 30.0 0 5 0.0 0 2 0.0 1 9 10 0 0 0 2 5 3
p492
aVCourtney Lee MEM 01/02/2016 MEM @ UTA L 41 17 5 9 55.6 2 3 66.7 5 6 83.3 0 2 2 2 3 0 1 3 -15
p493
aVMario Chalmers MEM 01/02/2016 MEM @ UTA L 12 8 3 5 60.0 2 2 100.0 0 0 - 0 0 0 1 0 0 2 3 -13
p494
aVMarc Gasol MEM 01/02/2016 MEM @ UTA L 45 20 8 20 40.0 0 0 - 4 5 80.0 2 5 7 4 0 2 4 4 8
p495
aVTony Allen MEM 01/02/2016 MEM @ UTA L 36 13 5 9 55.6 1 1 100.0 2 3 66.7 1 7 8 2 3 0 0 4 14
p496
aVMike Conley MEM 01/02/2016 MEM @ UTA L 41 15 5 16 31.3 2 6 33.3 3 6 50.0 1 3 4 4 1 1 1 1 8
p497
aVVince Carter MEM 12/29/2015 MEM vs. MIA W 9 0 0 3 0.0 0 2 0.0 0 0 - 0 1 1 1 0 0 0 0 -2
p498
aVZach Randolph MEM 12/29/2015 MEM vs. MIA W 33 17 7 10 70.0 0 0 - 3 3 100.0 2 5 7 3 0 0 2 1 3
p499
aVCourtney Lee MEM 12/29/2015 MEM vs. MIA W 27 9 3 5 60.0 1 2 50.0 2 3 66.7 1 3 4 1 0 0 0 0 2
p500
aVMario Chalmers MEM 12/29/2015 MEM vs. MIA W 23 12 4 11 36.4 2 5 40.0 2 2 100.0 2 3 5 4 1 0 0 4 12
p501
aVMike Conley MEM 12/29/2015 MEM vs. MIA W 38 16 5 12 41.7 1 2 50.0 5 5 100.0 0 3 3 5 0 0 1 1 11
p502
aVRyan Hollins MEM 12/29/2015 MEM vs. MIA W 9 0 0 0 - 0 0 - 0 0 - 1 0 1 1 1 1 1 4 -6
p503
aVJeff Green MEM 12/29/2015 MEM vs. MIA W 38 16 8 17 47.1 0 3 0.0 0 0 - 3 4 7 4 0 0 1 0 17
p504
aVMarc Gasol MEM 12/29/2015 MEM vs. MIA W 44 23 8 18 44.4 0 0 - 7 7 100.0 0 8 8 6 0 4 2 3 15
p505
aVTony Allen MEM 12/29/2015 MEM vs. MIA W 36 6 3 8 37.5 0 0 - 0 0 - 5 2 7 0 2 1 1 3 1
p506
aVJaMychal Green MEM 12/29/2015 MEM vs. MIA W 7 0 0 3 0.0 0 1 0.0 0 0 - 2 1 3 0 0 0 0 2 -8
p507
aVMike Conley MEM 12/27/2015 MEM vs. LAL W 24 19 7 11 63.6 1 3 33.3 4 4 100.0 0 4 4 5 4 0 0 0 26
p508
aVMario Chalmers MEM 12/27/2015 MEM vs. LAL W 29 11 4 10 40.0 1 3 33.3 2 2 100.0 1 4 5 7 1 0 2 3 -3
p509
aVRuss Smith MEM 12/27/2015 MEM vs. LAL W 7 0 0 1 0.0 0 0 - 0 2 0.0 0 2 2 0 2 1 2 0 -9
p510
aVVince Carter MEM 12/27/2015 MEM vs. LAL W 14 2 1 3 33.3 0 2 0.0 0 0 - 0 0 0 2 0 0 0 2 -13
p511
aVJeff Green MEM 12/27/2015 MEM vs. LAL W 25 17 6 10 60.0 1 3 33.3 4 6 66.7 3 1 4 4 0 1 1 2 18
p512
aVCourtney Lee MEM 12/27/2015 MEM vs. LAL W 24 13 5 7 71.4 1 2 50.0 2 2 100.0 1 1 2 3 1 0 0 1 14
p513
aVJaMychal Green MEM 12/27/2015 MEM vs. LAL W 27 7 3 7 42.9 1 1 100.0 0 2 0.0 1 7 8 1 1 2 1 3 2
p514
aVTony Allen MEM 12/27/2015 MEM vs. LAL W 19 4 2 6 33.3 0 0 - 0 0 - 0 2 2 0 0 0 1 3 4
p515
aVMarc Gasol MEM 12/27/2015 MEM vs. LAL W 23 16 7 11 63.6 0 0 - 2 2 100.0 0 3 3 6 1 0 0 2 20
p516
aVZach Randolph MEM 12/27/2015 MEM vs. LAL W 20 16 7 8 87.5 0 0 - 2 2 100.0 0 3 3 0 1 0 2 2 5
p517
aVJarell Martin MEM 12/27/2015 MEM vs. LAL W 6 2 1 3 33.3 0 0 - 0 0 - 0 0 0 0 0 0 0 2 -6
p518
aVMatt Barnes MEM 12/27/2015 MEM vs. LAL W 22 5 2 3 66.7 1 2 50.0 0 0 - 1 7 8 2 0 0 1 2 22
p519
aVMario Chalmers MEM 12/26/2015 MEM @ CHA L 17 5 2 3 66.7 0 1 0.0 1 2 50.0 0 1 1 4 1 0 2 3 1
p520
aVMike Conley MEM 12/26/2015 MEM @ CHA L 31 19 7 20 35.0 4 9 44.4 1 2 50.0 0 4 4 7 3 1 3 2 -7
p521
aVVince Carter MEM 12/26/2015 MEM @ CHA L 4 0 0 2 0.0 0 0 - 0 0 - 0 1 1 1 0 0 0 2 0
p522
aVCourtney Lee MEM 12/26/2015 MEM @ CHA L 27 5 2 5 40.0 1 3 33.3 0 1 0.0 0 2 2 1 0 1 0 2 -16
p523
aVZach Randolph MEM 12/26/2015 MEM @ CHA L 33 18 8 19 42.1 0 1 0.0 2 6 33.3 8 4 12 1 1 0 1 2 10
p524
aVTony Allen MEM 12/26/2015 MEM @ CHA L 28 4 2 4 50.0 0 0 - 0 0 - 1 3 4 1 2 0 0 5 4
p525
aVJaMychal Green MEM 12/26/2015 MEM @ CHA L 14 8 2 5 40.0 0 0 - 4 4 100.0 1 7 8 0 0 0 1 1 5
p526
aVMatt Barnes MEM 12/26/2015 MEM @ CHA L 28 7 3 9 33.3 1 4 25.0 0 0 - 3 4 7 1 0 2 2 3 -11
p527
aVJeff Green MEM 12/26/2015 MEM @ CHA L 24 8 3 5 60.0 1 1 100.0 1 2 50.0 2 2 4 3 2 0 3 1 -5
p528
aVMarc Gasol MEM 12/26/2015 MEM @ CHA L 33 18 8 18 44.4 0 0 - 2 4 50.0 1 4 5 2 0 1 1 3 -11
p529
aVMike Conley MEM 12/23/2015 MEM @ WAS L 40 21 9 16 56.3 2 3 66.7 1 1 100.0 0 3 3 3 1 0 0 0 1
p530
aVMario Chalmers MEM 12/23/2015 MEM @ WAS L 5 0 0 1 0.0 0 0 - 0 0 - 0 1 1 0 1 0 0 3 -11
p531
aVVince Carter MEM 12/23/2015 MEM @ WAS L 13 1 0 5 0.0 0 4 0.0 1 2 50.0 0 2 2 0 2 0 1 2 -4
p532
aVMatt Barnes MEM 12/23/2015 MEM @ WAS L 23 2 1 6 16.7 0 4 0.0 0 0 - 0 1 1 0 2 2 2 1 -8
p533
aVJeff Green MEM 12/23/2015 MEM @ WAS L 38 19 8 14 57.1 0 4 0.0 3 5 60.0 2 10 12 4 3 1 1 2 0
p534
aVCourtney Lee MEM 12/23/2015 MEM @ WAS L 27 8 3 6 50.0 1 2 50.0 1 2 50.0 0 1 1 1 2 0 0 1 -10
p535
aVJaMychal Green MEM 12/23/2015 MEM @ WAS L 16 8 3 4 75.0 0 0 - 2 2 100.0 0 1 1 1 0 0 0 3 -4
p536
aVTony Allen MEM 12/23/2015 MEM @ WAS L 22 5 1 2 50.0 0 0 - 3 8 37.5 1 2 3 1 2 1 3 3 -3
p537
aVZach Randolph MEM 12/23/2015 MEM @ WAS L 26 16 5 9 55.6 0 0 - 6 6 100.0 2 3 5 0 0 1 1 1 -1
p538
aVMarc Gasol MEM 12/23/2015 MEM @ WAS L 32 11 3 9 33.3 0 0 - 5 6 83.3 1 5 6 2 0 2 0 1 -5
p539
aVMike Conley MEM 12/22/2015 MEM @ PHI W 32 18 6 13 46.2 1 3 33.3 5 6 83.3 0 1 1 6 1 0 2 2 5
p540
aVMarc Gasol MEM 12/22/2015 MEM @ PHI W 35 19 7 15 46.7 0 0 - 5 5 100.0 0 6 6 5 3 1 1 4 7
p541
aVJaMychal Green MEM 12/22/2015 MEM @ PHI W 10 7 3 4 75.0 0 0 - 1 2 50.0 1 0 1 0 0 0 1 3 -4
p542
aVJeff Green MEM 12/22/2015 MEM @ PHI W 19 8 3 3 100.0 0 0 - 2 2 100.0 2 1 3 0 1 0 0 1 -4
p543
aVMatt Barnes MEM 12/22/2015 MEM @ PHI W 29 12 5 8 62.5 2 4 50.0 0 0 - 1 9 10 2 2 2 3 5 8
p544
aVTony Allen MEM 12/22/2015 MEM @ PHI W 17 1 0 5 0.0 0 1 0.0 1 4 25.0 1 2 3 0 1 0 1 1 11
p545
aVVince Carter MEM 12/22/2015 MEM @ PHI W 17 8 3 8 37.5 2 5 40.0 0 0 - 0 1 1 1 1 0 0 3 6
p546
aVMario Chalmers MEM 12/22/2015 MEM @ PHI W 23 2 1 7 14.3 0 2 0.0 0 0 - 0 2 2 7 4 0 3 1 5
p547
aVZach Randolph MEM 12/22/2015 MEM @ PHI W 25 14 6 10 60.0 0 0 - 2 2 100.0 4 4 8 3 1 0 0 2 8
p548
aVCourtney Lee MEM 12/22/2015 MEM @ PHI W 34 15 6 12 50.0 0 0 - 3 3 100.0 0 1 1 2 2 0 1 1 28
p549
aVMario Chalmers MEM 12/19/2015 MEM vs. IND W 18 12 3 6 50.0 0 2 0.0 6 8 75.0 0 3 3 3 0 0 2 4 -5
p550
aVVince Carter MEM 12/19/2015 MEM vs. IND W 22 9 3 5 60.0 1 3 33.3 2 2 100.0 0 1 1 2 1 1 0 1 5
p551
aVZach Randolph MEM 12/19/2015 MEM vs. IND W 14 6 3 4 75.0 0 0 - 0 0 - 0 2 2 0 0 0 0 1 -9
p552
aVCourtney Lee MEM 12/19/2015 MEM vs. IND W 30 2 1 6 16.7 0 3 0.0 0 0 - 0 4 4 0 0 1 3 1 11
p553
aVMike Conley MEM 12/19/2015 MEM vs. IND W 33 20 6 16 37.5 1 3 33.3 7 8 87.5 0 4 4 8 4 0 1 1 18
p554
aVJaMychal Green MEM 12/19/2015 MEM vs. IND W 8 2 1 3 33.3 0 0 - 0 0 - 0 4 4 0 0 1 0 1 1
p555
aVJeff Green MEM 12/19/2015 MEM vs. IND W 34 11 5 11 45.5 0 2 0.0 1 1 100.0 1 5 6 0 0 1 0 3 10
p556
aVMatt Barnes MEM 12/19/2015 MEM vs. IND W 39 15 6 14 42.9 3 6 50.0 0 0 - 5 5 10 2 2 1 3 5 18
p557
aVMarc Gasol MEM 12/19/2015 MEM vs. IND W 40 19 9 18 50.0 0 0 - 1 2 50.0 3 9 12 6 2 1 0 3 11
p558
aVZach Randolph MEM 12/18/2015 MEM @ DAL L 26 7 3 10 30.0 0 0 - 1 2 50.0 3 5 8 1 0 0 1 4 -17
p559
aVJarell Martin MEM 12/18/2015 MEM @ DAL L 3 0 0 2 0.0 0 0 - 0 0 - 0 0 0 0 0 0 0 0 6
p560
aVMatt Barnes MEM 12/18/2015 MEM @ DAL L 32 11 4 9 44.4 1 6 16.7 2 2 100.0 0 5 5 1 4 3 1 2 -1
p561
aVMike Conley MEM 12/18/2015 MEM @ DAL L 35 20 6 12 50.0 1 2 50.0 7 7 100.0 1 3 4 2 1 0 2 2 -9
p562
aVMarc Gasol MEM 12/18/2015 MEM @ DAL L 34 16 6 14 42.9 0 0 - 4 4 100.0 1 7 8 1 3 0 2 2 -4
p563
aVJeff Green MEM 12/18/2015 MEM @ DAL L 35 2 0 7 0.0 0 1 0.0 2 2 100.0 0 7 7 3 0 0 0 3 -8
p564
aVJames Ennis III MEM 12/18/2015 MEM @ DAL L 8 4 1 2 50.0 1 1 100.0 1 2 50.0 0 0 0 0 1 0 1 1 -2
p565
aVCourtney Lee MEM 12/18/2015 MEM @ DAL L 29 8 2 8 25.0 1 3 33.3 3 3 100.0 0 0 0 2 1 0 2 1 -4
p566
aVRuss Smith MEM 12/18/2015 MEM @ DAL L 1 0 0 1 0.0 0 0 - 0 0 - 0 0 0 1 0 0 0 0 4
p567
aVMario Chalmers MEM 12/18/2015 MEM @ DAL L 25 12 4 9 44.4 2 4 50.0 2 2 100.0 0 0 0 2 1 0 2 2 -10
p568
aVJaMychal Green MEM 12/18/2015 MEM @ DAL L 13 8 4 6 66.7 0 0 - 0 0 - 5 2 7 0 0 0 1 2 0
p569
aVJaMychal Green MEM 12/16/2015 MEM @ CHI L 14 11 4 6 66.7 0 1 0.0 3 6 50.0 1 1 2 0 1 0 3 1 -5
p570
aVMario Chalmers MEM 12/16/2015 MEM @ CHI L 27 8 2 5 40.0 0 1 0.0 4 8 50.0 0 3 3 4 0 1 2 3 2
p571
aVJames Ennis III MEM 12/16/2015 MEM @ CHI L 9 4 1 2 50.0 1 1 100.0 1 2 50.0 1 1 2 1 0 1 1 0 -2
p572
aVMatt Barnes MEM 12/16/2015 MEM @ CHI L 22 7 2 7 28.6 0 3 0.0 3 4 75.0 0 1 1 0 1 1 1 4 -17
p573
aVMarc Gasol MEM 12/16/2015 MEM @ CHI L 34 8 4 10 40.0 0 0 - 0 0 - 2 5 7 7 0 0 3 4 -8
p574
aVJeff Green MEM 12/16/2015 MEM @ CHI L 33 11 4 12 33.3 1 3 33.3 2 4 50.0 0 1 1 2 1 1 0 1 -8
p575
aVMike Conley MEM 12/16/2015 MEM @ CHI L 34 8 3 14 21.4 1 8 12.5 1 2 50.0 1 6 7 2 1 1 1 2 -7
p576
aVCourtney Lee MEM 12/16/2015 MEM @ CHI L 37 18 8 11 72.7 2 2 100.0 0 0 - 0 7 7 6 2 0 1 2 -11
p577
aVZach Randolph MEM 12/16/2015 MEM @ CHI L 30 10 4 9 44.4 0 0 - 2 2 100.0 0 11 11 5 0 0 1 3 -9
p578
aVZach Randolph MEM 12/14/2015 MEM vs. WAS W 21 8 4 7 57.1 0 0 - 0 0 - 1 3 4 1 1 0 2 2 8
p579
aVMatt Barnes MEM 12/14/2015 MEM vs. WAS W 33 20 7 9 77.8 4 5 80.0 2 2 100.0 1 5 6 2 2 1 4 3 22
p580
aVJaMychal Green MEM 12/14/2015 MEM vs. WAS W 11 0 0 2 0.0 0 0 - 0 0 - 0 3 3 0 0 0 2 0 -7
p581
aVMarc Gasol MEM 12/14/2015 MEM vs. WAS W 39 24 9 17 52.9 0 0 - 6 6 100.0 1 11 12 6 1 3 3 4 16
p582
aVMario Chalmers MEM 12/14/2015 MEM vs. WAS W 19 12 5 6 83.3 1 1 100.0 1 1 100.0 0 1 1 1 1 0 1 2 4
p583
aVRuss Smith MEM 12/14/2015 MEM vs. WAS W 1 0 0 0 - 0 0 - 0 0 - 0 0 0 1 0 0 0 0 -3
p584
aVJeff Green MEM 12/14/2015 MEM vs. WAS W 40 15 6 12 50.0 0 1 0.0 3 4 75.0 2 4 6 4 1 1 3 3 12
p585
aVCourtney Lee MEM 12/14/2015 MEM vs. WAS W 39 15 6 11 54.5 3 4 75.0 0 0 - 0 3 3 0 0 0 0 3 17
p586
aVMike Conley MEM 12/14/2015 MEM vs. WAS W 37 18 7 14 50.0 2 4 50.0 2 2 100.0 1 3 4 11 2 0 2 1 16
p587
aVMario Chalmers MEM 12/13/2015 MEM @ MIA L 22 12 4 7 57.1 0 1 0.0 4 5 80.0 0 0 0 2 0 0 2 4 -6
p588
aVZach Randolph MEM 12/13/2015 MEM @ MIA L 26 12 6 9 66.7 0 0 - 0 1 0.0 0 6 6 4 0 0 0 1 -5
p589
aVCourtney Lee MEM 12/13/2015 MEM @ MIA L 38 9 4 8 50.0 1 2 50.0 0 0 - 0 1 1 2 4 0 0 4 7
p590
aVJeff Green MEM 12/13/2015 MEM @ MIA L 45 26 10 20 50.0 2 6 33.3 4 4 100.0 0 2 2 3 0 1 4 3 -3
p591
aVMatt Barnes MEM 12/13/2015 MEM @ MIA L 37 13 5 9 55.6 3 7 42.9 0 0 - 1 12 13 4 2 1 3 3 -10
p592
aVMarc Gasol MEM 12/13/2015 MEM @ MIA L 37 12 5 10 50.0 0 0 - 2 4 50.0 2 5 7 4 0 0 2 1 9
p593
aVJaMychal Green MEM 12/13/2015 MEM @ MIA L 9 4 2 3 66.7 0 0 - 0 0 - 2 1 3 0 0 0 0 1 -10
p594
aVMike Conley MEM 12/13/2015 MEM @ MIA L 26 9 4 11 36.4 1 3 33.3 0 0 - 0 1 1 4 4 1 2 4 3
p595
aVJeff Green MEM 12/11/2015 MEM vs. CHA L 26 6 2 8 25.0 0 1 0.0 2 4 50.0 0 3 3 1 0 0 2 1 -15
p596
aVMatt Barnes MEM 12/11/2015 MEM vs. CHA L 25 11 4 14 28.6 3 7 42.9 0 0 - 3 4 7 1 1 1 2 2 -18
p597
aVMike Conley MEM 12/11/2015 MEM vs. CHA L 30 16 4 8 50.0 2 4 50.0 6 7 85.7 1 2 3 4 0 2 0 2 -16
p598
aVJaMychal Green MEM 12/11/2015 MEM vs. CHA L 17 6 2 5 40.0 0 0 - 2 4 50.0 2 1 3 0 0 0 1 5 -5
p599
aVMarc Gasol MEM 12/11/2015 MEM vs. CHA L 37 17 5 11 45.5 0 0 - 7 8 87.5 0 9 9 5 2 1 4 2 -17
p600
aVRuss Smith MEM 12/11/2015 MEM vs. CHA L 7 2 1 2 50.0 0 0 - 0 0 - 0 0 0 3 1 0 0 2 -6
p601
aVMario Chalmers MEM 12/11/2015 MEM vs. CHA L 13 6 0 3 0.0 0 2 0.0 6 8 75.0 0 3 3 2 2 0 1 5 -4
p602
aVTony Allen MEM 12/11/2015 MEM vs. CHA L 30 10 5 11 45.5 0 1 0.0 0 0 - 1 2 3 1 1 1 2 4 -13
p603
aVZach Randolph MEM 12/11/2015 MEM vs. CHA L 29 13 5 9 55.6 0 1 0.0 3 4 75.0 4 3 7 1 1 0 0 0 -11
p604
aVCourtney Lee MEM 12/11/2015 MEM vs. CHA L 26 12 4 9 44.4 2 4 50.0 2 2 100.0 0 2 2 1 0 0 0 1 -15
p605
aVTony Allen MEM 12/09/2015 MEM @ DET W 22 4 2 6 33.3 0 1 0.0 0 0 - 2 4 6 1 1 0 1 2 4
p606
aVMarc Gasol MEM 12/09/2015 MEM @ DET W 36 19 9 18 50.0 0 0 - 1 2 50.0 2 10 12 4 1 2 6 2 -2
p607
aVMike Conley MEM 12/09/2015 MEM @ DET W 29 11 4 13 30.8 1 6 16.7 2 3 66.7 1 0 1 8 0 0 2 1 -5
p608
aVZach Randolph MEM 12/09/2015 MEM @ DET W 35 21 10 18 55.6 0 0 - 1 4 25.0 7 9 16 1 0 0 1 3 5
p609
aVMatt Barnes MEM 12/09/2015 MEM @ DET W 30 8 3 7 42.9 2 4 50.0 0 0 - 2 9 11 3 0 0 2 2 3
p610
aVMario Chalmers MEM 12/09/2015 MEM @ DET W 19 5 2 6 33.3 0 1 0.0 1 2 50.0 0 0 0 2 1 2 2 2 4
p611
aVJeff Green MEM 12/09/2015 MEM @ DET W 25 8 4 7 57.1 0 1 0.0 0 0 - 0 2 2 2 1 0 2 1 -6
p612
aVJaMychal Green MEM 12/09/2015 MEM @ DET W 15 3 1 4 25.0 0 0 - 1 1 100.0 1 2 3 1 0 0 0 0 6
p613
aVCourtney Lee MEM 12/09/2015 MEM @ DET W 29 14 6 9 66.7 1 2 50.0 1 1 100.0 1 1 2 1 0 0 1 2 -4
p614
aVZach Randolph MEM 12/08/2015 MEM vs. OKC L 31 9 3 10 30.0 0 0 - 3 4 75.0 3 7 10 0 0 0 1 3 -20
p615
aVMario Chalmers MEM 12/08/2015 MEM vs. OKC L 21 19 6 8 75.0 0 1 0.0 7 8 87.5 0 2 2 1 2 1 3 2 -13
p616
aVJeff Green MEM 12/08/2015 MEM vs. OKC L 30 9 4 10 40.0 0 1 0.0 1 1 100.0 2 1 3 1 1 0 1 0 -27
p617
aVTony Allen MEM 12/08/2015 MEM vs. OKC L 14 4 2 6 33.3 0 0 - 0 0 - 2 0 2 1 0 0 1 2 -16
p618
aVRuss Smith MEM 12/08/2015 MEM vs. OKC L 9 4 1 1 100.0 0 0 - 2 2 100.0 0 3 3 3 0 0 0 0 -4
p619
aVVince Carter MEM 12/08/2015 MEM vs. OKC L 22 7 3 7 42.9 1 3 33.3 0 0 - 1 2 3 1 0 0 0 0 -9
p620
aVCourtney Lee MEM 12/08/2015 MEM vs. OKC L 30 9 4 13 30.8 1 4 25.0 0 0 - 0 2 2 0 1 1 2 1 -21
p621
aVMarc Gasol MEM 12/08/2015 MEM vs. OKC L 23 11 4 9 44.4 0 0 - 3 3 100.0 1 3 4 1 0 1 3 2 -25
p622
aVMike Conley MEM 12/08/2015 MEM vs. OKC L 22 0 0 7 0.0 0 3 0.0 0 0 - 0 0 0 6 1 0 1 1 -22
p623
aVMatt Barnes MEM 12/08/2015 MEM vs. OKC L 19 5 2 3 66.7 1 2 50.0 0 0 - 0 0 0 0 0 1 3 4 -19
p624
aVJaMychal Green MEM 12/08/2015 MEM vs. OKC L 19 11 4 7 57.1 0 0 - 3 4 75.0 2 2 4 0 1 0 0 2 -9
p625
aVMario Chalmers MEM 12/06/2015 MEM vs. PHX W 21 11 3 7 42.9 1 3 33.3 4 4 100.0 1 3 4 2 3 0 2 2 7
p626
aVCourtney Lee MEM 12/06/2015 MEM vs. PHX W 28 18 7 12 58.3 2 2 100.0 2 2 100.0 0 4 4 6 0 1 2 0 5
p627
aVVince Carter MEM 12/06/2015 MEM vs. PHX W 5 0 0 1 0.0 0 1 0.0 0 0 - 0 0 0 0 0 0 0 0 -5
p628
aVZach Randolph MEM 12/06/2015 MEM vs. PHX W 37 10 5 16 31.3 0 0 - 0 0 - 4 5 9 3 0 0 1 2 -1
p629
aVMarc Gasol MEM 12/06/2015 MEM vs. PHX W 37 22 9 17 52.9 0 0 - 4 6 66.7 1 7 8 0 0 2 1 2 -9
p630
aVMike Conley MEM 12/06/2015 MEM vs. PHX W 34 12 4 14 28.6 2 5 40.0 2 4 50.0 0 1 1 6 3 1 1 3 2
p631
aVJaMychal Green MEM 12/06/2015 MEM vs. PHX W 18 7 2 4 50.0 0 0 - 3 3 100.0 3 6 9 1 0 0 1 1 19
p632
aVJeff Green MEM 12/06/2015 MEM vs. PHX W 26 10 5 11 45.5 0 2 0.0 0 1 0.0 3 2 5 2 0 0 2 1 -10
p633
aVMatt Barnes MEM 12/06/2015 MEM vs. PHX W 26 5 1 4 25.0 0 2 0.0 3 4 75.0 3 3 6 3 1 1 1 5 17
p634
aVTony Allen MEM 12/06/2015 MEM vs. PHX W 8 0 0 4 0.0 0 0 - 0 0 - 0 0 0 0 1 0 1 0 -15
p635
aVJeff Green MEM 12/03/2015 MEM vs. SAS L 27 10 4 11 36.4 1 2 50.0 1 2 50.0 0 2 2 2 0 0 0 0 -11
p636
aVCourtney Lee MEM 12/03/2015 MEM vs. SAS L 31 6 3 9 33.3 0 2 0.0 0 0 - 0 1 1 2 0 0 1 0 -15
p637
aVTony Allen MEM 12/03/2015 MEM vs. SAS L 17 0 0 3 0.0 0 0 - 0 0 - 0 2 2 0 0 0 0 1 -5
p638
aVMarc Gasol MEM 12/03/2015 MEM vs. SAS L 34 15 7 11 63.6 0 0 - 1 2 50.0 2 6 8 2 2 3 5 3 -16
p639
aVMatt Barnes MEM 12/03/2015 MEM vs. SAS L 20 4 1 3 33.3 0 1 0.0 2 2 100.0 0 2 2 2 0 0 1 1 -15
p640
aVRuss Smith MEM 12/03/2015 MEM vs. SAS L 4 2 1 2 50.0 0 0 - 0 0 - 0 0 0 1 0 0 1 0 -1
p641
aVMike Conley MEM 12/03/2015 MEM vs. SAS L 28 15 5 13 38.5 0 2 0.0 5 5 100.0 1 4 5 4 0 2 1 1 -8
p642
aVJaMychal Green MEM 12/03/2015 MEM vs. SAS L 13 4 2 4 50.0 0 1 0.0 0 0 - 1 2 3 1 0 0 0 4 -7
p643
aVVince Carter MEM 12/03/2015 MEM vs. SAS L 11 0 0 2 0.0 0 1 0.0 0 0 - 0 1 1 1 1 0 0 2 -3
p644
aVMario Chalmers MEM 12/03/2015 MEM vs. SAS L 20 15 3 11 27.3 1 6 16.7 8 8 100.0 2 3 5 2 2 0 1 3 -10
p645
aVZach Randolph MEM 12/03/2015 MEM vs. SAS L 29 9 4 10 40.0 0 0 - 1 2 50.0 3 3 6 1 0 0 1 2 -10
p646
aVJames Ennis III MEM 12/03/2015 MEM vs. SAS L 6 3 0 1 0.0 0 1 0.0 3 4 75.0 0 2 2 1 1 1 0 0 1
p647
aVJaMychal Green MEM 12/01/2015 MEM @ NOP W 9 2 1 2 50.0 0 0 - 0 0 - 2 2 4 0 0 0 0 1 11
p648
aVJeff Green MEM 12/01/2015 MEM @ NOP W 31 6 3 11 27.3 0 2 0.0 0 0 - 0 4 4 1 1 0 0 3 -8
p649
aVCourtney Lee MEM 12/01/2015 MEM @ NOP W 34 13 6 12 50.0 0 0 - 1 1 100.0 2 2 4 1 1 0 1 3 15
p650
aVMike Conley MEM 12/01/2015 MEM @ NOP W 24 11 5 10 50.0 1 3 33.3 0 0 - 0 2 2 3 0 0 2 0 -13
p651
aVTony Allen MEM 12/01/2015 MEM @ NOP W 15 3 1 3 33.3 0 1 0.0 1 1 100.0 2 1 3 2 1 0 0 3 -6
p652
aVMatt Barnes MEM 12/01/2015 MEM @ NOP W 27 13 5 11 45.5 1 4 25.0 2 2 100.0 1 5 6 3 0 0 0 3 15
p653
aVZach Randolph MEM 12/01/2015 MEM @ NOP W 26 14 6 14 42.9 0 0 - 2 2 100.0 4 2 6 0 0 0 0 2 -1
p654
aVVince Carter MEM 12/01/2015 MEM @ NOP W 8 2 1 1 100.0 0 0 - 0 0 - 1 2 3 1 0 0 0 3 2
p655
aVMario Chalmers MEM 12/01/2015 MEM @ NOP W 24 11 4 4 100.0 0 0 - 3 4 75.0 1 3 4 4 0 0 0 4 22
p656
aVMarc Gasol MEM 12/01/2015 MEM @ NOP W 42 38 11 22 50.0 0 0 - 16 16 100.0 0 13 13 6 0 4 3 1 8
p657
aVMario Chalmers MEM 11/29/2015 MEM vs. PHI W 15 5 2 5 40.0 1 1 100.0 0 0 - 2 1 3 2 1 0 3 4 2
p658
aVTony Allen MEM 11/29/2015 MEM vs. PHI W 19 8 4 8 50.0 0 0 - 0 1 0.0 0 4 4 0 2 0 0 2 1
p659
aVMarc Gasol MEM 11/29/2015 MEM vs. PHI W 39 9 4 8 50.0 0 0 - 1 2 50.0 1 11 12 3 1 4 3 3 9
p660
aVZach Randolph MEM 11/29/2015 MEM vs. PHI W 32 17 6 17 35.3 0 0 - 5 6 83.3 7 4 11 0 1 0 2 1 7
p661
aVJeff Green MEM 11/29/2015 MEM vs. PHI W 28 13 4 10 40.0 1 4 25.0 4 4 100.0 2 0 2 2 1 0 3 0 7
p662
aVCourtney Lee MEM 11/29/2015 MEM vs. PHI W 17 3 1 2 50.0 0 0 - 1 1 100.0 0 1 1 1 1 0 4 0 -4
p663
aVJaMychal Green MEM 11/29/2015 MEM vs. PHI W 17 2 1 3 33.3 0 1 0.0 0 0 - 0 3 3 1 1 0 4 2 -2
p664
aVMike Conley MEM 11/29/2015 MEM vs. PHI W 37 20 6 14 42.9 1 2 50.0 7 8 87.5 0 4 4 5 1 2 5 2 9
p665
aVMatt Barnes MEM 11/29/2015 MEM vs. PHI W 27 13 5 10 50.0 1 4 25.0 2 5 40.0 2 6 8 5 2 1 0 0 11
p666
aVVince Carter MEM 11/29/2015 MEM vs. PHI W 9 2 1 4 25.0 0 1 0.0 0 0 - 1 0 1 0 0 0 2 4 0
p667
aVMario Chalmers MEM 11/27/2015 MEM vs. ATL L 11 3 0 2 0.0 0 2 0.0 3 4 75.0 0 1 1 2 0 0 5 4 4
p668
aVVince Carter MEM 11/27/2015 MEM vs. ATL L 22 14 4 10 40.0 4 9 44.4 2 2 100.0 0 5 5 1 0 1 0 3 3
p669
aVMarc Gasol MEM 11/27/2015 MEM vs. ATL L 37 13 4 9 44.4 0 0 - 5 6 83.3 1 7 8 2 0 0 2 2 -24
p670
aVJeff Green MEM 11/27/2015 MEM vs. ATL L 31 11 4 7 57.1 1 1 100.0 2 2 100.0 0 7 7 1 0 0 1 5 -11
p671
aVJaMychal Green MEM 11/27/2015 MEM vs. ATL L 27 9 4 7 57.1 0 0 - 1 1 100.0 1 6 7 2 1 0 1 3 3
p672
aVTony Allen MEM 11/27/2015 MEM vs. ATL L 20 6 3 9 33.3 0 1 0.0 0 0 - 1 1 2 2 2 0 1 2 -10
p673
aVMike Conley MEM 11/27/2015 MEM vs. ATL L 38 16 4 13 30.8 2 6 33.3 6 6 100.0 0 1 1 9 0 0 3 1 -17
p674
aVMatt Barnes MEM 11/27/2015 MEM vs. ATL L 27 15 6 12 50.0 3 7 42.9 0 0 - 1 1 2 0 0 0 0 5 -16
p675
aVRuss Smith MEM 11/27/2015 MEM vs. ATL L 1 0 0 1 0.0 0 1 0.0 0 0 - 0 0 0 0 0 0 0 0 0
p676
aVCourtney Lee MEM 11/27/2015 MEM vs. ATL L 26 14 6 10 60.0 2 3 66.7 0 0 - 1 3 4 1 0 0 0 0 -7
p677
aVCourtney Lee MEM 11/25/2015 MEM @ HOU W 27 17 8 14 57.1 0 3 0.0 1 2 50.0 0 1 1 2 2 0 0 3 1
p678
aVMarc Gasol MEM 11/25/2015 MEM @ HOU W 39 11 5 12 41.7 0 0 - 1 2 50.0 1 6 7 2 1 1 6 2 16
p679
aVJeff Green MEM 11/25/2015 MEM @ HOU W 32 20 5 10 50.0 0 1 0.0 10 10 100.0 2 5 7 1 1 0 0 0 3
p680
aVMatt Barnes MEM 11/25/2015 MEM @ HOU W 31 13 5 11 45.5 2 6 33.3 1 1 100.0 1 7 8 3 1 0 2 3 -1
p681
aVMario Chalmers MEM 11/25/2015 MEM @ HOU W 23 6 2 7 28.6 0 3 0.0 2 2 100.0 0 3 3 5 0 0 2 3 3
p682
aVVince Carter MEM 11/25/2015 MEM @ HOU W 15 0 0 1 0.0 0 1 0.0 0 0 - 2 4 6 2 1 0 1 2 10
p683
aVMike Conley MEM 11/25/2015 MEM @ HOU W 33 19 7 9 77.8 1 2 50.0 4 4 100.0 0 1 1 5 0 0 2 2 1
p684
aVJaMychal Green MEM 11/25/2015 MEM @ HOU W 12 6 2 6 33.3 0 0 - 2 2 100.0 1 2 3 0 0 1 2 5 -1
p685
aVTony Allen MEM 11/25/2015 MEM @ HOU W 28 10 5 10 50.0 0 0 - 0 0 - 2 3 5 1 2 1 2 3 13
p686
aVMike Conley MEM 11/24/2015 MEM vs. DAL W 30 21 8 17 47.1 1 4 25.0 4 4 100.0 2 1 3 6 1 0 0 3 14
p687
aVCourtney Lee MEM 11/24/2015 MEM vs. DAL W 18 0 0 5 0.0 0 1 0.0 0 0 - 0 2 2 0 0 0 0 1 -2
p688
aVMarc Gasol MEM 11/24/2015 MEM vs. DAL W 36 15 4 12 33.3 0 0 - 7 7 100.0 0 10 10 4 0 2 1 4 11
p689
aVRuss Smith MEM 11/24/2015 MEM vs. DAL W 1 0 0 1 0.0 0 0 - 0 0 - 0 0 0 0 0 0 0 0 1
p690
aVJaMychal Green MEM 11/24/2015 MEM vs. DAL W 17 13 5 7 71.4 1 1 100.0 2 2 100.0 1 5 6 1 1 0 3 4 4
p691
aVJeff Green MEM 11/24/2015 MEM vs. DAL W 35 19 8 14 57.1 1 1 100.0 2 2 100.0 1 6 7 3 0 2 1 3 14
p692
aVJames Ennis III MEM 11/24/2015 MEM vs. DAL W 2 0 0 0 - 0 0 - 0 0 - 0 0 0 0 1 0 0 0 -1
p693
aVTony Allen MEM 11/24/2015 MEM vs. DAL W 31 11 2 5 40.0 1 2 50.0 6 8 75.0 0 4 4 1 2 0 1 1 6
p694
aVVince Carter MEM 11/24/2015 MEM vs. DAL W 11 3 1 4 25.0 0 2 0.0 1 2 50.0 0 2 2 0 0 0 0 3 5
p695
aVMario Chalmers MEM 11/24/2015 MEM vs. DAL W 21 14 4 7 57.1 0 1 0.0 6 10 60.0 0 1 1 2 5 0 1 2 2
p696
aVMatt Barnes MEM 11/24/2015 MEM vs. DAL W 38 14 5 14 35.7 3 9 33.3 1 2 50.0 1 6 7 3 2 0 2 3 16
p697
aVJaMychal Green MEM 11/21/2015 MEM @ SAS L 21 8 3 6 50.0 0 0 - 2 2 100.0 2 3 5 1 1 0 0 5 -1
p698
aVTony Allen MEM 11/21/2015 MEM @ SAS L 12 6 3 6 50.0 0 0 - 0 0 - 1 1 2 0 1 0 2 0 4
p699
aVVince Carter MEM 11/21/2015 MEM @ SAS L 20 7 3 6 50.0 0 2 0.0 1 1 100.0 0 4 4 0 1 0 3 1 -5
p700
aVMarc Gasol MEM 11/21/2015 MEM @ SAS L 40 8 3 9 33.3 0 0 - 2 2 100.0 3 5 8 6 3 0 5 3 -8
p701
aVMatt Barnes MEM 11/21/2015 MEM @ SAS L 31 10 5 8 62.5 0 2 0.0 0 0 - 0 3 3 2 1 1 0 4 -2
p702
aVJeff Green MEM 11/21/2015 MEM @ SAS L 28 6 3 7 42.9 0 0 - 0 0 - 0 7 7 1 1 0 1 2 -16
p703
aVMike Conley MEM 11/21/2015 MEM @ SAS L 32 16 5 12 41.7 0 1 0.0 6 6 100.0 0 3 3 5 2 1 1 2 -6
p704
aVCourtney Lee MEM 11/21/2015 MEM @ SAS L 35 15 5 10 50.0 1 2 50.0 4 4 100.0 1 0 1 0 2 0 3 2 -10
p705
aVMario Chalmers MEM 11/21/2015 MEM @ SAS L 21 6 2 10 20.0 0 2 0.0 2 2 100.0 0 2 2 4 1 0 1 4 -6
p706
aVMike Conley MEM 11/20/2015 MEM vs. HOU W 34 26 10 17 58.8 3 6 50.0 3 4 75.0 0 3 3 5 3 0 2 5 9
p707
aVMatt Barnes MEM 11/20/2015 MEM vs. HOU W 34 12 5 9 55.6 1 4 25.0 1 2 50.0 0 7 7 2 3 0 1 2 12
p708
aVRuss Smith MEM 11/20/2015 MEM vs. HOU W 1 0 0 0 - 0 0 - 0 0 - 0 0 0 0 0 0 0 0 -1
p709
aVTony Allen MEM 11/20/2015 MEM vs. HOU W 15 8 3 7 42.9 1 1 100.0 1 2 50.0 0 3 3 2 1 0 0 4 -3
p710
aVVince Carter MEM 11/20/2015 MEM vs. HOU W 18 6 2 6 33.3 2 4 50.0 0 0 - 1 2 3 0 1 2 0 3 5
p711
aVMarc Gasol MEM 11/20/2015 MEM vs. HOU W 37 16 7 14 50.0 0 0 - 2 2 100.0 3 8 11 11 4 0 2 2 14
p712
aVMario Chalmers MEM 11/20/2015 MEM vs. HOU W 17 10 2 9 22.2 0 1 0.0 6 6 100.0 1 3 4 3 1 0 0 5 11
p713
aVJames Ennis III MEM 11/20/2015 MEM vs. HOU W 1 0 0 1 0.0 0 1 0.0 0 0 - 1 0 1 0 0 0 0 0 -1
p714
aVJeff Green MEM 11/20/2015 MEM vs. HOU W 29 7 2 9 22.2 1 4 25.0 2 2 100.0 1 5 6 1 2 1 0 2 -1
p715
aVJaMychal Green MEM 11/20/2015 MEM vs. HOU W 23 5 2 6 33.3 0 0 - 1 1 100.0 1 4 5 1 0 0 4 4 -1
p716
aVCourtney Lee MEM 11/20/2015 MEM vs. HOU W 32 6 3 7 42.9 0 3 0.0 0 0 - 0 4 4 1 1 1 2 3 16
p717
aVTony Allen MEM 11/16/2015 MEM vs. OKC W 27 6 3 6 50.0 0 0 - 0 0 - 1 0 1 2 3 0 0 3 0
p718
aVMarc Gasol MEM 11/16/2015 MEM vs. OKC W 35 17 7 13 53.8 0 0 - 3 3 100.0 1 5 6 6 0 1 4 5 11
p719
aVJaMychal Green MEM 11/16/2015 MEM vs. OKC W 30 5 1 5 20.0 1 1 100.0 2 2 100.0 1 2 3 0 1 2 0 3 0
p720
aVCourtney Lee MEM 11/16/2015 MEM vs. OKC W 17 6 2 3 66.7 0 0 - 2 2 100.0 0 1 1 2 1 0 1 1 14
p721
aVZach Randolph MEM 11/16/2015 MEM vs. OKC W 29 12 4 16 25.0 0 0 - 4 4 100.0 5 5 10 2 0 0 1 1 4
p722
aVMike Conley MEM 11/16/2015 MEM vs. OKC W 31 22 8 13 61.5 4 5 80.0 2 3 66.7 1 3 4 9 2 0 0 1 -4
p723
aVMario Chalmers MEM 11/16/2015 MEM vs. OKC W 23 29 6 13 46.2 4 7 57.1 13 15 86.7 0 2 2 1 1 0 1 3 9
p724
aVRuss Smith MEM 11/16/2015 MEM vs. OKC W 0 0 0 0 - 0 0 - 0 0 - 0 0 0 0 0 0 0 0 0
p725
aVMatt Barnes MEM 11/16/2015 MEM vs. OKC W 12 5 1 2 50.0 1 2 50.0 2 2 100.0 2 0 2 0 1 0 1 3 7
p726
aVJeff Green MEM 11/16/2015 MEM vs. OKC W 34 20 5 13 38.5 2 2 100.0 8 8 100.0 1 4 5 1 2 1 2 2 -1
p727
aVJeff Green MEM 11/15/2015 MEM @ MIN W 35 21 7 12 58.3 1 3 33.3 6 6 100.0 1 3 4 3 0 0 2 2 2
p728
aVCourtney Lee MEM 11/15/2015 MEM @ MIN W 28 7 3 7 42.9 1 1 100.0 0 0 - 0 6 6 0 1 1 0 2 13
p729
aVZach Randolph MEM 11/15/2015 MEM @ MIN W 28 14 6 8 75.0 0 0 - 2 2 100.0 1 7 8 1 1 1 1 1 2
p730
aVMarc Gasol MEM 11/15/2015 MEM @ MIN W 37 16 7 10 70.0 0 0 - 2 2 100.0 1 6 7 4 0 2 4 4 6
p731
aVJaMychal Green MEM 11/15/2015 MEM @ MIN W 25 12 4 6 66.7 1 1 100.0 3 3 100.0 1 6 7 1 1 1 2 1 13
p732
aVMario Chalmers MEM 11/15/2015 MEM @ MIN W 18 16 2 4 50.0 2 3 66.7 10 10 100.0 0 0 0 4 0 1 3 1 7
p733
aVMatt Barnes MEM 11/15/2015 MEM @ MIN W 13 0 0 4 0.0 0 2 0.0 0 0 - 0 1 1 0 0 0 0 1 3
p734
aVTony Allen MEM 11/15/2015 MEM @ MIN W 23 8 4 6 66.7 0 1 0.0 0 0 - 0 1 1 1 2 0 2 4 -11
p735
aVMike Conley MEM 11/15/2015 MEM @ MIN W 33 20 7 14 50.0 4 6 66.7 2 4 50.0 0 0 0 7 2 0 1 0 5
p736
aVMarc Gasol MEM 11/13/2015 MEM vs. POR W 41 31 11 18 61.1 1 1 100.0 8 8 100.0 1 3 4 5 0 0 0 2 0
p737
aVJaMychal Green MEM 11/13/2015 MEM vs. POR W 18 6 3 7 42.9 0 1 0.0 0 0 - 2 2 4 0 0 0 2 4 6
p738
aVMario Chalmers MEM 11/13/2015 MEM vs. POR W 20 11 4 6 66.7 1 2 50.0 2 2 100.0 0 1 1 2 4 0 1 1 5
p739
aVMatt Barnes MEM 11/13/2015 MEM vs. POR W 18 6 2 2 100.0 2 2 100.0 0 0 - 0 3 3 0 1 0 0 4 2
p740
aVJeff Green MEM 11/13/2015 MEM vs. POR W 30 14 4 10 40.0 0 0 - 6 6 100.0 3 2 5 2 2 0 0 3 4
p741
aVMike Conley MEM 11/13/2015 MEM vs. POR W 33 11 4 13 30.8 1 4 25.0 2 3 66.7 1 0 1 9 0 0 1 2 0
p742
aVCourtney Lee MEM 11/13/2015 MEM vs. POR W 26 7 2 8 25.0 1 6 16.7 2 2 100.0 0 2 2 1 0 0 0 0 5
p743
aVZach Randolph MEM 11/13/2015 MEM vs. POR W 29 15 6 16 37.5 0 0 - 3 4 75.0 4 4 8 3 2 0 3 2 -10
p744
aVTony Allen MEM 11/13/2015 MEM vs. POR W 25 0 0 6 0.0 0 0 - 0 2 0.0 3 4 7 0 1 0 1 3 -7
p745
aVCourtney Lee MEM 11/11/2015 MEM vs. GSW L 32 3 1 7 14.3 0 3 0.0 1 1 100.0 1 5 6 1 3 2 2 1 -6
p746
aVJaMychal Green MEM 11/11/2015 MEM vs. GSW L 25 9 3 4 75.0 0 0 - 3 4 75.0 2 7 9 0 1 2 3 4 -19
p747
aVTony Allen MEM 11/11/2015 MEM vs. GSW L 24 15 5 7 71.4 1 2 50.0 4 4 100.0 3 1 4 0 1 1 0 2 -5
p748
aVZach Randolph MEM 11/11/2015 MEM vs. GSW L 30 19 6 13 46.2 0 0 - 7 7 100.0 1 6 7 2 1 0 6 5 -8
p749
aVRuss Smith MEM 11/11/2015 MEM vs. GSW L 13 5 1 2 50.0 0 0 - 3 4 75.0 0 1 1 0 1 0 1 1 -13
p750
aVMarc Gasol MEM 11/11/2015 MEM vs. GSW L 40 26 6 15 40.0 1 1 100.0 13 14 92.9 2 5 7 3 2 0 2 3 -5
p751
aVMike Conley MEM 11/11/2015 MEM vs. GSW L 33 4 1 12 8.3 0 4 0.0 2 2 100.0 0 2 2 9 3 0 4 5 -3
p752
aVMatt Barnes MEM 11/11/2015 MEM vs. GSW L 26 3 1 8 12.5 1 4 25.0 0 0 - 1 2 3 0 2 0 1 4 -17
p753
aVJeff Green MEM 11/11/2015 MEM vs. GSW L 17 0 0 2 0.0 0 1 0.0 0 0 - 0 2 2 0 0 0 2 1 -4
p754
aVMatt Barnes MEM 11/09/2015 MEM @ LAC L 26 8 2 8 25.0 1 3 33.3 3 3 100.0 0 6 6 1 2 2 1 4 -18
p755
aVJeff Green MEM 11/09/2015 MEM @ LAC L 17 5 2 7 28.6 0 1 0.0 1 2 50.0 0 3 3 0 0 1 2 3 -15
p756
aVMarc Gasol MEM 11/09/2015 MEM @ LAC L 37 18 5 8 62.5 0 0 - 8 12 66.7 1 6 7 3 0 0 4 5 2
p757
aVMike Conley MEM 11/09/2015 MEM @ LAC L 35 16 6 15 40.0 1 5 20.0 3 4 75.0 3 3 6 5 1 0 2 0 8
p758
aVTony Allen MEM 11/09/2015 MEM @ LAC L 26 6 3 6 50.0 0 0 - 0 2 0.0 2 1 3 1 2 0 2 3 6
p759
aVCourtney Lee MEM 11/09/2015 MEM @ LAC L 30 6 2 6 33.3 0 1 0.0 2 2 100.0 0 2 2 5 3 0 1 5 11
p760
aVZach Randolph MEM 11/09/2015 MEM @ LAC L 40 26 12 19 63.2 0 0 - 2 2 100.0 2 7 9 4 3 0 0 3 15
p761
aVBeno Udrih MEM 11/09/2015 MEM @ LAC L 13 2 1 7 14.3 0 1 0.0 0 0 - 2 1 3 1 0 0 2 1 -8
p762
aVJaMychal Green MEM 11/09/2015 MEM @ LAC L 16 5 2 4 50.0 0 0 - 1 2 50.0 0 1 1 1 0 0 0 4 -11
p763
aVMarc Gasol MEM 11/07/2015 MEM @ UTA L 38 13 4 14 28.6 0 0 - 5 5 100.0 3 7 10 6 0 1 4 3 -7
p764
aVJaMychal Green MEM 11/07/2015 MEM @ UTA L 9 2 0 3 0.0 0 0 - 2 2 100.0 1 1 2 1 0 0 0 0 4
p765
aVMike Conley MEM 11/07/2015 MEM @ UTA L 40 20 8 25 32.0 3 10 30.0 1 1 100.0 0 4 4 5 1 0 4 4 -2
p766
aVBeno Udrih MEM 11/07/2015 MEM @ UTA L 8 4 2 3 66.7 0 0 - 0 0 - 0 0 0 0 0 0 1 0 -8
p767
aVMatt Barnes MEM 11/07/2015 MEM @ UTA L 21 11 3 6 50.0 2 4 50.0 3 3 100.0 1 2 3 0 1 0 1 3 -2
p768
aVTony Allen MEM 11/07/2015 MEM @ UTA L 24 5 2 7 28.6 0 0 - 1 2 50.0 3 4 7 0 3 0 1 4 -3
p769
aVCourtney Lee MEM 11/07/2015 MEM @ UTA L 27 6 2 10 20.0 1 3 33.3 1 1 100.0 1 4 5 2 0 0 0 2 -15
p770
aVZach Randolph MEM 11/07/2015 MEM @ UTA L 38 10 5 12 41.7 0 0 - 0 0 - 3 6 9 2 1 0 2 3 -1
p771
aVBrandan Wright MEM 11/07/2015 MEM @ UTA L 6 0 0 1 0.0 0 0 - 0 0 - 0 0 0 0 1 0 0 1 -8
p772
aVJarnell Stokes MEM 11/07/2015 MEM @ UTA L 1 0 0 0 - 0 0 - 0 0 - 0 0 0 0 0 0 0 0 -4
p773
aVJeff Green MEM 11/07/2015 MEM @ UTA L 29 8 4 10 40.0 0 2 0.0 0 0 - 1 3 4 0 1 0 1 1 -4
p774
aVRuss Smith MEM 11/05/2015 MEM @ POR L 4 0 0 1 0.0 0 1 0.0 0 0 - 0 0 0 2 0 0 1 0 5
p775
aVTony Allen MEM 11/05/2015 MEM @ POR L 24 6 3 6 50.0 0 1 0.0 0 0 - 0 1 1 1 0 1 0 3 -11
p776
aVBrandan Wright MEM 11/05/2015 MEM @ POR L 18 6 2 4 50.0 0 0 - 2 3 66.7 1 3 4 0 0 1 0 1 -4
p777
aVJeff Green MEM 11/05/2015 MEM @ POR L 20 6 3 8 37.5 0 3 0.0 0 0 - 0 2 2 0 1 0 1 1 -14
p778
aVMarc Gasol MEM 11/05/2015 MEM @ POR L 28 15 4 13 30.8 0 0 - 7 10 70.0 1 4 5 3 0 2 1 2 -21
p779
aVBeno Udrih MEM 11/05/2015 MEM @ POR L 16 9 4 5 80.0 1 1 100.0 0 0 - 0 0 0 6 0 0 0 2 0
p780
aVZach Randolph MEM 11/05/2015 MEM @ POR L 33 16 8 12 66.7 0 0 - 0 0 - 2 8 10 2 1 0 3 1 -14
p781
aVMatt Barnes MEM 11/05/2015 MEM @ POR L 24 5 2 6 33.3 1 4 25.0 0 0 - 1 4 5 3 0 1 0 3 -13
p782
aVCourtney Lee MEM 11/05/2015 MEM @ POR L 30 18 6 10 60.0 3 6 50.0 3 4 75.0 1 1 2 0 1 0 0 0 -13
p783
aVJaMychal Green MEM 11/05/2015 MEM @ POR L 10 8 3 4 75.0 2 2 100.0 0 0 - 0 3 3 0 1 0 0 1 4
p784
aVMike Conley MEM 11/05/2015 MEM @ POR L 31 7 2 8 25.0 0 2 0.0 3 4 75.0 0 2 2 3 0 0 2 0 -19
p785
aVJarnell Stokes MEM 11/05/2015 MEM @ POR L 3 0 0 0 - 0 0 - 0 0 - 1 1 2 0 0 0 0 0 5
p786
aVTony Allen MEM 11/03/2015 MEM @ SAC W 20 5 2 3 66.7 1 1 100.0 0 0 - 1 3 4 2 0 0 0 4 13
p787
aVJeff Green MEM 11/03/2015 MEM @ SAC W 22 5 2 8 25.0 1 4 25.0 0 0 - 1 3 4 2 0 0 1 2 6
p788
aVJaMychal Green MEM 11/03/2015 MEM @ SAC W 20 12 4 7 57.1 0 1 0.0 4 4 100.0 4 8 12 0 1 0 3 3 5
p789
aVMike Conley MEM 11/03/2015 MEM @ SAC W 25 14 5 9 55.6 1 4 25.0 3 3 100.0 1 2 3 6 1 0 1 2 9
p790
aVMarc Gasol MEM 11/03/2015 MEM @ SAC W 18 8 4 8 50.0 0 0 - 0 0 - 0 2 2 2 0 1 1 1 7
p791
aVBrandan Wright MEM 11/03/2015 MEM @ SAC W 28 10 4 5 80.0 0 0 - 2 7 28.6 1 5 6 3 0 4 1 3 2
p792
aVBeno Udrih MEM 11/03/2015 MEM @ SAC W 21 6 3 7 42.9 0 2 0.0 0 0 - 0 0 0 3 1 0 3 5 -1
p793
aVMatt Barnes MEM 11/03/2015 MEM @ SAC W 24 7 1 9 11.1 0 5 0.0 5 5 100.0 0 3 3 2 1 2 0 5 9
p794
aVRuss Smith MEM 11/03/2015 MEM @ SAC W 3 2 0 1 0.0 0 1 0.0 2 2 100.0 0 0 0 0 0 0 0 0 -3
p795
aVZach Randolph MEM 11/03/2015 MEM @ SAC W 29 20 9 14 64.3 0 0 - 2 2 100.0 3 8 11 2 0 0 4 2 15
p796
aVCourtney Lee MEM 11/03/2015 MEM @ SAC W 31 14 6 12 50.0 0 2 0.0 2 2 100.0 1 4 5 1 1 0 2 4 8
p797
aVMatt Barnes MEM 11/02/2015 MEM @ GSW L 26 9 4 12 33.3 1 6 16.7 0 0 - 2 4 6 1 1 3 2 4 -36
p798
aVCourtney Lee MEM 11/02/2015 MEM @ GSW L 25 6 2 11 18.2 0 5 0.0 2 3 66.7 1 2 3 0 1 0 0 3 -44
p799
aVVince Carter MEM 11/02/2015 MEM @ GSW L 16 3 1 4 25.0 1 3 33.3 0 0 - 0 1 1 0 1 0 1 2 -13
p800
aVZach Randolph MEM 11/02/2015 MEM @ GSW L 19 4 2 9 22.2 0 0 - 0 0 - 1 2 3 0 0 0 0 1 -30
p801
aVBeno Udrih MEM 11/02/2015 MEM @ GSW L 15 0 0 5 0.0 0 1 0.0 0 0 - 0 2 2 5 1 0 0 1 1
p802
aVBrandan Wright MEM 11/02/2015 MEM @ GSW L 20 7 3 6 50.0 0 0 - 1 2 50.0 0 6 6 1 0 2 0 2 -12
p803
aVTony Allen MEM 11/02/2015 MEM @ GSW L 12 0 0 6 0.0 0 2 0.0 0 0 - 1 1 2 1 1 1 1 3 -8
p804
aVRuss Smith MEM 11/02/2015 MEM @ GSW L 6 5 2 5 40.0 1 2 50.0 0 2 0.0 1 0 1 0 0 0 1 1 -10
p805
aVJordan Adams MEM 11/02/2015 MEM @ GSW L 8 4 1 2 50.0 0 0 - 2 3 66.7 0 2 2 3 1 0 1 2 4
p806
aVMike Conley MEM 11/02/2015 MEM @ GSW L 26 10 2 8 25.0 0 2 0.0 6 7 85.7 0 2 2 5 1 0 0 1 -41
p807
aVMarc Gasol MEM 11/02/2015 MEM @ GSW L 26 13 5 12 41.7 0 0 - 3 3 100.0 3 6 9 3 0 1 2 2 -32
p808
aVJeff Green MEM 11/02/2015 MEM @ GSW L 20 2 1 8 12.5 0 1 0.0 0 0 - 1 2 3 1 0 0 3 1 -17
p809
aVJaMychal Green MEM 11/02/2015 MEM @ GSW L 21 6 3 8 37.5 0 1 0.0 0 0 - 1 3 4 1 1 0 0 1 -12
p810
aVZach Randolph MEM 10/31/2015 MEM vs. BKN W 30 15 6 12 50.0 0 0 - 3 4 75.0 3 10 13 1 0 0 3 2 8
p811
aVJeff Green MEM 10/31/2015 MEM vs. BKN W 27 13 2 5 40.0 1 3 33.3 8 10 80.0 0 4 4 5 0 0 0 3 11
p812
aVMarc Gasol MEM 10/31/2015 MEM vs. BKN W 30 7 2 10 20.0 0 1 0.0 3 4 75.0 1 3 4 6 0 0 3 4 7
p813
aVCourtney Lee MEM 10/31/2015 MEM vs. BKN W 34 15 4 9 44.4 1 3 33.3 6 6 100.0 1 0 1 1 2 0 1 0 5
p814
aVBeno Udrih MEM 10/31/2015 MEM vs. BKN W 15 8 3 8 37.5 2 3 66.7 0 0 - 0 2 2 3 0 1 0 0 4
p815
aVJaMychal Green MEM 10/31/2015 MEM vs. BKN W 11 5 2 5 40.0 1 1 100.0 0 0 - 1 2 3 0 0 1 0 2 2
p816
aVMike Conley MEM 10/31/2015 MEM vs. BKN W 32 22 7 12 58.3 4 7 57.1 4 4 100.0 0 2 2 8 1 0 1 0 6
p817
aVTony Allen MEM 10/31/2015 MEM vs. BKN W 29 6 3 6 50.0 0 1 0.0 0 0 - 1 6 7 2 2 0 0 4 6
p818
aVMatt Barnes MEM 10/31/2015 MEM vs. BKN W 16 4 2 8 25.0 0 4 0.0 0 0 - 1 0 1 0 1 0 0 4 5
p819
aVBrandan Wright MEM 10/31/2015 MEM vs. BKN W 16 6 3 5 60.0 0 0 - 0 0 - 3 2 5 0 0 0 1 0 -4
p820
aVMatt Barnes MEM 10/29/2015 MEM @ IND W 21 10 3 7 42.9 3 6 50.0 1 2 50.0 0 3 3 1 3 0 0 2 -5
p821
aVMike Conley MEM 10/29/2015 MEM @ IND W 30 13 5 11 45.5 1 1 100.0 2 2 100.0 2 2 4 10 2 0 4 4 3
p822
aVBrandan Wright MEM 10/29/2015 MEM @ IND W 15 9 4 4 100.0 0 0 - 1 2 50.0 0 1 1 0 0 2 0 1 -4
p823
aVZach Randolph MEM 10/29/2015 MEM @ IND W 30 11 3 11 27.3 0 0 - 5 6 83.3 2 6 8 2 0 0 2 3 17
p824
aVCourtney Lee MEM 10/29/2015 MEM @ IND W 29 10 4 9 44.4 0 4 0.0 2 2 100.0 1 1 2 1 1 0 1 1 9
p825
aVTony Allen MEM 10/29/2015 MEM @ IND W 22 9 4 11 36.4 0 1 0.0 1 2 50.0 4 3 7 0 4 0 1 5 -7
p826
aVJaMychal Green MEM 10/29/2015 MEM @ IND W 13 5 1 4 25.0 0 0 - 3 4 75.0 2 2 4 0 0 1 2 2 -1
p827
aVMarc Gasol MEM 10/29/2015 MEM @ IND W 33 20 7 13 53.8 0 0 - 6 7 85.7 1 7 8 3 0 1 0 1 13
p828
aVJeff Green MEM 10/29/2015 MEM @ IND W 29 12 5 6 83.3 2 2 100.0 0 0 - 0 3 3 3 1 1 3 5 14
p829
aVBeno Udrih MEM 10/29/2015 MEM @ IND W 18 13 5 6 83.3 1 2 50.0 2 2 100.0 0 2 2 6 1 0 1 1 6
p830
aVBrandan Wright MEM 10/28/2015 MEM vs. CLE L 17 8 2 5 40.0 0 0 - 4 4 100.0 1 1 2 0 0 1 2 1 -22
p831
aVJordan Adams MEM 10/28/2015 MEM vs. CLE L 7 3 1 4 25.0 0 1 0.0 1 2 50.0 0 0 0 0 2 0 1 0 0
p832
aVZach Randolph MEM 10/28/2015 MEM vs. CLE L 31 12 5 11 45.5 0 1 0.0 2 4 50.0 3 5 8 0 1 0 2 1 -7
p833
aVMatt Barnes MEM 10/28/2015 MEM vs. CLE L 18 0 0 4 0.0 0 3 0.0 0 0 - 0 2 2 1 0 0 2 2 -28
p834
aVMike Conley MEM 10/28/2015 MEM vs. CLE L 29 8 2 8 25.0 0 2 0.0 4 4 100.0 0 4 4 6 0 0 1 1 -18
p835
aVJeff Green MEM 10/28/2015 MEM vs. CLE L 20 8 3 9 33.3 1 3 33.3 1 2 50.0 0 1 1 2 0 0 0 5 -21
p836
aVRuss Smith MEM 10/28/2015 MEM vs. CLE L 6 3 1 4 25.0 0 0 - 1 1 100.0 0 2 2 0 1 0 1 1 -1
p837
aVTony Allen MEM 10/28/2015 MEM vs. CLE L 23 6 3 6 50.0 0 0 - 0 0 - 3 4 7 2 2 1 2 1 -6
p838
aVCourtney Lee MEM 10/28/2015 MEM vs. CLE L 31 7 2 9 22.2 1 4 25.0 2 2 100.0 0 2 2 2 2 1 0 0 -12
p839
aVJaMychal Green MEM 10/28/2015 MEM vs. CLE L 14 4 2 5 40.0 0 1 0.0 0 2 0.0 4 3 7 0 0 0 0 2 -17
p840
aVMarc Gasol MEM 10/28/2015 MEM vs. CLE L 30 12 6 12 50.0 0 0 - 0 0 - 0 5 5 0 0 0 1 3 -6
p841
aVBeno Udrih MEM 10/28/2015 MEM vs. CLE L 15 5 2 5 40.0 0 1 0.0 1 1 100.0 0 0 0 2 0 0 4 1 -12
p842
a.