(lp0
VPLAYER TEAM DATE MATCHUP W/L MIN PTS FGM FGA FG% 3PM 3PA 3P% FTM FTA FT% OREB DREB REB AST STL BLK TOV PF +/-
p1
aVCharlie Villanueva DAL 04/25/2016 DAL @ OKC L 0 0 0 0 - 0 0 - 0 0 - 0 0 0 0 0 0 0 0 1
p2
aVDirk Nowitzki DAL 04/25/2016 DAL @ OKC L 35 24 8 16 50.0 3 6 50.0 5 5 100.0 0 3 3 0 0 1 1 3 -8
p3
aVDwight Powell DAL 04/25/2016 DAL @ OKC L 28 16 6 7 85.7 0 0 - 4 6 66.7 5 4 9 3 0 0 0 2 -2
p4
aVZaza Pachulia DAL 04/25/2016 DAL @ OKC L 32 12 3 7 42.9 0 0 - 6 6 100.0 2 5 7 9 0 1 1 4 -16
p5
aVRaymond Felton DAL 04/25/2016 DAL @ OKC L 29 10 5 12 41.7 0 2 0.0 0 0 - 0 3 3 3 0 0 2 3 -17
p6
aVWesley Matthews DAL 04/25/2016 DAL @ OKC L 37 11 3 13 23.1 3 7 42.9 2 2 100.0 2 1 3 1 1 0 1 2 -21
p7
aVJustin Anderson DAL 04/25/2016 DAL @ OKC L 24 14 5 10 50.0 2 5 40.0 2 4 50.0 3 1 4 1 3 1 1 4 -8
p8
aVJ.J. Barea DAL 04/25/2016 DAL @ OKC L 25 8 4 7 57.1 0 1 0.0 0 0 - 0 2 2 4 0 0 3 3 -2
p9
aVDevin Harris DAL 04/25/2016 DAL @ OKC L 30 9 4 9 44.4 0 3 0.0 1 1 100.0 1 3 4 3 1 0 0 3 3
p10
aVDavid Lee DAL 04/23/2016 DAL vs. OKC L 16 6 3 5 60.0 0 0 - 0 0 - 1 3 4 1 0 0 0 5 -1
p11
aVDevin Harris DAL 04/23/2016 DAL vs. OKC L 24 12 4 5 80.0 3 3 100.0 1 2 50.0 0 1 1 0 0 0 2 3 -11
p12
aVZaza Pachulia DAL 04/23/2016 DAL vs. OKC L 21 9 4 4 100.0 0 0 - 1 1 100.0 0 2 2 2 0 0 0 5 -14
p13
aVJ.J. Barea DAL 04/23/2016 DAL vs. OKC L 27 0 0 7 0.0 0 1 0.0 0 0 - 0 1 1 6 0 0 1 2 -10
p14
aVCharlie Villanueva DAL 04/23/2016 DAL vs. OKC L 1 0 0 2 0.0 0 2 0.0 0 0 - 0 1 1 0 0 0 0 0 2
p15
aVJustin Anderson DAL 04/23/2016 DAL vs. OKC L 19 10 4 8 50.0 1 4 25.0 1 2 50.0 3 4 7 2 0 0 2 3 8
p16
aVSalah Mejri DAL 04/23/2016 DAL vs. OKC L 18 6 2 2 100.0 0 0 - 2 2 100.0 1 3 4 0 2 2 0 3 1
p17
aVDirk Nowitzki DAL 04/23/2016 DAL vs. OKC L 40 27 12 21 57.1 0 1 0.0 3 3 100.0 1 7 8 2 1 0 2 0 -8
p18
aVRaymond Felton DAL 04/23/2016 DAL vs. OKC L 36 19 9 16 56.3 1 4 25.0 0 0 - 1 2 3 11 0 0 1 3 -6
p19
aVWesley Matthews DAL 04/23/2016 DAL vs. OKC L 38 19 5 13 38.5 3 8 37.5 6 7 85.7 0 2 2 1 0 0 2 3 -16
p20
aVDeron Williams DAL 04/23/2016 DAL vs. OKC L 1 0 0 0 - 0 0 - 0 0 - 0 0 0 0 0 0 1 0 0
p21
aVDavid Lee DAL 04/21/2016 DAL vs. OKC L 17 6 3 3 100.0 0 0 - 0 0 - 0 2 2 0 0 0 0 2 -18
p22
aVWesley Matthews DAL 04/21/2016 DAL vs. OKC L 33 22 6 13 46.2 3 7 42.9 7 10 70.0 2 3 5 2 2 0 1 4 -28
p23
aVRaymond Felton DAL 04/21/2016 DAL vs. OKC L 35 18 8 15 53.3 1 2 50.0 1 2 50.0 0 3 3 4 4 0 4 3 -21
p24
aVDevin Harris DAL 04/21/2016 DAL vs. OKC L 23 5 2 5 40.0 0 3 0.0 1 2 50.0 0 1 1 2 0 0 0 5 -30
p25
aVZaza Pachulia DAL 04/21/2016 DAL vs. OKC L 19 5 0 1 0.0 0 0 - 5 6 83.3 2 4 6 3 0 0 0 2 -11
p26
aVCharlie Villanueva DAL 04/21/2016 DAL vs. OKC L 5 2 1 2 50.0 0 1 0.0 0 0 - 0 0 0 0 0 0 1 0 -5
p27
aVJ.J. Barea DAL 04/21/2016 DAL vs. OKC L 32 15 6 14 42.9 1 4 25.0 2 2 100.0 0 2 2 7 0 0 5 2 -3
p28
aVJustin Anderson DAL 04/21/2016 DAL vs. OKC L 19 12 3 8 37.5 1 4 25.0 5 6 83.3 0 1 1 1 0 1 0 4 -8
p29
aVSalah Mejri DAL 04/21/2016 DAL vs. OKC L 14 0 0 1 0.0 0 0 - 0 2 0.0 0 2 2 0 1 0 0 3 -12
p30
aVDirk Nowitzki DAL 04/21/2016 DAL vs. OKC L 33 16 7 12 58.3 0 1 0.0 2 3 66.7 1 4 5 5 1 2 0 2 -3
p31
aVDwight Powell DAL 04/21/2016 DAL vs. OKC L 5 0 0 1 0.0 0 1 0.0 0 0 - 0 0 0 0 1 0 0 0 -5
p32
aVJaVale McGee DAL 04/21/2016 DAL vs. OKC L 4 1 0 1 0.0 0 0 - 1 2 50.0 1 1 2 0 0 0 1 0 -1
p33
aVRaymond Felton DAL 04/18/2016 DAL @ OKC W 42 21 8 16 50.0 1 4 25.0 4 7 57.1 1 10 11 3 1 0 4 3 3
p34
aVDeron Williams DAL 04/18/2016 DAL @ OKC W 26 13 5 9 55.6 3 5 60.0 0 0 - 0 1 1 5 1 0 4 2 -9
p35
aVDevin Harris DAL 04/18/2016 DAL @ OKC W 26 8 3 5 60.0 0 0 - 2 4 50.0 0 7 7 2 2 0 0 2 17
p36
aVDirk Nowitzki DAL 04/18/2016 DAL @ OKC W 38 17 7 19 36.8 1 3 33.3 2 2 100.0 1 3 4 1 0 0 2 2 2
p37
aVZaza Pachulia DAL 04/18/2016 DAL @ OKC W 20 2 1 6 16.7 0 0 - 0 0 - 2 4 6 0 1 0 0 1 -16
p38
aVSalah Mejri DAL 04/18/2016 DAL @ OKC W 28 12 5 7 71.4 0 0 - 2 4 50.0 3 0 3 1 0 3 0 3 17
p39
aVDwight Powell DAL 04/18/2016 DAL @ OKC W 10 0 0 3 0.0 0 0 - 0 2 0.0 1 1 2 0 0 0 1 2 -1
p40
aVWesley Matthews DAL 04/18/2016 DAL @ OKC W 36 6 3 11 27.3 0 7 0.0 0 0 - 0 6 6 1 2 0 0 1 -1
p41
aVJustin Anderson DAL 04/18/2016 DAL @ OKC W 14 6 3 6 50.0 0 0 - 0 0 - 3 2 5 1 1 1 1 1 -7
p42
aVJustin Anderson DAL 04/16/2016 DAL @ OKC L 18 5 2 5 40.0 0 0 - 1 2 50.0 0 3 3 2 0 0 1 0 0
p43
aVJaVale McGee DAL 04/16/2016 DAL @ OKC L 10 3 1 1 100.0 0 0 - 1 4 25.0 1 0 1 0 1 0 2 3 4
p44
aVDirk Nowitzki DAL 04/16/2016 DAL @ OKC L 25 18 7 15 46.7 0 0 - 4 4 100.0 0 4 4 0 0 0 2 2 -28
p45
aVRaymond Felton DAL 04/16/2016 DAL @ OKC L 30 7 2 10 20.0 1 2 50.0 2 2 100.0 0 3 3 2 1 0 1 2 -16
p46
aVSalah Mejri DAL 04/16/2016 DAL @ OKC L 16 1 0 0 - 0 0 - 1 4 25.0 1 3 4 0 0 0 0 2 -22
p47
aVWesley Matthews DAL 04/16/2016 DAL @ OKC L 29 7 3 10 30.0 1 6 16.7 0 0 - 0 2 2 1 1 0 0 4 -40
p48
aVJ.J. Barea DAL 04/16/2016 DAL @ OKC L 16 2 1 6 16.7 0 2 0.0 0 0 - 0 1 1 3 0 0 2 1 -18
p49
aVDeron Williams DAL 04/16/2016 DAL @ OKC L 22 2 1 9 11.1 0 2 0.0 0 0 - 0 1 1 3 0 0 2 4 -32
p50
aVDevin Harris DAL 04/16/2016 DAL @ OKC L 18 5 2 6 33.3 1 4 25.0 0 1 0.0 0 1 1 1 0 0 1 3 -7
p51
aVCharlie Villanueva DAL 04/16/2016 DAL @ OKC L 13 7 2 8 25.0 1 2 50.0 2 2 100.0 0 1 1 1 0 0 0 2 -9
p52
aVDwight Powell DAL 04/16/2016 DAL @ OKC L 20 8 3 8 37.5 0 0 - 2 3 66.7 3 3 6 1 0 0 0 1 -7
p53
aVZaza Pachulia DAL 04/16/2016 DAL @ OKC L 21 5 1 6 16.7 0 0 - 3 4 75.0 4 2 6 2 2 0 1 1 -15
p54
a.