(lp0
VPLAYER TEAM DATE MATCHUP W/L MIN PTS FGM FGA FG% 3PM 3PA 3P% FTM FTA FT% OREB DREB REB AST STL BLK TOV PF +/-
p1
aVAaron Brooks CHI 04/13/2016 CHI vs. PHI W 3 0 0 0 - 0 0 - 0 0 - 0 0 0 0 0 0 0 1 -8
p2
aVJustin Holiday CHI 04/13/2016 CHI vs. PHI W 37 29 9 15 60.0 5 7 71.4 6 8 75.0 1 2 3 5 2 1 4 2 2
p3
aVNikola Mirotic CHI 04/13/2016 CHI vs. PHI W 39 32 10 17 58.8 7 11 63.6 5 6 83.3 2 5 7 4 5 3 2 4 9
p4
aVBobby Portis CHI 04/13/2016 CHI vs. PHI W 28 9 3 9 33.3 1 1 100.0 2 2 100.0 4 10 14 1 1 0 5 0 -9
p5
aVDoug McDermott CHI 04/13/2016 CHI vs. PHI W 34 16 7 11 63.6 0 1 0.0 2 3 66.7 0 1 1 3 0 0 0 2 0
p6
aVCristiano Felicio CHI 04/13/2016 CHI vs. PHI W 29 6 2 8 25.0 0 1 0.0 2 2 100.0 4 5 9 4 0 2 2 2 20
p7
aVJimmy Butler CHI 04/13/2016 CHI vs. PHI W 26 10 4 12 33.3 0 0 - 2 3 66.7 5 7 12 10 0 1 3 1 14
p8
aVTony Snell CHI 04/13/2016 CHI vs. PHI W 44 13 4 11 36.4 2 3 66.7 3 3 100.0 0 7 7 0 0 1 1 1 22
p9
aVTony Snell CHI 04/11/2016 CHI @ NOP W 26 7 2 5 40.0 1 3 33.3 2 2 100.0 0 3 3 3 1 0 0 2 7
p10
aVDoug McDermott CHI 04/11/2016 CHI @ NOP W 24 10 4 10 40.0 0 1 0.0 2 2 100.0 1 3 4 4 0 0 0 1 -4
p11
aVAaron Brooks CHI 04/11/2016 CHI @ NOP W 20 6 2 6 33.3 2 3 66.7 0 0 - 0 1 1 2 0 1 1 4 -5
p12
aVCristiano Felicio CHI 04/11/2016 CHI @ NOP W 27 16 6 8 75.0 0 1 0.0 4 4 100.0 1 5 6 0 0 0 0 3 1
p13
aVNikola Mirotic CHI 04/11/2016 CHI @ NOP W 37 20 6 15 40.0 2 7 28.6 6 8 75.0 1 3 4 3 2 0 4 3 8
p14
aVBobby Portis CHI 04/11/2016 CHI @ NOP W 29 13 5 7 71.4 1 2 50.0 2 2 100.0 2 6 8 2 1 0 0 0 4
p15
aVJustin Holiday CHI 04/11/2016 CHI @ NOP W 26 14 6 8 75.0 2 3 66.7 0 0 - 0 4 4 3 0 0 0 5 8
p16
aVMike Dunleavy CHI 04/11/2016 CHI @ NOP W 21 12 5 7 71.4 1 2 50.0 1 1 100.0 0 2 2 1 1 1 0 1 0
p17
aVJimmy Butler CHI 04/11/2016 CHI @ NOP W 29 23 8 11 72.7 1 1 100.0 6 7 85.7 0 3 3 11 0 1 4 1 6
p18
aVDoug McDermott CHI 04/09/2016 CHI vs. CLE W 11 6 2 4 50.0 1 1 100.0 1 2 50.0 0 3 3 0 0 0 1 2 11
p19
aVMike Dunleavy CHI 04/09/2016 CHI vs. CLE W 26 6 2 7 28.6 1 5 20.0 1 1 100.0 0 2 2 1 0 1 0 2 -14
p20
aVPau Gasol CHI 04/09/2016 CHI vs. CLE W 25 11 4 7 57.1 0 0 - 3 5 60.0 3 9 12 1 1 1 3 4 -9
p21
aVBobby Portis CHI 04/09/2016 CHI vs. CLE W 29 6 3 10 30.0 0 1 0.0 0 1 0.0 5 5 10 0 0 0 1 2 17
p22
aVAaron Brooks CHI 04/09/2016 CHI vs. CLE W 16 9 4 6 66.7 1 2 50.0 0 0 - 1 0 1 3 1 0 0 1 23
p23
aVCristiano Felicio CHI 04/09/2016 CHI vs. CLE W 23 16 7 7 100.0 0 0 - 2 2 100.0 2 3 5 1 0 2 2 4 12
p24
aVNikola Mirotic CHI 04/09/2016 CHI vs. CLE W 17 13 5 11 45.5 3 7 42.9 0 0 - 1 5 6 0 1 1 1 3 -10
p25
aVJustin Holiday CHI 04/09/2016 CHI vs. CLE W 22 7 1 6 16.7 0 3 0.0 5 5 100.0 0 2 2 4 2 1 0 1 12
p26
aVDerrick Rose CHI 04/09/2016 CHI vs. CLE W 32 10 5 14 35.7 0 2 0.0 0 0 - 0 2 2 3 0 0 2 0 -20
p27
aVJimmy Butler CHI 04/09/2016 CHI vs. CLE W 39 21 7 17 41.2 2 3 66.7 5 5 100.0 1 1 2 6 3 0 2 3 -7
p28
aVBobby Portis CHI 04/07/2016 CHI @ MIA L 20 6 3 9 33.3 0 1 0.0 0 0 - 6 4 10 2 0 0 0 2 2
p29
aVJustin Holiday CHI 04/07/2016 CHI @ MIA L 30 9 4 8 50.0 1 3 33.3 0 0 - 0 2 2 3 1 2 1 0 -7
p30
aVNikola Mirotic CHI 04/07/2016 CHI @ MIA L 27 4 2 6 33.3 0 2 0.0 0 0 - 0 1 1 1 3 0 1 6 -11
p31
aVPau Gasol CHI 04/07/2016 CHI @ MIA L 33 21 7 11 63.6 0 1 0.0 7 8 87.5 3 9 12 2 0 4 2 0 -17
p32
aVMike Dunleavy CHI 04/07/2016 CHI @ MIA L 19 2 0 2 0.0 0 1 0.0 2 2 100.0 0 4 4 0 0 0 0 0 -2
p33
aVDerrick Rose CHI 04/07/2016 CHI @ MIA L 36 17 7 16 43.8 0 0 - 3 4 75.0 1 2 3 3 2 0 2 0 3
p34
aVCristiano Felicio CHI 04/07/2016 CHI @ MIA L 14 8 3 4 75.0 0 0 - 2 3 66.7 2 5 7 1 0 0 1 1 9
p35
aVJimmy Butler CHI 04/07/2016 CHI @ MIA L 40 25 7 17 41.2 1 4 25.0 10 10 100.0 0 1 1 6 0 1 4 1 -13
p36
aVDoug McDermott CHI 04/07/2016 CHI @ MIA L 21 6 2 5 40.0 1 2 50.0 1 1 100.0 0 1 1 0 0 0 1 2 -4
p37
aVPau Gasol CHI 04/05/2016 CHI @ MEM L 35 17 7 13 53.8 0 0 - 3 6 50.0 1 9 10 2 1 4 3 2 -22
p38
aVNikola Mirotic CHI 04/05/2016 CHI @ MEM L 29 20 6 9 66.7 6 9 66.7 2 2 100.0 2 6 8 3 1 1 2 4 -9
p39
aVDerrick Rose CHI 04/05/2016 CHI @ MEM L 35 12 5 15 33.3 0 3 0.0 2 2 100.0 2 3 5 8 1 0 5 1 -6
p40
aVBobby Portis CHI 04/05/2016 CHI @ MEM L 19 12 5 11 45.5 0 1 0.0 2 2 100.0 6 1 7 1 0 2 0 2 -7
p41
aVJimmy Butler CHI 04/05/2016 CHI @ MEM L 35 5 2 8 25.0 0 4 0.0 1 2 50.0 2 2 4 2 1 0 2 0 -12
p42
aVCristiano Felicio CHI 04/05/2016 CHI @ MEM L 14 2 0 0 - 0 0 - 2 4 50.0 0 5 5 0 0 1 1 3 2
p43
aVDoug McDermott CHI 04/05/2016 CHI @ MEM L 24 7 3 5 60.0 1 2 50.0 0 0 - 0 1 1 1 1 0 2 4 -3
p44
aVAaron Brooks CHI 04/05/2016 CHI @ MEM L 12 3 1 4 25.0 1 4 25.0 0 0 - 0 0 0 4 0 0 3 0 -12
p45
aVMike Dunleavy CHI 04/05/2016 CHI @ MEM L 19 5 2 5 40.0 1 3 33.3 0 0 - 0 1 1 0 1 2 0 4 -4
p46
aVJustin Holiday CHI 04/05/2016 CHI @ MEM L 17 9 3 7 42.9 2 3 66.7 1 1 100.0 0 1 1 1 0 1 2 0 -7
p47
aVNikola Mirotic CHI 04/03/2016 CHI @ MIL W 35 19 6 15 40.0 3 9 33.3 4 4 100.0 0 6 6 3 0 0 1 3 7
p48
aVCristiano Felicio CHI 04/03/2016 CHI @ MIL W 14 4 1 5 20.0 0 0 - 2 2 100.0 4 1 5 1 1 0 2 1 -2
p49
aVBobby Portis CHI 04/03/2016 CHI @ MIL W 13 4 2 4 50.0 0 1 0.0 0 0 - 0 1 1 1 0 0 0 1 -3
p50
aVAaron Brooks CHI 04/03/2016 CHI @ MIL W 19 7 3 4 75.0 0 1 0.0 1 1 100.0 0 0 0 2 1 0 2 1 -4
p51
aVDoug McDermott CHI 04/03/2016 CHI @ MIL W 17 7 3 5 60.0 0 1 0.0 1 1 100.0 0 1 1 0 0 0 0 2 5
p52
aVJustin Holiday CHI 04/03/2016 CHI @ MIL W 25 5 2 8 25.0 0 3 0.0 1 2 50.0 1 4 5 4 2 0 1 1 -1
p53
aVE'Twaun Moore CHI 04/03/2016 CHI @ MIL W 27 6 3 7 42.9 0 1 0.0 0 0 - 0 2 2 3 3 0 1 1 3
p54
aVJimmy Butler CHI 04/03/2016 CHI @ MIL W 38 25 10 11 90.9 1 2 50.0 4 4 100.0 1 4 5 8 1 1 2 1 7
p55
aVPau Gasol CHI 04/03/2016 CHI @ MIL W 34 16 7 11 63.6 1 4 25.0 1 2 50.0 0 8 8 8 1 2 2 2 6
p56
aVMike Dunleavy CHI 04/03/2016 CHI @ MIL W 18 9 2 4 50.0 2 4 50.0 3 6 50.0 0 1 1 0 1 1 0 3 2
p57
aVE'Twaun Moore CHI 04/02/2016 CHI vs. DET L 32 8 3 10 30.0 2 5 40.0 0 0 - 1 3 4 1 0 2 1 2 1
p58
aVCristiano Felicio CHI 04/02/2016 CHI vs. DET L 14 3 1 2 50.0 0 0 - 1 2 50.0 1 3 4 1 0 1 0 2 -7
p59
aVAaron Brooks CHI 04/02/2016 CHI vs. DET L 16 14 5 9 55.6 1 3 33.3 3 3 100.0 0 1 1 1 1 0 3 2 -12
p60
aVJimmy Butler CHI 04/02/2016 CHI vs. DET L 39 28 10 25 40.0 1 7 14.3 7 8 87.5 5 12 17 12 3 2 3 4 2
p61
aVNikola Mirotic CHI 04/02/2016 CHI vs. DET L 24 6 2 7 28.6 2 4 50.0 0 0 - 0 0 0 0 0 1 0 3 -8
p62
aVPau Gasol CHI 04/02/2016 CHI vs. DET L 34 16 7 19 36.8 2 3 66.7 0 0 - 2 12 14 3 0 4 0 3 3
p63
aVMike Dunleavy CHI 04/02/2016 CHI vs. DET L 28 2 1 3 33.3 0 0 - 0 0 - 0 0 0 2 1 0 1 3 14
p64
aVJustin Holiday CHI 04/02/2016 CHI vs. DET L 25 3 1 3 33.3 1 2 50.0 0 0 - 0 3 3 1 1 0 2 4 -13
p65
aVDoug McDermott CHI 04/02/2016 CHI vs. DET L 16 4 1 5 20.0 0 1 0.0 2 2 100.0 0 1 1 0 0 0 0 1 -4
p66
aVBobby Portis CHI 04/02/2016 CHI vs. DET L 13 6 3 5 60.0 0 0 - 0 0 - 2 1 3 0 0 0 1 1 4
p67
aVMike Dunleavy CHI 03/31/2016 CHI @ HOU W 9 1 0 1 0.0 0 1 0.0 1 2 50.0 0 0 0 0 0 0 1 1 -18
p68
aVJimmy Butler CHI 03/31/2016 CHI @ HOU W 39 21 8 13 61.5 1 2 50.0 4 4 100.0 1 7 8 6 2 1 3 1 3
p69
aVJustin Holiday CHI 03/31/2016 CHI @ HOU W 10 8 2 2 100.0 1 1 100.0 3 4 75.0 0 3 3 1 1 0 0 0 3
p70
aVDerrick Rose CHI 03/31/2016 CHI @ HOU W 12 0 0 0 - 0 0 - 0 0 - 0 0 0 2 0 0 3 0 -1
p71
aVDoug McDermott CHI 03/31/2016 CHI @ HOU W 37 15 6 14 42.9 1 4 25.0 2 2 100.0 2 7 9 3 0 0 1 3 26
p72
aVPau Gasol CHI 03/31/2016 CHI @ HOU W 32 12 6 14 42.9 0 3 0.0 0 0 - 0 10 10 3 1 1 6 4 1
p73
aVCristiano Felicio CHI 03/31/2016 CHI @ HOU W 15 5 2 4 50.0 0 0 - 1 2 50.0 0 4 4 3 0 1 0 1 6
p74
aVE'Twaun Moore CHI 03/31/2016 CHI @ HOU W 22 8 3 7 42.9 2 2 100.0 0 0 - 1 1 2 4 0 0 0 4 9
p75
aVBobby Portis CHI 03/31/2016 CHI @ HOU W 10 2 1 4 25.0 0 0 - 0 0 - 1 1 2 0 0 0 0 1 -19
p76
aVAaron Brooks CHI 03/31/2016 CHI @ HOU W 16 3 1 4 25.0 1 1 100.0 0 0 - 0 0 0 3 1 0 0 1 -17
p77
aVNikola Mirotic CHI 03/31/2016 CHI @ HOU W 38 28 8 14 57.1 5 10 50.0 7 8 87.5 0 4 4 3 0 1 1 4 22
p78
aVCristiano Felicio CHI 03/29/2016 CHI @ IND W 7 8 3 3 100.0 0 0 - 2 2 100.0 4 1 5 0 0 1 0 1 5
p79
aVJimmy Butler CHI 03/29/2016 CHI @ IND W 36 14 6 10 60.0 0 2 0.0 2 2 100.0 1 3 4 3 2 0 1 4 -12
p80
aVE'Twaun Moore CHI 03/29/2016 CHI @ IND W 24 5 2 6 33.3 1 3 33.3 0 0 - 1 3 4 0 1 1 2 1 11
p81
aVMike Dunleavy CHI 03/29/2016 CHI @ IND W 17 3 1 3 33.3 0 1 0.0 1 2 50.0 0 0 0 1 1 0 0 3 -10
p82
aVDoug McDermott CHI 03/29/2016 CHI @ IND W 16 6 2 6 33.3 1 2 50.0 1 1 100.0 0 2 2 0 0 0 0 1 10
p83
aVAaron Brooks CHI 03/29/2016 CHI @ IND W 20 7 3 6 50.0 1 2 50.0 0 0 - 0 0 0 4 0 0 1 1 16
p84
aVTaj Gibson CHI 03/29/2016 CHI @ IND W 10 0 0 4 0.0 0 0 - 0 0 - 1 2 3 1 0 0 0 0 10
p85
aVDerrick Rose CHI 03/29/2016 CHI @ IND W 29 8 4 15 26.7 0 2 0.0 0 0 - 0 1 1 4 0 0 0 2 -13
p86
aVNikola Mirotic CHI 03/29/2016 CHI @ IND W 37 28 9 18 50.0 7 13 53.8 3 3 100.0 2 8 10 2 1 0 4 3 2
p87
aVPau Gasol CHI 03/29/2016 CHI @ IND W 33 10 4 13 30.8 0 1 0.0 2 3 66.7 3 8 11 7 0 4 7 2 -7
p88
aVBobby Portis CHI 03/29/2016 CHI @ IND W 10 9 3 3 100.0 0 0 - 3 3 100.0 0 1 1 0 0 0 0 1 -6
p89
aVJustin Holiday CHI 03/29/2016 CHI @ IND W 3 0 0 0 - 0 0 - 0 0 - 0 0 0 0 0 0 0 0 4
p90
aVNikola Mirotic CHI 03/28/2016 CHI vs. ATL L 17 5 2 6 33.3 1 3 33.3 0 0 - 0 3 3 2 0 0 0 2 8
p91
aVTaj Gibson CHI 03/28/2016 CHI vs. ATL L 31 9 4 8 50.0 0 0 - 1 2 50.0 4 8 12 0 0 4 0 2 -10
p92
aVMike Dunleavy CHI 03/28/2016 CHI vs. ATL L 20 5 2 8 25.0 1 3 33.3 0 0 - 0 5 5 0 0 0 2 1 -7
p93
aVDoug McDermott CHI 03/28/2016 CHI vs. ATL L 20 1 0 2 0.0 0 1 0.0 1 2 50.0 0 3 3 0 0 0 0 1 3
p94
aVDerrick Rose CHI 03/28/2016 CHI vs. ATL L 34 20 8 25 32.0 2 4 50.0 2 2 100.0 2 3 5 5 2 1 1 1 -1
p95
aVBobby Portis CHI 03/28/2016 CHI vs. ATL L 14 8 3 7 42.9 1 1 100.0 1 2 50.0 3 3 6 0 0 0 0 0 2
p96
aVAaron Brooks CHI 03/28/2016 CHI vs. ATL L 23 16 7 10 70.0 2 2 100.0 0 0 - 2 2 4 6 1 0 2 5 7
p97
aVPau Gasol CHI 03/28/2016 CHI vs. ATL L 34 19 8 18 44.4 0 1 0.0 3 4 75.0 3 9 12 5 1 0 2 3 -4
p98
aVJimmy Butler CHI 03/28/2016 CHI vs. ATL L 35 15 5 16 31.3 2 7 28.6 3 3 100.0 4 4 8 4 0 0 0 2 -2
p99
aVJustin Holiday CHI 03/28/2016 CHI vs. ATL L 12 2 1 6 16.7 0 0 - 0 0 - 0 0 0 0 0 0 0 0 -6
p100
aVBobby Portis CHI 03/26/2016 CHI @ ORL L 19 4 1 8 12.5 0 1 0.0 2 2 100.0 3 4 7 0 0 0 0 2 -16
p101
aVJustin Holiday CHI 03/26/2016 CHI @ ORL L 18 4 1 6 16.7 0 3 0.0 2 2 100.0 0 1 1 2 0 1 0 4 -15
p102
aVAaron Brooks CHI 03/26/2016 CHI @ ORL L 18 6 3 6 50.0 0 1 0.0 0 0 - 0 0 0 3 0 0 2 0 -11
p103
aVTony Snell CHI 03/26/2016 CHI @ ORL L 6 3 1 3 33.3 1 2 50.0 0 0 - 0 0 0 0 0 0 0 1 2
p104
aVPau Gasol CHI 03/26/2016 CHI @ ORL L 22 7 3 6 50.0 0 1 0.0 1 2 50.0 1 4 5 8 0 1 1 2 -3
p105
aVTaj Gibson CHI 03/26/2016 CHI @ ORL L 26 16 8 9 88.9 0 0 - 0 0 - 2 1 3 1 0 0 1 2 -9
p106
aVNikola Mirotic CHI 03/26/2016 CHI @ ORL L 20 4 1 7 14.3 1 7 14.3 1 2 50.0 0 4 4 0 0 0 1 0 -21
p107
aVMike Dunleavy CHI 03/26/2016 CHI @ ORL L 22 10 3 7 42.9 1 2 50.0 3 3 100.0 1 1 2 3 0 0 1 2 -10
p108
aVDoug McDermott CHI 03/26/2016 CHI @ ORL L 21 12 5 10 50.0 2 2 100.0 0 0 - 2 1 3 0 0 0 1 0 -12
p109
aVDerrick Rose CHI 03/26/2016 CHI @ ORL L 29 9 4 14 28.6 1 4 25.0 0 2 0.0 2 1 3 2 0 0 4 0 -13
p110
aVJimmy Butler CHI 03/26/2016 CHI @ ORL L 30 12 5 10 50.0 0 1 0.0 2 4 50.0 0 5 5 1 2 1 1 2 -7
p111
aVCristiano Felicio CHI 03/26/2016 CHI @ ORL L 9 2 1 2 50.0 0 0 - 0 0 - 0 7 7 0 0 0 1 1 5
p112
aVDerrick Rose CHI 03/24/2016 CHI @ NYK L 39 30 13 24 54.2 1 4 25.0 3 4 75.0 0 2 2 3 2 0 1 1 -6
p113
aVAaron Brooks CHI 03/24/2016 CHI @ NYK L 18 6 3 7 42.9 0 3 0.0 0 0 - 1 2 3 1 1 0 0 0 -8
p114
aVCristiano Felicio CHI 03/24/2016 CHI @ NYK L 21 6 3 5 60.0 0 0 - 0 0 - 0 1 1 0 0 1 0 0 -16
p115
aVMike Dunleavy CHI 03/24/2016 CHI @ NYK L 29 9 3 10 30.0 3 7 42.9 0 0 - 0 4 4 2 1 0 1 1 -4
p116
aVBobby Portis CHI 03/24/2016 CHI @ NYK L 17 0 0 4 0.0 0 1 0.0 0 0 - 2 2 4 1 0 0 1 1 -1
p117
aVDoug McDermott CHI 03/24/2016 CHI @ NYK L 14 1 0 3 0.0 0 2 0.0 1 2 50.0 0 0 0 0 0 0 0 0 -5
p118
aVTaj Gibson CHI 03/24/2016 CHI @ NYK L 26 10 4 8 50.0 0 0 - 2 2 100.0 1 5 6 1 1 0 0 4 -6
p119
aVJimmy Butler CHI 03/24/2016 CHI @ NYK L 39 19 7 15 46.7 1 3 33.3 4 6 66.7 1 2 3 3 3 1 4 3 -11
p120
aVNikola Mirotic CHI 03/24/2016 CHI @ NYK L 24 8 2 9 22.2 0 3 0.0 4 4 100.0 2 4 6 3 0 0 1 3 -5
p121
aVJustin Holiday CHI 03/24/2016 CHI @ NYK L 13 5 2 4 50.0 1 2 50.0 0 0 - 0 5 5 1 1 0 0 1 2
p122
aVAaron Brooks CHI 03/23/2016 CHI vs. NYK L 16 10 4 6 66.7 2 3 66.7 0 0 - 0 0 0 5 1 0 2 0 -4
p123
aVDoug McDermott CHI 03/23/2016 CHI vs. NYK L 20 7 2 5 40.0 1 4 25.0 2 2 100.0 0 4 4 1 0 0 0 1 0
p124
aVMike Dunleavy CHI 03/23/2016 CHI vs. NYK L 28 7 3 7 42.9 1 4 25.0 0 0 - 0 4 4 2 0 0 2 0 -8
p125
aVPau Gasol CHI 03/23/2016 CHI vs. NYK L 25 4 2 7 28.6 0 1 0.0 0 0 - 0 5 5 4 1 1 0 2 -14
p126
aVTaj Gibson CHI 03/23/2016 CHI vs. NYK L 20 10 2 4 50.0 0 0 - 6 7 85.7 1 1 2 0 2 1 0 3 -12
p127
aVJimmy Butler CHI 03/23/2016 CHI vs. NYK L 36 7 3 11 27.3 0 1 0.0 1 2 50.0 1 3 4 8 2 1 0 1 -11
p128
aVBobby Portis CHI 03/23/2016 CHI vs. NYK L 17 6 3 6 50.0 0 0 - 0 2 0.0 1 3 4 3 0 1 2 1 9
p129
aVJustin Holiday CHI 03/23/2016 CHI vs. NYK L 12 0 0 2 0.0 0 1 0.0 0 0 - 1 1 2 2 0 1 0 1 3
p130
aVDerrick Rose CHI 03/23/2016 CHI vs. NYK L 32 21 9 17 52.9 2 5 40.0 1 1 100.0 0 3 3 4 0 0 0 1 -4
p131
aVNikola Mirotic CHI 03/23/2016 CHI vs. NYK L 34 35 10 17 58.8 9 13 69.2 6 7 85.7 2 4 6 0 1 0 0 2 1
p132
aVAaron Brooks CHI 03/21/2016 CHI vs. SAC W 15 2 1 4 25.0 0 1 0.0 0 2 0.0 1 2 3 6 1 0 2 1 -11
p133
aVNikola Mirotic CHI 03/21/2016 CHI vs. SAC W 21 6 2 8 25.0 2 4 50.0 0 0 - 0 3 3 2 0 2 3 3 -6
p134
aVTaj Gibson CHI 03/21/2016 CHI vs. SAC W 33 18 7 13 53.8 0 0 - 4 4 100.0 3 0 3 2 4 1 1 2 12
p135
aVJustin Holiday CHI 03/21/2016 CHI vs. SAC W 15 9 3 6 50.0 3 4 75.0 0 0 - 0 1 1 0 0 1 0 1 -11
p136
aVMike Dunleavy CHI 03/21/2016 CHI vs. SAC W 27 9 3 8 37.5 3 6 50.0 0 0 - 0 1 1 1 1 0 1 3 16
p137
aVJimmy Butler CHI 03/21/2016 CHI vs. SAC W 35 11 3 10 30.0 0 1 0.0 5 7 71.4 2 1 3 8 5 0 0 0 16
p138
aVBobby Portis CHI 03/21/2016 CHI vs. SAC W 15 6 3 6 50.0 0 0 - 0 0 - 2 4 6 1 0 0 0 0 -5
p139
aVPau Gasol CHI 03/21/2016 CHI vs. SAC W 25 14 4 10 40.0 0 0 - 6 8 75.0 3 11 14 3 1 3 0 3 15
p140
aVDerrick Rose CHI 03/21/2016 CHI vs. SAC W 33 18 9 15 60.0 0 1 0.0 0 2 0.0 0 5 5 4 1 0 1 0 18
p141
aVDoug McDermott CHI 03/21/2016 CHI vs. SAC W 21 16 6 11 54.5 4 7 57.1 0 0 - 0 1 1 1 0 0 1 3 -9
p142
aVMike Dunleavy CHI 03/19/2016 CHI vs. UTA W 26 1 0 3 0.0 0 3 0.0 1 1 100.0 0 3 3 1 1 0 2 1 7
p143
aVNikola Mirotic CHI 03/19/2016 CHI vs. UTA W 33 15 5 12 41.7 2 6 33.3 3 4 75.0 0 6 6 3 0 2 0 2 -5
p144
aVAaron Brooks CHI 03/19/2016 CHI vs. UTA W 17 4 2 4 50.0 0 2 0.0 0 0 - 0 1 1 2 0 0 2 2 2
p145
aVCristiano Felicio CHI 03/19/2016 CHI vs. UTA W 12 4 2 3 66.7 0 0 - 0 0 - 0 2 2 0 1 0 1 1 9
p146
aVBobby Portis CHI 03/19/2016 CHI vs. UTA W 20 9 3 7 42.9 1 2 50.0 2 3 66.7 3 2 5 2 0 2 0 0 4
p147
aVDerrick Rose CHI 03/19/2016 CHI vs. UTA W 31 22 10 15 66.7 2 2 100.0 0 0 - 1 2 3 4 0 0 3 2 5
p148
aVDoug McDermott CHI 03/19/2016 CHI vs. UTA W 22 7 3 9 33.3 1 2 50.0 0 0 - 1 4 5 2 0 0 0 1 0
p149
aVTaj Gibson CHI 03/19/2016 CHI vs. UTA W 31 15 7 9 77.8 0 0 - 1 1 100.0 6 4 10 3 2 2 1 2 6
p150
aVJimmy Butler CHI 03/19/2016 CHI vs. UTA W 33 13 6 14 42.9 0 0 - 1 2 50.0 0 5 5 6 0 0 1 1 5
p151
aVJustin Holiday CHI 03/19/2016 CHI vs. UTA W 15 2 1 4 25.0 0 2 0.0 0 0 - 0 2 2 1 0 0 1 0 2
p152
aVJustin Holiday CHI 03/17/2016 CHI vs. BKN W 16 5 2 8 25.0 1 3 33.3 0 0 - 0 3 3 2 0 0 0 1 8
p153
aVCristiano Felicio CHI 03/17/2016 CHI vs. BKN W 21 6 2 3 66.7 0 0 - 2 2 100.0 4 6 10 3 1 2 0 1 20
p154
aVBobby Portis CHI 03/17/2016 CHI vs. BKN W 28 12 6 16 37.5 0 2 0.0 0 0 - 8 6 14 1 0 1 1 2 22
p155
aVDoug McDermott CHI 03/17/2016 CHI vs. BKN W 28 25 8 16 50.0 5 8 62.5 4 4 100.0 0 3 3 1 0 0 0 1 24
p156
aVJimmy Butler CHI 03/17/2016 CHI vs. BKN W 32 22 7 12 58.3 0 1 0.0 8 8 100.0 0 3 3 7 1 0 1 1 8
p157
aVTaj Gibson CHI 03/17/2016 CHI vs. BKN W 27 12 6 10 60.0 0 0 - 0 0 - 4 2 6 2 1 2 2 2 -4
p158
aVDerrick Rose CHI 03/17/2016 CHI vs. BKN W 29 12 5 12 41.7 1 1 100.0 1 1 100.0 0 3 3 5 1 0 1 1 -3
p159
aVMike Dunleavy CHI 03/17/2016 CHI vs. BKN W 20 3 1 4 25.0 1 3 33.3 0 0 - 0 4 4 2 1 1 1 1 -8
p160
aVAaron Brooks CHI 03/17/2016 CHI vs. BKN W 16 12 5 7 71.4 2 3 66.7 0 0 - 0 0 0 3 1 0 1 2 13
p161
aVE'Twaun Moore CHI 03/17/2016 CHI vs. BKN W 2 0 0 0 - 0 0 - 0 0 - 0 1 1 0 0 0 0 1 6
p162
aVNikola Mirotic CHI 03/17/2016 CHI vs. BKN W 20 9 4 6 66.7 1 3 33.3 0 0 - 0 3 3 0 0 2 2 3 -6
p163
aVBobby Portis CHI 03/16/2016 CHI @ WAS L 25 8 3 8 37.5 0 1 0.0 2 2 100.0 1 4 5 3 1 1 0 3 -1
p164
aVJustin Holiday CHI 03/16/2016 CHI @ WAS L 30 13 6 10 60.0 1 2 50.0 0 0 - 1 5 6 1 0 1 3 3 -3
p165
aVAaron Brooks CHI 03/16/2016 CHI @ WAS L 9 8 3 6 50.0 1 2 50.0 1 2 50.0 1 0 1 2 1 0 3 1 -5
p166
aVTony Snell CHI 03/16/2016 CHI @ WAS L 2 0 0 0 - 0 0 - 0 0 - 0 0 0 0 0 0 0 0 -3
p167
aVDoug McDermott CHI 03/16/2016 CHI @ WAS L 31 20 6 10 60.0 3 6 50.0 5 5 100.0 0 1 1 2 1 0 0 2 -9
p168
aVNikola Mirotic CHI 03/16/2016 CHI @ WAS L 24 7 3 6 50.0 1 3 33.3 0 0 - 0 1 1 1 0 0 1 1 -16
p169
aVDerrick Rose CHI 03/16/2016 CHI @ WAS L 29 16 7 19 36.8 0 1 0.0 2 2 100.0 0 3 3 4 2 0 4 0 -5
p170
aVJimmy Butler CHI 03/16/2016 CHI @ WAS L 29 17 4 12 33.3 0 2 0.0 9 11 81.8 1 5 6 3 3 0 1 1 -26
p171
aVE'Twaun Moore CHI 03/16/2016 CHI @ WAS L 20 2 1 4 25.0 0 0 - 0 0 - 1 3 4 2 0 0 3 3 4
p172
aVTaj Gibson CHI 03/16/2016 CHI @ WAS L 7 3 1 4 25.0 0 0 - 1 1 100.0 1 4 5 1 1 0 2 2 -18
p173
aVCristiano Felicio CHI 03/16/2016 CHI @ WAS L 17 2 1 4 25.0 0 0 - 0 0 - 3 3 6 1 1 0 0 1 -7
p174
aVMike Dunleavy CHI 03/16/2016 CHI @ WAS L 18 0 0 4 0.0 0 3 0.0 0 0 - 0 2 2 0 0 1 1 3 -16
p175
aVBobby Portis CHI 03/14/2016 CHI @ TOR W 23 6 3 6 50.0 0 1 0.0 0 0 - 1 6 7 1 0 0 0 3 0
p176
aVAaron Brooks CHI 03/14/2016 CHI @ TOR W 17 7 2 8 25.0 0 4 0.0 3 3 100.0 0 0 0 4 0 0 1 2 -10
p177
aVTony Snell CHI 03/14/2016 CHI @ TOR W 12 2 1 4 25.0 0 1 0.0 0 0 - 0 1 1 1 0 0 1 1 -2
p178
aVCristiano Felicio CHI 03/14/2016 CHI @ TOR W 6 0 0 1 0.0 0 0 - 0 0 - 0 2 2 0 0 0 0 1 1
p179
aVE'Twaun Moore CHI 03/14/2016 CHI @ TOR W 31 17 8 11 72.7 1 2 50.0 0 0 - 0 4 4 4 0 1 0 3 12
p180
aVDoug McDermott CHI 03/14/2016 CHI @ TOR W 36 29 9 11 81.8 4 5 80.0 7 8 87.5 0 1 1 1 0 1 0 1 5
p181
aVNikola Mirotic CHI 03/14/2016 CHI @ TOR W 32 17 5 12 41.7 3 8 37.5 4 4 100.0 1 4 5 2 1 1 3 3 0
p182
aVJimmy Butler CHI 03/14/2016 CHI @ TOR W 34 13 5 18 27.8 0 2 0.0 3 4 75.0 1 4 5 6 0 2 0 1 -9
p183
aVTaj Gibson CHI 03/14/2016 CHI @ TOR W 35 13 6 8 75.0 0 0 - 1 1 100.0 5 5 10 3 1 1 1 3 0
p184
aVJustin Holiday CHI 03/14/2016 CHI @ TOR W 14 5 2 4 50.0 1 2 50.0 0 0 - 0 3 3 1 0 1 2 4 13
p185
aVPau Gasol CHI 03/11/2016 CHI vs. MIA L 30 17 7 12 58.3 2 3 66.7 1 2 50.0 3 9 12 9 0 2 6 2 -15
p186
aVCristiano Felicio CHI 03/11/2016 CHI vs. MIA L 4 1 0 1 0.0 0 0 - 1 2 50.0 0 3 3 0 0 0 0 0 1
p187
aVJustin Holiday CHI 03/11/2016 CHI vs. MIA L 38 14 6 15 40.0 1 2 50.0 1 1 100.0 2 2 4 1 2 2 2 2 0
p188
aVTaj Gibson CHI 03/11/2016 CHI vs. MIA L 25 13 6 10 60.0 0 0 - 1 1 100.0 1 5 6 2 0 1 2 0 -22
p189
aVMike Dunleavy CHI 03/11/2016 CHI vs. MIA L 25 8 3 4 75.0 1 2 50.0 1 1 100.0 0 2 2 2 1 0 2 1 -19
p190
aVAaron Brooks CHI 03/11/2016 CHI vs. MIA L 21 11 4 12 33.3 1 3 33.3 2 2 100.0 0 1 1 3 0 0 1 0 -6
p191
aVNikola Mirotic CHI 03/11/2016 CHI vs. MIA L 19 6 1 4 25.0 0 2 0.0 4 4 100.0 0 3 3 1 1 0 1 2 -1
p192
aVDoug McDermott CHI 03/11/2016 CHI vs. MIA L 23 10 4 9 44.4 2 4 50.0 0 0 - 0 2 2 1 1 0 1 1 -19
p193
aVTony Snell CHI 03/11/2016 CHI vs. MIA L 10 5 2 3 66.7 1 2 50.0 0 0 - 0 0 0 1 1 0 1 3 -6
p194
aVBobby Portis CHI 03/11/2016 CHI vs. MIA L 18 5 2 3 66.7 0 1 0.0 1 2 50.0 1 3 4 2 1 0 0 2 -7
p195
aVE'Twaun Moore CHI 03/11/2016 CHI vs. MIA L 27 6 3 8 37.5 0 2 0.0 0 0 - 0 2 2 5 0 1 2 1 -16
p196
aVTaj Gibson CHI 03/10/2016 CHI @ SAS L 22 8 3 7 42.9 0 0 - 2 2 100.0 3 2 5 1 1 0 2 4 -13
p197
aVDoug McDermott CHI 03/10/2016 CHI @ SAS L 22 4 1 4 25.0 0 1 0.0 2 2 100.0 0 2 2 2 0 0 0 1 1
p198
aVE'Twaun Moore CHI 03/10/2016 CHI @ SAS L 36 20 8 12 66.7 4 5 80.0 0 0 - 0 6 6 4 1 1 3 2 -9
p199
aVDerrick Rose CHI 03/10/2016 CHI @ SAS L 36 21 9 21 42.9 1 2 50.0 2 2 100.0 2 1 3 6 0 0 2 0 -1
p200
aVJustin Holiday CHI 03/10/2016 CHI @ SAS L 21 12 5 8 62.5 2 3 66.7 0 0 - 1 1 2 1 1 1 3 3 -11
p201
aVPau Gasol CHI 03/10/2016 CHI @ SAS L 35 21 8 16 50.0 1 1 100.0 4 4 100.0 4 8 12 4 0 2 7 0 -2
p202
aVBobby Portis CHI 03/10/2016 CHI @ SAS L 11 0 0 3 0.0 0 0 - 0 0 - 0 4 4 0 0 0 0 2 -5
p203
aVNikola Mirotic CHI 03/10/2016 CHI @ SAS L 28 8 3 7 42.9 2 5 40.0 0 0 - 1 9 10 2 2 1 3 3 4
p204
aVMike Dunleavy CHI 03/10/2016 CHI @ SAS L 29 7 2 8 25.0 1 5 20.0 2 3 66.7 0 6 6 3 0 0 1 3 -4
p205
aVPau Gasol CHI 03/07/2016 CHI vs. MIL W 35 12 4 14 28.6 0 1 0.0 4 5 80.0 0 17 17 13 1 5 1 2 15
p206
aVTaj Gibson CHI 03/07/2016 CHI vs. MIL W 37 12 6 8 75.0 0 0 - 0 1 0.0 3 7 10 2 1 3 2 1 5
p207
aVNikola Mirotic CHI 03/07/2016 CHI vs. MIL W 20 14 4 9 44.4 2 5 40.0 4 5 80.0 1 5 6 3 1 2 3 2 10
p208
aVDoug McDermott CHI 03/07/2016 CHI vs. MIL W 13 4 2 6 33.3 0 2 0.0 0 0 - 0 3 3 0 0 0 0 2 -4
p209
aVMike Dunleavy CHI 03/07/2016 CHI vs. MIL W 35 18 7 9 77.8 4 6 66.7 0 0 - 0 4 4 2 0 0 1 3 14
p210
aVAaron Brooks CHI 03/07/2016 CHI vs. MIL W 4 0 0 1 0.0 0 1 0.0 0 0 - 0 0 0 0 0 0 1 1 -7
p211
aVDerrick Rose CHI 03/07/2016 CHI vs. MIL W 39 22 9 18 50.0 2 6 33.3 2 2 100.0 1 0 1 7 1 0 6 1 20
p212
aVE'Twaun Moore CHI 03/07/2016 CHI vs. MIL W 36 16 6 11 54.5 2 4 50.0 2 2 100.0 0 1 1 7 0 0 0 4 11
p213
aVJustin Holiday CHI 03/07/2016 CHI vs. MIL W 17 2 1 2 50.0 0 0 - 0 0 - 1 0 1 1 1 1 4 1 -4
p214
aVBobby Portis CHI 03/07/2016 CHI vs. MIL W 4 0 0 0 - 0 0 - 0 0 - 0 1 1 0 0 0 0 1 -10
p215
aVNikola Mirotic CHI 03/05/2016 CHI vs. HOU W 16 7 2 5 40.0 2 3 66.7 1 2 50.0 0 2 2 1 1 0 1 2 0
p216
aVMike Dunleavy CHI 03/05/2016 CHI vs. HOU W 29 12 4 7 57.1 2 4 50.0 2 2 100.0 0 4 4 1 1 0 1 3 20
p217
aVBobby Portis CHI 03/05/2016 CHI vs. HOU W 4 0 0 2 0.0 0 1 0.0 0 0 - 1 0 1 1 0 0 1 1 -6
p218
aVE'Twaun Moore CHI 03/05/2016 CHI vs. HOU W 26 9 4 8 50.0 1 2 50.0 0 0 - 0 3 3 2 1 0 1 4 -3
p219
aVDoug McDermott CHI 03/05/2016 CHI vs. HOU W 22 7 3 9 33.3 1 3 33.3 0 0 - 1 3 4 0 0 0 2 2 -18
p220
aVJimmy Butler CHI 03/05/2016 CHI vs. HOU W 34 24 6 13 46.2 1 2 50.0 11 12 91.7 0 11 11 6 1 0 5 6 28
p221
aVTaj Gibson CHI 03/05/2016 CHI vs. HOU W 38 4 2 7 28.6 0 0 - 0 0 - 4 3 7 2 2 1 0 0 16
p222
aVPau Gasol CHI 03/05/2016 CHI vs. HOU W 38 28 9 18 50.0 0 2 0.0 10 14 71.4 6 11 17 6 2 2 8 2 6
p223
aVJustin Holiday CHI 03/05/2016 CHI vs. HOU W 4 0 0 0 - 0 0 - 0 0 - 0 1 1 0 0 0 0 0 -9
p224
aVDerrick Rose CHI 03/05/2016 CHI vs. HOU W 29 17 6 10 60.0 2 4 50.0 3 4 75.0 0 3 3 9 0 1 6 1 6
p225
aVPau Gasol CHI 03/02/2016 CHI @ ORL L 28 12 5 13 38.5 0 1 0.0 2 2 100.0 0 5 5 1 0 2 1 2 -18
p226
aVDoug McDermott CHI 03/02/2016 CHI @ ORL L 33 11 5 15 33.3 1 5 20.0 0 2 0.0 2 2 4 0 0 0 0 2 1
p227
aVMike Dunleavy CHI 03/02/2016 CHI @ ORL L 21 8 3 9 33.3 2 3 66.7 0 0 - 2 4 6 1 1 0 1 1 -8
p228
aVJustin Holiday CHI 03/02/2016 CHI @ ORL L 28 6 2 10 20.0 1 3 33.3 1 2 50.0 0 4 4 4 3 0 0 2 4
p229
aVBobby Portis CHI 03/02/2016 CHI @ ORL L 26 9 4 11 36.4 0 0 - 1 2 50.0 0 6 6 5 0 0 1 3 -10
p230
aVE'Twaun Moore CHI 03/02/2016 CHI @ ORL L 28 9 4 9 44.4 0 1 0.0 1 1 100.0 1 2 3 3 0 0 1 1 -21
p231
aVTony Snell CHI 03/02/2016 CHI @ ORL L 19 3 1 3 33.3 1 2 50.0 0 0 - 0 5 5 1 0 0 0 3 3
p232
aVCameron Bairstow CHI 03/02/2016 CHI @ ORL L 10 8 4 5 80.0 0 0 - 0 0 - 0 2 2 0 0 0 0 2 -4
p233
aVAaron Brooks CHI 03/02/2016 CHI @ ORL L 17 7 3 10 30.0 1 4 25.0 0 0 - 0 4 4 2 1 0 0 1 -6
p234
aVCristiano Felicio CHI 03/02/2016 CHI @ ORL L 5 0 0 0 - 0 0 - 0 0 - 0 5 5 1 0 0 1 0 8
p235
aVDerrick Rose CHI 03/02/2016 CHI @ ORL L 25 16 7 14 50.0 0 0 - 2 2 100.0 0 4 4 6 1 0 2 0 -14
p236
aVE'Twaun Moore CHI 03/01/2016 CHI @ MIA L 19 8 3 6 50.0 2 4 50.0 0 0 - 0 2 2 2 2 0 1 4 -6
p237
aVAaron Brooks CHI 03/01/2016 CHI @ MIA L 22 16 5 15 33.3 3 5 60.0 3 5 60.0 0 2 2 1 0 0 0 2 -4
p238
aVDoug McDermott CHI 03/01/2016 CHI @ MIA L 26 11 5 12 41.7 0 2 0.0 1 1 100.0 1 0 1 1 1 0 1 0 -7
p239
aVTaj Gibson CHI 03/01/2016 CHI @ MIA L 23 13 4 6 66.7 0 0 - 5 7 71.4 2 1 3 1 1 0 1 2 -8
p240
aVCristiano Felicio CHI 03/01/2016 CHI @ MIA L 6 0 0 3 0.0 0 0 - 0 0 - 1 0 1 1 0 0 0 1 -7
p241
aVTony Snell CHI 03/01/2016 CHI @ MIA L 15 2 1 3 33.3 0 1 0.0 0 0 - 0 0 0 1 0 0 1 3 -4
p242
aVCameron Bairstow CHI 03/01/2016 CHI @ MIA L 1 1 0 0 - 0 0 - 1 2 50.0 0 1 1 0 0 0 0 0 2
p243
aVJustin Holiday CHI 03/01/2016 CHI @ MIA L 16 7 2 6 33.3 1 3 33.3 2 2 100.0 0 1 1 3 1 1 0 1 -8
p244
aVMike Dunleavy CHI 03/01/2016 CHI @ MIA L 29 10 4 7 57.1 2 4 50.0 0 0 - 1 1 2 1 0 0 0 3 -7
p245
aVPau Gasol CHI 03/01/2016 CHI @ MIA L 30 15 6 13 46.2 1 2 50.0 2 2 100.0 1 8 9 6 0 1 1 2 -16
p246
aVBobby Portis CHI 03/01/2016 CHI @ MIA L 27 11 5 8 62.5 1 1 100.0 0 0 - 2 5 7 0 4 0 1 4 -6
p247
aVDerrick Rose CHI 03/01/2016 CHI @ MIA L 24 17 6 11 54.5 1 1 100.0 4 7 57.1 0 0 0 3 1 0 3 0 -19
p248
aVE'Twaun Moore CHI 02/27/2016 CHI vs. POR L 38 19 9 22 40.9 1 3 33.3 0 0 - 0 3 3 3 1 0 1 1 -5
p249
aVJustin Holiday CHI 02/27/2016 CHI vs. POR L 16 0 0 1 0.0 0 1 0.0 0 0 - 0 1 1 0 0 0 0 0 -12
p250
aVBobby Portis CHI 02/27/2016 CHI vs. POR L 28 10 5 12 41.7 0 1 0.0 0 0 - 4 12 16 2 0 1 0 1 -8
p251
aVPau Gasol CHI 02/27/2016 CHI vs. POR L 37 22 9 16 56.3 0 0 - 4 5 80.0 3 13 16 14 1 3 3 3 3
p252
aVCristiano Felicio CHI 02/27/2016 CHI vs. POR L 2 0 0 0 - 0 0 - 0 0 - 0 1 1 1 0 0 0 0 -2
p253
aVMike Dunleavy CHI 02/27/2016 CHI vs. POR L 28 13 5 12 41.7 2 7 28.6 1 1 100.0 0 5 5 5 0 0 3 3 -1
p254
aVTaj Gibson CHI 02/27/2016 CHI vs. POR L 20 7 3 5 60.0 0 0 - 1 1 100.0 0 3 3 0 0 2 0 5 -7
p255
aVDoug McDermott CHI 02/27/2016 CHI vs. POR L 32 18 6 14 42.9 2 5 40.0 4 5 80.0 0 1 1 1 1 0 0 2 -7
p256
aVTony Snell CHI 02/27/2016 CHI vs. POR L 27 0 0 5 0.0 0 2 0.0 0 0 - 3 1 4 4 0 0 0 3 1
p257
aVAaron Brooks CHI 02/27/2016 CHI vs. POR L 11 6 2 7 28.6 2 3 66.7 0 0 - 0 0 0 3 1 0 2 3 -2
p258
aVDoug McDermott CHI 02/26/2016 CHI @ ATL L 31 20 6 13 46.2 1 4 25.0 7 7 100.0 3 2 5 0 0 0 0 1 -1
p259
aVCameron Bairstow CHI 02/26/2016 CHI @ ATL L 2 3 1 1 100.0 1 1 100.0 0 0 - 0 0 0 1 0 0 1 1 2
p260
aVTony Snell CHI 02/26/2016 CHI @ ATL L 20 4 2 8 25.0 0 3 0.0 0 0 - 2 0 2 2 0 0 1 3 -16
p261
aVJustin Holiday CHI 02/26/2016 CHI @ ATL L 20 3 1 4 25.0 1 2 50.0 0 0 - 0 2 2 2 1 0 0 2 3
p262
aVPau Gasol CHI 02/26/2016 CHI @ ATL L 32 16 6 22 27.3 0 2 0.0 4 5 80.0 5 12 17 3 0 0 4 0 -10
p263
aVMike Dunleavy CHI 02/26/2016 CHI @ ATL L 25 6 2 6 33.3 1 3 33.3 1 3 33.3 1 7 8 1 1 1 0 0 -16
p264
aVCristiano Felicio CHI 02/26/2016 CHI @ ATL L 6 2 1 2 50.0 0 0 - 0 0 - 0 1 1 0 0 0 1 0 -2
p265
aVAaron Brooks CHI 02/26/2016 CHI @ ATL L 26 9 3 6 50.0 1 2 50.0 2 2 100.0 0 1 1 5 0 0 5 4 5
p266
aVTaj Gibson CHI 02/26/2016 CHI @ ATL L 31 11 4 7 57.1 0 0 - 3 3 100.0 4 3 7 3 0 1 4 4 -16
p267
aVBobby Portis CHI 02/26/2016 CHI @ ATL L 23 8 3 11 27.3 0 2 0.0 2 2 100.0 2 3 5 1 1 0 1 1 -4
p268
aVE'Twaun Moore CHI 02/26/2016 CHI @ ATL L 22 6 3 8 37.5 0 1 0.0 0 0 - 0 1 1 1 0 0 3 4 -20
p269
aVTaj Gibson CHI 02/24/2016 CHI vs. WAS W 30 17 6 10 60.0 0 0 - 5 6 83.3 3 4 7 7 2 0 1 1 22
p270
aVPau Gasol CHI 02/24/2016 CHI vs. WAS W 32 10 3 5 60.0 0 1 0.0 4 4 100.0 1 14 15 9 1 0 3 2 15
p271
aVJustin Holiday CHI 02/24/2016 CHI vs. WAS W 7 3 1 2 50.0 1 2 50.0 0 0 - 0 1 1 1 0 0 1 1 -5
p272
aVDoug McDermott CHI 02/24/2016 CHI vs. WAS W 29 14 6 11 54.5 0 2 0.0 2 2 100.0 0 5 5 2 0 0 1 3 0
p273
aVE'Twaun Moore CHI 02/24/2016 CHI vs. WAS W 29 17 8 16 50.0 1 3 33.3 0 0 - 0 3 3 1 2 0 2 2 8
p274
aVAaron Brooks CHI 02/24/2016 CHI vs. WAS W 20 11 5 15 33.3 0 5 0.0 1 2 50.0 0 0 0 2 0 0 1 2 -7
p275
aVBobby Portis CHI 02/24/2016 CHI vs. WAS W 20 5 2 8 25.0 0 1 0.0 1 2 50.0 1 6 7 0 0 0 4 1 -12
p276
aVTony Snell CHI 02/24/2016 CHI vs. WAS W 34 16 6 11 54.5 4 5 80.0 0 0 - 0 4 4 3 0 0 2 4 13
p277
aVCristiano Felicio CHI 02/24/2016 CHI vs. WAS W 12 2 1 1 100.0 0 0 - 0 0 - 1 3 4 0 1 1 0 1 -17
p278
aVMike Dunleavy CHI 02/24/2016 CHI vs. WAS W 28 14 6 9 66.7 2 4 50.0 0 0 - 1 3 4 1 0 1 0 5 8
p279
aVE'Twaun Moore CHI 02/21/2016 CHI vs. LAL W 41 24 10 14 71.4 4 4 100.0 0 0 - 1 3 4 1 1 1 1 1 4
p280
aVAaron Brooks CHI 02/21/2016 CHI vs. LAL W 17 2 1 6 16.7 0 3 0.0 0 0 - 0 3 3 9 1 0 1 1 15
p281
aVTony Snell CHI 02/21/2016 CHI vs. LAL W 9 0 0 0 - 0 0 - 0 0 - 0 0 0 0 0 0 0 0 9
p282
aVCristiano Felicio CHI 02/21/2016 CHI vs. LAL W 4 0 0 0 - 0 0 - 0 0 - 1 0 1 0 0 0 0 1 3
p283
aVTaj Gibson CHI 02/21/2016 CHI vs. LAL W 29 5 2 5 40.0 0 0 - 1 2 50.0 2 6 8 4 0 1 2 5 3
p284
aVDoug McDermott CHI 02/21/2016 CHI vs. LAL W 21 16 6 9 66.7 3 4 75.0 1 1 100.0 0 0 0 0 0 0 0 1 -5
p285
aVPau Gasol CHI 02/21/2016 CHI vs. LAL W 38 21 7 15 46.7 1 1 100.0 6 6 100.0 0 7 7 5 0 5 0 2 19
p286
aVBobby Portis CHI 02/21/2016 CHI vs. LAL W 25 17 6 9 66.7 3 3 100.0 2 2 100.0 0 7 7 3 0 0 2 5 -3
p287
aVDerrick Rose CHI 02/21/2016 CHI vs. LAL W 31 24 8 15 53.3 0 1 0.0 8 8 100.0 3 4 7 6 0 0 2 2 -4
p288
aVMike Dunleavy CHI 02/21/2016 CHI vs. LAL W 25 17 4 6 66.7 2 3 66.7 7 7 100.0 1 0 1 2 0 0 0 3 14
p289
aVAaron Brooks CHI 02/19/2016 CHI vs. TOR W 13 3 1 8 12.5 0 3 0.0 1 2 50.0 0 2 2 4 1 0 2 4 6
p290
aVBobby Portis CHI 02/19/2016 CHI vs. TOR W 22 8 4 9 44.4 0 0 - 0 0 - 1 7 8 0 1 1 0 1 8
p291
aVTony Snell CHI 02/19/2016 CHI vs. TOR W 11 0 0 3 0.0 0 2 0.0 0 0 - 0 2 2 1 0 1 1 2 -7
p292
aVDoug McDermott CHI 02/19/2016 CHI vs. TOR W 31 30 13 17 76.5 4 5 80.0 0 0 - 2 2 4 1 0 0 0 3 15
p293
aVMike Dunleavy CHI 02/19/2016 CHI vs. TOR W 23 5 2 5 40.0 1 2 50.0 0 0 - 1 2 3 1 0 1 1 3 4
p294
aVDerrick Rose CHI 02/19/2016 CHI vs. TOR W 35 26 12 20 60.0 1 2 50.0 1 2 50.0 2 1 3 6 0 0 4 1 4
p295
aVPau Gasol CHI 02/19/2016 CHI vs. TOR W 32 18 6 16 37.5 0 0 - 6 7 85.7 0 11 11 9 0 1 1 3 4
p296
aVTaj Gibson CHI 02/19/2016 CHI vs. TOR W 24 9 4 6 66.7 0 0 - 1 3 33.3 2 4 6 1 1 1 0 4 -11
p297
aVE'Twaun Moore CHI 02/19/2016 CHI vs. TOR W 35 9 3 6 50.0 1 2 50.0 2 2 100.0 2 5 7 6 1 0 0 3 15
p298
aVCristiano Felicio CHI 02/19/2016 CHI vs. TOR W 14 8 3 3 100.0 0 0 - 2 4 50.0 1 2 3 3 0 1 0 3 12
p299
aVBobby Portis CHI 02/18/2016 CHI @ CLE L 26 13 6 16 37.5 1 1 100.0 0 0 - 7 3 10 1 0 0 2 3 -1
p300
aVDerrick Rose CHI 02/18/2016 CHI @ CLE L 30 28 11 19 57.9 2 3 66.7 4 4 100.0 0 7 7 2 1 0 3 0 -15
p301
aVDoug McDermott CHI 02/18/2016 CHI @ CLE L 24 3 1 6 16.7 1 5 20.0 0 0 - 0 1 1 0 1 1 1 3 -1
p302
aVE'Twaun Moore CHI 02/18/2016 CHI @ CLE L 22 5 2 7 28.6 0 2 0.0 1 2 50.0 0 1 1 0 0 1 1 1 -11
p303
aVPau Gasol CHI 02/18/2016 CHI @ CLE L 31 14 6 13 46.2 0 1 0.0 2 4 50.0 3 6 9 4 0 1 1 3 -14
p304
aVMike Dunleavy CHI 02/18/2016 CHI @ CLE L 17 5 2 9 22.2 1 3 33.3 0 0 - 0 1 1 0 0 0 1 3 -14
p305
aVAaron Brooks CHI 02/18/2016 CHI @ CLE L 18 8 2 5 40.0 2 3 66.7 2 4 50.0 0 1 1 1 1 0 2 2 4
p306
aVTaj Gibson CHI 02/18/2016 CHI @ CLE L 32 7 3 7 42.9 0 0 - 1 4 25.0 3 5 8 1 0 0 0 3 -17
p307
aVCameron Bairstow CHI 02/18/2016 CHI @ CLE L 4 2 0 1 0.0 0 0 - 2 2 100.0 0 0 0 0 0 0 1 0 4
p308
aVTony Snell CHI 02/18/2016 CHI @ CLE L 33 9 4 9 44.4 1 2 50.0 0 0 - 1 6 7 2 0 1 1 1 6
p309
aVCristiano Felicio CHI 02/18/2016 CHI @ CLE L 4 1 0 1 0.0 0 1 0.0 1 2 50.0 1 3 4 1 1 0 0 0 4
p310
aVAaron Brooks CHI 02/10/2016 CHI vs. ATL L 13 9 4 7 57.1 1 2 50.0 0 0 - 0 2 2 0 1 0 2 3 -7
p311
aVDerrick Rose CHI 02/10/2016 CHI vs. ATL L 29 14 6 18 33.3 2 2 100.0 0 0 - 2 3 5 3 1 0 2 2 -14
p312
aVE'Twaun Moore CHI 02/10/2016 CHI vs. ATL L 29 8 4 10 40.0 0 1 0.0 0 2 0.0 2 4 6 5 2 0 4 2 -10
p313
aVBobby Portis CHI 02/10/2016 CHI vs. ATL L 24 12 5 11 45.5 0 1 0.0 2 2 100.0 4 6 10 1 0 1 2 0 -17
p314
aVTony Snell CHI 02/10/2016 CHI vs. ATL L 17 2 1 1 100.0 0 0 - 0 0 - 0 2 2 0 0 0 1 0 -7
p315
aVPau Gasol CHI 02/10/2016 CHI vs. ATL L 30 20 9 16 56.3 0 2 0.0 2 3 66.7 2 8 10 5 0 0 2 1 -12
p316
aVTaj Gibson CHI 02/10/2016 CHI vs. ATL L 22 4 2 3 66.7 0 0 - 0 0 - 1 2 3 1 0 2 0 2 -1
p317
aVDoug McDermott CHI 02/10/2016 CHI vs. ATL L 37 17 6 12 50.0 2 5 40.0 3 3 100.0 0 3 3 1 1 0 3 1 -29
p318
aVMike Dunleavy CHI 02/10/2016 CHI vs. ATL L 11 2 0 3 0.0 0 1 0.0 2 2 100.0 0 1 1 1 1 0 0 4 6
p319
aVKirk Hinrich CHI 02/10/2016 CHI vs. ATL L 10 2 1 1 100.0 0 0 - 0 0 - 0 0 0 2 0 0 1 1 -7
p320
aVCristiano Felicio CHI 02/10/2016 CHI vs. ATL L 4 0 0 0 - 0 0 - 0 0 - 0 0 0 1 0 0 1 0 -4
p321
aVCameron Bairstow CHI 02/10/2016 CHI vs. ATL L 14 0 0 4 0.0 0 0 - 0 0 - 0 3 3 1 1 0 0 1 -13
p322
aVMike Dunleavy CHI 02/08/2016 CHI @ CHA L 16 8 3 7 42.9 2 3 66.7 0 0 - 0 1 1 2 0 0 1 0 -3
p323
aVTaj Gibson CHI 02/08/2016 CHI @ CHA L 22 11 5 10 50.0 0 0 - 1 2 50.0 2 5 7 0 0 0 1 2 -9
p324
aVAaron Brooks CHI 02/08/2016 CHI @ CHA L 20 4 2 12 16.7 0 1 0.0 0 0 - 0 1 1 4 0 1 0 4 -3
p325
aVCameron Bairstow CHI 02/08/2016 CHI @ CHA L 19 6 2 8 25.0 0 1 0.0 2 2 100.0 0 2 2 2 0 2 0 2 3
p326
aVBobby Portis CHI 02/08/2016 CHI @ CHA L 20 6 2 7 28.6 1 1 100.0 1 2 50.0 3 3 6 1 0 1 0 5 -7
p327
aVE'Twaun Moore CHI 02/08/2016 CHI @ CHA L 32 12 5 10 50.0 2 4 50.0 0 0 - 0 3 3 2 2 1 2 3 -23
p328
aVTony Snell CHI 02/08/2016 CHI @ CHA L 19 5 1 4 25.0 0 2 0.0 3 4 75.0 1 5 6 2 0 0 0 0 7
p329
aVKirk Hinrich CHI 02/08/2016 CHI @ CHA L 26 3 1 8 12.5 1 5 20.0 0 0 - 0 2 2 5 1 0 2 3 -15
p330
aVCristiano Felicio CHI 02/08/2016 CHI @ CHA L 2 0 0 0 - 0 0 - 0 0 - 0 0 0 0 0 0 0 0 1
p331
aVDoug McDermott CHI 02/08/2016 CHI @ CHA L 32 14 6 11 54.5 1 3 33.3 1 1 100.0 0 3 3 0 0 0 0 3 -14
p332
aVPau Gasol CHI 02/08/2016 CHI @ CHA L 33 22 8 13 61.5 3 5 60.0 3 3 100.0 2 8 10 7 2 3 1 0 -22
p333
aVE'Twaun Moore CHI 02/06/2016 CHI @ MIN L 38 17 7 13 53.8 3 6 50.0 0 0 - 0 2 2 7 0 0 0 2 -11
p334
aVDerrick Rose CHI 02/06/2016 CHI @ MIN L 33 18 6 20 30.0 0 3 0.0 6 7 85.7 3 2 5 10 1 0 3 3 -3
p335
aVAaron Brooks CHI 02/06/2016 CHI @ MIN L 9 0 0 2 0.0 0 0 - 0 0 - 0 1 1 1 1 0 2 1 -6
p336
aVMike Dunleavy CHI 02/06/2016 CHI @ MIN L 14 5 2 4 50.0 1 1 100.0 0 0 - 0 0 0 0 0 0 1 2 -1
p337
aVKirk Hinrich CHI 02/06/2016 CHI @ MIN L 17 8 3 6 50.0 2 3 66.7 0 0 - 0 3 3 3 0 0 0 0 6
p338
aVPau Gasol CHI 02/06/2016 CHI @ MIN L 34 25 8 16 50.0 2 4 50.0 7 7 100.0 1 7 8 3 1 2 1 1 -8
p339
aVTaj Gibson CHI 02/06/2016 CHI @ MIN L 32 7 3 6 50.0 0 0 - 1 2 50.0 4 2 6 3 1 1 3 3 6
p340
aVDoug McDermott CHI 02/06/2016 CHI @ MIN L 26 8 3 8 37.5 0 3 0.0 2 2 100.0 0 3 3 0 0 0 0 1 0
p341
aVTony Snell CHI 02/06/2016 CHI @ MIN L 10 2 1 1 100.0 0 0 - 0 0 - 0 0 0 0 0 0 1 1 -10
p342
aVBobby Portis CHI 02/06/2016 CHI @ MIN L 28 15 7 9 77.8 0 0 - 1 1 100.0 1 2 3 0 1 1 0 3 -8
p343
aVBobby Portis CHI 02/05/2016 CHI @ DEN L 27 8 4 12 33.3 0 0 - 0 2 0.0 4 3 7 2 2 0 0 5 -13
p344
aVTaj Gibson CHI 02/05/2016 CHI @ DEN L 36 18 7 13 53.8 0 0 - 4 6 66.7 2 5 7 0 0 3 0 2 -11
p345
aVCameron Bairstow CHI 02/05/2016 CHI @ DEN L 10 4 1 4 25.0 0 1 0.0 2 2 100.0 0 4 4 1 0 0 0 5 5
p346
aVJimmy Butler CHI 02/05/2016 CHI @ DEN L 18 19 6 9 66.7 0 0 - 7 9 77.8 0 2 2 5 2 0 1 0 -1
p347
aVAaron Brooks CHI 02/05/2016 CHI @ DEN L 18 6 2 4 50.0 0 1 0.0 2 2 100.0 1 0 1 4 0 2 2 3 9
p348
aVKirk Hinrich CHI 02/05/2016 CHI @ DEN L 16 0 0 3 0.0 0 1 0.0 0 0 - 1 3 4 0 0 0 2 2 -17
p349
aVCristiano Felicio CHI 02/05/2016 CHI @ DEN L 4 0 0 0 - 0 0 - 0 0 - 0 0 0 1 0 0 0 2 -1
p350
aVTony Snell CHI 02/05/2016 CHI @ DEN L 19 2 1 3 33.3 0 0 - 0 0 - 0 1 1 0 0 1 0 4 9
p351
aVDerrick Rose CHI 02/05/2016 CHI @ DEN L 35 30 13 27 48.1 0 3 0.0 4 6 66.7 2 7 9 8 1 0 2 1 -7
p352
aVDoug McDermott CHI 02/05/2016 CHI @ DEN L 25 15 6 11 54.5 3 4 75.0 0 0 - 1 1 2 0 0 0 1 3 -2
p353
aVE'Twaun Moore CHI 02/05/2016 CHI @ DEN L 31 8 3 7 42.9 2 2 100.0 0 0 - 0 3 3 0 0 1 2 4 4
p354
aVE'Twaun Moore CHI 02/03/2016 CHI @ SAC W 38 24 9 16 56.3 4 5 80.0 2 4 50.0 1 4 5 4 2 0 1 5 7
p355
aVDoug McDermott CHI 02/03/2016 CHI @ SAC W 25 11 4 10 40.0 2 6 33.3 1 2 50.0 0 2 2 0 0 0 0 1 0
p356
aVTony Snell CHI 02/03/2016 CHI @ SAC W 21 9 4 6 66.7 1 2 50.0 0 0 - 1 6 7 0 1 0 0 0 9
p357
aVTaj Gibson CHI 02/03/2016 CHI @ SAC W 34 12 5 9 55.6 0 0 - 2 3 66.7 2 6 8 2 1 0 2 5 3
p358
aVDerrick Rose CHI 02/03/2016 CHI @ SAC W 35 21 6 15 40.0 0 1 0.0 9 10 90.0 2 4 6 9 2 0 7 1 7
p359
aVKirk Hinrich CHI 02/03/2016 CHI @ SAC W 19 3 1 2 50.0 1 1 100.0 0 0 - 1 3 4 5 0 0 0 3 -5
p360
aVPau Gasol CHI 02/03/2016 CHI @ SAC W 36 16 6 16 37.5 2 2 100.0 2 2 100.0 2 11 13 4 2 0 6 3 10
p361
aVBobby Portis CHI 02/03/2016 CHI @ SAC W 21 8 4 8 50.0 0 1 0.0 0 0 - 1 2 3 1 0 0 1 2 -4
p362
aVAaron Brooks CHI 02/03/2016 CHI @ SAC W 11 3 1 6 16.7 1 3 33.3 0 0 - 0 1 1 1 0 0 0 1 -2
p363
aVTony Snell CHI 02/01/2016 CHI @ UTA L 7 3 1 1 100.0 1 1 100.0 0 0 - 0 1 1 0 0 0 0 1 -1
p364
aVTaj Gibson CHI 02/01/2016 CHI @ UTA L 45 7 2 6 33.3 0 1 0.0 3 4 75.0 5 6 11 4 1 3 2 5 -16
p365
aVKirk Hinrich CHI 02/01/2016 CHI @ UTA L 15 2 1 3 33.3 0 1 0.0 0 0 - 1 2 3 0 0 0 1 2 5
p366
aVPau Gasol CHI 02/01/2016 CHI @ UTA L 40 19 8 13 61.5 0 0 - 3 4 75.0 0 8 8 3 1 1 2 6 8
p367
aVJimmy Butler CHI 02/01/2016 CHI @ UTA L 47 26 10 17 58.8 2 5 40.0 4 7 57.1 0 7 7 6 0 0 3 3 -4
p368
aVDerrick Rose CHI 02/01/2016 CHI @ UTA L 37 14 6 21 28.6 1 4 25.0 1 2 50.0 1 2 3 4 1 1 3 3 -14
p369
aVBobby Portis CHI 02/01/2016 CHI @ UTA L 21 8 3 7 42.9 0 1 0.0 2 3 66.7 1 4 5 0 0 0 0 0 -12
p370
aVAaron Brooks CHI 02/01/2016 CHI @ UTA L 8 2 1 4 25.0 0 2 0.0 0 0 - 0 0 0 2 1 0 0 1 4
p371
aVDoug McDermott CHI 02/01/2016 CHI @ UTA L 19 7 3 6 50.0 1 3 33.3 0 0 - 0 2 2 0 0 0 2 2 2
p372
aVE'Twaun Moore CHI 02/01/2016 CHI @ UTA L 27 8 4 12 33.3 0 3 0.0 0 0 - 0 2 2 0 0 2 1 2 -17
p373
aVAaron Brooks CHI 01/31/2016 CHI @ LAC L 17 2 1 5 20.0 0 2 0.0 0 0 - 0 0 0 3 1 0 1 2 -20
p374
aVBobby Portis CHI 01/31/2016 CHI @ LAC L 18 8 4 9 44.4 0 2 0.0 0 0 - 2 4 6 1 0 0 0 0 -26
p375
aVTaj Gibson CHI 01/31/2016 CHI @ LAC L 30 7 3 8 37.5 0 0 - 1 2 50.0 5 6 11 1 0 2 0 5 -1
p376
aVE'Twaun Moore CHI 01/31/2016 CHI @ LAC L 30 10 4 7 57.1 1 2 50.0 1 1 100.0 0 1 1 5 0 1 0 5 -7
p377
aVCameron Bairstow CHI 01/31/2016 CHI @ LAC L 4 0 0 1 0.0 0 0 - 0 0 - 0 2 2 0 0 0 0 0 -11
p378
aVJimmy Butler CHI 01/31/2016 CHI @ LAC L 37 23 8 22 36.4 2 4 50.0 5 7 71.4 1 0 1 0 1 0 0 0 -9
p379
aVDerrick Rose CHI 01/31/2016 CHI @ LAC L 33 20 10 17 58.8 0 0 - 0 0 - 0 5 5 4 0 0 3 2 -14
p380
aVKirk Hinrich CHI 01/31/2016 CHI @ LAC L 11 0 0 2 0.0 0 0 - 0 0 - 0 1 1 0 0 0 0 3 -8
p381
aVPau Gasol CHI 01/31/2016 CHI @ LAC L 29 15 7 10 70.0 0 0 - 1 1 100.0 3 11 14 5 0 0 4 1 -6
p382
aVTony Snell CHI 01/31/2016 CHI @ LAC L 10 2 1 5 20.0 0 1 0.0 0 0 - 0 0 0 0 0 1 0 1 -14
p383
aVDoug McDermott CHI 01/31/2016 CHI @ LAC L 21 6 2 7 28.6 2 4 50.0 0 0 - 0 1 1 0 0 0 1 1 -19
p384
aVJimmy Butler CHI 01/28/2016 CHI @ LAL W 31 26 11 17 64.7 1 2 50.0 3 3 100.0 1 4 5 10 4 0 0 1 31
p385
aVTony Snell CHI 01/28/2016 CHI @ LAL W 5 6 3 3 100.0 0 0 - 0 0 - 0 1 1 0 0 0 1 1 2
p386
aVCristiano Felicio CHI 01/28/2016 CHI @ LAL W 3 1 0 0 - 0 0 - 1 2 50.0 0 0 0 1 0 0 0 0 1
p387
aVDerrick Rose CHI 01/28/2016 CHI @ LAL W 29 16 7 12 58.3 0 2 0.0 2 2 100.0 0 7 7 5 1 0 1 2 15
p388
aVCameron Bairstow CHI 01/28/2016 CHI @ LAL W 4 2 1 1 100.0 0 0 - 0 0 - 0 2 2 1 0 0 1 2 3
p389
aVTaj Gibson CHI 01/28/2016 CHI @ LAL W 36 9 4 10 40.0 0 0 - 1 2 50.0 4 7 11 1 2 2 1 2 15
p390
aVDoug McDermott CHI 01/28/2016 CHI @ LAL W 24 15 6 15 40.0 3 6 50.0 0 0 - 0 2 2 1 0 0 1 4 5
p391
aVAaron Brooks CHI 01/28/2016 CHI @ LAL W 18 6 2 7 28.6 2 4 50.0 0 0 - 0 2 2 1 0 1 1 2 9
p392
aVPau Gasol CHI 01/28/2016 CHI @ LAL W 31 21 9 17 52.9 0 0 - 3 3 100.0 1 11 12 7 1 1 3 3 26
p393
aVBobby Portis CHI 01/28/2016 CHI @ LAL W 22 4 1 4 25.0 0 0 - 2 2 100.0 4 3 7 1 2 0 0 2 1
p394
aVE'Twaun Moore CHI 01/28/2016 CHI @ LAL W 36 8 3 9 33.3 0 3 0.0 2 2 100.0 2 0 2 1 2 1 1 0 7
p395
aVTaj Gibson CHI 01/25/2016 CHI vs. MIA L 30 5 2 3 66.7 0 0 - 1 2 50.0 2 5 7 0 1 0 3 3 -5
p396
aVNikola Mirotic CHI 01/25/2016 CHI vs. MIA L 22 15 6 11 54.5 1 2 50.0 2 3 66.7 3 5 8 2 1 1 2 0 -5
p397
aVPau Gasol CHI 01/25/2016 CHI vs. MIA L 37 19 9 18 50.0 0 0 - 1 2 50.0 4 13 17 2 0 2 2 1 8
p398
aVAaron Brooks CHI 01/25/2016 CHI vs. MIA L 33 13 5 12 41.7 2 7 28.6 1 1 100.0 0 2 2 6 3 0 1 4 -9
p399
aVDoug McDermott CHI 01/25/2016 CHI vs. MIA L 30 7 3 10 30.0 1 4 25.0 0 0 - 1 2 3 1 0 0 2 2 -6
p400
aVJimmy Butler CHI 01/25/2016 CHI vs. MIA L 40 13 5 15 33.3 1 1 100.0 2 2 100.0 1 5 6 4 0 0 2 1 -1
p401
aVBobby Portis CHI 01/25/2016 CHI vs. MIA L 7 2 1 2 50.0 0 0 - 0 0 - 1 1 2 0 0 0 0 4 -8
p402
aVDerrick Rose CHI 01/25/2016 CHI vs. MIA L 13 4 2 6 33.3 0 0 - 0 0 - 0 0 0 1 0 0 0 0 -2
p403
aVTony Snell CHI 01/25/2016 CHI vs. MIA L 28 6 2 11 18.2 0 4 0.0 2 2 100.0 0 4 4 2 0 0 1 3 3
p404
aVE'Twaun Moore CHI 01/23/2016 CHI @ CLE W 4 0 0 1 0.0 0 1 0.0 0 0 - 0 1 1 0 0 0 0 0 7
p405
aVPau Gasol CHI 01/23/2016 CHI @ CLE W 33 25 11 16 68.8 1 2 50.0 2 2 100.0 2 8 10 6 1 1 2 2 21
p406
aVTaj Gibson CHI 01/23/2016 CHI @ CLE W 29 15 6 12 50.0 0 0 - 3 4 75.0 5 3 8 1 0 2 0 3 3
p407
aVDerrick Rose CHI 01/23/2016 CHI @ CLE W 35 12 5 21 23.8 0 1 0.0 2 2 100.0 1 3 4 4 0 1 1 1 -1
p408
aVBobby Portis CHI 01/23/2016 CHI @ CLE W 9 2 1 3 33.3 0 0 - 0 0 - 1 1 2 0 0 0 2 2 -4
p409
aVTony Snell CHI 01/23/2016 CHI @ CLE W 26 2 1 3 33.3 0 2 0.0 0 0 - 0 5 5 3 0 1 0 1 12
p410
aVNikola Mirotic CHI 01/23/2016 CHI @ CLE W 25 17 5 9 55.6 3 5 60.0 4 5 80.0 1 5 6 1 1 0 0 2 6
p411
aVAaron Brooks CHI 01/23/2016 CHI @ CLE W 13 0 0 4 0.0 0 1 0.0 0 0 - 1 3 4 2 0 0 1 1 14
p412
aVDoug McDermott CHI 01/23/2016 CHI @ CLE W 24 3 1 2 50.0 1 2 50.0 0 0 - 0 4 4 3 0 0 1 4 5
p413
aVJimmy Butler CHI 01/23/2016 CHI @ CLE W 42 20 8 16 50.0 2 3 66.7 2 2 100.0 2 7 9 1 0 0 0 2 2
p414
aVTony Snell CHI 01/22/2016 CHI @ BOS L 17 2 1 1 100.0 0 0 - 0 0 - 0 1 1 1 1 0 0 0 -7
p415
aVPau Gasol CHI 01/22/2016 CHI @ BOS L 31 18 7 13 53.8 0 0 - 4 4 100.0 3 8 11 3 0 0 5 3 -26
p416
aVJimmy Butler CHI 01/22/2016 CHI @ BOS L 38 28 10 20 50.0 0 3 0.0 8 8 100.0 4 10 14 3 2 0 4 0 -15
p417
aVBobby Portis CHI 01/22/2016 CHI @ BOS L 18 8 4 12 33.3 0 0 - 0 2 0.0 1 2 3 0 1 1 1 0 13
p418
aVDoug McDermott CHI 01/22/2016 CHI @ BOS L 23 0 0 1 0.0 0 1 0.0 0 0 - 0 2 2 0 1 0 2 4 13
p419
aVAaron Brooks CHI 01/22/2016 CHI @ BOS L 20 4 2 6 33.3 0 3 0.0 0 0 - 0 0 0 0 0 0 1 4 -6
p420
aVTaj Gibson CHI 01/22/2016 CHI @ BOS L 23 9 3 6 50.0 0 0 - 3 4 75.0 4 2 6 1 0 2 0 4 -7
p421
aVDerrick Rose CHI 01/22/2016 CHI @ BOS L 36 27 10 21 47.6 3 4 75.0 4 4 100.0 2 5 7 3 0 0 4 2 -15
p422
aVNikola Mirotic CHI 01/22/2016 CHI @ BOS L 26 5 1 7 14.3 0 2 0.0 3 4 75.0 1 4 5 0 2 1 3 0 0
p423
aVE'Twaun Moore CHI 01/22/2016 CHI @ BOS L 8 0 0 2 0.0 0 0 - 0 0 - 0 1 1 0 0 0 0 2 5
p424
aVNikola Mirotic CHI 01/20/2016 CHI vs. GSW L 14 0 0 5 0.0 0 3 0.0 0 0 - 0 4 4 2 1 0 1 2 -16
p425
aVPau Gasol CHI 01/20/2016 CHI vs. GSW L 24 1 0 8 0.0 0 0 - 1 2 50.0 0 8 8 0 0 1 2 2 -13
p426
aVCameron Bairstow CHI 01/20/2016 CHI vs. GSW L 4 0 0 1 0.0 0 0 - 0 0 - 1 1 2 0 0 1 1 1 -7
p427
aVDoug McDermott CHI 01/20/2016 CHI vs. GSW L 33 3 1 6 16.7 0 1 0.0 1 1 100.0 3 1 4 2 0 0 1 2 -28
p428
aVCristiano Felicio CHI 01/20/2016 CHI vs. GSW L 2 0 0 1 0.0 0 1 0.0 0 0 - 0 1 1 0 0 0 0 0 -5
p429
aVAaron Brooks CHI 01/20/2016 CHI vs. GSW L 11 3 1 4 25.0 1 3 33.3 0 0 - 0 1 1 1 1 0 0 2 -3
p430
aVE'Twaun Moore CHI 01/20/2016 CHI vs. GSW L 17 13 6 9 66.7 0 2 0.0 1 2 50.0 0 3 3 2 2 0 1 2 -16
p431
aVTony Snell CHI 01/20/2016 CHI vs. GSW L 26 2 1 8 12.5 0 4 0.0 0 0 - 0 5 5 2 0 0 0 0 -8
p432
aVTaj Gibson CHI 01/20/2016 CHI vs. GSW L 20 4 2 6 33.3 0 0 - 0 0 - 5 2 7 1 0 1 0 1 -6
p433
aVJimmy Butler CHI 01/20/2016 CHI vs. GSW L 35 23 7 16 43.8 0 2 0.0 9 12 75.0 2 3 5 2 0 0 2 0 -28
p434
aVBobby Portis CHI 01/20/2016 CHI vs. GSW L 24 16 7 14 50.0 0 2 0.0 2 2 100.0 5 3 8 0 0 1 0 2 -15
p435
aVDerrick Rose CHI 01/20/2016 CHI vs. GSW L 30 29 12 22 54.5 0 2 0.0 5 5 100.0 0 1 1 2 0 0 2 3 -10
p436
aVJimmy Butler CHI 01/18/2016 CHI @ DET W 37 16 5 13 38.5 0 3 0.0 6 8 75.0 0 3 3 9 2 0 5 2 1
p437
aVTaj Gibson CHI 01/18/2016 CHI @ DET W 36 8 4 9 44.4 0 0 - 0 0 - 2 8 10 0 0 2 0 3 10
p438
aVAaron Brooks CHI 01/18/2016 CHI @ DET W 21 6 3 7 42.9 0 1 0.0 0 0 - 0 2 2 10 1 0 1 4 18
p439
aVBobby Portis CHI 01/18/2016 CHI @ DET W 3 0 0 1 0.0 0 1 0.0 0 0 - 1 1 2 0 0 0 0 0 0
p440
aVPau Gasol CHI 01/18/2016 CHI @ DET W 36 31 13 18 72.2 1 3 33.3 4 5 80.0 2 10 12 3 1 3 0 3 0
p441
aVTony Snell CHI 01/18/2016 CHI @ DET W 16 3 1 4 25.0 1 3 33.3 0 0 - 0 3 3 1 0 1 0 0 -10
p442
aVE'Twaun Moore CHI 01/18/2016 CHI @ DET W 18 6 2 3 66.7 1 2 50.0 1 2 50.0 0 0 0 0 1 0 0 2 13
p443
aVDerrick Rose CHI 01/18/2016 CHI @ DET W 27 20 9 17 52.9 1 2 50.0 1 1 100.0 0 1 1 4 0 0 1 0 -8
p444
aVDoug McDermott CHI 01/18/2016 CHI @ DET W 25 11 4 6 66.7 3 4 75.0 0 0 - 0 2 2 0 1 0 1 2 16
p445
aVNikola Mirotic CHI 01/18/2016 CHI @ DET W 21 10 3 6 50.0 2 2 100.0 2 4 50.0 1 2 3 1 0 0 2 0 10
p446
aVDoug McDermott CHI 01/15/2016 CHI vs. DAL L 21 0 0 4 0.0 0 1 0.0 0 0 - 1 3 4 0 0 0 0 0 3
p447
aVAaron Brooks CHI 01/15/2016 CHI vs. DAL L 7 2 1 4 25.0 0 1 0.0 0 0 - 0 0 0 1 0 0 0 0 0
p448
aVBobby Portis CHI 01/15/2016 CHI vs. DAL L 6 5 2 4 50.0 1 1 100.0 0 0 - 1 0 1 0 0 0 1 1 -4
p449
aVJimmy Butler CHI 01/15/2016 CHI vs. DAL L 36 4 2 11 18.2 0 4 0.0 0 0 - 0 5 5 6 2 0 0 1 -7
p450
aVE'Twaun Moore CHI 01/15/2016 CHI vs. DAL L 22 8 4 6 66.7 0 2 0.0 0 0 - 0 3 3 1 0 0 1 2 4
p451
aVTaj Gibson CHI 01/15/2016 CHI vs. DAL L 30 9 4 10 40.0 0 0 - 1 2 50.0 4 7 11 1 0 0 1 3 -3
p452
aVPau Gasol CHI 01/15/2016 CHI vs. DAL L 36 17 7 14 50.0 0 0 - 3 4 75.0 2 6 8 4 1 2 3 3 2
p453
aVKirk Hinrich CHI 01/15/2016 CHI vs. DAL L 8 7 1 3 33.3 0 2 0.0 5 5 100.0 1 1 2 0 1 0 0 1 -9
p454
aVNikola Mirotic CHI 01/15/2016 CHI vs. DAL L 15 2 0 4 0.0 0 2 0.0 2 2 100.0 1 1 2 1 0 0 0 3 -3
p455
aVTony Snell CHI 01/15/2016 CHI vs. DAL L 20 3 1 6 16.7 1 4 25.0 0 0 - 0 5 5 0 0 0 1 2 -12
p456
aVJoakim Noah CHI 01/15/2016 CHI vs. DAL L 6 2 1 2 50.0 0 0 - 0 0 - 1 1 2 0 0 0 0 2 -4
p457
aVDerrick Rose CHI 01/15/2016 CHI vs. DAL L 33 18 8 18 44.4 0 2 0.0 2 2 100.0 1 3 4 2 2 0 1 1 3
p458
aVTony Snell CHI 01/14/2016 CHI @ PHI W 11 0 0 1 0.0 0 1 0.0 0 0 - 0 2 2 1 0 0 2 1 -18
p459
aVBobby Portis CHI 01/14/2016 CHI @ PHI W 9 0 0 1 0.0 0 0 - 0 0 - 0 0 0 0 0 0 0 0 -18
p460
aVKirk Hinrich CHI 01/14/2016 CHI @ PHI W 32 5 2 4 50.0 1 3 33.3 0 0 - 0 4 4 1 1 0 1 1 14
p461
aVTaj Gibson CHI 01/14/2016 CHI @ PHI W 35 11 5 9 55.6 0 0 - 1 2 50.0 7 4 11 0 1 0 1 1 5
p462
aVNikola Mirotic CHI 01/14/2016 CHI @ PHI W 24 7 2 13 15.4 1 5 20.0 2 2 100.0 0 5 5 0 0 1 5 3 -3
p463
aVAaron Brooks CHI 01/14/2016 CHI @ PHI W 7 2 1 2 50.0 0 0 - 0 0 - 0 0 0 1 0 0 3 2 -16
p464
aVE'Twaun Moore CHI 01/14/2016 CHI @ PHI W 26 14 6 8 75.0 2 2 100.0 0 0 - 0 2 2 0 1 0 0 3 15
p465
aVDoug McDermott CHI 01/14/2016 CHI @ PHI W 33 17 7 12 58.3 1 2 50.0 2 2 100.0 1 2 3 0 1 0 0 2 19
p466
aVJoakim Noah CHI 01/14/2016 CHI @ PHI W 38 6 3 8 37.5 0 0 - 0 0 - 5 11 16 8 2 1 7 3 11
p467
aVJimmy Butler CHI 01/14/2016 CHI @ PHI W 49 53 15 30 50.0 2 4 50.0 21 25 84.0 4 6 10 6 3 0 4 4 11
p468
aVTony Snell CHI 01/12/2016 CHI @ MIL L 30 17 7 11 63.6 3 7 42.9 0 0 - 1 6 7 1 1 0 3 4 7
p469
aVPau Gasol CHI 01/12/2016 CHI @ MIL L 36 10 4 12 33.3 1 1 100.0 1 2 50.0 5 9 14 5 1 4 2 3 3
p470
aVJoakim Noah CHI 01/12/2016 CHI @ MIL L 15 3 1 3 33.3 0 0 - 1 2 50.0 4 3 7 2 0 0 0 3 -5
p471
aVNikola Mirotic CHI 01/12/2016 CHI @ MIL L 31 17 6 13 46.2 3 8 37.5 2 2 100.0 2 3 5 1 0 2 2 4 1
p472
aVBobby Portis CHI 01/12/2016 CHI @ MIL L 4 0 0 0 - 0 0 - 0 0 - 0 0 0 0 0 1 1 2 -5
p473
aVAaron Brooks CHI 01/12/2016 CHI @ MIL L 17 9 3 7 42.9 2 4 50.0 1 2 50.0 0 2 2 2 0 0 0 3 3
p474
aVDerrick Rose CHI 01/12/2016 CHI @ MIL L 22 9 3 9 33.3 1 3 33.3 2 2 100.0 1 0 1 3 1 0 3 2 -9
p475
aVTaj Gibson CHI 01/12/2016 CHI @ MIL L 26 6 2 5 40.0 0 0 - 2 2 100.0 4 5 9 1 0 0 2 3 -12
p476
aVDoug McDermott CHI 01/12/2016 CHI @ MIL L 6 0 0 2 0.0 0 0 - 0 0 - 1 0 1 0 0 0 0 0 2
p477
aVKirk Hinrich CHI 01/12/2016 CHI @ MIL L 12 0 0 2 0.0 0 1 0.0 0 0 - 0 3 3 1 0 0 0 1 -8
p478
aVJimmy Butler CHI 01/12/2016 CHI @ MIL L 41 30 9 21 42.9 2 5 40.0 10 12 83.3 2 6 8 6 0 1 4 0 -2
p479
aVJoakim Noah CHI 01/11/2016 CHI vs. WAS L 19 0 0 7 0.0 0 0 - 0 0 - 4 5 9 4 1 0 2 3 -9
p480
aVTaj Gibson CHI 01/11/2016 CHI vs. WAS L 19 4 2 4 50.0 0 0 - 0 0 - 1 3 4 0 0 0 2 3 0
p481
aVNikola Mirotic CHI 01/11/2016 CHI vs. WAS L 29 7 3 8 37.5 1 3 33.3 0 2 0.0 1 8 9 2 1 2 0 0 1
p482
aVBobby Portis CHI 01/11/2016 CHI vs. WAS L 11 6 1 3 33.3 0 0 - 4 4 100.0 1 1 2 0 0 1 1 1 -8
p483
aVAaron Brooks CHI 01/11/2016 CHI vs. WAS L 16 10 4 7 57.1 2 4 50.0 0 0 - 0 0 0 3 0 0 0 1 -3
p484
aVE'Twaun Moore CHI 01/11/2016 CHI vs. WAS L 5 3 1 2 50.0 1 2 50.0 0 0 - 0 2 2 0 0 0 0 1 4
p485
aVTony Snell CHI 01/11/2016 CHI vs. WAS L 21 4 1 5 20.0 0 3 0.0 2 2 100.0 0 1 1 0 0 0 1 2 -1
p486
aVPau Gasol CHI 01/11/2016 CHI vs. WAS L 29 15 6 11 54.5 0 0 - 3 4 75.0 1 9 10 1 0 1 2 0 -10
p487
aVDoug McDermott CHI 01/11/2016 CHI vs. WAS L 20 9 2 4 50.0 2 4 50.0 3 3 100.0 0 2 2 0 0 1 2 2 -15
p488
aVJimmy Butler CHI 01/11/2016 CHI vs. WAS L 38 19 6 15 40.0 1 3 33.3 6 7 85.7 2 2 4 7 3 0 2 2 -8
p489
aVCameron Bairstow CHI 01/11/2016 CHI vs. WAS L 5 0 0 2 0.0 0 0 - 0 0 - 0 1 1 0 0 0 0 1 4
p490
aVDerrick Rose CHI 01/11/2016 CHI vs. WAS L 31 23 8 13 61.5 2 3 66.7 5 5 100.0 0 0 0 1 0 1 4 0 -25
p491
aVPau Gasol CHI 01/09/2016 CHI @ ATL L 32 10 4 10 40.0 0 0 - 2 3 66.7 1 6 7 5 0 1 4 0 -5
p492
aVE'Twaun Moore CHI 01/09/2016 CHI @ ATL L 8 2 0 2 0.0 0 0 - 2 2 100.0 0 0 0 0 0 0 0 0 1
p493
aVJimmy Butler CHI 01/09/2016 CHI @ ATL L 39 27 8 17 47.1 1 3 33.3 10 12 83.3 4 4 8 2 1 1 3 4 -9
p494
aVTony Snell CHI 01/09/2016 CHI @ ATL L 19 7 3 6 50.0 1 3 33.3 0 0 - 0 2 2 2 1 0 1 1 -1
p495
aVNikola Mirotic CHI 01/09/2016 CHI @ ATL L 38 24 8 17 47.1 5 9 55.6 3 4 75.0 2 8 10 1 1 2 1 4 -16
p496
aVCameron Bairstow CHI 01/09/2016 CHI @ ATL L 3 2 1 1 100.0 0 0 - 0 0 - 0 1 1 0 1 0 0 0 2
p497
aVBobby Portis CHI 01/09/2016 CHI @ ATL L 9 0 0 3 0.0 0 1 0.0 0 0 - 2 4 6 0 1 1 2 0 -4
p498
aVAaron Brooks CHI 01/09/2016 CHI @ ATL L 5 0 0 2 0.0 0 1 0.0 0 0 - 0 1 1 1 0 0 1 0 -7
p499
aVTaj Gibson CHI 01/09/2016 CHI @ ATL L 26 10 4 5 80.0 0 0 - 2 2 100.0 1 3 4 0 0 0 2 1 -16
p500
aVDoug McDermott CHI 01/09/2016 CHI @ ATL L 24 6 3 5 60.0 0 1 0.0 0 0 - 0 4 4 0 0 0 1 2 -11
p501
aVDerrick Rose CHI 01/09/2016 CHI @ ATL L 35 17 5 15 33.3 0 0 - 7 8 87.5 2 1 3 5 2 1 6 1 -9
p502
aVDoug McDermott CHI 01/07/2016 CHI vs. BOS W 20 9 3 8 37.5 3 4 75.0 0 0 - 0 1 1 0 1 0 0 1 5
p503
aVNikola Mirotic CHI 01/07/2016 CHI vs. BOS W 27 11 3 10 30.0 2 7 28.6 3 4 75.0 2 6 8 1 1 1 2 1 22
p504
aVKirk Hinrich CHI 01/07/2016 CHI vs. BOS W 14 3 1 3 33.3 1 2 50.0 0 0 - 0 1 1 1 0 0 1 2 3
p505
aVPau Gasol CHI 01/07/2016 CHI vs. BOS W 35 17 8 19 42.1 0 1 0.0 1 2 50.0 5 13 18 4 0 1 3 0 14
p506
aVBobby Portis CHI 01/07/2016 CHI vs. BOS W 24 4 2 9 22.2 0 1 0.0 0 0 - 3 5 8 0 0 2 0 3 -11
p507
aVDerrick Rose CHI 01/07/2016 CHI vs. BOS W 34 18 9 16 56.3 0 1 0.0 0 0 - 2 5 7 3 0 0 2 4 6
p508
aVTony Snell CHI 01/07/2016 CHI vs. BOS W 20 10 3 6 50.0 2 3 66.7 2 2 100.0 0 1 1 1 0 0 3 1 -7
p509
aVJimmy Butler CHI 01/07/2016 CHI vs. BOS W 39 19 5 14 35.7 1 3 33.3 8 9 88.9 0 5 5 10 1 1 3 1 12
p510
aVTaj Gibson CHI 01/07/2016 CHI vs. BOS W 28 10 5 9 55.6 0 0 - 0 0 - 0 5 5 3 1 0 2 5 1
p511
aVTaj Gibson CHI 01/05/2016 CHI vs. MIL W 38 11 5 6 83.3 0 0 - 1 1 100.0 4 10 14 1 1 6 1 1 10
p512
aVNikola Mirotic CHI 01/05/2016 CHI vs. MIL W 29 14 5 10 50.0 1 4 25.0 3 3 100.0 0 6 6 0 1 1 1 1 6
p513
aVDerrick Rose CHI 01/05/2016 CHI vs. MIL W 35 16 8 17 47.1 0 4 0.0 0 0 - 0 1 1 6 0 0 5 1 15
p514
aVPau Gasol CHI 01/05/2016 CHI vs. MIL W 35 26 10 14 71.4 2 2 100.0 4 4 100.0 1 10 11 5 1 3 4 3 11
p515
aVKirk Hinrich CHI 01/05/2016 CHI vs. MIL W 13 2 1 2 50.0 0 1 0.0 0 0 - 0 1 1 4 0 0 1 1 -4
p516
aVDoug McDermott CHI 01/05/2016 CHI vs. MIL W 11 0 0 2 0.0 0 1 0.0 0 0 - 0 1 1 0 0 0 0 0 0
p517
aVJimmy Butler CHI 01/05/2016 CHI vs. MIL W 39 32 11 21 52.4 2 5 40.0 8 8 100.0 0 2 2 10 1 0 2 1 13
p518
aVTony Snell CHI 01/05/2016 CHI vs. MIL W 19 8 4 7 57.1 0 1 0.0 0 0 - 0 1 1 1 0 0 0 2 1
p519
aVBobby Portis CHI 01/05/2016 CHI vs. MIL W 21 8 2 4 50.0 0 1 0.0 4 4 100.0 2 6 8 0 1 0 1 1 3
p520
aVTony Snell CHI 01/03/2016 CHI @ TOR W 19 7 3 6 50.0 1 3 33.3 0 0 - 0 2 2 1 0 0 0 1 1
p521
aVPau Gasol CHI 01/03/2016 CHI @ TOR W 34 19 7 16 43.8 0 0 - 5 6 83.3 1 12 13 6 0 4 2 0 13
p522
aVE'Twaun Moore CHI 01/03/2016 CHI @ TOR W 16 4 2 4 50.0 0 0 - 0 0 - 1 0 1 0 1 0 1 1 6
p523
aVAaron Brooks CHI 01/03/2016 CHI @ TOR W 25 5 2 6 33.3 1 3 33.3 0 0 - 1 5 6 2 0 0 1 3 2
p524
aVKirk Hinrich CHI 01/03/2016 CHI @ TOR W 21 8 3 4 75.0 2 3 66.7 0 0 - 1 1 2 4 1 0 0 2 -3
p525
aVTaj Gibson CHI 01/03/2016 CHI @ TOR W 29 9 4 5 80.0 0 0 - 1 2 50.0 2 3 5 3 0 2 1 1 -10
p526
aVNikola Mirotic CHI 01/03/2016 CHI @ TOR W 29 17 4 9 44.4 3 6 50.0 6 6 100.0 1 2 3 1 1 0 1 2 0
p527
aVDoug McDermott CHI 01/03/2016 CHI @ TOR W 11 0 0 4 0.0 0 2 0.0 0 0 - 0 0 0 0 0 0 1 2 -7
p528
aVJimmy Butler CHI 01/03/2016 CHI @ TOR W 39 42 15 23 65.2 2 3 66.7 10 11 90.9 1 3 4 5 1 1 3 3 11
p529
aVBobby Portis CHI 01/03/2016 CHI @ TOR W 18 4 2 5 40.0 0 1 0.0 0 0 - 0 6 6 1 0 1 1 3 -3
p530
aVTony Snell CHI 01/01/2016 CHI vs. NYK W 20 4 2 7 28.6 0 0 - 0 0 - 1 3 4 0 0 1 0 2 9
p531
aVAaron Brooks CHI 01/01/2016 CHI vs. NYK W 13 7 3 4 75.0 1 1 100.0 0 0 - 0 0 0 2 0 0 0 4 0
p532
aVTaj Gibson CHI 01/01/2016 CHI vs. NYK W 25 7 2 7 28.6 0 0 - 3 4 75.0 5 4 9 0 1 2 0 2 -4
p533
aVDoug McDermott CHI 01/01/2016 CHI vs. NYK W 20 13 5 9 55.6 3 4 75.0 0 0 - 0 2 2 1 0 0 0 2 24
p534
aVKirk Hinrich CHI 01/01/2016 CHI vs. NYK W 16 2 1 2 50.0 0 1 0.0 0 0 - 0 5 5 2 0 0 1 0 0
p535
aVPau Gasol CHI 01/01/2016 CHI vs. NYK W 29 17 5 17 29.4 0 0 - 7 7 100.0 2 6 8 4 0 2 1 0 5
p536
aVE'Twaun Moore CHI 01/01/2016 CHI vs. NYK W 18 2 1 2 50.0 0 0 - 0 0 - 1 4 5 3 0 1 2 0 27
p537
aVBobby Portis CHI 01/01/2016 CHI vs. NYK W 30 16 6 9 66.7 2 3 66.7 2 2 100.0 2 8 10 2 0 0 3 4 30
p538
aVCameron Bairstow CHI 01/01/2016 CHI vs. NYK W 2 0 0 2 0.0 0 0 - 0 0 - 1 1 2 0 0 0 0 0 3
p539
aVNikola Mirotic CHI 01/01/2016 CHI vs. NYK W 31 17 6 8 75.0 4 6 66.7 1 2 50.0 0 5 5 7 2 2 0 4 25
p540
aVJimmy Butler CHI 01/01/2016 CHI vs. NYK W 34 23 8 18 44.4 0 1 0.0 7 10 70.0 2 2 4 6 1 1 0 1 16
p541
aVTaj Gibson CHI 12/30/2015 CHI vs. IND W 37 6 3 7 42.9 0 0 - 0 0 - 6 8 14 2 2 1 1 4 -1
p542
aVJimmy Butler CHI 12/30/2015 CHI vs. IND W 44 28 8 16 50.0 1 3 33.3 11 13 84.6 0 4 4 4 2 1 2 3 -2
p543
aVKirk Hinrich CHI 12/30/2015 CHI vs. IND W 13 3 1 3 33.3 1 2 50.0 0 0 - 0 0 0 0 0 1 2 1 -9
p544
aVDoug McDermott CHI 12/30/2015 CHI vs. IND W 20 5 2 6 33.3 0 1 0.0 1 2 50.0 1 4 5 2 0 0 1 2 3
p545
aVAaron Brooks CHI 12/30/2015 CHI vs. IND W 41 29 11 20 55.0 4 7 57.1 3 4 75.0 1 0 1 5 1 0 6 3 9
p546
aVTony Snell CHI 12/30/2015 CHI vs. IND W 27 2 1 6 16.7 0 2 0.0 0 0 - 1 6 7 0 0 2 1 2 14
p547
aVNikola Mirotic CHI 12/30/2015 CHI vs. IND W 20 0 0 2 0.0 0 1 0.0 0 0 - 0 4 4 1 0 1 1 0 1
p548
aVPau Gasol CHI 12/30/2015 CHI vs. IND W 37 13 4 14 28.6 0 1 0.0 5 6 83.3 2 9 11 1 0 3 4 2 -1
p549
aVBobby Portis CHI 12/30/2015 CHI vs. IND W 26 16 7 12 58.3 0 1 0.0 2 2 100.0 3 4 7 0 1 1 3 2 -4
p550
aVKirk Hinrich CHI 12/28/2015 CHI vs. TOR W 9 0 0 0 - 0 0 - 0 0 - 0 0 0 1 0 0 0 0 14
p551
aVTaj Gibson CHI 12/28/2015 CHI vs. TOR W 38 4 2 7 28.6 0 0 - 0 2 0.0 6 5 11 2 1 2 1 4 5
p552
aVNikola Mirotic CHI 12/28/2015 CHI vs. TOR W 17 2 1 6 16.7 0 4 0.0 0 0 - 0 7 7 0 0 1 1 2 -10
p553
aVBobby Portis CHI 12/28/2015 CHI vs. TOR W 27 12 6 10 60.0 0 1 0.0 0 1 0.0 2 7 9 2 0 0 2 1 16
p554
aVPau Gasol CHI 12/28/2015 CHI vs. TOR W 30 22 8 14 57.1 0 0 - 6 8 75.0 2 5 7 3 1 3 2 2 -4
p555
aVTony Snell CHI 12/28/2015 CHI vs. TOR W 27 22 8 14 57.1 4 5 80.0 2 2 100.0 0 7 7 1 0 1 0 0 13
p556
aVAaron Brooks CHI 12/28/2015 CHI vs. TOR W 27 17 6 13 46.2 1 3 33.3 4 5 80.0 0 3 3 5 0 0 1 3 9
p557
aVJimmy Butler CHI 12/28/2015 CHI vs. TOR W 36 5 2 7 28.6 0 3 0.0 1 2 50.0 1 3 4 5 2 2 2 2 -8
p558
aVDerrick Rose CHI 12/28/2015 CHI vs. TOR W 29 20 7 16 43.8 3 5 60.0 3 4 75.0 0 1 1 4 0 1 1 1 0
p559
aVNikola Mirotic CHI 12/26/2015 CHI @ DAL L 40 23 6 10 60.0 4 7 57.1 7 11 63.6 1 6 7 1 2 3 0 4 -3
p560
aVBobby Portis CHI 12/26/2015 CHI @ DAL L 10 2 1 3 33.3 0 0 - 0 0 - 2 2 4 0 1 0 4 3 -5
p561
aVAaron Brooks CHI 12/26/2015 CHI @ DAL L 15 7 3 9 33.3 1 3 33.3 0 0 - 1 2 3 1 0 0 2 2 8
p562
aVDerrick Rose CHI 12/26/2015 CHI @ DAL L 37 25 12 20 60.0 0 1 0.0 1 1 100.0 1 4 5 4 0 0 3 1 -5
p563
aVJimmy Butler CHI 12/26/2015 CHI @ DAL L 37 17 4 11 36.4 2 5 40.0 7 8 87.5 0 4 4 8 3 0 5 2 -14
p564
aVKirk Hinrich CHI 12/26/2015 CHI @ DAL L 10 0 0 3 0.0 0 3 0.0 0 0 - 0 1 1 1 0 0 1 2 -1
p565
aVDoug McDermott CHI 12/26/2015 CHI @ DAL L 18 7 3 4 75.0 1 2 50.0 0 0 - 0 0 0 1 0 1 1 0 9
p566
aVCameron Bairstow CHI 12/26/2015 CHI @ DAL L 2 0 0 0 - 0 0 - 0 0 - 0 0 0 0 0 0 0 0 -6
p567
aVPau Gasol CHI 12/26/2015 CHI @ DAL L 38 18 7 10 70.0 0 0 - 4 4 100.0 4 5 9 3 1 3 0 5 -1
p568
aVTaj Gibson CHI 12/26/2015 CHI @ DAL L 33 12 6 8 75.0 0 0 - 0 2 0.0 4 4 8 1 0 0 1 4 -17
p569
aVPau Gasol CHI 12/25/2015 CHI @ OKC W 38 21 8 16 50.0 0 1 0.0 5 6 83.3 7 6 13 6 0 2 4 2 3
p570
aVDerrick Rose CHI 12/25/2015 CHI @ OKC W 30 19 7 18 38.9 0 1 0.0 5 6 83.3 1 3 4 1 0 0 4 6 10
p571
aVTaj Gibson CHI 12/25/2015 CHI @ OKC W 34 13 6 8 75.0 0 0 - 1 1 100.0 3 7 10 2 1 1 1 2 11
p572
aVBobby Portis CHI 12/25/2015 CHI @ OKC W 20 7 3 8 37.5 1 1 100.0 0 0 - 1 4 5 3 1 0 1 2 3
p573
aVDoug McDermott CHI 12/25/2015 CHI @ OKC W 23 5 2 7 28.6 1 4 25.0 0 0 - 1 2 3 1 1 0 1 0 3
p574
aVNikola Mirotic CHI 12/25/2015 CHI @ OKC W 16 6 1 5 20.0 1 5 20.0 3 3 100.0 0 7 7 2 1 2 1 2 20
p575
aVKirk Hinrich CHI 12/25/2015 CHI @ OKC W 17 2 1 2 50.0 0 0 - 0 0 - 0 0 0 2 0 0 0 2 0
p576
aVAaron Brooks CHI 12/25/2015 CHI @ OKC W 10 6 2 4 50.0 2 2 100.0 0 0 - 0 4 4 1 0 1 0 1 3
p577
aVTony Snell CHI 12/25/2015 CHI @ OKC W 9 3 1 4 25.0 1 1 100.0 0 0 - 0 1 1 0 0 0 1 0 -12
p578
aVJimmy Butler CHI 12/25/2015 CHI @ OKC W 43 23 9 20 45.0 1 3 33.3 4 4 100.0 3 3 6 4 4 0 3 2 4
p579
aVTaj Gibson CHI 12/21/2015 CHI vs. BKN L 33 10 5 9 55.6 0 0 - 0 0 - 6 3 9 4 0 1 1 2 -2
p580
aVJoakim Noah CHI 12/21/2015 CHI vs. BKN L 16 4 2 4 50.0 0 0 - 0 0 - 3 5 8 8 0 2 0 3 1
p581
aVAaron Brooks CHI 12/21/2015 CHI vs. BKN L 14 8 3 6 50.0 2 4 50.0 0 0 - 0 0 0 2 1 0 1 1 6
p582
aVJimmy Butler CHI 12/21/2015 CHI vs. BKN L 38 24 11 20 55.0 1 6 16.7 1 3 33.3 1 2 3 4 1 1 2 1 -6
p583
aVNikola Mirotic CHI 12/21/2015 CHI vs. BKN L 22 8 3 9 33.3 1 4 25.0 1 2 50.0 1 3 4 1 3 2 1 0 -4
p584
aVBobby Portis CHI 12/21/2015 CHI vs. BKN L 14 6 3 9 33.3 0 1 0.0 0 0 - 0 2 2 1 1 0 0 1 0
p585
aVPau Gasol CHI 12/21/2015 CHI vs. BKN L 33 20 8 16 50.0 0 0 - 4 6 66.7 2 7 9 3 0 2 3 2 -6
p586
aVDoug McDermott CHI 12/21/2015 CHI vs. BKN L 25 11 4 9 44.4 3 6 50.0 0 0 - 1 4 5 2 0 0 2 1 8
p587
aVDerrick Rose CHI 12/21/2015 CHI vs. BKN L 33 8 3 11 27.3 1 3 33.3 1 2 50.0 1 3 4 5 2 0 3 1 -9
p588
aVKirk Hinrich CHI 12/21/2015 CHI vs. BKN L 12 3 1 2 50.0 1 2 50.0 0 0 - 0 1 1 2 0 0 0 3 -3
p589
aVBobby Portis CHI 12/19/2015 CHI @ NYK L 23 20 8 18 44.4 2 3 66.7 2 4 50.0 5 6 11 1 2 0 3 2 -3
p590
aVKirk Hinrich CHI 12/19/2015 CHI @ NYK L 20 0 0 2 0.0 0 1 0.0 0 0 - 0 4 4 1 0 0 1 3 -9
p591
aVJimmy Butler CHI 12/19/2015 CHI @ NYK L 33 12 4 11 36.4 1 2 50.0 3 4 75.0 1 1 2 5 1 0 1 3 -13
p592
aVNikola Mirotic CHI 12/19/2015 CHI @ NYK L 25 2 1 8 12.5 0 5 0.0 0 0 - 0 3 3 0 1 0 3 4 -10
p593
aVTaj Gibson CHI 12/19/2015 CHI @ NYK L 20 6 3 4 75.0 0 0 - 0 0 - 1 1 2 2 0 0 0 0 -4
p594
aVTony Snell CHI 12/19/2015 CHI @ NYK L 21 7 3 6 50.0 1 2 50.0 0 0 - 1 5 6 2 0 0 0 1 2
p595
aVDerrick Rose CHI 12/19/2015 CHI @ NYK L 21 6 3 10 30.0 0 2 0.0 0 1 0.0 2 0 2 1 0 0 2 0 -2
p596
aVDoug McDermott CHI 12/19/2015 CHI @ NYK L 10 0 0 3 0.0 0 2 0.0 0 0 - 0 0 0 0 0 0 0 1 -17
p597
aVE'Twaun Moore CHI 12/19/2015 CHI @ NYK L 12 4 2 5 40.0 0 0 - 0 0 - 1 2 3 0 1 1 1 1 -7
p598
aVCameron Bairstow CHI 12/19/2015 CHI @ NYK L 6 2 1 3 33.3 0 0 - 0 0 - 1 2 3 0 0 0 0 1 2
p599
aVJoakim Noah CHI 12/19/2015 CHI @ NYK L 29 21 9 16 56.3 0 0 - 3 4 75.0 6 4 10 2 1 0 1 1 -15
p600
aVAaron Brooks CHI 12/19/2015 CHI @ NYK L 21 11 3 8 37.5 1 4 25.0 4 4 100.0 0 1 1 3 1 0 1 3 -4
p601
aVAaron Brooks CHI 12/18/2015 CHI vs. DET L 12 2 1 3 33.3 0 0 - 0 0 - 1 1 2 2 0 0 1 2 -6
p602
aVTaj Gibson CHI 12/18/2015 CHI vs. DET L 44 14 4 7 57.1 0 0 - 6 7 85.7 6 6 12 0 0 2 2 2 -2
p603
aVKirk Hinrich CHI 12/18/2015 CHI vs. DET L 13 0 0 1 0.0 0 1 0.0 0 0 - 0 0 0 0 0 0 0 3 2
p604
aVE'Twaun Moore CHI 12/18/2015 CHI vs. DET L 3 5 1 2 50.0 1 1 100.0 2 2 100.0 0 0 0 0 0 0 0 1 0
p605
aVDerrick Rose CHI 12/18/2015 CHI vs. DET L 54 34 14 34 41.2 1 3 33.3 5 5 100.0 0 4 4 8 1 0 4 5 5
p606
aVPau Gasol CHI 12/18/2015 CHI vs. DET L 48 30 10 23 43.5 0 1 0.0 10 12 83.3 6 9 15 5 0 5 1 5 9
p607
aVNikola Mirotic CHI 12/18/2015 CHI vs. DET L 24 5 1 6 16.7 1 3 33.3 2 2 100.0 0 5 5 0 0 0 0 3 -7
p608
aVJimmy Butler CHI 12/18/2015 CHI vs. DET L 56 43 14 29 48.3 1 4 25.0 14 16 87.5 1 7 8 2 2 2 3 5 -5
p609
aVJoakim Noah CHI 12/18/2015 CHI vs. DET L 26 6 3 5 60.0 0 0 - 0 0 - 5 6 11 4 1 0 3 1 -10
p610
aVTony Snell CHI 12/18/2015 CHI vs. DET L 38 3 1 7 14.3 1 7 14.3 0 0 - 1 3 4 0 1 0 2 5 9
p611
aVDoug McDermott CHI 12/18/2015 CHI vs. DET L 22 2 1 3 33.3 0 2 0.0 0 0 - 0 1 1 0 0 0 0 3 -10
p612
aVPau Gasol CHI 12/16/2015 CHI vs. MEM W 33 10 3 6 50.0 0 1 0.0 4 4 100.0 1 13 14 2 0 2 2 1 5
p613
aVDoug McDermott CHI 12/16/2015 CHI vs. MEM W 23 17 6 12 50.0 4 8 50.0 1 1 100.0 0 1 1 0 0 1 1 2 10
p614
aVKirk Hinrich CHI 12/16/2015 CHI vs. MEM W 11 5 2 3 66.7 1 1 100.0 0 0 - 0 1 1 2 0 0 1 2 5
p615
aVJimmy Butler CHI 12/16/2015 CHI vs. MEM W 38 24 10 22 45.5 1 4 25.0 3 3 100.0 1 3 4 4 1 1 1 1 10
p616
aVNikola Mirotic CHI 12/16/2015 CHI vs. MEM W 15 3 1 2 50.0 1 2 50.0 0 0 - 0 2 2 2 2 0 0 1 8
p617
aVTaj Gibson CHI 12/16/2015 CHI vs. MEM W 19 8 3 6 50.0 0 0 - 2 2 100.0 3 3 6 1 1 0 1 1 6
p618
aVTony Snell CHI 12/16/2015 CHI vs. MEM W 22 2 1 4 25.0 0 1 0.0 0 0 - 0 6 6 0 0 0 1 0 8
p619
aVDerrick Rose CHI 12/16/2015 CHI vs. MEM W 33 19 9 19 47.4 0 3 0.0 1 3 33.3 0 2 2 5 1 0 3 1 10
p620
aVAaron Brooks CHI 12/16/2015 CHI vs. MEM W 17 7 2 8 25.0 2 4 50.0 1 2 50.0 2 1 3 1 0 1 2 4 -4
p621
aVJoakim Noah CHI 12/16/2015 CHI vs. MEM W 29 3 1 4 25.0 0 0 - 1 4 25.0 2 4 6 5 0 1 2 4 7
p622
aVTaj Gibson CHI 12/14/2015 CHI vs. PHI W 22 6 3 5 60.0 0 0 - 0 2 0.0 1 4 5 2 1 2 2 0 17
p623
aVE'Twaun Moore CHI 12/14/2015 CHI vs. PHI W 8 0 0 1 0.0 0 0 - 0 0 - 0 0 0 1 0 0 1 2 -9
p624
aVBobby Portis CHI 12/14/2015 CHI vs. PHI W 4 7 3 4 75.0 0 0 - 1 2 50.0 0 1 1 0 0 0 0 0 -3
p625
aVDoug McDermott CHI 12/14/2015 CHI vs. PHI W 24 13 6 16 37.5 1 4 25.0 0 0 - 4 4 8 2 0 0 0 1 5
p626
aVTony Snell CHI 12/14/2015 CHI vs. PHI W 37 16 5 10 50.0 1 5 20.0 5 6 83.3 2 9 11 1 2 0 2 2 18
p627
aVAaron Brooks CHI 12/14/2015 CHI vs. PHI W 7 4 1 4 25.0 0 2 0.0 2 2 100.0 0 0 0 1 0 0 0 0 -3
p628
aVKirk Hinrich CHI 12/14/2015 CHI vs. PHI W 13 3 1 2 50.0 1 1 100.0 0 0 - 0 0 0 0 1 0 1 2 23
p629
aVJoakim Noah CHI 12/14/2015 CHI vs. PHI W 22 5 2 7 28.6 0 1 0.0 1 2 50.0 3 12 15 8 1 2 1 3 14
p630
aVNikola Mirotic CHI 12/14/2015 CHI vs. PHI W 19 17 6 10 60.0 5 8 62.5 0 0 - 0 2 2 0 0 1 3 3 -1
p631
aVDerrick Rose CHI 12/14/2015 CHI vs. PHI W 26 6 2 3 66.7 0 0 - 2 2 100.0 0 1 1 4 0 0 2 1 5
p632
aVCameron Bairstow CHI 12/14/2015 CHI vs. PHI W 3 2 1 2 50.0 0 0 - 0 0 - 0 0 0 0 0 0 0 0 -2
p633
aVPau Gasol CHI 12/14/2015 CHI vs. PHI W 25 13 5 7 71.4 0 0 - 3 3 100.0 0 7 7 6 0 2 1 1 13
p634
aVJimmy Butler CHI 12/14/2015 CHI vs. PHI W 29 23 8 14 57.1 0 1 0.0 7 7 100.0 0 3 3 3 2 1 0 0 18
p635
aVDerrick Rose CHI 12/12/2015 CHI vs. NOP W 29 9 4 10 40.0 0 0 - 1 2 50.0 0 3 3 3 1 0 1 0 0
p636
aVJoakim Noah CHI 12/12/2015 CHI vs. NOP W 30 10 3 4 75.0 0 0 - 4 4 100.0 3 6 9 2 0 4 0 4 6
p637
aVNikola Mirotic CHI 12/12/2015 CHI vs. NOP W 18 10 3 6 50.0 2 3 66.7 2 2 100.0 1 9 10 2 0 0 0 1 -1
p638
aVTaj Gibson CHI 12/12/2015 CHI vs. NOP W 17 4 1 3 33.3 0 0 - 2 2 100.0 1 5 6 0 1 0 1 1 0
p639
aVJimmy Butler CHI 12/12/2015 CHI vs. NOP W 38 15 4 16 25.0 0 1 0.0 7 9 77.8 0 3 3 0 2 1 1 1 3
p640
aVKirk Hinrich CHI 12/12/2015 CHI vs. NOP W 15 3 1 1 100.0 1 1 100.0 0 0 - 0 2 2 2 1 0 2 0 7
p641
aVTony Snell CHI 12/12/2015 CHI vs. NOP W 16 0 0 2 0.0 0 2 0.0 0 0 - 0 1 1 1 1 1 2 0 -4
p642
aVPau Gasol CHI 12/12/2015 CHI vs. NOP W 31 18 6 15 40.0 0 1 0.0 6 8 75.0 2 9 11 2 0 0 3 2 3
p643
aVAaron Brooks CHI 12/12/2015 CHI vs. NOP W 19 17 6 11 54.5 3 6 50.0 2 2 100.0 0 1 1 3 0 0 1 1 0
p644
aVDoug McDermott CHI 12/12/2015 CHI vs. NOP W 28 12 5 10 50.0 2 6 33.3 0 0 - 0 2 2 2 0 0 2 0 6
p645
aVNikola Mirotic CHI 12/10/2015 CHI vs. LAC W 14 5 2 8 25.0 1 5 20.0 0 0 - 0 11 11 1 1 0 0 1 -2
p646
aVTony Snell CHI 12/10/2015 CHI vs. LAC W 22 2 1 3 33.3 0 1 0.0 0 0 - 1 3 4 0 0 0 2 3 -8
p647
aVAaron Brooks CHI 12/10/2015 CHI vs. LAC W 21 10 3 9 33.3 1 3 33.3 3 3 100.0 1 1 2 2 0 0 1 1 2
p648
aVDoug McDermott CHI 12/10/2015 CHI vs. LAC W 16 0 0 5 0.0 0 2 0.0 0 0 - 0 0 0 0 0 0 0 1 14
p649
aVJoakim Noah CHI 12/10/2015 CHI vs. LAC W 20 2 1 5 20.0 0 0 - 0 0 - 6 7 13 2 1 2 3 3 -1
p650
aVKirk Hinrich CHI 12/10/2015 CHI vs. LAC W 20 3 1 4 25.0 1 4 25.0 0 0 - 1 1 2 3 1 0 1 1 9
p651
aVPau Gasol CHI 12/10/2015 CHI vs. LAC W 33 24 10 19 52.6 3 3 100.0 1 1 100.0 0 6 6 0 2 2 1 2 7
p652
aVTaj Gibson CHI 12/10/2015 CHI vs. LAC W 29 12 4 9 44.4 0 0 - 4 4 100.0 3 5 8 2 0 0 0 0 2
p653
aVJimmy Butler CHI 12/10/2015 CHI vs. LAC W 37 14 4 14 28.6 0 2 0.0 6 8 75.0 1 4 5 8 2 2 0 0 -5
p654
aVDerrick Rose CHI 12/10/2015 CHI vs. LAC W 28 11 5 11 45.5 1 3 33.3 0 0 - 0 3 3 2 1 0 3 0 -3
p655
aVTaj Gibson CHI 12/09/2015 CHI @ BOS L 20 8 4 6 66.7 0 0 - 0 0 - 4 3 7 1 0 0 0 1 -5
p656
aVDerrick Rose CHI 12/09/2015 CHI @ BOS L 37 12 5 11 45.5 1 3 33.3 1 4 25.0 0 2 2 6 0 1 3 0 -3
p657
aVJoakim Noah CHI 12/09/2015 CHI @ BOS L 21 5 2 5 40.0 0 0 - 1 2 50.0 2 3 5 6 2 1 2 2 -18
p658
aVPau Gasol CHI 12/09/2015 CHI @ BOS L 33 16 7 17 41.2 0 1 0.0 2 3 66.7 5 10 15 4 1 2 4 3 11
p659
aVJimmy Butler CHI 12/09/2015 CHI @ BOS L 39 36 12 24 50.0 0 5 0.0 12 14 85.7 0 7 7 0 1 0 1 3 3
p660
aVE'Twaun Moore CHI 12/09/2015 CHI @ BOS L 10 0 0 1 0.0 0 0 - 0 0 - 1 0 1 0 0 0 0 0 -10
p661
aVNikola Mirotic CHI 12/09/2015 CHI @ BOS L 22 10 4 10 40.0 2 6 33.3 0 0 - 1 2 3 2 1 1 1 3 2
p662
aVKirk Hinrich CHI 12/09/2015 CHI @ BOS L 11 2 1 1 100.0 0 0 - 0 0 - 0 1 1 0 0 0 1 2 0
p663
aVDoug McDermott CHI 12/09/2015 CHI @ BOS L 26 11 4 11 36.4 3 4 75.0 0 0 - 1 6 7 0 0 0 1 2 0
p664
aVTony Snell CHI 12/09/2015 CHI @ BOS L 22 0 0 5 0.0 0 2 0.0 0 0 - 1 1 2 3 2 0 3 2 -5
p665
aVTaj Gibson CHI 12/07/2015 CHI vs. PHX L 22 8 4 10 40.0 0 0 - 0 0 - 5 3 8 3 2 2 3 4 -14
p666
aVDerrick Rose CHI 12/07/2015 CHI vs. PHX L 34 14 7 18 38.9 0 3 0.0 0 0 - 1 5 6 4 3 1 5 3 2
p667
aVNikola Mirotic CHI 12/07/2015 CHI vs. PHX L 28 13 6 13 46.2 1 7 14.3 0 0 - 4 3 7 4 1 1 2 1 11
p668
aVJoakim Noah CHI 12/07/2015 CHI vs. PHX L 21 3 1 3 33.3 0 0 - 1 4 25.0 2 7 9 6 1 0 1 0 -1
p669
aVE'Twaun Moore CHI 12/07/2015 CHI vs. PHX L 14 4 2 3 66.7 0 1 0.0 0 0 - 0 1 1 0 1 0 1 0 -12
p670
aVKirk Hinrich CHI 12/07/2015 CHI vs. PHX L 14 0 0 5 0.0 0 1 0.0 0 0 - 0 1 1 0 0 0 1 2 -4
p671
aVJimmy Butler CHI 12/07/2015 CHI vs. PHX L 36 19 6 12 50.0 2 3 66.7 5 6 83.3 0 4 4 3 1 1 3 4 6
p672
aVTony Snell CHI 12/07/2015 CHI vs. PHX L 23 10 4 6 66.7 2 3 66.7 0 0 - 0 2 2 1 0 0 0 1 13
p673
aVDoug McDermott CHI 12/07/2015 CHI vs. PHX L 23 8 4 7 57.1 0 2 0.0 0 0 - 0 0 0 1 0 0 1 2 -11
p674
aVPau Gasol CHI 12/07/2015 CHI vs. PHX L 25 22 7 13 53.8 1 1 100.0 7 8 87.5 4 6 10 6 2 3 3 2 0
p675
aVPau Gasol CHI 12/05/2015 CHI vs. CHA L 26 13 6 14 42.9 0 0 - 1 2 50.0 2 9 11 4 0 4 1 4 -6
p676
aVJimmy Butler CHI 12/05/2015 CHI vs. CHA L 38 25 8 18 44.4 1 5 20.0 8 10 80.0 4 4 8 2 2 0 3 4 -6
p677
aVE'Twaun Moore CHI 12/05/2015 CHI vs. CHA L 13 5 2 4 50.0 1 1 100.0 0 0 - 1 0 1 3 0 0 0 0 -2
p678
aVKirk Hinrich CHI 12/05/2015 CHI vs. CHA L 14 4 2 6 33.3 0 2 0.0 0 0 - 0 3 3 2 1 0 1 2 5
p679
aVDoug McDermott CHI 12/05/2015 CHI vs. CHA L 33 13 5 9 55.6 3 5 60.0 0 0 - 0 1 1 1 0 0 2 1 -1
p680
aVDerrick Rose CHI 12/05/2015 CHI vs. CHA L 34 19 8 17 47.1 3 6 50.0 0 1 0.0 0 7 7 5 0 0 2 2 -11
p681
aVNikola Mirotic CHI 12/05/2015 CHI vs. CHA L 27 7 3 11 27.3 1 6 16.7 0 2 0.0 1 6 7 2 1 0 1 2 -8
p682
aVTaj Gibson CHI 12/05/2015 CHI vs. CHA L 21 8 3 7 42.9 0 0 - 2 2 100.0 2 2 4 3 1 0 2 3 2
p683
aVJoakim Noah CHI 12/05/2015 CHI vs. CHA L 22 2 0 3 0.0 0 0 - 2 2 100.0 2 8 10 6 0 1 2 1 0
p684
aVTony Snell CHI 12/05/2015 CHI vs. CHA L 12 0 0 0 - 0 0 - 0 0 - 0 0 0 1 0 0 0 0 -3
p685
aVDoug McDermott CHI 12/02/2015 CHI vs. DEN W 29 11 5 9 55.6 1 3 33.3 0 0 - 1 2 3 2 0 0 1 1 14
p686
aVPau Gasol CHI 12/02/2015 CHI vs. DEN W 36 26 12 19 63.2 0 0 - 2 4 50.0 2 17 19 3 0 4 3 2 18
p687
aVJoakim Noah CHI 12/02/2015 CHI vs. DEN W 35 9 3 5 60.0 0 0 - 3 4 75.0 5 6 11 1 0 4 3 3 -3
p688
aVDerrick Rose CHI 12/02/2015 CHI vs. DEN W 37 12 3 17 17.6 0 2 0.0 6 8 75.0 0 2 2 9 0 0 2 2 9
p689
aVNikola Mirotic CHI 12/02/2015 CHI vs. DEN W 5 3 1 2 50.0 1 2 50.0 0 0 - 1 2 3 0 1 0 0 0 0
p690
aVJimmy Butler CHI 12/02/2015 CHI vs. DEN W 39 19 5 16 31.3 1 4 25.0 8 8 100.0 3 3 6 3 1 1 1 2 7
p691
aVTony Snell CHI 12/02/2015 CHI vs. DEN W 19 6 2 6 33.3 2 3 66.7 0 0 - 0 4 4 1 0 0 0 1 -4
p692
aVAaron Brooks CHI 12/02/2015 CHI vs. DEN W 9 2 0 3 0.0 0 1 0.0 2 3 66.7 0 2 2 3 0 1 1 3 4
p693
aVE'Twaun Moore CHI 12/02/2015 CHI vs. DEN W 11 3 1 4 25.0 1 2 50.0 0 0 - 0 1 1 0 0 0 2 0 -2
p694
aVTaj Gibson CHI 12/02/2015 CHI vs. DEN W 20 8 4 8 50.0 0 0 - 0 0 - 3 8 11 0 1 0 1 3 2
p695
aVPau Gasol CHI 11/30/2015 CHI vs. SAS W 30 18 6 18 33.3 0 0 - 6 8 75.0 4 9 13 4 1 3 1 2 -7
p696
aVDerrick Rose CHI 11/30/2015 CHI vs. SAS W 34 11 5 17 29.4 0 2 0.0 1 2 50.0 0 4 4 6 1 1 1 1 -5
p697
aVTony Snell CHI 11/30/2015 CHI vs. SAS W 23 11 4 5 80.0 3 3 100.0 0 0 - 0 6 6 1 0 0 0 1 6
p698
aVDoug McDermott CHI 11/30/2015 CHI vs. SAS W 30 12 5 12 41.7 1 2 50.0 1 1 100.0 0 3 3 0 0 0 0 2 10
p699
aVE'Twaun Moore CHI 11/30/2015 CHI vs. SAS W 17 6 3 6 50.0 0 2 0.0 0 3 0.0 0 2 2 1 0 0 1 2 9
p700
aVJimmy Butler CHI 11/30/2015 CHI vs. SAS W 40 14 5 9 55.6 0 2 0.0 4 4 100.0 1 2 3 3 1 2 5 3 -11
p701
aVJoakim Noah CHI 11/30/2015 CHI vs. SAS W 23 8 4 6 66.7 0 0 - 0 2 0.0 4 7 11 7 0 0 0 5 10
p702
aVNikola Mirotic CHI 11/30/2015 CHI vs. SAS W 24 8 3 8 37.5 2 5 40.0 0 0 - 1 4 5 2 0 0 2 3 -5
p703
aVTaj Gibson CHI 11/30/2015 CHI vs. SAS W 19 4 2 5 40.0 0 0 - 0 0 - 2 2 4 1 1 0 0 2 8
p704
aVNikola Mirotic CHI 11/27/2015 CHI @ IND L 29 25 8 14 57.1 2 4 50.0 7 8 87.5 2 5 7 2 0 1 2 4 -4
p705
aVTaj Gibson CHI 11/27/2015 CHI @ IND L 19 4 2 5 40.0 0 1 0.0 0 0 - 1 5 6 1 0 1 1 2 -8
p706
aVE'Twaun Moore CHI 11/27/2015 CHI @ IND L 27 7 3 7 42.9 0 0 - 1 2 50.0 0 1 1 2 3 0 0 3 -2
p707
aVBobby Portis CHI 11/27/2015 CHI @ IND L 2 2 1 3 33.3 0 1 0.0 0 0 - 0 1 1 0 0 0 0 0 3
p708
aVTony Snell CHI 11/27/2015 CHI @ IND L 16 6 2 7 28.6 2 4 50.0 0 0 - 0 3 3 0 1 0 1 2 -9
p709
aVDoug McDermott CHI 11/27/2015 CHI @ IND L 6 0 0 4 0.0 0 2 0.0 0 0 - 1 0 1 0 0 0 0 0 -5
p710
aVPau Gasol CHI 11/27/2015 CHI @ IND L 27 9 4 16 25.0 0 1 0.0 1 2 50.0 3 8 11 4 0 0 1 4 -9
p711
aVJoakim Noah CHI 11/27/2015 CHI @ IND L 19 0 0 2 0.0 0 0 - 0 0 - 1 4 5 0 0 2 2 2 -6
p712
aVJimmy Butler CHI 11/27/2015 CHI @ IND L 40 16 4 10 40.0 2 4 50.0 6 6 100.0 0 5 5 5 2 2 4 2 -8
p713
aVDerrick Rose CHI 11/27/2015 CHI @ IND L 31 10 4 16 25.0 2 5 40.0 0 0 - 1 5 6 5 1 1 3 1 -19
p714
aVKirk Hinrich CHI 11/27/2015 CHI @ IND L 22 11 3 7 42.9 3 4 75.0 2 2 100.0 0 1 1 2 0 0 1 3 4
p715
aVCristiano Felicio CHI 11/27/2015 CHI @ IND L 2 2 1 1 100.0 0 0 - 0 0 - 0 0 0 0 0 0 0 0 3
p716
aVTony Snell CHI 11/24/2015 CHI @ POR W 14 5 1 6 16.7 1 5 20.0 2 2 100.0 0 0 0 0 0 0 0 1 2
p717
aVJimmy Butler CHI 11/24/2015 CHI @ POR W 36 22 6 13 46.2 2 3 66.7 8 8 100.0 1 1 2 4 4 0 2 1 8
p718
aVE'Twaun Moore CHI 11/24/2015 CHI @ POR W 9 0 0 1 0.0 0 0 - 0 0 - 0 0 0 0 0 0 0 0 -5
p719
aVNikola Mirotic CHI 11/24/2015 CHI @ POR W 29 13 4 8 50.0 3 4 75.0 2 4 50.0 2 6 8 3 0 0 4 2 3
p720
aVJoakim Noah CHI 11/24/2015 CHI @ POR W 20 7 3 6 50.0 0 0 - 1 2 50.0 0 6 6 1 0 2 1 3 5
p721
aVDerrick Rose CHI 11/24/2015 CHI @ POR W 35 17 7 20 35.0 1 3 33.3 2 2 100.0 0 4 4 6 0 0 2 3 11
p722
aVKirk Hinrich CHI 11/24/2015 CHI @ POR W 26 3 1 4 25.0 0 1 0.0 1 1 100.0 0 1 1 3 0 0 0 4 -2
p723
aVPau Gasol CHI 11/24/2015 CHI @ POR W 29 12 5 15 33.3 0 0 - 2 2 100.0 2 12 14 0 0 1 0 1 0
p724
aVTaj Gibson CHI 11/24/2015 CHI @ POR W 17 10 4 7 57.1 0 0 - 2 2 100.0 1 6 7 1 1 0 0 2 -1
p725
aVDoug McDermott CHI 11/24/2015 CHI @ POR W 25 4 2 6 33.3 0 2 0.0 0 0 - 0 2 2 1 1 0 1 1 4
p726
aVTony Snell CHI 11/20/2015 CHI @ GSW L 28 2 1 7 14.3 0 2 0.0 0 0 - 1 2 3 2 0 0 0 1 -3
p727
aVDoug McDermott CHI 11/20/2015 CHI @ GSW L 18 3 1 5 20.0 1 4 25.0 0 0 - 0 1 1 0 0 0 0 0 -13
p728
aVNikola Mirotic CHI 11/20/2015 CHI @ GSW L 36 18 6 17 35.3 0 6 0.0 6 6 100.0 3 7 10 5 1 0 1 3 5
p729
aVKirk Hinrich CHI 11/20/2015 CHI @ GSW L 34 17 6 11 54.5 3 4 75.0 2 2 100.0 1 1 2 1 2 0 2 6 0
p730
aVTaj Gibson CHI 11/20/2015 CHI @ GSW L 16 3 1 4 25.0 0 1 0.0 1 2 50.0 1 0 1 0 1 1 1 1 -14
p731
aVJoakim Noah CHI 11/20/2015 CHI @ GSW L 17 0 0 3 0.0 0 0 - 0 0 - 5 2 7 0 1 0 4 2 -15
p732
aVE'Twaun Moore CHI 11/20/2015 CHI @ GSW L 24 9 3 8 37.5 1 1 100.0 2 4 50.0 0 0 0 2 2 0 1 2 -8
p733
aVPau Gasol CHI 11/20/2015 CHI @ GSW L 27 14 6 12 50.0 0 0 - 2 2 100.0 2 8 10 5 1 1 2 3 0
p734
aVJimmy Butler CHI 11/20/2015 CHI @ GSW L 39 28 11 21 52.4 2 4 50.0 4 7 57.1 2 7 9 7 3 0 1 1 -12
p735
aVDoug McDermott CHI 11/18/2015 CHI @ PHX W 25 8 4 7 57.1 0 2 0.0 0 0 - 1 4 5 2 0 0 1 1 7
p736
aVPau Gasol CHI 11/18/2015 CHI @ PHX W 28 17 7 13 53.8 0 0 - 3 4 75.0 2 6 8 1 2 1 3 1 1
p737
aVKirk Hinrich CHI 11/18/2015 CHI @ PHX W 24 14 6 7 85.7 2 2 100.0 0 0 - 0 2 2 6 1 0 1 0 5
p738
aVJoakim Noah CHI 11/18/2015 CHI @ PHX W 20 0 0 2 0.0 0 0 - 0 0 - 2 9 11 2 0 1 3 3 5
p739
aVJimmy Butler CHI 11/18/2015 CHI @ PHX W 43 32 11 23 47.8 3 7 42.9 7 8 87.5 3 3 6 2 1 0 1 2 4
p740
aVNikola Mirotic CHI 11/18/2015 CHI @ PHX W 21 10 4 12 33.3 2 5 40.0 0 0 - 1 4 5 3 2 0 1 2 -1
p741
aVE'Twaun Moore CHI 11/18/2015 CHI @ PHX W 14 4 1 2 50.0 0 0 - 2 2 100.0 0 1 1 1 1 0 1 2 -13
p742
aVTaj Gibson CHI 11/18/2015 CHI @ PHX W 27 6 3 7 42.9 0 0 - 0 0 - 2 5 7 0 0 0 1 3 7
p743
aVAaron Brooks CHI 11/18/2015 CHI @ PHX W 19 12 5 7 71.4 2 2 100.0 0 0 - 0 1 1 5 0 0 4 2 6
p744
aVTony Snell CHI 11/18/2015 CHI @ PHX W 19 0 0 3 0.0 0 1 0.0 0 0 - 0 1 1 2 0 0 3 1 9
p745
aVTony Snell CHI 11/16/2015 CHI vs. IND W 29 6 2 5 40.0 2 4 50.0 0 0 - 0 3 3 2 1 1 2 2 -5
p746
aVE'Twaun Moore CHI 11/16/2015 CHI vs. IND W 16 2 1 3 33.3 0 2 0.0 0 0 - 0 2 2 1 1 0 0 0 4
p747
aVKirk Hinrich CHI 11/16/2015 CHI vs. IND W 13 9 2 6 33.3 0 1 0.0 5 6 83.3 0 1 1 1 2 0 1 2 -5
p748
aVDerrick Rose CHI 11/16/2015 CHI vs. IND W 33 23 9 18 50.0 2 2 100.0 3 4 75.0 1 1 2 6 2 1 0 3 5
p749
aVNikola Mirotic CHI 11/16/2015 CHI vs. IND W 17 6 2 7 28.6 1 3 33.3 1 2 50.0 1 5 6 0 0 0 1 1 6
p750
aVPau Gasol CHI 11/16/2015 CHI vs. IND W 27 5 2 11 18.2 0 1 0.0 1 3 33.3 3 10 13 3 0 1 1 1 3
p751
aVTaj Gibson CHI 11/16/2015 CHI vs. IND W 31 9 3 8 37.5 0 0 - 3 6 50.0 5 6 11 5 0 4 1 3 -5
p752
aVJimmy Butler CHI 11/16/2015 CHI vs. IND W 36 17 6 12 50.0 0 0 - 5 8 62.5 0 3 3 4 2 1 2 5 -1
p753
aVJoakim Noah CHI 11/16/2015 CHI vs. IND W 21 8 4 7 57.1 0 0 - 0 1 0.0 0 6 6 4 1 0 0 2 -2
p754
aVDoug McDermott CHI 11/16/2015 CHI vs. IND W 17 11 4 9 44.4 1 2 50.0 2 2 100.0 0 1 1 0 0 1 0 1 5
p755
aVTony Snell CHI 11/13/2015 CHI vs. CHA W 17 3 1 7 14.3 1 3 33.3 0 0 - 0 1 1 0 0 1 1 2 11
p756
aVDoug McDermott CHI 11/13/2015 CHI vs. CHA W 16 8 3 6 50.0 1 2 50.0 1 2 50.0 0 2 2 0 0 0 0 1 -4
p757
aVNikola Mirotic CHI 11/13/2015 CHI vs. CHA W 23 3 0 3 0.0 0 2 0.0 3 4 75.0 1 6 7 3 1 0 1 2 -6
p758
aVPau Gasol CHI 11/13/2015 CHI vs. CHA W 28 19 7 13 53.8 0 0 - 5 5 100.0 0 13 13 3 0 2 2 1 -8
p759
aVE'Twaun Moore CHI 11/13/2015 CHI vs. CHA W 23 11 5 6 83.3 1 1 100.0 0 0 - 0 5 5 0 0 0 0 2 10
p760
aVAaron Brooks CHI 11/13/2015 CHI vs. CHA W 6 1 0 2 0.0 0 1 0.0 1 2 50.0 2 1 3 1 0 0 0 0 0
p761
aVKirk Hinrich CHI 11/13/2015 CHI vs. CHA W 9 5 2 3 66.7 1 1 100.0 0 0 - 0 0 0 1 0 0 0 1 4
p762
aVTaj Gibson CHI 11/13/2015 CHI vs. CHA W 23 12 6 10 60.0 0 0 - 0 0 - 0 2 2 1 0 0 0 1 12
p763
aVJimmy Butler CHI 11/13/2015 CHI vs. CHA W 38 27 8 16 50.0 0 4 0.0 11 14 78.6 0 5 5 4 1 1 4 1 -4
p764
aVJoakim Noah CHI 11/13/2015 CHI vs. CHA W 23 3 1 4 25.0 0 0 - 1 2 50.0 7 11 18 6 1 1 0 3 12
p765
aVDerrick Rose CHI 11/13/2015 CHI vs. CHA W 35 10 4 14 28.6 0 2 0.0 2 2 100.0 0 1 1 8 1 1 3 2 -2
p766
aVAaron Brooks CHI 11/09/2015 CHI @ PHI W 19 10 3 8 37.5 0 1 0.0 4 4 100.0 1 7 8 4 0 0 0 1 9
p767
aVTony Snell CHI 11/09/2015 CHI @ PHI W 20 10 3 7 42.9 2 3 66.7 2 2 100.0 0 5 5 2 0 1 1 1 18
p768
aVDerrick Rose CHI 11/09/2015 CHI @ PHI W 28 12 6 14 42.9 0 3 0.0 0 1 0.0 2 3 5 8 0 1 2 0 14
p769
aVTaj Gibson CHI 11/09/2015 CHI @ PHI W 23 7 2 5 40.0 0 0 - 3 4 75.0 4 3 7 3 2 1 1 4 5
p770
aVNikola Mirotic CHI 11/09/2015 CHI @ PHI W 28 20 6 11 54.5 3 7 42.9 5 7 71.4 1 9 10 0 2 0 4 3 22
p771
aVJimmy Butler CHI 11/09/2015 CHI @ PHI W 26 7 2 6 33.3 1 3 33.3 2 2 100.0 1 5 6 5 1 0 3 1 29
p772
aVCameron Bairstow CHI 11/09/2015 CHI @ PHI W 4 0 0 2 0.0 0 1 0.0 0 0 - 1 1 2 0 0 0 0 2 0
p773
aVDoug McDermott CHI 11/09/2015 CHI @ PHI W 28 18 7 15 46.7 3 6 50.0 1 1 100.0 1 1 2 0 0 0 0 2 5
p774
aVPau Gasol CHI 11/09/2015 CHI @ PHI W 30 16 7 17 41.2 0 0 - 2 2 100.0 1 8 9 1 0 6 1 3 25
p775
aVCristiano Felicio CHI 11/09/2015 CHI @ PHI W 1 0 0 0 - 0 0 - 0 0 - 0 0 0 1 0 0 0 0 0
p776
aVE'Twaun Moore CHI 11/09/2015 CHI @ PHI W 23 9 4 8 50.0 1 1 100.0 0 0 - 1 3 4 3 0 0 1 1 -6
p777
aVBobby Portis CHI 11/09/2015 CHI @ PHI W 10 2 1 3 33.3 0 0 - 0 0 - 0 0 0 1 1 1 1 1 -6
p778
aVJoakim Noah CHI 11/07/2015 CHI vs. MIN L 25 3 1 6 16.7 0 0 - 1 2 50.0 5 6 11 7 1 1 3 4 -2
p779
aVTaj Gibson CHI 11/07/2015 CHI vs. MIN L 25 3 1 4 25.0 0 0 - 1 2 50.0 2 1 3 2 1 0 1 3 -12
p780
aVPau Gasol CHI 11/07/2015 CHI vs. MIN L 40 21 8 19 42.1 0 0 - 5 6 83.3 3 11 14 2 2 1 1 3 -9
p781
aVTony Snell CHI 11/07/2015 CHI vs. MIN L 28 14 5 10 50.0 4 6 66.7 0 0 - 0 6 6 0 0 1 2 2 15
p782
aVDerrick Rose CHI 11/07/2015 CHI vs. MIN L 38 11 3 13 23.1 1 4 25.0 4 5 80.0 0 3 3 5 1 0 5 1 -21
p783
aVJimmy Butler CHI 11/07/2015 CHI vs. MIN L 41 11 4 15 26.7 0 7 0.0 3 6 50.0 0 8 8 2 1 2 5 5 -9
p784
aVDoug McDermott CHI 11/07/2015 CHI vs. MIN L 21 11 4 5 80.0 3 4 75.0 0 0 - 0 2 2 0 0 0 0 2 -19
p785
aVNikola Mirotic CHI 11/07/2015 CHI vs. MIN L 17 4 1 8 12.5 0 5 0.0 2 2 100.0 0 3 3 0 1 0 1 5 5
p786
aVE'Twaun Moore CHI 11/07/2015 CHI vs. MIN L 15 5 2 4 50.0 1 1 100.0 0 0 - 0 0 0 1 0 0 0 0 1
p787
aVAaron Brooks CHI 11/07/2015 CHI vs. MIN L 15 10 4 9 44.4 2 5 40.0 0 0 - 0 0 0 1 0 1 0 1 6
p788
aVTony Snell CHI 11/05/2015 CHI vs. OKC W 11 5 1 4 25.0 1 3 33.3 2 2 100.0 0 5 5 1 0 0 1 1 7
p789
aVPau Gasol CHI 11/05/2015 CHI vs. OKC W 32 11 5 12 41.7 0 0 - 1 4 25.0 3 7 10 2 1 1 0 1 -6
p790
aVDerrick Rose CHI 11/05/2015 CHI vs. OKC W 37 29 12 25 48.0 0 1 0.0 5 6 83.3 1 4 5 6 0 0 2 1 4
p791
aVJoakim Noah CHI 11/05/2015 CHI vs. OKC W 26 4 2 5 40.0 0 0 - 0 0 - 4 3 7 5 0 1 1 4 16
p792
aVNikola Mirotic CHI 11/05/2015 CHI vs. OKC W 16 2 1 5 20.0 0 3 0.0 0 0 - 1 3 4 1 0 0 2 1 -12
p793
aVTaj Gibson CHI 11/05/2015 CHI vs. OKC W 22 9 4 5 80.0 0 0 - 1 1 100.0 0 4 4 3 0 2 0 2 14
p794
aVJimmy Butler CHI 11/05/2015 CHI vs. OKC W 38 26 8 20 40.0 4 5 80.0 6 6 100.0 1 3 4 2 1 2 0 4 -1
p795
aVAaron Brooks CHI 11/05/2015 CHI vs. OKC W 13 9 4 8 50.0 1 3 33.3 0 0 - 1 1 2 0 0 0 0 1 11
p796
aVDoug McDermott CHI 11/05/2015 CHI vs. OKC W 23 9 3 5 60.0 1 3 33.3 2 2 100.0 0 1 1 0 0 0 0 1 -14
p797
aVE'Twaun Moore CHI 11/05/2015 CHI vs. OKC W 22 0 0 1 0.0 0 0 - 0 0 - 0 5 5 0 1 1 0 1 11
p798
aVTony Snell CHI 11/03/2015 CHI @ CHA L 25 0 0 4 0.0 0 0 - 0 0 - 0 2 2 4 1 0 1 2 -6
p799
aVJoakim Noah CHI 11/03/2015 CHI @ CHA L 17 0 0 1 0.0 0 0 - 0 0 - 0 5 5 2 0 0 4 4 -22
p800
aVTaj Gibson CHI 11/03/2015 CHI @ CHA L 16 6 3 3 100.0 0 0 - 0 1 0.0 1 2 3 1 0 0 1 1 -20
p801
aVAaron Brooks CHI 11/03/2015 CHI @ CHA L 17 14 5 8 62.5 4 5 80.0 0 0 - 0 0 0 4 1 0 0 4 -11
p802
aVE'Twaun Moore CHI 11/03/2015 CHI @ CHA L 16 8 4 7 57.1 0 1 0.0 0 0 - 0 0 0 1 0 0 1 1 -6
p803
aVPau Gasol CHI 11/03/2015 CHI @ CHA L 23 13 6 11 54.5 0 1 0.0 1 2 50.0 1 7 8 3 0 0 0 0 -6
p804
aVBobby Portis CHI 11/03/2015 CHI @ CHA L 10 10 5 7 71.4 0 0 - 0 0 - 1 1 2 0 0 0 1 1 8
p805
aVNikola Mirotic CHI 11/03/2015 CHI @ CHA L 24 5 2 11 18.2 1 5 20.0 0 0 - 1 4 5 2 0 0 2 1 -15
p806
aVCameron Bairstow CHI 11/03/2015 CHI @ CHA L 6 2 1 2 50.0 0 1 0.0 0 0 - 0 1 1 0 0 0 0 1 5
p807
aVDerrick Rose CHI 11/03/2015 CHI @ CHA L 24 4 2 8 25.0 0 3 0.0 0 0 - 0 2 2 5 0 0 2 0 -16
p808
aVJimmy Butler CHI 11/03/2015 CHI @ CHA L 32 26 10 16 62.5 4 6 66.7 2 5 40.0 0 1 1 1 2 0 0 2 -19
p809
aVDoug McDermott CHI 11/03/2015 CHI @ CHA L 30 17 6 12 50.0 5 8 62.5 0 0 - 0 4 4 3 1 0 0 2 -17
p810
aVE'Twaun Moore CHI 11/01/2015 CHI vs. ORL W 19 0 0 7 0.0 0 2 0.0 0 0 - 0 2 2 3 0 0 1 3 3
p811
aVNikola Mirotic CHI 11/01/2015 CHI vs. ORL W 28 16 4 12 33.3 3 8 37.5 5 6 83.3 1 2 3 0 0 2 2 1 5
p812
aVDoug McDermott CHI 11/01/2015 CHI vs. ORL W 18 12 5 10 50.0 2 4 50.0 0 0 - 1 0 1 0 0 0 1 2 3
p813
aVTaj Gibson CHI 11/01/2015 CHI vs. ORL W 20 6 2 3 66.7 0 0 - 2 2 100.0 1 5 6 1 0 0 1 0 0
p814
aVJoakim Noah CHI 11/01/2015 CHI vs. ORL W 24 8 3 6 50.0 0 0 - 2 2 100.0 3 6 9 4 1 1 2 3 -3
p815
aVPau Gasol CHI 11/01/2015 CHI vs. ORL W 24 16 7 14 50.0 0 2 0.0 2 2 100.0 3 5 8 1 1 1 1 1 8
p816
aVAaron Brooks CHI 11/01/2015 CHI vs. ORL W 16 6 3 11 27.3 0 5 0.0 0 0 - 2 1 3 1 1 1 1 4 -1
p817
aVTony Snell CHI 11/01/2015 CHI vs. ORL W 26 8 3 6 50.0 2 4 50.0 0 0 - 0 4 4 0 0 1 1 1 0
p818
aVDerrick Rose CHI 11/01/2015 CHI vs. ORL W 32 6 2 8 25.0 0 1 0.0 2 2 100.0 0 7 7 8 0 0 3 1 6
p819
aVJimmy Butler CHI 11/01/2015 CHI vs. ORL W 33 14 4 10 40.0 0 2 0.0 6 8 75.0 0 4 4 5 4 2 0 0 4
p820
aVE'Twaun Moore CHI 10/30/2015 CHI @ DET L 18 0 0 1 0.0 0 1 0.0 0 0 - 0 2 2 0 0 1 1 0 -5
p821
aVAaron Brooks CHI 10/30/2015 CHI @ DET L 18 5 2 6 33.3 1 4 25.0 0 0 - 0 4 4 4 0 0 0 1 10
p822
aVTony Snell CHI 10/30/2015 CHI @ DET L 30 4 2 5 40.0 0 2 0.0 0 0 - 1 1 2 1 1 0 0 4 -2
p823
aVJoakim Noah CHI 10/30/2015 CHI @ DET L 17 2 1 1 100.0 0 0 - 0 2 0.0 0 3 3 2 0 1 2 0 2
p824
aVTaj Gibson CHI 10/30/2015 CHI @ DET L 20 8 4 7 57.1 0 0 - 0 2 0.0 3 4 7 0 0 3 1 5 1
p825
aVDerrick Rose CHI 10/30/2015 CHI @ DET L 34 8 4 13 30.8 0 1 0.0 0 0 - 0 2 2 6 0 0 5 3 -14
p826
aVDoug McDermott CHI 10/30/2015 CHI @ DET L 15 6 2 4 50.0 2 2 100.0 0 0 - 0 1 1 2 0 0 2 3 4
p827
aVNikola Mirotic CHI 10/30/2015 CHI @ DET L 39 22 7 14 50.0 3 8 37.5 5 6 83.3 1 5 6 0 2 0 4 1 2
p828
aVJimmy Butler CHI 10/30/2015 CHI @ DET L 42 23 5 19 26.3 1 3 33.3 12 14 85.7 0 11 11 0 3 0 1 3 -2
p829
aVPau Gasol CHI 10/30/2015 CHI @ DET L 32 16 7 14 50.0 0 1 0.0 2 2 100.0 3 9 12 3 2 3 3 4 -16
p830
aVJoakim Noah CHI 10/28/2015 CHI @ BKN W 18 0 0 3 0.0 0 0 - 0 2 0.0 1 5 6 2 2 1 2 5 -8
p831
aVKirk Hinrich CHI 10/28/2015 CHI @ BKN W 5 0 0 0 - 0 0 - 0 0 - 0 0 0 1 0 0 0 0 -7
p832
aVDerrick Rose CHI 10/28/2015 CHI @ BKN W 29 15 5 11 45.5 0 1 0.0 5 5 100.0 0 2 2 3 1 0 2 2 18
p833
aVTony Snell CHI 10/28/2015 CHI @ BKN W 22 10 3 7 42.9 2 4 50.0 2 2 100.0 0 5 5 0 0 0 0 3 25
p834
aVJimmy Butler CHI 10/28/2015 CHI @ BKN W 34 24 9 11 81.8 3 3 100.0 3 3 100.0 1 3 4 6 2 0 1 0 23
p835
aVAaron Brooks CHI 10/28/2015 CHI @ BKN W 16 12 5 9 55.6 2 6 33.3 0 0 - 0 1 1 3 1 0 1 4 1
p836
aVTaj Gibson CHI 10/28/2015 CHI @ BKN W 18 3 1 4 25.0 0 0 - 1 2 50.0 1 0 1 0 0 0 3 3 -15
p837
aVNikola Mirotic CHI 10/28/2015 CHI @ BKN W 30 18 5 10 50.0 4 8 50.0 4 4 100.0 0 9 9 1 2 1 2 3 30
p838
aVDoug McDermott CHI 10/28/2015 CHI @ BKN W 20 8 3 7 42.9 2 4 50.0 0 0 - 1 1 2 1 0 0 3 2 -14
p839
aVE'Twaun Moore CHI 10/28/2015 CHI @ BKN W 17 9 4 5 80.0 1 2 50.0 0 0 - 0 0 0 0 1 0 2 0 -1
p840
aVPau Gasol CHI 10/28/2015 CHI @ BKN W 30 16 7 11 63.6 0 0 - 2 2 100.0 1 8 9 3 0 1 3 2 23
p841
aVDerrick Rose CHI 10/27/2015 CHI vs. CLE W 32 18 8 22 36.4 0 2 0.0 2 4 50.0 0 1 1 5 1 0 2 0 -1
p842
aVJoakim Noah CHI 10/27/2015 CHI vs. CLE W 17 0 0 0 - 0 0 - 0 2 0.0 2 7 9 4 1 0 1 1 1
p843
aVTony Snell CHI 10/27/2015 CHI vs. CLE W 29 11 4 9 44.4 2 5 40.0 1 2 50.0 0 2 2 0 0 0 1 4 -1
p844
aVJimmy Butler CHI 10/27/2015 CHI vs. CLE W 37 17 6 14 42.9 0 2 0.0 5 5 100.0 1 4 5 2 2 1 0 1 3
p845
aVDoug McDermott CHI 10/27/2015 CHI vs. CLE W 16 8 3 4 75.0 1 2 50.0 1 2 50.0 0 4 4 0 0 0 0 0 -2
p846
aVE'Twaun Moore CHI 10/27/2015 CHI vs. CLE W 14 11 5 8 62.5 1 2 50.0 0 0 - 0 3 3 1 0 0 0 3 4
p847
aVNikola Mirotic CHI 10/27/2015 CHI vs. CLE W 25 19 6 11 54.5 3 4 75.0 4 4 100.0 2 7 9 1 1 0 4 5 9
p848
aVTaj Gibson CHI 10/27/2015 CHI vs. CLE W 22 5 1 3 33.3 0 0 - 3 4 75.0 2 8 10 0 0 3 3 6 2
p849
aVPau Gasol CHI 10/27/2015 CHI vs. CLE W 32 2 1 7 14.3 0 1 0.0 0 0 - 0 2 2 0 1 6 0 1 -8
p850
aVAaron Brooks CHI 10/27/2015 CHI vs. CLE W 16 6 3 9 33.3 0 1 0.0 0 0 - 0 2 2 0 0 0 2 1 3
p851
a.