(lp0
VPLAYER TEAM DATE MATCHUP W/L MIN PTS FGM FGA FG% 3PM 3PA 3P% FTM FTA FT% OREB DREB REB AST STL BLK TOV PF +/-
p1
aVMike Scott ATL 05/08/2016 ATL vs. CLE L 3 2 1 1 100.0 0 0 - 0 0 - 0 0 0 0 0 0 0 0 -3
p2
aVPaul Millsap ATL 05/08/2016 ATL vs. CLE L 41 19 5 12 41.7 1 4 25.0 8 10 80.0 2 7 9 3 1 1 3 3 2
p3
aVJeff Teague ATL 05/08/2016 ATL vs. CLE L 22 5 2 5 40.0 1 3 33.3 0 0 - 0 2 2 2 1 0 3 2 -10
p4
aVAl Horford ATL 05/08/2016 ATL vs. CLE L 39 15 7 14 50.0 1 5 20.0 0 0 - 0 4 4 4 0 1 2 2 -7
p5
aVKent Bazemore ATL 05/08/2016 ATL vs. CLE L 39 11 5 12 41.7 1 7 14.3 0 0 - 0 7 7 2 3 0 0 0 -11
p6
aVKris Humphries ATL 05/08/2016 ATL vs. CLE L 12 8 2 5 40.0 2 4 50.0 2 2 100.0 2 5 7 1 0 3 0 2 4
p7
aVThabo Sefolosha ATL 05/08/2016 ATL vs. CLE L 32 16 7 12 58.3 2 3 66.7 0 2 0.0 3 3 6 3 2 1 2 3 -7
p8
aVDennis Schroder ATL 05/08/2016 ATL vs. CLE L 26 21 10 18 55.6 1 3 33.3 0 0 - 1 2 3 6 2 1 2 2 11
p9
aVKyle Korver ATL 05/08/2016 ATL vs. CLE L 25 2 1 4 25.0 0 2 0.0 0 0 - 1 3 4 1 1 0 0 2 16
p10
aVDennis Schroder ATL 05/06/2016 ATL vs. CLE L 12 8 2 5 40.0 2 3 66.7 2 2 100.0 0 2 2 4 0 0 2 2 -2
p11
aVKris Humphries ATL 05/06/2016 ATL vs. CLE L 20 9 4 9 44.4 1 3 33.3 0 0 - 1 3 4 1 1 2 1 3 12
p12
aVPaul Millsap ATL 05/06/2016 ATL vs. CLE L 39 17 7 17 41.2 1 4 25.0 2 3 66.7 3 5 8 4 2 1 4 2 -8
p13
aVMike Muscala ATL 05/06/2016 ATL vs. CLE L 1 0 0 0 - 0 0 - 0 0 - 0 0 0 0 0 0 0 0 0
p14
aVTim Hardaway Jr. ATL 05/06/2016 ATL vs. CLE L 3 2 0 0 - 0 0 - 2 2 100.0 0 0 0 0 0 0 0 0 0
p15
aVMike Scott ATL 05/06/2016 ATL vs. CLE L 5 0 0 0 - 0 0 - 0 0 - 0 1 1 0 0 0 0 2 -2
p16
aVThabo Sefolosha ATL 05/06/2016 ATL vs. CLE L 29 8 3 5 60.0 2 2 100.0 0 0 - 1 3 4 2 1 0 0 2 -1
p17
aVKent Bazemore ATL 05/06/2016 ATL vs. CLE L 31 3 1 5 20.0 1 3 33.3 0 0 - 1 3 4 1 2 0 2 3 -23
p18
aVKyle Korver ATL 05/06/2016 ATL vs. CLE L 32 18 6 11 54.5 5 9 55.6 1 1 100.0 0 3 3 0 0 1 1 1 -2
p19
aVJeff Teague ATL 05/06/2016 ATL vs. CLE L 36 19 7 17 41.2 2 6 33.3 3 4 75.0 0 1 1 14 0 0 1 3 -11
p20
aVAl Horford ATL 05/06/2016 ATL vs. CLE L 31 24 11 15 73.3 2 4 50.0 0 0 - 0 1 1 3 2 3 3 3 -28
p21
aVMike Scott ATL 05/04/2016 ATL @ CLE L 19 2 0 0 - 0 0 - 2 2 100.0 0 3 3 1 0 1 1 2 -16
p22
aVKris Humphries ATL 05/04/2016 ATL @ CLE L 15 12 4 8 50.0 0 1 0.0 4 4 100.0 3 6 9 1 1 0 0 1 2
p23
aVThabo Sefolosha ATL 05/04/2016 ATL @ CLE L 18 10 4 4 100.0 2 2 100.0 0 0 - 0 2 2 2 0 0 1 1 -14
p24
aVPaul Millsap ATL 05/04/2016 ATL @ CLE L 27 16 4 8 50.0 1 2 50.0 7 8 87.5 3 8 11 1 1 1 3 3 -25
p25
aVMike Muscala ATL 05/04/2016 ATL @ CLE L 14 10 4 5 80.0 2 2 100.0 0 0 - 1 0 1 0 0 0 0 1 4
p26
aVAl Horford ATL 05/04/2016 ATL @ CLE L 25 10 3 7 42.9 2 3 66.7 2 2 100.0 0 3 3 2 0 1 2 2 -22
p27
aVLamar Patterson ATL 05/04/2016 ATL @ CLE L 9 0 0 1 0.0 0 1 0.0 0 0 - 0 1 1 1 1 0 2 1 2
p28
aVJeff Teague ATL 05/04/2016 ATL @ CLE L 23 14 3 10 30.0 0 2 0.0 8 9 88.9 0 3 3 5 0 0 2 3 -17
p29
aVKyle Korver ATL 05/04/2016 ATL @ CLE L 20 7 3 7 42.9 1 2 50.0 0 0 - 0 1 1 0 0 0 0 3 -27
p30
aVKirk Hinrich ATL 05/04/2016 ATL @ CLE L 12 3 1 4 25.0 1 2 50.0 0 0 - 0 2 2 0 0 0 0 2 11
p31
aVKent Bazemore ATL 05/04/2016 ATL @ CLE L 27 5 1 7 14.3 0 3 0.0 3 3 100.0 0 1 1 1 0 0 1 1 -30
p32
aVTim Hardaway Jr. ATL 05/04/2016 ATL @ CLE L 18 4 1 5 20.0 1 4 25.0 1 2 50.0 0 2 2 1 0 0 2 0 11
p33
aVDennis Schroder ATL 05/04/2016 ATL @ CLE L 14 5 2 5 40.0 1 3 33.3 0 0 - 1 0 1 3 0 0 2 3 -4
p34
aVJeff Teague ATL 05/02/2016 ATL @ CLE L 22 8 2 9 22.2 1 4 25.0 3 4 75.0 1 1 2 4 0 0 0 1 -13
p35
aVKyle Korver ATL 05/02/2016 ATL @ CLE L 37 3 0 1 0.0 0 1 0.0 3 3 100.0 0 5 5 0 0 0 0 2 -6
p36
aVThabo Sefolosha ATL 05/02/2016 ATL @ CLE L 11 2 1 3 33.3 0 1 0.0 0 0 - 0 1 1 1 0 0 0 1 -7
p37
aVAl Horford ATL 05/02/2016 ATL @ CLE L 36 10 4 13 30.8 0 1 0.0 2 2 100.0 0 6 6 1 2 3 1 5 -9
p38
aVKent Bazemore ATL 05/02/2016 ATL @ CLE L 36 16 6 14 42.9 3 10 30.0 1 2 50.0 4 8 12 4 2 0 4 4 -15
p39
aVTim Hardaway Jr. ATL 05/02/2016 ATL @ CLE L 8 0 0 4 0.0 0 2 0.0 0 0 - 0 0 0 0 0 0 0 0 2
p40
aVDennis Schroder ATL 05/02/2016 ATL @ CLE L 29 27 10 20 50.0 5 10 50.0 2 2 100.0 1 2 3 6 0 0 5 5 3
p41
aVMike Muscala ATL 05/02/2016 ATL @ CLE L 6 0 0 0 - 0 0 - 0 0 - 1 1 2 0 0 0 0 0 -1
p42
aVMike Scott ATL 05/02/2016 ATL @ CLE L 16 7 3 3 100.0 1 1 100.0 0 0 - 0 4 4 2 0 0 0 1 6
p43
aVLamar Patterson ATL 05/02/2016 ATL @ CLE L 1 3 1 1 100.0 1 1 100.0 0 0 - 0 0 0 0 0 0 0 0 1
p44
aVPaul Millsap ATL 05/02/2016 ATL @ CLE L 40 17 6 19 31.6 0 3 0.0 5 8 62.5 8 5 13 3 2 4 2 3 -16
p45
aVMike Muscala ATL 04/28/2016 ATL @ BOS W 9 4 2 2 100.0 0 0 - 0 0 - 0 2 2 1 0 0 0 1 10
p46
aVDennis Schroder ATL 04/28/2016 ATL @ BOS W 23 12 5 10 50.0 1 2 50.0 1 2 50.0 0 3 3 8 0 0 2 2 13
p47
aVPaul Millsap ATL 04/28/2016 ATL @ BOS W 37 17 4 10 40.0 0 3 0.0 9 11 81.8 0 8 8 2 1 4 3 2 -6
p48
aVKirk Hinrich ATL 04/28/2016 ATL @ BOS W 0 0 0 0 - 0 0 - 0 0 - 0 0 0 0 0 0 0 0 0
p49
aVThabo Sefolosha ATL 04/28/2016 ATL @ BOS W 12 2 1 4 25.0 0 2 0.0 0 0 - 1 4 5 0 1 0 1 3 -3
p50
aVAl Horford ATL 04/28/2016 ATL @ BOS W 30 15 7 10 70.0 1 2 50.0 0 0 - 0 4 4 2 2 3 3 4 19
p51
aVKyle Korver ATL 04/28/2016 ATL @ BOS W 36 14 4 4 100.0 2 2 100.0 4 4 100.0 0 9 9 3 0 2 1 2 21
p52
aVMike Scott ATL 04/28/2016 ATL @ BOS W 20 7 2 4 50.0 1 2 50.0 2 2 100.0 0 3 3 0 1 1 3 4 1
p53
aVKent Bazemore ATL 04/28/2016 ATL @ BOS W 32 15 6 13 46.2 2 6 33.3 1 4 25.0 1 3 4 3 1 2 1 0 3
p54
aVTim Hardaway Jr. ATL 04/28/2016 ATL @ BOS W 17 7 3 6 50.0 1 3 33.3 0 0 - 0 3 3 2 0 0 0 0 3
p55
aVJeff Teague ATL 04/28/2016 ATL @ BOS W 25 11 4 11 36.4 0 2 0.0 3 4 75.0 1 0 1 5 0 0 4 5 -1
p56
aVAl Horford ATL 04/26/2016 ATL vs. BOS W 24 6 2 11 18.2 0 2 0.0 2 2 100.0 2 6 8 4 2 1 1 1 9
p57
aVThabo Sefolosha ATL 04/26/2016 ATL vs. BOS W 20 6 2 4 50.0 0 1 0.0 2 2 100.0 1 4 5 6 3 0 1 0 30
p58
aVTim Hardaway Jr. ATL 04/26/2016 ATL vs. BOS W 18 4 2 6 33.3 0 3 0.0 0 0 - 0 3 3 2 0 0 1 0 -5
p59
aVDennis Schroder ATL 04/26/2016 ATL vs. BOS W 14 9 4 7 57.1 1 2 50.0 0 0 - 0 0 0 2 1 0 1 0 15
p60
aVPaul Millsap ATL 04/26/2016 ATL vs. BOS W 28 10 4 8 50.0 1 3 33.3 1 4 25.0 3 5 8 6 1 1 2 3 24
p61
aVLamar Patterson ATL 04/26/2016 ATL vs. BOS W 9 3 1 5 20.0 0 1 0.0 1 1 100.0 0 2 2 1 0 0 1 0 0
p62
aVJeff Teague ATL 04/26/2016 ATL vs. BOS W 22 16 5 11 45.5 1 2 50.0 5 6 83.3 0 1 1 3 0 0 2 3 14
p63
aVMike Scott ATL 04/26/2016 ATL vs. BOS W 22 17 7 9 77.8 2 3 66.7 1 1 100.0 0 5 5 0 1 0 0 4 26
p64
aVMike Muscala ATL 04/26/2016 ATL vs. BOS W 14 0 0 4 0.0 0 1 0.0 0 0 - 3 3 6 1 0 0 0 1 -5
p65
aVKyle Korver ATL 04/26/2016 ATL vs. BOS W 27 13 5 8 62.5 3 6 50.0 0 0 - 1 1 2 1 5 0 2 1 23
p66
aVKent Bazemore ATL 04/26/2016 ATL vs. BOS W 23 16 6 14 42.9 4 8 50.0 0 0 - 1 4 5 0 0 1 0 1 6
p67
aVKirk Hinrich ATL 04/26/2016 ATL vs. BOS W 12 2 1 3 33.3 0 1 0.0 0 0 - 0 2 2 3 0 0 0 0 -2
p68
aVKris Humphries ATL 04/26/2016 ATL vs. BOS W 9 8 3 6 50.0 2 2 100.0 0 0 - 2 2 4 1 0 0 1 3 0
p69
aVPaul Millsap ATL 04/24/2016 ATL @ BOS L 46 45 19 31 61.3 3 6 50.0 4 6 66.7 5 8 13 3 2 4 3 5 2
p70
aVMike Scott ATL 04/24/2016 ATL @ BOS L 17 4 1 2 50.0 0 1 0.0 2 3 66.7 1 1 2 1 0 0 2 2 -12
p71
aVTim Hardaway Jr. ATL 04/24/2016 ATL @ BOS L 0 0 0 0 - 0 0 - 0 0 - 0 0 0 0 0 0 0 0 2
p72
aVAl Horford ATL 04/24/2016 ATL @ BOS L 38 5 2 8 25.0 1 2 50.0 0 0 - 2 7 9 5 1 1 0 3 -7
p73
aVMike Muscala ATL 04/24/2016 ATL @ BOS L 5 6 3 3 100.0 0 0 - 0 0 - 1 0 1 0 0 0 0 1 -1
p74
aVJeff Teague ATL 04/24/2016 ATL @ BOS L 34 13 4 17 23.5 3 9 33.3 2 3 66.7 0 2 2 5 1 0 3 3 9
p75
aVKyle Korver ATL 04/24/2016 ATL @ BOS L 47 10 3 11 27.3 3 9 33.3 1 1 100.0 0 8 8 0 1 0 1 2 1
p76
aVDennis Schroder ATL 04/24/2016 ATL @ BOS L 20 7 3 13 23.1 1 6 16.7 0 0 - 2 2 4 2 1 0 3 2 -20
p77
aVKent Bazemore ATL 04/24/2016 ATL @ BOS L 40 5 2 10 20.0 1 6 16.7 0 0 - 0 8 8 2 2 1 1 1 7
p78
aVThabo Sefolosha ATL 04/24/2016 ATL @ BOS L 17 0 0 4 0.0 0 3 0.0 0 0 - 1 1 2 0 0 0 1 1 -26
p79
aVKent Bazemore ATL 04/22/2016 ATL @ BOS L 34 20 8 19 42.1 2 8 25.0 2 3 66.7 1 7 8 2 2 0 1 3 -2
p80
aVKyle Korver ATL 04/22/2016 ATL @ BOS L 29 17 6 10 60.0 5 9 55.6 0 0 - 0 0 0 2 1 0 1 6 -3
p81
aVDennis Schroder ATL 04/22/2016 ATL @ BOS L 22 20 8 14 57.1 0 4 0.0 4 5 80.0 0 1 1 2 0 0 2 4 1
p82
aVMike Muscala ATL 04/22/2016 ATL @ BOS L 3 0 0 2 0.0 0 2 0.0 0 0 - 0 1 1 0 0 0 1 1 -6
p83
aVThabo Sefolosha ATL 04/22/2016 ATL @ BOS L 20 1 0 2 0.0 0 2 0.0 1 2 50.0 0 3 3 0 2 2 1 1 0
p84
aVMike Scott ATL 04/22/2016 ATL @ BOS L 21 6 2 3 66.7 2 3 66.7 0 0 - 1 2 3 1 0 0 1 1 6
p85
aVTim Hardaway Jr. ATL 04/22/2016 ATL @ BOS L 4 0 0 0 - 0 0 - 0 0 - 0 0 0 0 0 0 0 1 -8
p86
aVKirk Hinrich ATL 04/22/2016 ATL @ BOS L 2 0 0 0 - 0 0 - 0 0 - 0 0 0 0 0 0 0 0 -4
p87
aVJeff Teague ATL 04/22/2016 ATL @ BOS L 32 23 7 17 41.2 0 4 0.0 9 9 100.0 0 2 2 5 1 1 4 3 -8
p88
aVAl Horford ATL 04/22/2016 ATL @ BOS L 36 8 4 10 40.0 0 3 0.0 0 0 - 3 10 13 6 2 4 1 0 -12
p89
aVPaul Millsap ATL 04/22/2016 ATL @ BOS L 37 8 3 9 33.3 0 1 0.0 2 2 100.0 2 8 10 1 2 0 1 4 -4
p90
aVKirk Hinrich ATL 04/19/2016 ATL vs. BOS W 1 0 0 0 - 0 0 - 0 0 - 0 0 0 0 0 0 0 0 2
p91
aVDennis Schroder ATL 04/19/2016 ATL vs. BOS W 20 8 3 6 50.0 0 0 - 2 2 100.0 1 1 2 1 0 0 1 2 -2
p92
aVAl Horford ATL 04/19/2016 ATL vs. BOS W 31 17 6 11 54.5 3 4 75.0 2 2 100.0 1 4 5 2 1 5 2 2 21
p93
aVJeff Teague ATL 04/19/2016 ATL vs. BOS W 27 13 5 9 55.6 1 2 50.0 2 2 100.0 0 1 1 6 2 1 4 3 17
p94
aVKent Bazemore ATL 04/19/2016 ATL vs. BOS W 29 5 2 14 14.3 1 5 20.0 0 0 - 0 9 9 4 2 0 0 1 11
p95
aVTim Hardaway Jr. ATL 04/19/2016 ATL vs. BOS W 12 3 1 3 33.3 0 1 0.0 1 1 100.0 0 1 1 2 0 0 0 0 3
p96
aVMike Muscala ATL 04/19/2016 ATL vs. BOS W 11 4 1 4 25.0 0 1 0.0 2 2 100.0 1 2 3 0 0 1 2 0 -8
p97
aVThabo Sefolosha ATL 04/19/2016 ATL vs. BOS W 21 12 4 5 80.0 1 2 50.0 3 5 60.0 0 6 6 1 0 2 0 3 -7
p98
aVMike Scott ATL 04/19/2016 ATL vs. BOS W 20 6 3 9 33.3 0 2 0.0 0 0 - 0 6 6 0 1 1 0 1 2
p99
aVLamar Patterson ATL 04/19/2016 ATL vs. BOS W 1 0 0 0 - 0 0 - 0 0 - 0 2 2 1 0 0 1 0 2
p100
aVPaul Millsap ATL 04/19/2016 ATL vs. BOS W 34 4 1 12 8.3 0 5 0.0 2 2 100.0 0 7 7 1 0 4 5 2 19
p101
aVKyle Korver ATL 04/19/2016 ATL vs. BOS W 33 17 6 9 66.7 5 7 71.4 0 0 - 0 7 7 2 1 1 0 2 25
p102
aVAl Horford ATL 04/16/2016 ATL vs. BOS W 37 24 8 17 47.1 1 2 50.0 7 8 87.5 5 7 12 2 0 2 2 3 -4
p103
aVTim Hardaway Jr. ATL 04/16/2016 ATL vs. BOS W 8 0 0 2 0.0 0 1 0.0 0 1 0.0 0 0 0 0 0 1 0 1 -5
p104
aVThabo Sefolosha ATL 04/16/2016 ATL vs. BOS W 22 2 0 3 0.0 0 1 0.0 2 4 50.0 1 6 7 2 1 1 3 2 -3
p105
aVMike Scott ATL 04/16/2016 ATL vs. BOS W 18 14 6 9 66.7 2 4 50.0 0 0 - 3 2 5 0 0 0 1 3 7
p106
aVKirk Hinrich ATL 04/16/2016 ATL vs. BOS W 0 0 0 0 - 0 0 - 0 0 - 0 0 0 0 0 0 0 0 0
p107
aVDennis Schroder ATL 04/16/2016 ATL vs. BOS W 11 0 0 6 0.0 0 2 0.0 0 0 - 0 0 0 2 0 0 1 2 -7
p108
aVPaul Millsap ATL 04/16/2016 ATL vs. BOS W 36 14 6 11 54.5 1 2 50.0 1 1 100.0 2 5 7 3 1 3 0 2 -3
p109
aVMike Muscala ATL 04/16/2016 ATL vs. BOS W 4 0 0 0 - 0 0 - 0 0 - 0 1 1 1 0 0 0 1 1
p110
aVJeff Teague ATL 04/16/2016 ATL vs. BOS W 36 23 7 15 46.7 0 2 0.0 9 11 81.8 1 3 4 12 1 0 2 4 8
p111
aVKyle Korver ATL 04/16/2016 ATL vs. BOS W 32 2 1 10 10.0 0 7 0.0 0 0 - 1 8 9 1 0 0 2 2 4
p112
aVKent Bazemore ATL 04/16/2016 ATL vs. BOS W 34 23 7 13 53.8 1 5 20.0 8 10 80.0 0 8 8 0 1 2 0 0 7
p113
a.