(lp0
VPLAYER TEAM DATE MATCHUP W/L MIN PTS FGM FGA FG% 3PM 3PA 3P% FTM FTA FT% OREB DREB REB AST STL BLK TOV PF +/-
p1
aVXavier Munford MEM 04/24/2016 MEM vs. SAS L 20 2 1 5 20.0 0 2 0.0 0 2 0.0 0 1 1 2 1 2 1 4 -3
p2
aVTony Allen MEM 04/24/2016 MEM vs. SAS L 16 6 3 9 33.3 0 2 0.0 0 0 - 0 1 1 0 2 0 1 2 -9
p3
aVZach Randolph MEM 04/24/2016 MEM vs. SAS L 22 15 6 11 54.5 0 0 - 3 3 100.0 4 3 7 0 0 0 0 3 -17
p4
aVLance Stephenson MEM 04/24/2016 MEM vs. SAS L 35 26 11 19 57.9 0 0 - 4 5 80.0 0 1 1 3 0 0 1 5 -9
p5
aVJordan Farmar MEM 04/24/2016 MEM vs. SAS L 28 6 2 6 33.3 0 0 - 2 2 100.0 0 1 1 5 0 0 5 0 -18
p6
aVJaMychal Green MEM 04/24/2016 MEM vs. SAS L 22 4 1 3 33.3 0 0 - 2 2 100.0 0 2 2 0 1 1 1 6 -14
p7
aVChris Andersen MEM 04/24/2016 MEM vs. SAS L 24 7 1 5 20.0 0 0 - 5 8 62.5 8 5 13 2 1 1 1 1 1
p8
aVMatt Barnes MEM 04/24/2016 MEM vs. SAS L 45 15 6 13 46.2 1 5 20.0 2 3 66.7 1 7 8 4 1 1 6 4 -24
p9
aVVince Carter MEM 04/24/2016 MEM vs. SAS L 28 14 4 7 57.1 4 4 100.0 2 2 100.0 1 2 3 2 0 0 1 4 -12
p10
aVXavier Munford MEM 04/22/2016 MEM vs. SAS L 15 7 3 4 75.0 1 2 50.0 0 0 - 1 3 4 2 0 0 1 1 -9
p11
aVZach Randolph MEM 04/22/2016 MEM vs. SAS L 39 20 9 21 42.9 0 0 - 2 2 100.0 5 6 11 1 0 0 3 4 2
p12
aVLance Stephenson MEM 04/22/2016 MEM vs. SAS L 22 8 4 7 57.1 0 1 0.0 0 0 - 1 2 3 1 0 0 1 2 -1
p13
aVChris Andersen MEM 04/22/2016 MEM vs. SAS L 14 2 1 2 50.0 0 0 - 0 0 - 0 1 1 0 0 1 1 1 -9
p14
aVVince Carter MEM 04/22/2016 MEM vs. SAS L 26 11 3 12 25.0 1 2 50.0 4 4 100.0 3 5 8 0 0 0 1 1 -8
p15
aVJaMychal Green MEM 04/22/2016 MEM vs. SAS L 13 10 5 5 100.0 0 0 - 0 2 0.0 1 3 4 2 0 2 3 1 -9
p16
aVTony Allen MEM 04/22/2016 MEM vs. SAS L 36 5 0 8 0.0 0 3 0.0 5 6 83.3 2 2 4 1 1 1 1 2 2
p17
aVMatt Barnes MEM 04/22/2016 MEM vs. SAS L 42 17 6 15 40.0 1 6 16.7 4 5 80.0 2 9 11 4 2 0 2 5 -13
p18
aVJordan Farmar MEM 04/22/2016 MEM vs. SAS L 33 7 3 8 37.5 1 4 25.0 0 0 - 0 2 2 6 1 0 1 0 0
p19
aVJarell Martin MEM 04/19/2016 MEM @ SAS L 23 4 1 5 20.0 0 0 - 2 4 50.0 2 1 3 1 2 0 2 3 -20
p20
aVLance Stephenson MEM 04/19/2016 MEM @ SAS L 9 4 2 7 28.6 0 0 - 0 0 - 0 0 0 1 0 0 0 2 -8
p21
aVMatt Barnes MEM 04/19/2016 MEM @ SAS L 30 9 3 11 27.3 1 4 25.0 2 2 100.0 1 5 6 2 1 0 2 2 -8
p22
aVVince Carter MEM 04/19/2016 MEM @ SAS L 17 4 2 7 28.6 0 1 0.0 0 0 - 1 0 1 1 2 0 0 2 -13
p23
aVTony Allen MEM 04/19/2016 MEM @ SAS L 21 12 4 7 57.1 0 1 0.0 4 7 57.1 2 1 3 1 2 0 2 5 -11
p24
aVZach Randolph MEM 04/19/2016 MEM @ SAS L 30 11 5 17 29.4 0 0 - 1 2 50.0 5 7 12 3 1 0 1 1 -14
p25
aVPJ Hairston MEM 04/19/2016 MEM @ SAS L 10 0 0 2 0.0 0 1 0.0 0 2 0.0 0 0 0 0 0 0 0 0 -7
p26
aVJordan Farmar MEM 04/19/2016 MEM @ SAS L 31 8 3 11 27.3 1 5 20.0 1 1 100.0 0 1 1 2 2 0 3 3 -12
p27
aVChris Andersen MEM 04/19/2016 MEM @ SAS L 24 4 2 2 100.0 0 0 - 0 0 - 2 6 8 0 0 0 2 1 -11
p28
aVJaMychal Green MEM 04/19/2016 MEM @ SAS L 19 6 3 7 42.9 0 1 0.0 0 0 - 3 4 7 1 2 2 0 3 -7
p29
aVXavier Munford MEM 04/19/2016 MEM @ SAS L 27 6 3 10 30.0 0 2 0.0 0 0 - 0 3 3 2 2 0 1 2 -19
p30
aVJordan Farmar MEM 04/17/2016 MEM @ SAS L 21 6 2 6 33.3 2 3 66.7 0 0 - 0 2 2 3 0 1 1 1 -7
p31
aVChris Andersen MEM 04/17/2016 MEM @ SAS L 17 2 1 3 33.3 0 0 - 0 0 - 3 6 9 1 1 1 1 1 -14
p32
aVJarell Martin MEM 04/17/2016 MEM @ SAS L 23 5 2 3 66.7 0 0 - 1 2 50.0 2 2 4 0 1 0 1 1 -6
p33
aVXavier Munford MEM 04/17/2016 MEM @ SAS L 28 4 2 9 22.2 0 2 0.0 0 0 - 0 1 1 4 3 1 2 1 -16
p34
aVJaMychal Green MEM 04/17/2016 MEM @ SAS L 19 7 3 7 42.9 0 0 - 1 2 50.0 1 1 2 0 0 0 0 2 -21
p35
aVLance Stephenson MEM 04/17/2016 MEM @ SAS L 29 14 6 11 54.5 2 4 50.0 0 0 - 0 2 2 2 1 0 1 1 -16
p36
aVPJ Hairston MEM 04/17/2016 MEM @ SAS L 12 5 2 4 50.0 1 2 50.0 0 0 - 0 0 0 0 1 0 1 1 -2
p37
aVVince Carter MEM 04/17/2016 MEM @ SAS L 19 16 6 7 85.7 2 3 66.7 2 2 100.0 0 3 3 2 0 1 1 2 -14
p38
aVMatt Barnes MEM 04/17/2016 MEM @ SAS L 23 2 1 7 14.3 0 3 0.0 0 0 - 1 3 4 1 0 0 3 2 -22
p39
aVZach Randolph MEM 04/17/2016 MEM @ SAS L 28 6 3 13 23.1 0 0 - 0 0 - 1 4 5 3 0 0 3 2 -28
p40
aVTony Allen MEM 04/17/2016 MEM @ SAS L 21 7 3 9 33.3 1 1 100.0 0 0 - 2 1 3 1 0 1 2 2 -14
p41
a.