(lp0
VPLAYER TEAM DATE MATCHUP W/L MIN PTS FGM FGA FG% 3PM 3PA 3P% FTM FTA FT% OREB DREB REB AST STL BLK TOV PF +/-
p1
aVJeff Ayres LAC 04/13/2016 LAC @ PHX L 19 8 3 8 37.5 0 0 - 2 2 100.0 0 5 5 1 0 0 2 3 -12
p2
aVPaul Pierce LAC 04/13/2016 LAC @ PHX L 22 6 3 7 42.9 0 3 0.0 0 0 - 0 3 3 0 0 1 2 2 -11
p3
aVAustin Rivers LAC 04/13/2016 LAC @ PHX L 31 16 7 17 41.2 1 5 20.0 1 3 33.3 1 3 4 5 2 0 0 2 -9
p4
aVBranden Dawson LAC 04/13/2016 LAC @ PHX L 7 3 1 2 50.0 0 0 - 1 1 100.0 0 0 0 0 0 0 0 0 6
p5
aVWesley Johnson LAC 04/13/2016 LAC @ PHX L 35 19 7 16 43.8 5 8 62.5 0 0 - 1 1 2 0 2 1 1 3 5
p6
aVCJ Wilcox LAC 04/13/2016 LAC @ PHX L 29 19 8 13 61.5 3 6 50.0 0 0 - 0 3 3 1 0 1 0 3 4
p7
aVCole Aldrich LAC 04/13/2016 LAC @ PHX L 25 14 5 5 100.0 0 0 - 4 4 100.0 2 8 10 1 1 3 1 2 1
p8
aVPablo Prigioni LAC 04/13/2016 LAC @ PHX L 39 8 4 15 26.7 0 7 0.0 0 0 - 1 5 6 9 4 0 6 2 -15
p9
aVLuc Mbah a Moute LAC 04/13/2016 LAC @ PHX L 9 0 0 2 0.0 0 0 - 0 0 - 0 0 0 1 0 0 0 1 -8
p10
aVJeff Green LAC 04/13/2016 LAC @ PHX L 25 12 5 11 45.5 0 2 0.0 2 2 100.0 1 6 7 5 0 0 3 2 -6
p11
aVChris Paul LAC 04/12/2016 LAC vs. MEM W 27 12 4 9 44.4 2 3 66.7 2 2 100.0 1 1 2 13 2 0 5 1 19
p12
aVJeff Green LAC 04/12/2016 LAC vs. MEM W 26 13 6 12 50.0 1 2 50.0 0 2 0.0 2 1 3 1 0 0 0 1 17
p13
aVDeAndre Jordan LAC 04/12/2016 LAC vs. MEM W 28 7 3 4 75.0 0 0 - 1 2 50.0 1 11 12 1 1 2 1 2 19
p14
aVJeff Ayres LAC 04/12/2016 LAC vs. MEM W 5 0 0 0 - 0 0 - 0 0 - 0 1 1 1 0 0 0 2 5
p15
aVJJ Redick LAC 04/12/2016 LAC vs. MEM W 13 11 4 8 50.0 3 6 50.0 0 0 - 0 1 1 0 0 0 0 1 10
p16
aVCole Aldrich LAC 04/12/2016 LAC vs. MEM W 15 6 2 2 100.0 0 0 - 2 2 100.0 0 4 4 1 1 3 0 2 2
p17
aVPablo Prigioni LAC 04/12/2016 LAC vs. MEM W 19 5 2 2 100.0 1 1 100.0 0 0 - 3 1 4 5 1 0 0 1 12
p18
aVPaul Pierce LAC 04/12/2016 LAC vs. MEM W 20 11 2 8 25.0 1 4 25.0 6 6 100.0 0 3 3 1 0 0 0 2 7
p19
aVBlake Griffin LAC 04/12/2016 LAC vs. MEM W 23 12 5 10 50.0 0 0 - 2 3 66.7 0 7 7 4 3 0 2 3 12
p20
aVCJ Wilcox LAC 04/12/2016 LAC vs. MEM W 5 6 3 3 100.0 0 0 - 0 0 - 0 1 1 0 0 0 0 0 5
p21
aVLuc Mbah a Moute LAC 04/12/2016 LAC vs. MEM W 14 8 4 5 80.0 0 0 - 0 0 - 1 0 1 0 1 0 0 1 9
p22
aVAustin Rivers LAC 04/12/2016 LAC vs. MEM W 26 14 4 7 57.1 3 6 50.0 3 4 75.0 0 1 1 2 0 0 1 2 9
p23
aVWesley Johnson LAC 04/12/2016 LAC vs. MEM W 18 5 2 5 40.0 1 3 33.3 0 0 - 0 1 1 0 2 2 0 1 4
p24
aVBlake Griffin LAC 04/10/2016 LAC vs. DAL W 33 17 7 18 38.9 0 0 - 3 5 60.0 2 9 11 7 2 0 4 5 -1
p25
aVJeff Ayres LAC 04/10/2016 LAC vs. DAL W 1 0 0 0 - 0 0 - 0 0 - 0 0 0 0 0 0 0 0 -3
p26
aVAustin Rivers LAC 04/10/2016 LAC vs. DAL W 13 0 0 4 0.0 0 1 0.0 0 0 - 0 0 0 0 1 0 1 2 -9
p27
aVCJ Wilcox LAC 04/10/2016 LAC vs. DAL W 1 0 0 0 - 0 0 - 0 0 - 0 1 1 0 0 0 0 0 -3
p28
aVJamal Crawford LAC 04/10/2016 LAC vs. DAL W 26 22 7 13 53.8 4 6 66.7 4 7 57.1 0 1 1 2 1 0 2 1 6
p29
aVJeff Green LAC 04/10/2016 LAC vs. DAL W 20 11 5 11 45.5 0 2 0.0 1 1 100.0 0 1 1 2 3 1 0 0 -2
p30
aVJJ Redick LAC 04/10/2016 LAC vs. DAL W 31 20 8 10 80.0 4 4 100.0 0 0 - 0 1 1 1 0 1 1 0 6
p31
aVLuc Mbah a Moute LAC 04/10/2016 LAC vs. DAL W 13 2 1 1 100.0 0 0 - 0 0 - 0 1 1 1 2 1 1 2 5
p32
aVChris Paul LAC 04/10/2016 LAC vs. DAL W 35 5 2 10 20.0 0 4 0.0 1 1 100.0 0 7 7 11 1 0 0 2 16
p33
aVCole Aldrich LAC 04/10/2016 LAC vs. DAL W 10 4 2 3 66.7 0 0 - 0 0 - 2 6 8 1 0 1 0 2 1
p34
aVDeAndre Jordan LAC 04/10/2016 LAC vs. DAL W 32 14 4 5 80.0 0 0 - 6 23 26.1 2 8 10 0 0 1 1 2 15
p35
aVPablo Prigioni LAC 04/10/2016 LAC vs. DAL W 9 0 0 0 - 0 0 - 0 0 - 0 0 0 0 1 0 0 2 -6
p36
aVWesley Johnson LAC 04/10/2016 LAC vs. DAL W 16 3 1 1 100.0 1 1 100.0 0 0 - 0 1 1 0 0 1 0 2 10
p37
aVPablo Prigioni LAC 04/08/2016 LAC @ UTA W 42 13 4 9 44.4 2 5 40.0 3 3 100.0 0 7 7 7 0 0 1 5 22
p38
aVLuc Mbah a Moute LAC 04/08/2016 LAC @ UTA W 33 0 0 2 0.0 0 0 - 0 0 - 0 3 3 1 2 0 0 2 16
p39
aVJeff Green LAC 04/08/2016 LAC @ UTA W 36 18 7 21 33.3 3 7 42.9 1 2 50.0 1 3 4 0 1 1 1 2 -24
p40
aVCJ Wilcox LAC 04/08/2016 LAC @ UTA W 18 2 0 2 0.0 0 1 0.0 2 2 100.0 1 2 3 0 1 0 0 2 -14
p41
aVBranden Dawson LAC 04/08/2016 LAC @ UTA W 2 0 0 0 - 0 0 - 0 0 - 0 0 0 0 0 0 0 0 -3
p42
aVCole Aldrich LAC 04/08/2016 LAC @ UTA W 40 21 10 15 66.7 0 0 - 1 2 50.0 4 14 18 2 5 1 2 4 20
p43
aVJamal Crawford LAC 04/08/2016 LAC @ UTA W 49 30 9 20 45.0 4 11 36.4 8 10 80.0 2 3 5 4 1 1 1 3 6
p44
aVPaul Pierce LAC 04/08/2016 LAC @ UTA W 33 18 7 12 58.3 4 5 80.0 0 0 - 0 2 2 2 3 0 5 0 12
p45
aVJeff Ayres LAC 04/08/2016 LAC @ UTA W 13 0 0 2 0.0 0 0 - 0 0 - 0 2 2 0 0 0 1 2 -20
p46
aVJeff Ayres LAC 04/06/2016 LAC @ LAL W 13 2 1 4 25.0 0 1 0.0 0 0 - 0 2 2 0 0 0 0 1 -2
p47
aVCJ Wilcox LAC 04/06/2016 LAC @ LAL W 25 6 2 9 22.2 2 5 40.0 0 0 - 0 1 1 2 3 0 0 1 4
p48
aVJeff Green LAC 04/06/2016 LAC @ LAL W 14 3 1 5 20.0 0 2 0.0 1 2 50.0 1 1 2 2 1 0 0 0 2
p49
aVBranden Dawson LAC 04/06/2016 LAC @ LAL W 6 0 0 0 - 0 0 - 0 0 - 0 1 1 0 0 0 0 0 -5
p50
aVBlake Griffin LAC 04/06/2016 LAC @ LAL W 25 13 5 10 50.0 0 0 - 3 4 75.0 0 8 8 3 1 0 1 0 12
p51
aVLuc Mbah a Moute LAC 04/06/2016 LAC @ LAL W 21 4 2 4 50.0 0 0 - 0 0 - 0 1 1 0 2 0 0 3 7
p52
aVPaul Pierce LAC 04/06/2016 LAC @ LAL W 20 9 4 8 50.0 1 3 33.3 0 0 - 0 1 1 0 0 0 0 3 -3
p53
aVDeAndre Jordan LAC 04/06/2016 LAC @ LAL W 27 15 7 9 77.8 0 0 - 1 2 50.0 3 8 11 0 0 4 2 2 12
p54
aVPablo Prigioni LAC 04/06/2016 LAC @ LAL W 24 4 2 7 28.6 0 4 0.0 0 0 - 2 2 4 4 1 0 3 3 -5
p55
aVJJ Redick LAC 04/06/2016 LAC @ LAL W 23 15 6 14 42.9 3 7 42.9 0 0 - 0 3 3 2 0 0 1 1 9
p56
aVCole Aldrich LAC 04/06/2016 LAC @ LAL W 18 7 2 3 66.7 0 0 - 3 4 75.0 3 7 10 2 2 2 2 1 4
p57
aVChris Paul LAC 04/06/2016 LAC @ LAL W 24 13 5 10 50.0 1 3 33.3 2 2 100.0 1 4 5 8 0 0 1 2 15
p58
aVDeAndre Jordan LAC 04/05/2016 LAC vs. LAL W 29 7 3 6 50.0 0 0 - 1 4 25.0 2 12 14 3 0 0 1 2 28
p59
aVAustin Rivers LAC 04/05/2016 LAC vs. LAL W 18 8 2 9 22.2 1 2 50.0 3 4 75.0 0 2 2 1 1 0 1 0 -11
p60
aVCole Aldrich LAC 04/05/2016 LAC vs. LAL W 19 6 3 4 75.0 0 0 - 0 0 - 3 5 8 1 0 1 1 4 -7
p61
aVJeff Ayres LAC 04/05/2016 LAC vs. LAL W 7 2 1 1 100.0 0 0 - 0 0 - 1 3 4 1 0 0 0 0 1
p62
aVBlake Griffin LAC 04/05/2016 LAC vs. LAL W 17 4 1 5 20.0 0 1 0.0 2 2 100.0 0 3 3 3 1 0 4 0 28
p63
aVJeff Green LAC 04/05/2016 LAC vs. LAL W 31 21 7 12 58.3 1 3 33.3 6 9 66.7 0 3 3 2 1 1 1 4 -5
p64
aVChris Paul LAC 04/05/2016 LAC vs. LAL W 23 25 10 14 71.4 2 4 50.0 3 3 100.0 0 4 4 8 2 1 0 1 30
p65
aVCJ Wilcox LAC 04/05/2016 LAC vs. LAL W 7 5 2 3 66.7 0 0 - 1 2 50.0 0 0 0 0 1 0 1 1 3
p66
aVLuc Mbah a Moute LAC 04/05/2016 LAC vs. LAL W 21 4 2 2 100.0 0 0 - 0 2 0.0 0 3 3 1 1 0 0 0 27
p67
aVJJ Redick LAC 04/05/2016 LAC vs. LAL W 22 9 4 6 66.7 1 3 33.3 0 0 - 0 3 3 2 0 0 1 2 27
p68
aVJamal Crawford LAC 04/05/2016 LAC vs. LAL W 18 4 2 6 33.3 0 2 0.0 0 0 - 0 0 0 1 1 0 3 2 -5
p69
aVWesley Johnson LAC 04/05/2016 LAC vs. LAL W 20 6 2 7 28.6 2 4 50.0 0 0 - 0 2 2 1 2 1 0 1 -6
p70
aVPablo Prigioni LAC 04/05/2016 LAC vs. LAL W 8 2 1 3 33.3 0 1 0.0 0 0 - 0 0 0 2 1 0 0 0 0
p71
aVJamal Crawford LAC 04/03/2016 LAC vs. WAS W 25 19 6 12 50.0 4 7 57.1 3 3 100.0 1 3 4 6 0 0 2 2 1
p72
aVBlake Griffin LAC 04/03/2016 LAC vs. WAS W 25 6 2 7 28.6 0 0 - 2 2 100.0 0 5 5 4 0 0 1 2 23
p73
aVJJ Redick LAC 04/03/2016 LAC vs. WAS W 30 18 7 13 53.8 2 4 50.0 2 2 100.0 1 2 3 0 0 0 0 0 7
p74
aVAustin Rivers LAC 04/03/2016 LAC vs. WAS W 18 10 4 10 40.0 1 3 33.3 1 2 50.0 2 2 4 4 2 0 0 0 -5
p75
aVChris Paul LAC 04/03/2016 LAC vs. WAS W 33 27 10 19 52.6 1 3 33.3 6 7 85.7 0 3 3 12 1 0 2 2 6
p76
aVCole Aldrich LAC 04/03/2016 LAC vs. WAS W 10 8 3 4 75.0 0 0 - 2 2 100.0 1 1 2 0 2 0 2 4 1
p77
aVWesley Johnson LAC 04/03/2016 LAC vs. WAS W 25 2 1 6 16.7 0 2 0.0 0 0 - 2 4 6 0 2 1 0 2 -7
p78
aVLuc Mbah a Moute LAC 04/03/2016 LAC vs. WAS W 24 8 3 3 100.0 0 0 - 2 4 50.0 0 5 5 0 0 0 0 2 -1
p79
aVJeff Green LAC 04/03/2016 LAC vs. WAS W 15 4 2 4 50.0 0 0 - 0 0 - 0 0 0 0 0 0 3 0 -5
p80
aVDeAndre Jordan LAC 04/03/2016 LAC vs. WAS W 35 12 5 7 71.4 0 0 - 2 11 18.2 3 9 12 1 2 3 1 3 5
p81
aVLuc Mbah a Moute LAC 03/31/2016 LAC @ OKC L 13 5 2 2 100.0 1 1 100.0 0 0 - 0 0 0 1 0 0 0 1 -6
p82
aVAustin Rivers LAC 03/31/2016 LAC @ OKC L 39 32 12 19 63.2 7 9 77.8 1 2 50.0 0 4 4 5 2 0 2 4 0
p83
aVJamal Crawford LAC 03/31/2016 LAC @ OKC L 40 32 10 20 50.0 5 8 62.5 7 7 100.0 1 0 1 7 2 1 3 0 -9
p84
aVCJ Wilcox LAC 03/31/2016 LAC @ OKC L 8 5 1 1 100.0 0 0 - 3 3 100.0 0 0 0 1 1 0 0 0 2
p85
aVWesley Johnson LAC 03/31/2016 LAC @ OKC L 37 14 6 13 46.2 2 6 33.3 0 0 - 0 3 3 2 0 2 2 3 -3
p86
aVJeff Green LAC 03/31/2016 LAC @ OKC L 35 19 7 15 46.7 1 5 20.0 4 8 50.0 1 2 3 0 0 1 1 2 4
p87
aVCole Aldrich LAC 03/31/2016 LAC @ OKC L 30 6 3 4 75.0 0 0 - 0 0 - 2 8 10 2 3 0 3 2 4
p88
aVPablo Prigioni LAC 03/31/2016 LAC @ OKC L 20 0 0 0 - 0 0 - 0 0 - 0 4 4 4 1 0 0 2 4
p89
aVJeff Ayres LAC 03/31/2016 LAC @ OKC L 17 4 1 2 50.0 0 0 - 2 2 100.0 1 0 1 0 0 0 1 3 -6
p90
aVJeff Ayres LAC 03/30/2016 LAC @ MIN W 6 2 1 1 100.0 0 0 - 0 0 - 0 1 1 0 0 0 0 2 -11
p91
aVDeAndre Jordan LAC 03/30/2016 LAC @ MIN W 30 11 5 7 71.4 0 0 - 1 3 33.3 3 5 8 0 0 3 1 1 28
p92
aVCole Aldrich LAC 03/30/2016 LAC @ MIN W 12 2 1 1 100.0 0 0 - 0 0 - 0 3 3 0 2 2 2 0 0
p93
aVJamal Crawford LAC 03/30/2016 LAC @ MIN W 18 10 3 6 50.0 1 3 33.3 3 3 100.0 0 2 2 1 2 0 0 0 15
p94
aVJeff Green LAC 03/30/2016 LAC @ MIN W 29 10 4 10 40.0 0 3 0.0 2 2 100.0 0 3 3 1 1 2 0 3 5
p95
aVLuc Mbah a Moute LAC 03/30/2016 LAC @ MIN W 21 7 3 5 60.0 0 1 0.0 1 1 100.0 2 4 6 1 0 0 0 2 15
p96
aVChris Paul LAC 03/30/2016 LAC @ MIN W 31 20 6 16 37.5 1 4 25.0 7 7 100.0 2 6 8 16 1 0 2 1 33
p97
aVJJ Redick LAC 03/30/2016 LAC @ MIN W 27 17 6 15 40.0 4 12 33.3 1 1 100.0 0 3 3 3 1 0 0 0 30
p98
aVAustin Rivers LAC 03/30/2016 LAC @ MIN W 15 10 4 6 66.7 2 2 100.0 0 0 - 0 1 1 0 0 0 0 3 4
p99
aVPablo Prigioni LAC 03/30/2016 LAC @ MIN W 17 0 0 5 0.0 0 3 0.0 0 0 - 0 1 1 4 0 0 1 0 -13
p100
aVCJ Wilcox LAC 03/30/2016 LAC @ MIN W 7 3 1 6 16.7 1 1 100.0 0 0 - 0 0 0 0 0 0 0 2 -11
p101
aVWesley Johnson LAC 03/30/2016 LAC @ MIN W 28 7 3 6 50.0 0 2 0.0 1 1 100.0 0 5 5 0 1 2 1 3 5
p102
aVJeff Green LAC 03/28/2016 LAC vs. BOS W 26 10 4 11 36.4 1 1 100.0 1 2 50.0 0 4 4 1 0 0 1 1 17
p103
aVJamal Crawford LAC 03/28/2016 LAC vs. BOS W 29 15 5 12 41.7 4 10 40.0 1 1 100.0 0 2 2 2 1 0 3 2 19
p104
aVPablo Prigioni LAC 03/28/2016 LAC vs. BOS W 13 3 1 2 50.0 1 2 50.0 0 0 - 1 4 5 3 1 0 0 0 8
p105
aVLuc Mbah a Moute LAC 03/28/2016 LAC vs. BOS W 17 2 1 1 100.0 0 0 - 0 0 - 1 0 1 0 1 0 0 0 0
p106
aVPaul Pierce LAC 03/28/2016 LAC vs. BOS W 12 8 4 6 66.7 0 2 0.0 0 0 - 0 3 3 2 1 0 0 2 14
p107
aVCole Aldrich LAC 03/28/2016 LAC vs. BOS W 14 6 3 3 100.0 0 0 - 0 0 - 4 3 7 1 0 2 2 2 11
p108
aVDeAndre Jordan LAC 03/28/2016 LAC vs. BOS W 29 15 5 8 62.5 0 0 - 5 7 71.4 3 10 13 2 1 3 1 2 10
p109
aVCJ Wilcox LAC 03/28/2016 LAC vs. BOS W 5 2 1 1 100.0 0 0 - 0 0 - 0 0 0 1 1 0 0 1 0
p110
aVAustin Rivers LAC 03/28/2016 LAC vs. BOS W 30 16 5 9 55.6 2 2 100.0 4 4 100.0 0 2 2 2 2 0 2 3 21
p111
aVJJ Redick LAC 03/28/2016 LAC vs. BOS W 18 9 4 8 50.0 1 2 50.0 0 0 - 0 2 2 1 1 0 0 3 11
p112
aVWesley Johnson LAC 03/28/2016 LAC vs. BOS W 16 11 4 7 57.1 1 3 33.3 2 2 100.0 0 1 1 0 1 0 0 2 2
p113
aVJeff Ayres LAC 03/28/2016 LAC vs. BOS W 5 4 2 2 100.0 0 0 - 0 0 - 0 1 1 0 0 0 1 3 0
p114
aVChris Paul LAC 03/28/2016 LAC vs. BOS W 26 13 5 14 35.7 1 3 33.3 2 2 100.0 0 4 4 14 3 0 4 2 7
p115
aVWesley Johnson LAC 03/27/2016 LAC vs. DEN W 28 13 5 6 83.3 3 4 75.0 0 0 - 2 2 4 1 3 1 1 4 5
p116
aVChris Paul LAC 03/27/2016 LAC vs. DEN W 26 14 4 11 36.4 2 4 50.0 4 5 80.0 1 5 6 9 1 1 2 1 22
p117
aVLuc Mbah a Moute LAC 03/27/2016 LAC vs. DEN W 18 2 1 2 50.0 0 0 - 0 0 - 1 1 2 1 2 0 1 0 18
p118
aVJeff Green LAC 03/27/2016 LAC vs. DEN W 29 13 6 13 46.2 0 0 - 1 2 50.0 3 3 6 0 2 1 0 3 -4
p119
aVJeff Ayres LAC 03/27/2016 LAC vs. DEN W 2 0 0 0 - 0 0 - 0 0 - 0 0 0 0 0 0 0 0 -1
p120
aVDeAndre Jordan LAC 03/27/2016 LAC vs. DEN W 29 16 7 10 70.0 0 0 - 2 4 50.0 7 9 16 2 2 6 5 2 11
p121
aVPablo Prigioni LAC 03/27/2016 LAC vs. DEN W 10 3 1 2 50.0 1 2 50.0 0 0 - 1 0 1 5 1 0 0 1 -2
p122
aVJamal Crawford LAC 03/27/2016 LAC vs. DEN W 21 14 3 8 37.5 0 4 0.0 8 8 100.0 0 1 1 2 0 0 1 0 1
p123
aVAustin Rivers LAC 03/27/2016 LAC vs. DEN W 22 8 3 8 37.5 1 3 33.3 1 4 25.0 0 0 0 2 0 0 1 1 -7
p124
aVJJ Redick LAC 03/27/2016 LAC vs. DEN W 23 12 4 12 33.3 2 7 28.6 2 2 100.0 0 2 2 1 2 0 2 2 19
p125
aVPaul Pierce LAC 03/27/2016 LAC vs. DEN W 15 5 2 5 40.0 1 4 25.0 0 0 - 0 3 3 1 0 1 1 2 8
p126
aVCole Aldrich LAC 03/27/2016 LAC vs. DEN W 16 5 2 3 66.7 0 0 - 1 1 100.0 2 1 3 0 0 1 0 3 5
p127
aVAustin Rivers LAC 03/24/2016 LAC vs. POR W 25 6 3 7 42.9 0 2 0.0 0 0 - 1 2 3 2 0 0 2 1 1
p128
aVPablo Prigioni LAC 03/24/2016 LAC vs. POR W 9 0 0 0 - 0 0 - 0 0 - 1 1 2 1 0 0 0 2 -5
p129
aVChris Paul LAC 03/24/2016 LAC vs. POR W 31 25 8 15 53.3 0 2 0.0 9 9 100.0 1 4 5 7 1 0 4 2 5
p130
aVJeff Green LAC 03/24/2016 LAC vs. POR W 26 4 2 7 28.6 0 2 0.0 0 0 - 0 4 4 4 0 1 1 4 -3
p131
aVCole Aldrich LAC 03/24/2016 LAC vs. POR W 15 7 3 5 60.0 0 0 - 1 1 100.0 1 4 5 1 1 2 1 3 5
p132
aVJJ Redick LAC 03/24/2016 LAC vs. POR W 25 11 5 11 45.5 1 3 33.3 0 0 - 0 4 4 0 1 0 1 2 12
p133
aVPaul Pierce LAC 03/24/2016 LAC vs. POR W 15 0 0 5 0.0 0 3 0.0 0 0 - 1 3 4 0 2 1 1 2 2
p134
aVWesley Johnson LAC 03/24/2016 LAC vs. POR W 14 4 1 1 100.0 0 0 - 2 2 100.0 1 3 4 1 0 0 0 4 1
p135
aVJamal Crawford LAC 03/24/2016 LAC vs. POR W 33 25 11 21 52.4 3 6 50.0 0 0 - 0 1 1 2 1 0 1 2 11
p136
aVLuc Mbah a Moute LAC 03/24/2016 LAC vs. POR W 14 2 1 3 33.3 0 0 - 0 0 - 0 2 2 0 0 0 0 2 -19
p137
aVDeAndre Jordan LAC 03/24/2016 LAC vs. POR W 32 12 3 7 42.9 0 1 0.0 6 16 37.5 5 8 13 3 3 1 5 5 0
p138
aVCole Aldrich LAC 03/23/2016 LAC @ GSW L 7 2 1 2 50.0 0 0 - 0 0 - 1 1 2 0 0 2 2 1 -19
p139
aVDeAndre Jordan LAC 03/23/2016 LAC @ GSW L 38 19 7 10 70.0 0 0 - 5 10 50.0 2 18 20 3 0 2 0 5 1
p140
aVWesley Johnson LAC 03/23/2016 LAC @ GSW L 17 4 2 6 33.3 0 3 0.0 0 0 - 0 0 0 0 0 0 0 0 -5
p141
aVPablo Prigioni LAC 03/23/2016 LAC @ GSW L 3 3 1 2 50.0 1 1 100.0 0 0 - 0 0 0 0 0 0 0 0 -1
p142
aVLuc Mbah a Moute LAC 03/23/2016 LAC @ GSW L 8 2 1 2 50.0 0 0 - 0 0 - 1 0 1 0 0 0 0 2 -11
p143
aVChris Paul LAC 03/23/2016 LAC @ GSW L 35 13 4 16 25.0 1 6 16.7 4 5 80.0 1 5 6 8 1 0 3 4 4
p144
aVJeff Ayres LAC 03/23/2016 LAC @ GSW L 2 2 1 1 100.0 0 0 - 0 0 - 1 0 1 0 0 0 0 0 0
p145
aVJJ Redick LAC 03/23/2016 LAC @ GSW L 30 9 4 13 30.8 1 6 16.7 0 0 - 1 4 5 0 0 1 1 5 -13
p146
aVPaul Pierce LAC 03/23/2016 LAC @ GSW L 17 3 1 3 33.3 1 3 33.3 0 0 - 1 2 3 1 1 0 1 1 -6
p147
aVJamal Crawford LAC 03/23/2016 LAC @ GSW L 32 12 4 11 36.4 2 4 50.0 2 3 66.7 0 1 1 6 2 1 2 1 -4
p148
aVJeff Green LAC 03/23/2016 LAC @ GSW L 25 13 4 9 44.4 1 2 50.0 4 5 80.0 0 3 3 1 4 1 1 1 -10
p149
aVAustin Rivers LAC 03/23/2016 LAC @ GSW L 24 16 6 10 60.0 1 3 33.3 3 4 75.0 0 4 4 2 0 0 0 2 -16
p150
aVAustin Rivers LAC 03/20/2016 LAC @ NOP L 25 9 3 11 27.3 0 5 0.0 3 6 50.0 0 3 3 0 2 0 0 2 -3
p151
aVChris Paul LAC 03/20/2016 LAC @ NOP L 36 24 5 14 35.7 3 7 42.9 11 13 84.6 0 6 6 13 4 0 1 5 0
p152
aVJJ Redick LAC 03/20/2016 LAC @ NOP L 32 24 9 11 81.8 4 5 80.0 2 2 100.0 1 1 2 1 1 0 1 5 5
p153
aVJamal Crawford LAC 03/20/2016 LAC @ NOP L 33 14 5 12 41.7 1 5 20.0 3 4 75.0 0 4 4 3 1 0 3 4 6
p154
aVDeAndre Jordan LAC 03/20/2016 LAC @ NOP L 34 12 3 5 60.0 0 0 - 6 11 54.5 3 6 9 2 0 1 1 2 5
p155
aVLuc Mbah a Moute LAC 03/20/2016 LAC @ NOP L 15 2 1 4 25.0 0 2 0.0 0 0 - 0 0 0 1 0 1 0 0 -10
p156
aVCole Aldrich LAC 03/20/2016 LAC @ NOP L 13 2 0 2 0.0 0 0 - 2 2 100.0 2 2 4 0 0 3 2 2 -8
p157
aVPablo Prigioni LAC 03/20/2016 LAC @ NOP L 12 9 3 6 50.0 2 5 40.0 1 1 100.0 1 1 2 0 2 0 1 3 -4
p158
aVWesley Johnson LAC 03/20/2016 LAC @ NOP L 19 0 0 8 0.0 0 6 0.0 0 0 - 0 3 3 0 2 0 2 3 -9
p159
aVPaul Pierce LAC 03/20/2016 LAC @ NOP L 20 9 4 9 44.4 0 4 0.0 1 3 33.3 0 2 2 1 0 0 1 2 -2
p160
aVCJ Wilcox LAC 03/19/2016 LAC @ MEM L 1 3 1 1 100.0 0 0 - 1 2 50.0 0 0 0 0 0 0 0 0 1
p161
aVPaul Pierce LAC 03/19/2016 LAC @ MEM L 28 12 3 7 42.9 3 7 42.9 3 4 75.0 0 2 2 2 2 0 1 4 -4
p162
aVJeff Ayres LAC 03/19/2016 LAC @ MEM L 1 0 0 0 - 0 0 - 0 0 - 0 1 1 0 0 0 0 0 1
p163
aVJeff Green LAC 03/19/2016 LAC @ MEM L 21 8 2 5 40.0 1 3 33.3 3 4 75.0 0 1 1 0 1 0 0 2 -12
p164
aVLuc Mbah a Moute LAC 03/19/2016 LAC @ MEM L 17 2 1 3 33.3 0 0 - 0 0 - 1 0 1 1 0 0 2 0 -7
p165
aVJJ Redick LAC 03/19/2016 LAC @ MEM L 24 9 4 9 44.4 1 3 33.3 0 0 - 0 1 1 3 0 1 1 3 -18
p166
aVDeAndre Jordan LAC 03/19/2016 LAC @ MEM L 33 16 6 6 100.0 0 0 - 4 10 40.0 1 6 7 1 1 2 1 5 -25
p167
aVJamal Crawford LAC 03/19/2016 LAC @ MEM L 28 7 2 9 22.2 1 5 20.0 2 2 100.0 0 3 3 1 1 0 0 2 1
p168
aVAustin Rivers LAC 03/19/2016 LAC @ MEM L 21 10 2 5 40.0 1 3 33.3 5 6 83.3 1 3 4 2 0 0 2 1 12
p169
aVCole Aldrich LAC 03/19/2016 LAC @ MEM L 14 2 0 2 0.0 0 0 - 2 2 100.0 1 3 4 2 2 4 2 2 13
p170
aVWesley Johnson LAC 03/19/2016 LAC @ MEM L 19 8 3 5 60.0 2 4 50.0 0 0 - 0 3 3 0 0 1 2 5 4
p171
aVPablo Prigioni LAC 03/19/2016 LAC @ MEM L 1 0 0 0 - 0 0 - 0 0 - 0 0 0 0 0 0 0 1 -1
p172
aVChris Paul LAC 03/19/2016 LAC @ MEM L 32 25 7 14 50.0 3 5 60.0 8 9 88.9 0 3 3 6 1 0 3 2 -20
p173
aVWesley Johnson LAC 03/16/2016 LAC @ HOU W 16 12 5 5 100.0 2 2 100.0 0 0 - 0 3 3 0 1 0 0 1 4
p174
aVLuc Mbah a Moute LAC 03/16/2016 LAC @ HOU W 33 12 6 7 85.7 0 1 0.0 0 1 0.0 3 1 4 1 1 0 0 2 14
p175
aVDeAndre Jordan LAC 03/16/2016 LAC @ HOU W 37 23 8 8 100.0 0 0 - 7 13 53.8 3 13 16 1 1 2 1 2 12
p176
aVJeff Green LAC 03/16/2016 LAC @ HOU W 16 0 0 4 0.0 0 1 0.0 0 0 - 0 0 0 0 1 1 1 4 16
p177
aVCole Aldrich LAC 03/16/2016 LAC @ HOU W 10 2 1 1 100.0 0 0 - 0 0 - 0 0 0 1 1 3 0 3 3
p178
aVAustin Rivers LAC 03/16/2016 LAC @ HOU W 19 12 4 8 50.0 2 5 40.0 2 2 100.0 0 3 3 1 0 0 0 3 4
p179
aVJamal Crawford LAC 03/16/2016 LAC @ HOU W 27 14 4 9 44.4 2 6 33.3 4 4 100.0 0 1 1 7 1 1 0 1 9
p180
aVPaul Pierce LAC 03/16/2016 LAC @ HOU W 18 7 3 6 50.0 1 1 100.0 0 0 - 0 2 2 1 0 0 3 1 -2
p181
aVChris Paul LAC 03/16/2016 LAC @ HOU W 32 15 5 13 38.5 0 5 0.0 5 6 83.3 1 3 4 16 2 0 3 0 9
p182
aVJJ Redick LAC 03/16/2016 LAC @ HOU W 32 25 7 15 46.7 5 9 55.6 6 6 100.0 0 0 0 3 1 0 2 3 11
p183
aVAustin Rivers LAC 03/15/2016 LAC @ SAS L 18 4 1 5 20.0 1 1 100.0 1 2 50.0 0 0 0 1 0 0 2 1 -18
p184
aVJJ Redick LAC 03/15/2016 LAC @ SAS L 29 14 5 9 55.6 2 3 66.7 2 2 100.0 0 1 1 1 0 0 1 1 -4
p185
aVLuc Mbah a Moute LAC 03/15/2016 LAC @ SAS L 23 0 0 1 0.0 0 0 - 0 4 0.0 0 1 1 0 1 1 0 3 -3
p186
aVCole Aldrich LAC 03/15/2016 LAC @ SAS L 14 7 3 4 75.0 0 0 - 1 1 100.0 1 3 4 0 1 0 1 3 -18
p187
aVPablo Prigioni LAC 03/15/2016 LAC @ SAS L 13 3 1 2 50.0 1 1 100.0 0 0 - 0 0 0 1 0 0 0 0 -20
p188
aVJeff Green LAC 03/15/2016 LAC @ SAS L 31 15 5 13 38.5 3 7 42.9 2 2 100.0 1 1 2 0 0 1 2 4 -6
p189
aVJamal Crawford LAC 03/15/2016 LAC @ SAS L 22 6 1 9 11.1 0 3 0.0 4 4 100.0 0 1 1 3 0 0 0 2 -20
p190
aVDeAndre Jordan LAC 03/15/2016 LAC @ SAS L 37 16 7 8 87.5 0 0 - 2 4 50.0 3 11 14 0 0 1 4 2 -2
p191
aVWesley Johnson LAC 03/15/2016 LAC @ SAS L 21 0 0 2 0.0 0 1 0.0 0 0 - 0 0 0 1 0 1 0 0 -16
p192
aVChris Paul LAC 03/15/2016 LAC @ SAS L 33 22 9 16 56.3 1 3 33.3 3 3 100.0 0 4 4 8 3 0 3 1 2
p193
aVLuc Mbah a Moute LAC 03/13/2016 LAC vs. CLE L 22 2 1 5 20.0 0 1 0.0 0 0 - 0 1 1 0 2 1 0 1 -10
p194
aVCole Aldrich LAC 03/13/2016 LAC vs. CLE L 12 4 2 4 50.0 0 0 - 0 0 - 2 3 5 1 0 2 1 3 -11
p195
aVPablo Prigioni LAC 03/13/2016 LAC vs. CLE L 16 0 0 3 0.0 0 2 0.0 0 0 - 0 0 0 3 0 0 0 1 -10
p196
aVWesley Johnson LAC 03/13/2016 LAC vs. CLE L 28 11 4 13 30.8 2 6 33.3 1 1 100.0 0 5 5 0 0 0 1 3 -26
p197
aVJJ Redick LAC 03/13/2016 LAC vs. CLE L 24 19 7 11 63.6 2 5 40.0 3 3 100.0 0 3 3 1 1 0 1 3 -1
p198
aVChris Paul LAC 03/13/2016 LAC vs. CLE L 30 17 5 11 45.5 3 6 50.0 4 4 100.0 0 5 5 10 2 0 4 2 -8
p199
aVAustin Rivers LAC 03/13/2016 LAC vs. CLE L 24 11 4 7 57.1 1 2 50.0 2 2 100.0 0 0 0 1 0 0 0 1 -24
p200
aVDeAndre Jordan LAC 03/13/2016 LAC vs. CLE L 32 11 4 4 100.0 0 0 - 3 4 75.0 2 9 11 1 0 1 1 3 -14
p201
aVJamal Crawford LAC 03/13/2016 LAC vs. CLE L 25 8 3 11 27.3 2 6 33.3 0 0 - 0 1 1 1 0 0 2 2 -27
p202
aVJeff Green LAC 03/13/2016 LAC vs. CLE L 27 7 2 10 20.0 0 4 0.0 3 5 60.0 1 2 3 5 0 0 0 4 11
p203
aVJamal Crawford LAC 03/11/2016 LAC vs. NYK W 19 10 4 13 30.8 2 3 66.7 0 0 - 0 1 1 1 0 0 1 2 -9
p204
aVWesley Johnson LAC 03/11/2016 LAC vs. NYK W 23 10 4 12 33.3 2 6 33.3 0 1 0.0 0 4 4 0 1 0 1 4 12
p205
aVPablo Prigioni LAC 03/11/2016 LAC vs. NYK W 7 0 0 0 - 0 0 - 0 0 - 0 0 0 0 1 1 0 0 1
p206
aVCole Aldrich LAC 03/11/2016 LAC vs. NYK W 23 2 1 3 33.3 0 0 - 0 0 - 4 2 6 0 1 1 3 6 -10
p207
aVChris Paul LAC 03/11/2016 LAC vs. NYK W 34 24 9 17 52.9 4 7 57.1 2 4 50.0 0 4 4 15 2 0 4 1 8
p208
aVJJ Redick LAC 03/11/2016 LAC vs. NYK W 31 20 6 15 40.0 4 10 40.0 4 4 100.0 0 2 2 1 0 0 1 1 13
p209
aVDeAndre Jordan LAC 03/11/2016 LAC vs. NYK W 38 10 4 7 57.1 0 0 - 2 2 100.0 4 15 19 0 1 6 2 4 7
p210
aVJeff Green LAC 03/11/2016 LAC vs. NYK W 45 17 6 11 54.5 1 2 50.0 4 5 80.0 1 5 6 4 0 1 0 2 7
p211
aVAustin Rivers LAC 03/11/2016 LAC vs. NYK W 19 8 4 7 57.1 0 1 0.0 0 0 - 1 1 2 2 2 0 1 2 6
p212
aVPablo Prigioni LAC 03/09/2016 LAC @ OKC L 11 0 0 2 0.0 0 2 0.0 0 0 - 1 0 1 3 1 0 1 0 -6
p213
aVChris Paul LAC 03/09/2016 LAC @ OKC L 37 12 5 15 33.3 1 6 16.7 1 1 100.0 0 3 3 16 5 1 3 3 -11
p214
aVPaul Pierce LAC 03/09/2016 LAC @ OKC L 18 0 0 4 0.0 0 3 0.0 0 0 - 0 2 2 1 0 1 0 3 4
p215
aVAustin Rivers LAC 03/09/2016 LAC @ OKC L 19 5 1 4 25.0 1 3 33.3 2 2 100.0 0 1 1 0 0 0 1 3 -6
p216
aVCole Aldrich LAC 03/09/2016 LAC @ OKC L 15 10 5 5 100.0 0 0 - 0 0 - 0 6 6 0 0 0 1 2 -5
p217
aVWesley Johnson LAC 03/09/2016 LAC @ OKC L 24 2 1 6 16.7 0 3 0.0 0 0 - 0 3 3 2 0 0 0 3 -16
p218
aVDeAndre Jordan LAC 03/09/2016 LAC @ OKC L 33 18 7 7 100.0 0 0 - 4 12 33.3 0 7 7 2 0 1 1 1 -7
p219
aVJJ Redick LAC 03/09/2016 LAC @ OKC L 29 22 6 13 46.2 5 8 62.5 5 6 83.3 0 1 1 3 2 0 2 0 -3
p220
aVJamal Crawford LAC 03/09/2016 LAC @ OKC L 27 16 6 12 50.0 2 4 50.0 2 2 100.0 1 2 3 2 1 0 1 0 -8
p221
aVAlex Stepheson LAC 03/09/2016 LAC @ OKC L 1 0 0 0 - 0 0 - 0 0 - 0 0 0 0 0 0 0 0 0
p222
aVJeff Green LAC 03/09/2016 LAC @ OKC L 26 23 10 13 76.9 3 5 60.0 0 0 - 0 2 2 0 2 1 0 2 -2
p223
aVWesley Johnson LAC 03/07/2016 LAC @ DAL W 24 3 1 6 16.7 1 4 25.0 0 0 - 0 5 5 1 2 1 3 2 19
p224
aVAlex Stepheson LAC 03/07/2016 LAC @ DAL W 2 0 0 0 - 0 0 - 0 2 0.0 0 0 0 0 0 1 0 1 -4
p225
aVPablo Prigioni LAC 03/07/2016 LAC @ DAL W 16 3 1 2 50.0 1 2 50.0 0 0 - 1 0 1 1 2 0 1 2 -8
p226
aVChris Paul LAC 03/07/2016 LAC @ DAL W 28 27 12 18 66.7 2 6 33.3 1 1 100.0 0 4 4 7 3 0 1 3 21
p227
aVJamal Crawford LAC 03/07/2016 LAC @ DAL W 29 15 5 15 33.3 2 5 40.0 3 3 100.0 0 4 4 3 1 0 0 2 24
p228
aVDeAndre Jordan LAC 03/07/2016 LAC @ DAL W 38 23 6 7 85.7 0 0 - 11 19 57.9 4 16 20 1 2 2 0 1 34
p229
aVAustin Rivers LAC 03/07/2016 LAC @ DAL W 26 10 3 7 42.9 2 4 50.0 2 2 100.0 0 3 3 3 0 0 1 5 13
p230
aVJJ Redick LAC 03/07/2016 LAC @ DAL W 26 22 9 14 64.3 4 6 66.7 0 0 - 0 2 2 0 0 0 1 2 12
p231
aVCole Aldrich LAC 03/07/2016 LAC @ DAL W 10 4 1 4 25.0 0 0 - 2 2 100.0 1 2 3 0 0 2 0 2 -15
p232
aVJeff Green LAC 03/07/2016 LAC @ DAL W 21 0 0 5 0.0 0 2 0.0 0 0 - 0 3 3 2 0 1 1 1 -8
p233
aVPaul Pierce LAC 03/07/2016 LAC @ DAL W 20 2 1 5 20.0 0 3 0.0 0 0 - 0 3 3 0 0 0 1 4 7
p234
aVCole Aldrich LAC 03/05/2016 LAC vs. ATL L 12 2 1 2 50.0 0 0 - 0 0 - 3 3 6 0 1 2 1 2 2
p235
aVJamal Crawford LAC 03/05/2016 LAC vs. ATL L 29 5 2 7 28.6 0 1 0.0 1 1 100.0 0 3 3 1 1 0 2 1 -5
p236
aVChris Paul LAC 03/05/2016 LAC vs. ATL L 37 17 6 16 37.5 2 5 40.0 3 3 100.0 0 6 6 11 1 0 4 2 -12
p237
aVWesley Johnson LAC 03/05/2016 LAC vs. ATL L 17 4 1 6 16.7 0 2 0.0 2 2 100.0 0 6 6 1 0 1 2 4 7
p238
aVPablo Prigioni LAC 03/05/2016 LAC vs. ATL L 11 6 2 3 66.7 2 3 66.7 0 0 - 0 0 0 1 0 0 1 1 2
p239
aVDeAndre Jordan LAC 03/05/2016 LAC vs. ATL L 33 17 5 7 71.4 0 0 - 7 17 41.2 2 9 11 2 4 5 3 2 -9
p240
aVAustin Rivers LAC 03/05/2016 LAC vs. ATL L 19 11 4 10 40.0 2 5 40.0 1 1 100.0 0 2 2 3 2 0 1 0 -5
p241
aVJJ Redick LAC 03/05/2016 LAC vs. ATL L 30 10 4 13 30.8 2 7 28.6 0 0 - 0 2 2 1 0 0 3 2 -12
p242
aVPaul Pierce LAC 03/05/2016 LAC vs. ATL L 14 11 3 6 50.0 2 5 40.0 3 3 100.0 0 0 0 0 0 0 1 2 -7
p243
aVJeff Green LAC 03/05/2016 LAC vs. ATL L 38 14 6 9 66.7 2 4 50.0 0 1 0.0 1 4 5 2 1 2 0 4 -11
p244
aVCole Aldrich LAC 03/02/2016 LAC vs. OKC W 12 8 4 5 80.0 0 0 - 0 0 - 0 6 6 0 1 0 0 0 2
p245
aVDeAndre Jordan LAC 03/02/2016 LAC vs. OKC W 36 20 8 13 61.5 0 0 - 4 7 57.1 6 12 18 2 1 1 0 0 1
p246
aVJamal Crawford LAC 03/02/2016 LAC vs. OKC W 32 12 5 14 35.7 0 4 0.0 2 3 66.7 1 1 2 2 1 0 0 0 7
p247
aVJJ Redick LAC 03/02/2016 LAC vs. OKC W 31 16 6 13 46.2 2 6 33.3 2 2 100.0 0 1 1 3 1 0 1 3 12
p248
aVPablo Prigioni LAC 03/02/2016 LAC vs. OKC W 8 3 1 1 100.0 1 1 100.0 0 0 - 0 1 1 0 0 0 1 0 -3
p249
aVChris Paul LAC 03/02/2016 LAC vs. OKC W 40 21 8 17 47.1 1 4 25.0 4 4 100.0 1 3 4 13 1 1 2 4 8
p250
aVAustin Rivers LAC 03/02/2016 LAC vs. OKC W 19 6 2 8 25.0 0 2 0.0 2 4 50.0 1 2 3 1 1 0 1 1 -12
p251
aVJeff Green LAC 03/02/2016 LAC vs. OKC W 17 0 0 7 0.0 0 3 0.0 0 0 - 0 2 2 2 0 0 1 3 -3
p252
aVWesley Johnson LAC 03/02/2016 LAC vs. OKC W 31 11 4 16 25.0 3 9 33.3 0 1 0.0 2 2 4 2 5 1 0 1 16
p253
aVPaul Pierce LAC 03/02/2016 LAC vs. OKC W 15 6 2 4 50.0 2 3 66.7 0 0 - 1 3 4 1 0 0 0 1 -3
p254
aVCole Aldrich LAC 02/29/2016 LAC vs. BKN W 11 2 1 2 50.0 0 0 - 0 0 - 1 5 6 0 0 2 0 3 5
p255
aVJeff Green LAC 02/29/2016 LAC vs. BKN W 31 7 3 9 33.3 1 3 33.3 0 0 - 1 6 7 2 0 0 0 2 3
p256
aVDeAndre Jordan LAC 02/29/2016 LAC vs. BKN W 36 10 5 8 62.5 0 0 - 0 0 - 1 9 10 1 0 1 2 3 0
p257
aVChris Paul LAC 02/29/2016 LAC vs. BKN W 36 23 8 15 53.3 1 5 20.0 6 6 100.0 1 5 6 12 2 0 3 3 5
p258
aVPaul Pierce LAC 02/29/2016 LAC vs. BKN W 22 8 3 5 60.0 1 3 33.3 1 1 100.0 0 5 5 2 1 1 0 3 10
p259
aVJJ Redick LAC 02/29/2016 LAC vs. BKN W 32 19 6 16 37.5 3 5 60.0 4 4 100.0 0 1 1 2 1 0 0 1 5
p260
aVJamal Crawford LAC 02/29/2016 LAC vs. BKN W 25 26 10 17 58.8 3 4 75.0 3 5 60.0 0 1 1 1 2 0 3 4 11
p261
aVLuc Mbah a Moute LAC 02/29/2016 LAC vs. BKN W 9 2 1 4 25.0 0 1 0.0 0 0 - 3 1 4 1 1 0 0 1 6
p262
aVWesley Johnson LAC 02/29/2016 LAC vs. BKN W 25 6 3 6 50.0 0 2 0.0 0 0 - 0 5 5 0 1 0 2 2 0
p263
aVPablo Prigioni LAC 02/29/2016 LAC vs. BKN W 12 2 1 1 100.0 0 0 - 0 0 - 1 1 2 1 0 0 1 0 5
p264
aVChris Paul LAC 02/26/2016 LAC @ SAC W 36 40 13 20 65.0 4 9 44.4 10 10 100.0 1 7 8 13 2 0 2 1 14
p265
aVLuc Mbah a Moute LAC 02/26/2016 LAC @ SAC W 22 6 2 2 100.0 0 0 - 2 2 100.0 0 1 1 0 1 0 1 3 13
p266
aVDeAndre Jordan LAC 02/26/2016 LAC @ SAC W 34 8 3 5 60.0 0 0 - 2 5 40.0 4 7 11 0 0 1 1 5 7
p267
aVPablo Prigioni LAC 02/26/2016 LAC @ SAC W 11 0 0 2 0.0 0 2 0.0 0 0 - 1 1 2 1 1 0 0 2 -3
p268
aVCJ Wilcox LAC 02/26/2016 LAC @ SAC W 11 0 0 4 0.0 0 2 0.0 0 0 - 0 0 0 1 0 1 0 1 -1
p269
aVJeff Green LAC 02/26/2016 LAC @ SAC W 31 22 9 13 69.2 4 5 80.0 0 0 - 1 4 5 0 0 1 2 5 6
p270
aVWesley Johnson LAC 02/26/2016 LAC @ SAC W 21 4 2 8 25.0 0 2 0.0 0 0 - 2 3 5 1 1 1 1 4 5
p271
aVJJ Redick LAC 02/26/2016 LAC @ SAC W 35 16 7 15 46.7 1 3 33.3 1 1 100.0 0 3 3 1 1 0 0 0 9
p272
aVCole Aldrich LAC 02/26/2016 LAC @ SAC W 14 0 0 1 0.0 0 0 - 0 0 - 2 3 5 1 0 0 1 5 3
p273
aVJamal Crawford LAC 02/26/2016 LAC @ SAC W 26 21 7 19 36.8 0 6 0.0 7 8 87.5 0 1 1 0 0 0 0 1 -3
p274
aVWesley Johnson LAC 02/24/2016 LAC vs. DEN L 23 5 2 11 18.2 1 7 14.3 0 0 - 0 7 7 0 2 0 2 2 -10
p275
aVJJ Redick LAC 02/24/2016 LAC vs. DEN L 32 20 7 16 43.8 6 12 50.0 0 0 - 1 2 3 1 1 0 2 0 0
p276
aVJeff Green LAC 02/24/2016 LAC vs. DEN L 26 6 3 10 30.0 0 3 0.0 0 2 0.0 2 3 5 1 0 3 2 2 -1
p277
aVDeAndre Jordan LAC 02/24/2016 LAC vs. DEN L 37 7 2 5 40.0 0 0 - 3 7 42.9 3 9 12 1 1 4 4 2 -6
p278
aVJamal Crawford LAC 02/24/2016 LAC vs. DEN L 28 20 8 18 44.4 3 7 42.9 1 1 100.0 1 4 5 1 0 0 1 3 -1
p279
aVCJ Wilcox LAC 02/24/2016 LAC vs. DEN L 2 0 0 0 - 0 0 - 0 0 - 0 0 0 0 0 0 0 0 3
p280
aVLuc Mbah a Moute LAC 02/24/2016 LAC vs. DEN L 20 0 0 2 0.0 0 2 0.0 0 0 - 0 2 2 0 1 0 1 1 1
p281
aVChris Paul LAC 02/24/2016 LAC vs. DEN L 35 17 6 14 42.9 3 8 37.5 2 2 100.0 1 5 6 10 4 0 2 3 -4
p282
aVPaul Pierce LAC 02/24/2016 LAC vs. DEN L 17 4 1 4 25.0 0 3 0.0 2 2 100.0 0 1 1 2 1 1 1 1 -7
p283
aVPablo Prigioni LAC 02/24/2016 LAC vs. DEN L 10 0 0 4 0.0 0 4 0.0 0 0 - 0 2 2 3 1 0 1 5 -5
p284
aVCole Aldrich LAC 02/24/2016 LAC vs. DEN L 11 2 1 1 100.0 0 0 - 0 0 - 1 3 4 0 2 1 1 1 0
p285
aVCJ Wilcox LAC 02/22/2016 LAC vs. PHX W 10 5 2 7 28.6 1 3 33.3 0 0 - 0 0 0 1 2 0 1 0 12
p286
aVChris Paul LAC 02/22/2016 LAC vs. PHX W 27 16 6 11 54.5 1 2 50.0 3 3 100.0 0 2 2 14 2 0 1 3 37
p287
aVCole Aldrich LAC 02/22/2016 LAC vs. PHX W 14 8 4 6 66.7 0 0 - 0 0 - 3 5 8 1 1 3 4 2 7
p288
aVAlex Stepheson LAC 02/22/2016 LAC vs. PHX W 7 2 1 1 100.0 0 0 - 0 0 - 1 0 1 0 0 1 0 3 -2
p289
aVDeAndre Jordan LAC 02/22/2016 LAC vs. PHX W 27 17 6 9 66.7 0 0 - 5 11 45.5 2 9 11 1 0 4 2 4 35
p290
aVWesley Johnson LAC 02/22/2016 LAC vs. PHX W 28 11 4 6 66.7 2 4 50.0 1 1 100.0 1 7 8 2 2 1 0 2 16
p291
aVLuc Mbah a Moute LAC 02/22/2016 LAC vs. PHX W 20 6 3 3 100.0 0 0 - 0 1 0.0 1 4 5 0 0 0 2 1 30
p292
aVJamal Crawford LAC 02/22/2016 LAC vs. PHX W 17 2 0 4 0.0 0 2 0.0 2 2 100.0 0 0 0 0 0 0 1 1 -2
p293
aVPablo Prigioni LAC 02/22/2016 LAC vs. PHX W 21 6 2 3 66.7 1 1 100.0 1 2 50.0 1 5 6 5 0 0 3 2 3
p294
aVJJ Redick LAC 02/22/2016 LAC vs. PHX W 25 22 7 14 50.0 4 6 66.7 4 4 100.0 1 2 3 2 1 0 0 0 31
p295
aVJeff Green LAC 02/22/2016 LAC vs. PHX W 24 18 6 10 60.0 2 3 66.7 4 7 57.1 0 5 5 2 0 1 0 1 6
p296
aVPaul Pierce LAC 02/22/2016 LAC vs. PHX W 19 11 3 6 50.0 2 3 66.7 3 4 75.0 0 4 4 1 1 0 2 1 27
p297
aVCole Aldrich LAC 02/20/2016 LAC vs. GSW L 8 4 2 4 50.0 0 0 - 0 0 - 4 2 6 2 0 0 1 2 3
p298
aVWesley Johnson LAC 02/20/2016 LAC vs. GSW L 31 8 3 6 50.0 2 5 40.0 0 0 - 1 3 4 3 1 0 0 2 2
p299
aVCJ Wilcox LAC 02/20/2016 LAC vs. GSW L 5 6 2 4 50.0 2 4 50.0 0 0 - 0 1 1 0 1 0 0 1 13
p300
aVAlex Stepheson LAC 02/20/2016 LAC vs. GSW L 2 0 0 0 - 0 0 - 0 0 - 0 1 1 0 0 0 0 0 10
p301
aVJeff Green LAC 02/20/2016 LAC vs. GSW L 20 5 2 7 28.6 0 1 0.0 1 2 50.0 2 0 2 1 0 0 3 3 0
p302
aVJamal Crawford LAC 02/20/2016 LAC vs. GSW L 38 25 7 18 38.9 3 8 37.5 8 8 100.0 0 3 3 3 3 0 2 1 -11
p303
aVDeAndre Jordan LAC 02/20/2016 LAC vs. GSW L 37 16 7 13 53.8 0 0 - 2 4 50.0 7 14 21 3 2 2 2 2 -12
p304
aVPaul Pierce LAC 02/20/2016 LAC vs. GSW L 16 2 1 7 14.3 0 3 0.0 0 0 - 0 0 0 2 0 0 1 4 -2
p305
aVPablo Prigioni LAC 02/20/2016 LAC vs. GSW L 10 6 2 4 50.0 2 3 66.7 0 0 - 1 2 3 2 1 0 1 2 8
p306
aVJJ Redick LAC 02/20/2016 LAC vs. GSW L 27 16 6 11 54.5 1 4 25.0 3 3 100.0 0 1 1 2 0 0 2 5 -5
p307
aVChris Paul LAC 02/20/2016 LAC vs. GSW L 35 24 10 19 52.6 3 7 42.9 1 1 100.0 0 7 7 6 1 0 1 2 -14
p308
aVLuc Mbah a Moute LAC 02/20/2016 LAC vs. GSW L 13 0 0 1 0.0 0 1 0.0 0 0 - 0 0 0 0 0 0 1 0 -7
p309
aVJJ Redick LAC 02/18/2016 LAC vs. SAS W 32 17 7 13 53.8 2 2 100.0 1 2 50.0 0 1 1 0 1 0 1 3 23
p310
aVPaul Pierce LAC 02/18/2016 LAC vs. SAS W 23 12 4 9 44.4 2 5 40.0 2 2 100.0 0 4 4 1 0 0 1 2 8
p311
aVWesley Johnson LAC 02/18/2016 LAC vs. SAS W 32 5 2 6 33.3 1 4 25.0 0 0 - 1 5 6 0 2 1 2 0 2
p312
aVBranden Dawson LAC 02/18/2016 LAC vs. SAS W 1 0 0 0 - 0 0 - 0 0 - 0 0 0 0 0 0 0 0 1
p313
aVCJ Wilcox LAC 02/18/2016 LAC vs. SAS W 9 2 0 0 - 0 0 - 2 3 66.7 0 0 0 1 0 0 0 2 -3
p314
aVDeAndre Jordan LAC 02/18/2016 LAC vs. SAS W 37 9 4 6 66.7 0 0 - 1 2 50.0 2 15 17 1 3 2 3 3 28
p315
aVCole Aldrich LAC 02/18/2016 LAC vs. SAS W 20 8 4 5 80.0 0 0 - 0 2 0.0 2 6 8 2 0 3 1 3 -10
p316
aVLuc Mbah a Moute LAC 02/18/2016 LAC vs. SAS W 18 5 2 6 33.3 1 1 100.0 0 0 - 1 1 2 0 1 0 1 4 15
p317
aVChris Paul LAC 02/18/2016 LAC vs. SAS W 37 28 9 18 50.0 3 7 42.9 7 7 100.0 0 5 5 12 1 1 2 2 25
p318
aVJamal Crawford LAC 02/18/2016 LAC vs. SAS W 30 19 7 15 46.7 3 6 50.0 2 2 100.0 2 0 2 6 0 0 7 1 6
p319
aVLance Stephenson LAC 02/10/2016 LAC @ BOS L 24 12 4 5 80.0 2 2 100.0 2 4 50.0 1 3 4 0 1 0 1 3 2
p320
aVLuc Mbah a Moute LAC 02/10/2016 LAC @ BOS L 16 2 1 3 33.3 0 0 - 0 0 - 0 1 1 1 0 0 0 2 -15
p321
aVPaul Pierce LAC 02/10/2016 LAC @ BOS L 22 6 2 6 33.3 2 4 50.0 0 0 - 0 3 3 1 0 1 2 2 -8
p322
aVJamal Crawford LAC 02/10/2016 LAC @ BOS L 38 18 4 17 23.5 2 8 25.0 8 10 80.0 0 5 5 4 0 0 2 3 4
p323
aVJeff Ayres LAC 02/10/2016 LAC @ BOS L 2 4 2 2 100.0 0 0 - 0 0 - 1 0 1 0 0 0 0 1 -3
p324
aVDeAndre Jordan LAC 02/10/2016 LAC @ BOS L 42 21 6 11 54.5 0 0 - 9 17 52.9 4 12 16 3 1 2 3 4 -8
p325
aVWesley Johnson LAC 02/10/2016 LAC @ BOS L 22 7 2 5 40.0 1 3 33.3 2 2 100.0 0 3 3 1 1 4 1 4 9
p326
aVCole Aldrich LAC 02/10/2016 LAC @ BOS L 8 2 1 1 100.0 0 0 - 0 0 - 1 0 1 2 1 1 2 4 2
p327
aVChris Paul LAC 02/10/2016 LAC @ BOS L 48 35 13 21 61.9 3 8 37.5 6 9 66.7 0 5 5 13 3 1 2 5 1
p328
aVJJ Redick LAC 02/10/2016 LAC @ BOS L 38 27 9 14 64.3 2 5 40.0 7 8 87.5 0 3 3 0 0 0 1 1 -3
p329
aVPablo Prigioni LAC 02/10/2016 LAC @ BOS L 5 0 0 0 - 0 0 - 0 0 - 2 0 2 0 0 0 0 0 -6
p330
aVJamal Crawford LAC 02/08/2016 LAC @ PHI W 39 23 9 21 42.9 1 3 33.3 4 5 80.0 0 3 3 3 2 0 1 1 11
p331
aVLuc Mbah a Moute LAC 02/08/2016 LAC @ PHI W 23 2 1 3 33.3 0 0 - 0 0 - 1 2 3 1 3 0 0 1 -7
p332
aVPablo Prigioni LAC 02/08/2016 LAC @ PHI W 13 0 0 2 0.0 0 1 0.0 0 0 - 0 2 2 4 0 0 0 3 -4
p333
aVDeAndre Jordan LAC 02/08/2016 LAC @ PHI W 43 12 5 10 50.0 0 0 - 2 7 28.6 8 13 21 1 0 3 2 4 12
p334
aVCole Aldrich LAC 02/08/2016 LAC @ PHI W 10 10 4 5 80.0 0 0 - 2 2 100.0 2 1 3 0 1 0 0 1 -6
p335
aVJJ Redick LAC 02/08/2016 LAC @ PHI W 39 23 7 18 38.9 3 8 37.5 6 7 85.7 0 2 2 2 0 0 3 4 2
p336
aVChris Paul LAC 02/08/2016 LAC @ PHI W 40 19 5 18 27.8 0 3 0.0 9 10 90.0 1 5 6 7 4 0 3 3 10
p337
aVLance Stephenson LAC 02/08/2016 LAC @ PHI W 16 2 1 5 20.0 0 0 - 0 0 - 0 3 3 1 0 0 2 1 -4
p338
aVWesley Johnson LAC 02/08/2016 LAC @ PHI W 42 7 3 13 23.1 1 7 14.3 0 0 - 2 7 9 2 2 1 1 4 16
p339
aVLance Stephenson LAC 02/07/2016 LAC @ MIA W 18 9 4 5 80.0 1 1 100.0 0 0 - 0 1 1 1 1 0 1 4 -4
p340
aVWesley Johnson LAC 02/07/2016 LAC @ MIA W 18 10 4 5 80.0 2 3 66.7 0 0 - 1 6 7 0 2 0 0 5 3
p341
aVPablo Prigioni LAC 02/07/2016 LAC @ MIA W 14 2 1 3 33.3 0 2 0.0 0 0 - 1 0 1 2 1 0 0 2 0
p342
aVJJ Redick LAC 02/07/2016 LAC @ MIA W 32 14 5 11 45.5 1 2 50.0 3 3 100.0 0 1 1 1 2 0 2 3 7
p343
aVJamal Crawford LAC 02/07/2016 LAC @ MIA W 34 20 7 19 36.8 2 7 28.6 4 5 80.0 0 1 1 2 0 0 1 1 8
p344
aVCole Aldrich LAC 02/07/2016 LAC @ MIA W 13 5 2 3 66.7 0 0 - 1 5 20.0 3 8 11 1 0 2 1 2 2
p345
aVPaul Pierce LAC 02/07/2016 LAC @ MIA W 22 7 3 7 42.9 1 4 25.0 0 0 - 0 4 4 0 0 0 0 2 4
p346
aVChris Paul LAC 02/07/2016 LAC @ MIA W 34 22 8 23 34.8 2 6 33.3 4 4 100.0 0 2 2 7 1 0 1 2 7
p347
aVLuc Mbah a Moute LAC 02/07/2016 LAC @ MIA W 20 2 0 1 0.0 0 0 - 2 2 100.0 0 3 3 0 1 0 0 1 3
p348
aVDeAndre Jordan LAC 02/07/2016 LAC @ MIA W 35 9 3 4 75.0 0 0 - 3 14 21.4 2 9 11 3 0 3 0 3 5
p349
aVJamal Crawford LAC 02/05/2016 LAC @ ORL W 35 20 8 14 57.1 0 4 0.0 4 4 100.0 0 1 1 2 3 1 4 4 9
p350
aVPaul Pierce LAC 02/05/2016 LAC @ ORL W 20 12 4 6 66.7 2 4 50.0 2 2 100.0 0 3 3 1 1 0 0 2 14
p351
aVDeAndre Jordan LAC 02/05/2016 LAC @ ORL W 37 12 4 7 57.1 0 0 - 4 6 66.7 4 14 18 1 1 3 3 1 16
p352
aVJJ Redick LAC 02/05/2016 LAC @ ORL W 27 20 6 14 42.9 4 9 44.4 4 5 80.0 0 3 3 0 1 0 1 2 9
p353
aVLance Stephenson LAC 02/05/2016 LAC @ ORL W 19 13 6 6 100.0 0 0 - 1 1 100.0 0 1 1 3 1 0 1 3 6
p354
aVCJ Wilcox LAC 02/05/2016 LAC @ ORL W 2 0 0 1 0.0 0 0 - 0 0 - 0 0 0 0 0 0 0 0 0
p355
aVCole Aldrich LAC 02/05/2016 LAC @ ORL W 8 2 1 3 33.3 0 0 - 0 0 - 0 2 2 0 1 0 2 5 -2
p356
aVChris Paul LAC 02/05/2016 LAC @ ORL W 36 21 8 15 53.3 1 4 25.0 4 5 80.0 0 4 4 6 4 0 6 3 26
p357
aVLuc Mbah a Moute LAC 02/05/2016 LAC @ ORL W 16 0 0 0 - 0 0 - 0 0 - 0 4 4 0 0 0 1 0 6
p358
aVWesley Johnson LAC 02/05/2016 LAC @ ORL W 27 5 2 6 33.3 1 5 20.0 0 0 - 0 5 5 0 1 4 1 1 0
p359
aVPablo Prigioni LAC 02/05/2016 LAC @ ORL W 11 2 1 2 50.0 0 1 0.0 0 0 - 2 1 3 2 0 0 2 1 -12
p360
aVJeff Ayres LAC 02/05/2016 LAC @ ORL W 2 0 0 0 - 0 0 - 0 0 - 0 0 0 0 0 0 1 1 -2
p361
aVJamal Crawford LAC 02/03/2016 LAC vs. MIN L 28 21 5 15 33.3 1 4 25.0 10 10 100.0 2 2 4 3 1 0 0 1 7
p362
aVChris Paul LAC 02/03/2016 LAC vs. MIN L 36 22 6 14 42.9 4 9 44.4 6 6 100.0 2 2 4 8 2 0 2 2 -9
p363
aVLuc Mbah a Moute LAC 02/03/2016 LAC vs. MIN L 20 7 3 4 75.0 1 1 100.0 0 2 0.0 1 0 1 0 0 0 2 1 -13
p364
aVJJ Redick LAC 02/03/2016 LAC vs. MIN L 33 5 1 9 11.1 1 4 25.0 2 2 100.0 0 2 2 1 0 0 2 1 -9
p365
aVPaul Pierce LAC 02/03/2016 LAC vs. MIN L 17 3 1 5 20.0 1 3 33.3 0 0 - 0 2 2 5 0 0 3 2 -4
p366
aVAustin Rivers LAC 02/03/2016 LAC vs. MIN L 7 4 2 4 50.0 0 1 0.0 0 0 - 0 0 0 0 0 0 1 1 4
p367
aVCole Aldrich LAC 02/03/2016 LAC vs. MIN L 12 4 1 1 100.0 0 0 - 2 2 100.0 2 0 2 0 1 1 0 4 2
p368
aVWesley Johnson LAC 02/03/2016 LAC vs. MIN L 27 12 4 9 44.4 3 8 37.5 1 2 50.0 1 2 3 1 3 2 0 6 3
p369
aVPablo Prigioni LAC 02/03/2016 LAC vs. MIN L 12 2 1 3 33.3 0 1 0.0 0 0 - 0 0 0 2 1 0 1 2 3
p370
aVDeAndre Jordan LAC 02/03/2016 LAC vs. MIN L 36 18 7 8 87.5 0 0 - 4 10 40.0 3 12 15 0 2 3 1 1 -8
p371
aVLance Stephenson LAC 02/03/2016 LAC vs. MIN L 12 4 2 3 66.7 0 1 0.0 0 0 - 0 2 2 0 0 0 1 1 -6
p372
aVAustin Rivers LAC 01/31/2016 LAC vs. CHI W 21 16 5 7 71.4 5 6 83.3 1 2 50.0 0 1 1 1 0 0 3 1 12
p373
aVDeAndre Jordan LAC 01/31/2016 LAC vs. CHI W 36 17 6 7 85.7 0 0 - 5 8 62.5 5 15 20 4 1 4 1 1 18
p374
aVLance Stephenson LAC 01/31/2016 LAC vs. CHI W 9 2 1 3 33.3 0 1 0.0 0 0 - 1 5 6 1 1 0 1 2 11
p375
aVJeff Ayres LAC 01/31/2016 LAC vs. CHI W 3 0 0 0 - 0 0 - 0 0 - 0 1 1 1 0 1 0 0 6
p376
aVChris Paul LAC 01/31/2016 LAC vs. CHI W 33 19 8 16 50.0 1 4 25.0 2 2 100.0 0 1 1 7 2 0 1 0 16
p377
aVPaul Pierce LAC 01/31/2016 LAC vs. CHI W 16 0 0 6 0.0 0 5 0.0 0 0 - 0 1 1 2 0 0 1 1 -3
p378
aVWesley Johnson LAC 01/31/2016 LAC vs. CHI W 20 11 4 8 50.0 3 5 60.0 0 1 0.0 0 2 2 1 0 0 0 2 10
p379
aVJamal Crawford LAC 01/31/2016 LAC vs. CHI W 26 26 11 15 73.3 2 3 66.7 2 2 100.0 0 1 1 3 1 1 1 1 12
p380
aVJJ Redick LAC 01/31/2016 LAC vs. CHI W 27 21 7 11 63.6 4 4 100.0 3 4 75.0 0 4 4 1 1 0 0 2 15
p381
aVPablo Prigioni LAC 01/31/2016 LAC vs. CHI W 12 3 1 1 100.0 1 1 100.0 0 0 - 0 3 3 0 0 0 0 1 11
p382
aVCole Aldrich LAC 01/31/2016 LAC vs. CHI W 10 0 0 1 0.0 0 0 - 0 0 - 0 4 4 3 0 0 2 1 3
p383
aVCJ Wilcox LAC 01/31/2016 LAC vs. CHI W 3 0 0 3 0.0 0 1 0.0 0 0 - 0 0 0 0 0 0 0 0 6
p384
aVLuc Mbah a Moute LAC 01/31/2016 LAC vs. CHI W 25 5 2 6 33.3 1 2 50.0 0 0 - 1 1 2 2 2 0 1 3 18
p385
aVLance Stephenson LAC 01/29/2016 LAC vs. LAL W 22 16 6 7 85.7 2 2 100.0 2 2 100.0 0 5 5 2 1 1 1 2 7
p386
aVCJ Wilcox LAC 01/29/2016 LAC vs. LAL W 2 2 1 2 50.0 0 0 - 0 0 - 0 1 1 0 0 0 0 0 -1
p387
aVAustin Rivers LAC 01/29/2016 LAC vs. LAL W 26 17 8 14 57.1 1 4 25.0 0 1 0.0 1 1 2 1 2 2 1 4 17
p388
aVJamal Crawford LAC 01/29/2016 LAC vs. LAL W 29 15 5 13 38.5 1 3 33.3 4 4 100.0 0 1 1 4 0 0 0 0 21
p389
aVWesley Johnson LAC 01/29/2016 LAC vs. LAL W 26 9 4 10 40.0 0 4 0.0 1 2 50.0 0 2 2 1 2 1 0 1 5
p390
aVChris Paul LAC 01/29/2016 LAC vs. LAL W 31 27 11 18 61.1 3 6 50.0 2 2 100.0 0 1 1 7 2 0 2 1 8
p391
aVLuc Mbah a Moute LAC 01/29/2016 LAC vs. LAL W 18 0 0 2 0.0 0 0 - 0 0 - 0 2 2 0 1 1 0 2 -8
p392
aVJJ Redick LAC 01/29/2016 LAC vs. LAL W 22 7 2 10 20.0 1 6 16.7 2 3 66.7 0 1 1 2 1 0 0 2 -5
p393
aVDeAndre Jordan LAC 01/29/2016 LAC vs. LAL W 32 6 2 3 66.7 0 0 - 2 4 50.0 3 14 17 1 1 1 2 4 21
p394
aVJeff Ayres LAC 01/29/2016 LAC vs. LAL W 2 0 0 0 - 0 0 - 0 0 - 0 0 0 0 0 2 0 0 -2
p395
aVPablo Prigioni LAC 01/29/2016 LAC vs. LAL W 17 0 0 1 0.0 0 1 0.0 0 0 - 1 1 2 1 0 0 2 1 4
p396
aVCole Aldrich LAC 01/29/2016 LAC vs. LAL W 13 6 1 1 100.0 0 0 - 4 6 66.7 0 4 4 1 0 1 0 2 -7
p397
aVPaul Pierce LAC 01/27/2016 LAC @ ATL W 15 5 2 7 28.6 1 4 25.0 0 0 - 0 2 2 1 0 1 1 1 -6
p398
aVJamal Crawford LAC 01/27/2016 LAC @ ATL W 29 21 9 16 56.3 1 2 50.0 2 2 100.0 0 1 1 2 1 0 2 1 16
p399
aVCole Aldrich LAC 01/27/2016 LAC @ ATL W 14 3 1 4 25.0 0 0 - 1 2 50.0 2 2 4 1 0 2 1 2 11
p400
aVDeAndre Jordan LAC 01/27/2016 LAC @ ATL W 34 13 3 5 60.0 0 0 - 7 12 58.3 4 15 19 0 0 1 1 1 -11
p401
aVPablo Prigioni LAC 01/27/2016 LAC @ ATL W 15 0 0 1 0.0 0 1 0.0 0 0 - 0 1 1 2 1 0 0 2 9
p402
aVChris Paul LAC 01/27/2016 LAC @ ATL W 33 11 5 15 33.3 0 4 0.0 1 1 100.0 0 4 4 10 3 0 2 1 -7
p403
aVLuc Mbah a Moute LAC 01/27/2016 LAC @ ATL W 26 5 2 6 33.3 0 0 - 1 2 50.0 3 2 5 1 2 0 2 1 -14
p404
aVAustin Rivers LAC 01/27/2016 LAC @ ATL W 20 8 4 9 44.4 0 2 0.0 0 0 - 0 4 4 1 2 0 0 1 8
p405
aVJJ Redick LAC 01/27/2016 LAC @ ATL W 26 12 4 10 40.0 2 6 33.3 2 2 100.0 0 0 0 0 1 0 0 2 -11
p406
aVWesley Johnson LAC 01/27/2016 LAC @ ATL W 28 7 3 12 25.0 1 8 12.5 0 0 - 0 6 6 0 6 1 2 2 15
p407
aVJJ Redick LAC 01/26/2016 LAC @ IND W 33 19 7 18 38.9 4 10 40.0 1 2 50.0 1 1 2 2 1 0 2 1 -4
p408
aVWesley Johnson LAC 01/26/2016 LAC @ IND W 20 15 5 8 62.5 5 6 83.3 0 0 - 0 0 0 1 1 0 1 4 1
p409
aVChris Paul LAC 01/26/2016 LAC @ IND W 36 26 11 21 52.4 4 8 50.0 0 0 - 1 5 6 7 1 0 4 3 -9
p410
aVJamal Crawford LAC 01/26/2016 LAC @ IND W 20 9 1 9 11.1 1 6 16.7 6 8 75.0 1 2 3 2 0 1 1 0 16
p411
aVDeAndre Jordan LAC 01/26/2016 LAC @ IND W 41 9 3 6 50.0 0 0 - 3 8 37.5 4 15 19 2 0 3 1 1 -4
p412
aVCole Aldrich LAC 01/26/2016 LAC @ IND W 7 0 0 1 0.0 0 0 - 0 2 0.0 0 2 2 0 0 0 0 1 6
p413
aVAustin Rivers LAC 01/26/2016 LAC @ IND W 23 5 2 5 40.0 0 1 0.0 1 2 50.0 0 4 4 1 2 1 1 2 4
p414
aVLuc Mbah a Moute LAC 01/26/2016 LAC @ IND W 24 1 0 1 0.0 0 1 0.0 1 2 50.0 0 1 1 0 0 0 2 0 -6
p415
aVPaul Pierce LAC 01/26/2016 LAC @ IND W 23 5 2 7 28.6 1 4 25.0 0 0 - 1 1 2 1 2 0 2 5 -4
p416
aVPablo Prigioni LAC 01/26/2016 LAC @ IND W 13 2 1 2 50.0 0 1 0.0 0 0 - 1 4 5 0 2 0 1 3 10
p417
aVDeAndre Jordan LAC 01/24/2016 LAC @ TOR L 32 15 6 9 66.7 0 0 - 3 9 33.3 4 9 13 0 0 0 0 3 5
p418
aVJeff Ayres LAC 01/24/2016 LAC @ TOR L 5 2 0 0 - 0 0 - 2 2 100.0 0 1 1 1 0 0 0 0 3
p419
aVPablo Prigioni LAC 01/24/2016 LAC @ TOR L 8 0 0 1 0.0 0 1 0.0 0 0 - 0 0 0 1 2 0 3 1 -23
p420
aVLuc Mbah a Moute LAC 01/24/2016 LAC @ TOR L 29 6 1 5 20.0 0 1 0.0 4 6 66.7 1 0 1 0 1 1 0 3 7
p421
aVJamal Crawford LAC 01/24/2016 LAC @ TOR L 19 3 1 6 16.7 0 1 0.0 1 1 100.0 0 0 0 0 0 0 1 1 -33
p422
aVPaul Pierce LAC 01/24/2016 LAC @ TOR L 16 4 1 5 20.0 1 3 33.3 1 2 50.0 0 5 5 3 0 0 0 3 8
p423
aVCole Aldrich LAC 01/24/2016 LAC @ TOR L 11 2 1 2 50.0 0 0 - 0 0 - 0 1 1 0 0 1 1 3 -26
p424
aVAustin Rivers LAC 01/24/2016 LAC @ TOR L 19 8 4 8 50.0 0 1 0.0 0 0 - 0 0 0 1 0 0 3 4 -28
p425
aVWesley Johnson LAC 01/24/2016 LAC @ TOR L 28 6 2 7 28.6 2 7 28.6 0 0 - 1 3 4 1 1 0 0 3 -25
p426
aVLance Stephenson LAC 01/24/2016 LAC @ TOR L 8 8 4 4 100.0 0 0 - 0 0 - 0 2 2 0 0 0 1 1 -1
p427
aVChris Paul LAC 01/24/2016 LAC @ TOR L 31 23 9 17 52.9 3 7 42.9 2 3 66.7 1 3 4 11 2 1 4 4 10
p428
aVCJ Wilcox LAC 01/24/2016 LAC @ TOR L 5 0 0 2 0.0 0 0 - 0 0 - 0 1 1 1 0 0 0 0 3
p429
aVJJ Redick LAC 01/24/2016 LAC @ TOR L 28 17 5 10 50.0 2 5 40.0 5 7 71.4 0 2 2 2 0 0 0 2 10
p430
aVChris Paul LAC 01/22/2016 LAC @ NYK W 28 16 6 15 40.0 2 4 50.0 2 2 100.0 0 6 6 13 1 0 2 3 19
p431
aVJamal Crawford LAC 01/22/2016 LAC @ NYK W 23 13 4 9 44.4 1 2 50.0 4 4 100.0 0 0 0 1 0 0 2 0 11
p432
aVCJ Wilcox LAC 01/22/2016 LAC @ NYK W 6 4 2 2 100.0 0 0 - 0 0 - 0 0 0 0 0 0 0 0 0
p433
aVLuc Mbah a Moute LAC 01/22/2016 LAC @ NYK W 22 4 2 2 100.0 0 0 - 0 0 - 0 2 2 1 1 0 1 3 25
p434
aVCole Aldrich LAC 01/22/2016 LAC @ NYK W 18 12 4 6 66.7 0 0 - 4 4 100.0 1 4 5 0 1 1 1 2 4
p435
aVWesley Johnson LAC 01/22/2016 LAC @ NYK W 23 14 5 5 100.0 4 4 100.0 0 0 - 0 3 3 1 2 2 0 2 15
p436
aVDeAndre Jordan LAC 01/22/2016 LAC @ NYK W 30 20 7 7 100.0 0 0 - 6 12 50.0 1 7 8 2 0 0 1 1 24
p437
aVLance Stephenson LAC 01/22/2016 LAC @ NYK W 6 0 0 2 0.0 0 0 - 0 0 - 0 1 1 1 0 0 0 1 0
p438
aVJJ Redick LAC 01/22/2016 LAC @ NYK W 24 7 3 6 50.0 1 2 50.0 0 0 - 0 2 2 0 0 0 1 0 19
p439
aVPablo Prigioni LAC 01/22/2016 LAC @ NYK W 19 7 3 4 75.0 1 2 50.0 0 0 - 1 3 4 4 4 0 0 0 6
p440
aVPaul Pierce LAC 01/22/2016 LAC @ NYK W 19 13 5 10 50.0 3 6 50.0 0 0 - 0 4 4 1 1 0 1 2 11
p441
aVAustin Rivers LAC 01/22/2016 LAC @ NYK W 22 6 2 8 25.0 1 3 33.3 1 2 50.0 0 1 1 3 0 0 0 3 6
p442
aVAustin Rivers LAC 01/21/2016 LAC @ CLE L 20 4 2 6 33.3 0 3 0.0 0 0 - 0 2 2 3 1 1 1 4 -4
p443
aVDeAndre Jordan LAC 01/21/2016 LAC @ CLE L 33 10 2 5 40.0 0 0 - 6 15 40.0 3 10 13 1 0 0 1 1 -15
p444
aVCole Aldrich LAC 01/21/2016 LAC @ CLE L 15 11 4 9 44.4 0 0 - 3 4 75.0 2 2 4 3 0 1 0 3 6
p445
aVChris Paul LAC 01/21/2016 LAC @ CLE L 34 30 11 19 57.9 1 3 33.3 7 7 100.0 1 2 3 9 3 1 4 4 -4
p446
aVLance Stephenson LAC 01/21/2016 LAC @ CLE L 8 2 1 3 33.3 0 0 - 0 0 - 1 1 2 0 1 0 0 3 5
p447
aVLuc Mbah a Moute LAC 01/21/2016 LAC @ CLE L 22 5 1 2 50.0 0 1 0.0 3 4 75.0 1 3 4 0 0 0 1 1 -10
p448
aVCJ Wilcox LAC 01/21/2016 LAC @ CLE L 3 0 0 0 - 0 0 - 0 0 - 0 0 0 0 0 0 0 0 2
p449
aVWesley Johnson LAC 01/21/2016 LAC @ CLE L 21 4 2 6 33.3 0 3 0.0 0 0 - 0 3 3 0 1 0 0 2 -8
p450
aVPablo Prigioni LAC 01/21/2016 LAC @ CLE L 13 3 1 4 25.0 1 3 33.3 0 0 - 0 2 2 2 1 0 0 0 -4
p451
aVJamal Crawford LAC 01/21/2016 LAC @ CLE L 27 16 6 9 66.7 2 3 66.7 2 2 100.0 0 0 0 0 1 0 1 0 -4
p452
aVJJ Redick LAC 01/21/2016 LAC @ CLE L 29 17 6 12 50.0 2 6 33.3 3 4 75.0 0 2 2 0 0 0 0 0 -18
p453
aVPaul Pierce LAC 01/21/2016 LAC @ CLE L 17 0 0 5 0.0 0 3 0.0 0 0 - 0 0 0 1 1 0 1 3 -11
p454
aVAustin Rivers LAC 01/18/2016 LAC vs. HOU W 17 3 1 5 20.0 1 2 50.0 0 0 - 0 1 1 0 0 0 1 2 -13
p455
aVPaul Pierce LAC 01/18/2016 LAC vs. HOU W 26 12 4 9 44.4 3 5 60.0 1 3 33.3 0 5 5 1 0 1 0 4 15
p456
aVLuc Mbah a Moute LAC 01/18/2016 LAC vs. HOU W 21 5 2 2 100.0 0 0 - 1 2 50.0 0 2 2 2 1 0 0 5 0
p457
aVPablo Prigioni LAC 01/18/2016 LAC vs. HOU W 10 0 0 2 0.0 0 1 0.0 0 0 - 1 0 1 1 1 0 3 1 -6
p458
aVChris Paul LAC 01/18/2016 LAC vs. HOU W 43 28 8 15 53.3 5 7 71.4 7 9 77.8 0 6 6 12 6 1 5 4 14
p459
aVWesley Johnson LAC 01/18/2016 LAC vs. HOU W 21 11 4 12 33.3 3 7 42.9 0 0 - 2 4 6 4 0 1 2 2 8
p460
aVDeAndre Jordan LAC 01/18/2016 LAC vs. HOU W 41 16 6 7 85.7 0 0 - 4 8 50.0 2 13 15 0 0 2 0 4 2
p461
aVJamal Crawford LAC 01/18/2016 LAC vs. HOU W 36 17 8 15 53.3 1 3 33.3 0 0 - 0 0 0 5 1 0 0 0 0
p462
aVCole Aldrich LAC 01/18/2016 LAC vs. HOU W 11 8 3 5 60.0 0 0 - 2 2 100.0 3 1 4 1 1 1 0 4 2
p463
aVJJ Redick LAC 01/18/2016 LAC vs. HOU W 39 40 11 19 57.9 9 12 75.0 9 9 100.0 1 0 1 2 0 0 1 4 18
p464
aVJamal Crawford LAC 01/16/2016 LAC vs. SAC L 31 20 8 17 47.1 3 7 42.9 1 2 50.0 0 2 2 0 0 1 0 3 3
p465
aVJosh Smith LAC 01/16/2016 LAC vs. SAC L 19 7 3 8 37.5 0 2 0.0 1 2 50.0 2 5 7 2 1 0 2 2 2
p466
aVAustin Rivers LAC 01/16/2016 LAC vs. SAC L 22 2 1 7 14.3 0 4 0.0 0 0 - 0 1 1 2 0 0 0 2 -6
p467
aVPablo Prigioni LAC 01/16/2016 LAC vs. SAC L 16 5 2 4 50.0 1 3 33.3 0 0 - 2 2 4 4 0 0 1 0 0
p468
aVCole Aldrich LAC 01/16/2016 LAC vs. SAC L 29 19 8 14 57.1 0 0 - 3 6 50.0 4 6 10 2 2 3 2 4 -6
p469
aVPaul Pierce LAC 01/16/2016 LAC vs. SAC L 20 7 3 9 33.3 1 5 20.0 0 0 - 0 1 1 3 1 0 2 1 -2
p470
aVLuc Mbah a Moute LAC 01/16/2016 LAC vs. SAC L 21 2 1 6 16.7 0 0 - 0 0 - 4 3 7 2 0 0 0 2 -15
p471
aVWesley Johnson LAC 01/16/2016 LAC vs. SAC L 23 4 2 7 28.6 0 4 0.0 0 0 - 2 5 7 0 0 0 0 3 -3
p472
aVJJ Redick LAC 01/16/2016 LAC vs. SAC L 31 22 6 13 46.2 5 9 55.6 5 5 100.0 0 3 3 2 1 0 0 2 -9
p473
aVChris Paul LAC 01/16/2016 LAC vs. SAC L 27 15 4 11 36.4 3 5 60.0 4 4 100.0 0 4 4 7 1 0 4 5 1
p474
aVJosh Smith LAC 01/13/2016 LAC vs. MIA W 20 9 4 11 36.4 1 2 50.0 0 0 - 0 3 3 1 3 1 1 5 2
p475
aVPablo Prigioni LAC 01/13/2016 LAC vs. MIA W 15 2 1 1 100.0 0 0 - 0 0 - 0 2 2 2 8 0 1 1 3
p476
aVLuc Mbah a Moute LAC 01/13/2016 LAC vs. MIA W 24 2 1 2 50.0 0 0 - 0 0 - 0 5 5 1 0 2 0 2 15
p477
aVJamal Crawford LAC 01/13/2016 LAC vs. MIA W 26 15 4 15 26.7 2 5 40.0 5 5 100.0 0 4 4 1 0 0 0 2 4
p478
aVWesley Johnson LAC 01/13/2016 LAC vs. MIA W 22 5 2 5 40.0 1 4 25.0 0 0 - 2 2 4 0 2 1 2 4 -1
p479
aVCJ Wilcox LAC 01/13/2016 LAC vs. MIA W 3 0 0 2 0.0 0 0 - 0 0 - 0 0 0 1 0 0 0 0 -3
p480
aVLance Stephenson LAC 01/13/2016 LAC vs. MIA W 6 2 1 1 100.0 0 0 - 0 0 - 1 0 1 0 0 0 0 0 -4
p481
aVPaul Pierce LAC 01/13/2016 LAC vs. MIA W 22 15 6 10 60.0 3 7 42.9 0 0 - 1 8 9 0 0 0 0 4 14
p482
aVAustin Rivers LAC 01/13/2016 LAC vs. MIA W 23 8 3 6 50.0 0 0 - 2 2 100.0 0 1 1 3 0 0 0 4 -2
p483
aVChris Paul LAC 01/13/2016 LAC vs. MIA W 30 15 6 17 35.3 2 3 66.7 1 2 50.0 2 4 6 12 4 1 1 1 14
p484
aVCole Aldrich LAC 01/13/2016 LAC vs. MIA W 24 19 7 14 50.0 0 0 - 5 7 71.4 4 3 7 3 1 0 2 1 10
p485
aVJJ Redick LAC 01/13/2016 LAC vs. MIA W 25 12 5 10 50.0 2 4 50.0 0 0 - 0 1 1 2 0 0 0 1 18
p486
aVDeAndre Jordan LAC 01/10/2016 LAC vs. NOP W 42 12 4 6 66.7 0 0 - 4 10 40.0 2 9 11 3 0 2 2 3 14
p487
aVPaul Pierce LAC 01/10/2016 LAC vs. NOP W 13 3 1 6 16.7 1 4 25.0 0 0 - 1 4 5 1 0 0 1 0 -3
p488
aVAustin Rivers LAC 01/10/2016 LAC vs. NOP W 24 10 5 11 45.5 0 3 0.0 0 0 - 1 1 2 1 0 0 1 5 -9
p489
aVChris Paul LAC 01/10/2016 LAC vs. NOP W 40 25 10 18 55.6 3 4 75.0 2 4 50.0 1 4 5 11 3 1 2 5 9
p490
aVCole Aldrich LAC 01/10/2016 LAC vs. NOP W 9 0 0 2 0.0 0 0 - 0 0 - 1 5 6 0 0 0 1 4 -13
p491
aVPablo Prigioni LAC 01/10/2016 LAC vs. NOP W 13 3 1 1 100.0 1 1 100.0 0 0 - 1 0 1 4 0 0 1 1 -6
p492
aVJamal Crawford LAC 01/10/2016 LAC vs. NOP W 32 21 8 16 50.0 3 7 42.9 2 2 100.0 0 3 3 2 0 0 3 3 14
p493
aVLuc Mbah a Moute LAC 01/10/2016 LAC vs. NOP W 22 14 6 6 100.0 0 0 - 2 7 28.6 0 5 5 0 0 0 0 1 -5
p494
aVJJ Redick LAC 01/10/2016 LAC vs. NOP W 36 11 2 10 20.0 1 6 16.7 6 7 85.7 0 5 5 2 0 0 0 1 7
p495
aVWesley Johnson LAC 01/10/2016 LAC vs. NOP W 34 15 5 13 38.5 3 11 27.3 2 4 50.0 1 3 4 2 5 0 3 1 7
p496
aVJJ Redick LAC 01/09/2016 LAC vs. CHA W 29 17 6 10 60.0 3 5 60.0 2 2 100.0 0 2 2 2 0 0 1 1 22
p497
aVDeAndre Jordan LAC 01/09/2016 LAC vs. CHA W 35 11 4 10 40.0 0 0 - 3 4 75.0 7 12 19 2 0 4 0 2 21
p498
aVJamal Crawford LAC 01/09/2016 LAC vs. CHA W 31 19 9 20 45.0 1 7 14.3 0 0 - 0 1 1 2 0 0 3 1 0
p499
aVPablo Prigioni LAC 01/09/2016 LAC vs. CHA W 17 0 0 0 - 0 0 - 0 0 - 1 2 3 4 0 0 0 3 -7
p500
aVWesley Johnson LAC 01/09/2016 LAC vs. CHA W 23 3 1 7 14.3 1 5 20.0 0 0 - 1 3 4 0 1 1 0 4 -4
p501
aVAustin Rivers LAC 01/09/2016 LAC vs. CHA W 24 6 2 7 28.6 0 1 0.0 2 2 100.0 0 1 1 2 1 0 0 2 -11
p502
aVChris Paul LAC 01/09/2016 LAC vs. CHA W 31 25 11 19 57.9 3 5 60.0 0 0 - 1 6 7 7 2 1 5 4 21
p503
aVLuc Mbah a Moute LAC 01/09/2016 LAC vs. CHA W 18 4 1 2 50.0 0 0 - 2 2 100.0 1 3 4 0 1 1 0 1 24
p504
aVPaul Pierce LAC 01/09/2016 LAC vs. CHA W 19 4 2 10 20.0 0 8 0.0 0 0 - 0 2 2 0 1 2 0 1 11
p505
aVCole Aldrich LAC 01/09/2016 LAC vs. CHA W 13 8 4 6 66.7 0 0 - 0 0 - 2 2 4 0 0 0 0 0 -7
p506
aVPaul Pierce LAC 01/06/2016 LAC @ POR W 24 17 5 9 55.6 5 6 83.3 2 2 100.0 0 4 4 1 2 0 1 5 14
p507
aVJamal Crawford LAC 01/06/2016 LAC @ POR W 22 10 4 13 30.8 1 3 33.3 1 1 100.0 1 1 2 1 2 0 2 1 5
p508
aVWesley Johnson LAC 01/06/2016 LAC @ POR W 24 5 1 7 14.3 1 4 25.0 2 2 100.0 0 7 7 1 0 1 1 1 -3
p509
aVChris Paul LAC 01/06/2016 LAC @ POR W 36 21 9 19 47.4 0 3 0.0 3 4 75.0 1 3 4 19 1 0 3 4 16
p510
aVCole Aldrich LAC 01/06/2016 LAC @ POR W 12 4 1 3 33.3 0 0 - 2 2 100.0 2 1 3 0 0 0 1 2 -5
p511
aVAustin Rivers LAC 01/06/2016 LAC @ POR W 25 16 7 10 70.0 2 2 100.0 0 0 - 0 3 3 0 0 0 0 2 4
p512
aVJJ Redick LAC 01/06/2016 LAC @ POR W 30 20 8 13 61.5 2 5 40.0 2 2 100.0 0 1 1 1 2 0 1 2 8
p513
aVDeAndre Jordan LAC 01/06/2016 LAC @ POR W 36 14 6 7 85.7 0 0 - 2 4 50.0 5 9 14 0 0 4 0 1 16
p514
aVLuc Mbah a Moute LAC 01/06/2016 LAC @ POR W 19 2 1 2 50.0 0 0 - 0 0 - 0 2 2 0 0 1 1 1 5
p515
aVPablo Prigioni LAC 01/06/2016 LAC @ POR W 12 0 0 0 - 0 0 - 0 0 - 1 1 2 1 0 0 0 3 -5
p516
aVChris Paul LAC 01/02/2016 LAC vs. PHI W 26 15 4 12 33.3 1 4 25.0 6 6 100.0 0 5 5 14 1 0 2 2 22
p517
aVCole Aldrich LAC 01/02/2016 LAC vs. PHI W 12 8 4 6 66.7 0 0 - 0 0 - 0 9 9 1 0 2 3 5 13
p518
aVBranden Dawson LAC 01/02/2016 LAC vs. PHI W 9 2 1 2 50.0 0 0 - 0 0 - 2 1 3 0 0 0 0 0 -6
p519
aVLuc Mbah a Moute LAC 01/02/2016 LAC vs. PHI W 23 7 3 4 75.0 0 0 - 1 2 50.0 1 3 4 0 0 1 0 1 22
p520
aVJosh Smith LAC 01/02/2016 LAC vs. PHI W 7 0 0 2 0.0 0 0 - 0 0 - 0 0 0 0 0 0 0 1 -5
p521
aVAustin Rivers LAC 01/02/2016 LAC vs. PHI W 24 26 11 16 68.8 3 4 75.0 1 1 100.0 0 2 2 1 0 0 0 1 8
p522
aVWesley Johnson LAC 01/02/2016 LAC vs. PHI W 24 12 4 8 50.0 4 7 57.1 0 0 - 0 2 2 1 4 2 1 2 19
p523
aVDeAndre Jordan LAC 01/02/2016 LAC vs. PHI W 30 22 9 10 90.0 0 0 - 4 7 57.1 2 11 13 1 0 1 1 2 23
p524
aVJJ Redick LAC 01/02/2016 LAC vs. PHI W 24 16 6 11 54.5 4 5 80.0 0 0 - 0 1 1 2 0 0 1 1 22
p525
aVPablo Prigioni LAC 01/02/2016 LAC vs. PHI W 22 2 1 1 100.0 0 0 - 0 0 - 1 2 3 3 1 0 3 2 9
p526
aVLance Stephenson LAC 01/02/2016 LAC vs. PHI W 21 7 2 3 66.7 0 1 0.0 3 4 75.0 0 4 4 3 1 0 2 0 12
p527
aVJamal Crawford LAC 01/02/2016 LAC vs. PHI W 18 13 4 6 66.7 0 2 0.0 5 5 100.0 0 1 1 2 0 0 1 0 16
p528
aVPaul Pierce LAC 12/31/2015 LAC @ NOP W 21 5 1 6 16.7 1 3 33.3 2 2 100.0 1 5 6 0 0 1 1 1 9
p529
aVChris Paul LAC 12/31/2015 LAC @ NOP W 33 9 3 18 16.7 0 4 0.0 3 4 75.0 1 4 5 12 2 0 3 0 13
p530
aVJamal Crawford LAC 12/31/2015 LAC @ NOP W 22 15 5 12 41.7 1 5 20.0 4 5 80.0 0 1 1 3 0 0 1 1 5
p531
aVWesley Johnson LAC 12/31/2015 LAC @ NOP W 27 7 3 10 30.0 1 7 14.3 0 0 - 0 3 3 2 1 0 0 2 3
p532
aVDeAndre Jordan LAC 12/31/2015 LAC @ NOP W 36 11 5 7 71.4 0 0 - 1 2 50.0 8 12 20 2 1 3 1 4 9
p533
aVJJ Redick LAC 12/31/2015 LAC @ NOP W 29 26 9 15 60.0 4 7 57.1 4 4 100.0 0 2 2 0 1 0 1 2 12
p534
aVLuc Mbah a Moute LAC 12/31/2015 LAC @ NOP W 26 4 2 6 33.3 0 1 0.0 0 1 0.0 1 3 4 1 1 2 1 1 1
p535
aVPablo Prigioni LAC 12/31/2015 LAC @ NOP W 15 5 2 4 50.0 1 2 50.0 0 0 - 1 0 1 2 1 0 2 1 -7
p536
aVAustin Rivers LAC 12/31/2015 LAC @ NOP W 21 9 3 9 33.3 2 5 40.0 1 1 100.0 0 1 1 1 0 0 1 0 -9
p537
aVCole Aldrich LAC 12/31/2015 LAC @ NOP W 11 4 2 3 66.7 0 0 - 0 0 - 1 3 4 1 1 0 1 2 -6
p538
aVPaul Pierce LAC 12/30/2015 LAC @ CHA W 21 13 4 9 44.4 3 7 42.9 2 2 100.0 0 5 5 2 1 1 0 3 5
p539
aVJJ Redick LAC 12/30/2015 LAC @ CHA W 27 26 8 14 57.1 5 6 83.3 5 5 100.0 0 1 1 0 0 0 1 3 7
p540
aVAustin Rivers LAC 12/30/2015 LAC @ CHA W 20 22 7 11 63.6 4 6 66.7 4 4 100.0 0 3 3 2 1 0 0 1 0
p541
aVCole Aldrich LAC 12/30/2015 LAC @ CHA W 14 7 3 6 50.0 0 0 - 1 1 100.0 0 3 3 2 2 2 1 4 -1
p542
aVWesley Johnson LAC 12/30/2015 LAC @ CHA W 21 2 1 4 25.0 0 3 0.0 0 2 0.0 1 0 1 2 2 1 0 4 -2
p543
aVLance Stephenson LAC 12/30/2015 LAC @ CHA W 2 0 0 0 - 0 0 - 0 0 - 0 0 0 0 0 0 0 1 -4
p544
aVDeAndre Jordan LAC 12/30/2015 LAC @ CHA W 33 13 4 4 100.0 0 0 - 5 10 50.0 3 10 13 1 0 1 1 3 7
p545
aVLuc Mbah a Moute LAC 12/30/2015 LAC @ CHA W 29 4 2 3 66.7 0 0 - 0 0 - 1 4 5 0 0 0 2 1 2
p546
aVChris Paul LAC 12/30/2015 LAC @ CHA W 30 19 4 13 30.8 0 3 0.0 11 12 91.7 3 2 5 11 1 1 5 2 -4
p547
aVJamal Crawford LAC 12/30/2015 LAC @ CHA W 25 11 2 5 40.0 2 4 50.0 5 5 100.0 0 3 3 3 0 1 1 1 6
p548
aVPablo Prigioni LAC 12/30/2015 LAC @ CHA W 18 5 2 2 100.0 1 1 100.0 0 0 - 0 0 0 4 0 0 1 3 9
p549
aVPablo Prigioni LAC 12/28/2015 LAC @ WAS W 21 2 1 1 100.0 0 0 - 0 0 - 0 2 2 1 1 0 1 2 7
p550
aVWesley Johnson LAC 12/28/2015 LAC @ WAS W 31 14 5 8 62.5 1 4 25.0 3 4 75.0 0 4 4 0 0 0 1 4 3
p551
aVJJ Redick LAC 12/28/2015 LAC @ WAS W 24 7 3 8 37.5 1 4 25.0 0 0 - 0 1 1 2 1 0 1 0 18
p552
aVLance Stephenson LAC 12/28/2015 LAC @ WAS W 4 0 0 1 0.0 0 0 - 0 0 - 0 0 0 1 0 0 0 0 -9
p553
aVCole Aldrich LAC 12/28/2015 LAC @ WAS W 20 13 3 9 33.3 0 0 - 7 8 87.5 0 6 6 3 4 1 1 3 9
p554
aVLuc Mbah a Moute LAC 12/28/2015 LAC @ WAS W 19 0 0 1 0.0 0 0 - 0 0 - 1 1 2 2 2 1 1 2 6
p555
aVBranden Dawson LAC 12/28/2015 LAC @ WAS W 3 0 0 1 0.0 0 0 - 0 0 - 0 0 0 0 0 1 0 2 -8
p556
aVDeAndre Jordan LAC 12/28/2015 LAC @ WAS W 28 15 6 6 100.0 0 0 - 3 6 50.0 1 12 13 2 0 1 3 1 8
p557
aVAustin Rivers LAC 12/28/2015 LAC @ WAS W 19 4 1 4 25.0 0 2 0.0 2 3 66.7 0 0 0 2 2 0 3 1 12
p558
aVJamal Crawford LAC 12/28/2015 LAC @ WAS W 27 21 9 12 75.0 3 5 60.0 0 0 - 0 0 0 2 0 0 2 1 15
p559
aVPaul Pierce LAC 12/28/2015 LAC @ WAS W 17 9 4 7 57.1 1 3 33.3 0 0 - 0 4 4 1 1 0 1 1 14
p560
aVChris Paul LAC 12/28/2015 LAC @ WAS W 27 23 9 20 45.0 1 5 20.0 4 4 100.0 1 4 5 7 0 0 2 1 10
p561
aVLuc Mbah a Moute LAC 12/26/2015 LAC @ UTA W 31 7 2 5 40.0 1 2 50.0 2 2 100.0 1 0 1 0 1 1 0 3 2
p562
aVPablo Prigioni LAC 12/26/2015 LAC @ UTA W 12 0 0 1 0.0 0 1 0.0 0 0 - 0 1 1 2 1 0 0 0 -2
p563
aVChris Paul LAC 12/26/2015 LAC @ UTA W 36 19 7 14 50.0 1 1 100.0 4 4 100.0 1 1 2 11 2 0 1 4 7
p564
aVJJ Redick LAC 12/26/2015 LAC @ UTA W 33 25 8 11 72.7 5 7 71.4 4 4 100.0 0 2 2 2 2 0 2 1 10
p565
aVWesley Johnson LAC 12/26/2015 LAC @ UTA W 15 9 4 8 50.0 1 4 25.0 0 0 - 0 2 2 1 1 0 2 2 -1
p566
aVJosh Smith LAC 12/26/2015 LAC @ UTA W 5 0 0 2 0.0 0 0 - 0 0 - 0 2 2 0 0 0 1 0 -6
p567
aVLance Stephenson LAC 12/26/2015 LAC @ UTA W 9 0 0 2 0.0 0 1 0.0 0 0 - 0 1 1 1 1 0 1 2 -6
p568
aVCole Aldrich LAC 12/26/2015 LAC @ UTA W 13 8 4 6 66.7 0 0 - 0 2 0.0 1 2 3 2 0 1 0 3 -2
p569
aVPaul Pierce LAC 12/26/2015 LAC @ UTA W 27 20 6 11 54.5 5 7 71.4 3 4 75.0 0 5 5 2 0 0 0 2 18
p570
aVDeAndre Jordan LAC 12/26/2015 LAC @ UTA W 35 14 6 9 66.7 0 0 - 2 3 66.7 4 9 13 2 1 4 3 2 3
p571
aVJamal Crawford LAC 12/26/2015 LAC @ UTA W 24 7 1 10 10.0 0 3 0.0 5 5 100.0 0 2 2 1 0 0 2 4 2
p572
aVPablo Prigioni LAC 12/25/2015 LAC @ LAL W 13 3 1 1 100.0 1 1 100.0 0 0 - 2 2 4 2 1 0 1 2 -7
p573
aVWesley Johnson LAC 12/25/2015 LAC @ LAL W 11 8 3 5 60.0 2 4 50.0 0 0 - 0 1 1 0 0 1 1 1 -3
p574
aVPaul Pierce LAC 12/25/2015 LAC @ LAL W 12 2 1 6 16.7 0 3 0.0 0 0 - 0 1 1 2 0 0 2 1 -11
p575
aVBlake Griffin LAC 12/25/2015 LAC @ LAL W 36 13 6 16 37.5 0 1 0.0 1 2 50.0 3 9 12 7 1 1 6 4 21
p576
aVLance Stephenson LAC 12/25/2015 LAC @ LAL W 15 3 1 5 20.0 1 2 50.0 0 0 - 0 1 1 1 0 0 0 1 -2
p577
aVLuc Mbah a Moute LAC 12/25/2015 LAC @ LAL W 22 6 2 3 66.7 2 3 66.7 0 0 - 0 1 1 0 1 0 1 0 15
p578
aVJJ Redick LAC 12/25/2015 LAC @ LAL W 28 14 5 12 41.7 3 8 37.5 1 2 50.0 0 3 3 2 1 0 1 2 15
p579
aVCole Aldrich LAC 12/25/2015 LAC @ LAL W 11 0 0 2 0.0 0 0 - 0 0 - 0 0 0 1 1 0 1 3 -13
p580
aVJamal Crawford LAC 12/25/2015 LAC @ LAL W 20 13 4 10 40.0 1 1 100.0 4 4 100.0 0 3 3 0 1 0 1 1 -5
p581
aVDeAndre Jordan LAC 12/25/2015 LAC @ LAL W 37 9 4 6 66.7 0 0 - 1 2 50.0 3 11 14 1 1 1 1 3 23
p582
aVChris Paul LAC 12/25/2015 LAC @ LAL W 35 23 11 19 57.9 0 3 0.0 1 1 100.0 0 5 5 6 3 0 1 2 17
p583
aVWesley Johnson LAC 12/21/2015 LAC vs. OKC L 12 2 1 4 25.0 0 2 0.0 0 0 - 1 0 1 1 0 0 0 0 7
p584
aVPablo Prigioni LAC 12/21/2015 LAC vs. OKC L 12 2 1 2 50.0 0 1 0.0 0 0 - 1 0 1 2 1 0 0 0 3
p585
aVLance Stephenson LAC 12/21/2015 LAC vs. OKC L 20 10 5 7 71.4 0 2 0.0 0 0 - 0 4 4 1 1 0 4 3 -2
p586
aVLuc Mbah a Moute LAC 12/21/2015 LAC vs. OKC L 27 2 1 4 25.0 0 1 0.0 0 0 - 4 4 8 0 0 0 2 1 1
p587
aVCole Aldrich LAC 12/21/2015 LAC vs. OKC L 14 5 2 3 66.7 0 0 - 1 2 50.0 0 4 4 0 3 2 1 0 6
p588
aVDeAndre Jordan LAC 12/21/2015 LAC vs. OKC L 34 8 3 3 100.0 0 0 - 2 4 50.0 2 8 10 0 0 1 1 1 -9
p589
aVChris Paul LAC 12/21/2015 LAC vs. OKC L 36 32 11 19 57.9 4 6 66.7 6 6 100.0 1 4 5 10 2 0 2 3 -4
p590
aVJamal Crawford LAC 12/21/2015 LAC vs. OKC L 24 8 4 10 40.0 0 2 0.0 0 0 - 1 0 1 0 0 0 0 3 0
p591
aVBlake Griffin LAC 12/21/2015 LAC vs. OKC L 36 15 7 21 33.3 0 1 0.0 1 2 50.0 0 7 7 5 0 0 1 3 -5
p592
aVJJ Redick LAC 12/21/2015 LAC vs. OKC L 25 15 6 14 42.9 3 7 42.9 0 0 - 0 4 4 2 0 0 2 1 -2
p593
aVChris Paul LAC 12/19/2015 LAC @ HOU L 31 12 3 13 23.1 2 7 28.6 4 5 80.0 0 1 1 10 7 0 2 2 -1
p594
aVDeAndre Jordan LAC 12/19/2015 LAC @ HOU L 30 16 6 7 85.7 0 0 - 4 12 33.3 2 9 11 0 0 4 1 3 -9
p595
aVJamal Crawford LAC 12/19/2015 LAC @ HOU L 31 4 1 8 12.5 1 4 25.0 1 2 50.0 0 1 1 1 0 1 1 4 7
p596
aVCole Aldrich LAC 12/19/2015 LAC @ HOU L 6 2 1 1 100.0 0 0 - 0 0 - 2 4 6 1 0 0 1 0 8
p597
aVLuc Mbah a Moute LAC 12/19/2015 LAC @ HOU L 5 0 0 2 0.0 0 2 0.0 0 0 - 0 0 0 0 0 0 0 3 -6
p598
aVJosh Smith LAC 12/19/2015 LAC @ HOU L 6 6 2 7 28.6 0 3 0.0 2 2 100.0 2 0 2 0 0 0 0 0 -9
p599
aVJJ Redick LAC 12/19/2015 LAC @ HOU L 27 19 6 14 42.9 4 9 44.4 3 3 100.0 0 2 2 0 1 0 0 2 -5
p600
aVAustin Rivers LAC 12/19/2015 LAC @ HOU L 16 2 1 5 20.0 0 2 0.0 0 0 - 0 1 1 1 1 0 1 4 -13
p601
aVLance Stephenson LAC 12/19/2015 LAC @ HOU L 20 0 0 2 0.0 0 1 0.0 0 0 - 1 2 3 0 0 0 3 6 -4
p602
aVBlake Griffin LAC 12/19/2015 LAC @ HOU L 36 22 9 13 69.2 0 0 - 4 5 80.0 0 8 8 6 1 0 2 5 -15
p603
aVPablo Prigioni LAC 12/19/2015 LAC @ HOU L 6 6 2 3 66.7 2 3 66.7 0 0 - 0 2 2 2 0 0 0 3 8
p604
aVPaul Pierce LAC 12/19/2015 LAC @ HOU L 16 3 1 4 25.0 1 3 33.3 0 0 - 0 1 1 0 0 0 0 4 -10
p605
aVWesley Johnson LAC 12/19/2015 LAC @ HOU L 9 5 2 7 28.6 1 4 25.0 0 0 - 0 0 0 0 0 1 1 0 -1
p606
aVJosh Smith LAC 12/18/2015 LAC @ SAS L 12 6 3 6 50.0 0 2 0.0 0 0 - 0 2 2 1 1 2 3 2 -4
p607
aVChris Paul LAC 12/18/2015 LAC @ SAS L 34 27 8 14 57.1 2 5 40.0 9 10 90.0 1 1 2 10 3 0 2 5 6
p608
aVBlake Griffin LAC 12/18/2015 LAC @ SAS L 40 25 10 19 52.6 2 2 100.0 3 4 75.0 0 5 5 5 1 0 1 3 8
p609
aVJamal Crawford LAC 12/18/2015 LAC @ SAS L 17 0 0 3 0.0 0 1 0.0 0 0 - 0 1 1 3 0 1 0 2 -10
p610
aVPaul Pierce LAC 12/18/2015 LAC @ SAS L 8 3 1 3 33.3 1 1 100.0 0 0 - 1 1 2 0 0 1 0 2 -14
p611
aVAustin Rivers LAC 12/18/2015 LAC @ SAS L 14 4 2 4 50.0 0 1 0.0 0 0 - 0 2 2 3 0 0 1 0 -14
p612
aVWesley Johnson LAC 12/18/2015 LAC @ SAS L 15 7 2 4 50.0 1 3 33.3 2 2 100.0 0 3 3 0 0 2 1 1 -7
p613
aVLuc Mbah a Moute LAC 12/18/2015 LAC @ SAS L 22 5 1 3 33.3 1 2 50.0 2 2 100.0 0 1 1 0 1 0 1 2 5
p614
aVDeAndre Jordan LAC 12/18/2015 LAC @ SAS L 35 16 4 6 66.7 0 0 - 8 20 40.0 4 13 17 0 0 2 0 3 -4
p615
aVJJ Redick LAC 12/18/2015 LAC @ SAS L 33 14 5 9 55.6 3 6 50.0 1 2 50.0 0 2 2 1 0 0 0 1 2
p616
aVLance Stephenson LAC 12/18/2015 LAC @ SAS L 10 0 0 1 0.0 0 1 0.0 0 0 - 0 0 0 0 0 0 1 1 -8
p617
aVDeAndre Jordan LAC 12/16/2015 LAC vs. MIL W 18 9 4 4 100.0 0 0 - 1 1 100.0 3 5 8 0 0 2 3 2 8
p618
aVJJ Redick LAC 12/16/2015 LAC vs. MIL W 27 19 5 11 45.5 3 6 50.0 6 6 100.0 0 0 0 3 1 0 1 0 16
p619
aVAustin Rivers LAC 12/16/2015 LAC vs. MIL W 19 7 2 6 33.3 1 1 100.0 2 2 100.0 0 2 2 1 0 0 1 1 4
p620
aVPaul Pierce LAC 12/16/2015 LAC vs. MIL W 19 6 3 7 42.9 0 3 0.0 0 0 - 0 3 3 2 0 0 1 0 -1
p621
aVJamal Crawford LAC 12/16/2015 LAC vs. MIL W 21 2 0 3 0.0 0 1 0.0 2 2 100.0 0 0 0 1 1 0 1 1 3
p622
aVLuc Mbah a Moute LAC 12/16/2015 LAC vs. MIL W 19 7 3 5 60.0 1 1 100.0 0 0 - 3 3 6 1 0 0 1 0 7
p623
aVWesley Johnson LAC 12/16/2015 LAC vs. MIL W 13 0 0 3 0.0 0 2 0.0 0 0 - 0 1 1 0 0 1 1 2 2
p624
aVLance Stephenson LAC 12/16/2015 LAC vs. MIL W 18 4 2 2 100.0 0 0 - 0 0 - 1 1 2 4 1 0 0 3 -1
p625
aVChris Paul LAC 12/16/2015 LAC vs. MIL W 33 21 7 12 58.3 3 4 75.0 4 4 100.0 0 6 6 8 2 0 4 1 14
p626
aVBlake Griffin LAC 12/16/2015 LAC vs. MIL W 34 15 5 13 38.5 0 0 - 5 7 71.4 1 7 8 5 0 1 0 0 17
p627
aVJosh Smith LAC 12/16/2015 LAC vs. MIL W 18 13 5 9 55.6 3 3 100.0 0 2 0.0 2 2 4 0 2 0 1 0 -4
p628
aVChris Paul LAC 12/14/2015 LAC @ DET W 38 13 6 16 37.5 0 2 0.0 1 1 100.0 1 4 5 12 2 0 3 5 12
p629
aVJosh Smith LAC 12/14/2015 LAC @ DET W 9 2 1 6 16.7 0 0 - 0 0 - 1 0 1 2 1 0 0 2 -9
p630
aVWesley Johnson LAC 12/14/2015 LAC @ DET W 30 5 2 6 33.3 1 3 33.3 0 0 - 1 3 4 0 3 0 1 3 -10
p631
aVPaul Pierce LAC 12/14/2015 LAC @ DET W 11 2 0 2 0.0 0 1 0.0 2 2 100.0 0 1 1 0 1 0 0 2 -4
p632
aVJamal Crawford LAC 12/14/2015 LAC @ DET W 26 14 5 8 62.5 1 3 33.3 3 3 100.0 0 2 2 4 1 0 1 0 -3
p633
aVDeAndre Jordan LAC 12/14/2015 LAC @ DET W 43 7 3 5 60.0 0 0 - 1 3 33.3 6 8 14 1 0 3 1 4 6
p634
aVJJ Redick LAC 12/14/2015 LAC @ DET W 32 24 10 17 58.8 4 8 50.0 0 0 - 0 3 3 3 0 0 2 2 12
p635
aVLuc Mbah a Moute LAC 12/14/2015 LAC @ DET W 18 2 1 2 50.0 0 0 - 0 0 - 1 3 4 0 1 0 0 0 5
p636
aVBlake Griffin LAC 12/14/2015 LAC @ DET W 43 34 15 30 50.0 0 0 - 4 6 66.7 0 5 5 7 0 0 2 2 11
p637
aVAustin Rivers LAC 12/14/2015 LAC @ DET W 15 2 1 5 20.0 0 2 0.0 0 0 - 0 0 0 0 0 1 0 2 -10
p638
aVChris Paul LAC 12/12/2015 LAC @ BKN W 31 15 6 15 40.0 0 4 0.0 3 3 100.0 0 2 2 14 3 0 3 2 1
p639
aVJosh Smith LAC 12/12/2015 LAC @ BKN W 12 6 3 9 33.3 0 1 0.0 0 0 - 2 3 5 0 2 0 1 2 4
p640
aVJamal Crawford LAC 12/12/2015 LAC @ BKN W 25 9 4 8 50.0 1 4 25.0 0 0 - 1 2 3 3 2 0 2 3 -3
p641
aVJJ Redick LAC 12/12/2015 LAC @ BKN W 27 21 6 11 54.5 4 6 66.7 5 7 71.4 0 2 2 3 0 0 1 3 3
p642
aVLuc Mbah a Moute LAC 12/12/2015 LAC @ BKN W 16 0 0 0 - 0 0 - 0 0 - 1 1 2 0 0 0 0 1 4
p643
aVDeAndre Jordan LAC 12/12/2015 LAC @ BKN W 34 12 5 6 83.3 0 0 - 2 6 33.3 2 10 12 1 2 0 0 2 5
p644
aVPaul Pierce LAC 12/12/2015 LAC @ BKN W 13 10 4 6 66.7 2 3 66.7 0 0 - 0 0 0 0 0 0 1 2 8
p645
aVBlake Griffin LAC 12/12/2015 LAC @ BKN W 35 21 10 19 52.6 0 1 0.0 1 2 50.0 1 8 9 4 1 0 3 0 -5
p646
aVLance Stephenson LAC 12/12/2015 LAC @ BKN W 12 0 0 2 0.0 0 1 0.0 0 0 - 0 1 1 2 0 0 1 2 1
p647
aVWesley Johnson LAC 12/12/2015 LAC @ BKN W 18 5 2 5 40.0 1 3 33.3 0 0 - 0 1 1 0 0 0 0 1 3
p648
aVAustin Rivers LAC 12/12/2015 LAC @ BKN W 17 6 3 5 60.0 0 1 0.0 0 0 - 0 3 3 1 2 0 0 3 4
p649
aVJJ Redick LAC 12/10/2015 LAC @ CHI L 29 8 2 11 18.2 0 2 0.0 4 5 80.0 0 2 2 4 0 0 0 0 8
p650
aVBlake Griffin LAC 12/10/2015 LAC @ CHI L 25 18 7 14 50.0 0 1 0.0 4 4 100.0 1 10 11 2 0 2 2 3 -4
p651
aVAustin Rivers LAC 12/10/2015 LAC @ CHI L 17 3 1 6 16.7 1 2 50.0 0 0 - 2 3 5 1 0 0 1 1 -11
p652
aVDeAndre Jordan LAC 12/10/2015 LAC @ CHI L 37 10 4 7 57.1 0 0 - 2 3 66.7 6 8 14 0 2 1 0 2 3
p653
aVLuc Mbah a Moute LAC 12/10/2015 LAC @ CHI L 21 5 2 9 22.2 1 2 50.0 0 0 - 4 2 6 1 0 0 1 2 2
p654
aVWesley Johnson LAC 12/10/2015 LAC @ CHI L 15 9 3 6 50.0 3 4 75.0 0 0 - 2 2 4 0 0 0 0 0 -6
p655
aVLance Stephenson LAC 12/10/2015 LAC @ CHI L 18 5 2 4 50.0 1 2 50.0 0 0 - 0 3 3 4 1 0 1 2 8
p656
aVJamal Crawford LAC 12/10/2015 LAC @ CHI L 22 2 1 5 20.0 0 1 0.0 0 0 - 0 0 0 2 0 0 1 0 -11
p657
aVChris Paul LAC 12/10/2015 LAC @ CHI L 31 12 5 16 31.3 2 4 50.0 0 0 - 0 0 0 5 1 0 4 3 8
p658
aVJosh Smith LAC 12/10/2015 LAC @ CHI L 19 8 3 8 37.5 2 3 66.7 0 0 - 0 7 7 3 0 1 3 2 0
p659
aVPaul Pierce LAC 12/10/2015 LAC @ CHI L 5 0 0 2 0.0 0 1 0.0 0 0 - 0 0 0 0 0 0 0 0 -12
p660
aVAustin Rivers LAC 12/09/2015 LAC @ MIL W 10 3 1 1 100.0 0 0 - 1 1 100.0 0 1 1 1 0 0 1 3 -11
p661
aVDeAndre Jordan LAC 12/09/2015 LAC @ MIL W 39 9 2 2 100.0 0 0 - 5 12 41.7 5 14 19 2 0 3 3 4 20
p662
aVPaul Pierce LAC 12/09/2015 LAC @ MIL W 6 1 0 1 0.0 0 1 0.0 1 2 50.0 0 1 1 0 0 0 0 1 -12
p663
aVJJ Redick LAC 12/09/2015 LAC @ MIL W 33 31 11 18 61.1 6 9 66.7 3 4 75.0 0 3 3 2 0 0 2 1 24
p664
aVJamal Crawford LAC 12/09/2015 LAC @ MIL W 22 8 3 11 27.3 2 5 40.0 0 0 - 1 0 1 0 0 0 1 0 -1
p665
aVBlake Griffin LAC 12/09/2015 LAC @ MIL W 40 21 8 18 44.4 0 0 - 5 8 62.5 2 12 14 4 2 1 3 2 23
p666
aVLance Stephenson LAC 12/09/2015 LAC @ MIL W 7 0 0 0 - 0 0 - 0 0 - 0 0 0 0 0 0 1 1 -12
p667
aVJosh Smith LAC 12/09/2015 LAC @ MIL W 12 9 2 4 50.0 2 3 66.7 3 4 75.0 2 2 4 0 0 2 0 0 -1
p668
aVChris Paul LAC 12/09/2015 LAC @ MIL W 38 18 7 13 53.8 2 4 50.0 2 2 100.0 0 3 3 18 0 0 2 4 25
p669
aVWesley Johnson LAC 12/09/2015 LAC @ MIL W 19 7 3 9 33.3 0 5 0.0 1 3 33.3 0 3 3 0 4 2 0 0 10
p670
aVLuc Mbah a Moute LAC 12/09/2015 LAC @ MIL W 15 2 1 4 25.0 0 1 0.0 0 0 - 2 0 2 0 1 0 1 0 5
p671
aVLance Stephenson LAC 12/07/2015 LAC @ MIN W 13 3 1 2 50.0 1 2 50.0 0 0 - 0 1 1 0 1 0 1 3 -4
p672
aVJJ Redick LAC 12/07/2015 LAC @ MIN W 22 13 1 9 11.1 0 5 0.0 11 11 100.0 0 3 3 0 0 0 2 0 13
p673
aVJamal Crawford LAC 12/07/2015 LAC @ MIN W 27 18 5 11 45.5 4 6 66.7 4 4 100.0 0 3 3 7 1 0 2 2 13
p674
aVAustin Rivers LAC 12/07/2015 LAC @ MIN W 17 7 3 5 60.0 0 2 0.0 1 1 100.0 1 3 4 3 0 0 1 2 -6
p675
aVJosh Smith LAC 12/07/2015 LAC @ MIN W 15 8 4 7 57.1 0 1 0.0 0 0 - 1 2 3 0 0 3 0 3 -6
p676
aVBlake Griffin LAC 12/07/2015 LAC @ MIN W 37 16 7 17 41.2 0 1 0.0 2 2 100.0 3 8 11 5 1 0 3 4 8
p677
aVDeAndre Jordan LAC 12/07/2015 LAC @ MIN W 34 20 8 9 88.9 0 0 - 4 6 66.7 6 6 12 0 2 4 1 4 -2
p678
aVLuc Mbah a Moute LAC 12/07/2015 LAC @ MIN W 16 1 0 4 0.0 0 1 0.0 1 2 50.0 1 2 3 0 0 0 0 2 -11
p679
aVChris Paul LAC 12/07/2015 LAC @ MIN W 32 14 5 14 35.7 1 2 50.0 3 3 100.0 0 1 1 5 4 0 5 4 7
p680
aVPaul Pierce LAC 12/07/2015 LAC @ MIN W 6 0 0 2 0.0 0 1 0.0 0 0 - 0 0 0 0 0 0 2 0 -4
p681
aVWesley Johnson LAC 12/07/2015 LAC @ MIN W 22 10 4 6 66.7 2 4 50.0 0 0 - 1 1 2 1 1 2 0 2 12
p682
aVPablo Prigioni LAC 12/05/2015 LAC vs. ORL W 19 0 0 1 0.0 0 1 0.0 0 0 - 1 1 2 4 0 0 0 1 8
p683
aVBlake Griffin LAC 12/05/2015 LAC vs. ORL W 39 28 11 22 50.0 0 0 - 6 8 75.0 2 11 13 7 0 0 4 0 2
p684
aVLance Stephenson LAC 12/05/2015 LAC vs. ORL W 18 0 0 2 0.0 0 1 0.0 0 0 - 0 2 2 1 2 0 0 2 -7
p685
aVPaul Pierce LAC 12/05/2015 LAC vs. ORL W 9 0 0 3 0.0 0 2 0.0 0 0 - 0 1 1 0 1 0 2 2 0
p686
aVDeAndre Jordan LAC 12/05/2015 LAC vs. ORL W 37 15 7 10 70.0 0 0 - 1 3 33.3 5 9 14 0 0 1 0 0 7
p687
aVJamal Crawford LAC 12/05/2015 LAC vs. ORL W 31 32 10 19 52.6 6 9 66.7 6 7 85.7 0 1 1 5 0 0 1 3 7
p688
aVLuc Mbah a Moute LAC 12/05/2015 LAC vs. ORL W 11 0 0 2 0.0 0 2 0.0 0 0 - 0 0 0 0 0 0 1 1 -8
p689
aVAustin Rivers LAC 12/05/2015 LAC vs. ORL W 29 5 2 7 28.6 0 2 0.0 1 2 50.0 1 3 4 4 0 0 4 2 -6
p690
aVJosh Smith LAC 12/05/2015 LAC vs. ORL W 11 2 1 4 25.0 0 2 0.0 0 0 - 0 1 1 2 0 0 1 2 -5
p691
aVWesley Johnson LAC 12/05/2015 LAC vs. ORL W 36 21 6 12 50.0 6 12 50.0 3 5 60.0 1 6 7 2 2 1 1 2 12
p692
aVPablo Prigioni LAC 12/02/2015 LAC vs. IND L 13 4 1 3 33.3 0 1 0.0 2 2 100.0 0 1 1 1 1 0 0 1 -8
p693
aVJamal Crawford LAC 12/02/2015 LAC vs. IND L 37 16 5 16 31.3 1 8 12.5 5 5 100.0 1 5 6 3 0 0 4 5 -10
p694
aVDeAndre Jordan LAC 12/02/2015 LAC vs. IND L 28 2 0 4 0.0 0 0 - 2 8 25.0 6 9 15 0 0 0 2 4 -7
p695
aVPaul Pierce LAC 12/02/2015 LAC vs. IND L 14 5 1 3 33.3 1 3 33.3 2 2 100.0 0 2 2 1 0 0 0 1 -2
p696
aVJJ Redick LAC 12/02/2015 LAC vs. IND L 0 2 0 0 - 0 0 - 2 2 100.0 0 0 0 0 0 0 0 0 2
p697
aVCJ Wilcox LAC 12/02/2015 LAC vs. IND L 0 0 0 0 - 0 0 - 0 0 - 0 0 0 0 0 0 0 1 0
p698
aVBlake Griffin LAC 12/02/2015 LAC vs. IND L 36 19 6 18 33.3 0 0 - 7 14 50.0 1 3 4 6 0 0 4 4 -16
p699
aVLuc Mbah a Moute LAC 12/02/2015 LAC vs. IND L 21 2 1 1 100.0 0 0 - 0 0 - 0 1 1 0 0 0 0 4 -5
p700
aVJosh Smith LAC 12/02/2015 LAC vs. IND L 17 9 2 7 28.6 0 4 0.0 5 6 83.3 1 4 5 4 1 2 1 2 -4
p701
aVWesley Johnson LAC 12/02/2015 LAC vs. IND L 9 4 2 5 40.0 0 3 0.0 0 0 - 0 1 1 0 1 0 0 1 2
p702
aVAustin Rivers LAC 12/02/2015 LAC vs. IND L 35 9 4 11 36.4 1 4 25.0 0 0 - 0 2 2 1 0 0 2 3 -4
p703
aVLance Stephenson LAC 12/02/2015 LAC vs. IND L 28 19 8 11 72.7 3 4 75.0 0 0 - 1 2 3 3 1 0 2 5 -8
p704
aVWesley Johnson LAC 11/30/2015 LAC vs. POR W 5 3 1 1 100.0 1 1 100.0 0 0 - 0 0 0 0 0 0 0 1 6
p705
aVJosh Smith LAC 11/30/2015 LAC vs. POR W 14 8 3 5 60.0 2 2 100.0 0 2 0.0 2 1 3 2 0 1 0 3 -6
p706
aVBlake Griffin LAC 11/30/2015 LAC vs. POR W 32 23 8 19 42.1 0 0 - 7 10 70.0 1 7 8 6 1 1 2 4 19
p707
aVDeAndre Jordan LAC 11/30/2015 LAC vs. POR W 33 18 3 6 50.0 0 0 - 12 34 35.3 9 15 24 1 1 2 0 4 21
p708
aVAustin Rivers LAC 11/30/2015 LAC vs. POR W 25 6 2 8 25.0 0 2 0.0 2 2 100.0 1 0 1 0 1 1 1 3 -1
p709
aVLance Stephenson LAC 11/30/2015 LAC vs. POR W 17 2 1 2 50.0 0 1 0.0 0 0 - 0 10 10 3 0 0 2 0 -6
p710
aVLuc Mbah a Moute LAC 11/30/2015 LAC vs. POR W 24 4 2 3 66.7 0 1 0.0 0 0 - 3 2 5 1 0 0 0 0 7
p711
aVChris Paul LAC 11/30/2015 LAC vs. POR W 24 10 3 11 27.3 0 1 0.0 4 4 100.0 2 1 3 6 2 0 4 1 13
p712
aVJJ Redick LAC 11/30/2015 LAC vs. POR W 30 14 5 14 35.7 4 7 57.1 0 0 - 0 0 0 3 1 0 1 2 24
p713
aVJamal Crawford LAC 11/30/2015 LAC vs. POR W 23 11 4 10 40.0 0 1 0.0 3 4 75.0 0 0 0 4 1 0 0 2 0
p714
aVPaul Pierce LAC 11/30/2015 LAC vs. POR W 14 3 1 6 16.7 1 3 33.3 0 0 - 0 1 1 0 0 0 0 2 -2
p715
aVAustin Rivers LAC 11/29/2015 LAC vs. MIN W 16 4 2 5 40.0 0 2 0.0 0 0 - 2 0 2 0 0 0 0 2 1
p716
aVLuc Mbah a Moute LAC 11/29/2015 LAC vs. MIN W 23 7 2 6 33.3 2 3 66.7 1 2 50.0 2 1 3 1 1 1 0 2 -2
p717
aVLance Stephenson LAC 11/29/2015 LAC vs. MIN W 20 9 3 6 50.0 1 1 100.0 2 2 100.0 2 4 6 3 1 0 0 2 7
p718
aVJamal Crawford LAC 11/29/2015 LAC vs. MIN W 15 0 0 4 0.0 0 2 0.0 0 0 - 0 0 0 2 0 0 3 1 -1
p719
aVJJ Redick LAC 11/29/2015 LAC vs. MIN W 33 18 7 12 58.3 2 6 33.3 2 2 100.0 0 2 2 0 0 0 2 1 7
p720
aVDeAndre Jordan LAC 11/29/2015 LAC vs. MIN W 33 9 3 3 100.0 0 0 - 3 12 25.0 1 8 9 1 1 1 0 4 5
p721
aVPaul Pierce LAC 11/29/2015 LAC vs. MIN W 10 10 4 8 50.0 2 6 33.3 0 0 - 0 1 1 0 0 0 0 2 2
p722
aVJosh Smith LAC 11/29/2015 LAC vs. MIN W 16 4 2 3 66.7 0 0 - 0 0 - 0 5 5 0 0 1 1 2 1
p723
aVChris Paul LAC 11/29/2015 LAC vs. MIN W 32 20 7 12 58.3 0 1 0.0 6 6 100.0 0 2 2 9 0 0 4 2 7
p724
aVBlake Griffin LAC 11/29/2015 LAC vs. MIN W 37 26 9 16 56.3 1 1 100.0 7 9 77.8 0 8 8 8 0 2 3 3 8
p725
aVWesley Johnson LAC 11/29/2015 LAC vs. MIN W 4 0 0 0 - 0 0 - 0 0 - 0 1 1 0 0 0 0 0 5
p726
aVChris Paul LAC 11/27/2015 LAC vs. NOP W 29 17 5 11 45.5 1 4 25.0 6 7 85.7 0 5 5 8 2 0 0 1 26
p727
aVJamal Crawford LAC 11/27/2015 LAC vs. NOP W 27 9 2 8 25.0 1 3 33.3 4 4 100.0 0 3 3 0 1 0 3 0 7
p728
aVWesley Johnson LAC 11/27/2015 LAC vs. NOP W 14 2 1 4 25.0 0 1 0.0 0 0 - 0 2 2 0 0 0 0 4 -2
p729
aVCole Aldrich LAC 11/27/2015 LAC vs. NOP W 2 1 0 0 - 0 0 - 1 2 50.0 0 1 1 0 0 0 1 0 -2
p730
aVJJ Redick LAC 11/27/2015 LAC vs. NOP W 25 20 8 14 57.1 3 3 100.0 1 2 50.0 0 1 1 2 1 0 0 3 21
p731
aVAustin Rivers LAC 11/27/2015 LAC vs. NOP W 24 17 7 11 63.6 1 4 25.0 2 2 100.0 0 1 1 2 1 0 1 1 0
p732
aVJosh Smith LAC 11/27/2015 LAC vs. NOP W 22 5 2 5 40.0 0 1 0.0 1 2 50.0 2 10 12 4 0 1 4 2 2
p733
aVPaul Pierce LAC 11/27/2015 LAC vs. NOP W 13 0 0 2 0.0 0 1 0.0 0 0 - 0 2 2 0 0 3 0 1 -2
p734
aVDeAndre Jordan LAC 11/27/2015 LAC vs. NOP W 25 8 4 5 80.0 0 0 - 0 0 - 2 9 11 1 0 1 0 4 21
p735
aVLuc Mbah a Moute LAC 11/27/2015 LAC vs. NOP W 6 2 1 1 100.0 0 0 - 0 0 - 0 0 0 0 0 2 0 0 -3
p736
aVBlake Griffin LAC 11/27/2015 LAC vs. NOP W 29 20 7 15 46.7 0 0 - 6 7 85.7 1 5 6 6 1 0 2 3 26
p737
aVLance Stephenson LAC 11/27/2015 LAC vs. NOP W 26 10 3 7 42.9 1 2 50.0 3 4 75.0 0 5 5 4 0 0 2 1 11
p738
aVJosh Smith LAC 11/25/2015 LAC vs. UTA L 17 10 4 7 57.1 1 1 100.0 1 2 50.0 0 0 0 1 1 1 0 2 -3
p739
aVWesley Johnson LAC 11/25/2015 LAC vs. UTA L 20 0 0 2 0.0 0 1 0.0 0 0 - 0 1 1 0 0 0 3 3 -2
p740
aVLuc Mbah a Moute LAC 11/25/2015 LAC vs. UTA L 1 0 0 0 - 0 0 - 0 0 - 0 0 0 0 0 0 0 1 3
p741
aVBlake Griffin LAC 11/25/2015 LAC vs. UTA L 39 40 18 23 78.3 0 0 - 4 5 80.0 1 11 12 3 0 2 3 2 -3
p742
aVLance Stephenson LAC 11/25/2015 LAC vs. UTA L 12 0 0 1 0.0 0 0 - 0 0 - 1 1 2 0 1 0 1 1 -8
p743
aVChris Paul LAC 11/25/2015 LAC vs. UTA L 35 24 10 15 66.7 2 2 100.0 2 2 100.0 2 3 5 8 3 0 2 3 -6
p744
aVJamal Crawford LAC 11/25/2015 LAC vs. UTA L 30 3 1 9 11.1 0 2 0.0 1 2 50.0 0 1 1 2 0 0 2 1 -2
p745
aVJJ Redick LAC 11/25/2015 LAC vs. UTA L 21 3 1 6 16.7 1 5 20.0 0 0 - 0 0 0 1 1 0 3 5 -14
p746
aVAustin Rivers LAC 11/25/2015 LAC vs. UTA L 26 3 1 3 33.3 0 0 - 1 2 50.0 1 2 3 3 2 0 1 0 -1
p747
aVDeAndre Jordan LAC 11/25/2015 LAC vs. UTA L 32 8 3 7 42.9 0 0 - 2 4 50.0 6 5 11 0 3 4 3 3 -11
p748
aVPaul Pierce LAC 11/25/2015 LAC vs. UTA L 9 0 0 2 0.0 0 1 0.0 0 0 - 0 0 0 0 0 0 1 1 -8
p749
aVBlake Griffin LAC 11/24/2015 LAC @ DEN W 33 18 7 20 35.0 1 1 100.0 3 4 75.0 4 6 10 4 1 1 1 2 12
p750
aVJosh Smith LAC 11/24/2015 LAC @ DEN W 18 8 3 7 42.9 0 2 0.0 2 4 50.0 3 3 6 2 1 1 3 2 -2
p751
aVLance Stephenson LAC 11/24/2015 LAC @ DEN W 15 4 1 1 100.0 0 0 - 2 2 100.0 1 1 2 0 1 0 1 1 5
p752
aVPaul Pierce LAC 11/24/2015 LAC @ DEN W 18 4 2 5 40.0 0 3 0.0 0 0 - 0 1 1 0 1 0 1 2 1
p753
aVWesley Johnson LAC 11/24/2015 LAC @ DEN W 25 11 4 6 66.7 3 4 75.0 0 0 - 0 2 2 1 0 1 0 5 8
p754
aVDeAndre Jordan LAC 11/24/2015 LAC @ DEN W 27 18 3 4 75.0 0 0 - 12 25 48.0 3 8 11 3 1 4 0 4 18
p755
aVLuc Mbah a Moute LAC 11/24/2015 LAC @ DEN W 2 0 0 0 - 0 0 - 0 0 - 0 1 1 0 0 1 0 0 -1
p756
aVJamal Crawford LAC 11/24/2015 LAC @ DEN W 24 15 4 9 44.4 2 5 40.0 5 5 100.0 0 3 3 2 1 0 0 1 7
p757
aVCole Aldrich LAC 11/24/2015 LAC @ DEN W 2 0 0 0 - 0 0 - 0 0 - 0 0 0 0 0 0 0 1 -1
p758
aVJJ Redick LAC 11/24/2015 LAC @ DEN W 28 16 6 10 60.0 2 2 100.0 2 3 66.7 0 2 2 2 0 0 1 2 21
p759
aVAustin Rivers LAC 11/24/2015 LAC @ DEN W 20 2 1 6 16.7 0 3 0.0 0 0 - 0 3 3 0 1 0 0 4 -4
p760
aVChris Paul LAC 11/24/2015 LAC @ DEN W 28 15 6 11 54.5 0 0 - 3 4 75.0 0 2 2 10 3 0 0 1 21
p761
aVJamal Crawford LAC 11/22/2015 LAC vs. TOR L 29 8 1 9 11.1 0 6 0.0 6 7 85.7 0 0 0 2 1 0 1 1 1
p762
aVChris Paul LAC 11/22/2015 LAC vs. TOR L 33 13 5 13 38.5 1 4 25.0 2 2 100.0 2 3 5 11 2 0 3 5 -15
p763
aVLuc Mbah a Moute LAC 11/22/2015 LAC vs. TOR L 4 2 1 1 100.0 0 0 - 0 0 - 1 0 1 0 1 0 0 2 -8
p764
aVWesley Johnson LAC 11/22/2015 LAC vs. TOR L 18 8 3 6 50.0 2 5 40.0 0 0 - 0 0 0 0 0 2 1 2 0
p765
aVDeAndre Jordan LAC 11/22/2015 LAC vs. TOR L 39 13 6 9 66.7 0 0 - 1 4 25.0 3 12 15 1 1 5 1 1 -2
p766
aVAustin Rivers LAC 11/22/2015 LAC vs. TOR L 19 6 3 7 42.9 0 3 0.0 0 0 - 1 1 2 1 0 0 1 3 -2
p767
aVPaul Pierce LAC 11/22/2015 LAC vs. TOR L 19 2 0 2 0.0 0 2 0.0 2 2 100.0 0 1 1 0 0 0 2 2 -14
p768
aVLance Stephenson LAC 11/22/2015 LAC vs. TOR L 5 0 0 0 - 0 0 - 0 0 - 0 0 0 0 1 0 0 3 -11
p769
aVBlake Griffin LAC 11/22/2015 LAC vs. TOR L 29 9 4 10 40.0 1 3 33.3 0 0 - 2 4 6 4 2 0 6 4 -3
p770
aVJosh Smith LAC 11/22/2015 LAC vs. TOR L 15 2 1 4 25.0 0 3 0.0 0 0 - 2 6 8 2 1 2 2 3 8
p771
aVJJ Redick LAC 11/22/2015 LAC vs. TOR L 29 17 5 13 38.5 3 6 50.0 4 5 80.0 1 3 4 0 0 0 2 4 -9
p772
aVJJ Redick LAC 11/20/2015 LAC @ POR L 26 7 3 12 25.0 1 5 20.0 0 1 0.0 0 1 1 2 2 0 1 3 -13
p773
aVDeAndre Jordan LAC 11/20/2015 LAC @ POR L 34 12 5 6 83.3 0 0 - 2 6 33.3 5 10 15 1 0 2 1 3 -14
p774
aVChris Paul LAC 11/20/2015 LAC @ POR L 29 11 4 12 33.3 1 4 25.0 2 2 100.0 0 2 2 8 1 0 2 3 -18
p775
aVBlake Griffin LAC 11/20/2015 LAC @ POR L 34 21 10 20 50.0 0 1 0.0 1 2 50.0 1 6 7 7 0 0 3 5 -13
p776
aVWesley Johnson LAC 11/20/2015 LAC @ POR L 22 4 2 3 66.7 0 1 0.0 0 0 - 1 2 3 1 1 0 2 1 2
p777
aVLuc Mbah a Moute LAC 11/20/2015 LAC @ POR L 10 2 1 2 50.0 0 0 - 0 0 - 2 2 4 0 0 0 1 2 1
p778
aVLance Stephenson LAC 11/20/2015 LAC @ POR L 19 2 1 2 50.0 0 0 - 0 2 0.0 0 0 0 1 0 1 0 1 -6
p779
aVJosh Smith LAC 11/20/2015 LAC @ POR L 17 2 1 5 20.0 0 2 0.0 0 0 - 1 7 8 2 1 2 2 4 2
p780
aVJamal Crawford LAC 11/20/2015 LAC @ POR L 27 20 6 15 40.0 5 8 62.5 3 3 100.0 0 1 1 1 0 0 1 2 -5
p781
aVAustin Rivers LAC 11/20/2015 LAC @ POR L 22 10 5 9 55.6 0 3 0.0 0 0 - 0 1 1 1 1 0 0 0 9
p782
aVBlake Griffin LAC 11/19/2015 LAC vs. GSW L 37 27 11 20 55.0 1 1 100.0 4 6 66.7 2 4 6 5 1 1 3 2 -12
p783
aVWesley Johnson LAC 11/19/2015 LAC vs. GSW L 16 7 3 6 50.0 1 2 50.0 0 0 - 1 1 2 1 1 0 0 1 -2
p784
aVJamal Crawford LAC 11/19/2015 LAC vs. GSW L 40 15 6 16 37.5 1 7 14.3 2 2 100.0 0 5 5 2 0 0 2 5 -9
p785
aVDeAndre Jordan LAC 11/19/2015 LAC vs. GSW L 39 9 2 4 50.0 0 0 - 5 8 62.5 4 6 10 1 1 0 1 5 3
p786
aVChris Paul LAC 11/19/2015 LAC vs. GSW L 32 35 13 22 59.1 5 9 55.6 4 4 100.0 0 4 4 8 3 0 3 2 -6
p787
aVPaul Pierce LAC 11/19/2015 LAC vs. GSW L 32 6 2 6 33.3 2 5 40.0 0 0 - 1 2 3 1 1 0 0 4 -5
p788
aVJosh Smith LAC 11/19/2015 LAC vs. GSW L 18 8 3 6 50.0 2 3 66.7 0 0 - 0 2 2 2 2 1 1 5 -2
p789
aVLuc Mbah a Moute LAC 11/19/2015 LAC vs. GSW L 0 0 0 0 - 0 0 - 0 0 - 0 0 0 0 0 0 0 0 0
p790
aVAustin Rivers LAC 11/19/2015 LAC vs. GSW L 26 10 4 8 50.0 1 2 50.0 1 4 25.0 1 2 3 1 2 0 0 1 -2
p791
aVAustin Rivers LAC 11/14/2015 LAC vs. DET W 42 13 4 7 57.1 3 6 50.0 2 4 50.0 1 2 3 1 0 0 2 3 9
p792
aVPablo Prigioni LAC 11/14/2015 LAC vs. DET W 11 0 0 1 0.0 0 1 0.0 0 0 - 0 0 0 0 1 0 1 0 -9
p793
aVJosh Smith LAC 11/14/2015 LAC vs. DET W 13 4 1 3 33.3 0 2 0.0 2 2 100.0 0 1 1 0 0 1 2 1 -4
p794
aVWesley Johnson LAC 11/14/2015 LAC vs. DET W 13 0 0 2 0.0 0 1 0.0 0 0 - 0 2 2 0 2 0 0 1 -1
p795
aVLuc Mbah a Moute LAC 11/14/2015 LAC vs. DET W 9 0 0 1 0.0 0 0 - 0 0 - 1 2 3 0 0 0 0 3 12
p796
aVBlake Griffin LAC 11/14/2015 LAC vs. DET W 42 34 14 25 56.0 0 0 - 6 10 60.0 4 4 8 9 2 1 2 4 -2
p797
aVPaul Pierce LAC 11/14/2015 LAC vs. DET W 30 3 1 6 16.7 1 2 50.0 0 0 - 1 2 3 3 0 0 1 1 -1
p798
aVDeAndre Jordan LAC 11/14/2015 LAC vs. DET W 38 10 5 7 71.4 0 0 - 0 0 - 3 13 16 2 1 1 1 6 8
p799
aVLance Stephenson LAC 11/14/2015 LAC vs. DET W 2 0 0 0 - 0 0 - 0 0 - 0 0 0 0 0 0 1 0 -8
p800
aVJamal Crawford LAC 11/14/2015 LAC vs. DET W 41 37 12 27 44.4 3 7 42.9 10 10 100.0 1 5 6 8 0 1 3 4 21
p801
aVLuc Mbah a Moute LAC 11/12/2015 LAC @ PHX L 15 9 3 6 50.0 1 1 100.0 2 2 100.0 2 0 2 0 1 0 0 0 9
p802
aVBlake Griffin LAC 11/12/2015 LAC @ PHX L 16 11 5 10 50.0 0 0 - 1 2 50.0 1 2 3 4 1 0 0 0 -8
p803
aVDeAndre Jordan LAC 11/12/2015 LAC @ PHX L 27 11 3 5 60.0 0 0 - 5 13 38.5 2 7 9 1 0 1 1 1 -27
p804
aVPaul Pierce LAC 11/12/2015 LAC @ PHX L 20 5 2 4 50.0 1 3 33.3 0 0 - 0 1 1 2 2 0 0 1 -8
p805
aVAustin Rivers LAC 11/12/2015 LAC @ PHX L 34 11 4 12 33.3 1 2 50.0 2 5 40.0 0 2 2 2 0 0 1 4 -25
p806
aVLance Stephenson LAC 11/12/2015 LAC @ PHX L 30 11 5 13 38.5 0 3 0.0 1 2 50.0 2 3 5 2 2 1 4 2 -9
p807
aVWesley Johnson LAC 11/12/2015 LAC @ PHX L 24 14 5 11 45.5 3 6 50.0 1 1 100.0 0 3 3 0 1 0 1 3 5
p808
aVJamal Crawford LAC 11/12/2015 LAC @ PHX L 25 18 7 14 50.0 1 3 33.3 3 3 100.0 0 1 1 2 3 0 5 2 -8
p809
aVPablo Prigioni LAC 11/12/2015 LAC @ PHX L 23 6 2 6 33.3 2 5 40.0 0 0 - 2 2 4 3 3 0 2 3 1
p810
aVCole Aldrich LAC 11/12/2015 LAC @ PHX L 7 2 1 1 100.0 0 0 - 0 0 - 1 3 4 0 0 0 0 1 6
p811
aVJosh Smith LAC 11/12/2015 LAC @ PHX L 19 6 3 8 37.5 0 3 0.0 0 0 - 2 1 3 1 0 1 0 0 -6
p812
aVPaul Pierce LAC 11/11/2015 LAC @ DAL L 22 10 3 5 60.0 2 4 50.0 2 2 100.0 1 6 7 2 0 0 0 2 8
p813
aVAustin Rivers LAC 11/11/2015 LAC @ DAL L 27 16 7 14 50.0 2 6 33.3 0 0 - 2 4 6 3 2 0 1 0 5
p814
aVBlake Griffin LAC 11/11/2015 LAC @ DAL L 34 21 8 19 42.1 0 0 - 5 7 71.4 5 4 9 3 1 0 2 3 -10
p815
aVJamal Crawford LAC 11/11/2015 LAC @ DAL L 29 11 3 8 37.5 1 3 33.3 4 4 100.0 0 0 0 1 0 0 1 4 -9
p816
aVJosh Smith LAC 11/11/2015 LAC @ DAL L 13 7 2 6 33.3 2 4 50.0 1 2 50.0 1 2 3 0 0 0 1 2 7
p817
aVLuc Mbah a Moute LAC 11/11/2015 LAC @ DAL L 7 0 0 1 0.0 0 0 - 0 0 - 0 1 1 0 1 0 0 2 4
p818
aVJJ Redick LAC 11/11/2015 LAC @ DAL L 14 10 4 6 66.7 2 3 66.7 0 0 - 0 0 0 0 0 1 0 2 -3
p819
aVLance Stephenson LAC 11/11/2015 LAC @ DAL L 21 6 3 9 33.3 0 2 0.0 0 0 - 2 0 2 0 0 0 1 1 -19
p820
aVChris Paul LAC 11/11/2015 LAC @ DAL L 35 11 2 11 18.2 1 3 33.3 6 7 85.7 0 1 1 11 0 0 2 2 -12
p821
aVPablo Prigioni LAC 11/11/2015 LAC @ DAL L 0 0 0 0 - 0 0 - 0 0 - 0 0 0 0 0 0 0 0 -2
p822
aVDeAndre Jordan LAC 11/11/2015 LAC @ DAL L 27 9 3 5 60.0 0 0 - 3 9 33.3 2 9 11 0 0 1 2 5 -23
p823
aVWesley Johnson LAC 11/11/2015 LAC @ DAL L 13 7 2 2 100.0 2 2 100.0 1 2 50.0 0 1 1 1 0 0 0 1 4
p824
aVPaul Pierce LAC 11/09/2015 LAC vs. MEM W 25 0 0 5 0.0 0 4 0.0 0 0 - 0 2 2 1 0 0 1 1 8
p825
aVWesley Johnson LAC 11/09/2015 LAC vs. MEM W 1 0 0 0 - 0 0 - 0 0 - 0 0 0 0 0 0 0 0 2
p826
aVBlake Griffin LAC 11/09/2015 LAC vs. MEM W 38 24 9 19 47.4 0 0 - 6 6 100.0 2 10 12 2 1 1 2 5 -3
p827
aVJosh Smith LAC 11/09/2015 LAC vs. MEM W 14 2 0 2 0.0 0 0 - 2 2 100.0 0 6 6 2 0 3 0 1 7
p828
aVLuc Mbah a Moute LAC 11/09/2015 LAC vs. MEM W 0 0 0 0 - 0 0 - 0 0 - 0 0 0 0 0 0 0 0 -5
p829
aVLance Stephenson LAC 11/09/2015 LAC vs. MEM W 21 3 1 4 25.0 1 2 50.0 0 0 - 1 2 3 1 0 0 4 0 -4
p830
aVAustin Rivers LAC 11/09/2015 LAC vs. MEM W 23 9 2 4 50.0 0 0 - 5 6 83.3 0 0 0 1 2 0 1 2 -2
p831
aVDeAndre Jordan LAC 11/09/2015 LAC vs. MEM W 36 13 6 9 66.7 0 0 - 1 2 50.0 4 8 12 1 0 4 1 4 -12
p832
aVJJ Redick LAC 11/09/2015 LAC vs. MEM W 30 16 4 8 50.0 2 6 33.3 6 6 100.0 0 0 0 1 1 0 3 2 -9
p833
aVChris Paul LAC 11/09/2015 LAC vs. MEM W 33 14 4 10 40.0 1 4 25.0 5 6 83.3 1 3 4 4 1 0 4 5 9
p834
aVJamal Crawford LAC 11/09/2015 LAC vs. MEM W 20 13 2 7 28.6 1 3 33.3 8 9 88.9 0 1 1 1 0 0 2 0 19
p835
aVWesley Johnson LAC 11/07/2015 LAC vs. HOU L 9 5 2 3 66.7 0 1 0.0 1 2 50.0 1 0 1 1 1 1 0 1 -1
p836
aVLance Stephenson LAC 11/07/2015 LAC vs. HOU L 22 7 2 6 33.3 1 2 50.0 2 2 100.0 1 2 3 3 2 0 0 2 -7
p837
aVDeAndre Jordan LAC 11/07/2015 LAC vs. HOU L 34 11 4 6 66.7 0 0 - 3 7 42.9 4 10 14 2 0 3 3 4 -3
p838
aVJosh Smith LAC 11/07/2015 LAC vs. HOU L 11 10 5 9 55.6 0 1 0.0 0 0 - 1 1 2 3 0 0 0 0 -9
p839
aVPablo Prigioni LAC 11/07/2015 LAC vs. HOU L 16 0 0 5 0.0 0 3 0.0 0 0 - 0 0 0 2 1 0 0 2 0
p840
aVPaul Pierce LAC 11/07/2015 LAC vs. HOU L 24 6 2 7 28.6 2 6 33.3 0 0 - 0 8 8 5 1 0 1 4 6
p841
aVJJ Redick LAC 11/07/2015 LAC vs. HOU L 35 19 8 15 53.3 0 2 0.0 3 4 75.0 1 1 2 3 1 0 3 3 2
p842
aVAustin Rivers LAC 11/07/2015 LAC vs. HOU L 31 10 4 12 33.3 1 5 20.0 1 2 50.0 0 0 0 1 1 1 1 3 -5
p843
aVLuc Mbah a Moute LAC 11/07/2015 LAC vs. HOU L 0 0 0 0 - 0 0 - 0 0 - 0 0 0 0 0 0 0 0 -2
p844
aVJamal Crawford LAC 11/07/2015 LAC vs. HOU L 19 2 1 3 33.3 0 1 0.0 0 0 - 0 0 0 4 1 0 3 0 -1
p845
aVBlake Griffin LAC 11/07/2015 LAC vs. HOU L 38 35 14 22 63.6 0 1 0.0 7 8 87.5 3 8 11 5 0 0 1 4 0
p846
aVBlake Griffin LAC 11/04/2015 LAC @ GSW L 38 23 10 21 47.6 0 2 0.0 3 3 100.0 2 8 10 6 0 1 2 4 8
p847
aVWesley Johnson LAC 11/04/2015 LAC @ GSW L 10 5 2 2 100.0 1 1 100.0 0 0 - 0 0 0 0 0 0 0 3 -12
p848
aVPaul Pierce LAC 11/04/2015 LAC @ GSW L 18 4 0 3 0.0 0 3 0.0 4 6 66.7 0 2 2 0 1 0 0 0 -18
p849
aVLance Stephenson LAC 11/04/2015 LAC @ GSW L 23 7 2 5 40.0 2 2 100.0 1 2 50.0 0 5 5 3 0 0 1 3 15
p850
aVJJ Redick LAC 11/04/2015 LAC @ GSW L 29 13 5 8 62.5 3 4 75.0 0 0 - 0 1 1 3 0 0 1 1 4
p851
aVChris Paul LAC 11/04/2015 LAC @ GSW L 31 24 9 15 60.0 1 3 33.3 5 7 71.4 0 3 3 9 3 0 2 4 -2
p852
aVJamal Crawford LAC 11/04/2015 LAC @ GSW L 20 8 4 15 26.7 0 3 0.0 0 0 - 2 3 5 1 1 0 0 0 -10
p853
aVJosh Smith LAC 11/04/2015 LAC @ GSW L 13 5 2 4 50.0 1 2 50.0 0 0 - 1 1 2 1 1 0 2 2 -12
p854
aVDeAndre Jordan LAC 11/04/2015 LAC @ GSW L 34 11 5 7 71.4 0 0 - 1 4 25.0 5 8 13 1 0 2 3 3 10
p855
aVAustin Rivers LAC 11/04/2015 LAC @ GSW L 24 8 4 8 50.0 0 2 0.0 0 0 - 0 0 0 0 0 1 0 6 -3
p856
aVJJ Redick LAC 11/02/2015 LAC vs. PHX W 28 10 3 12 25.0 3 10 30.0 1 1 100.0 1 2 3 2 0 0 1 1 4
p857
aVJamal Crawford LAC 11/02/2015 LAC vs. PHX W 26 11 2 8 25.0 1 4 25.0 6 6 100.0 0 2 2 3 1 0 0 2 8
p858
aVPaul Pierce LAC 11/02/2015 LAC vs. PHX W 23 7 3 6 50.0 1 4 25.0 0 0 - 0 6 6 2 0 0 1 1 7
p859
aVChris Paul LAC 11/02/2015 LAC vs. PHX W 31 17 7 15 46.7 1 2 50.0 2 2 100.0 0 3 3 5 1 0 5 3 -4
p860
aVLuc Mbah a Moute LAC 11/02/2015 LAC vs. PHX W 0 0 0 0 - 0 0 - 0 0 - 0 0 0 0 0 0 0 0 -2
p861
aVDeAndre Jordan LAC 11/02/2015 LAC vs. PHX W 32 7 3 3 100.0 0 0 - 1 2 50.0 0 9 9 0 1 3 1 3 10
p862
aVWesley Johnson LAC 11/02/2015 LAC vs. PHX W 14 9 4 5 80.0 0 1 0.0 1 1 100.0 0 3 3 0 0 0 0 1 15
p863
aVLance Stephenson LAC 11/02/2015 LAC vs. PHX W 18 5 2 6 33.3 0 0 - 1 1 100.0 1 5 6 2 0 0 1 3 0
p864
aVBlake Griffin LAC 11/02/2015 LAC vs. PHX W 34 22 8 15 53.3 0 0 - 6 7 85.7 1 9 10 2 0 1 0 2 -9
p865
aVJosh Smith LAC 11/02/2015 LAC vs. PHX W 16 7 2 5 40.0 2 4 50.0 1 2 50.0 0 4 4 3 0 1 1 2 -7
p866
aVAustin Rivers LAC 11/02/2015 LAC vs. PHX W 18 7 3 6 50.0 0 1 0.0 1 1 100.0 0 0 0 1 1 0 1 0 8
p867
aVWesley Johnson LAC 10/31/2015 LAC vs. SAC W 11 0 0 2 0.0 0 2 0.0 0 0 - 0 1 1 0 0 0 0 3 -13
p868
aVDeAndre Jordan LAC 10/31/2015 LAC vs. SAC W 36 15 5 6 83.3 0 0 - 5 12 41.7 3 15 18 1 1 7 1 1 24
p869
aVChris Paul LAC 10/31/2015 LAC vs. SAC W 38 17 5 13 38.5 1 5 20.0 6 8 75.0 0 6 6 11 1 0 5 2 19
p870
aVPaul Pierce LAC 10/31/2015 LAC vs. SAC W 14 3 1 1 100.0 1 1 100.0 0 0 - 0 2 2 0 0 0 2 1 -18
p871
aVBlake Griffin LAC 10/31/2015 LAC vs. SAC W 36 37 13 22 59.1 0 0 - 11 15 73.3 1 8 9 6 2 0 3 4 23
p872
aVJamal Crawford LAC 10/31/2015 LAC vs. SAC W 23 10 3 10 30.0 0 3 0.0 4 4 100.0 0 1 1 0 0 0 0 1 -11
p873
aVLance Stephenson LAC 10/31/2015 LAC vs. SAC W 24 7 3 6 50.0 0 1 0.0 1 2 50.0 0 2 2 4 0 0 2 3 20
p874
aVJosh Smith LAC 10/31/2015 LAC vs. SAC W 12 2 1 4 25.0 0 1 0.0 0 0 - 2 0 2 1 0 1 2 0 -17
p875
aVAustin Rivers LAC 10/31/2015 LAC vs. SAC W 12 0 0 3 0.0 0 2 0.0 0 0 - 0 0 0 0 0 0 2 3 -17
p876
aVJJ Redick LAC 10/31/2015 LAC vs. SAC W 33 23 8 9 88.9 2 2 100.0 5 5 100.0 0 0 0 2 0 1 0 4 15
p877
aVLuc Mbah a Moute LAC 10/31/2015 LAC vs. SAC W 0 0 0 0 - 0 0 - 0 0 - 0 0 0 0 0 0 0 0 0
p878
aVLuc Mbah a Moute LAC 10/29/2015 LAC vs. DAL W 7 0 0 1 0.0 0 0 - 0 0 - 0 0 0 1 0 0 0 0 -8
p879
aVWesley Johnson LAC 10/29/2015 LAC vs. DAL W 22 6 3 7 42.9 0 4 0.0 0 0 - 1 6 7 0 0 1 0 2 3
p880
aVJosh Smith LAC 10/29/2015 LAC vs. DAL W 14 5 1 5 20.0 0 1 0.0 3 6 50.0 3 3 6 1 0 2 1 4 9
p881
aVPaul Pierce LAC 10/29/2015 LAC vs. DAL W 20 6 1 6 16.7 0 3 0.0 4 4 100.0 0 4 4 2 2 0 0 2 17
p882
aVJJ Redick LAC 10/29/2015 LAC vs. DAL W 24 12 4 9 44.4 2 4 50.0 2 2 100.0 0 1 1 2 1 0 0 1 14
p883
aVDeAndre Jordan LAC 10/29/2015 LAC vs. DAL W 26 6 2 2 100.0 0 0 - 2 8 25.0 2 13 15 2 0 4 1 1 11
p884
aVChris Paul LAC 10/29/2015 LAC vs. DAL W 24 9 3 8 37.5 1 4 25.0 2 2 100.0 0 3 3 5 1 0 0 1 15
p885
aVLance Stephenson LAC 10/29/2015 LAC vs. DAL W 21 3 1 5 20.0 1 4 25.0 0 0 - 0 2 2 2 0 0 1 3 7
p886
aVAustin Rivers LAC 10/29/2015 LAC vs. DAL W 24 14 5 10 50.0 2 4 50.0 2 4 50.0 0 2 2 1 1 0 0 1 4
p887
aVPablo Prigioni LAC 10/29/2015 LAC vs. DAL W 7 0 0 4 0.0 0 3 0.0 0 0 - 0 1 1 1 0 0 1 0 -8
p888
aVJamal Crawford LAC 10/29/2015 LAC vs. DAL W 17 15 6 11 54.5 2 4 50.0 1 1 100.0 0 2 2 2 0 0 0 0 12
p889
aVBlake Griffin LAC 10/29/2015 LAC vs. DAL W 27 26 11 17 64.7 0 0 - 4 6 66.7 2 8 10 2 1 1 3 1 12
p890
aVCole Aldrich LAC 10/29/2015 LAC vs. DAL W 7 2 1 2 50.0 0 0 - 0 0 - 0 0 0 0 0 0 1 1 -8
p891
aVPaul Pierce LAC 10/28/2015 LAC @ SAC W 24 12 4 8 50.0 1 4 25.0 3 4 75.0 1 6 7 0 0 0 1 0 -4
p892
aVWesley Johnson LAC 10/28/2015 LAC @ SAC W 11 3 1 2 50.0 1 1 100.0 0 0 - 0 0 0 0 1 0 0 0 -8
p893
aVJosh Smith LAC 10/28/2015 LAC @ SAC W 16 1 0 2 0.0 0 0 - 1 2 50.0 0 6 6 0 0 4 5 4 -14
p894
aVChris Paul LAC 10/28/2015 LAC @ SAC W 37 18 6 14 42.9 1 4 25.0 5 6 83.3 0 5 5 11 2 0 2 1 15
p895
aVCole Aldrich LAC 10/28/2015 LAC @ SAC W 0 0 0 0 - 0 0 - 0 0 - 0 0 0 0 0 0 0 0 0
p896
aVDeAndre Jordan LAC 10/28/2015 LAC @ SAC W 27 8 4 6 66.7 0 0 - 0 3 0.0 2 10 12 1 0 4 1 5 15
p897
aVJJ Redick LAC 10/28/2015 LAC @ SAC W 31 15 5 11 45.5 2 5 40.0 3 3 100.0 0 0 0 0 1 0 2 3 17
p898
aVLance Stephenson LAC 10/28/2015 LAC @ SAC W 19 7 3 5 60.0 1 2 50.0 0 0 - 1 1 2 2 1 0 1 0 11
p899
aVJamal Crawford LAC 10/28/2015 LAC @ SAC W 21 11 5 9 55.6 0 1 0.0 1 2 50.0 0 0 0 1 1 0 0 2 -5
p900
aVAustin Rivers LAC 10/28/2015 LAC @ SAC W 16 3 0 3 0.0 0 2 0.0 3 4 75.0 0 2 2 1 2 1 1 1 -8
p901
aVBlake Griffin LAC 10/28/2015 LAC @ SAC W 38 33 14 20 70.0 0 0 - 5 7 71.4 2 6 8 4 0 0 2 3 16
p902
a.