(lp0
VPLAYER TEAM DATE MATCHUP W/L MIN PTS FGM FGA FG% 3PM 3PA 3P% FTM FTA FT% OREB DREB REB AST STL BLK TOV PF +/-
p1
aVGreg Monroe MIL 04/13/2016 MIL vs. IND L 13 7 2 3 66.7 0 0 - 3 3 100.0 0 2 2 1 1 0 1 0 -8
p2
aVJohnny O'Bryant III MIL 04/13/2016 MIL vs. IND L 16 8 4 7 57.1 0 0 - 0 0 - 0 6 6 0 0 0 0 0 2
p3
aVJabari Parker MIL 04/13/2016 MIL vs. IND L 25 17 7 17 41.2 0 1 0.0 3 4 75.0 2 5 7 1 1 0 0 1 -9
p4
aVRashad Vaughn MIL 04/13/2016 MIL vs. IND L 36 10 4 14 28.6 2 8 25.0 0 0 - 1 3 4 2 1 1 1 3 7
p5
aVKhris Middleton MIL 04/13/2016 MIL vs. IND L 8 0 0 3 0.0 0 1 0.0 0 0 - 0 0 0 2 0 0 0 1 -10
p6
aVGiannis Antetokounmpo MIL 04/13/2016 MIL vs. IND L 29 19 7 14 50.0 1 5 20.0 4 4 100.0 2 7 9 5 0 1 4 2 -1
p7
aVMiles Plumlee MIL 04/13/2016 MIL vs. IND L 20 6 3 7 42.9 0 0 - 0 0 - 1 3 4 1 0 0 0 1 -4
p8
aVDamien Inglis MIL 04/13/2016 MIL vs. IND L 20 10 4 5 80.0 2 2 100.0 0 0 - 0 4 4 1 1 0 2 1 -2
p9
aVTyler Ennis MIL 04/13/2016 MIL vs. IND L 29 5 2 3 66.7 1 1 100.0 0 0 - 0 2 2 5 3 0 3 2 13
p10
aVJohn Henson MIL 04/13/2016 MIL vs. IND L 22 7 3 9 33.3 0 1 0.0 1 2 50.0 1 3 4 1 0 1 3 2 -5
p11
aVGreivis Vasquez MIL 04/13/2016 MIL vs. IND L 22 3 1 5 20.0 1 4 25.0 0 0 - 0 1 1 4 1 0 1 2 -8
p12
aVRashad Vaughn MIL 04/11/2016 MIL @ ORL L 28 3 1 6 16.7 0 4 0.0 1 2 50.0 0 0 0 0 0 1 0 2 -9
p13
aVTyler Ennis MIL 04/11/2016 MIL @ ORL L 24 10 5 6 83.3 0 0 - 0 0 - 0 2 2 2 0 0 3 3 4
p14
aVJohn Henson MIL 04/11/2016 MIL @ ORL L 15 5 2 5 40.0 0 0 - 1 2 50.0 1 2 3 0 0 0 2 2 2
p15
aVMiles Plumlee MIL 04/11/2016 MIL @ ORL L 21 4 2 4 50.0 0 0 - 0 0 - 4 9 13 0 0 2 0 0 3
p16
aVGreg Monroe MIL 04/11/2016 MIL @ ORL L 27 23 9 15 60.0 0 0 - 5 6 83.3 4 3 7 2 3 1 2 2 -12
p17
aVKhris Middleton MIL 04/11/2016 MIL @ ORL L 35 17 6 11 54.5 0 2 0.0 5 5 100.0 0 5 5 7 2 0 6 2 -15
p18
aVGreivis Vasquez MIL 04/11/2016 MIL @ ORL L 17 8 3 7 42.9 2 5 40.0 0 0 - 1 2 3 3 0 0 2 3 4
p19
aVGiannis Antetokounmpo MIL 04/11/2016 MIL @ ORL L 37 11 5 7 71.4 1 2 50.0 0 2 0.0 2 7 9 3 1 3 5 5 -14
p20
aVJabari Parker MIL 04/11/2016 MIL @ ORL L 37 17 8 17 47.1 0 2 0.0 1 2 50.0 1 2 3 1 0 0 3 1 -8
p21
aVMiles Plumlee MIL 04/10/2016 MIL @ PHI W 28 8 4 7 57.1 0 0 - 0 0 - 0 6 6 1 2 1 0 1 11
p22
aVRashad Vaughn MIL 04/10/2016 MIL @ PHI W 23 9 3 10 30.0 3 8 37.5 0 0 - 0 3 3 0 1 0 1 2 -8
p23
aVJabari Parker MIL 04/10/2016 MIL @ PHI W 31 15 6 10 60.0 2 2 100.0 1 1 100.0 0 6 6 0 0 0 3 4 3
p24
aVKhris Middleton MIL 04/10/2016 MIL @ PHI W 43 36 14 24 58.3 1 5 20.0 7 7 100.0 0 6 6 9 4 0 6 3 12
p25
aVTyler Ennis MIL 04/10/2016 MIL @ PHI W 39 4 2 5 40.0 0 2 0.0 0 0 - 0 3 3 4 0 0 2 3 -8
p26
aVGreivis Vasquez MIL 04/10/2016 MIL @ PHI W 14 0 0 2 0.0 0 2 0.0 0 0 - 0 2 2 4 0 0 1 0 9
p27
aVJohn Henson MIL 04/10/2016 MIL @ PHI W 25 18 6 12 50.0 0 0 - 6 6 100.0 5 5 10 1 0 2 1 3 -10
p28
aVGiannis Antetokounmpo MIL 04/10/2016 MIL @ PHI W 40 14 4 15 26.7 1 4 25.0 5 6 83.3 1 8 9 7 3 5 3 0 -2
p29
aVJohnny O'Bryant III MIL 04/10/2016 MIL @ PHI W 22 5 1 2 50.0 0 0 - 3 4 75.0 2 6 8 0 0 0 2 3 -2
p30
aVTyler Ennis MIL 04/08/2016 MIL @ BOS L 38 9 3 11 27.3 0 1 0.0 3 4 75.0 2 4 6 11 2 0 3 4 0
p31
aVJohnny O'Bryant III MIL 04/08/2016 MIL @ BOS L 11 7 3 5 60.0 0 0 - 1 1 100.0 0 0 0 0 0 0 0 1 -10
p32
aVDamien Inglis MIL 04/08/2016 MIL @ BOS L 15 0 0 3 0.0 0 1 0.0 0 0 - 0 1 1 1 1 0 1 3 2
p33
aVJabari Parker MIL 04/08/2016 MIL @ BOS L 29 18 8 18 44.4 0 1 0.0 2 3 66.7 2 3 5 1 0 0 1 3 -12
p34
aVGreg Monroe MIL 04/08/2016 MIL @ BOS L 28 10 4 6 66.7 0 0 - 2 4 50.0 2 6 8 4 0 0 3 3 -7
p35
aVJohn Henson MIL 04/08/2016 MIL @ BOS L 17 5 2 6 33.3 0 0 - 1 2 50.0 0 4 4 1 1 3 1 2 -4
p36
aVGreivis Vasquez MIL 04/08/2016 MIL @ BOS L 15 5 2 3 66.7 1 2 50.0 0 1 0.0 0 0 0 1 0 0 2 2 -17
p37
aVMiles Plumlee MIL 04/08/2016 MIL @ BOS L 20 16 6 8 75.0 0 0 - 4 6 66.7 1 4 5 1 3 0 2 1 -8
p38
aVGiannis Antetokounmpo MIL 04/08/2016 MIL @ BOS L 27 27 8 12 66.7 4 5 80.0 7 8 87.5 0 7 7 7 1 1 5 5 -10
p39
aVRashad Vaughn MIL 04/08/2016 MIL @ BOS L 40 12 5 12 41.7 2 7 28.6 0 0 - 0 2 2 3 2 1 1 3 -9
p40
aVGiannis Antetokounmpo MIL 04/05/2016 MIL vs. CLE L 39 22 10 18 55.6 2 4 50.0 0 0 - 3 11 14 8 1 0 3 3 -25
p41
aVJohnny O'Bryant III MIL 04/05/2016 MIL vs. CLE L 31 12 6 10 60.0 0 0 - 0 0 - 4 3 7 1 0 0 1 2 -16
p42
aVTyler Ennis MIL 04/05/2016 MIL vs. CLE L 28 4 2 4 50.0 0 0 - 0 0 - 0 4 4 2 2 0 2 3 -15
p43
aVRashad Vaughn MIL 04/05/2016 MIL vs. CLE L 45 10 4 17 23.5 2 10 20.0 0 0 - 0 2 2 1 3 1 0 1 -27
p44
aVMiles Plumlee MIL 04/05/2016 MIL vs. CLE L 20 5 2 6 33.3 0 0 - 1 2 50.0 3 4 7 0 0 0 0 2 -13
p45
aVJohn Henson MIL 04/05/2016 MIL vs. CLE L 7 0 0 1 0.0 0 0 - 0 0 - 0 0 0 1 0 0 0 1 -11
p46
aVJabari Parker MIL 04/05/2016 MIL vs. CLE L 41 19 7 19 36.8 0 2 0.0 5 10 50.0 1 1 2 4 0 0 2 1 -23
p47
aVDamien Inglis MIL 04/05/2016 MIL vs. CLE L 6 0 0 2 0.0 0 0 - 0 0 - 0 0 0 1 0 0 1 0 -1
p48
aVGreg Monroe MIL 04/05/2016 MIL vs. CLE L 25 8 4 11 36.4 0 0 - 0 0 - 1 4 5 2 1 0 1 1 -14
p49
aVJohnny O'Bryant III MIL 04/03/2016 MIL vs. CHI L 21 4 2 2 100.0 0 0 - 0 0 - 2 3 5 1 1 1 0 3 11
p50
aVJohn Henson MIL 04/03/2016 MIL vs. CHI L 9 0 0 2 0.0 0 0 - 0 0 - 0 1 1 0 0 1 0 1 -16
p51
aVGiannis Antetokounmpo MIL 04/03/2016 MIL vs. CHI L 43 34 14 22 63.6 1 1 100.0 5 7 71.4 0 5 5 9 1 1 4 4 4
p52
aVJabari Parker MIL 04/03/2016 MIL vs. CHI L 44 24 9 21 42.9 0 2 0.0 6 6 100.0 6 5 11 3 1 0 4 3 4
p53
aVDamien Inglis MIL 04/03/2016 MIL vs. CHI L 9 0 0 1 0.0 0 0 - 0 0 - 0 1 1 1 1 0 1 0 -7
p54
aVGreivis Vasquez MIL 04/03/2016 MIL vs. CHI L 6 0 0 2 0.0 0 1 0.0 0 0 - 0 0 0 1 0 0 0 0 -11
p55
aVMiles Plumlee MIL 04/03/2016 MIL vs. CHI L 25 11 5 11 45.5 0 0 - 1 2 50.0 5 3 8 0 0 1 0 0 3
p56
aVGreg Monroe MIL 04/03/2016 MIL vs. CHI L 23 11 4 11 36.4 0 0 - 3 4 75.0 2 3 5 3 0 1 1 1 -7
p57
aVRashad Vaughn MIL 04/03/2016 MIL vs. CHI L 29 7 3 6 50.0 1 2 50.0 0 0 - 0 4 4 2 0 2 0 2 2
p58
aVTyler Ennis MIL 04/03/2016 MIL vs. CHI L 31 7 3 7 42.9 0 1 0.0 1 1 100.0 0 4 4 8 2 0 4 3 -3
p59
aVMiles Plumlee MIL 04/01/2016 MIL vs. ORL W 17 12 5 7 71.4 0 0 - 2 4 50.0 1 1 2 0 0 0 1 1 -5
p60
aVTyler Ennis MIL 04/01/2016 MIL vs. ORL W 26 15 5 9 55.6 2 3 66.7 3 4 75.0 1 1 2 1 2 0 2 2 -6
p61
aVRashad Vaughn MIL 04/01/2016 MIL vs. ORL W 22 4 2 6 33.3 0 2 0.0 0 1 0.0 1 2 3 1 1 0 0 2 9
p62
aVGreivis Vasquez MIL 04/01/2016 MIL vs. ORL W 12 0 0 5 0.0 0 4 0.0 0 0 - 0 1 1 4 1 0 3 1 -10
p63
aVJohnny O'Bryant III MIL 04/01/2016 MIL vs. ORL W 3 0 0 0 - 0 0 - 0 0 - 0 0 0 0 0 0 0 1 -5
p64
aVJabari Parker MIL 04/01/2016 MIL vs. ORL W 41 26 12 14 85.7 0 0 - 2 3 66.7 0 7 7 5 1 0 2 0 18
p65
aVKhris Middleton MIL 04/01/2016 MIL vs. ORL W 38 18 8 17 47.1 2 7 28.6 0 0 - 0 5 5 4 5 2 2 1 6
p66
aVJohn Henson MIL 04/01/2016 MIL vs. ORL W 11 2 1 1 100.0 0 0 - 0 0 - 1 2 3 2 0 0 0 5 -8
p67
aVGiannis Antetokounmpo MIL 04/01/2016 MIL vs. ORL W 39 18 5 13 38.5 0 1 0.0 8 11 72.7 2 9 11 11 2 3 4 1 8
p68
aVGreg Monroe MIL 04/01/2016 MIL vs. ORL W 31 18 9 14 64.3 0 0 - 0 2 0.0 3 3 6 3 2 1 2 1 8
p69
aVJabari Parker MIL 03/30/2016 MIL vs. PHX W 36 21 6 10 60.0 0 1 0.0 9 11 81.8 3 2 5 3 4 0 2 2 11
p70
aVJohn Henson MIL 03/30/2016 MIL vs. PHX W 23 10 3 9 33.3 0 0 - 4 6 66.7 1 4 5 2 1 4 1 4 7
p71
aVMiles Plumlee MIL 03/30/2016 MIL vs. PHX W 14 4 2 6 33.3 0 0 - 0 0 - 0 4 4 0 1 1 1 2 0
p72
aVTyler Ennis MIL 03/30/2016 MIL vs. PHX W 23 10 4 7 57.1 0 2 0.0 2 2 100.0 3 1 4 0 0 0 1 2 -1
p73
aVGreivis Vasquez MIL 03/30/2016 MIL vs. PHX W 13 0 0 2 0.0 0 1 0.0 0 0 - 0 3 3 3 1 0 1 1 -2
p74
aVKhris Middleton MIL 03/30/2016 MIL vs. PHX W 34 26 10 16 62.5 3 4 75.0 3 3 100.0 0 7 7 1 0 0 2 4 13
p75
aVJerryd Bayless MIL 03/30/2016 MIL vs. PHX W 12 2 1 4 25.0 0 1 0.0 0 0 - 0 1 1 1 1 0 1 0 -7
p76
aVRashad Vaughn MIL 03/30/2016 MIL vs. PHX W 26 8 3 6 50.0 2 4 50.0 0 0 - 0 1 1 1 3 1 1 1 16
p77
aVGreg Monroe MIL 03/30/2016 MIL vs. PHX W 27 14 5 12 41.7 0 1 0.0 4 4 100.0 1 4 5 4 2 2 1 3 -1
p78
aVGiannis Antetokounmpo MIL 03/30/2016 MIL vs. PHX W 32 10 3 5 60.0 1 1 100.0 3 8 37.5 1 2 3 6 0 1 2 4 19
p79
aVGiannis Antetokounmpo MIL 03/26/2016 MIL vs. CHA L 26 8 3 9 33.3 0 2 0.0 2 2 100.0 0 3 3 1 2 0 0 3 -22
p80
aVJohn Henson MIL 03/26/2016 MIL vs. CHA L 25 19 8 10 80.0 0 0 - 3 3 100.0 4 4 8 0 1 3 0 3 7
p81
aVGreg Monroe MIL 03/26/2016 MIL vs. CHA L 23 12 3 7 42.9 0 0 - 6 8 75.0 2 4 6 1 0 0 0 2 -31
p82
aVDamien Inglis MIL 03/26/2016 MIL vs. CHA L 6 0 0 2 0.0 0 1 0.0 0 0 - 0 1 1 1 0 0 0 0 -2
p83
aVJerryd Bayless MIL 03/26/2016 MIL vs. CHA L 22 2 1 7 14.3 0 1 0.0 0 0 - 0 1 1 0 1 0 1 2 -28
p84
aVRashad Vaughn MIL 03/26/2016 MIL vs. CHA L 22 5 2 7 28.6 1 2 50.0 0 0 - 1 0 1 2 0 0 1 0 -2
p85
aVTyler Ennis MIL 03/26/2016 MIL vs. CHA L 28 9 4 10 40.0 1 4 25.0 0 0 - 0 4 4 12 1 0 2 0 -2
p86
aVMiles Plumlee MIL 03/26/2016 MIL vs. CHA L 19 6 3 5 60.0 0 0 - 0 0 - 0 3 3 0 0 0 2 1 9
p87
aVJohnny O'Bryant III MIL 03/26/2016 MIL vs. CHA L 6 2 1 4 25.0 0 0 - 0 0 - 0 2 2 0 0 0 0 0 -2
p88
aVJabari Parker MIL 03/26/2016 MIL vs. CHA L 38 15 6 13 46.2 1 2 50.0 2 2 100.0 2 5 7 4 1 0 1 2 -21
p89
aVKhris Middleton MIL 03/26/2016 MIL vs. CHA L 24 13 6 10 60.0 1 3 33.3 0 0 - 0 1 1 5 0 0 2 3 -26
p90
aVJared Cunningham MIL 03/25/2016 MIL @ ATL L 15 3 1 4 25.0 1 2 50.0 0 0 - 0 4 4 0 0 0 0 1 -6
p91
aVMiles Plumlee MIL 03/25/2016 MIL @ ATL L 18 4 2 3 66.7 0 0 - 0 0 - 3 4 7 0 0 0 2 0 -3
p92
aVJabari Parker MIL 03/25/2016 MIL @ ATL L 37 19 8 18 44.4 0 1 0.0 3 6 50.0 2 6 8 1 0 0 4 2 -21
p93
aVGreg Monroe MIL 03/25/2016 MIL @ ATL L 24 7 2 7 28.6 0 0 - 3 6 50.0 1 2 3 3 0 0 1 2 -6
p94
aVGiannis Antetokounmpo MIL 03/25/2016 MIL @ ATL L 40 11 5 14 35.7 0 1 0.0 1 2 50.0 0 7 7 4 1 3 2 3 -2
p95
aVTyler Ennis MIL 03/25/2016 MIL @ ATL L 13 7 3 7 42.9 0 1 0.0 1 2 50.0 2 0 2 2 0 0 1 4 -6
p96
aVKhris Middleton MIL 03/25/2016 MIL @ ATL L 36 10 4 14 28.6 0 4 0.0 2 2 100.0 0 4 4 2 1 1 2 0 -4
p97
aVJerryd Bayless MIL 03/25/2016 MIL @ ATL L 31 12 3 6 50.0 2 4 50.0 4 4 100.0 0 4 4 3 2 2 1 3 -6
p98
aVJohn Henson MIL 03/25/2016 MIL @ ATL L 26 17 7 11 63.6 0 0 - 3 4 75.0 8 2 10 1 0 3 2 1 -1
p99
aVJohnny O'Bryant III MIL 03/23/2016 MIL @ CLE L 2 0 0 0 - 0 0 - 0 0 - 0 0 0 0 0 0 0 0 -1
p100
aVTyler Ennis MIL 03/23/2016 MIL @ CLE L 15 5 2 6 33.3 1 1 100.0 0 0 - 0 2 2 0 0 0 1 2 -3
p101
aVJerryd Bayless MIL 03/23/2016 MIL @ CLE L 33 15 6 9 66.7 3 4 75.0 0 0 - 1 4 5 1 0 0 0 1 -6
p102
aVMiles Plumlee MIL 03/23/2016 MIL @ CLE L 22 4 2 4 50.0 0 0 - 0 0 - 2 1 3 0 0 2 1 4 5
p103
aVJohn Henson MIL 03/23/2016 MIL @ CLE L 20 12 5 9 55.6 0 0 - 2 4 50.0 2 1 3 1 1 1 3 2 2
p104
aVKhris Middleton MIL 03/23/2016 MIL @ CLE L 37 9 3 7 42.9 1 3 33.3 2 2 100.0 1 1 2 11 2 0 2 3 -2
p105
aVGiannis Antetokounmpo MIL 03/23/2016 MIL @ CLE L 39 24 11 19 57.9 0 3 0.0 2 2 100.0 2 4 6 6 0 1 2 4 -6
p106
aVGreg Monroe MIL 03/23/2016 MIL @ CLE L 26 14 6 9 66.7 0 0 - 2 2 100.0 0 2 2 1 1 0 3 2 -14
p107
aVDamien Inglis MIL 03/23/2016 MIL @ CLE L 9 2 1 3 33.3 0 1 0.0 0 0 - 1 3 4 0 0 0 0 1 -3
p108
aVJabari Parker MIL 03/23/2016 MIL @ CLE L 27 12 5 8 62.5 1 1 100.0 1 2 50.0 1 0 1 3 4 0 2 3 -10
p109
aVJared Cunningham MIL 03/23/2016 MIL @ CLE L 11 7 2 6 33.3 1 3 33.3 2 3 66.7 0 3 3 0 0 0 0 2 -7
p110
aVJerryd Bayless MIL 03/21/2016 MIL @ DET L 37 5 2 5 40.0 1 1 100.0 0 2 0.0 0 3 3 6 0 0 1 1 3
p111
aVTyler Ennis MIL 03/21/2016 MIL @ DET L 11 4 2 5 40.0 0 0 - 0 0 - 0 1 1 1 1 0 1 2 -4
p112
aVKhris Middleton MIL 03/21/2016 MIL @ DET L 32 27 11 16 68.8 2 3 66.7 3 3 100.0 0 1 1 4 1 0 3 5 18
p113
aVMiles Plumlee MIL 03/21/2016 MIL @ DET L 14 4 2 3 66.7 0 0 - 0 0 - 0 2 2 0 0 0 1 2 -11
p114
aVJohn Henson MIL 03/21/2016 MIL @ DET L 14 3 1 2 50.0 0 0 - 1 2 50.0 0 1 1 3 0 1 1 2 -17
p115
aVGiannis Antetokounmpo MIL 03/21/2016 MIL @ DET L 37 21 10 17 58.8 1 3 33.3 0 0 - 1 11 12 5 0 2 0 1 8
p116
aVJared Cunningham MIL 03/21/2016 MIL @ DET L 14 2 1 3 33.3 0 1 0.0 0 0 - 0 1 1 0 1 0 2 1 -17
p117
aVDamien Inglis MIL 03/21/2016 MIL @ DET L 13 2 1 3 33.3 0 0 - 0 0 - 0 3 3 1 0 0 0 1 -9
p118
aVJabari Parker MIL 03/21/2016 MIL @ DET L 35 5 2 7 28.6 1 1 100.0 0 0 - 2 4 6 2 0 2 2 4 8
p119
aVGreg Monroe MIL 03/21/2016 MIL @ DET L 34 18 9 15 60.0 0 0 - 0 0 - 2 8 10 1 2 2 2 1 16
p120
aVJared Cunningham MIL 03/20/2016 MIL vs. UTA L 16 4 0 1 0.0 0 1 0.0 4 4 100.0 0 1 1 1 1 0 1 0 1
p121
aVMiles Plumlee MIL 03/20/2016 MIL vs. UTA L 23 7 3 4 75.0 0 0 - 1 4 25.0 1 2 3 0 0 3 0 0 1
p122
aVJabari Parker MIL 03/20/2016 MIL vs. UTA L 35 19 8 14 57.1 0 0 - 3 3 100.0 0 8 8 2 1 1 2 3 -16
p123
aVTyler Ennis MIL 03/20/2016 MIL vs. UTA L 20 5 2 4 50.0 1 1 100.0 0 0 - 0 2 2 6 2 0 2 2 6
p124
aVJerryd Bayless MIL 03/20/2016 MIL vs. UTA L 28 7 3 5 60.0 1 3 33.3 0 0 - 0 1 1 3 1 0 1 1 -15
p125
aVGreg Monroe MIL 03/20/2016 MIL vs. UTA L 22 8 3 8 37.5 0 0 - 2 2 100.0 1 3 4 2 0 1 1 0 -8
p126
aVJohn Henson MIL 03/20/2016 MIL vs. UTA L 26 8 3 6 50.0 0 0 - 2 2 100.0 0 2 2 0 0 3 0 2 -3
p127
aVDamien Inglis MIL 03/20/2016 MIL vs. UTA L 8 2 1 3 33.3 0 0 - 0 0 - 0 2 2 0 0 0 1 0 3
p128
aVKhris Middleton MIL 03/20/2016 MIL vs. UTA L 30 13 6 10 60.0 1 2 50.0 0 0 - 0 0 0 0 3 0 3 2 -12
p129
aVGiannis Antetokounmpo MIL 03/20/2016 MIL vs. UTA L 29 12 5 10 50.0 0 1 0.0 2 2 100.0 0 3 3 7 2 2 2 1 -5
p130
aVJohnny O'Bryant III MIL 03/20/2016 MIL vs. UTA L 3 0 0 0 - 0 0 - 0 0 - 0 1 1 0 0 0 0 0 3
p131
aVRashad Vaughn MIL 03/17/2016 MIL vs. MEM W 21 5 2 6 33.3 1 4 25.0 0 0 - 0 4 4 0 0 1 2 2 14
p132
aVTyler Ennis MIL 03/17/2016 MIL vs. MEM W 23 13 6 10 60.0 0 0 - 1 1 100.0 1 4 5 3 1 0 0 2 11
p133
aVJabari Parker MIL 03/17/2016 MIL vs. MEM W 28 7 3 11 27.3 0 1 0.0 1 2 50.0 1 2 3 0 0 1 0 1 -8
p134
aVGreg Monroe MIL 03/17/2016 MIL vs. MEM W 27 14 5 6 83.3 0 0 - 4 6 66.7 0 10 10 0 0 1 1 0 1
p135
aVGiannis Antetokounmpo MIL 03/17/2016 MIL vs. MEM W 30 15 6 9 66.7 0 1 0.0 3 4 75.0 2 4 6 11 1 3 3 2 -1
p136
aVJohnny O'Bryant III MIL 03/17/2016 MIL vs. MEM W 0 0 0 0 - 0 0 - 0 0 - 0 0 0 0 0 0 0 0 0
p137
aVJerryd Bayless MIL 03/17/2016 MIL vs. MEM W 25 10 3 8 37.5 2 5 40.0 2 4 50.0 0 1 1 2 0 0 1 2 -1
p138
aVDamien Inglis MIL 03/17/2016 MIL vs. MEM W 22 10 3 5 60.0 0 2 0.0 4 4 100.0 0 5 5 2 0 3 0 0 11
p139
aVJohn Henson MIL 03/17/2016 MIL vs. MEM W 14 3 1 2 50.0 0 0 - 1 2 50.0 2 0 2 0 2 4 1 1 19
p140
aVMiles Plumlee MIL 03/17/2016 MIL vs. MEM W 21 9 4 5 80.0 0 0 - 1 2 50.0 2 5 7 1 1 3 1 2 9
p141
aVKhris Middleton MIL 03/17/2016 MIL vs. MEM W 30 10 4 13 30.8 2 6 33.3 0 0 - 1 0 1 2 2 1 3 3 -5
p142
aVTyler Ennis MIL 03/15/2016 MIL vs. TOR L 28 10 4 8 50.0 0 2 0.0 2 3 66.7 1 3 4 3 0 0 1 2 -13
p143
aVGiannis Antetokounmpo MIL 03/15/2016 MIL vs. TOR L 35 18 6 12 50.0 0 1 0.0 6 11 54.5 2 10 12 9 0 3 1 4 -5
p144
aVMiles Plumlee MIL 03/15/2016 MIL vs. TOR L 14 6 2 5 40.0 0 0 - 2 2 100.0 2 1 3 0 0 0 1 0 -11
p145
aVRashad Vaughn MIL 03/15/2016 MIL vs. TOR L 13 0 0 2 0.0 0 2 0.0 0 0 - 0 1 1 1 1 0 1 1 -8
p146
aVGreg Monroe MIL 03/15/2016 MIL vs. TOR L 29 8 4 8 50.0 0 0 - 0 1 0.0 2 7 9 0 0 0 0 1 -10
p147
aVJohn Henson MIL 03/15/2016 MIL vs. TOR L 6 4 2 3 66.7 0 0 - 0 0 - 1 0 1 0 1 0 1 0 3
p148
aVKhris Middleton MIL 03/15/2016 MIL vs. TOR L 31 12 5 10 50.0 0 2 0.0 2 2 100.0 1 0 1 3 3 0 1 2 -4
p149
aVJohnny O'Bryant III MIL 03/15/2016 MIL vs. TOR L 15 2 1 3 33.3 0 0 - 0 0 - 1 1 2 0 1 0 0 0 -9
p150
aVJerryd Bayless MIL 03/15/2016 MIL vs. TOR L 28 11 3 9 33.3 1 3 33.3 4 4 100.0 0 0 0 0 1 0 0 4 -11
p151
aVDamien Inglis MIL 03/15/2016 MIL vs. TOR L 4 0 0 1 0.0 0 1 0.0 0 0 - 0 0 0 0 1 0 1 0 0
p152
aVJabari Parker MIL 03/15/2016 MIL vs. TOR L 37 18 7 16 43.8 1 2 50.0 3 3 100.0 0 4 4 2 0 0 0 2 -22
p153
aVGreg Monroe MIL 03/13/2016 MIL @ BKN W 27 14 6 13 46.2 0 0 - 2 2 100.0 2 3 5 3 0 0 1 2 14
p154
aVDamien Inglis MIL 03/13/2016 MIL @ BKN W 1 0 0 0 - 0 0 - 0 0 - 0 0 0 0 0 0 0 0 -2
p155
aVGiannis Antetokounmpo MIL 03/13/2016 MIL @ BKN W 41 28 12 16 75.0 0 0 - 4 11 36.4 3 8 11 14 4 2 3 1 19
p156
aVJohnny O'Bryant III MIL 03/13/2016 MIL @ BKN W 14 2 1 6 16.7 0 0 - 0 0 - 1 2 3 0 0 0 0 2 -8
p157
aVRashad Vaughn MIL 03/13/2016 MIL @ BKN W 9 0 0 1 0.0 0 0 - 0 0 - 0 1 1 0 0 0 0 1 -6
p158
aVTyler Ennis MIL 03/13/2016 MIL @ BKN W 15 2 1 3 33.3 0 1 0.0 0 0 - 0 1 1 1 0 0 0 1 -2
p159
aVJabari Parker MIL 03/13/2016 MIL @ BKN W 37 23 11 17 64.7 0 1 0.0 1 1 100.0 3 2 5 0 1 0 0 2 10
p160
aVKhris Middleton MIL 03/13/2016 MIL @ BKN W 39 19 7 15 46.7 3 5 60.0 2 2 100.0 0 5 5 7 5 0 2 2 15
p161
aVMiles Plumlee MIL 03/13/2016 MIL @ BKN W 21 12 4 10 40.0 0 0 - 4 5 80.0 5 2 7 0 0 1 1 0 -5
p162
aVJerryd Bayless MIL 03/13/2016 MIL @ BKN W 38 9 3 8 37.5 3 7 42.9 0 0 - 1 2 3 2 3 0 2 1 10
p163
aVKhris Middleton MIL 03/12/2016 MIL vs. NOP W 41 19 9 16 56.3 0 4 0.0 1 1 100.0 1 9 10 8 3 0 1 3 22
p164
aVGreg Monroe MIL 03/12/2016 MIL vs. NOP W 27 16 6 10 60.0 0 0 - 4 4 100.0 0 11 11 2 1 1 0 3 1
p165
aVJohnny O'Bryant III MIL 03/12/2016 MIL vs. NOP W 15 0 0 4 0.0 0 0 - 0 0 - 0 0 0 0 1 0 0 1 3
p166
aVTyler Ennis MIL 03/12/2016 MIL vs. NOP W 8 10 4 6 66.7 1 2 50.0 1 1 100.0 0 2 2 1 0 0 2 0 -4
p167
aVDamien Inglis MIL 03/12/2016 MIL vs. NOP W 3 2 1 1 100.0 0 0 - 0 0 - 0 1 1 0 0 0 0 0 -4
p168
aVJabari Parker MIL 03/12/2016 MIL vs. NOP W 38 15 4 10 40.0 0 0 - 7 8 87.5 3 2 5 2 3 0 6 2 5
p169
aVRashad Vaughn MIL 03/12/2016 MIL vs. NOP W 10 0 0 2 0.0 0 0 - 0 0 - 0 0 0 0 0 0 0 1 -4
p170
aVMiles Plumlee MIL 03/12/2016 MIL vs. NOP W 21 6 3 4 75.0 0 0 - 0 0 - 0 4 4 1 1 2 0 2 10
p171
aVJerryd Bayless MIL 03/12/2016 MIL vs. NOP W 40 17 7 13 53.8 3 7 42.9 0 0 - 1 3 4 4 2 1 0 1 15
p172
aVGiannis Antetokounmpo MIL 03/12/2016 MIL vs. NOP W 37 18 6 15 40.0 0 0 - 6 10 60.0 0 5 5 4 0 2 5 3 11
p173
aVTyler Ennis MIL 03/09/2016 MIL vs. MIA W 26 8 3 7 42.9 1 1 100.0 1 2 50.0 0 0 0 5 0 0 1 2 6
p174
aVJohnny O'Bryant III MIL 03/09/2016 MIL vs. MIA W 8 3 1 1 100.0 0 0 - 1 2 50.0 1 1 2 0 0 0 0 0 1
p175
aVGreg Monroe MIL 03/09/2016 MIL vs. MIA W 23 10 4 9 44.4 0 0 - 2 2 100.0 4 4 8 4 1 0 2 2 2
p176
aVKhris Middleton MIL 03/09/2016 MIL vs. MIA W 40 22 8 15 53.3 1 3 33.3 5 5 100.0 1 6 7 8 1 0 4 4 13
p177
aVGiannis Antetokounmpo MIL 03/09/2016 MIL vs. MIA W 37 24 9 15 60.0 0 0 - 6 10 60.0 2 5 7 6 2 0 2 4 5
p178
aVMiles Plumlee MIL 03/09/2016 MIL vs. MIA W 24 18 8 12 66.7 0 0 - 2 3 66.7 2 2 4 1 1 0 3 3 2
p179
aVJerryd Bayless MIL 03/09/2016 MIL vs. MIA W 40 6 2 7 28.6 1 2 50.0 1 2 50.0 1 1 2 3 0 0 0 3 7
p180
aVRashad Vaughn MIL 03/09/2016 MIL vs. MIA W 4 0 0 1 0.0 0 1 0.0 0 0 - 0 1 1 0 0 0 0 0 1
p181
aVJabari Parker MIL 03/09/2016 MIL vs. MIA W 38 23 7 13 53.8 1 1 100.0 8 11 72.7 1 2 3 0 2 0 1 1 -7
p182
aVMiles Plumlee MIL 03/07/2016 MIL @ CHI L 19 6 3 5 60.0 0 0 - 0 2 0.0 5 2 7 0 0 0 0 2 -14
p183
aVGreg Monroe MIL 03/07/2016 MIL @ CHI L 29 11 5 14 35.7 0 0 - 1 2 50.0 6 8 14 3 0 1 0 4 4
p184
aVKhris Middleton MIL 03/07/2016 MIL @ CHI L 43 18 7 21 33.3 1 5 20.0 3 4 75.0 1 4 5 3 2 1 4 3 -20
p185
aVGiannis Antetokounmpo MIL 03/07/2016 MIL @ CHI L 37 12 5 13 38.5 0 1 0.0 2 2 100.0 0 5 5 10 3 1 3 1 -18
p186
aVJabari Parker MIL 03/07/2016 MIL @ CHI L 38 18 7 17 41.2 0 0 - 4 5 80.0 4 7 11 1 1 1 0 5 -8
p187
aVRashad Vaughn MIL 03/07/2016 MIL @ CHI L 10 3 1 2 50.0 1 2 50.0 0 0 - 0 0 0 1 0 0 0 0 4
p188
aVO.J. Mayo MIL 03/07/2016 MIL @ CHI L 26 2 1 4 25.0 0 2 0.0 0 0 - 1 3 4 2 0 1 4 3 10
p189
aVJerryd Bayless MIL 03/07/2016 MIL @ CHI L 38 20 7 15 46.7 5 8 62.5 1 2 50.0 1 1 2 4 1 0 0 1 -8
p190
aVGreg Monroe MIL 03/06/2016 MIL vs. OKC L 30 9 4 10 40.0 0 0 - 1 2 50.0 6 4 10 2 2 0 1 1 2
p191
aVJerryd Bayless MIL 03/06/2016 MIL vs. OKC L 32 12 2 4 50.0 1 3 33.3 7 8 87.5 2 4 6 1 0 0 2 4 -4
p192
aVGiannis Antetokounmpo MIL 03/06/2016 MIL vs. OKC L 42 26 8 20 40.0 0 2 0.0 10 11 90.9 2 10 12 10 3 4 2 3 -9
p193
aVJabari Parker MIL 03/06/2016 MIL vs. OKC L 36 26 12 23 52.2 0 2 0.0 2 3 66.7 0 5 5 4 2 1 1 3 10
p194
aVTyler Ennis MIL 03/06/2016 MIL vs. OKC L 7 3 1 5 20.0 0 1 0.0 1 2 50.0 0 0 0 2 2 0 0 0 -2
p195
aVMiles Plumlee MIL 03/06/2016 MIL vs. OKC L 18 2 1 2 50.0 0 0 - 0 0 - 3 2 5 0 0 1 1 1 -10
p196
aVKhris Middleton MIL 03/06/2016 MIL vs. OKC L 40 18 6 19 31.6 2 6 33.3 4 4 100.0 1 4 5 3 5 0 2 5 -6
p197
aVRashad Vaughn MIL 03/06/2016 MIL vs. OKC L 11 0 0 4 0.0 0 3 0.0 0 0 - 0 0 0 0 0 0 0 2 -1
p198
aVO.J. Mayo MIL 03/06/2016 MIL vs. OKC L 24 0 0 3 0.0 0 2 0.0 0 0 - 0 0 0 0 3 0 1 5 -20
p199
aVKhris Middleton MIL 03/04/2016 MIL vs. MIN W 34 32 11 16 68.8 8 9 88.9 2 2 100.0 0 2 2 2 2 0 2 3 21
p200
aVRashad Vaughn MIL 03/04/2016 MIL vs. MIN W 12 0 0 3 0.0 0 1 0.0 0 0 - 0 1 1 0 2 0 0 0 -8
p201
aVGiannis Antetokounmpo MIL 03/04/2016 MIL vs. MIN W 35 27 9 17 52.9 0 0 - 9 10 90.0 2 7 9 12 3 2 4 2 24
p202
aVMiles Plumlee MIL 03/04/2016 MIL vs. MIN W 16 9 4 4 100.0 0 0 - 1 2 50.0 1 5 6 0 0 0 0 2 14
p203
aVO.J. Mayo MIL 03/04/2016 MIL vs. MIN W 32 12 4 8 50.0 4 8 50.0 0 0 - 0 1 1 0 3 0 2 5 17
p204
aVTyler Ennis MIL 03/04/2016 MIL vs. MIN W 7 0 0 1 0.0 0 0 - 0 0 - 0 1 1 1 0 0 0 0 -6
p205
aVGreg Monroe MIL 03/04/2016 MIL vs. MIN W 32 14 6 6 100.0 0 0 - 2 4 50.0 4 5 9 4 0 3 6 2 1
p206
aVJohnny O'Bryant III MIL 03/04/2016 MIL vs. MIN W 7 0 0 1 0.0 0 0 - 0 0 - 1 0 1 0 0 0 0 2 -7
p207
aVJerryd Bayless MIL 03/04/2016 MIL vs. MIN W 26 6 2 9 22.2 1 4 25.0 1 1 100.0 0 1 1 1 1 0 0 0 -5
p208
aVJabari Parker MIL 03/04/2016 MIL vs. MIN W 39 16 7 18 38.9 1 2 50.0 1 1 100.0 1 5 6 4 2 1 4 3 24
p209
aVGreg Monroe MIL 03/02/2016 MIL vs. IND L 29 16 5 9 55.6 0 0 - 6 8 75.0 1 6 7 0 1 0 1 1 1
p210
aVO.J. Mayo MIL 03/02/2016 MIL vs. IND L 34 3 1 4 25.0 1 4 25.0 0 0 - 0 5 5 2 1 0 2 5 -5
p211
aVJerryd Bayless MIL 03/02/2016 MIL vs. IND L 32 11 3 9 33.3 0 5 0.0 5 5 100.0 0 3 3 5 0 0 0 4 -5
p212
aVJabari Parker MIL 03/02/2016 MIL vs. IND L 37 18 8 15 53.3 0 0 - 2 2 100.0 2 2 4 0 2 0 4 3 1
p213
aVRashad Vaughn MIL 03/02/2016 MIL vs. IND L 10 0 0 1 0.0 0 0 - 0 0 - 0 1 1 0 0 0 0 2 -5
p214
aVMiles Plumlee MIL 03/02/2016 MIL vs. IND L 19 6 3 3 100.0 0 0 - 0 0 - 1 5 6 0 1 0 0 2 -6
p215
aVGiannis Antetokounmpo MIL 03/02/2016 MIL vs. IND L 41 22 7 16 43.8 0 0 - 8 8 100.0 1 5 6 3 1 1 2 3 -6
p216
aVKhris Middleton MIL 03/02/2016 MIL vs. IND L 38 23 7 19 36.8 2 5 40.0 7 9 77.8 1 4 5 4 2 0 3 1 0
p217
aVO.J. Mayo MIL 02/29/2016 MIL vs. HOU W 13 0 0 2 0.0 0 1 0.0 0 0 - 0 2 2 1 0 0 3 2 0
p218
aVRashad Vaughn MIL 02/29/2016 MIL vs. HOU W 14 7 3 3 100.0 1 1 100.0 0 0 - 0 0 0 1 0 0 0 1 -2
p219
aVMiles Plumlee MIL 02/29/2016 MIL vs. HOU W 28 9 4 8 50.0 0 0 - 1 2 50.0 5 3 8 2 0 1 1 5 -4
p220
aVGreg Monroe MIL 02/29/2016 MIL vs. HOU W 20 10 5 9 55.6 0 0 - 0 0 - 2 4 6 1 0 0 0 5 10
p221
aVGiannis Antetokounmpo MIL 02/29/2016 MIL vs. HOU W 42 18 7 13 53.8 0 1 0.0 4 11 36.4 0 16 16 11 4 2 5 4 13
p222
aVJabari Parker MIL 02/29/2016 MIL vs. HOU W 40 36 16 25 64.0 1 1 100.0 3 3 100.0 1 3 4 5 2 0 5 1 3
p223
aVJohnny O'Bryant III MIL 02/29/2016 MIL vs. HOU W 4 0 0 1 0.0 0 0 - 0 0 - 0 0 0 1 0 0 0 0 3
p224
aVKhris Middleton MIL 02/29/2016 MIL vs. HOU W 44 30 7 10 70.0 1 3 33.3 15 15 100.0 1 2 3 4 5 1 2 3 4
p225
aVJerryd Bayless MIL 02/29/2016 MIL vs. HOU W 35 18 6 10 60.0 5 8 62.5 1 2 50.0 1 2 3 4 1 0 1 3 8
p226
aVRashad Vaughn MIL 02/27/2016 MIL vs. DET L 12 0 0 1 0.0 0 1 0.0 0 0 - 0 0 0 1 0 0 0 0 -1
p227
aVO.J. Mayo MIL 02/27/2016 MIL vs. DET L 25 9 3 5 60.0 3 4 75.0 0 0 - 0 2 2 2 0 0 2 5 -3
p228
aVJohnny O'Bryant III MIL 02/27/2016 MIL vs. DET L 3 0 0 1 0.0 0 0 - 0 0 - 0 1 1 0 0 0 0 0 5
p229
aVJabari Parker MIL 02/27/2016 MIL vs. DET L 34 13 5 10 50.0 0 0 - 3 4 75.0 0 5 5 3 0 0 2 2 -13
p230
aVKhris Middleton MIL 02/27/2016 MIL vs. DET L 40 26 11 20 55.0 2 3 66.7 2 2 100.0 1 6 7 2 1 1 1 4 -10
p231
aVSteve Novak MIL 02/27/2016 MIL vs. DET L 11 4 1 2 50.0 1 2 50.0 1 1 100.0 0 0 0 0 0 0 0 0 -7
p232
aVTyler Ennis MIL 02/27/2016 MIL vs. DET L 3 3 1 1 100.0 1 1 100.0 0 0 - 0 0 0 0 0 0 0 1 3
p233
aVGiannis Antetokounmpo MIL 02/27/2016 MIL vs. DET L 38 8 3 11 27.3 0 0 - 2 2 100.0 2 10 12 7 0 0 3 4 -10
p234
aVMiles Plumlee MIL 02/27/2016 MIL vs. DET L 21 10 5 7 71.4 0 0 - 0 0 - 5 1 6 0 1 2 2 1 -5
p235
aVGreg Monroe MIL 02/27/2016 MIL vs. DET L 27 10 5 10 50.0 0 0 - 0 0 - 4 3 7 3 1 1 4 3 -6
p236
aVMichael Carter-Williams MIL 02/27/2016 MIL vs. DET L 26 8 4 10 40.0 0 1 0.0 0 3 0.0 0 4 4 3 0 3 7 3 -8
p237
aVMichael Carter-Williams MIL 02/25/2016 MIL @ BOS L 33 12 5 13 38.5 0 2 0.0 2 2 100.0 0 3 3 3 0 0 3 4 -4
p238
aVGiannis Antetokounmpo MIL 02/25/2016 MIL @ BOS L 31 14 6 12 50.0 0 0 - 2 5 40.0 2 5 7 8 1 3 2 3 -14
p239
aVKhris Middleton MIL 02/25/2016 MIL @ BOS L 42 21 8 15 53.3 1 4 25.0 4 4 100.0 0 5 5 6 3 0 3 2 -5
p240
aVMiles Plumlee MIL 02/25/2016 MIL @ BOS L 14 5 1 2 50.0 0 0 - 3 4 75.0 0 1 1 0 0 1 1 0 -9
p241
aVJabari Parker MIL 02/25/2016 MIL @ BOS L 37 22 8 16 50.0 0 1 0.0 6 7 85.7 3 3 6 2 1 0 2 5 -6
p242
aVJohnny O'Bryant III MIL 02/25/2016 MIL @ BOS L 4 0 0 1 0.0 0 0 - 0 0 - 1 0 1 0 0 0 0 3 -7
p243
aVSteve Novak MIL 02/25/2016 MIL @ BOS L 7 3 1 3 33.3 1 3 33.3 0 0 - 0 1 1 0 0 0 0 1 11
p244
aVGreg Monroe MIL 02/25/2016 MIL @ BOS L 34 20 9 13 69.2 0 0 - 2 3 66.7 1 7 8 4 1 2 0 3 4
p245
aVTyler Ennis MIL 02/25/2016 MIL @ BOS L 5 2 1 2 50.0 0 0 - 0 0 - 0 0 0 1 1 0 1 1 2
p246
aVO.J. Mayo MIL 02/25/2016 MIL @ BOS L 20 3 1 4 25.0 1 3 33.3 0 0 - 0 0 0 2 1 1 2 4 -2
p247
aVRashad Vaughn MIL 02/25/2016 MIL @ BOS L 13 5 2 6 33.3 1 2 50.0 0 0 - 0 3 3 0 1 0 0 1 5
p248
aVGreg Monroe MIL 02/22/2016 MIL vs. LAL W 27 12 5 9 55.6 0 0 - 2 2 100.0 1 7 8 1 2 1 1 1 -5
p249
aVO.J. Mayo MIL 02/22/2016 MIL vs. LAL W 24 12 4 7 57.1 4 7 57.1 0 0 - 0 3 3 4 0 0 0 5 6
p250
aVRashad Vaughn MIL 02/22/2016 MIL vs. LAL W 17 0 0 3 0.0 0 1 0.0 0 0 - 0 0 0 4 0 0 2 4 -4
p251
aVJabari Parker MIL 02/22/2016 MIL vs. LAL W 36 15 7 15 46.7 0 0 - 1 2 50.0 1 8 9 4 1 1 2 4 3
p252
aVGiannis Antetokounmpo MIL 02/22/2016 MIL vs. LAL W 42 27 12 17 70.6 0 1 0.0 3 6 50.0 2 10 12 10 3 4 1 3 13
p253
aVKhris Middleton MIL 02/22/2016 MIL vs. LAL W 35 18 5 15 33.3 1 5 20.0 7 8 87.5 1 1 2 6 2 0 1 1 25
p254
aVJohnny O'Bryant III MIL 02/22/2016 MIL vs. LAL W 1 0 0 0 - 0 0 - 0 0 - 0 0 0 0 0 0 1 1 -4
p255
aVMiles Plumlee MIL 02/22/2016 MIL vs. LAL W 21 14 7 7 100.0 0 0 - 0 4 0.0 1 4 5 1 0 1 0 3 12
p256
aVSteve Novak MIL 02/22/2016 MIL vs. LAL W 1 0 0 1 0.0 0 1 0.0 0 0 - 0 0 0 0 0 0 0 1 -4
p257
aVMichael Carter-Williams MIL 02/22/2016 MIL vs. LAL W 35 10 4 12 33.3 0 1 0.0 2 3 66.7 1 4 5 2 2 1 0 4 -7
p258
aVO.J. Mayo MIL 02/20/2016 MIL @ ATL W 38 9 3 8 37.5 2 5 40.0 1 2 50.0 0 7 7 6 5 0 3 1 1
p259
aVGreg Monroe MIL 02/20/2016 MIL @ ATL W 36 24 10 20 50.0 0 0 - 4 7 57.1 5 7 12 4 1 1 0 2 4
p260
aVMichael Carter-Williams MIL 02/20/2016 MIL @ ATL W 38 17 6 14 42.9 0 3 0.0 5 8 62.5 1 8 9 2 1 3 1 5 -2
p261
aVMiles Plumlee MIL 02/20/2016 MIL @ ATL W 22 6 3 4 75.0 0 0 - 0 0 - 5 2 7 0 1 1 3 2 4
p262
aVJabari Parker MIL 02/20/2016 MIL @ ATL W 51 28 11 21 52.4 0 0 - 6 7 85.7 3 10 13 2 0 0 0 1 18
p263
aVRashad Vaughn MIL 02/20/2016 MIL @ ATL W 19 2 1 4 25.0 0 2 0.0 0 0 - 0 1 1 2 0 1 1 2 -2
p264
aVKhris Middleton MIL 02/20/2016 MIL @ ATL W 48 12 4 16 25.0 1 6 16.7 3 4 75.0 1 3 4 4 4 2 4 2 15
p265
aVGiannis Antetokounmpo MIL 02/20/2016 MIL @ ATL W 38 19 8 17 47.1 0 1 0.0 3 4 75.0 2 10 12 3 0 2 5 6 2
p266
aVKhris Middleton MIL 02/19/2016 MIL vs. CHA L 39 20 6 17 35.3 3 4 75.0 5 7 71.4 2 2 4 7 2 1 6 1 1
p267
aVJabari Parker MIL 02/19/2016 MIL vs. CHA L 42 23 10 19 52.6 0 1 0.0 3 4 75.0 3 8 11 2 1 0 5 2 -4
p268
aVMichael Carter-Williams MIL 02/19/2016 MIL vs. CHA L 29 14 6 7 85.7 2 3 66.7 0 0 - 0 6 6 3 1 2 2 3 -9
p269
aVGiannis Antetokounmpo MIL 02/19/2016 MIL vs. CHA L 39 18 7 17 41.2 0 1 0.0 4 6 66.7 2 10 12 4 1 1 2 2 1
p270
aVMiles Plumlee MIL 02/19/2016 MIL vs. CHA L 18 6 3 5 60.0 0 0 - 0 0 - 2 3 5 1 1 3 0 3 9
p271
aVGreg Monroe MIL 02/19/2016 MIL vs. CHA L 30 4 0 2 0.0 0 0 - 4 4 100.0 1 5 6 2 1 3 4 3 -12
p272
aVO.J. Mayo MIL 02/19/2016 MIL vs. CHA L 29 6 2 5 40.0 2 4 50.0 0 0 - 2 1 3 2 0 1 3 3 0
p273
aVRashad Vaughn MIL 02/19/2016 MIL vs. CHA L 15 4 2 9 22.2 0 6 0.0 0 0 - 0 0 0 1 0 0 0 0 -1
p274
aVGreg Monroe MIL 02/11/2016 MIL vs. WAS W 33 12 5 13 38.5 0 0 - 2 4 50.0 3 6 9 1 2 0 1 4 9
p275
aVMichael Carter-Williams MIL 02/11/2016 MIL vs. WAS W 20 5 1 5 20.0 0 1 0.0 3 4 75.0 1 4 5 3 1 0 4 3 9
p276
aVGiannis Antetokounmpo MIL 02/11/2016 MIL vs. WAS W 37 17 6 16 37.5 1 2 50.0 4 5 80.0 4 9 13 3 0 1 2 1 -4
p277
aVRashad Vaughn MIL 02/11/2016 MIL vs. WAS W 14 8 2 4 50.0 1 3 33.3 3 3 100.0 0 1 1 0 0 0 0 1 16
p278
aVJabari Parker MIL 02/11/2016 MIL vs. WAS W 41 17 7 11 63.6 0 0 - 3 6 50.0 3 6 9 4 1 0 4 1 5
p279
aVKhris Middleton MIL 02/11/2016 MIL vs. WAS W 40 27 9 17 52.9 1 3 33.3 8 9 88.9 2 4 6 9 5 0 2 2 -8
p280
aVJerryd Bayless MIL 02/11/2016 MIL vs. WAS W 21 7 3 10 30.0 1 4 25.0 0 0 - 1 7 8 2 0 1 0 1 13
p281
aVMiles Plumlee MIL 02/11/2016 MIL vs. WAS W 15 4 2 2 100.0 0 0 - 0 1 0.0 1 5 6 1 0 1 2 2 -2
p282
aVO.J. Mayo MIL 02/11/2016 MIL vs. WAS W 20 2 1 4 25.0 0 1 0.0 0 0 - 0 1 1 1 1 1 3 4 -3
p283
aVO.J. Mayo MIL 02/09/2016 MIL vs. BOS W 18 0 0 2 0.0 0 2 0.0 0 0 - 0 1 1 6 0 0 1 4 -2
p284
aVKhris Middleton MIL 02/09/2016 MIL vs. BOS W 38 20 6 16 37.5 2 7 28.6 6 8 75.0 1 4 5 5 0 0 3 3 -5
p285
aVRashad Vaughn MIL 02/09/2016 MIL vs. BOS W 14 3 1 2 50.0 1 2 50.0 0 0 - 0 2 2 0 0 0 0 0 10
p286
aVJabari Parker MIL 02/09/2016 MIL vs. BOS W 27 10 5 12 41.7 0 0 - 0 1 0.0 1 2 3 2 1 0 1 0 -2
p287
aVGreg Monroe MIL 02/09/2016 MIL vs. BOS W 30 29 13 21 61.9 0 0 - 3 6 50.0 6 6 12 3 1 2 3 1 9
p288
aVJerryd Bayless MIL 02/09/2016 MIL vs. BOS W 32 14 5 9 55.6 4 6 66.7 0 0 - 0 1 1 2 0 0 3 5 -4
p289
aVMiles Plumlee MIL 02/09/2016 MIL vs. BOS W 18 6 3 6 50.0 0 0 - 0 0 - 1 4 5 0 0 1 1 0 -8
p290
aVMichael Carter-Williams MIL 02/09/2016 MIL vs. BOS W 26 16 6 8 75.0 0 1 0.0 4 6 66.7 1 5 6 5 1 0 2 5 7
p291
aVGiannis Antetokounmpo MIL 02/09/2016 MIL vs. BOS W 37 14 6 12 50.0 0 1 0.0 2 2 100.0 1 2 3 2 2 3 0 2 0
p292
aVMichael Carter-Williams MIL 02/05/2016 MIL @ UTA L 29 10 5 14 35.7 0 2 0.0 0 1 0.0 1 5 6 4 3 1 3 3 -8
p293
aVJerryd Bayless MIL 02/05/2016 MIL @ UTA L 25 15 5 8 62.5 5 6 83.3 0 1 0.0 0 3 3 2 1 0 1 1 -1
p294
aVJabari Parker MIL 02/05/2016 MIL @ UTA L 33 2 1 6 16.7 0 0 - 0 0 - 1 3 4 0 0 1 1 4 -2
p295
aVTyler Ennis MIL 02/05/2016 MIL @ UTA L 8 0 0 0 - 0 0 - 0 0 - 0 1 1 1 2 0 0 0 7
p296
aVKhris Middleton MIL 02/05/2016 MIL @ UTA L 40 18 6 16 37.5 1 4 25.0 5 5 100.0 0 6 6 2 3 0 9 3 -4
p297
aVGreg Monroe MIL 02/05/2016 MIL @ UTA L 33 14 5 9 55.6 0 0 - 4 6 66.7 2 7 9 0 1 1 2 1 -11
p298
aVJohnny O'Bryant III MIL 02/05/2016 MIL @ UTA L 15 2 1 5 20.0 0 0 - 0 0 - 0 3 3 0 0 0 1 0 1
p299
aVMiles Plumlee MIL 02/05/2016 MIL @ UTA L 14 6 3 4 75.0 0 0 - 0 0 - 2 1 3 0 1 3 0 1 8
p300
aVGiannis Antetokounmpo MIL 02/05/2016 MIL @ UTA L 33 14 4 8 50.0 1 2 50.0 5 8 62.5 1 5 6 0 1 1 3 3 -7
p301
aVRashad Vaughn MIL 02/05/2016 MIL @ UTA L 10 0 0 1 0.0 0 0 - 0 0 - 0 0 0 0 0 0 0 1 2
p302
aVJohnny O'Bryant III MIL 02/02/2016 MIL @ POR L 3 2 1 2 50.0 0 0 - 0 0 - 0 0 0 2 0 0 0 1 3
p303
aVGiannis Antetokounmpo MIL 02/02/2016 MIL @ POR L 39 19 7 15 46.7 1 2 50.0 4 9 44.4 1 7 8 5 2 1 2 1 -12
p304
aVChris Copeland MIL 02/02/2016 MIL @ POR L 3 0 0 0 - 0 0 - 0 0 - 0 0 0 0 0 0 0 1 3
p305
aVKhris Middleton MIL 02/02/2016 MIL @ POR L 39 21 7 22 31.8 2 5 40.0 5 8 62.5 3 5 8 3 3 0 3 3 -16
p306
aVMiles Plumlee MIL 02/02/2016 MIL @ POR L 18 8 4 8 50.0 0 0 - 0 0 - 3 3 6 0 0 1 0 1 6
p307
aVJabari Parker MIL 02/02/2016 MIL @ POR L 32 6 3 7 42.9 0 1 0.0 0 0 - 0 1 1 1 1 1 2 3 -17
p308
aVRashad Vaughn MIL 02/02/2016 MIL @ POR L 18 4 2 4 50.0 0 2 0.0 0 0 - 0 3 3 0 1 0 1 1 2
p309
aVGreg Monroe MIL 02/02/2016 MIL @ POR L 30 17 7 15 46.7 0 0 - 3 5 60.0 2 6 8 3 0 0 1 3 -18
p310
aVTyler Ennis MIL 02/02/2016 MIL @ POR L 3 0 0 0 - 0 0 - 0 0 - 0 2 2 2 0 0 0 0 3
p311
aVJerryd Bayless MIL 02/02/2016 MIL @ POR L 30 16 6 9 66.7 2 3 66.7 2 2 100.0 0 1 1 5 0 1 2 2 -5
p312
aVMichael Carter-Williams MIL 02/02/2016 MIL @ POR L 26 2 1 4 25.0 0 1 0.0 0 0 - 3 3 6 2 0 0 2 2 -9
p313
aVKhris Middleton MIL 02/01/2016 MIL @ SAC L 34 14 6 17 35.3 2 7 28.6 0 1 0.0 0 0 0 2 3 0 3 3 -1
p314
aVJerryd Bayless MIL 02/01/2016 MIL @ SAC L 27 6 2 9 22.2 2 6 33.3 0 0 - 0 4 4 5 1 0 2 3 -4
p315
aVJabari Parker MIL 02/01/2016 MIL @ SAC L 37 16 8 13 61.5 0 0 - 0 0 - 3 4 7 2 2 0 2 5 -2
p316
aVMiles Plumlee MIL 02/01/2016 MIL @ SAC L 13 0 0 1 0.0 0 0 - 0 0 - 2 1 3 0 0 2 2 3 -2
p317
aVRashad Vaughn MIL 02/01/2016 MIL @ SAC L 18 9 3 6 50.0 3 5 60.0 0 0 - 0 1 1 1 1 1 0 3 -4
p318
aVMichael Carter-Williams MIL 02/01/2016 MIL @ SAC L 34 18 6 8 75.0 1 1 100.0 5 6 83.3 0 5 5 13 1 1 3 4 -1
p319
aVGreg Monroe MIL 02/01/2016 MIL @ SAC L 35 24 11 16 68.8 0 0 - 2 3 66.7 5 7 12 3 1 1 1 1 -5
p320
aVJohnny O'Bryant III MIL 02/01/2016 MIL @ SAC L 6 0 0 2 0.0 0 0 - 0 0 - 0 0 0 0 0 0 0 1 -4
p321
aVGiannis Antetokounmpo MIL 02/01/2016 MIL @ SAC L 35 17 6 12 50.0 0 1 0.0 5 7 71.4 0 5 5 1 2 0 2 4 -12
p322
aVKhris Middleton MIL 01/29/2016 MIL vs. MIA L 39 9 2 13 15.4 0 3 0.0 5 5 100.0 2 5 7 0 2 0 4 2 8
p323
aVRashad Vaughn MIL 01/29/2016 MIL vs. MIA L 11 8 3 4 75.0 2 3 66.7 0 0 - 0 1 1 0 0 0 1 1 -7
p324
aVGreg Monroe MIL 01/29/2016 MIL vs. MIA L 34 24 7 14 50.0 0 0 - 10 11 90.9 3 2 5 1 0 1 0 2 1
p325
aVTyler Ennis MIL 01/29/2016 MIL vs. MIA L 6 0 0 0 - 0 0 - 0 0 - 0 2 2 1 0 0 2 2 0
p326
aVMichael Carter-Williams MIL 01/29/2016 MIL vs. MIA L 26 9 4 9 44.4 0 1 0.0 1 2 50.0 1 7 8 6 2 0 2 5 -2
p327
aVJabari Parker MIL 01/29/2016 MIL vs. MIA L 39 17 7 13 53.8 0 0 - 3 3 100.0 3 2 5 1 1 1 4 2 -8
p328
aVGiannis Antetokounmpo MIL 01/29/2016 MIL vs. MIA L 46 28 11 17 64.7 0 2 0.0 6 7 85.7 0 4 4 6 3 2 6 4 6
p329
aVJerryd Bayless MIL 01/29/2016 MIL vs. MIA L 24 0 0 4 0.0 0 3 0.0 0 0 - 0 1 1 3 1 0 0 2 -13
p330
aVMiles Plumlee MIL 01/29/2016 MIL vs. MIA L 14 8 4 6 66.7 0 0 - 0 0 - 4 3 7 0 1 1 0 0 -5
p331
aVGiannis Antetokounmpo MIL 01/28/2016 MIL @ MEM L 35 7 2 10 20.0 0 0 - 3 4 75.0 2 5 7 3 0 0 2 4 -19
p332
aVGreg Monroe MIL 01/28/2016 MIL @ MEM L 25 21 8 13 61.5 0 0 - 5 6 83.3 2 5 7 2 0 0 5 1 -15
p333
aVJohnny O'Bryant III MIL 01/28/2016 MIL @ MEM L 20 0 0 4 0.0 0 0 - 0 0 - 2 2 4 0 0 0 0 1 -18
p334
aVMiles Plumlee MIL 01/28/2016 MIL @ MEM L 19 6 3 5 60.0 0 0 - 0 0 - 2 3 5 1 2 2 0 1 1
p335
aVMichael Carter-Williams MIL 01/28/2016 MIL @ MEM L 27 10 4 7 57.1 0 2 0.0 2 2 100.0 1 5 6 1 0 0 3 2 -11
p336
aVKhris Middleton MIL 01/28/2016 MIL @ MEM L 32 15 6 18 33.3 1 4 25.0 2 2 100.0 4 1 5 6 3 0 1 1 -10
p337
aVJerryd Bayless MIL 01/28/2016 MIL @ MEM L 20 9 2 4 50.0 0 1 0.0 5 5 100.0 0 3 3 3 1 1 2 1 -14
p338
aVJabari Parker MIL 01/28/2016 MIL @ MEM L 29 7 2 5 40.0 0 0 - 3 4 75.0 3 5 8 0 1 0 0 2 -12
p339
aVTyler Ennis MIL 01/28/2016 MIL @ MEM L 5 4 1 3 33.3 0 1 0.0 2 2 100.0 0 1 1 0 0 0 0 1 5
p340
aVRashad Vaughn MIL 01/28/2016 MIL @ MEM L 21 2 1 7 14.3 0 5 0.0 0 0 - 0 0 0 0 1 0 0 1 -9
p341
aVChris Copeland MIL 01/28/2016 MIL @ MEM L 7 2 0 3 0.0 0 3 0.0 2 2 100.0 0 0 0 1 0 0 1 1 2
p342
aVRashad Vaughn MIL 01/26/2016 MIL vs. ORL W 6 0 0 2 0.0 0 2 0.0 0 0 - 0 0 0 0 0 0 0 0 -1
p343
aVKhris Middleton MIL 01/26/2016 MIL vs. ORL W 36 25 6 14 42.9 2 4 50.0 11 11 100.0 1 4 5 7 1 0 2 2 11
p344
aVJohn Henson MIL 01/26/2016 MIL vs. ORL W 17 2 1 3 33.3 0 0 - 0 0 - 0 3 3 4 0 4 0 6 10
p345
aVJabari Parker MIL 01/26/2016 MIL vs. ORL W 33 15 6 8 75.0 0 0 - 3 4 75.0 0 7 7 1 0 1 3 1 -6
p346
aVJerryd Bayless MIL 01/26/2016 MIL vs. ORL W 30 12 3 9 33.3 3 6 50.0 3 5 60.0 0 5 5 1 1 0 0 4 -2
p347
aVJohnny O'Bryant III MIL 01/26/2016 MIL vs. ORL W 10 2 1 2 50.0 0 0 - 0 0 - 2 1 3 0 0 1 0 1 6
p348
aVGreg Monroe MIL 01/26/2016 MIL vs. ORL W 31 21 7 15 46.7 0 0 - 7 8 87.5 5 6 11 2 0 0 2 2 -3
p349
aVGiannis Antetokounmpo MIL 01/26/2016 MIL vs. ORL W 38 25 12 16 75.0 0 0 - 1 1 100.0 3 6 9 2 2 1 2 2 18
p350
aVMichael Carter-Williams MIL 01/26/2016 MIL vs. ORL W 38 5 2 8 25.0 0 1 0.0 1 2 50.0 0 2 2 5 1 0 3 5 2
p351
aVMichael Carter-Williams MIL 01/23/2016 MIL @ NOP L 33 19 9 12 75.0 0 0 - 1 2 50.0 0 4 4 5 2 2 4 4 -2
p352
aVJohnny O'Bryant III MIL 01/23/2016 MIL @ NOP L 16 4 2 5 40.0 0 0 - 0 0 - 1 2 3 0 0 0 0 2 -10
p353
aVKhris Middleton MIL 01/23/2016 MIL @ NOP L 33 22 8 16 50.0 4 7 57.1 2 2 100.0 0 7 7 5 0 0 5 0 -18
p354
aVJohn Henson MIL 01/23/2016 MIL @ NOP L 15 4 2 3 66.7 0 0 - 0 0 - 0 2 2 1 0 0 1 2 -16
p355
aVTyler Ennis MIL 01/23/2016 MIL @ NOP L 3 2 1 1 100.0 0 0 - 0 0 - 0 0 0 1 0 0 0 0 -2
p356
aVChris Copeland MIL 01/23/2016 MIL @ NOP L 3 3 1 2 50.0 1 2 50.0 0 0 - 0 0 0 0 0 0 0 0 -2
p357
aVGreg Monroe MIL 01/23/2016 MIL @ NOP L 30 22 8 13 61.5 0 0 - 6 6 100.0 4 7 11 2 0 1 2 3 1
p358
aVMiles Plumlee MIL 01/23/2016 MIL @ NOP L 3 0 0 0 - 0 0 - 0 0 - 0 1 1 0 0 0 0 0 -2
p359
aVGiannis Antetokounmpo MIL 01/23/2016 MIL @ NOP L 28 10 4 8 50.0 0 0 - 2 4 50.0 0 6 6 2 1 1 4 6 -4
p360
aVJerryd Bayless MIL 01/23/2016 MIL @ NOP L 21 3 1 5 20.0 1 5 20.0 0 0 - 0 1 1 0 0 1 0 1 -19
p361
aVRashad Vaughn MIL 01/23/2016 MIL @ NOP L 21 0 0 2 0.0 0 1 0.0 0 0 - 0 3 3 1 0 0 0 1 -9
p362
aVJabari Parker MIL 01/23/2016 MIL @ NOP L 34 10 3 7 42.9 0 0 - 4 4 100.0 1 4 5 3 0 1 2 1 -2
p363
aVJerryd Bayless MIL 01/22/2016 MIL @ HOU L 20 3 1 6 16.7 1 4 25.0 0 0 - 1 0 1 6 1 0 2 2 0
p364
aVGreg Monroe MIL 01/22/2016 MIL @ HOU L 30 21 10 17 58.8 0 0 - 1 3 33.3 2 7 9 3 0 4 1 3 -1
p365
aVJohn Henson MIL 01/22/2016 MIL @ HOU L 18 8 2 4 50.0 0 0 - 4 4 100.0 2 4 6 2 0 2 1 3 -3
p366
aVRashad Vaughn MIL 01/22/2016 MIL @ HOU L 5 3 1 1 100.0 1 1 100.0 0 0 - 0 0 0 0 0 0 0 0 -6
p367
aVMichael Carter-Williams MIL 01/22/2016 MIL @ HOU L 35 11 4 11 36.4 0 2 0.0 3 5 60.0 4 8 12 5 2 0 4 3 -3
p368
aVJohnny O'Bryant III MIL 01/22/2016 MIL @ HOU L 16 2 1 4 25.0 0 0 - 0 0 - 1 2 3 1 0 0 0 1 -10
p369
aVKhris Middleton MIL 01/22/2016 MIL @ HOU L 43 21 8 21 38.1 1 7 14.3 4 4 100.0 0 1 1 7 1 1 4 1 2
p370
aVJabari Parker MIL 01/22/2016 MIL @ HOU L 40 11 5 9 55.6 0 0 - 1 2 50.0 3 7 10 4 2 2 1 1 6
p371
aVGiannis Antetokounmpo MIL 01/22/2016 MIL @ HOU L 34 18 7 12 58.3 0 0 - 4 4 100.0 1 5 6 2 1 1 2 3 -5
p372
aVMiles Plumlee MIL 01/19/2016 MIL @ MIA W 3 0 0 0 - 0 0 - 0 0 - 0 0 0 0 0 0 0 1 -3
p373
aVGiannis Antetokounmpo MIL 01/19/2016 MIL @ MIA W 34 14 5 10 50.0 0 0 - 4 4 100.0 2 4 6 4 0 1 5 2 18
p374
aVChris Copeland MIL 01/19/2016 MIL @ MIA W 2 0 0 1 0.0 0 1 0.0 0 0 - 0 0 0 0 0 0 0 0 -2
p375
aVMichael Carter-Williams MIL 01/19/2016 MIL @ MIA W 25 7 3 5 60.0 0 0 - 1 2 50.0 1 2 3 0 2 0 1 1 20
p376
aVJabari Parker MIL 01/19/2016 MIL @ MIA W 36 9 4 7 57.1 0 0 - 1 2 50.0 0 2 2 3 1 0 2 1 16
p377
aVTyler Ennis MIL 01/19/2016 MIL @ MIA W 2 0 0 2 0.0 0 0 - 0 0 - 0 0 0 0 0 0 0 2 -3
p378
aVRashad Vaughn MIL 01/19/2016 MIL @ MIA W 13 0 0 2 0.0 0 1 0.0 0 0 - 0 1 1 0 0 0 0 2 -8
p379
aVJerryd Bayless MIL 01/19/2016 MIL @ MIA W 30 11 4 7 57.1 3 6 50.0 0 0 - 1 2 3 3 1 0 3 3 -2
p380
aVGreg Monroe MIL 01/19/2016 MIL @ MIA W 30 15 6 13 46.2 0 0 - 3 3 100.0 1 9 10 1 0 1 2 1 1
p381
aVKhris Middleton MIL 01/19/2016 MIL @ MIA W 36 22 8 20 40.0 2 4 50.0 4 4 100.0 0 7 7 7 2 0 0 1 20
p382
aVJohnny O'Bryant III MIL 01/19/2016 MIL @ MIA W 16 4 2 2 100.0 0 0 - 0 0 - 1 5 6 1 0 0 2 1 -11
p383
aVJohn Henson MIL 01/19/2016 MIL @ MIA W 15 9 4 5 80.0 0 0 - 1 1 100.0 1 0 1 0 0 2 2 4 14
p384
aVGreg Monroe MIL 01/16/2016 MIL @ CHA W 27 19 7 9 77.8 0 0 - 5 6 83.3 3 7 10 3 0 1 3 3 12
p385
aVJabari Parker MIL 01/16/2016 MIL @ CHA W 30 15 7 9 77.8 0 0 - 1 2 50.0 1 1 2 4 1 0 3 0 10
p386
aVKhris Middleton MIL 01/16/2016 MIL @ CHA W 36 24 11 16 68.8 0 2 0.0 2 2 100.0 0 4 4 2 0 0 1 1 17
p387
aVJerryd Bayless MIL 01/16/2016 MIL @ CHA W 22 3 1 5 20.0 1 3 33.3 0 0 - 1 1 2 6 0 1 1 1 4
p388
aVTyler Ennis MIL 01/16/2016 MIL @ CHA W 3 0 0 0 - 0 0 - 0 0 - 0 0 0 1 0 0 0 1 -4
p389
aVMiles Plumlee MIL 01/16/2016 MIL @ CHA W 3 0 0 0 - 0 0 - 0 0 - 0 0 0 0 0 0 0 1 -4
p390
aVRashad Vaughn MIL 01/16/2016 MIL @ CHA W 17 8 2 4 50.0 2 3 66.7 2 2 100.0 0 2 2 0 1 0 0 1 -4
p391
aVMichael Carter-Williams MIL 01/16/2016 MIL @ CHA W 26 9 3 8 37.5 1 2 50.0 2 2 100.0 0 6 6 4 0 2 1 4 9
p392
aVChris Copeland MIL 01/16/2016 MIL @ CHA W 3 3 1 1 100.0 1 1 100.0 0 0 - 0 1 1 0 0 0 0 0 -4
p393
aVJohnny O'Bryant III MIL 01/16/2016 MIL @ CHA W 19 4 1 6 16.7 0 0 - 2 2 100.0 0 1 1 0 0 1 3 1 3
p394
aVJohn Henson MIL 01/16/2016 MIL @ CHA W 19 6 2 4 50.0 0 0 - 2 4 50.0 0 7 7 0 1 3 0 0 5
p395
aVGiannis Antetokounmpo MIL 01/16/2016 MIL @ CHA W 37 14 4 10 40.0 0 1 0.0 6 6 100.0 1 10 11 3 0 3 3 2 21
p396
aVJohn Henson MIL 01/15/2016 MIL vs. ATL W 31 10 3 6 50.0 0 0 - 4 8 50.0 2 5 7 1 0 6 3 3 16
p397
aVKhris Middleton MIL 01/15/2016 MIL vs. ATL W 46 26 11 23 47.8 0 4 0.0 4 5 80.0 0 4 4 3 3 0 2 0 11
p398
aVTyler Ennis MIL 01/15/2016 MIL vs. ATL W 6 0 0 0 - 0 0 - 0 0 - 0 0 0 1 0 0 0 1 1
p399
aVGiannis Antetokounmpo MIL 01/15/2016 MIL vs. ATL W 50 28 10 18 55.6 1 2 50.0 7 9 77.8 5 11 16 0 1 3 3 3 5
p400
aVJabari Parker MIL 01/15/2016 MIL vs. ATL W 37 10 5 15 33.3 0 1 0.0 0 0 - 3 7 10 2 1 1 1 0 12
p401
aVMichael Carter-Williams MIL 01/15/2016 MIL vs. ATL W 42 15 5 15 33.3 2 3 66.7 3 3 100.0 1 8 9 7 3 2 6 5 7
p402
aVRashad Vaughn MIL 01/15/2016 MIL vs. ATL W 12 0 0 0 - 0 0 - 0 0 - 0 0 0 0 0 0 0 0 -5
p403
aVGreg Monroe MIL 01/15/2016 MIL vs. ATL W 27 15 4 16 25.0 0 0 - 7 12 58.3 10 2 12 4 0 1 1 0 -8
p404
aVJohnny O'Bryant III MIL 01/15/2016 MIL vs. ATL W 13 4 2 3 66.7 0 0 - 0 0 - 0 2 2 1 1 0 0 2 -4
p405
aVRashad Vaughn MIL 01/13/2016 MIL @ WAS L 24 2 1 4 25.0 0 2 0.0 0 0 - 1 1 2 1 0 0 0 3 5
p406
aVO.J. Mayo MIL 01/13/2016 MIL @ WAS L 12 2 1 3 33.3 0 0 - 0 0 - 0 0 0 3 0 0 1 1 -5
p407
aVJabari Parker MIL 01/13/2016 MIL @ WAS L 32 22 9 13 69.2 0 0 - 4 5 80.0 2 4 6 1 1 0 3 2 -17
p408
aVGreg Monroe MIL 01/13/2016 MIL @ WAS L 31 21 8 13 61.5 0 0 - 5 9 55.6 2 10 12 1 2 0 3 1 0
p409
aVJohnny O'Bryant III MIL 01/13/2016 MIL @ WAS L 15 2 0 1 0.0 0 0 - 2 4 50.0 2 2 4 0 0 0 1 3 -5
p410
aVKhris Middleton MIL 01/13/2016 MIL @ WAS L 42 25 9 17 52.9 1 5 20.0 6 7 85.7 1 4 5 5 2 0 5 4 4
p411
aVJohn Henson MIL 01/13/2016 MIL @ WAS L 17 4 2 4 50.0 0 0 - 0 0 - 0 2 2 0 0 1 4 2 -5
p412
aVGiannis Antetokounmpo MIL 01/13/2016 MIL @ WAS L 41 19 6 11 54.5 0 1 0.0 7 9 77.8 1 10 11 6 2 1 6 4 -1
p413
aVMichael Carter-Williams MIL 01/13/2016 MIL @ WAS L 26 4 2 6 33.3 0 0 - 0 0 - 1 4 5 6 3 0 4 1 -1
p414
aVO.J. Mayo MIL 01/12/2016 MIL vs. CHI W 26 5 2 9 22.2 1 4 25.0 0 0 - 0 1 1 4 1 0 0 1 -1
p415
aVJabari Parker MIL 01/12/2016 MIL vs. CHI W 27 16 8 14 57.1 0 0 - 0 2 0.0 2 1 3 0 3 0 1 3 7
p416
aVRashad Vaughn MIL 01/12/2016 MIL vs. CHI W 16 4 2 6 33.3 0 2 0.0 0 0 - 0 0 0 0 2 1 0 1 -5
p417
aVGiannis Antetokounmpo MIL 01/12/2016 MIL vs. CHI W 31 29 10 14 71.4 0 1 0.0 9 14 64.3 3 7 10 5 1 1 0 4 19
p418
aVJohn Henson MIL 01/12/2016 MIL vs. CHI W 22 8 4 8 50.0 0 0 - 0 2 0.0 1 2 3 3 0 5 2 3 -12
p419
aVMichael Carter-Williams MIL 01/12/2016 MIL vs. CHI W 37 11 4 13 30.8 0 0 - 3 5 60.0 0 4 4 6 3 0 0 3 5
p420
aVJohnny O'Bryant III MIL 01/12/2016 MIL vs. CHI W 4 0 0 0 - 0 0 - 0 0 - 1 0 1 0 0 0 0 0 -4
p421
aVGreg Monroe MIL 01/12/2016 MIL vs. CHI W 37 17 7 13 53.8 0 0 - 3 3 100.0 4 8 12 1 1 1 0 1 14
p422
aVKhris Middleton MIL 01/12/2016 MIL vs. CHI W 41 16 6 16 37.5 2 6 33.3 2 2 100.0 3 3 6 9 0 1 2 3 2
p423
aVKhris Middleton MIL 01/10/2016 MIL @ NYK L 38 20 6 16 37.5 1 3 33.3 7 10 70.0 0 1 1 1 1 0 3 3 -16
p424
aVRashad Vaughn MIL 01/10/2016 MIL @ NYK L 29 10 3 6 50.0 2 3 66.7 2 3 66.7 1 1 2 2 1 1 0 0 -5
p425
aVMichael Carter-Williams MIL 01/10/2016 MIL @ NYK L 22 4 1 8 12.5 0 1 0.0 2 4 50.0 1 4 5 6 2 0 3 3 -22
p426
aVJohnny O'Bryant III MIL 01/10/2016 MIL @ NYK L 15 2 1 3 33.3 0 0 - 0 0 - 0 3 3 0 0 0 1 0 1
p427
aVJabari Parker MIL 01/10/2016 MIL @ NYK L 32 14 7 12 58.3 0 0 - 0 0 - 4 2 6 1 2 1 0 3 -23
p428
aVJohn Henson MIL 01/10/2016 MIL @ NYK L 9 0 0 2 0.0 0 0 - 0 0 - 0 1 1 0 0 1 0 1 -19
p429
aVGiannis Antetokounmpo MIL 01/10/2016 MIL @ NYK L 36 8 3 9 33.3 0 4 0.0 2 4 50.0 1 9 10 5 0 0 2 3 7
p430
aVDamien Inglis MIL 01/10/2016 MIL @ NYK L 3 0 0 0 - 0 0 - 0 0 - 0 1 1 0 0 0 0 0 5
p431
aVGreg Monroe MIL 01/10/2016 MIL @ NYK L 33 28 11 16 68.8 0 0 - 6 7 85.7 4 6 10 2 0 1 2 2 9
p432
aVTyler Ennis MIL 01/10/2016 MIL @ NYK L 16 0 0 5 0.0 0 2 0.0 0 0 - 0 0 0 2 0 0 0 1 5
p433
aVMiles Plumlee MIL 01/10/2016 MIL @ NYK L 6 2 0 3 0.0 0 0 - 2 2 100.0 3 0 3 0 1 0 0 0 -2
p434
aVGreg Monroe MIL 01/08/2016 MIL vs. DAL W 28 9 3 10 30.0 0 0 - 3 5 60.0 7 5 12 0 1 0 3 3 -7
p435
aVKhris Middleton MIL 01/08/2016 MIL vs. DAL W 39 27 10 18 55.6 0 1 0.0 7 9 77.8 0 3 3 5 0 0 1 3 -2
p436
aVRashad Vaughn MIL 01/08/2016 MIL vs. DAL W 14 3 1 6 16.7 1 2 50.0 0 0 - 1 0 1 0 0 0 0 3 2
p437
aVJohn Henson MIL 01/08/2016 MIL vs. DAL W 20 16 8 9 88.9 0 0 - 0 0 - 0 3 3 1 1 1 1 0 8
p438
aVO.J. Mayo MIL 01/08/2016 MIL vs. DAL W 35 11 4 8 50.0 3 5 60.0 0 1 0.0 2 3 5 6 1 1 3 0 10
p439
aVGiannis Antetokounmpo MIL 01/08/2016 MIL vs. DAL W 33 5 2 8 25.0 0 0 - 1 4 25.0 1 4 5 1 1 1 3 5 -1
p440
aVMichael Carter-Williams MIL 01/08/2016 MIL vs. DAL W 41 15 5 12 41.7 0 1 0.0 5 8 62.5 2 10 12 8 5 1 3 2 -2
p441
aVJabari Parker MIL 01/08/2016 MIL vs. DAL W 30 10 4 9 44.4 0 0 - 2 2 100.0 2 0 2 3 2 0 1 4 -3
p442
aVJabari Parker MIL 01/05/2016 MIL @ CHI L 34 11 5 12 41.7 0 0 - 1 2 50.0 1 6 7 0 0 0 1 1 -21
p443
aVGiannis Antetokounmpo MIL 01/05/2016 MIL @ CHI L 36 18 8 17 47.1 0 2 0.0 2 5 40.0 2 5 7 2 4 1 0 3 -1
p444
aVJohn Henson MIL 01/05/2016 MIL @ CHI L 19 6 3 5 60.0 0 0 - 0 0 - 4 0 4 1 0 2 1 3 -7
p445
aVKhris Middleton MIL 01/05/2016 MIL @ CHI L 38 26 10 21 47.6 5 10 50.0 1 1 100.0 0 4 4 7 1 0 2 4 -13
p446
aVJohnny O'Bryant III MIL 01/05/2016 MIL @ CHI L 19 6 3 6 50.0 0 0 - 0 0 - 2 2 4 0 1 0 0 3 6
p447
aVRashad Vaughn MIL 01/05/2016 MIL @ CHI L 6 0 0 0 - 0 0 - 0 0 - 0 1 1 0 0 0 0 1 3
p448
aVMichael Carter-Williams MIL 01/05/2016 MIL @ CHI L 37 20 9 14 64.3 1 1 100.0 1 1 100.0 0 3 3 12 2 0 2 1 -14
p449
aVO.J. Mayo MIL 01/05/2016 MIL @ CHI L 20 6 3 9 33.3 0 3 0.0 0 1 0.0 0 1 1 3 0 0 0 1 -4
p450
aVGreg Monroe MIL 01/05/2016 MIL @ CHI L 29 13 5 18 27.8 0 0 - 3 4 75.0 8 4 12 3 1 0 4 2 -4
p451
aVJohn Henson MIL 01/04/2016 MIL vs. SAS L 14 8 4 5 80.0 0 0 - 0 1 0.0 0 4 4 1 0 1 1 3 -10
p452
aVGreg Monroe MIL 01/04/2016 MIL vs. SAS L 28 15 5 9 55.6 0 0 - 5 8 62.5 2 6 8 2 2 1 2 1 -12
p453
aVTyler Ennis MIL 01/04/2016 MIL vs. SAS L 5 0 0 1 0.0 0 0 - 0 0 - 0 0 0 2 0 0 0 1 -3
p454
aVMiles Plumlee MIL 01/04/2016 MIL vs. SAS L 6 2 1 1 100.0 0 0 - 0 0 - 0 0 0 0 0 0 1 0 -3
p455
aVMichael Carter-Williams MIL 01/04/2016 MIL vs. SAS L 31 16 6 10 60.0 1 1 100.0 3 6 50.0 0 4 4 6 1 1 0 3 -7
p456
aVRashad Vaughn MIL 01/04/2016 MIL vs. SAS L 16 2 1 3 33.3 0 1 0.0 0 0 - 0 2 2 2 0 0 3 1 -16
p457
aVJohnny O'Bryant III MIL 01/04/2016 MIL vs. SAS L 8 5 2 3 66.7 0 0 - 1 2 50.0 0 1 1 0 1 0 0 2 -10
p458
aVJerryd Bayless MIL 01/04/2016 MIL vs. SAS L 7 3 1 4 25.0 1 2 50.0 0 0 - 1 0 1 0 0 0 1 1 -8
p459
aVKhris Middleton MIL 01/04/2016 MIL vs. SAS L 34 19 6 13 46.2 0 4 0.0 7 7 100.0 1 2 3 4 0 0 3 2 -13
p460
aVChris Copeland MIL 01/04/2016 MIL vs. SAS L 5 3 1 1 100.0 1 1 100.0 0 0 - 0 0 0 0 0 0 0 0 -3
p461
aVJabari Parker MIL 01/04/2016 MIL vs. SAS L 32 14 5 14 35.7 0 1 0.0 4 4 100.0 4 4 8 3 0 1 0 1 -9
p462
aVGiannis Antetokounmpo MIL 01/04/2016 MIL vs. SAS L 30 11 5 9 55.6 0 2 0.0 1 2 50.0 2 2 4 2 1 1 2 2 -6
p463
aVO.J. Mayo MIL 01/04/2016 MIL vs. SAS L 24 0 0 4 0.0 0 0 - 0 0 - 0 0 0 1 1 0 2 1 -25
p464
aVJohnny O'Bryant III MIL 01/02/2016 MIL @ MIN W 5 2 1 1 100.0 0 0 - 0 0 - 0 0 0 0 1 0 0 2 8
p465
aVMichael Carter-Williams MIL 01/02/2016 MIL @ MIN W 35 5 1 7 14.3 0 0 - 3 4 75.0 1 6 7 6 2 3 1 4 -5
p466
aVKhris Middleton MIL 01/02/2016 MIL @ MIN W 36 13 4 11 36.4 3 5 60.0 2 3 66.7 1 3 4 5 0 0 4 0 -7
p467
aVO.J. Mayo MIL 01/02/2016 MIL @ MIN W 3 0 0 2 0.0 0 0 - 0 0 - 0 0 0 0 0 0 0 2 -4
p468
aVJohn Henson MIL 01/02/2016 MIL @ MIN W 21 15 6 7 85.7 0 0 - 3 6 50.0 2 2 4 1 0 1 1 1 8
p469
aVJabari Parker MIL 01/02/2016 MIL @ MIN W 35 12 4 7 57.1 0 0 - 4 4 100.0 1 5 6 1 0 0 1 4 -11
p470
aVGiannis Antetokounmpo MIL 01/02/2016 MIL @ MIN W 30 11 3 9 33.3 1 2 50.0 4 4 100.0 1 8 9 2 2 0 4 3 19
p471
aVGreg Monroe MIL 01/02/2016 MIL @ MIN W 27 19 7 13 53.8 0 0 - 5 5 100.0 4 6 10 3 2 0 0 1 2
p472
aVJerryd Bayless MIL 01/02/2016 MIL @ MIN W 32 13 4 13 30.8 3 6 50.0 2 2 100.0 1 4 5 2 0 0 2 1 20
p473
aVRashad Vaughn MIL 01/02/2016 MIL @ MIN W 16 5 2 5 40.0 1 3 33.3 0 0 - 0 3 3 0 0 1 0 0 20
p474
aVMichael Carter-Williams MIL 12/31/2015 MIL @ IND W 38 11 4 9 44.4 0 0 - 3 6 50.0 1 6 7 8 3 3 4 3 13
p475
aVJerryd Bayless MIL 12/31/2015 MIL @ IND W 25 14 5 8 62.5 2 4 50.0 2 2 100.0 1 1 2 1 0 0 3 4 -12
p476
aVO.J. Mayo MIL 12/31/2015 MIL @ IND W 23 7 1 5 20.0 0 2 0.0 5 5 100.0 1 3 4 3 1 0 1 4 1
p477
aVRashad Vaughn MIL 12/31/2015 MIL @ IND W 7 0 0 0 - 0 0 - 0 0 - 0 1 1 0 0 0 1 1 -3
p478
aVGreg Monroe MIL 12/31/2015 MIL @ IND W 30 23 10 12 83.3 0 0 - 3 4 75.0 0 3 3 0 1 1 1 2 5
p479
aVJohn Henson MIL 12/31/2015 MIL @ IND W 14 4 2 4 50.0 0 0 - 0 2 0.0 1 2 3 1 1 1 2 2 11
p480
aVJabari Parker MIL 12/31/2015 MIL @ IND W 30 14 7 10 70.0 0 0 - 0 0 - 1 2 3 1 1 0 0 2 5
p481
aVGiannis Antetokounmpo MIL 12/31/2015 MIL @ IND W 37 14 4 11 36.4 0 2 0.0 6 10 60.0 0 6 6 0 3 4 2 2 -5
p482
aVKhris Middleton MIL 12/31/2015 MIL @ IND W 37 33 12 18 66.7 4 6 66.7 5 6 83.3 1 4 5 4 2 1 2 5 5
p483
aVGreg Monroe MIL 12/29/2015 MIL @ OKC L 20 4 2 9 22.2 0 0 - 0 0 - 2 8 10 1 1 0 2 2 -11
p484
aVGiannis Antetokounmpo MIL 12/29/2015 MIL @ OKC L 40 27 11 19 57.9 0 0 - 5 7 71.4 6 4 10 2 0 0 3 6 -14
p485
aVMichael Carter-Williams MIL 12/29/2015 MIL @ OKC L 32 19 8 14 57.1 1 1 100.0 2 6 33.3 4 5 9 9 2 0 2 4 9
p486
aVKhris Middleton MIL 12/29/2015 MIL @ OKC L 37 36 13 22 59.1 6 9 66.7 4 4 100.0 0 0 0 7 1 0 2 2 4
p487
aVRashad Vaughn MIL 12/29/2015 MIL @ OKC L 3 0 0 0 - 0 0 - 0 0 - 0 1 1 0 0 0 1 0 -5
p488
aVO.J. Mayo MIL 12/29/2015 MIL @ OKC L 26 14 5 12 41.7 2 4 50.0 2 2 100.0 0 2 2 2 2 0 2 5 4
p489
aVJabari Parker MIL 12/29/2015 MIL @ OKC L 18 5 2 11 18.2 0 0 - 1 2 50.0 4 0 4 0 0 0 0 1 -4
p490
aVJohnny O'Bryant III MIL 12/29/2015 MIL @ OKC L 17 2 1 1 100.0 0 0 - 0 0 - 1 2 3 1 0 0 1 2 -11
p491
aVJohn Henson MIL 12/29/2015 MIL @ OKC L 25 8 4 6 66.7 0 0 - 0 0 - 1 5 6 3 0 5 1 3 6
p492
aVJerryd Bayless MIL 12/29/2015 MIL @ OKC L 20 8 3 6 50.0 1 2 50.0 1 1 100.0 0 2 2 4 0 0 0 1 -15
p493
aVMiles Plumlee MIL 12/29/2015 MIL @ OKC L 3 0 0 0 - 0 0 - 0 0 - 0 0 0 0 0 0 0 0 -3
p494
aVGreg Monroe MIL 12/28/2015 MIL @ DAL L 33 8 3 10 30.0 0 0 - 2 2 100.0 3 8 11 2 0 2 1 2 -18
p495
aVMiles Plumlee MIL 12/28/2015 MIL @ DAL L 15 6 3 3 100.0 0 0 - 0 0 - 1 4 5 1 1 2 0 0 8
p496
aVRashad Vaughn MIL 12/28/2015 MIL @ DAL L 15 0 0 2 0.0 0 0 - 0 0 - 0 3 3 1 0 0 0 0 8
p497
aVJabari Parker MIL 12/28/2015 MIL @ DAL L 18 6 2 7 28.6 0 0 - 2 2 100.0 2 2 4 0 0 0 1 1 -13
p498
aVGiannis Antetokounmpo MIL 12/28/2015 MIL @ DAL L 28 11 4 10 40.0 0 1 0.0 3 4 75.0 1 8 9 1 1 1 2 5 -22
p499
aVJohnny O'Bryant III MIL 12/28/2015 MIL @ DAL L 16 7 3 6 50.0 0 0 - 1 2 50.0 2 1 3 1 0 0 0 2 12
p500
aVKhris Middleton MIL 12/28/2015 MIL @ DAL L 36 15 6 13 46.2 0 3 0.0 3 3 100.0 0 6 6 1 0 0 5 5 -18
p501
aVJerryd Bayless MIL 12/28/2015 MIL @ DAL L 27 19 8 12 66.7 1 4 25.0 2 2 100.0 0 2 2 7 1 0 5 4 8
p502
aVO.J. Mayo MIL 12/28/2015 MIL @ DAL L 31 13 5 8 62.5 3 5 60.0 0 0 - 0 4 4 0 1 0 1 2 3
p503
aVMichael Carter-Williams MIL 12/28/2015 MIL @ DAL L 21 8 4 8 50.0 0 1 0.0 0 0 - 0 5 5 0 0 0 2 1 -18
p504
aVRashad Vaughn MIL 12/26/2015 MIL vs. TOR L 10 3 1 3 33.3 1 2 50.0 0 0 - 0 2 2 2 0 0 0 0 -13
p505
aVTyler Ennis MIL 12/26/2015 MIL vs. TOR L 8 6 3 4 75.0 0 0 - 0 0 - 0 1 1 1 1 0 0 1 -1
p506
aVO.J. Mayo MIL 12/26/2015 MIL vs. TOR L 22 6 1 7 14.3 0 2 0.0 4 4 100.0 0 1 1 4 0 1 2 2 -5
p507
aVJabari Parker MIL 12/26/2015 MIL vs. TOR L 33 9 2 12 16.7 0 0 - 5 6 83.3 3 1 4 2 0 0 2 2 -8
p508
aVJohn Henson MIL 12/26/2015 MIL vs. TOR L 15 11 5 7 71.4 0 0 - 1 2 50.0 0 1 1 0 0 3 1 0 -22
p509
aVGreg Monroe MIL 12/26/2015 MIL vs. TOR L 33 19 7 10 70.0 0 0 - 5 5 100.0 1 10 11 3 0 1 2 1 1
p510
aVGiannis Antetokounmpo MIL 12/26/2015 MIL vs. TOR L 35 4 2 5 40.0 0 2 0.0 0 0 - 0 2 2 2 0 0 1 2 -20
p511
aVMichael Carter-Williams MIL 12/26/2015 MIL vs. TOR L 32 8 4 13 30.8 0 0 - 0 0 - 1 7 8 3 2 0 2 3 -20
p512
aVKhris Middleton MIL 12/26/2015 MIL vs. TOR L 37 20 7 16 43.8 5 8 62.5 1 1 100.0 0 3 3 7 0 0 2 3 -4
p513
aVJohnny O'Bryant III MIL 12/26/2015 MIL vs. TOR L 15 4 2 4 50.0 0 0 - 0 0 - 4 1 5 1 0 0 1 3 -13
p514
aVJohnny O'Bryant III MIL 12/23/2015 MIL vs. PHI W 15 6 3 7 42.9 0 0 - 0 0 - 1 2 3 0 1 0 0 4 5
p515
aVRashad Vaughn MIL 12/23/2015 MIL vs. PHI W 15 3 1 5 20.0 1 4 25.0 0 0 - 1 1 2 0 0 0 0 1 -9
p516
aVO.J. Mayo MIL 12/23/2015 MIL vs. PHI W 22 4 2 7 28.6 0 2 0.0 0 0 - 0 1 1 4 0 0 4 0 1
p517
aVGiannis Antetokounmpo MIL 12/23/2015 MIL vs. PHI W 33 22 11 13 84.6 0 0 - 0 0 - 1 4 5 6 2 2 2 3 16
p518
aVGreg Monroe MIL 12/23/2015 MIL vs. PHI W 25 11 4 10 40.0 0 0 - 3 4 75.0 0 6 6 1 2 2 0 3 18
p519
aVTyler Ennis MIL 12/23/2015 MIL vs. PHI W 8 10 4 6 66.7 2 3 66.7 0 0 - 0 0 0 1 0 0 1 1 -4
p520
aVKhris Middleton MIL 12/23/2015 MIL vs. PHI W 31 21 8 9 88.9 2 2 100.0 3 4 75.0 1 4 5 6 2 0 0 2 16
p521
aVJohn Henson MIL 12/23/2015 MIL vs. PHI W 21 2 1 4 25.0 0 0 - 0 0 - 1 3 4 3 1 6 0 4 -2
p522
aVDamien Inglis MIL 12/23/2015 MIL vs. PHI W 2 0 0 0 - 0 0 - 0 0 - 0 0 0 0 0 0 1 0 -3
p523
aVMiles Plumlee MIL 12/23/2015 MIL vs. PHI W 2 0 0 0 - 0 0 - 0 0 - 0 2 2 0 0 0 0 0 -3
p524
aVJabari Parker MIL 12/23/2015 MIL vs. PHI W 31 16 8 10 80.0 0 0 - 0 0 - 0 1 1 3 2 2 1 2 14
p525
aVMichael Carter-Williams MIL 12/23/2015 MIL vs. PHI W 33 18 9 13 69.2 0 0 - 0 0 - 0 5 5 9 4 0 7 1 19
p526
aVChris Copeland MIL 12/23/2015 MIL vs. PHI W 2 0 0 1 0.0 0 1 0.0 0 0 - 0 0 0 1 0 0 0 1 -3
p527
aVTyler Ennis MIL 12/20/2015 MIL @ PHX W 5 3 1 1 100.0 0 0 - 1 2 50.0 0 1 1 0 0 0 1 0 -8
p528
aVRashad Vaughn MIL 12/20/2015 MIL @ PHX W 17 6 2 6 33.3 2 2 100.0 0 0 - 0 0 0 0 0 0 1 1 -2
p529
aVChris Copeland MIL 12/20/2015 MIL @ PHX W 8 0 0 2 0.0 0 2 0.0 0 0 - 0 1 1 0 0 0 0 1 -9
p530
aVJohn Henson MIL 12/20/2015 MIL @ PHX W 22 8 3 4 75.0 0 0 - 2 4 50.0 2 4 6 2 1 4 0 2 0
p531
aVJohnny O'Bryant III MIL 12/20/2015 MIL @ PHX W 18 6 3 5 60.0 0 0 - 0 0 - 1 3 4 0 1 0 2 4 0
p532
aVO.J. Mayo MIL 12/20/2015 MIL @ PHX W 41 12 5 11 45.5 1 5 20.0 1 4 25.0 0 5 5 5 2 1 2 2 9
p533
aVKhris Middleton MIL 12/20/2015 MIL @ PHX W 40 26 10 17 58.8 2 6 33.3 4 4 100.0 0 3 3 7 2 0 3 4 17
p534
aVJabari Parker MIL 12/20/2015 MIL @ PHX W 27 7 2 7 28.6 0 0 - 3 4 75.0 2 4 6 1 1 0 0 2 7
p535
aVGreg Monroe MIL 12/20/2015 MIL @ PHX W 26 13 6 10 60.0 0 0 - 1 2 50.0 0 2 2 4 0 0 1 4 6
p536
aVMichael Carter-Williams MIL 12/20/2015 MIL @ PHX W 36 20 9 16 56.3 0 1 0.0 2 4 50.0 1 8 9 6 1 1 3 3 10
p537
aVO.J. Mayo MIL 12/18/2015 MIL @ GSW L 22 12 3 11 27.3 0 6 0.0 6 6 100.0 2 1 3 4 0 0 2 4 -2
p538
aVGiannis Antetokounmpo MIL 12/18/2015 MIL @ GSW L 36 20 9 17 52.9 0 0 - 2 3 66.7 3 3 6 4 0 1 3 6 -11
p539
aVMiles Plumlee MIL 12/18/2015 MIL @ GSW L 19 13 3 3 100.0 0 0 - 7 8 87.5 3 4 7 0 0 3 0 1 10
p540
aVKhris Middleton MIL 12/18/2015 MIL @ GSW L 38 16 6 16 37.5 2 9 22.2 2 2 100.0 0 2 2 4 2 0 2 0 -10
p541
aVJohn Henson MIL 12/18/2015 MIL @ GSW L 2 0 0 0 - 0 0 - 0 0 - 0 0 0 0 0 0 0 3 -4
p542
aVGreg Monroe MIL 12/18/2015 MIL @ GSW L 27 10 5 11 45.5 0 0 - 0 0 - 3 10 13 6 2 1 3 5 -15
p543
aVJabari Parker MIL 12/18/2015 MIL @ GSW L 31 14 6 13 46.2 0 1 0.0 2 3 66.7 0 2 2 2 0 1 2 5 -4
p544
aVRashad Vaughn MIL 12/18/2015 MIL @ GSW L 11 3 1 1 100.0 1 1 100.0 0 0 - 0 0 0 1 0 0 1 0 -4
p545
aVMichael Carter-Williams MIL 12/18/2015 MIL @ GSW L 39 24 9 18 50.0 1 1 100.0 5 6 83.3 2 3 5 4 1 1 2 3 -8
p546
aVJohnny O'Bryant III MIL 12/18/2015 MIL @ GSW L 15 0 0 1 0.0 0 0 - 0 0 - 1 2 3 0 1 0 1 2 3
p547
aVKhris Middleton MIL 12/16/2015 MIL @ LAC L 41 15 4 11 36.4 1 5 20.0 6 6 100.0 2 3 5 6 1 1 1 3 -17
p548
aVJohn Henson MIL 12/16/2015 MIL @ LAC L 21 10 5 8 62.5 0 0 - 0 0 - 4 4 8 0 0 3 1 0 7
p549
aVJohnny O'Bryant III MIL 12/16/2015 MIL @ LAC L 11 6 3 4 75.0 0 0 - 0 1 0.0 2 0 2 1 3 0 0 2 -11
p550
aVMichael Carter-Williams MIL 12/16/2015 MIL @ LAC L 39 17 8 18 44.4 0 0 - 1 2 50.0 1 5 6 5 1 0 4 2 -14
p551
aVMiles Plumlee MIL 12/16/2015 MIL @ LAC L 22 2 1 4 25.0 0 0 - 0 0 - 2 1 3 0 0 1 0 2 -15
p552
aVO.J. Mayo MIL 12/16/2015 MIL @ LAC L 38 17 7 18 38.9 3 9 33.3 0 0 - 1 3 4 6 3 0 1 5 1
p553
aVTyler Ennis MIL 12/16/2015 MIL @ LAC L 9 0 0 2 0.0 0 1 0.0 0 0 - 0 0 0 0 0 0 1 0 1
p554
aVJabari Parker MIL 12/16/2015 MIL @ LAC L 25 14 6 11 54.5 0 0 - 2 2 100.0 1 1 2 1 1 1 0 3 -8
p555
aVGiannis Antetokounmpo MIL 12/16/2015 MIL @ LAC L 34 9 4 12 33.3 1 1 100.0 0 0 - 2 9 11 2 0 0 3 4 -9
p556
aVO.J. Mayo MIL 12/15/2015 MIL @ LAL L 27 9 3 11 27.3 2 5 40.0 1 2 50.0 0 1 1 2 2 0 3 4 -9
p557
aVMiles Plumlee MIL 12/15/2015 MIL @ LAL L 24 10 5 7 71.4 0 0 - 0 2 0.0 2 6 8 0 0 1 1 3 -1
p558
aVMichael Carter-Williams MIL 12/15/2015 MIL @ LAL L 32 19 9 18 50.0 0 0 - 1 2 50.0 2 3 5 5 2 1 1 3 -9
p559
aVTyler Ennis MIL 12/15/2015 MIL @ LAL L 4 2 1 1 100.0 0 0 - 0 0 - 0 1 1 0 1 0 0 1 -1
p560
aVJabari Parker MIL 12/15/2015 MIL @ LAL L 26 12 4 9 44.4 0 1 0.0 4 6 66.7 3 1 4 3 0 0 0 0 -16
p561
aVJohnny O'Bryant III MIL 12/15/2015 MIL @ LAL L 20 6 3 5 60.0 0 0 - 0 0 - 4 3 7 2 0 1 1 3 -5
p562
aVKhris Middleton MIL 12/15/2015 MIL @ LAL L 34 16 6 16 37.5 2 4 50.0 2 2 100.0 0 2 2 4 2 0 1 0 -17
p563
aVRashad Vaughn MIL 12/15/2015 MIL @ LAL L 6 0 0 1 0.0 0 1 0.0 0 0 - 0 0 0 1 0 0 0 0 3
p564
aVDamien Inglis MIL 12/15/2015 MIL @ LAL L 2 0 0 0 - 0 0 - 0 0 - 0 0 0 0 0 0 0 0 2
p565
aVChris Copeland MIL 12/15/2015 MIL @ LAL L 7 0 0 1 0.0 0 1 0.0 0 0 - 0 0 0 0 0 0 1 1 -3
p566
aVJohn Henson MIL 12/15/2015 MIL @ LAL L 24 6 3 5 60.0 0 0 - 0 2 0.0 1 3 4 1 0 4 2 3 -17
p567
aVGiannis Antetokounmpo MIL 12/15/2015 MIL @ LAL L 35 15 6 11 54.5 0 1 0.0 3 4 75.0 0 6 6 5 0 0 1 2 -17
p568
aVJabari Parker MIL 12/12/2015 MIL vs. GSW W 28 19 9 14 64.3 0 0 - 1 3 33.3 1 6 7 1 2 1 2 3 10
p569
aVGreg Monroe MIL 12/12/2015 MIL vs. GSW W 36 28 11 17 64.7 0 0 - 6 7 85.7 4 7 11 5 0 0 3 4 17
p570
aVKhris Middleton MIL 12/12/2015 MIL vs. GSW W 38 7 3 12 25.0 1 4 25.0 0 0 - 1 5 6 5 2 1 2 2 13
p571
aVRashad Vaughn MIL 12/12/2015 MIL vs. GSW W 9 0 0 1 0.0 0 0 - 0 0 - 0 1 1 0 1 0 0 1 -4
p572
aVMichael Carter-Williams MIL 12/12/2015 MIL vs. GSW W 30 17 7 10 70.0 0 0 - 3 3 100.0 1 2 3 7 5 0 1 4 22
p573
aVJohn Henson MIL 12/12/2015 MIL vs. GSW W 12 6 3 8 37.5 0 0 - 0 0 - 0 2 2 2 0 0 1 5 -4
p574
aVJohnny O'Bryant III MIL 12/12/2015 MIL vs. GSW W 14 2 1 5 20.0 0 0 - 0 0 - 1 0 1 2 0 0 1 1 2
p575
aVGiannis Antetokounmpo MIL 12/12/2015 MIL vs. GSW W 43 11 4 10 40.0 1 2 50.0 2 3 66.7 0 12 12 8 1 2 4 2 3
p576
aVO.J. Mayo MIL 12/12/2015 MIL vs. GSW W 29 18 6 13 46.2 4 8 50.0 2 2 100.0 0 1 1 1 1 0 2 2 6
p577
aVGreg Monroe MIL 12/11/2015 MIL @ TOR L 33 13 6 9 66.7 0 0 - 1 2 50.0 0 7 7 2 3 0 1 0 -3
p578
aVRashad Vaughn MIL 12/11/2015 MIL @ TOR L 5 2 0 1 0.0 0 1 0.0 2 2 100.0 0 0 0 0 0 0 0 2 -3
p579
aVMichael Carter-Williams MIL 12/11/2015 MIL @ TOR L 27 2 1 7 14.3 0 1 0.0 0 0 - 0 3 3 6 0 1 3 3 -8
p580
aVO.J. Mayo MIL 12/11/2015 MIL @ TOR L 35 9 4 13 30.8 1 4 25.0 0 0 - 1 2 3 4 3 1 3 1 3
p581
aVGiannis Antetokounmpo MIL 12/11/2015 MIL @ TOR L 43 15 7 12 58.3 0 1 0.0 1 2 50.0 2 5 7 3 2 1 4 3 -5
p582
aVJohn Henson MIL 12/11/2015 MIL @ TOR L 15 6 3 4 75.0 0 0 - 0 0 - 3 2 5 0 0 1 1 1 -4
p583
aVKhris Middleton MIL 12/11/2015 MIL @ TOR L 43 26 8 15 53.3 3 4 75.0 7 8 87.5 0 3 3 3 0 0 1 3 -4
p584
aVJabari Parker MIL 12/11/2015 MIL @ TOR L 25 10 4 12 33.3 0 0 - 2 2 100.0 1 5 6 1 0 0 2 3 -5
p585
aVJohnny O'Bryant III MIL 12/11/2015 MIL @ TOR L 14 0 0 7 0.0 0 0 - 0 0 - 3 3 6 0 1 0 0 3 -6
p586
aVKhris Middleton MIL 12/09/2015 MIL vs. LAC L 39 9 3 9 33.3 1 3 33.3 2 3 66.7 0 6 6 2 1 0 4 5 -21
p587
aVGiannis Antetokounmpo MIL 12/09/2015 MIL vs. LAC L 28 15 5 11 45.5 0 2 0.0 5 6 83.3 0 6 6 1 0 1 1 5 -19
p588
aVGreg Monroe MIL 12/09/2015 MIL vs. LAC L 36 16 8 16 50.0 0 0 - 0 0 - 4 6 10 2 1 0 1 1 -25
p589
aVMichael Carter-Williams MIL 12/09/2015 MIL vs. LAC L 32 20 9 16 56.3 0 0 - 2 3 66.7 0 1 1 11 1 0 2 4 1
p590
aVRashad Vaughn MIL 12/09/2015 MIL vs. LAC L 17 0 0 2 0.0 0 1 0.0 0 0 - 0 5 5 1 1 0 0 1 9
p591
aVJabari Parker MIL 12/09/2015 MIL vs. LAC L 31 10 5 13 38.5 0 0 - 0 0 - 2 3 5 0 1 0 0 2 -25
p592
aVJohn Henson MIL 12/09/2015 MIL vs. LAC L 12 8 4 7 57.1 0 0 - 0 0 - 1 1 2 1 0 0 0 5 11
p593
aVO.J. Mayo MIL 12/09/2015 MIL vs. LAC L 36 14 7 15 46.7 0 3 0.0 0 0 - 0 4 4 8 2 0 3 5 -13
p594
aVJohnny O'Bryant III MIL 12/09/2015 MIL vs. LAC L 8 3 1 1 100.0 1 1 100.0 0 0 - 0 1 1 0 0 0 0 1 12
p595
aVGiannis Antetokounmpo MIL 12/07/2015 MIL vs. POR W 31 17 5 10 50.0 0 0 - 7 8 87.5 3 6 9 1 1 2 3 1 6
p596
aVMichael Carter-Williams MIL 12/07/2015 MIL vs. POR W 31 8 2 9 22.2 0 0 - 4 6 66.7 3 2 5 7 0 0 6 3 -3
p597
aVJohn Henson MIL 12/07/2015 MIL vs. POR W 21 8 3 3 100.0 0 0 - 2 4 50.0 1 6 7 1 0 4 0 0 -9
p598
aVRashad Vaughn MIL 12/07/2015 MIL vs. POR W 9 0 0 2 0.0 0 0 - 0 0 - 1 2 3 1 2 0 1 1 -2
p599
aVJabari Parker MIL 12/07/2015 MIL vs. POR W 32 12 4 8 50.0 0 0 - 4 5 80.0 0 6 6 4 0 0 2 1 3
p600
aVJohnny O'Bryant III MIL 12/07/2015 MIL vs. POR W 12 0 0 4 0.0 0 0 - 0 0 - 0 1 1 0 0 0 0 2 -9
p601
aVGreg Monroe MIL 12/07/2015 MIL vs. POR W 27 16 7 11 63.6 0 0 - 2 2 100.0 2 10 12 3 0 0 2 1 11
p602
aVO.J. Mayo MIL 12/07/2015 MIL vs. POR W 36 15 5 13 38.5 3 7 42.9 2 2 100.0 0 1 1 2 3 0 1 5 11
p603
aVKhris Middleton MIL 12/07/2015 MIL vs. POR W 41 14 4 13 30.8 1 6 16.7 5 6 83.3 0 1 1 3 2 1 1 5 2
p604
aVMichael Carter-Williams MIL 12/05/2015 MIL vs. NYK W 28 20 9 16 56.3 0 0 - 2 3 66.7 1 2 3 5 0 1 2 2 4
p605
aVGiannis Antetokounmpo MIL 12/05/2015 MIL vs. NYK W 35 17 6 15 40.0 0 1 0.0 5 6 83.3 1 5 6 6 1 2 2 3 18
p606
aVGreg Monroe MIL 12/05/2015 MIL vs. NYK W 33 18 8 13 61.5 0 0 - 2 2 100.0 3 11 14 0 1 1 2 3 20
p607
aVJohnny O'Bryant III MIL 12/05/2015 MIL vs. NYK W 22 6 2 3 66.7 0 0 - 2 2 100.0 1 4 5 2 0 0 3 2 -3
p608
aVJabari Parker MIL 12/05/2015 MIL vs. NYK W 36 17 8 13 61.5 0 0 - 1 2 50.0 2 5 7 2 2 1 2 2 10
p609
aVRashad Vaughn MIL 12/05/2015 MIL vs. NYK W 4 0 0 1 0.0 0 1 0.0 0 0 - 0 0 0 0 0 0 0 1 -4
p610
aVJohn Henson MIL 12/05/2015 MIL vs. NYK W 15 4 1 6 16.7 0 0 - 2 6 33.3 4 3 7 2 0 1 1 4 -5
p611
aVO.J. Mayo MIL 12/05/2015 MIL vs. NYK W 35 17 8 12 66.7 1 1 100.0 0 0 - 0 3 3 5 1 0 1 4 17
p612
aVKhris Middleton MIL 12/05/2015 MIL vs. NYK W 32 7 2 10 20.0 1 1 100.0 2 3 66.7 1 3 4 3 0 0 0 1 18
p613
aVJohn Henson MIL 12/04/2015 MIL @ DET L 15 8 4 5 80.0 0 0 - 0 0 - 3 0 3 0 1 3 2 3 -4
p614
aVMichael Carter-Williams MIL 12/04/2015 MIL @ DET L 27 6 3 8 37.5 0 2 0.0 0 0 - 0 7 7 5 0 0 3 4 -1
p615
aVGreg Monroe MIL 12/04/2015 MIL @ DET L 33 14 7 15 46.7 0 0 - 0 0 - 2 11 13 1 2 2 1 2 -1
p616
aVJabari Parker MIL 12/04/2015 MIL @ DET L 19 10 4 8 50.0 0 0 - 2 2 100.0 3 2 5 0 0 0 0 5 2
p617
aVJerryd Bayless MIL 12/04/2015 MIL @ DET L 26 9 4 9 44.4 1 5 20.0 0 1 0.0 0 3 3 5 0 0 0 1 -12
p618
aVRashad Vaughn MIL 12/04/2015 MIL @ DET L 11 0 0 2 0.0 0 0 - 0 0 - 0 0 0 0 1 0 0 3 2
p619
aVO.J. Mayo MIL 12/04/2015 MIL @ DET L 34 13 5 13 38.5 0 4 0.0 3 3 100.0 0 5 5 4 1 0 2 6 -11
p620
aVKhris Middleton MIL 12/04/2015 MIL @ DET L 34 21 6 15 40.0 3 7 42.9 6 6 100.0 0 5 5 3 0 0 1 3 -1
p621
aVJohnny O'Bryant III MIL 12/04/2015 MIL @ DET L 9 2 1 1 100.0 0 0 - 0 0 - 0 1 1 1 1 0 1 1 1
p622
aVGiannis Antetokounmpo MIL 12/04/2015 MIL @ DET L 34 12 5 11 45.5 0 0 - 2 2 100.0 1 8 9 2 0 1 4 5 -10
p623
aVTyler Ennis MIL 12/02/2015 MIL @ SAS L 24 4 2 8 25.0 0 3 0.0 0 0 - 0 3 3 1 0 1 2 2 -12
p624
aVGreg Monroe MIL 12/02/2015 MIL @ SAS L 28 14 6 13 46.2 0 0 - 2 2 100.0 1 6 7 0 1 1 1 2 -17
p625
aVMichael Carter-Williams MIL 12/02/2015 MIL @ SAS L 30 4 2 10 20.0 0 1 0.0 0 0 - 1 4 5 4 2 0 1 1 -15
p626
aVMiles Plumlee MIL 12/02/2015 MIL @ SAS L 7 0 0 0 - 0 0 - 0 0 - 0 1 1 0 1 0 1 1 -1
p627
aVJohn Henson MIL 12/02/2015 MIL @ SAS L 13 6 2 2 100.0 0 0 - 2 2 100.0 0 2 2 0 0 2 0 2 -7
p628
aVO.J. Mayo MIL 12/02/2015 MIL @ SAS L 24 2 1 6 16.7 0 1 0.0 0 0 - 1 5 6 3 1 0 3 2 -22
p629
aVJohnny O'Bryant III MIL 12/02/2015 MIL @ SAS L 7 4 2 4 50.0 0 0 - 0 1 0.0 0 2 2 0 0 0 0 0 -1
p630
aVJabari Parker MIL 12/02/2015 MIL @ SAS L 26 7 1 7 14.3 0 1 0.0 5 6 83.3 1 6 7 0 1 0 1 2 -11
p631
aVGiannis Antetokounmpo MIL 12/02/2015 MIL @ SAS L 26 7 2 8 25.0 0 1 0.0 3 4 75.0 1 3 4 2 0 2 2 2 -13
p632
aVChris Copeland MIL 12/02/2015 MIL @ SAS L 7 0 0 0 - 0 0 - 0 0 - 0 0 0 3 0 0 1 1 -1
p633
aVKhris Middleton MIL 12/02/2015 MIL @ SAS L 30 16 6 11 54.5 1 2 50.0 3 3 100.0 0 3 3 3 0 0 2 2 -18
p634
aVRashad Vaughn MIL 12/02/2015 MIL @ SAS L 17 6 2 9 22.2 2 5 40.0 0 0 - 1 3 4 1 1 0 2 3 -7
p635
aVMiles Plumlee MIL 11/30/2015 MIL vs. DEN W 4 0 0 0 - 0 0 - 0 0 - 0 0 0 0 0 0 0 0 -4
p636
aVChris Copeland MIL 11/30/2015 MIL vs. DEN W 4 0 0 0 - 0 0 - 0 0 - 0 0 0 0 0 0 0 0 -4
p637
aVJohnny O'Bryant III MIL 11/30/2015 MIL vs. DEN W 4 2 1 1 100.0 0 0 - 0 0 - 0 0 0 0 0 0 1 0 -4
p638
aVKhris Middleton MIL 11/30/2015 MIL vs. DEN W 31 10 3 9 33.3 3 5 60.0 1 1 100.0 0 1 1 5 0 0 2 2 6
p639
aVMichael Carter-Williams MIL 11/30/2015 MIL vs. DEN W 30 12 5 9 55.6 0 0 - 2 2 100.0 1 5 6 9 3 3 2 4 27
p640
aVO.J. Mayo MIL 11/30/2015 MIL vs. DEN W 31 9 3 8 37.5 2 5 40.0 1 1 100.0 0 4 4 1 2 0 2 4 23
p641
aVGreg Monroe MIL 11/30/2015 MIL vs. DEN W 25 18 8 11 72.7 0 0 - 2 2 100.0 2 3 5 2 1 2 0 1 7
p642
aVJohn Henson MIL 11/30/2015 MIL vs. DEN W 23 8 4 7 57.1 0 0 - 0 4 0.0 2 5 7 2 1 3 1 2 15
p643
aVRashad Vaughn MIL 11/30/2015 MIL vs. DEN W 7 0 0 2 0.0 0 2 0.0 0 0 - 0 1 1 0 0 1 0 0 -1
p644
aVGiannis Antetokounmpo MIL 11/30/2015 MIL vs. DEN W 20 9 3 10 30.0 0 2 0.0 3 4 75.0 2 4 6 0 0 1 2 3 4
p645
aVJerryd Bayless MIL 11/30/2015 MIL vs. DEN W 33 7 2 6 33.3 1 4 25.0 2 2 100.0 0 1 1 4 1 0 3 2 7
p646
aVTyler Ennis MIL 11/30/2015 MIL vs. DEN W 4 1 0 1 0.0 0 0 - 1 2 50.0 1 2 3 1 0 0 0 0 -4
p647
aVJabari Parker MIL 11/30/2015 MIL vs. DEN W 26 16 6 13 46.2 0 0 - 4 4 100.0 0 4 4 1 2 2 0 1 18
p648
aVMichael Carter-Williams MIL 11/29/2015 MIL @ CHA L 16 3 1 3 33.3 0 1 0.0 1 2 50.0 0 4 4 2 0 0 2 2 -15
p649
aVO.J. Mayo MIL 11/29/2015 MIL @ CHA L 44 12 5 13 38.5 2 8 25.0 0 2 0.0 1 3 4 5 2 0 1 4 -2
p650
aVKhris Middleton MIL 11/29/2015 MIL @ CHA L 37 19 7 18 38.9 4 9 44.4 1 1 100.0 1 4 5 6 3 0 3 3 7
p651
aVGiannis Antetokounmpo MIL 11/29/2015 MIL @ CHA L 31 8 4 5 80.0 0 0 - 0 0 - 0 5 5 3 1 1 0 2 7
p652
aVJohn Henson MIL 11/29/2015 MIL @ CHA L 18 2 1 3 33.3 0 0 - 0 0 - 4 1 5 0 0 1 3 2 -10
p653
aVTyler Ennis MIL 11/29/2015 MIL @ CHA L 4 0 0 1 0.0 0 1 0.0 0 0 - 0 0 0 0 0 0 0 0 -2
p654
aVJabari Parker MIL 11/29/2015 MIL @ CHA L 17 10 4 10 40.0 0 0 - 2 2 100.0 2 5 7 0 0 0 1 3 -12
p655
aVJerryd Bayless MIL 11/29/2015 MIL @ CHA L 43 11 4 14 28.6 2 9 22.2 1 2 50.0 2 4 6 6 1 0 2 3 -3
p656
aVGreg Monroe MIL 11/29/2015 MIL @ CHA L 30 17 7 15 46.7 0 0 - 3 5 60.0 3 7 10 3 2 0 2 5 5
p657
aVMichael Carter-Williams MIL 11/27/2015 MIL @ ORL L 24 3 1 3 33.3 0 0 - 1 2 50.0 1 3 4 3 0 1 5 2 -14
p658
aVChris Copeland MIL 11/27/2015 MIL @ ORL L 3 0 0 1 0.0 0 1 0.0 0 0 - 0 1 1 0 0 0 0 0 0
p659
aVGiannis Antetokounmpo MIL 11/27/2015 MIL @ ORL L 32 17 7 10 70.0 0 1 0.0 3 3 100.0 0 4 4 4 2 0 3 4 -18
p660
aVJohnny O'Bryant III MIL 11/27/2015 MIL @ ORL L 9 2 1 1 100.0 0 0 - 0 0 - 0 2 2 1 0 0 2 0 1
p661
aVJabari Parker MIL 11/27/2015 MIL @ ORL L 22 8 4 9 44.4 0 1 0.0 0 0 - 1 2 3 1 0 0 0 1 -17
p662
aVO.J. Mayo MIL 11/27/2015 MIL @ ORL L 25 5 1 6 16.7 0 4 0.0 3 3 100.0 1 3 4 4 0 0 2 4 -4
p663
aVGreivis Vasquez MIL 11/27/2015 MIL @ ORL L 13 2 1 5 20.0 0 3 0.0 0 0 - 0 1 1 0 0 0 0 2 -11
p664
aVRashad Vaughn MIL 11/27/2015 MIL @ ORL L 3 2 1 3 33.3 0 1 0.0 0 0 - 0 1 1 0 0 0 0 1 0
p665
aVKhris Middleton MIL 11/27/2015 MIL @ ORL L 34 15 4 7 57.1 3 5 60.0 4 4 100.0 0 3 3 4 3 0 1 1 -16
p666
aVMiles Plumlee MIL 11/27/2015 MIL @ ORL L 3 2 1 1 100.0 0 0 - 0 0 - 0 0 0 0 0 0 0 0 0
p667
aVGreg Monroe MIL 11/27/2015 MIL @ ORL L 19 9 3 12 25.0 0 0 - 3 4 75.0 3 5 8 0 0 0 1 1 -18
p668
aVJerryd Bayless MIL 11/27/2015 MIL @ ORL L 33 17 6 14 42.9 5 10 50.0 0 0 - 0 4 4 3 2 0 4 2 -16
p669
aVJohn Henson MIL 11/27/2015 MIL @ ORL L 20 8 1 2 50.0 0 0 - 6 6 100.0 0 3 3 0 1 1 3 2 -7
p670
aVKhris Middleton MIL 11/25/2015 MIL vs. SAC L 24 21 8 15 53.3 5 8 62.5 0 1 0.0 1 1 2 6 1 0 1 5 -7
p671
aVChris Copeland MIL 11/25/2015 MIL vs. SAC L 8 2 1 2 50.0 0 1 0.0 0 0 - 0 1 1 0 0 0 0 1 5
p672
aVGreivis Vasquez MIL 11/25/2015 MIL vs. SAC L 16 9 3 4 75.0 2 3 66.7 1 1 100.0 0 2 2 7 0 0 3 1 5
p673
aVMichael Carter-Williams MIL 11/25/2015 MIL vs. SAC L 28 4 0 7 0.0 0 0 - 4 4 100.0 0 0 0 3 1 0 4 1 -21
p674
aVJabari Parker MIL 11/25/2015 MIL vs. SAC L 21 10 3 5 60.0 0 0 - 4 4 100.0 0 2 2 3 1 0 1 0 -7
p675
aVO.J. Mayo MIL 11/25/2015 MIL vs. SAC L 29 12 5 15 33.3 2 12 16.7 0 0 - 0 3 3 2 0 0 0 1 -8
p676
aVGiannis Antetokounmpo MIL 11/25/2015 MIL vs. SAC L 30 21 7 13 53.8 1 3 33.3 6 7 85.7 2 3 5 2 0 2 0 6 -2
p677
aVJohn Henson MIL 11/25/2015 MIL vs. SAC L 19 15 6 8 75.0 0 0 - 3 5 60.0 6 5 11 0 0 1 1 1 -5
p678
aVGreg Monroe MIL 11/25/2015 MIL vs. SAC L 29 11 5 11 45.5 0 0 - 1 2 50.0 0 7 7 3 0 4 1 4 -6
p679
aVJerryd Bayless MIL 11/25/2015 MIL vs. SAC L 36 13 4 8 50.0 3 4 75.0 2 3 66.7 1 3 4 4 4 0 0 2 -9
p680
aVChris Copeland MIL 11/23/2015 MIL vs. DET W 2 0 0 0 - 0 0 - 0 0 - 0 0 0 1 0 0 0 0 -1
p681
aVGiannis Antetokounmpo MIL 11/23/2015 MIL vs. DET W 27 17 6 10 60.0 1 1 100.0 4 4 100.0 2 4 6 4 0 1 2 3 10
p682
aVMichael Carter-Williams MIL 11/23/2015 MIL vs. DET W 26 12 6 10 60.0 0 0 - 0 0 - 2 1 3 8 3 1 2 2 13
p683
aVMiles Plumlee MIL 11/23/2015 MIL vs. DET W 2 0 0 0 - 0 0 - 0 0 - 0 0 0 0 0 0 0 0 -1
p684
aVJohn Henson MIL 11/23/2015 MIL vs. DET W 8 2 1 4 25.0 0 0 - 0 0 - 0 1 1 1 0 0 2 4 -5
p685
aVRashad Vaughn MIL 11/23/2015 MIL vs. DET W 4 0 0 1 0.0 0 1 0.0 0 0 - 0 1 1 0 1 1 1 0 -3
p686
aVO.J. Mayo MIL 11/23/2015 MIL vs. DET W 19 6 2 3 66.7 2 3 66.7 0 0 - 0 3 3 2 2 0 0 4 8
p687
aVGreivis Vasquez MIL 11/23/2015 MIL vs. DET W 22 10 4 8 50.0 1 2 50.0 1 1 100.0 1 3 4 3 0 0 2 1 8
p688
aVJohnny O'Bryant III MIL 11/23/2015 MIL vs. DET W 16 0 0 3 0.0 0 0 - 0 0 - 1 3 4 1 0 0 0 1 8
p689
aVJabari Parker MIL 11/23/2015 MIL vs. DET W 27 12 5 10 50.0 0 0 - 2 3 66.7 1 0 1 1 0 1 0 0 10
p690
aVJerryd Bayless MIL 11/23/2015 MIL vs. DET W 31 14 5 8 62.5 3 4 75.0 1 2 50.0 0 6 6 4 3 0 1 3 20
p691
aVKhris Middleton MIL 11/23/2015 MIL vs. DET W 23 16 5 7 71.4 2 2 100.0 4 5 80.0 0 3 3 4 1 0 1 2 10
p692
aVGreg Monroe MIL 11/23/2015 MIL vs. DET W 31 20 9 19 47.4 0 0 - 2 2 100.0 5 8 13 1 2 0 1 3 28
p693
aVJohn Henson MIL 11/21/2015 MIL @ IND L 12 6 2 3 66.7 0 0 - 2 2 100.0 0 3 3 1 0 0 1 3 -8
p694
aVJabari Parker MIL 11/21/2015 MIL @ IND L 21 10 4 8 50.0 0 0 - 2 2 100.0 3 1 4 1 2 1 2 1 -8
p695
aVMichael Carter-Williams MIL 11/21/2015 MIL @ IND L 26 7 3 5 60.0 0 0 - 1 3 33.3 0 3 3 3 0 0 5 3 -20
p696
aVJohnny O'Bryant III MIL 11/21/2015 MIL @ IND L 16 4 2 6 33.3 0 0 - 0 0 - 1 1 2 0 1 0 1 1 -13
p697
aVO.J. Mayo MIL 11/21/2015 MIL @ IND L 22 10 4 8 50.0 2 5 40.0 0 0 - 0 2 2 1 0 0 2 2 -23
p698
aVJerryd Bayless MIL 11/21/2015 MIL @ IND L 19 3 1 5 20.0 1 5 20.0 0 0 - 0 2 2 2 1 0 2 1 -7
p699
aVKhris Middleton MIL 11/21/2015 MIL @ IND L 28 8 3 11 27.3 1 4 25.0 1 2 50.0 0 2 2 1 2 1 1 1 -13
p700
aVChris Copeland MIL 11/21/2015 MIL @ IND L 10 3 1 3 33.3 0 1 0.0 1 2 50.0 0 0 0 0 0 0 0 0 -11
p701
aVMiles Plumlee MIL 11/21/2015 MIL @ IND L 12 4 2 6 33.3 0 0 - 0 0 - 2 2 4 1 0 0 0 0 -14
p702
aVRashad Vaughn MIL 11/21/2015 MIL @ IND L 5 7 3 4 75.0 1 2 50.0 0 0 - 0 1 1 1 0 0 0 0 -5
p703
aVGreg Monroe MIL 11/21/2015 MIL @ IND L 24 11 4 10 40.0 0 0 - 3 4 75.0 7 7 14 3 1 1 2 2 -15
p704
aVGiannis Antetokounmpo MIL 11/21/2015 MIL @ IND L 29 9 3 8 37.5 0 0 - 3 4 75.0 0 5 5 2 2 2 3 3 -26
p705
aVGreivis Vasquez MIL 11/21/2015 MIL @ IND L 15 4 2 2 100.0 0 0 - 0 0 - 0 1 1 3 0 0 4 2 -22
p706
aVKhris Middleton MIL 11/19/2015 MIL @ CLE L 32 15 4 10 40.0 0 1 0.0 7 7 100.0 0 1 1 4 1 0 2 6 5
p707
aVMichael Carter-Williams MIL 11/19/2015 MIL @ CLE L 27 9 4 11 36.4 0 0 - 1 2 50.0 1 0 1 5 0 0 2 5 -5
p708
aVJohn Henson MIL 11/19/2015 MIL @ CLE L 11 0 0 0 - 0 0 - 0 0 - 0 0 0 0 0 1 0 2 -15
p709
aVJerryd Bayless MIL 11/19/2015 MIL @ CLE L 25 9 4 8 50.0 1 2 50.0 0 0 - 0 1 1 2 0 0 1 4 -12
p710
aVJohnny O'Bryant III MIL 11/19/2015 MIL @ CLE L 6 0 0 0 - 0 0 - 0 0 - 0 1 1 1 0 0 0 1 3
p711
aVGiannis Antetokounmpo MIL 11/19/2015 MIL @ CLE L 40 33 12 15 80.0 1 2 50.0 8 8 100.0 2 3 5 2 2 0 0 3 -14
p712
aVGreivis Vasquez MIL 11/19/2015 MIL @ CLE L 21 0 0 3 0.0 0 1 0.0 0 0 - 0 1 1 5 1 0 3 3 -10
p713
aVJabari Parker MIL 11/19/2015 MIL @ CLE L 31 14 6 10 60.0 0 0 - 2 2 100.0 1 2 3 1 0 1 1 3 -11
p714
aVGreg Monroe MIL 11/19/2015 MIL @ CLE L 34 17 7 14 50.0 0 0 - 3 7 42.9 2 6 8 1 2 0 2 0 -2
p715
aVO.J. Mayo MIL 11/19/2015 MIL @ CLE L 14 3 1 2 50.0 1 2 50.0 0 0 - 0 1 1 1 2 0 0 2 -14
p716
aVGreg Monroe MIL 11/17/2015 MIL @ WAS L 26 4 1 6 16.7 0 0 - 2 4 50.0 3 2 5 4 0 1 3 2 -26
p717
aVJohn Henson MIL 11/17/2015 MIL @ WAS L 16 10 3 3 100.0 0 0 - 4 6 66.7 2 4 6 1 0 1 1 4 2
p718
aVGreivis Vasquez MIL 11/17/2015 MIL @ WAS L 20 12 5 7 71.4 2 3 66.7 0 0 - 0 2 2 3 0 0 0 2 -10
p719
aVChris Copeland MIL 11/17/2015 MIL @ WAS L 9 2 1 2 50.0 0 0 - 0 0 - 0 0 0 1 1 0 0 2 -11
p720
aVTyler Ennis MIL 11/17/2015 MIL @ WAS L 7 3 0 1 0.0 0 0 - 3 4 75.0 0 2 2 2 0 0 1 0 -5
p721
aVJohnny O'Bryant III MIL 11/17/2015 MIL @ WAS L 25 0 0 1 0.0 0 0 - 0 0 - 0 5 5 1 0 0 2 2 -11
p722
aVRashad Vaughn MIL 11/17/2015 MIL @ WAS L 11 5 1 4 25.0 1 2 50.0 2 2 100.0 0 0 0 0 0 0 1 2 -10
p723
aVGiannis Antetokounmpo MIL 11/17/2015 MIL @ WAS L 35 9 3 13 23.1 0 0 - 3 6 50.0 1 4 5 7 1 1 4 4 -17
p724
aVMichael Carter-Williams MIL 11/17/2015 MIL @ WAS L 22 12 5 10 50.0 2 4 50.0 0 2 0.0 0 1 1 0 0 0 4 2 -14
p725
aVJerryd Bayless MIL 11/17/2015 MIL @ WAS L 37 13 5 11 45.5 3 6 50.0 0 0 - 0 6 6 3 2 0 2 3 -22
p726
aVMiles Plumlee MIL 11/17/2015 MIL @ WAS L 6 2 1 2 50.0 0 0 - 0 0 - 0 0 0 0 0 0 0 0 -5
p727
aVKhris Middleton MIL 11/17/2015 MIL @ WAS L 27 14 6 12 50.0 2 6 33.3 0 0 - 0 2 2 0 1 0 1 4 -16
p728
aVJohnny O'Bryant III MIL 11/14/2015 MIL vs. CLE W 5 0 0 2 0.0 0 0 - 0 0 - 0 0 0 0 0 0 0 1 1
p729
aVGreivis Vasquez MIL 11/14/2015 MIL vs. CLE W 24 13 4 8 50.0 2 5 40.0 3 5 60.0 0 3 3 4 0 0 1 2 4
p730
aVMichael Carter-Williams MIL 11/14/2015 MIL vs. CLE W 40 17 6 12 50.0 0 0 - 5 6 83.3 1 4 5 4 2 2 3 1 4
p731
aVMiles Plumlee MIL 11/14/2015 MIL vs. CLE W 2 0 0 1 0.0 0 0 - 0 0 - 0 0 0 0 0 0 0 0 -1
p732
aVJohn Henson MIL 11/14/2015 MIL vs. CLE W 21 6 3 5 60.0 0 0 - 0 2 0.0 4 2 6 1 1 3 1 3 -8
p733
aVJabari Parker MIL 11/14/2015 MIL vs. CLE W 30 12 5 10 50.0 0 0 - 2 2 100.0 0 3 3 1 0 0 1 2 -1
p734
aVGiannis Antetokounmpo MIL 11/14/2015 MIL vs. CLE W 45 16 6 18 33.3 0 2 0.0 4 5 80.0 4 7 11 1 0 3 2 6 1
p735
aVKhris Middleton MIL 11/14/2015 MIL vs. CLE W 42 11 4 13 30.8 1 2 50.0 2 2 100.0 0 4 4 1 3 0 1 4 6
p736
aVGreg Monroe MIL 11/14/2015 MIL vs. CLE W 43 16 8 17 47.1 0 0 - 0 0 - 6 11 17 3 0 1 2 3 8
p737
aVJerryd Bayless MIL 11/14/2015 MIL vs. CLE W 39 17 7 16 43.8 3 7 42.9 0 0 - 0 2 2 5 0 0 1 3 1
p738
aVJerryd Bayless MIL 11/11/2015 MIL @ DEN L 28 22 7 10 70.0 3 3 100.0 5 6 83.3 1 1 2 4 2 0 3 4 3
p739
aVGreivis Vasquez MIL 11/11/2015 MIL @ DEN L 33 15 6 14 42.9 3 8 37.5 0 0 - 0 2 2 9 1 0 2 1 5
p740
aVKhris Middleton MIL 11/11/2015 MIL @ DEN L 42 13 5 13 38.5 3 5 60.0 0 0 - 0 1 1 2 4 0 2 2 5
p741
aVJohn Henson MIL 11/11/2015 MIL @ DEN L 15 4 2 5 40.0 0 0 - 0 0 - 0 2 2 1 0 1 1 2 -7
p742
aVGreg Monroe MIL 11/11/2015 MIL @ DEN L 33 18 9 13 69.2 0 0 - 0 0 - 2 8 10 2 1 0 2 2 6
p743
aVRashad Vaughn MIL 11/11/2015 MIL @ DEN L 10 0 0 1 0.0 0 1 0.0 0 0 - 0 0 0 0 0 0 1 0 -4
p744
aVTyler Ennis MIL 11/11/2015 MIL @ DEN L 15 7 3 4 75.0 1 2 50.0 0 0 - 0 0 0 0 0 0 2 1 -6
p745
aVGiannis Antetokounmpo MIL 11/11/2015 MIL @ DEN L 29 12 6 12 50.0 0 3 0.0 0 0 - 1 6 7 5 0 2 3 5 -26
p746
aVJohnny O'Bryant III MIL 11/11/2015 MIL @ DEN L 34 11 4 7 57.1 0 0 - 3 3 100.0 4 5 9 3 0 1 0 6 19
p747
aVJerryd Bayless MIL 11/10/2015 MIL vs. BOS L 30 12 3 9 33.3 2 4 50.0 4 4 100.0 0 2 2 2 3 0 2 3 -8
p748
aVGreivis Vasquez MIL 11/10/2015 MIL vs. BOS L 19 2 1 3 33.3 0 0 - 0 0 - 0 1 1 2 0 0 3 2 -20
p749
aVRashad Vaughn MIL 11/10/2015 MIL vs. BOS L 6 3 1 3 33.3 1 1 100.0 0 0 - 0 0 0 0 0 0 0 0 -9
p750
aVTyler Ennis MIL 11/10/2015 MIL vs. BOS L 24 4 2 4 50.0 0 0 - 0 0 - 0 0 0 2 1 0 1 1 2
p751
aVJohn Henson MIL 11/10/2015 MIL vs. BOS L 10 2 1 3 33.3 0 0 - 0 2 0.0 2 1 3 0 1 0 2 1 -22
p752
aVJohnny O'Bryant III MIL 11/10/2015 MIL vs. BOS L 13 3 1 4 25.0 0 0 - 1 2 50.0 2 2 4 0 0 0 1 1 -24
p753
aVGiannis Antetokounmpo MIL 11/10/2015 MIL vs. BOS L 24 16 6 13 46.2 1 3 33.3 3 3 100.0 0 3 3 0 2 0 4 5 -4
p754
aVMiles Plumlee MIL 11/10/2015 MIL vs. BOS L 3 0 0 0 - 0 0 - 0 0 - 0 1 1 0 0 0 0 0 -1
p755
aVChris Copeland MIL 11/10/2015 MIL vs. BOS L 5 0 0 2 0.0 0 1 0.0 0 0 - 0 0 0 0 0 0 0 0 -9
p756
aVGreg Monroe MIL 11/10/2015 MIL vs. BOS L 33 17 7 11 63.6 0 0 - 3 5 60.0 2 12 14 4 1 1 2 2 7
p757
aVJabari Parker MIL 11/10/2015 MIL vs. BOS L 24 8 4 6 66.7 0 0 - 0 0 - 3 5 8 1 2 0 0 1 23
p758
aVKhris Middleton MIL 11/10/2015 MIL vs. BOS L 37 13 3 12 25.0 2 6 33.3 5 5 100.0 0 2 2 2 0 1 1 1 -1
p759
aVDamien Inglis MIL 11/10/2015 MIL vs. BOS L 12 3 1 3 33.3 0 2 0.0 1 2 50.0 0 3 3 1 0 0 1 1 -14
p760
aVKhris Middleton MIL 11/07/2015 MIL vs. BKN W 33 14 4 6 66.7 3 3 100.0 3 5 60.0 0 9 9 7 1 0 1 2 11
p761
aVGiannis Antetokounmpo MIL 11/07/2015 MIL vs. BKN W 37 11 4 8 50.0 1 3 33.3 2 2 100.0 1 5 6 2 1 0 2 4 11
p762
aVJohn Henson MIL 11/07/2015 MIL vs. BKN W 9 4 2 5 40.0 0 0 - 0 0 - 2 2 4 1 0 1 1 3 4
p763
aVRashad Vaughn MIL 11/07/2015 MIL vs. BKN W 2 2 1 1 100.0 0 0 - 0 0 - 0 0 0 0 0 0 1 1 -7
p764
aVJabari Parker MIL 11/07/2015 MIL vs. BKN W 24 8 4 7 57.1 0 0 - 0 1 0.0 0 2 2 0 0 0 1 0 1
p765
aVJohnny O'Bryant III MIL 11/07/2015 MIL vs. BKN W 16 6 3 7 42.9 0 0 - 0 0 - 3 4 7 1 1 1 1 1 7
p766
aVChris Copeland MIL 11/07/2015 MIL vs. BKN W 2 0 0 0 - 0 0 - 0 0 - 0 0 0 0 0 0 0 0 -7
p767
aVDamien Inglis MIL 11/07/2015 MIL vs. BKN W 2 0 0 0 - 0 0 - 0 0 - 0 0 0 0 0 0 0 0 -7
p768
aVMiles Plumlee MIL 11/07/2015 MIL vs. BKN W 4 0 0 0 - 0 0 - 0 0 - 0 1 1 0 0 0 1 1 -8
p769
aVTyler Ennis MIL 11/07/2015 MIL vs. BKN W 16 9 4 9 44.4 1 1 100.0 0 0 - 1 0 1 1 1 0 1 2 -1
p770
aVGreivis Vasquez MIL 11/07/2015 MIL vs. BKN W 28 1 0 10 0.0 0 7 0.0 1 1 100.0 0 2 2 3 1 0 2 1 5
p771
aVGreg Monroe MIL 11/07/2015 MIL vs. BKN W 35 20 8 16 50.0 0 0 - 4 5 80.0 3 5 8 2 2 2 2 0 12
p772
aVJerryd Bayless MIL 11/07/2015 MIL vs. BKN W 32 19 7 13 53.8 3 6 50.0 2 2 100.0 0 1 1 10 2 2 2 1 19
p773
aVJohnny O'Bryant III MIL 11/06/2015 MIL @ NYK W 16 11 4 4 100.0 0 0 - 3 5 60.0 2 1 3 0 0 0 0 3 -5
p774
aVGreivis Vasquez MIL 11/06/2015 MIL @ NYK W 31 8 3 8 37.5 1 4 25.0 1 1 100.0 0 4 4 5 1 0 1 2 8
p775
aVJabari Parker MIL 11/06/2015 MIL @ NYK W 18 6 3 6 50.0 0 0 - 0 0 - 0 1 1 1 0 0 1 1 10
p776
aVTyler Ennis MIL 11/06/2015 MIL @ NYK W 17 4 1 4 25.0 0 0 - 2 2 100.0 1 3 4 3 0 0 1 3 -1
p777
aVGreg Monroe MIL 11/06/2015 MIL @ NYK W 23 8 3 12 25.0 0 0 - 2 2 100.0 4 3 7 3 0 1 3 2 2
p778
aVJerryd Bayless MIL 11/06/2015 MIL @ NYK W 28 5 2 9 22.2 1 5 20.0 0 0 - 0 2 2 4 1 0 2 3 -3
p779
aVChris Copeland MIL 11/06/2015 MIL @ NYK W 9 0 0 3 0.0 0 2 0.0 0 0 - 0 2 2 1 0 0 0 0 -4
p780
aVGiannis Antetokounmpo MIL 11/06/2015 MIL @ NYK W 36 20 7 13 53.8 0 0 - 6 6 100.0 1 6 7 1 2 1 1 4 7
p781
aVJohn Henson MIL 11/06/2015 MIL @ NYK W 23 22 8 12 66.7 0 0 - 6 7 85.7 4 1 5 1 1 3 1 1 9
p782
aVMiles Plumlee MIL 11/06/2015 MIL @ NYK W 2 2 1 1 100.0 0 0 - 0 0 - 1 0 1 0 0 0 0 0 -2
p783
aVKhris Middleton MIL 11/06/2015 MIL @ NYK W 38 13 3 9 33.3 1 3 33.3 6 6 100.0 0 5 5 2 1 0 2 5 14
p784
aVChris Copeland MIL 11/04/2015 MIL vs. PHI W 10 8 3 9 33.3 1 7 14.3 1 1 100.0 0 0 0 2 0 0 0 0 10
p785
aVKhris Middleton MIL 11/04/2015 MIL vs. PHI W 36 21 7 20 35.0 3 7 42.9 4 4 100.0 1 2 3 3 1 0 1 2 7
p786
aVGreivis Vasquez MIL 11/04/2015 MIL vs. PHI W 22 11 4 12 33.3 1 4 25.0 2 3 66.7 1 0 1 5 1 0 1 5 20
p787
aVTyler Ennis MIL 11/04/2015 MIL vs. PHI W 8 2 1 2 50.0 0 0 - 0 0 - 0 2 2 1 0 0 1 2 -7
p788
aVGreg Monroe MIL 11/04/2015 MIL vs. PHI W 36 18 7 14 50.0 0 0 - 4 5 80.0 2 6 8 4 3 0 2 3 6
p789
aVRashad Vaughn MIL 11/04/2015 MIL vs. PHI W 17 3 1 3 33.3 1 2 50.0 0 0 - 1 1 2 0 0 0 0 0 1
p790
aVJohnny O'Bryant III MIL 11/04/2015 MIL vs. PHI W 12 2 1 3 33.3 0 0 - 0 1 0.0 3 1 4 1 0 1 0 1 0
p791
aVJerryd Bayless MIL 11/04/2015 MIL vs. PHI W 30 5 2 6 33.3 1 2 50.0 0 0 - 0 4 4 3 0 0 1 2 -7
p792
aVMiles Plumlee MIL 11/04/2015 MIL vs. PHI W 12 2 1 1 100.0 0 0 - 0 0 - 0 4 4 1 0 2 1 2 -2
p793
aVJabari Parker MIL 11/04/2015 MIL vs. PHI W 16 2 1 5 20.0 0 0 - 0 0 - 0 3 3 1 0 0 0 0 -8
p794
aVGiannis Antetokounmpo MIL 11/04/2015 MIL vs. PHI W 41 17 7 11 63.6 1 1 100.0 2 3 66.7 0 5 5 3 1 1 3 2 0
p795
aVJohnny O'Bryant III MIL 11/02/2015 MIL @ BKN W 17 8 3 4 75.0 0 0 - 2 2 100.0 1 1 2 1 0 1 0 1 13
p796
aVKhris Middleton MIL 11/02/2015 MIL @ BKN W 39 17 6 12 50.0 2 5 40.0 3 4 75.0 1 4 5 3 1 1 0 2 0
p797
aVGreivis Vasquez MIL 11/02/2015 MIL @ BKN W 27 0 0 8 0.0 0 5 0.0 0 0 - 1 0 1 8 1 0 1 1 -3
p798
aVMiles Plumlee MIL 11/02/2015 MIL @ BKN W 6 2 1 1 100.0 0 0 - 0 0 - 1 1 2 1 0 0 3 4 -5
p799
aVJerryd Bayless MIL 11/02/2015 MIL @ BKN W 47 26 8 15 53.3 6 10 60.0 4 7 57.1 0 3 3 2 0 0 2 2 11
p800
aVGreg Monroe MIL 11/02/2015 MIL @ BKN W 39 23 10 14 71.4 0 0 - 3 4 75.0 1 12 13 1 1 1 2 4 15
p801
aVMichael Carter-Williams MIL 11/02/2015 MIL @ BKN W 23 6 2 3 66.7 0 0 - 2 4 50.0 0 2 2 5 3 2 2 5 10
p802
aVChris Copeland MIL 11/02/2015 MIL @ BKN W 0 0 0 0 - 0 0 - 0 0 - 0 0 0 0 0 0 0 0 0
p803
aVGiannis Antetokounmpo MIL 11/02/2015 MIL @ BKN W 42 21 8 16 50.0 1 3 33.3 4 5 80.0 3 5 8 3 0 2 4 4 4
p804
aVGreivis Vasquez MIL 11/01/2015 MIL @ TOR L 25 9 2 7 28.6 0 4 0.0 5 5 100.0 0 3 3 4 1 0 3 2 -10
p805
aVDamien Inglis MIL 11/01/2015 MIL @ TOR L 4 2 0 2 0.0 0 1 0.0 2 2 100.0 0 0 0 0 1 0 1 0 0
p806
aVJerryd Bayless MIL 11/01/2015 MIL @ TOR L 22 2 1 3 33.3 0 1 0.0 0 0 - 1 0 1 2 0 1 3 1 -13
p807
aVGreg Monroe MIL 11/01/2015 MIL @ TOR L 28 14 5 7 71.4 0 0 - 4 4 100.0 2 4 6 5 1 2 2 5 -18
p808
aVRashad Vaughn MIL 11/01/2015 MIL @ TOR L 4 0 0 2 0.0 0 1 0.0 0 0 - 0 0 0 0 0 0 0 0 0
p809
aVJohnny O'Bryant III MIL 11/01/2015 MIL @ TOR L 27 2 1 5 20.0 0 0 - 0 0 - 0 4 4 1 0 0 0 2 -5
p810
aVMichael Carter-Williams MIL 11/01/2015 MIL @ TOR L 33 12 3 10 30.0 2 5 40.0 4 4 100.0 1 4 5 7 2 0 4 2 -15
p811
aVKhris Middleton MIL 11/01/2015 MIL @ TOR L 29 8 3 10 30.0 0 2 0.0 2 2 100.0 0 2 2 0 0 0 2 5 -11
p812
aVMiles Plumlee MIL 11/01/2015 MIL @ TOR L 15 8 3 5 60.0 0 0 - 2 2 100.0 3 0 3 0 1 4 1 3 -2
p813
aVChris Copeland MIL 11/01/2015 MIL @ TOR L 21 10 3 6 50.0 2 4 50.0 2 2 100.0 0 0 0 0 0 0 2 0 -14
p814
aVGiannis Antetokounmpo MIL 11/01/2015 MIL @ TOR L 33 20 8 12 66.7 1 1 100.0 3 3 100.0 0 9 9 2 0 1 0 1 -7
p815
aVDamien Inglis MIL 10/30/2015 MIL vs. WAS L 3 0 0 1 0.0 0 0 - 0 0 - 0 1 1 0 0 0 0 1 -7
p816
aVGiannis Antetokounmpo MIL 10/30/2015 MIL vs. WAS L 34 27 9 15 60.0 1 3 33.3 8 10 80.0 3 6 9 2 3 0 6 6 -10
p817
aVMiles Plumlee MIL 10/30/2015 MIL vs. WAS L 13 4 2 3 66.7 0 0 - 0 0 - 0 2 2 0 0 0 1 2 -8
p818
aVJerryd Bayless MIL 10/30/2015 MIL vs. WAS L 27 14 5 11 45.5 2 7 28.6 2 3 66.7 0 0 0 4 1 0 1 1 -11
p819
aVChris Copeland MIL 10/30/2015 MIL vs. WAS L 9 6 2 4 50.0 2 4 50.0 0 0 - 0 2 2 1 0 0 0 5 6
p820
aVGreivis Vasquez MIL 10/30/2015 MIL vs. WAS L 17 0 0 3 0.0 0 1 0.0 0 0 - 0 2 2 5 0 0 2 4 -10
p821
aVKhris Middleton MIL 10/30/2015 MIL vs. WAS L 39 18 6 14 42.9 1 4 25.0 5 6 83.3 0 3 3 5 1 0 1 4 1
p822
aVJohnny O'Bryant III MIL 10/30/2015 MIL vs. WAS L 28 9 2 5 40.0 0 0 - 5 6 83.3 1 1 2 2 1 0 0 4 4
p823
aVGreg Monroe MIL 10/30/2015 MIL vs. WAS L 35 22 10 14 71.4 0 0 - 2 3 66.7 2 3 5 3 2 0 2 2 3
p824
aVMichael Carter-Williams MIL 10/30/2015 MIL vs. WAS L 36 13 6 12 50.0 1 5 20.0 0 0 - 0 6 6 11 1 2 3 3 7
p825
aVJohnny O'Bryant III MIL 10/28/2015 MIL vs. NYK L 17 0 0 1 0.0 0 0 - 0 0 - 1 2 3 0 0 0 0 3 -10
p826
aVGreg Monroe MIL 10/28/2015 MIL vs. NYK L 35 22 7 17 41.2 0 0 - 8 10 80.0 7 7 14 4 2 2 0 3 -15
p827
aVKhris Middleton MIL 10/28/2015 MIL vs. NYK L 35 11 4 15 26.7 3 6 50.0 0 0 - 1 1 2 0 0 0 2 4 -12
p828
aVDamien Inglis MIL 10/28/2015 MIL vs. NYK L 15 3 1 2 50.0 1 2 50.0 0 0 - 1 3 4 1 1 0 1 3 -6
p829
aVJerryd Bayless MIL 10/28/2015 MIL vs. NYK L 30 4 0 6 0.0 0 0 - 4 4 100.0 1 5 6 2 2 0 3 2 -15
p830
aVJohn Henson MIL 10/28/2015 MIL vs. NYK L 10 4 2 5 40.0 0 0 - 0 0 - 1 0 1 1 0 1 1 2 -1
p831
aVChris Copeland MIL 10/28/2015 MIL vs. NYK L 19 8 3 7 42.9 2 3 66.7 0 0 - 1 1 2 0 1 0 1 3 -17
p832
aVGreivis Vasquez MIL 10/28/2015 MIL vs. NYK L 29 18 4 10 40.0 2 4 50.0 8 8 100.0 1 6 7 5 0 0 2 2 -16
p833
aVMichael Carter-Williams MIL 10/28/2015 MIL vs. NYK L 34 20 6 17 35.3 0 1 0.0 8 9 88.9 2 3 5 4 1 0 6 4 -11
p834
aVRashad Vaughn MIL 10/28/2015 MIL vs. NYK L 13 7 3 5 60.0 1 2 50.0 0 0 - 1 1 2 0 0 1 1 0 -13
p835
aVMiles Plumlee MIL 10/28/2015 MIL vs. NYK L 3 0 0 1 0.0 0 0 - 0 0 - 1 0 1 0 0 0 1 1 -9
p836
a.