(lp0
VPLAYER TEAM DATE MATCHUP W/L MIN PTS FGM FGA FG% 3PM 3PA 3P% FTM FTA FT% OREB DREB REB AST STL BLK TOV PF +/-
p1
aVJaylen Brown BOS 01/21/2017 BOS vs. POR L 13 2 0 2 0.0 0 1 0.0 2 2 100.0 0 4 4 0 2 0 1 3 -2
p2
aVTerry Rozier BOS 01/21/2017 BOS vs. POR L 22 15 6 13 46.2 3 6 50.0 0 0 - 0 3 3 3 0 0 1 4 5
p3
aVIsaiah Thomas BOS 01/21/2017 BOS vs. POR L 44 41 14 28 50.0 4 11 36.4 9 11 81.8 1 2 3 6 0 0 6 1 -10
p4
aVJae Crowder BOS 01/21/2017 BOS vs. POR L 40 16 5 12 41.7 3 7 42.9 3 3 100.0 0 4 4 2 1 0 1 3 -2
p5
aVMarcus Smart BOS 01/21/2017 BOS vs. POR L 41 17 5 15 33.3 1 7 14.3 6 6 100.0 2 4 6 6 2 0 4 4 3
p6
aVJordan Mickey BOS 01/21/2017 BOS vs. POR L 13 2 1 3 33.3 0 0 - 0 0 - 2 1 3 1 0 0 0 1 -4
p7
aVKelly Olynyk BOS 01/21/2017 BOS vs. POR L 25 10 4 4 100.0 0 0 - 2 2 100.0 2 6 8 1 0 0 4 4 6
p8
aVAl Horford BOS 01/21/2017 BOS vs. POR L 38 17 6 13 46.2 2 2 100.0 3 5 60.0 2 7 9 5 0 0 1 6 -4
p9
aVAmir Johnson BOS 01/21/2017 BOS vs. POR L 29 3 1 2 50.0 0 1 0.0 1 2 50.0 5 2 7 2 1 2 3 3 -12
p10
aVIsaiah Thomas BOS 01/18/2017 BOS vs. NYK L 37 39 12 25 48.0 5 12 41.7 10 10 100.0 2 1 3 2 1 0 2 0 5
p11
aVJaylen Brown BOS 01/18/2017 BOS vs. NYK L 19 12 3 6 50.0 0 0 - 6 7 85.7 1 3 4 0 0 1 0 2 -8
p12
aVJordan Mickey BOS 01/18/2017 BOS vs. NYK L 6 2 0 1 0.0 0 0 - 2 2 100.0 0 0 0 0 1 2 0 0 -1
p13
aVAmir Johnson BOS 01/18/2017 BOS vs. NYK L 18 10 5 6 83.3 0 0 - 0 0 - 1 6 7 2 1 2 0 4 8
p14
aVJae Crowder BOS 01/18/2017 BOS vs. NYK L 37 21 7 13 53.8 2 5 40.0 5 6 83.3 0 5 5 1 0 0 0 3 -1
p15
aVGerald Green BOS 01/18/2017 BOS vs. NYK L 5 0 0 3 0.0 0 1 0.0 0 0 - 0 0 0 1 0 0 0 1 -6
p16
aVKelly Olynyk BOS 01/18/2017 BOS vs. NYK L 13 4 2 6 33.3 0 1 0.0 0 0 - 1 1 2 2 0 0 1 1 -11
p17
aVAl Horford BOS 01/18/2017 BOS vs. NYK L 34 5 2 14 14.3 1 8 12.5 0 0 - 2 5 7 10 1 1 0 0 2
p18
aVTerry Rozier BOS 01/18/2017 BOS vs. NYK L 24 5 1 8 12.5 1 4 25.0 2 2 100.0 0 1 1 2 1 0 0 3 -22
p19
aVJonas Jerebko BOS 01/18/2017 BOS vs. NYK L 16 4 2 3 66.7 0 0 - 0 0 - 0 1 1 0 1 0 0 0 -21
p20
aVMarcus Smart BOS 01/18/2017 BOS vs. NYK L 32 4 1 6 16.7 0 2 0.0 2 2 100.0 2 1 3 5 2 2 0 1 0
p21
aVAl Horford BOS 01/16/2017 BOS vs. CHA W 34 22 8 14 57.1 1 5 20.0 5 5 100.0 2 4 6 4 0 0 2 1 13
p22
aVKelly Olynyk BOS 01/16/2017 BOS vs. CHA W 26 15 6 9 66.7 2 2 100.0 1 2 50.0 3 6 9 4 1 0 1 2 0
p23
aVAmir Johnson BOS 01/16/2017 BOS vs. CHA W 21 2 1 3 33.3 0 1 0.0 0 0 - 1 5 6 1 0 1 0 3 6
p24
aVGerald Green BOS 01/16/2017 BOS vs. CHA W 4 0 0 0 - 0 0 - 0 0 - 0 0 0 1 0 0 0 0 -2
p25
aVJonas Jerebko BOS 01/16/2017 BOS vs. CHA W 14 3 1 1 100.0 1 1 100.0 0 0 - 0 1 1 3 0 0 2 0 -3
p26
aVIsaiah Thomas BOS 01/16/2017 BOS vs. CHA W 31 35 14 25 56.0 7 15 46.7 0 0 - 1 4 5 4 0 0 3 1 14
p27
aVJaylen Brown BOS 01/16/2017 BOS vs. CHA W 20 9 4 7 57.1 0 0 - 1 1 100.0 0 2 2 2 0 0 0 2 -4
p28
aVJae Crowder BOS 01/16/2017 BOS vs. CHA W 30 15 5 11 45.5 3 8 37.5 2 2 100.0 0 7 7 3 1 1 0 0 13
p29
aVMarcus Smart BOS 01/16/2017 BOS vs. CHA W 27 2 1 5 20.0 0 1 0.0 0 0 - 1 4 5 4 2 1 2 0 1
p30
aVAvery Bradley BOS 01/16/2017 BOS vs. CHA W 33 5 2 9 22.2 1 6 16.7 0 0 - 0 3 3 3 2 0 2 2 12
p31
aVAmir Johnson BOS 01/13/2017 BOS @ ATL W 14 0 0 0 - 0 0 - 0 0 - 2 2 4 0 1 1 2 4 -9
p32
aVAl Horford BOS 01/13/2017 BOS @ ATL W 35 10 4 8 50.0 2 5 40.0 0 2 0.0 0 6 6 6 1 1 1 1 13
p33
aVGerald Green BOS 01/13/2017 BOS @ ATL W 8 3 1 6 16.7 1 4 25.0 0 0 - 0 1 1 0 0 0 0 0 -7
p34
aVMarcus Smart BOS 01/13/2017 BOS @ ATL W 37 9 2 13 15.4 1 4 25.0 4 6 66.7 2 0 2 4 4 0 2 3 1
p35
aVTerry Rozier BOS 01/13/2017 BOS @ ATL W 23 7 3 5 60.0 0 1 0.0 1 2 50.0 1 3 4 0 1 1 0 1 -19
p36
aVJaylen Brown BOS 01/13/2017 BOS @ ATL W 8 2 1 5 20.0 0 2 0.0 0 0 - 0 3 3 0 0 0 0 0 -6
p37
aVJonas Jerebko BOS 01/13/2017 BOS @ ATL W 13 0 0 2 0.0 0 2 0.0 0 0 - 0 2 2 0 0 0 1 1 -11
p38
aVKelly Olynyk BOS 01/13/2017 BOS @ ATL W 32 26 9 11 81.8 4 5 80.0 4 4 100.0 2 6 8 3 0 0 0 4 20
p39
aVJae Crowder BOS 01/13/2017 BOS @ ATL W 33 18 7 12 58.3 4 8 50.0 0 0 - 1 8 9 0 0 0 1 1 15
p40
aVIsaiah Thomas BOS 01/13/2017 BOS @ ATL W 36 28 9 21 42.9 5 13 38.5 5 5 100.0 1 3 4 9 0 0 5 1 13
p41
aVIsaiah Thomas BOS 01/11/2017 BOS vs. WAS W 38 38 14 29 48.3 5 11 45.5 5 6 83.3 3 2 5 5 0 0 4 1 3
p42
aVJordan Mickey BOS 01/11/2017 BOS vs. WAS W 14 4 1 1 100.0 0 0 - 2 3 66.7 1 1 2 1 0 1 2 0 -6
p43
aVKelly Olynyk BOS 01/11/2017 BOS vs. WAS W 23 6 2 5 40.0 2 3 66.7 0 0 - 0 6 6 3 0 2 2 1 10
p44
aVMarcus Smart BOS 01/11/2017 BOS vs. WAS W 36 9 3 11 27.3 0 5 0.0 3 3 100.0 2 2 4 4 0 0 2 4 -2
p45
aVTerry Rozier BOS 01/11/2017 BOS vs. WAS W 25 11 4 6 66.7 2 3 66.7 1 1 100.0 0 4 4 1 1 0 0 1 19
p46
aVGerald Green BOS 01/11/2017 BOS vs. WAS W 14 5 2 6 33.3 1 4 25.0 0 1 0.0 1 2 3 1 1 0 0 0 9
p47
aVJae Crowder BOS 01/11/2017 BOS vs. WAS W 34 20 7 10 70.0 4 6 66.7 2 2 100.0 0 6 6 1 1 1 0 0 1
p48
aVJonas Jerebko BOS 01/11/2017 BOS vs. WAS W 22 8 3 5 60.0 1 3 33.3 1 2 50.0 2 4 6 1 0 1 2 1 16
p49
aVAl Horford BOS 01/11/2017 BOS vs. WAS W 33 16 7 12 58.3 2 6 33.3 0 0 - 1 8 9 3 2 2 2 2 -5
p50
aVAl Horford BOS 01/10/2017 BOS @ TOR L 35 14 5 11 45.5 2 4 50.0 2 2 100.0 2 7 9 4 1 0 3 1 -10
p51
aVGerald Green BOS 01/10/2017 BOS @ TOR L 24 14 6 12 50.0 0 3 0.0 2 2 100.0 0 5 5 0 0 0 2 2 4
p52
aVIsaiah Thomas BOS 01/10/2017 BOS @ TOR L 37 27 8 19 42.1 3 8 37.5 8 9 88.9 0 1 1 7 0 0 1 0 -14
p53
aVMarcus Smart BOS 01/10/2017 BOS @ TOR L 38 16 6 11 54.5 1 2 50.0 3 3 100.0 1 3 4 5 4 1 3 4 -6
p54
aVJonas Jerebko BOS 01/10/2017 BOS @ TOR L 17 7 2 3 66.7 1 1 100.0 2 2 100.0 0 2 2 1 1 0 0 3 5
p55
aVJaylen Brown BOS 01/10/2017 BOS @ TOR L 8 2 1 3 33.3 0 0 - 0 0 - 0 1 1 0 0 0 1 1 -6
p56
aVTerry Rozier BOS 01/10/2017 BOS @ TOR L 3 0 0 1 0.0 0 1 0.0 0 0 - 0 0 0 1 0 0 0 0 2
p57
aVKelly Olynyk BOS 01/10/2017 BOS @ TOR L 25 13 6 10 60.0 1 2 50.0 0 2 0.0 1 3 4 1 0 1 2 4 -7
p58
aVJae Crowder BOS 01/10/2017 BOS @ TOR L 38 9 4 10 40.0 1 5 20.0 0 0 - 0 2 2 1 1 0 2 1 -10
p59
aVAmir Johnson BOS 01/10/2017 BOS @ TOR L 16 4 2 5 40.0 0 1 0.0 0 0 - 2 3 5 1 0 1 0 4 2
p60
aVJonas Jerebko BOS 01/07/2017 BOS vs. NOP W 15 4 2 3 66.7 0 0 - 0 0 - 2 4 6 1 0 0 1 2 5
p61
aVGerald Green BOS 01/07/2017 BOS vs. NOP W 16 15 3 7 42.9 2 3 66.7 7 7 100.0 0 3 3 0 0 0 0 3 -5
p62
aVAl Horford BOS 01/07/2017 BOS vs. NOP W 35 8 3 18 16.7 1 6 16.7 1 1 100.0 4 3 7 8 0 2 2 2 -2
p63
aVAmir Johnson BOS 01/07/2017 BOS vs. NOP W 24 6 2 6 33.3 0 1 0.0 2 4 50.0 4 2 6 1 0 1 2 4 12
p64
aVMarcus Smart BOS 01/07/2017 BOS vs. NOP W 32 22 7 10 70.0 5 7 71.4 3 3 100.0 1 4 5 6 2 1 3 1 14
p65
aVJae Crowder BOS 01/07/2017 BOS vs. NOP W 31 8 3 9 33.3 2 5 40.0 0 0 - 1 5 6 2 1 0 0 1 6
p66
aVJaylen Brown BOS 01/07/2017 BOS vs. NOP W 14 0 0 4 0.0 0 0 - 0 0 - 0 4 4 2 0 0 1 3 12
p67
aVTerry Rozier BOS 01/07/2017 BOS vs. NOP W 13 4 2 3 66.7 0 0 - 0 0 - 1 2 3 2 1 0 0 1 1
p68
aVIsaiah Thomas BOS 01/07/2017 BOS vs. NOP W 38 38 13 24 54.2 6 11 54.5 6 6 100.0 1 2 3 0 2 1 1 2 -1
p69
aVKelly Olynyk BOS 01/07/2017 BOS vs. NOP W 22 12 5 9 55.6 2 3 66.7 0 0 - 1 3 4 4 0 0 0 3 3
p70
aVKelly Olynyk BOS 01/06/2017 BOS vs. PHI W 18 8 2 7 28.6 1 4 25.0 3 4 75.0 1 3 4 5 0 0 1 5 8
p71
aVAvery Bradley BOS 01/06/2017 BOS vs. PHI W 36 26 10 24 41.7 6 11 54.5 0 0 - 2 7 9 2 1 0 0 1 7
p72
aVAmir Johnson BOS 01/06/2017 BOS vs. PHI W 26 13 4 6 66.7 2 3 66.7 3 4 75.0 0 5 5 3 1 4 2 1 7
p73
aVGerald Green BOS 01/06/2017 BOS vs. PHI W 4 3 1 1 100.0 1 1 100.0 0 0 - 0 0 0 0 0 0 0 1 -4
p74
aVJonas Jerebko BOS 01/06/2017 BOS vs. PHI W 14 3 1 3 33.3 1 3 33.3 0 0 - 0 0 0 0 0 0 1 1 -1
p75
aVAl Horford BOS 01/06/2017 BOS vs. PHI W 32 19 7 15 46.7 4 7 57.1 1 2 50.0 5 7 12 4 0 2 1 5 1
p76
aVJae Crowder BOS 01/06/2017 BOS vs. PHI W 30 0 0 4 0.0 0 2 0.0 0 0 - 1 1 2 3 2 2 1 3 2
p77
aVJaylen Brown BOS 01/06/2017 BOS vs. PHI W 5 0 0 0 - 0 0 - 0 0 - 0 1 1 0 1 0 1 0 -6
p78
aVIsaiah Thomas BOS 01/06/2017 BOS vs. PHI W 35 24 6 14 42.9 2 4 50.0 10 11 90.9 1 3 4 3 0 0 7 4 3
p79
aVTerry Rozier BOS 01/06/2017 BOS vs. PHI W 11 0 0 1 0.0 0 0 - 0 0 - 2 1 3 0 0 1 2 0 5
p80
aVMarcus Smart BOS 01/06/2017 BOS vs. PHI W 30 14 4 12 33.3 2 5 40.0 4 4 100.0 0 2 2 8 1 2 1 1 -2
p81
aVMarcus Smart BOS 01/03/2017 BOS vs. UTA W 28 9 3 5 60.0 1 1 100.0 2 2 100.0 1 0 1 3 1 0 3 3 -3
p82
aVKelly Olynyk BOS 01/03/2017 BOS vs. UTA W 21 5 2 6 33.3 0 4 0.0 1 2 50.0 1 6 7 3 1 2 1 2 -6
p83
aVJae Crowder BOS 01/03/2017 BOS vs. UTA W 35 21 6 8 75.0 5 6 83.3 4 4 100.0 0 3 3 1 1 0 0 2 21
p84
aVJaylen Brown BOS 01/03/2017 BOS vs. UTA W 13 10 4 6 66.7 1 2 50.0 1 1 100.0 0 3 3 1 0 1 2 1 -10
p85
aVJonas Jerebko BOS 01/03/2017 BOS vs. UTA W 13 0 0 1 0.0 0 0 - 0 0 - 0 1 1 0 0 0 1 2 -6
p86
aVAvery Bradley BOS 01/03/2017 BOS vs. UTA W 36 14 4 7 57.1 2 4 50.0 4 4 100.0 0 3 3 2 0 0 3 3 12
p87
aVAmir Johnson BOS 01/03/2017 BOS vs. UTA W 28 6 3 7 42.9 0 0 - 0 0 - 1 4 5 2 0 3 1 1 17
p88
aVAl Horford BOS 01/03/2017 BOS vs. UTA W 31 21 9 16 56.3 3 6 50.0 0 0 - 1 4 5 4 1 0 1 5 18
p89
aVIsaiah Thomas BOS 01/03/2017 BOS vs. UTA W 35 29 10 18 55.6 5 8 62.5 4 4 100.0 0 4 4 15 1 0 1 3 12
p90
aVKelly Olynyk BOS 12/30/2016 BOS vs. MIA W 19 5 2 7 28.6 0 2 0.0 1 2 50.0 0 2 2 3 0 1 2 1 -10
p91
aVTerry Rozier BOS 12/30/2016 BOS vs. MIA W 21 2 1 1 100.0 0 0 - 0 1 0.0 0 5 5 2 1 0 2 2 -2
p92
aVIsaiah Thomas BOS 12/30/2016 BOS vs. MIA W 37 52 15 26 57.7 9 13 69.2 13 13 100.0 1 1 2 0 1 0 2 2 10
p93
aVMarcus Smart BOS 12/30/2016 BOS vs. MIA W 34 6 1 7 14.3 0 1 0.0 4 4 100.0 1 3 4 2 2 0 1 1 11
p94
aVAmir Johnson BOS 12/30/2016 BOS vs. MIA W 23 8 2 3 66.7 0 0 - 4 6 66.7 2 3 5 4 0 0 2 1 15
p95
aVJaylen Brown BOS 12/30/2016 BOS vs. MIA W 16 6 3 4 75.0 0 1 0.0 0 0 - 0 0 0 1 0 0 0 1 -8
p96
aVGerald Green BOS 12/30/2016 BOS vs. MIA W 6 2 1 2 50.0 0 0 - 0 0 - 0 1 1 1 0 0 0 0 -11
p97
aVAl Horford BOS 12/30/2016 BOS vs. MIA W 31 21 8 12 66.7 3 6 50.0 2 2 100.0 0 6 6 4 1 0 2 1 5
p98
aVJae Crowder BOS 12/30/2016 BOS vs. MIA W 31 9 3 8 37.5 3 6 50.0 0 0 - 0 2 2 6 1 0 1 1 9
p99
aVJonas Jerebko BOS 12/30/2016 BOS vs. MIA W 23 6 2 4 50.0 2 3 66.7 0 1 0.0 1 2 3 5 0 1 1 1 -4
p100
aVAmir Johnson BOS 12/29/2016 BOS @ CLE L 15 0 0 2 0.0 0 1 0.0 0 0 - 2 4 6 2 1 0 1 4 -8
p101
aVJaylen Brown BOS 12/29/2016 BOS @ CLE L 12 6 3 4 75.0 0 0 - 0 0 - 1 2 3 1 0 0 0 1 8
p102
aVIsaiah Thomas BOS 12/29/2016 BOS @ CLE L 34 31 8 13 61.5 2 5 40.0 13 13 100.0 1 2 3 9 2 0 3 1 -10
p103
aVGerald Green BOS 12/29/2016 BOS @ CLE L 16 8 3 6 50.0 2 4 50.0 0 0 - 0 0 0 0 1 1 0 4 -7
p104
aVAl Horford BOS 12/29/2016 BOS @ CLE L 29 6 3 9 33.3 0 2 0.0 0 0 - 0 1 1 4 0 3 2 2 -18
p105
aVAvery Bradley BOS 12/29/2016 BOS @ CLE L 30 23 10 21 47.6 3 10 30.0 0 0 - 0 3 3 0 4 0 4 3 -19
p106
aVKelly Olynyk BOS 12/29/2016 BOS @ CLE L 13 2 1 3 33.3 0 1 0.0 0 0 - 1 0 1 2 1 0 0 0 -6
p107
aVMarcus Smart BOS 12/29/2016 BOS @ CLE L 31 9 3 7 42.9 1 5 20.0 2 2 100.0 0 1 1 5 2 0 1 4 1
p108
aVTyler Zeller BOS 12/29/2016 BOS @ CLE L 10 8 3 4 75.0 0 0 - 2 2 100.0 0 0 0 0 0 0 0 0 13
p109
aVJonas Jerebko BOS 12/29/2016 BOS @ CLE L 17 12 4 7 57.1 2 4 50.0 2 2 100.0 1 6 7 0 2 0 0 1 13
p110
aVJae Crowder BOS 12/29/2016 BOS @ CLE L 34 13 5 9 55.6 2 5 40.0 1 2 50.0 0 4 4 3 2 0 0 3 3
p111
aVKelly Olynyk BOS 12/27/2016 BOS vs. MEM W 18 5 2 4 50.0 1 3 33.3 0 0 - 1 6 7 3 0 1 1 5 10
p112
aVJonas Jerebko BOS 12/27/2016 BOS vs. MEM W 6 0 0 1 0.0 0 1 0.0 0 0 - 0 1 1 1 0 0 0 0 1
p113
aVJaylen Brown BOS 12/27/2016 BOS vs. MEM W 4 0 0 0 - 0 0 - 0 0 - 0 0 0 1 0 0 0 0 0
p114
aVTyler Zeller BOS 12/27/2016 BOS vs. MEM W 6 0 0 1 0.0 0 0 - 0 0 - 1 0 1 0 0 0 0 1 0
p115
aVAvery Bradley BOS 12/27/2016 BOS vs. MEM W 34 23 10 17 58.8 1 3 33.3 2 3 66.7 2 5 7 4 2 1 1 4 5
p116
aVAl Horford BOS 12/27/2016 BOS vs. MEM W 34 11 5 14 35.7 1 4 25.0 0 0 - 2 2 4 5 0 2 5 3 2
p117
aVMarcus Smart BOS 12/27/2016 BOS vs. MEM W 29 13 3 9 33.3 2 4 50.0 5 6 83.3 1 3 4 6 2 1 2 1 16
p118
aVJae Crowder BOS 12/27/2016 BOS vs. MEM W 32 17 6 9 66.7 3 5 60.0 2 2 100.0 0 7 7 0 0 1 2 2 -3
p119
aVIsaiah Thomas BOS 12/27/2016 BOS vs. MEM W 34 21 6 14 42.9 1 6 16.7 8 8 100.0 0 1 1 7 0 0 4 3 3
p120
aVGerald Green BOS 12/27/2016 BOS vs. MEM W 19 19 7 10 70.0 3 5 60.0 2 2 100.0 3 2 5 1 0 1 1 0 12
p121
aVAmir Johnson BOS 12/27/2016 BOS vs. MEM W 25 4 2 6 33.3 0 0 - 0 0 - 4 6 10 2 2 0 1 5 4
p122
aVAl Horford BOS 12/25/2016 BOS @ NYK W 35 15 7 13 53.8 1 3 33.3 0 0 - 3 4 7 5 3 2 0 0 5
p123
aVJonas Jerebko BOS 12/25/2016 BOS @ NYK W 13 2 1 5 20.0 0 3 0.0 0 0 - 1 1 2 0 1 0 0 3 -2
p124
aVJae Crowder BOS 12/25/2016 BOS @ NYK W 34 16 5 9 55.6 3 6 50.0 3 4 75.0 1 5 6 1 0 0 0 3 3
p125
aVGerald Green BOS 12/25/2016 BOS @ NYK W 12 8 3 6 50.0 2 3 66.7 0 0 - 2 2 4 1 1 1 0 0 16
p126
aVIsaiah Thomas BOS 12/25/2016 BOS @ NYK W 33 27 9 23 39.1 3 13 23.1 6 8 75.0 0 3 3 4 0 0 2 3 -7
p127
aVMarcus Smart BOS 12/25/2016 BOS @ NYK W 28 15 5 9 55.6 2 4 50.0 3 4 75.0 1 1 2 7 1 0 1 2 16
p128
aVAmir Johnson BOS 12/25/2016 BOS @ NYK W 24 9 3 6 50.0 0 0 - 3 4 75.0 4 1 5 3 1 0 0 4 8
p129
aVKelly Olynyk BOS 12/25/2016 BOS @ NYK W 23 16 7 9 77.8 2 3 66.7 0 0 - 0 2 2 2 0 0 1 3 -6
p130
aVAvery Bradley BOS 12/25/2016 BOS @ NYK W 32 11 5 12 41.7 1 1 100.0 0 0 - 0 6 6 2 3 0 1 2 -6
p131
aVJaylen Brown BOS 12/25/2016 BOS @ NYK W 6 0 0 1 0.0 0 0 - 0 0 - 0 2 2 0 0 0 0 0 -2
p132
aVAmir Johnson BOS 12/23/2016 BOS vs. OKC L 26 17 6 10 60.0 1 2 50.0 4 5 80.0 3 3 6 5 2 0 0 3 5
p133
aVJae Crowder BOS 12/23/2016 BOS vs. OKC L 32 3 1 6 16.7 0 3 0.0 1 1 100.0 1 3 4 1 2 0 0 5 -11
p134
aVAvery Bradley BOS 12/23/2016 BOS vs. OKC L 36 16 6 16 37.5 1 5 20.0 3 6 50.0 2 4 6 1 0 0 1 3 -5
p135
aVKelly Olynyk BOS 12/23/2016 BOS vs. OKC L 13 0 0 1 0.0 0 1 0.0 0 0 - 0 1 1 1 0 0 0 2 -10
p136
aVMarcus Smart BOS 12/23/2016 BOS vs. OKC L 24 7 3 10 30.0 1 2 50.0 0 0 - 1 2 3 4 1 1 3 4 -10
p137
aVTerry Rozier BOS 12/23/2016 BOS vs. OKC L 8 3 1 2 50.0 1 1 100.0 0 0 - 0 2 2 2 0 0 0 0 1
p138
aVAl Horford BOS 12/23/2016 BOS vs. OKC L 33 23 8 17 47.1 3 6 50.0 4 4 100.0 1 5 6 4 2 1 2 4 -9
p139
aVJonas Jerebko BOS 12/23/2016 BOS vs. OKC L 15 2 1 2 50.0 0 0 - 0 0 - 0 6 6 0 0 0 1 2 9
p140
aVTyler Zeller BOS 12/23/2016 BOS vs. OKC L 7 2 1 2 50.0 0 0 - 0 0 - 0 0 0 0 0 0 0 1 -1
p141
aVIsaiah Thomas BOS 12/23/2016 BOS vs. OKC L 34 34 12 22 54.5 2 8 25.0 8 9 88.9 0 2 2 10 1 0 5 3 1
p142
aVJaylen Brown BOS 12/23/2016 BOS vs. OKC L 13 5 2 5 40.0 0 0 - 1 1 100.0 2 1 3 1 0 0 0 2 5
p143
aVJaylen Brown BOS 12/22/2016 BOS @ IND W 18 4 2 7 28.6 0 0 - 0 0 - 2 0 2 0 1 0 0 4 4
p144
aVKelly Olynyk BOS 12/22/2016 BOS @ IND W 20 11 4 8 50.0 2 5 40.0 1 1 100.0 0 5 5 2 1 0 2 3 7
p145
aVAl Horford BOS 12/22/2016 BOS @ IND W 33 8 3 12 25.0 0 3 0.0 2 2 100.0 3 8 11 1 0 1 1 2 5
p146
aVMarcus Smart BOS 12/22/2016 BOS @ IND W 25 12 2 8 25.0 1 4 25.0 7 8 87.5 0 4 4 3 2 1 0 5 7
p147
aVIsaiah Thomas BOS 12/22/2016 BOS @ IND W 32 28 9 21 42.9 2 11 18.2 8 9 88.9 0 1 1 9 0 0 0 4 11
p148
aVAvery Bradley BOS 12/22/2016 BOS @ IND W 31 15 6 13 46.2 0 3 0.0 3 3 100.0 1 4 5 0 3 0 2 4 1
p149
aVJae Crowder BOS 12/22/2016 BOS @ IND W 35 15 5 9 55.6 3 5 60.0 2 2 100.0 1 5 6 2 1 0 3 2 15
p150
aVTerry Rozier BOS 12/22/2016 BOS @ IND W 7 0 0 3 0.0 0 3 0.0 0 0 - 0 0 0 0 1 0 1 0 -12
p151
aVAmir Johnson BOS 12/22/2016 BOS @ IND W 24 11 5 7 71.4 1 2 50.0 0 2 0.0 1 5 6 1 1 0 1 3 -2
p152
aVJonas Jerebko BOS 12/22/2016 BOS @ IND W 15 5 2 4 50.0 1 3 33.3 0 0 - 1 3 4 1 0 0 0 0 -1
p153
aVGerald Green BOS 12/20/2016 BOS @ MEM W 7 5 2 6 33.3 1 3 33.3 0 0 - 1 2 3 0 0 0 1 0 -8
p154
aVAvery Bradley BOS 12/20/2016 BOS @ MEM W 38 16 5 8 62.5 1 3 33.3 5 6 83.3 0 3 3 3 1 1 1 5 11
p155
aVAmir Johnson BOS 12/20/2016 BOS @ MEM W 24 5 2 4 50.0 0 1 0.0 1 2 50.0 1 2 3 2 0 0 0 5 -2
p156
aVTerry Rozier BOS 12/20/2016 BOS @ MEM W 7 0 0 4 0.0 0 1 0.0 0 0 - 0 1 1 1 0 0 0 0 -9
p157
aVKelly Olynyk BOS 12/20/2016 BOS @ MEM W 26 10 2 7 28.6 1 2 50.0 5 6 83.3 1 2 3 1 3 2 2 1 4
p158
aVMarcus Smart BOS 12/20/2016 BOS @ MEM W 22 0 0 3 0.0 0 2 0.0 0 0 - 1 1 2 4 1 0 2 2 2
p159
aVIsaiah Thomas BOS 12/20/2016 BOS @ MEM W 38 44 10 16 62.5 7 10 70.0 17 17 100.0 0 3 3 6 2 1 1 1 8
p160
aVJaylen Brown BOS 12/20/2016 BOS @ MEM W 11 2 1 6 16.7 0 3 0.0 0 0 - 0 1 1 0 0 0 0 0 -4
p161
aVJae Crowder BOS 12/20/2016 BOS @ MEM W 40 13 3 8 37.5 1 4 25.0 6 6 100.0 0 7 7 2 0 0 2 2 11
p162
aVAl Horford BOS 12/20/2016 BOS @ MEM W 40 17 8 19 42.1 1 8 12.5 0 1 0.0 3 11 14 3 0 1 2 3 11
p163
aVJonas Jerebko BOS 12/20/2016 BOS @ MEM W 12 0 0 0 - 0 0 - 0 0 - 1 0 1 0 0 0 0 3 -9
p164
aVKelly Olynyk BOS 12/18/2016 BOS @ MIA W 13 4 1 5 20.0 0 2 0.0 2 4 50.0 0 2 2 0 3 0 2 1 4
p165
aVIsaiah Thomas BOS 12/18/2016 BOS @ MIA W 28 23 9 16 56.3 3 6 50.0 2 2 100.0 1 1 2 4 1 0 2 1 12
p166
aVAl Horford BOS 12/18/2016 BOS @ MIA W 31 17 7 16 43.8 0 5 0.0 3 3 100.0 2 5 7 8 2 1 1 1 4
p167
aVJonas Jerebko BOS 12/18/2016 BOS @ MIA W 23 4 2 7 28.6 0 2 0.0 0 0 - 2 1 3 1 0 0 0 5 -6
p168
aVJaylen Brown BOS 12/18/2016 BOS @ MIA W 8 2 1 2 50.0 0 0 - 0 0 - 0 0 0 0 0 1 0 0 0
p169
aVTyler Zeller BOS 12/18/2016 BOS @ MIA W 4 0 0 2 0.0 0 1 0.0 0 0 - 0 1 1 0 0 0 0 0 4
p170
aVMarcus Smart BOS 12/18/2016 BOS @ MIA W 27 6 2 8 25.0 0 1 0.0 2 2 100.0 1 5 6 4 2 0 3 1 1
p171
aVTerry Rozier BOS 12/18/2016 BOS @ MIA W 18 5 2 3 66.7 0 0 - 1 2 50.0 0 1 1 1 0 0 0 0 9
p172
aVAvery Bradley BOS 12/18/2016 BOS @ MIA W 34 20 9 16 56.3 2 4 50.0 0 0 - 1 4 5 0 1 0 2 3 11
p173
aVJae Crowder BOS 12/18/2016 BOS @ MIA W 34 15 4 10 40.0 3 6 50.0 4 6 66.7 2 4 6 1 4 0 0 1 7
p174
aVAmir Johnson BOS 12/18/2016 BOS @ MIA W 20 9 4 5 80.0 1 1 100.0 0 0 - 2 2 4 2 0 0 1 3 4
p175
aVMarcus Smart BOS 12/16/2016 BOS vs. CHA W 24 5 2 4 50.0 0 1 0.0 1 1 100.0 1 6 7 5 0 0 3 1 1
p176
aVKelly Olynyk BOS 12/16/2016 BOS vs. CHA W 18 7 2 5 40.0 2 3 66.7 1 2 50.0 0 3 3 2 2 2 0 1 5
p177
aVJaylen Brown BOS 12/16/2016 BOS vs. CHA W 9 2 1 5 20.0 0 2 0.0 0 0 - 0 1 1 0 0 0 0 1 -1
p178
aVJae Crowder BOS 12/16/2016 BOS vs. CHA W 35 12 3 7 42.9 2 5 40.0 4 4 100.0 0 5 5 3 0 0 2 2 10
p179
aVTerry Rozier BOS 12/16/2016 BOS vs. CHA W 16 2 1 3 33.3 0 0 - 0 0 - 0 5 5 1 0 0 2 2 9
p180
aVJonas Jerebko BOS 12/16/2016 BOS vs. CHA W 25 9 4 8 50.0 1 5 20.0 0 0 - 1 2 3 3 2 0 0 3 13
p181
aVAmir Johnson BOS 12/16/2016 BOS vs. CHA W 13 3 1 1 100.0 0 0 - 1 4 25.0 0 4 4 0 0 1 1 1 -8
p182
aVIsaiah Thomas BOS 12/16/2016 BOS vs. CHA W 35 26 9 20 45.0 2 6 33.3 6 7 85.7 1 2 3 5 0 0 2 1 -2
p183
aVAl Horford BOS 12/16/2016 BOS vs. CHA W 35 18 6 11 54.5 0 0 - 6 8 75.0 1 7 8 5 2 5 2 0 6
p184
aVAvery Bradley BOS 12/16/2016 BOS vs. CHA W 31 12 5 14 35.7 2 6 33.3 0 0 - 1 6 7 2 1 0 1 3 7
p185
aVAl Horford BOS 12/14/2016 BOS @ SAS L 35 13 4 12 33.3 1 4 25.0 4 4 100.0 1 4 5 4 0 0 2 2 -7
p186
aVTerry Rozier BOS 12/14/2016 BOS @ SAS L 25 12 5 13 38.5 2 5 40.0 0 0 - 2 1 3 2 1 1 0 0 11
p187
aVKelly Olynyk BOS 12/14/2016 BOS @ SAS L 19 7 2 4 50.0 1 1 100.0 2 2 100.0 0 3 3 1 1 0 1 3 -8
p188
aVTyler Zeller BOS 12/14/2016 BOS @ SAS L 12 2 1 3 33.3 0 0 - 0 0 - 0 1 1 2 0 0 0 0 0
p189
aVJonas Jerebko BOS 12/14/2016 BOS @ SAS L 15 6 2 6 33.3 0 3 0.0 2 2 100.0 0 0 0 1 1 0 0 0 3
p190
aVMarcus Smart BOS 12/14/2016 BOS @ SAS L 37 11 5 12 41.7 0 4 0.0 1 1 100.0 1 1 2 6 3 0 3 2 -17
p191
aVJae Crowder BOS 12/14/2016 BOS @ SAS L 36 15 5 12 41.7 3 8 37.5 2 3 66.7 1 5 6 2 1 1 1 3 2
p192
aVAvery Bradley BOS 12/14/2016 BOS @ SAS L 35 25 10 16 62.5 3 6 50.0 2 2 100.0 1 9 10 6 3 0 3 2 -4
p193
aVJaylen Brown BOS 12/14/2016 BOS @ SAS L 11 7 2 3 66.7 0 0 - 3 4 75.0 1 1 2 0 1 1 2 1 -11
p194
aVAmir Johnson BOS 12/14/2016 BOS @ SAS L 17 3 1 3 33.3 0 0 - 1 2 50.0 1 2 3 1 1 0 0 0 -4
p195
aVJae Crowder BOS 12/11/2016 BOS @ OKC L 27 18 7 9 77.8 3 4 75.0 1 1 100.0 0 2 2 3 1 1 3 6 0
p196
aVAl Horford BOS 12/11/2016 BOS @ OKC L 33 19 8 17 47.1 3 8 37.5 0 0 - 1 3 4 6 0 1 1 1 -4
p197
aVAvery Bradley BOS 12/11/2016 BOS @ OKC L 35 18 8 18 44.4 2 4 50.0 0 1 0.0 1 3 4 2 3 0 4 2 -12
p198
aVJonas Jerebko BOS 12/11/2016 BOS @ OKC L 12 0 0 1 0.0 0 1 0.0 0 0 - 0 1 1 0 0 0 0 1 -2
p199
aVAmir Johnson BOS 12/11/2016 BOS @ OKC L 29 6 3 8 37.5 0 1 0.0 0 0 - 4 4 8 3 1 2 1 3 7
p200
aVKelly Olynyk BOS 12/11/2016 BOS @ OKC L 22 8 2 9 22.2 1 7 14.3 3 4 75.0 2 6 8 2 2 0 1 3 -6
p201
aVMarcus Smart BOS 12/11/2016 BOS @ OKC L 36 11 5 11 45.5 1 4 25.0 0 1 0.0 1 5 6 8 1 0 2 2 11
p202
aVTerry Rozier BOS 12/11/2016 BOS @ OKC L 29 6 3 12 25.0 0 2 0.0 0 0 - 2 3 5 3 0 0 0 2 -11
p203
aVJaylen Brown BOS 12/11/2016 BOS @ OKC L 18 10 4 5 80.0 1 1 100.0 1 1 100.0 1 1 2 1 1 0 1 2 2
p204
aVTyler Zeller BOS 12/09/2016 BOS vs. TOR L 5 0 0 3 0.0 0 0 - 0 0 - 1 2 3 1 0 0 0 0 -1
p205
aVJae Crowder BOS 12/09/2016 BOS vs. TOR L 33 7 2 11 18.2 1 6 16.7 2 2 100.0 2 4 6 3 1 0 0 1 -9
p206
aVAvery Bradley BOS 12/09/2016 BOS vs. TOR L 34 19 7 11 63.6 5 7 71.4 0 0 - 0 5 5 2 0 0 4 5 -13
p207
aVMarcus Smart BOS 12/09/2016 BOS vs. TOR L 36 12 3 11 27.3 3 7 42.9 3 5 60.0 1 3 4 5 0 0 2 1 12
p208
aVAmir Johnson BOS 12/09/2016 BOS vs. TOR L 13 5 2 4 50.0 1 2 50.0 0 0 - 0 3 3 1 1 0 0 1 0
p209
aVJonas Jerebko BOS 12/09/2016 BOS vs. TOR L 17 8 3 5 60.0 2 4 50.0 0 0 - 2 1 3 0 0 0 0 2 5
p210
aVAl Horford BOS 12/09/2016 BOS vs. TOR L 32 19 5 14 35.7 3 8 37.5 6 9 66.7 1 6 7 6 0 1 4 2 -10
p211
aVKelly Olynyk BOS 12/09/2016 BOS vs. TOR L 23 5 2 6 33.3 0 2 0.0 1 2 50.0 1 8 9 3 3 1 2 1 -11
p212
aVTerry Rozier BOS 12/09/2016 BOS vs. TOR L 25 12 4 12 33.3 1 5 20.0 3 4 75.0 0 3 3 3 0 1 1 4 -14
p213
aVJaylen Brown BOS 12/09/2016 BOS vs. TOR L 22 7 3 6 50.0 1 1 100.0 0 0 - 0 3 3 0 0 1 0 1 6
p214
aVTyler Zeller BOS 12/07/2016 BOS @ ORL W 7 0 0 1 0.0 0 0 - 0 0 - 0 1 1 1 1 1 0 0 2
p215
aVJonas Jerebko BOS 12/07/2016 BOS @ ORL W 14 0 0 2 0.0 0 2 0.0 0 0 - 1 3 4 4 0 0 1 0 15
p216
aVKelly Olynyk BOS 12/07/2016 BOS @ ORL W 20 9 4 8 50.0 0 3 0.0 1 1 100.0 1 3 4 2 1 0 0 1 15
p217
aVGerald Green BOS 12/07/2016 BOS @ ORL W 8 1 0 2 0.0 0 1 0.0 1 2 50.0 0 1 1 1 1 0 1 1 -1
p218
aVDemetrius Jackson BOS 12/07/2016 BOS @ ORL W 2 0 0 0 - 0 0 - 0 0 - 0 1 1 1 0 0 0 0 2
p219
aVAl Horford BOS 12/07/2016 BOS @ ORL W 29 10 3 9 33.3 0 3 0.0 4 4 100.0 1 5 6 8 0 2 0 2 31
p220
aVJaylen Brown BOS 12/07/2016 BOS @ ORL W 22 13 5 8 62.5 1 3 33.3 2 3 66.7 1 1 2 1 0 0 3 3 7
p221
aVMarcus Smart BOS 12/07/2016 BOS @ ORL W 23 13 5 7 71.4 1 2 50.0 2 2 100.0 0 3 3 3 2 0 2 4 19
p222
aVAmir Johnson BOS 12/07/2016 BOS @ ORL W 23 11 5 7 71.4 0 0 - 1 1 100.0 2 3 5 1 0 0 1 3 -5
p223
aVAvery Bradley BOS 12/07/2016 BOS @ ORL W 33 23 7 14 50.0 3 5 60.0 6 7 85.7 0 4 4 3 1 1 1 1 24
p224
aVJordan Mickey BOS 12/07/2016 BOS @ ORL W 2 4 2 3 66.7 0 0 - 0 0 - 3 0 3 0 0 0 0 0 2
p225
aVJae Crowder BOS 12/07/2016 BOS @ ORL W 30 17 6 10 60.0 1 3 33.3 4 5 80.0 1 9 10 2 0 0 1 3 26
p226
aVTerry Rozier BOS 12/07/2016 BOS @ ORL W 26 16 6 13 46.2 1 4 25.0 3 4 75.0 1 4 5 2 1 0 0 1 13
p227
aVAvery Bradley BOS 12/05/2016 BOS @ HOU L 35 16 8 16 50.0 0 2 0.0 0 0 - 2 8 10 1 1 0 1 5 1
p228
aVJaylen Brown BOS 12/05/2016 BOS @ HOU L 19 7 3 6 50.0 1 2 50.0 0 0 - 0 1 1 0 0 0 0 2 4
p229
aVAl Horford BOS 12/05/2016 BOS @ HOU L 35 21 9 22 40.9 1 5 20.0 2 2 100.0 1 5 6 9 1 2 4 3 -7
p230
aVAmir Johnson BOS 12/05/2016 BOS @ HOU L 5 0 0 1 0.0 0 0 - 0 0 - 1 1 2 0 0 0 1 2 -2
p231
aVMarcus Smart BOS 12/05/2016 BOS @ HOU L 27 13 4 9 44.4 1 4 25.0 4 5 80.0 2 3 5 2 0 1 0 3 1
p232
aVJae Crowder BOS 12/05/2016 BOS @ HOU L 36 12 4 9 44.4 2 5 40.0 2 2 100.0 0 3 3 5 0 0 1 0 -6
p233
aVKelly Olynyk BOS 12/05/2016 BOS @ HOU L 15 7 3 6 50.0 1 2 50.0 0 0 - 1 4 5 2 1 0 1 2 6
p234
aVTerry Rozier BOS 12/05/2016 BOS @ HOU L 14 4 2 6 33.3 0 2 0.0 0 0 - 0 3 3 5 1 0 0 0 3
p235
aVJonas Jerebko BOS 12/05/2016 BOS @ HOU L 21 6 2 5 40.0 2 3 66.7 0 0 - 3 2 5 0 1 1 1 1 2
p236
aVIsaiah Thomas BOS 12/05/2016 BOS @ HOU L 33 20 7 19 36.8 3 7 42.9 3 3 100.0 0 2 2 3 2 0 2 2 -7
p237
aVAmir Johnson BOS 12/03/2016 BOS @ PHI W 15 6 3 4 75.0 0 1 0.0 0 0 - 0 2 2 1 0 1 0 2 3
p238
aVGerald Green BOS 12/03/2016 BOS @ PHI W 3 1 0 2 0.0 0 1 0.0 1 2 50.0 0 0 0 0 1 0 0 0 1
p239
aVMarcus Smart BOS 12/03/2016 BOS @ PHI W 32 7 2 6 33.3 0 4 0.0 3 4 75.0 0 3 3 3 1 0 1 2 10
p240
aVAvery Bradley BOS 12/03/2016 BOS @ PHI W 32 20 9 16 56.3 1 6 16.7 1 2 50.0 2 7 9 2 1 0 1 1 -7
p241
aVAl Horford BOS 12/03/2016 BOS @ PHI W 34 11 4 10 40.0 1 3 33.3 2 2 100.0 0 4 4 3 0 1 1 2 -9
p242
aVTyler Zeller BOS 12/03/2016 BOS @ PHI W 4 0 0 0 - 0 0 - 0 0 - 0 0 0 0 0 0 0 1 1
p243
aVJae Crowder BOS 12/03/2016 BOS @ PHI W 33 10 4 8 50.0 2 4 50.0 0 0 - 1 3 4 3 1 0 0 4 7
p244
aVKelly Olynyk BOS 12/03/2016 BOS @ PHI W 11 6 2 2 100.0 1 1 100.0 1 2 50.0 0 0 0 1 0 0 3 4 2
p245
aVIsaiah Thomas BOS 12/03/2016 BOS @ PHI W 33 37 11 19 57.9 2 3 66.7 13 15 86.7 1 3 4 7 1 0 2 2 4
p246
aVTerry Rozier BOS 12/03/2016 BOS @ PHI W 10 0 0 3 0.0 0 1 0.0 0 0 - 1 2 3 0 0 0 1 0 -6
p247
aVJonas Jerebko BOS 12/03/2016 BOS @ PHI W 16 5 2 4 50.0 1 2 50.0 0 0 - 1 5 6 1 0 0 1 3 -3
p248
aVJaylen Brown BOS 12/03/2016 BOS @ PHI W 15 4 1 2 50.0 0 0 - 2 2 100.0 0 2 2 1 0 1 0 0 2
p249
aVJae Crowder BOS 12/02/2016 BOS vs. SAC W 37 16 6 12 50.0 3 5 60.0 1 1 100.0 0 3 3 3 1 0 2 4 15
p250
aVTerry Rozier BOS 12/02/2016 BOS vs. SAC W 16 2 1 7 14.3 0 2 0.0 0 0 - 1 2 3 2 2 1 1 0 7
p251
aVJames Young BOS 12/02/2016 BOS vs. SAC W 2 0 0 0 - 0 0 - 0 0 - 0 1 1 0 0 0 0 0 1
p252
aVKelly Olynyk BOS 12/02/2016 BOS vs. SAC W 17 2 1 3 33.3 0 1 0.0 0 0 - 1 4 5 1 0 0 0 3 1
p253
aVMarcus Smart BOS 12/02/2016 BOS vs. SAC W 23 3 1 4 25.0 1 3 33.3 0 0 - 0 1 1 3 0 1 4 3 -16
p254
aVJonas Jerebko BOS 12/02/2016 BOS vs. SAC W 17 5 2 5 40.0 1 1 100.0 0 0 - 1 8 9 1 0 0 2 1 8
p255
aVAvery Bradley BOS 12/02/2016 BOS vs. SAC W 35 15 6 13 46.2 2 4 50.0 1 1 100.0 2 7 9 2 2 0 1 1 2
p256
aVIsaiah Thomas BOS 12/02/2016 BOS vs. SAC W 34 20 6 21 28.6 0 5 0.0 8 9 88.9 1 2 3 7 2 0 1 4 8
p257
aVTyler Zeller BOS 12/02/2016 BOS vs. SAC W 4 0 0 1 0.0 0 0 - 0 0 - 1 0 1 0 0 0 1 0 -9
p258
aVAl Horford BOS 12/02/2016 BOS vs. SAC W 36 26 10 18 55.6 4 7 57.1 2 2 100.0 2 6 8 3 2 6 1 2 9
p259
aVJaylen Brown BOS 12/02/2016 BOS vs. SAC W 4 0 0 1 0.0 0 0 - 0 0 - 0 0 0 0 0 0 0 1 -10
p260
aVAmir Johnson BOS 12/02/2016 BOS vs. SAC W 15 8 3 3 100.0 0 0 - 2 2 100.0 2 0 2 3 1 1 0 3 9
p261
aVTyler Zeller BOS 11/30/2016 BOS vs. DET L 5 1 0 0 - 0 0 - 1 2 50.0 1 0 1 0 0 0 0 2 -1
p262
aVTerry Rozier BOS 11/30/2016 BOS vs. DET L 15 3 1 5 20.0 0 2 0.0 1 1 100.0 0 2 2 6 1 0 0 2 -2
p263
aVJaylen Brown BOS 11/30/2016 BOS vs. DET L 4 0 0 2 0.0 0 0 - 0 0 - 0 0 0 1 0 0 0 0 -7
p264
aVJae Crowder BOS 11/30/2016 BOS vs. DET L 36 14 5 15 33.3 2 10 20.0 2 2 100.0 1 4 5 4 2 0 0 0 -3
p265
aVIsaiah Thomas BOS 11/30/2016 BOS vs. DET L 33 27 10 20 50.0 3 7 42.9 4 4 100.0 0 0 0 4 0 0 2 0 -6
p266
aVKelly Olynyk BOS 11/30/2016 BOS vs. DET L 26 19 7 9 77.8 3 4 75.0 2 2 100.0 1 2 3 2 0 0 1 4 10
p267
aVAvery Bradley BOS 11/30/2016 BOS vs. DET L 36 14 4 12 33.3 4 8 50.0 2 2 100.0 0 6 6 0 1 0 1 1 -9
p268
aVMarcus Smart BOS 11/30/2016 BOS vs. DET L 24 12 4 14 28.6 2 8 25.0 2 2 100.0 2 0 2 3 1 0 0 3 1
p269
aVJonas Jerebko BOS 11/30/2016 BOS vs. DET L 15 4 2 2 100.0 0 0 - 0 0 - 1 3 4 1 0 0 0 0 -8
p270
aVAl Horford BOS 11/30/2016 BOS vs. DET L 32 9 3 5 60.0 1 2 50.0 2 2 100.0 0 5 5 4 0 2 1 2 -9
p271
aVAmir Johnson BOS 11/30/2016 BOS vs. DET L 15 11 4 7 57.1 0 1 0.0 3 3 100.0 3 2 5 1 1 1 0 3 -1
p272
aVIsaiah Thomas BOS 11/28/2016 BOS @ MIA W 35 25 7 23 30.4 2 10 20.0 9 9 100.0 0 4 4 8 1 0 1 3 3
p273
aVJae Crowder BOS 11/28/2016 BOS @ MIA W 32 17 6 11 54.5 2 4 50.0 3 3 100.0 0 4 4 3 2 0 0 3 5
p274
aVTyler Zeller BOS 11/28/2016 BOS @ MIA W 25 10 4 7 57.1 0 0 - 2 2 100.0 3 4 7 2 0 1 1 4 0
p275
aVAmir Johnson BOS 11/28/2016 BOS @ MIA W 13 4 2 2 100.0 0 0 - 0 1 0.0 1 2 3 1 0 0 0 1 -1
p276
aVJaylen Brown BOS 11/28/2016 BOS @ MIA W 9 0 0 2 0.0 0 1 0.0 0 0 - 1 0 1 1 0 0 0 2 -4
p277
aVTerry Rozier BOS 11/28/2016 BOS @ MIA W 13 5 2 4 50.0 1 3 33.3 0 0 - 0 3 3 1 0 0 1 0 5
p278
aVMarcus Smart BOS 11/28/2016 BOS @ MIA W 33 12 3 8 37.5 1 3 33.3 5 9 55.6 0 2 2 4 1 0 3 5 2
p279
aVAvery Bradley BOS 11/28/2016 BOS @ MIA W 39 18 8 16 50.0 2 2 100.0 0 0 - 0 6 6 2 0 0 0 4 12
p280
aVJonas Jerebko BOS 11/28/2016 BOS @ MIA W 21 7 3 3 100.0 1 1 100.0 0 0 - 1 3 4 0 0 0 0 1 8
p281
aVKelly Olynyk BOS 11/28/2016 BOS @ MIA W 20 14 5 7 71.4 2 3 66.7 2 2 100.0 0 6 6 4 0 2 3 4 10
p282
aVJonas Jerebko BOS 11/25/2016 BOS vs. SAS L 11 7 3 4 75.0 1 1 100.0 0 0 - 0 3 3 1 0 0 0 0 -6
p283
aVAvery Bradley BOS 11/25/2016 BOS vs. SAS L 38 19 8 15 53.3 3 4 75.0 0 0 - 1 7 8 3 0 0 1 2 -8
p284
aVJae Crowder BOS 11/25/2016 BOS vs. SAS L 28 18 7 12 58.3 4 9 44.4 0 0 - 0 3 3 5 1 0 1 4 6
p285
aVTerry Rozier BOS 11/25/2016 BOS vs. SAS L 20 3 1 3 33.3 0 2 0.0 1 1 100.0 0 2 2 0 2 0 1 2 -13
p286
aVJaylen Brown BOS 11/25/2016 BOS vs. SAS L 6 2 1 3 33.3 0 0 - 0 1 0.0 0 2 2 0 0 0 0 1 -5
p287
aVIsaiah Thomas BOS 11/25/2016 BOS vs. SAS L 36 24 9 21 42.9 3 9 33.3 3 4 75.0 0 1 1 8 0 0 2 2 6
p288
aVKelly Olynyk BOS 11/25/2016 BOS vs. SAS L 20 9 4 6 66.7 1 2 50.0 0 0 - 1 0 1 1 3 0 0 0 3
p289
aVAmir Johnson BOS 11/25/2016 BOS vs. SAS L 17 0 0 5 0.0 0 1 0.0 0 0 - 1 1 2 0 1 1 1 4 -6
p290
aVMarcus Smart BOS 11/25/2016 BOS vs. SAS L 27 9 3 9 33.3 0 3 0.0 3 3 100.0 3 1 4 10 1 0 1 3 -6
p291
aVAl Horford BOS 11/25/2016 BOS vs. SAS L 35 12 6 13 46.2 0 3 0.0 0 0 - 2 8 10 4 0 3 3 3 0
p292
aVTyler Zeller BOS 11/25/2016 BOS vs. SAS L 2 0 0 0 - 0 0 - 0 0 - 0 0 0 0 0 0 0 0 -1
p293
aVIsaiah Thomas BOS 11/23/2016 BOS @ BKN W 32 23 8 21 38.1 5 9 55.6 2 2 100.0 0 1 1 5 0 1 2 1 10
p294
aVAvery Bradley BOS 11/23/2016 BOS @ BKN W 34 22 10 22 45.5 1 7 14.3 1 2 50.0 1 6 7 1 5 0 2 3 20
p295
aVAmir Johnson BOS 11/23/2016 BOS @ BKN W 19 2 1 2 50.0 0 0 - 0 0 - 2 7 9 1 0 0 1 2 9
p296
aVJaylen Brown BOS 11/23/2016 BOS @ BKN W 4 0 0 1 0.0 0 0 - 0 0 - 1 2 3 0 0 0 2 1 -2
p297
aVAl Horford BOS 11/23/2016 BOS @ BKN W 30 17 7 12 58.3 3 4 75.0 0 0 - 1 4 5 8 1 2 2 2 21
p298
aVJonas Jerebko BOS 11/23/2016 BOS @ BKN W 17 10 4 4 100.0 1 1 100.0 1 1 100.0 1 0 1 0 1 0 1 2 -8
p299
aVKelly Olynyk BOS 11/23/2016 BOS @ BKN W 19 10 3 9 33.3 2 5 40.0 2 2 100.0 1 1 2 1 2 0 1 4 0
p300
aVMarcus Smart BOS 11/23/2016 BOS @ BKN W 31 4 2 10 20.0 0 4 0.0 0 0 - 2 6 8 8 2 1 1 2 13
p301
aVTerry Rozier BOS 11/23/2016 BOS @ BKN W 23 6 3 4 75.0 0 1 0.0 0 0 - 1 5 6 1 2 0 1 2 6
p302
aVJames Young BOS 11/23/2016 BOS @ BKN W 2 0 0 0 - 0 0 - 0 0 - 0 0 0 0 0 0 0 0 4
p303
aVJae Crowder BOS 11/23/2016 BOS @ BKN W 22 15 6 11 54.5 3 7 42.9 0 1 0.0 1 4 5 1 0 0 0 2 13
p304
aVTyler Zeller BOS 11/23/2016 BOS @ BKN W 8 2 1 2 50.0 0 0 - 0 0 - 1 3 4 0 0 2 0 1 9
p305
aVJonas Jerebko BOS 11/21/2016 BOS @ MIN W 19 5 2 3 66.7 1 2 50.0 0 0 - 0 3 3 0 1 0 0 2 20
p306
aVTerry Rozier BOS 11/21/2016 BOS @ MIN W 16 12 5 8 62.5 2 4 50.0 0 0 - 1 3 4 2 1 0 0 0 10
p307
aVAvery Bradley BOS 11/21/2016 BOS @ MIN W 33 13 5 12 41.7 1 3 33.3 2 2 100.0 0 3 3 0 0 0 1 3 -9
p308
aVMarcus Smart BOS 11/21/2016 BOS @ MIN W 31 9 3 9 33.3 3 6 50.0 0 0 - 0 6 6 5 1 0 6 1 12
p309
aVIsaiah Thomas BOS 11/21/2016 BOS @ MIN W 32 29 9 20 45.0 2 9 22.2 9 10 90.0 0 2 2 3 1 0 1 3 -4
p310
aVTyler Zeller BOS 11/21/2016 BOS @ MIN W 9 2 1 1 100.0 0 0 - 0 0 - 0 3 3 1 0 0 0 1 -3
p311
aVJae Crowder BOS 11/21/2016 BOS @ MIN W 24 4 2 6 33.3 0 3 0.0 0 0 - 1 4 5 0 0 0 3 3 -12
p312
aVAmir Johnson BOS 11/21/2016 BOS @ MIN W 15 2 1 2 50.0 0 1 0.0 0 0 - 0 2 2 2 0 1 0 4 -2
p313
aVKelly Olynyk BOS 11/21/2016 BOS @ MIN W 13 3 1 2 50.0 1 2 50.0 0 0 - 0 3 3 1 0 0 0 2 -7
p314
aVAl Horford BOS 11/21/2016 BOS @ MIN W 36 20 9 20 45.0 2 7 28.6 0 0 - 4 2 6 5 1 3 0 2 10
p315
aVJaylen Brown BOS 11/21/2016 BOS @ MIN W 13 0 0 1 0.0 0 1 0.0 0 2 0.0 0 2 2 1 0 0 0 0 15
p316
aVAvery Bradley BOS 11/19/2016 BOS @ DET W 36 13 6 10 60.0 1 3 33.3 0 0 - 1 3 4 3 0 0 1 2 4
p317
aVAl Horford BOS 11/19/2016 BOS @ DET W 34 18 7 12 58.3 2 3 66.7 2 2 100.0 2 9 11 5 2 3 1 2 17
p318
aVJaylen Brown BOS 11/19/2016 BOS @ DET W 8 5 1 2 50.0 1 1 100.0 2 2 100.0 0 0 0 0 0 0 1 0 -5
p319
aVTyler Zeller BOS 11/19/2016 BOS @ DET W 4 2 1 3 33.3 0 0 - 0 0 - 1 0 1 0 0 0 0 0 -1
p320
aVTerry Rozier BOS 11/19/2016 BOS @ DET W 14 5 1 3 33.3 1 2 50.0 2 2 100.0 1 4 5 1 0 0 0 0 2
p321
aVIsaiah Thomas BOS 11/19/2016 BOS @ DET W 36 24 7 22 31.8 2 8 25.0 8 9 88.9 1 3 4 8 0 1 0 1 3
p322
aVKelly Olynyk BOS 11/19/2016 BOS @ DET W 14 5 2 3 66.7 1 2 50.0 0 0 - 0 1 1 1 0 0 1 1 -11
p323
aVAmir Johnson BOS 11/19/2016 BOS @ DET W 20 2 1 5 20.0 0 0 - 0 0 - 0 3 3 0 0 0 1 2 -10
p324
aVJae Crowder BOS 11/19/2016 BOS @ DET W 27 9 3 9 33.3 1 4 25.0 2 2 100.0 0 4 4 0 1 1 2 0 3
p325
aVJonas Jerebko BOS 11/19/2016 BOS @ DET W 18 9 3 4 75.0 3 3 100.0 0 0 - 1 5 6 1 0 0 1 4 5
p326
aVMarcus Smart BOS 11/19/2016 BOS @ DET W 31 2 1 9 11.1 0 5 0.0 0 0 - 2 5 7 3 0 2 0 1 3
p327
aVMarcus Smart BOS 11/18/2016 BOS vs. GSW L 25 10 4 10 40.0 2 4 50.0 0 0 - 0 0 0 1 2 0 2 0 -21
p328
aVJaylen Brown BOS 11/18/2016 BOS vs. GSW L 23 11 4 9 44.4 2 6 33.3 1 2 50.0 0 1 1 0 0 1 0 3 8
p329
aVJames Young BOS 11/18/2016 BOS vs. GSW L 12 2 1 3 33.3 0 2 0.0 0 0 - 0 3 3 1 0 0 0 0 13
p330
aVAvery Bradley BOS 11/18/2016 BOS vs. GSW L 35 17 7 15 46.7 2 4 50.0 1 2 50.0 1 9 10 2 2 1 3 2 -22
p331
aVTerry Rozier BOS 11/18/2016 BOS vs. GSW L 26 11 3 5 60.0 2 3 66.7 3 4 75.0 1 6 7 5 0 0 1 1 2
p332
aVKelly Olynyk BOS 11/18/2016 BOS vs. GSW L 17 0 0 5 0.0 0 2 0.0 0 0 - 1 2 3 2 0 0 0 1 -20
p333
aVDemetrius Jackson BOS 11/18/2016 BOS vs. GSW L 0 0 0 0 - 0 0 - 0 0 - 0 0 0 0 0 0 0 0 0
p334
aVJonas Jerebko BOS 11/18/2016 BOS vs. GSW L 15 2 1 1 100.0 0 0 - 0 0 - 0 2 2 1 2 0 2 2 -7
p335
aVJordan Mickey BOS 11/18/2016 BOS vs. GSW L 3 0 0 1 0.0 0 0 - 0 0 - 0 0 0 0 0 0 0 0 -11
p336
aVTyler Zeller BOS 11/18/2016 BOS vs. GSW L 23 5 2 6 33.3 0 0 - 1 2 50.0 3 4 7 2 0 0 2 1 11
p337
aVGerald Green BOS 11/18/2016 BOS vs. GSW L 17 6 2 11 18.2 2 5 40.0 0 0 - 0 6 6 0 0 0 0 1 -4
p338
aVIsaiah Thomas BOS 11/18/2016 BOS vs. GSW L 28 18 4 12 33.3 1 6 16.7 9 9 100.0 0 2 2 4 0 0 1 1 -20
p339
aVAmir Johnson BOS 11/18/2016 BOS vs. GSW L 16 6 3 5 60.0 0 0 - 0 0 - 1 1 2 1 0 1 2 0 -9
p340
aVJaylen Brown BOS 11/16/2016 BOS vs. DAL W 12 4 2 3 66.7 0 0 - 0 0 - 1 2 3 0 1 0 3 2 -2
p341
aVKelly Olynyk BOS 11/16/2016 BOS vs. DAL W 29 10 5 8 62.5 0 1 0.0 0 0 - 0 4 4 0 0 0 2 3 4
p342
aVJames Young BOS 11/16/2016 BOS vs. DAL W 7 0 0 1 0.0 0 1 0.0 0 0 - 0 0 0 0 0 0 0 0 2
p343
aVAvery Bradley BOS 11/16/2016 BOS vs. DAL W 34 18 8 19 42.1 2 6 33.3 0 1 0.0 2 11 13 1 0 0 3 1 11
p344
aVTerry Rozier BOS 11/16/2016 BOS vs. DAL W 22 5 2 4 50.0 1 1 100.0 0 0 - 0 3 3 0 0 2 3 2 -7
p345
aVMarcus Smart BOS 11/16/2016 BOS vs. DAL W 36 4 1 6 16.7 0 3 0.0 2 4 50.0 1 6 7 4 2 1 2 3 9
p346
aVJonas Jerebko BOS 11/16/2016 BOS vs. DAL W 24 5 2 3 66.7 1 2 50.0 0 0 - 1 6 7 0 0 0 0 1 9
p347
aVIsaiah Thomas BOS 11/16/2016 BOS vs. DAL W 33 30 7 18 38.9 3 5 60.0 13 16 81.3 2 2 4 6 0 0 5 2 10
p348
aVGerald Green BOS 11/16/2016 BOS vs. DAL W 7 2 1 4 25.0 0 2 0.0 0 0 - 1 1 2 3 1 0 0 1 -4
p349
aVTyler Zeller BOS 11/16/2016 BOS vs. DAL W 8 4 2 6 33.3 0 0 - 0 0 - 2 2 4 0 0 0 0 0 0
p350
aVAmir Johnson BOS 11/16/2016 BOS vs. DAL W 29 8 3 4 75.0 0 0 - 2 2 100.0 3 3 6 4 2 0 1 2 3
p351
aVTyler Zeller BOS 11/14/2016 BOS @ NOP L 5 0 0 2 0.0 0 0 - 0 0 - 0 0 0 1 0 0 0 0 -5
p352
aVJames Young BOS 11/14/2016 BOS @ NOP L 6 0 0 0 - 0 0 - 0 0 - 0 0 0 0 0 0 0 0 -3
p353
aVJonas Jerebko BOS 11/14/2016 BOS @ NOP L 19 4 2 6 33.3 0 3 0.0 0 0 - 0 2 2 0 0 0 0 2 -1
p354
aVJaylen Brown BOS 11/14/2016 BOS @ NOP L 17 8 3 5 60.0 0 0 - 2 2 100.0 4 0 4 1 2 0 1 1 -2
p355
aVAmir Johnson BOS 11/14/2016 BOS @ NOP L 27 9 3 7 42.9 1 3 33.3 2 2 100.0 2 3 5 4 0 0 0 6 -2
p356
aVIsaiah Thomas BOS 11/14/2016 BOS @ NOP L 36 37 13 29 44.8 3 10 30.0 8 10 80.0 0 3 3 7 2 0 1 3 13
p357
aVAvery Bradley BOS 11/14/2016 BOS @ NOP L 34 19 7 17 41.2 3 8 37.5 2 2 100.0 1 9 10 1 0 0 2 4 2
p358
aVTerry Rozier BOS 11/14/2016 BOS @ NOP L 13 7 3 7 42.9 1 4 25.0 0 0 - 1 1 2 0 0 0 0 2 -9
p359
aVMarcus Smart BOS 11/14/2016 BOS @ NOP L 37 15 6 12 50.0 3 6 50.0 0 0 - 2 4 6 3 4 0 2 1 -3
p360
aVKelly Olynyk BOS 11/14/2016 BOS @ NOP L 35 5 1 8 12.5 1 7 14.3 2 2 100.0 0 8 8 1 0 0 2 6 10
p361
aVJordan Mickey BOS 11/14/2016 BOS @ NOP L 9 1 0 2 0.0 0 0 - 1 2 50.0 1 3 4 1 1 0 2 2 -5
p362
aVJonas Jerebko BOS 11/12/2016 BOS @ IND W 21 0 0 4 0.0 0 2 0.0 0 0 - 0 5 5 0 0 2 1 1 12
p363
aVIsaiah Thomas BOS 11/12/2016 BOS @ IND W 29 23 4 13 30.8 1 2 50.0 14 15 93.3 0 0 0 5 1 0 2 4 -7
p364
aVTerry Rozier BOS 11/12/2016 BOS @ IND W 22 11 4 7 57.1 2 4 50.0 1 2 50.0 0 6 6 1 1 1 0 0 14
p365
aVJaylen Brown BOS 11/12/2016 BOS @ IND W 7 0 0 1 0.0 0 1 0.0 0 0 - 0 2 2 1 0 0 0 0 -1
p366
aVMarcus Smart BOS 11/12/2016 BOS @ IND W 34 9 4 11 36.4 0 2 0.0 1 2 50.0 1 1 2 2 1 0 0 4 5
p367
aVAmir Johnson BOS 11/12/2016 BOS @ IND W 31 14 4 8 50.0 0 1 0.0 6 6 100.0 5 4 9 3 0 1 3 4 -1
p368
aVJames Young BOS 11/12/2016 BOS @ IND W 16 12 5 6 83.3 2 3 66.7 0 0 - 2 1 3 1 2 0 0 0 7
p369
aVAvery Bradley BOS 11/12/2016 BOS @ IND W 36 13 5 11 45.5 1 4 25.0 2 2 100.0 1 7 8 5 2 1 4 3 0
p370
aVTyler Zeller BOS 11/12/2016 BOS @ IND W 16 7 3 6 50.0 0 0 - 1 2 50.0 4 2 6 0 0 1 0 0 5
p371
aVKelly Olynyk BOS 11/12/2016 BOS @ IND W 28 16 6 13 46.2 2 6 33.3 2 4 50.0 2 4 6 4 0 1 3 5 -4
p372
aVKelly Olynyk BOS 11/11/2016 BOS vs. NYK W 30 19 6 11 54.5 3 5 60.0 4 4 100.0 2 5 7 3 2 0 3 3 25
p373
aVMarcus Smart BOS 11/11/2016 BOS vs. NYK W 34 12 5 13 38.5 2 7 28.6 0 0 - 1 5 6 10 3 0 1 1 23
p374
aVTyler Zeller BOS 11/11/2016 BOS vs. NYK W 21 11 3 6 50.0 0 0 - 5 7 71.4 1 3 4 0 2 1 3 4 15
p375
aVIsaiah Thomas BOS 11/11/2016 BOS vs. NYK W 28 29 9 17 52.9 3 5 60.0 8 8 100.0 2 1 3 4 1 0 2 1 16
p376
aVJaylen Brown BOS 11/11/2016 BOS vs. NYK W 17 10 3 9 33.3 1 3 33.3 3 8 37.5 0 4 4 0 0 1 0 2 9
p377
aVGerald Green BOS 11/11/2016 BOS vs. NYK W 3 0 0 1 0.0 0 0 - 0 0 - 1 0 1 1 0 0 2 0 1
p378
aVAvery Bradley BOS 11/11/2016 BOS vs. NYK W 32 15 5 17 29.4 1 4 25.0 4 4 100.0 3 7 10 2 3 0 2 2 6
p379
aVAmir Johnson BOS 11/11/2016 BOS vs. NYK W 21 2 0 1 0.0 0 0 - 2 2 100.0 2 1 3 1 1 0 2 2 21
p380
aVTerry Rozier BOS 11/11/2016 BOS vs. NYK W 27 10 1 8 12.5 1 1 100.0 7 8 87.5 2 3 5 1 2 0 0 2 28
p381
aVJonas Jerebko BOS 11/11/2016 BOS vs. NYK W 21 5 2 4 50.0 0 1 0.0 1 2 50.0 3 2 5 1 1 1 0 1 -6
p382
aVJordan Mickey BOS 11/11/2016 BOS vs. NYK W 3 2 1 2 50.0 0 0 - 0 0 - 2 1 3 0 0 0 0 0 1
p383
aVJames Young BOS 11/11/2016 BOS vs. NYK W 3 0 0 1 0.0 0 1 0.0 0 0 - 0 2 2 0 1 0 0 0 1
p384
aVJordan Mickey BOS 11/09/2016 BOS @ WAS L 8 2 1 2 50.0 0 0 - 0 0 - 1 1 2 0 0 0 0 0 -9
p385
aVMarcus Smart BOS 11/09/2016 BOS @ WAS L 36 20 7 18 38.9 4 9 44.4 2 5 40.0 0 3 3 1 1 0 2 3 -6
p386
aVTerry Rozier BOS 11/09/2016 BOS @ WAS L 14 0 0 4 0.0 0 1 0.0 0 2 0.0 0 1 1 3 0 0 1 0 -14
p387
aVTyler Zeller BOS 11/09/2016 BOS @ WAS L 14 6 3 4 75.0 0 0 - 0 0 - 1 1 2 1 0 1 0 0 -3
p388
aVKelly Olynyk BOS 11/09/2016 BOS @ WAS L 26 2 1 6 16.7 0 3 0.0 0 0 - 0 6 6 1 0 0 0 1 -1
p389
aVGerald Green BOS 11/09/2016 BOS @ WAS L 11 0 0 3 0.0 0 2 0.0 0 0 - 0 1 1 1 0 0 1 2 3
p390
aVDemetrius Jackson BOS 11/09/2016 BOS @ WAS L 4 2 1 1 100.0 0 0 - 0 2 0.0 0 0 0 0 0 0 0 0 -4
p391
aVAvery Bradley BOS 11/09/2016 BOS @ WAS L 38 21 9 14 64.3 3 7 42.9 0 1 0.0 1 2 3 2 2 1 1 3 -22
p392
aVJaylen Brown BOS 11/09/2016 BOS @ WAS L 13 3 1 2 50.0 0 0 - 1 2 50.0 0 2 2 0 1 0 2 1 -13
p393
aVIsaiah Thomas BOS 11/09/2016 BOS @ WAS L 35 23 6 18 33.3 1 6 16.7 10 10 100.0 3 3 6 10 0 0 3 4 -19
p394
aVAmir Johnson BOS 11/09/2016 BOS @ WAS L 24 11 5 5 100.0 1 1 100.0 0 0 - 1 2 3 1 1 1 1 4 -20
p395
aVJonas Jerebko BOS 11/09/2016 BOS @ WAS L 12 3 1 2 50.0 1 2 50.0 0 0 - 0 2 2 0 0 1 0 0 -13
p396
aVJames Young BOS 11/09/2016 BOS @ WAS L 4 0 0 2 0.0 0 0 - 0 0 - 0 0 0 1 0 0 0 1 -4
p397
aVGerald Green BOS 11/06/2016 BOS vs. DEN L 10 8 3 4 75.0 2 3 66.7 0 0 - 0 2 2 4 0 0 1 3 -2
p398
aVMarcus Smart BOS 11/06/2016 BOS vs. DEN L 27 13 6 13 46.2 1 4 25.0 0 0 - 2 3 5 2 0 0 1 2 -7
p399
aVJames Young BOS 11/06/2016 BOS vs. DEN L 9 0 0 1 0.0 0 0 - 0 0 - 0 1 1 0 0 0 1 1 5
p400
aVJaylen Brown BOS 11/06/2016 BOS vs. DEN L 21 4 1 7 14.3 0 3 0.0 2 2 100.0 2 1 3 4 0 1 1 3 -6
p401
aVAmir Johnson BOS 11/06/2016 BOS vs. DEN L 16 4 2 5 40.0 0 0 - 0 0 - 0 1 1 4 0 0 0 0 -7
p402
aVTyler Zeller BOS 11/06/2016 BOS vs. DEN L 26 6 3 7 42.9 0 0 - 0 0 - 0 5 5 2 1 1 1 5 -11
p403
aVAvery Bradley BOS 11/06/2016 BOS vs. DEN L 34 14 6 17 35.3 1 5 20.0 1 2 50.0 2 9 11 6 0 1 0 2 -14
p404
aVTerry Rozier BOS 11/06/2016 BOS vs. DEN L 16 5 2 6 33.3 1 3 33.3 0 0 - 0 2 2 1 0 0 0 0 -4
p405
aVJonas Jerebko BOS 11/06/2016 BOS vs. DEN L 18 7 3 6 50.0 1 2 50.0 0 0 - 3 0 3 0 1 1 1 3 -20
p406
aVIsaiah Thomas BOS 11/06/2016 BOS vs. DEN L 33 30 9 17 52.9 1 4 25.0 11 12 91.7 0 1 1 5 1 0 4 3 -20
p407
aVJordan Mickey BOS 11/06/2016 BOS vs. DEN L 19 8 4 4 100.0 0 0 - 0 1 0.0 0 2 2 1 0 0 1 2 3
p408
aVDemetrius Jackson BOS 11/06/2016 BOS vs. DEN L 11 8 2 3 66.7 1 1 100.0 3 4 75.0 2 1 3 2 0 0 0 0 3
p409
aVJaylen Brown BOS 11/03/2016 BOS @ CLE L 35 19 8 16 50.0 3 6 50.0 0 1 0.0 3 2 5 2 3 1 1 4 15
p410
aVJames Young BOS 11/03/2016 BOS @ CLE L 2 0 0 0 - 0 0 - 0 0 - 0 0 0 0 0 0 0 0 8
p411
aVIsaiah Thomas BOS 11/03/2016 BOS @ CLE L 34 30 8 19 42.1 0 6 0.0 14 14 100.0 0 3 3 6 0 0 3 3 -7
p412
aVGerald Green BOS 11/03/2016 BOS @ CLE L 9 6 2 6 33.3 2 4 50.0 0 0 - 0 0 0 0 0 0 0 1 -4
p413
aVJonas Jerebko BOS 11/03/2016 BOS @ CLE L 13 4 2 6 33.3 0 0 - 0 0 - 1 0 1 0 0 0 0 2 -13
p414
aVJordan Mickey BOS 11/03/2016 BOS @ CLE L 10 2 1 2 50.0 0 0 - 0 0 - 0 1 1 0 0 0 0 4 -8
p415
aVAvery Bradley BOS 11/03/2016 BOS @ CLE L 39 26 11 20 55.0 2 6 33.3 2 2 100.0 1 9 10 2 1 0 3 2 -2
p416
aVTerry Rozier BOS 11/03/2016 BOS @ CLE L 16 7 3 5 60.0 1 2 50.0 0 0 - 0 3 3 2 0 0 0 2 6
p417
aVTyler Zeller BOS 11/03/2016 BOS @ CLE L 28 11 5 8 62.5 0 0 - 1 2 50.0 3 7 10 6 0 2 0 3 -7
p418
aVAmir Johnson BOS 11/03/2016 BOS @ CLE L 26 3 1 5 20.0 0 2 0.0 1 1 100.0 2 2 4 5 0 2 1 3 3
p419
aVMarcus Smart BOS 11/03/2016 BOS @ CLE L 28 14 5 9 55.6 3 6 50.0 1 2 50.0 0 2 2 2 0 1 0 4 -21
p420
aVJames Young BOS 11/02/2016 BOS vs. CHI W 1 0 0 0 - 0 0 - 0 0 - 0 1 1 0 0 0 0 0 0
p421
aVAvery Bradley BOS 11/02/2016 BOS vs. CHI W 39 13 6 15 40.0 1 7 14.3 0 0 - 2 3 5 4 0 0 1 4 2
p422
aVJaylen Brown BOS 11/02/2016 BOS vs. CHI W 8 3 1 3 33.3 1 2 50.0 0 0 - 1 1 2 0 1 0 0 4 0
p423
aVMarcus Smart BOS 11/02/2016 BOS vs. CHI W 34 7 2 8 25.0 1 6 16.7 2 4 50.0 0 5 5 5 1 1 6 1 5
p424
aVGerald Green BOS 11/02/2016 BOS vs. CHI W 14 4 1 3 33.3 0 2 0.0 2 2 100.0 1 0 1 3 0 0 0 1 6
p425
aVTerry Rozier BOS 11/02/2016 BOS vs. CHI W 13 7 3 6 50.0 1 2 50.0 0 1 0.0 0 2 2 0 0 0 0 1 -2
p426
aVJordan Mickey BOS 11/02/2016 BOS vs. CHI W 6 0 0 1 0.0 0 0 - 0 0 - 0 0 0 0 0 0 1 0 -2
p427
aVAmir Johnson BOS 11/02/2016 BOS vs. CHI W 30 23 9 11 81.8 4 4 100.0 1 2 50.0 1 5 6 3 3 2 0 2 8
p428
aVJae Crowder BOS 11/02/2016 BOS vs. CHI W 14 10 4 6 66.7 2 2 100.0 0 0 - 0 5 5 1 0 0 1 1 6
p429
aVIsaiah Thomas BOS 11/02/2016 BOS vs. CHI W 36 23 8 18 44.4 4 7 57.1 3 4 75.0 1 1 2 10 3 1 3 3 6
p430
aVJonas Jerebko BOS 11/02/2016 BOS vs. CHI W 22 6 2 5 40.0 0 0 - 2 2 100.0 1 5 6 2 1 0 0 4 -4
p431
aVTyler Zeller BOS 11/02/2016 BOS vs. CHI W 25 11 5 11 45.5 0 0 - 1 2 50.0 3 1 4 0 1 0 0 3 10
p432
aVAl Horford BOS 10/29/2016 BOS @ CHA W 31 14 6 10 60.0 1 1 100.0 1 2 50.0 0 4 4 3 0 2 1 2 10
p433
aVTyler Zeller BOS 10/29/2016 BOS @ CHA W 12 2 1 1 100.0 0 0 - 0 0 - 0 4 4 1 0 1 0 3 -3
p434
aVJonas Jerebko BOS 10/29/2016 BOS @ CHA W 19 3 1 1 100.0 1 1 100.0 0 0 - 0 2 2 1 0 0 2 3 -5
p435
aVAvery Bradley BOS 10/29/2016 BOS @ CHA W 36 31 11 19 57.9 8 11 72.7 1 2 50.0 1 10 11 4 1 0 1 4 11
p436
aVJordan Mickey BOS 10/29/2016 BOS @ CHA W 8 3 1 3 33.3 0 0 - 1 2 50.0 1 1 2 1 0 0 0 0 -5
p437
aVTerry Rozier BOS 10/29/2016 BOS @ CHA W 21 5 2 4 50.0 0 1 0.0 1 1 100.0 0 3 3 2 0 0 2 1 -10
p438
aVJae Crowder BOS 10/29/2016 BOS @ CHA W 34 9 3 9 33.3 3 7 42.9 0 0 - 0 9 9 4 3 3 3 5 17
p439
aVGerald Green BOS 10/29/2016 BOS @ CHA W 11 4 1 4 25.0 0 2 0.0 2 2 100.0 0 0 0 1 0 0 1 1 -6
p440
aVAmir Johnson BOS 10/29/2016 BOS @ CHA W 21 2 1 4 25.0 0 1 0.0 0 0 - 1 4 5 1 0 0 1 4 15
p441
aVJaylen Brown BOS 10/29/2016 BOS @ CHA W 13 7 3 6 50.0 0 0 - 1 1 100.0 1 0 1 0 0 0 0 1 -8
p442
aVIsaiah Thomas BOS 10/29/2016 BOS @ CHA W 35 24 9 20 45.0 2 7 28.6 4 7 57.1 0 1 1 7 0 0 2 2 14
p443
aVIsaiah Thomas BOS 10/27/2016 BOS @ CHI L 35 25 10 15 66.7 3 7 42.9 2 6 33.3 0 3 3 4 2 0 5 2 -6
p444
aVJonas Jerebko BOS 10/27/2016 BOS @ CHI L 10 4 1 3 33.3 1 1 100.0 1 2 50.0 0 1 1 0 0 0 0 2 -2
p445
aVJae Crowder BOS 10/27/2016 BOS @ CHI L 35 14 4 6 66.7 1 2 50.0 5 5 100.0 1 5 6 1 2 0 1 4 -2
p446
aVAvery Bradley BOS 10/27/2016 BOS @ CHI L 41 16 6 12 50.0 1 3 33.3 3 4 75.0 1 5 6 5 0 1 2 2 -10
p447
aVJaylen Brown BOS 10/27/2016 BOS @ CHI L 20 8 4 7 57.1 0 1 0.0 0 0 - 0 1 1 1 0 0 1 3 -6
p448
aVGerald Green BOS 10/27/2016 BOS @ CHI L 10 2 1 4 25.0 0 2 0.0 0 0 - 0 2 2 0 0 1 0 0 8
p449
aVAl Horford BOS 10/27/2016 BOS @ CHI L 30 11 4 9 44.4 0 2 0.0 3 4 75.0 0 7 7 5 0 1 1 5 -3
p450
aVTyler Zeller BOS 10/27/2016 BOS @ CHI L 20 6 3 9 33.3 0 0 - 0 1 0.0 1 4 5 1 0 2 1 3 2
p451
aVAmir Johnson BOS 10/27/2016 BOS @ CHI L 16 5 2 4 50.0 0 0 - 1 2 50.0 0 1 1 1 0 1 0 3 -11
p452
aVTerry Rozier BOS 10/27/2016 BOS @ CHI L 23 8 3 7 42.9 2 5 40.0 0 0 - 0 4 4 4 2 0 0 1 0
p453
aVIsaiah Thomas BOS 10/26/2016 BOS vs. BKN W 33 25 7 14 50.0 2 7 28.6 9 9 100.0 0 6 6 8 2 0 3 3 15
p454
aVTyler Zeller BOS 10/26/2016 BOS vs. BKN W 16 13 6 7 85.7 0 0 - 1 2 50.0 2 2 4 3 0 2 1 2 -9
p455
aVAvery Bradley BOS 10/26/2016 BOS vs. BKN W 34 17 7 15 46.7 3 4 75.0 0 0 - 4 5 9 6 1 0 3 4 3
p456
aVAmir Johnson BOS 10/26/2016 BOS vs. BKN W 20 8 4 6 66.7 0 0 - 0 1 0.0 4 3 7 2 1 0 4 2 5
p457
aVGerald Green BOS 10/26/2016 BOS vs. BKN W 15 9 4 7 57.1 1 2 50.0 0 0 - 1 4 5 2 0 0 1 1 -9
p458
aVJaylen Brown BOS 10/26/2016 BOS vs. BKN W 19 9 3 4 75.0 0 0 - 3 4 75.0 0 2 2 1 1 2 1 1 0
p459
aVAl Horford BOS 10/26/2016 BOS vs. BKN W 27 11 5 8 62.5 1 4 25.0 0 0 - 1 4 5 6 0 4 2 2 13
p460
aVTerry Rozier BOS 10/26/2016 BOS vs. BKN W 28 5 2 5 40.0 1 2 50.0 0 0 - 0 3 3 3 2 0 1 2 2
p461
aVJonas Jerebko BOS 10/26/2016 BOS vs. BKN W 19 4 1 8 12.5 0 5 0.0 2 2 100.0 0 1 1 3 4 0 1 1 2
p462
aVJae Crowder BOS 10/26/2016 BOS vs. BKN W 29 21 9 15 60.0 3 8 37.5 0 0 - 0 5 5 2 2 1 2 2 3
p463
a.